ARM GAS  C:\Users\SISTEM~1\AppData\Local\Temp\ccZs07Hi.s 			page 1


   1              		.syntax unified
   2              		.cpu cortex-m3
   3              		.fpu softvfp
   4              		.eabi_attribute 20, 1
   5              		.eabi_attribute 21, 1
   6              		.eabi_attribute 23, 3
   7              		.eabi_attribute 24, 1
   8              		.eabi_attribute 25, 1
   9              		.eabi_attribute 26, 1
  10              		.eabi_attribute 30, 6
  11              		.eabi_attribute 34, 1
  12              		.eabi_attribute 18, 4
  13              		.thumb
  14              		.file	"Bootloader_1.c"
  15              		.text
  16              	.Ltext0:
  17              		.cfi_sections	.debug_frame
  18              		.global	Bootloader_1_Checksum
  19              		.section	.bootloader,"a",%progbits
  20              		.type	Bootloader_1_Checksum, %object
  21              		.size	Bootloader_1_Checksum, 1
  22              	Bootloader_1_Checksum:
  23 0000 00       		.space	1
  24              		.global	Bootloader_1_ChecksumAccess
  25              		.data
  26              		.align	2
  27              		.type	Bootloader_1_ChecksumAccess, %object
  28              		.size	Bootloader_1_ChecksumAccess, 4
  29              	Bootloader_1_ChecksumAccess:
  30 0000 00000000 		.word	Bootloader_1_Checksum
  31              		.global	Bootloader_1_SizeBytes
  32              		.section	.bootloader
  33 0001 000000   		.align	2
  34              		.type	Bootloader_1_SizeBytes, %object
  35              		.size	Bootloader_1_SizeBytes, 4
  36              	Bootloader_1_SizeBytes:
  37 0004 FFFFFFFF 		.word	-1
  38              		.global	Bootloader_1_SizeBytesAccess
  39              		.data
  40              		.align	2
  41              		.type	Bootloader_1_SizeBytesAccess, %object
  42              		.size	Bootloader_1_SizeBytesAccess, 4
  43              	Bootloader_1_SizeBytesAccess:
  44 0004 00000000 		.word	Bootloader_1_SizeBytes
  45              		.section	.text.Bootloader_1_CalcPacketChecksum,"ax",%progbits
  46              		.align	2
  47              		.thumb
  48              		.thumb_func
  49              		.type	Bootloader_1_CalcPacketChecksum, %function
  50              	Bootloader_1_CalcPacketChecksum:
  51              	.LFB63:
  52              		.file 1 ".\\Generated_Source\\PSoC5\\Bootloader_1.c"
   1:.\Generated_Source\PSoC5/Bootloader_1.c **** /*******************************************************************************
   2:.\Generated_Source\PSoC5/Bootloader_1.c **** * File Name: Bootloader_1.c
   3:.\Generated_Source\PSoC5/Bootloader_1.c **** * Version 1.30
   4:.\Generated_Source\PSoC5/Bootloader_1.c **** *
   5:.\Generated_Source\PSoC5/Bootloader_1.c **** *  Description:
ARM GAS  C:\Users\SISTEM~1\AppData\Local\Temp\ccZs07Hi.s 			page 2


   6:.\Generated_Source\PSoC5/Bootloader_1.c **** *   Provides an API for the Bootloader component. The API includes functions
   7:.\Generated_Source\PSoC5/Bootloader_1.c **** *   for starting boot loading operations, validating the application and
   8:.\Generated_Source\PSoC5/Bootloader_1.c **** *   jumping to the application.
   9:.\Generated_Source\PSoC5/Bootloader_1.c **** *
  10:.\Generated_Source\PSoC5/Bootloader_1.c **** ********************************************************************************
  11:.\Generated_Source\PSoC5/Bootloader_1.c **** * Copyright 2008-2014, Cypress Semiconductor Corporation.  All rights reserved.
  12:.\Generated_Source\PSoC5/Bootloader_1.c **** * You may use this file only in accordance with the license, terms, conditions,
  13:.\Generated_Source\PSoC5/Bootloader_1.c **** * disclaimers, and limitations in the end user license agreement accompanying
  14:.\Generated_Source\PSoC5/Bootloader_1.c **** * the software package with which this file was provided.
  15:.\Generated_Source\PSoC5/Bootloader_1.c **** *******************************************************************************/
  16:.\Generated_Source\PSoC5/Bootloader_1.c **** 
  17:.\Generated_Source\PSoC5/Bootloader_1.c **** #include "Bootloader_1_PVT.h"
  18:.\Generated_Source\PSoC5/Bootloader_1.c **** 
  19:.\Generated_Source\PSoC5/Bootloader_1.c **** #include "project.h"
  20:.\Generated_Source\PSoC5/Bootloader_1.c **** #include <string.h>
  21:.\Generated_Source\PSoC5/Bootloader_1.c **** 
  22:.\Generated_Source\PSoC5/Bootloader_1.c **** 
  23:.\Generated_Source\PSoC5/Bootloader_1.c **** /*******************************************************************************
  24:.\Generated_Source\PSoC5/Bootloader_1.c **** * The Checksum and SizeBytes are forcefully set in code. We then post process
  25:.\Generated_Source\PSoC5/Bootloader_1.c **** * the hex file from the linker and inject their values then. When the hex file
  26:.\Generated_Source\PSoC5/Bootloader_1.c **** * is loaded onto the device these two variables should have valid values.
  27:.\Generated_Source\PSoC5/Bootloader_1.c **** * Because the compiler can do optimizations to remove the constant
  28:.\Generated_Source\PSoC5/Bootloader_1.c **** * accesses, these should not be accessed directly. Instead, the variables
  29:.\Generated_Source\PSoC5/Bootloader_1.c **** * CyBtldr_ChecksumAccess & CyBtldr_SizeBytesAccess should be used to get the
  30:.\Generated_Source\PSoC5/Bootloader_1.c **** * proper values at runtime.
  31:.\Generated_Source\PSoC5/Bootloader_1.c **** *******************************************************************************/
  32:.\Generated_Source\PSoC5/Bootloader_1.c **** #if defined(__ARMCC_VERSION) || defined (__GNUC__)
  33:.\Generated_Source\PSoC5/Bootloader_1.c ****     __attribute__((section (".bootloader"), used))
  34:.\Generated_Source\PSoC5/Bootloader_1.c **** #elif defined (__ICCARM__)
  35:.\Generated_Source\PSoC5/Bootloader_1.c ****     #pragma location=".bootloader"
  36:.\Generated_Source\PSoC5/Bootloader_1.c **** #endif  /* defined(__ARMCC_VERSION) || defined (__GNUC__) */
  37:.\Generated_Source\PSoC5/Bootloader_1.c **** 
  38:.\Generated_Source\PSoC5/Bootloader_1.c **** #if defined(__ARMCC_VERSION) || defined (__GNUC__) || defined (__C51__)
  39:.\Generated_Source\PSoC5/Bootloader_1.c ****            const uint8  CYCODE Bootloader_1_Checksum = 0u;
  40:.\Generated_Source\PSoC5/Bootloader_1.c **** #elif defined (__ICCARM__)
  41:.\Generated_Source\PSoC5/Bootloader_1.c ****     __root const uint8  CYCODE Bootloader_1_Checksum = 0u;
  42:.\Generated_Source\PSoC5/Bootloader_1.c **** #endif  /* defined(__ARMCC_VERSION) || defined (__GNUC__) || defined (__C51__) */
  43:.\Generated_Source\PSoC5/Bootloader_1.c **** const uint8  CYCODE *Bootloader_1_ChecksumAccess  = (const uint8  CYCODE *)(&Bootloader_1_Checksum)
  44:.\Generated_Source\PSoC5/Bootloader_1.c **** 
  45:.\Generated_Source\PSoC5/Bootloader_1.c **** #if defined(__ARMCC_VERSION) || defined (__GNUC__)
  46:.\Generated_Source\PSoC5/Bootloader_1.c ****     __attribute__((section (".bootloader"), used))
  47:.\Generated_Source\PSoC5/Bootloader_1.c **** #elif defined (__ICCARM__)
  48:.\Generated_Source\PSoC5/Bootloader_1.c ****     #pragma location=".bootloader"
  49:.\Generated_Source\PSoC5/Bootloader_1.c **** #endif  /* defined(__ARMCC_VERSION) || defined (__GNUC__) */
  50:.\Generated_Source\PSoC5/Bootloader_1.c **** 
  51:.\Generated_Source\PSoC5/Bootloader_1.c **** const uint32 CYCODE Bootloader_1_SizeBytes = 0xFFFFFFFFu;
  52:.\Generated_Source\PSoC5/Bootloader_1.c **** const uint32 CYCODE *Bootloader_1_SizeBytesAccess = (const uint32 CYCODE *)(&Bootloader_1_SizeBytes
  53:.\Generated_Source\PSoC5/Bootloader_1.c **** 
  54:.\Generated_Source\PSoC5/Bootloader_1.c **** 
  55:.\Generated_Source\PSoC5/Bootloader_1.c **** #if(0u != Bootloader_1_DUAL_APP_BOOTLOADER)
  56:.\Generated_Source\PSoC5/Bootloader_1.c ****     uint8 Bootloader_1_activeApp = Bootloader_1_MD_BTLDB_ACTIVE_NONE;
  57:.\Generated_Source\PSoC5/Bootloader_1.c **** #else
  58:.\Generated_Source\PSoC5/Bootloader_1.c ****     #define Bootloader_1_activeApp      (Bootloader_1_MD_BTLDB_ACTIVE_0)
  59:.\Generated_Source\PSoC5/Bootloader_1.c **** #endif  /* (0u != Bootloader_1_DUAL_APP_BOOTLOADER) */
  60:.\Generated_Source\PSoC5/Bootloader_1.c **** 
  61:.\Generated_Source\PSoC5/Bootloader_1.c **** 
  62:.\Generated_Source\PSoC5/Bootloader_1.c **** /***************************************
ARM GAS  C:\Users\SISTEM~1\AppData\Local\Temp\ccZs07Hi.s 			page 3


  63:.\Generated_Source\PSoC5/Bootloader_1.c **** *     Function Prototypes
  64:.\Generated_Source\PSoC5/Bootloader_1.c **** ***************************************/
  65:.\Generated_Source\PSoC5/Bootloader_1.c **** static cystatus Bootloader_1_WritePacket(uint8 status, uint8 buffer[], uint16 size) CYSMALL \
  66:.\Generated_Source\PSoC5/Bootloader_1.c ****                                     ;
  67:.\Generated_Source\PSoC5/Bootloader_1.c **** 
  68:.\Generated_Source\PSoC5/Bootloader_1.c **** static uint16   Bootloader_1_CalcPacketChecksum(const uint8 buffer[], uint16 size) CYSMALL \
  69:.\Generated_Source\PSoC5/Bootloader_1.c ****                                     ;
  70:.\Generated_Source\PSoC5/Bootloader_1.c **** 
  71:.\Generated_Source\PSoC5/Bootloader_1.c **** static void     Bootloader_1_HostLink(uint8 timeOut) \
  72:.\Generated_Source\PSoC5/Bootloader_1.c ****                                     ;
  73:.\Generated_Source\PSoC5/Bootloader_1.c **** 
  74:.\Generated_Source\PSoC5/Bootloader_1.c **** static void     Bootloader_1_LaunchApplication(void) CYSMALL \
  75:.\Generated_Source\PSoC5/Bootloader_1.c ****                                     ;
  76:.\Generated_Source\PSoC5/Bootloader_1.c **** 
  77:.\Generated_Source\PSoC5/Bootloader_1.c **** #if(!CY_PSOC3)
  78:.\Generated_Source\PSoC5/Bootloader_1.c ****     /* Implementation for the PSoC 3 resides in a Bootloader_1_psoc3.a51 file.  */
  79:.\Generated_Source\PSoC5/Bootloader_1.c ****     static void     Bootloader_1_LaunchBootloadable(uint32 appAddr);
  80:.\Generated_Source\PSoC5/Bootloader_1.c **** #endif  /* (!CY_PSOC3) */
  81:.\Generated_Source\PSoC5/Bootloader_1.c **** 
  82:.\Generated_Source\PSoC5/Bootloader_1.c **** 
  83:.\Generated_Source\PSoC5/Bootloader_1.c **** /*******************************************************************************
  84:.\Generated_Source\PSoC5/Bootloader_1.c **** * Function Name: Bootloader_1_CalcPacketChecksum
  85:.\Generated_Source\PSoC5/Bootloader_1.c **** ********************************************************************************
  86:.\Generated_Source\PSoC5/Bootloader_1.c **** *
  87:.\Generated_Source\PSoC5/Bootloader_1.c **** * Summary:
  88:.\Generated_Source\PSoC5/Bootloader_1.c **** *  This computes the 16 bit checksum for the provided number of bytes contained
  89:.\Generated_Source\PSoC5/Bootloader_1.c **** *  in the provided buffer
  90:.\Generated_Source\PSoC5/Bootloader_1.c **** *
  91:.\Generated_Source\PSoC5/Bootloader_1.c **** * Parameters:
  92:.\Generated_Source\PSoC5/Bootloader_1.c **** *  buffer:
  93:.\Generated_Source\PSoC5/Bootloader_1.c **** *     The buffer containing the data to compute the checksum for
  94:.\Generated_Source\PSoC5/Bootloader_1.c **** *  size:
  95:.\Generated_Source\PSoC5/Bootloader_1.c **** *     The number of bytes in the buffer to compute the checksum for
  96:.\Generated_Source\PSoC5/Bootloader_1.c **** *
  97:.\Generated_Source\PSoC5/Bootloader_1.c **** * Returns:
  98:.\Generated_Source\PSoC5/Bootloader_1.c **** *  16 bit checksum for the provided data
  99:.\Generated_Source\PSoC5/Bootloader_1.c **** *
 100:.\Generated_Source\PSoC5/Bootloader_1.c **** *******************************************************************************/
 101:.\Generated_Source\PSoC5/Bootloader_1.c **** static uint16 Bootloader_1_CalcPacketChecksum(const uint8 buffer[], uint16 size) \
 102:.\Generated_Source\PSoC5/Bootloader_1.c ****                     CYSMALL 
 103:.\Generated_Source\PSoC5/Bootloader_1.c **** {
  53              		.loc 1 103 0
  54              		.cfi_startproc
  55              		@ args = 0, pretend = 0, frame = 16
  56              		@ frame_needed = 1, uses_anonymous_args = 0
  57              		@ link register save eliminated.
  58 0000 80B4     		push	{r7}
  59              		.cfi_def_cfa_offset 4
  60              		.cfi_offset 7, -4
  61 0002 85B0     		sub	sp, sp, #20
  62              		.cfi_def_cfa_offset 24
  63 0004 00AF     		add	r7, sp, #0
  64              		.cfi_def_cfa_register 7
  65 0006 7860     		str	r0, [r7, #4]
  66 0008 0B46     		mov	r3, r1
  67 000a 7B80     		strh	r3, [r7, #2]	@ movhi
 104:.\Generated_Source\PSoC5/Bootloader_1.c ****     #if(0u != Bootloader_1_PACKET_CHECKSUM_CRC)
ARM GAS  C:\Users\SISTEM~1\AppData\Local\Temp\ccZs07Hi.s 			page 4


 105:.\Generated_Source\PSoC5/Bootloader_1.c **** 
 106:.\Generated_Source\PSoC5/Bootloader_1.c ****         uint16 CYDATA crc = Bootloader_1_CRC_CCITT_INITIAL_VALUE;
 107:.\Generated_Source\PSoC5/Bootloader_1.c ****         uint16 CYDATA tmp;
 108:.\Generated_Source\PSoC5/Bootloader_1.c ****         uint8  CYDATA i;
 109:.\Generated_Source\PSoC5/Bootloader_1.c ****         uint16 CYDATA tmpIndex = size;
 110:.\Generated_Source\PSoC5/Bootloader_1.c **** 
 111:.\Generated_Source\PSoC5/Bootloader_1.c ****         if(0u == size)
 112:.\Generated_Source\PSoC5/Bootloader_1.c ****         {
 113:.\Generated_Source\PSoC5/Bootloader_1.c ****             crc = ~crc;
 114:.\Generated_Source\PSoC5/Bootloader_1.c ****         }
 115:.\Generated_Source\PSoC5/Bootloader_1.c ****         else
 116:.\Generated_Source\PSoC5/Bootloader_1.c ****         {
 117:.\Generated_Source\PSoC5/Bootloader_1.c ****             do
 118:.\Generated_Source\PSoC5/Bootloader_1.c ****             {
 119:.\Generated_Source\PSoC5/Bootloader_1.c ****                 tmp = buffer[tmpIndex - size];
 120:.\Generated_Source\PSoC5/Bootloader_1.c **** 
 121:.\Generated_Source\PSoC5/Bootloader_1.c ****                 for (i = 0u; i < 8u; i++)
 122:.\Generated_Source\PSoC5/Bootloader_1.c ****                 {
 123:.\Generated_Source\PSoC5/Bootloader_1.c ****                     if (0u != ((crc & 0x0001u) ^ (tmp & 0x0001u)))
 124:.\Generated_Source\PSoC5/Bootloader_1.c ****                     {
 125:.\Generated_Source\PSoC5/Bootloader_1.c ****                         crc = (crc >> 1u) ^ Bootloader_1_CRC_CCITT_POLYNOMIAL;
 126:.\Generated_Source\PSoC5/Bootloader_1.c ****                     }
 127:.\Generated_Source\PSoC5/Bootloader_1.c ****                     else
 128:.\Generated_Source\PSoC5/Bootloader_1.c ****                     {
 129:.\Generated_Source\PSoC5/Bootloader_1.c ****                         crc >>= 1u;
 130:.\Generated_Source\PSoC5/Bootloader_1.c ****                     }
 131:.\Generated_Source\PSoC5/Bootloader_1.c **** 
 132:.\Generated_Source\PSoC5/Bootloader_1.c ****                     tmp >>= 1u;
 133:.\Generated_Source\PSoC5/Bootloader_1.c ****                 }
 134:.\Generated_Source\PSoC5/Bootloader_1.c **** 
 135:.\Generated_Source\PSoC5/Bootloader_1.c ****                 size--;
 136:.\Generated_Source\PSoC5/Bootloader_1.c ****             }
 137:.\Generated_Source\PSoC5/Bootloader_1.c ****             while(0u != size);
 138:.\Generated_Source\PSoC5/Bootloader_1.c **** 
 139:.\Generated_Source\PSoC5/Bootloader_1.c ****             crc = ~crc;
 140:.\Generated_Source\PSoC5/Bootloader_1.c ****             tmp = crc;
 141:.\Generated_Source\PSoC5/Bootloader_1.c ****             crc = ( uint16 )(crc << 8u) | (tmp >> 8u);
 142:.\Generated_Source\PSoC5/Bootloader_1.c ****         }
 143:.\Generated_Source\PSoC5/Bootloader_1.c **** 
 144:.\Generated_Source\PSoC5/Bootloader_1.c ****         return(crc);
 145:.\Generated_Source\PSoC5/Bootloader_1.c **** 
 146:.\Generated_Source\PSoC5/Bootloader_1.c ****     #else
 147:.\Generated_Source\PSoC5/Bootloader_1.c **** 
 148:.\Generated_Source\PSoC5/Bootloader_1.c ****         uint16 CYDATA sum = 0u;
  68              		.loc 1 148 0
  69 000c 0023     		movs	r3, #0
  70 000e FB81     		strh	r3, [r7, #14]	@ movhi
 149:.\Generated_Source\PSoC5/Bootloader_1.c **** 
 150:.\Generated_Source\PSoC5/Bootloader_1.c ****         while (size > 0u)
  71              		.loc 1 150 0
  72 0010 0BE0     		b	.L2
  73              	.L3:
 151:.\Generated_Source\PSoC5/Bootloader_1.c ****         {
 152:.\Generated_Source\PSoC5/Bootloader_1.c ****             sum += buffer[size - 1u];
  74              		.loc 1 152 0
  75 0012 7B88     		ldrh	r3, [r7, #2]
  76 0014 013B     		subs	r3, r3, #1
ARM GAS  C:\Users\SISTEM~1\AppData\Local\Temp\ccZs07Hi.s 			page 5


  77 0016 7A68     		ldr	r2, [r7, #4]
  78 0018 1344     		add	r3, r3, r2
  79 001a 1B78     		ldrb	r3, [r3]	@ zero_extendqisi2
  80 001c 1A46     		mov	r2, r3
  81 001e FB89     		ldrh	r3, [r7, #14]	@ movhi
  82 0020 1344     		add	r3, r3, r2
  83 0022 FB81     		strh	r3, [r7, #14]	@ movhi
 153:.\Generated_Source\PSoC5/Bootloader_1.c ****             size--;
  84              		.loc 1 153 0
  85 0024 7B88     		ldrh	r3, [r7, #2]
  86 0026 013B     		subs	r3, r3, #1
  87 0028 7B80     		strh	r3, [r7, #2]	@ movhi
  88              	.L2:
 150:.\Generated_Source\PSoC5/Bootloader_1.c ****         while (size > 0u)
  89              		.loc 1 150 0 discriminator 1
  90 002a 7B88     		ldrh	r3, [r7, #2]
  91 002c 002B     		cmp	r3, #0
  92 002e F0D1     		bne	.L3
 154:.\Generated_Source\PSoC5/Bootloader_1.c ****         }
 155:.\Generated_Source\PSoC5/Bootloader_1.c **** 
 156:.\Generated_Source\PSoC5/Bootloader_1.c ****         return(( uint16 )1u + ( uint16 )(~sum));
  93              		.loc 1 156 0
  94 0030 FB89     		ldrh	r3, [r7, #14]	@ movhi
  95 0032 5B42     		negs	r3, r3
  96 0034 9BB2     		uxth	r3, r3
 157:.\Generated_Source\PSoC5/Bootloader_1.c **** 
 158:.\Generated_Source\PSoC5/Bootloader_1.c ****     #endif /* (0u != Bootloader_1_PACKET_CHECKSUM_CRC) */
 159:.\Generated_Source\PSoC5/Bootloader_1.c **** }
  97              		.loc 1 159 0
  98 0036 1846     		mov	r0, r3
  99 0038 1437     		adds	r7, r7, #20
 100 003a BD46     		mov	sp, r7
 101              		@ sp needed
 102 003c 5DF8047B 		ldr	r7, [sp], #4
 103 0040 7047     		bx	lr
 104              		.cfi_endproc
 105              	.LFE63:
 106              		.size	Bootloader_1_CalcPacketChecksum, .-Bootloader_1_CalcPacketChecksum
 107 0042 00BF     		.section	.text.Bootloader_1_Calc8BitSum,"ax",%progbits
 108              		.align	2
 109              		.global	Bootloader_1_Calc8BitSum
 110              		.thumb
 111              		.thumb_func
 112              		.type	Bootloader_1_Calc8BitSum, %function
 113              	Bootloader_1_Calc8BitSum:
 114              	.LFB64:
 160:.\Generated_Source\PSoC5/Bootloader_1.c **** 
 161:.\Generated_Source\PSoC5/Bootloader_1.c **** 
 162:.\Generated_Source\PSoC5/Bootloader_1.c **** /*******************************************************************************
 163:.\Generated_Source\PSoC5/Bootloader_1.c **** * Function Name: Bootloader_1_Calc8BitSum
 164:.\Generated_Source\PSoC5/Bootloader_1.c **** ********************************************************************************
 165:.\Generated_Source\PSoC5/Bootloader_1.c **** *
 166:.\Generated_Source\PSoC5/Bootloader_1.c **** * Summary:
 167:.\Generated_Source\PSoC5/Bootloader_1.c **** *  This computes the 8 bit sum for the provided number of bytes contained in
 168:.\Generated_Source\PSoC5/Bootloader_1.c **** *  FLASH (if baseAddr equals CY_FLASH_BASE) or EEPROM (if baseAddr equals
 169:.\Generated_Source\PSoC5/Bootloader_1.c **** *  CY_EEPROM_BASE).
 170:.\Generated_Source\PSoC5/Bootloader_1.c **** *
ARM GAS  C:\Users\SISTEM~1\AppData\Local\Temp\ccZs07Hi.s 			page 6


 171:.\Generated_Source\PSoC5/Bootloader_1.c **** * Parameters:
 172:.\Generated_Source\PSoC5/Bootloader_1.c **** * baseAddr:
 173:.\Generated_Source\PSoC5/Bootloader_1.c **** *   CY_FLASH_BASE
 174:.\Generated_Source\PSoC5/Bootloader_1.c **** *   CY_EEPROM_BASE - applicable only for PSoC 3 / PSoC 5LP devices.
 175:.\Generated_Source\PSoC5/Bootloader_1.c **** *
 176:.\Generated_Source\PSoC5/Bootloader_1.c **** *  start:
 177:.\Generated_Source\PSoC5/Bootloader_1.c **** *     The starting address to start summing data for
 178:.\Generated_Source\PSoC5/Bootloader_1.c **** *  size:
 179:.\Generated_Source\PSoC5/Bootloader_1.c **** *     The number of bytes to read and compute the sum for
 180:.\Generated_Source\PSoC5/Bootloader_1.c **** *
 181:.\Generated_Source\PSoC5/Bootloader_1.c **** * Returns:
 182:.\Generated_Source\PSoC5/Bootloader_1.c **** *   8 bit sum for the provided data
 183:.\Generated_Source\PSoC5/Bootloader_1.c **** *
 184:.\Generated_Source\PSoC5/Bootloader_1.c **** *******************************************************************************/
 185:.\Generated_Source\PSoC5/Bootloader_1.c **** uint8 Bootloader_1_Calc8BitSum(uint32 baseAddr, uint32 start, uint32 size) \
 186:.\Generated_Source\PSoC5/Bootloader_1.c ****                 CYSMALL 
 187:.\Generated_Source\PSoC5/Bootloader_1.c **** {
 115              		.loc 1 187 0
 116              		.cfi_startproc
 117              		@ args = 0, pretend = 0, frame = 24
 118              		@ frame_needed = 1, uses_anonymous_args = 0
 119 0000 80B5     		push	{r7, lr}
 120              		.cfi_def_cfa_offset 8
 121              		.cfi_offset 7, -8
 122              		.cfi_offset 14, -4
 123 0002 86B0     		sub	sp, sp, #24
 124              		.cfi_def_cfa_offset 32
 125 0004 00AF     		add	r7, sp, #0
 126              		.cfi_def_cfa_register 7
 127 0006 F860     		str	r0, [r7, #12]
 128 0008 B960     		str	r1, [r7, #8]
 129 000a 7A60     		str	r2, [r7, #4]
 188:.\Generated_Source\PSoC5/Bootloader_1.c ****     uint8 CYDATA sum = 0u;
 130              		.loc 1 188 0
 131 000c 0023     		movs	r3, #0
 132 000e FB75     		strb	r3, [r7, #23]
 189:.\Generated_Source\PSoC5/Bootloader_1.c **** 
 190:.\Generated_Source\PSoC5/Bootloader_1.c ****     #if(!CY_PSOC4)
 191:.\Generated_Source\PSoC5/Bootloader_1.c ****         CYASSERT((baseAddr == CY_EEPROM_BASE) || (baseAddr == CY_FLASH_BASE));
 133              		.loc 1 191 0
 134 0010 FA68     		ldr	r2, [r7, #12]
 135 0012 0F4B     		ldr	r3, .L10
 136 0014 9A42     		cmp	r2, r3
 137 0016 06D0     		beq	.L6
 138              		.loc 1 191 0 is_stmt 0 discriminator 1
 139 0018 FB68     		ldr	r3, [r7, #12]
 140 001a 002B     		cmp	r3, #0
 141 001c 03D0     		beq	.L6
 142 001e 0020     		movs	r0, #0
 143 0020 FFF7FEFF 		bl	CyHalt
 192:.\Generated_Source\PSoC5/Bootloader_1.c ****     #else
 193:.\Generated_Source\PSoC5/Bootloader_1.c ****         CYASSERT(baseAddr == CY_FLASH_BASE);
 194:.\Generated_Source\PSoC5/Bootloader_1.c ****     #endif  /* (!CY_PSOC4) */
 195:.\Generated_Source\PSoC5/Bootloader_1.c **** 
 196:.\Generated_Source\PSoC5/Bootloader_1.c ****     while (size > 0u)
 144              		.loc 1 196 0 is_stmt 1 discriminator 1
 145 0024 0CE0     		b	.L7
ARM GAS  C:\Users\SISTEM~1\AppData\Local\Temp\ccZs07Hi.s 			page 7


 146              	.L6:
 147              		.loc 1 196 0 is_stmt 0
 148 0026 0BE0     		b	.L7
 149              	.L8:
 197:.\Generated_Source\PSoC5/Bootloader_1.c ****     {
 198:.\Generated_Source\PSoC5/Bootloader_1.c ****         size--;
 150              		.loc 1 198 0 is_stmt 1
 151 0028 7B68     		ldr	r3, [r7, #4]
 152 002a 013B     		subs	r3, r3, #1
 153 002c 7B60     		str	r3, [r7, #4]
 199:.\Generated_Source\PSoC5/Bootloader_1.c ****         sum += (*((uint8  *)(baseAddr + start + size)));
 154              		.loc 1 199 0
 155 002e FA68     		ldr	r2, [r7, #12]
 156 0030 BB68     		ldr	r3, [r7, #8]
 157 0032 1A44     		add	r2, r2, r3
 158 0034 7B68     		ldr	r3, [r7, #4]
 159 0036 1344     		add	r3, r3, r2
 160 0038 1A78     		ldrb	r2, [r3]	@ zero_extendqisi2
 161 003a FB7D     		ldrb	r3, [r7, #23]
 162 003c 1344     		add	r3, r3, r2
 163 003e FB75     		strb	r3, [r7, #23]
 164              	.L7:
 196:.\Generated_Source\PSoC5/Bootloader_1.c ****     while (size > 0u)
 165              		.loc 1 196 0 discriminator 1
 166 0040 7B68     		ldr	r3, [r7, #4]
 167 0042 002B     		cmp	r3, #0
 168 0044 F0D1     		bne	.L8
 200:.\Generated_Source\PSoC5/Bootloader_1.c ****     }
 201:.\Generated_Source\PSoC5/Bootloader_1.c **** 
 202:.\Generated_Source\PSoC5/Bootloader_1.c ****     return(sum);
 169              		.loc 1 202 0
 170 0046 FB7D     		ldrb	r3, [r7, #23]	@ zero_extendqisi2
 203:.\Generated_Source\PSoC5/Bootloader_1.c **** }
 171              		.loc 1 203 0
 172 0048 1846     		mov	r0, r3
 173 004a 1837     		adds	r7, r7, #24
 174 004c BD46     		mov	sp, r7
 175              		@ sp needed
 176 004e 80BD     		pop	{r7, pc}
 177              	.L11:
 178              		.align	2
 179              	.L10:
 180 0050 00800040 		.word	1073774592
 181              		.cfi_endproc
 182              	.LFE64:
 183              		.size	Bootloader_1_Calc8BitSum, .-Bootloader_1_Calc8BitSum
 184              		.section	.text.Bootloader_1_Start,"ax",%progbits
 185              		.align	2
 186              		.global	Bootloader_1_Start
 187              		.thumb
 188              		.thumb_func
 189              		.type	Bootloader_1_Start, %function
 190              	Bootloader_1_Start:
 191              	.LFB65:
 204:.\Generated_Source\PSoC5/Bootloader_1.c **** 
 205:.\Generated_Source\PSoC5/Bootloader_1.c **** 
 206:.\Generated_Source\PSoC5/Bootloader_1.c **** /*******************************************************************************
ARM GAS  C:\Users\SISTEM~1\AppData\Local\Temp\ccZs07Hi.s 			page 8


 207:.\Generated_Source\PSoC5/Bootloader_1.c **** * Function Name: Bootloader_1_Start
 208:.\Generated_Source\PSoC5/Bootloader_1.c **** ********************************************************************************
 209:.\Generated_Source\PSoC5/Bootloader_1.c **** * Summary:
 210:.\Generated_Source\PSoC5/Bootloader_1.c **** *  This function is called in order to execute the following algorithm:
 211:.\Generated_Source\PSoC5/Bootloader_1.c **** *
 212:.\Generated_Source\PSoC5/Bootloader_1.c **** *  - Identify the active bootloadable application (applicable only to
 213:.\Generated_Source\PSoC5/Bootloader_1.c **** *    the Multi-application bootloader)
 214:.\Generated_Source\PSoC5/Bootloader_1.c **** *
 215:.\Generated_Source\PSoC5/Bootloader_1.c **** *  - Validate the bootloader application (design-time configurable, Bootloader
 216:.\Generated_Source\PSoC5/Bootloader_1.c **** *    application validation option of the component customizer)
 217:.\Generated_Source\PSoC5/Bootloader_1.c **** *
 218:.\Generated_Source\PSoC5/Bootloader_1.c **** *  - Validate the active bootloadable application. If active bootloadable
 219:.\Generated_Source\PSoC5/Bootloader_1.c **** *    application is not valid, and the other bootloadable application (inactive)
 220:.\Generated_Source\PSoC5/Bootloader_1.c **** *    is valid, the last one is started.
 221:.\Generated_Source\PSoC5/Bootloader_1.c **** *
 222:.\Generated_Source\PSoC5/Bootloader_1.c **** *  - Run a communication subroutine (design-time configurable, Wait for command
 223:.\Generated_Source\PSoC5/Bootloader_1.c **** *    option of the component customizer)
 224:.\Generated_Source\PSoC5/Bootloader_1.c **** *
 225:.\Generated_Source\PSoC5/Bootloader_1.c **** *  - Schedule the bootloadable and reset the device
 226:.\Generated_Source\PSoC5/Bootloader_1.c **** *
 227:.\Generated_Source\PSoC5/Bootloader_1.c **** * Parameters:
 228:.\Generated_Source\PSoC5/Bootloader_1.c **** *  None
 229:.\Generated_Source\PSoC5/Bootloader_1.c **** *
 230:.\Generated_Source\PSoC5/Bootloader_1.c **** * Return:
 231:.\Generated_Source\PSoC5/Bootloader_1.c **** *  This method will never return. It will either load a new application and
 232:.\Generated_Source\PSoC5/Bootloader_1.c **** *  reset the device or jump directly to the existing application. The CPU is
 233:.\Generated_Source\PSoC5/Bootloader_1.c **** *  halted, if validation failed when "Bootloader application validation" option
 234:.\Generated_Source\PSoC5/Bootloader_1.c **** *  is enabled.
 235:.\Generated_Source\PSoC5/Bootloader_1.c **** *  PSoC 3/PSoC 5: The CPU is halted if Flash initialization fails.
 236:.\Generated_Source\PSoC5/Bootloader_1.c **** *
 237:.\Generated_Source\PSoC5/Bootloader_1.c **** * Side Effects:
 238:.\Generated_Source\PSoC5/Bootloader_1.c **** *  If Bootloader application validation option is enabled and this method
 239:.\Generated_Source\PSoC5/Bootloader_1.c **** *  determines that the bootloader application itself is corrupt, this method
 240:.\Generated_Source\PSoC5/Bootloader_1.c **** *  will not return, instead it will simply hang the application.
 241:.\Generated_Source\PSoC5/Bootloader_1.c **** *
 242:.\Generated_Source\PSoC5/Bootloader_1.c **** *******************************************************************************/
 243:.\Generated_Source\PSoC5/Bootloader_1.c **** void Bootloader_1_Start(void) CYSMALL 
 244:.\Generated_Source\PSoC5/Bootloader_1.c **** {
 192              		.loc 1 244 0
 193              		.cfi_startproc
 194              		@ args = 0, pretend = 0, frame = 8
 195              		@ frame_needed = 1, uses_anonymous_args = 0
 196 0000 80B5     		push	{r7, lr}
 197              		.cfi_def_cfa_offset 8
 198              		.cfi_offset 7, -8
 199              		.cfi_offset 14, -4
 200 0002 82B0     		sub	sp, sp, #8
 201              		.cfi_def_cfa_offset 16
 202 0004 00AF     		add	r7, sp, #0
 203              		.cfi_def_cfa_register 7
 245:.\Generated_Source\PSoC5/Bootloader_1.c ****     #if(0u != Bootloader_1_BOOTLOADER_APP_VALIDATION)
 246:.\Generated_Source\PSoC5/Bootloader_1.c ****         uint8 CYDATA calcedChecksum;
 247:.\Generated_Source\PSoC5/Bootloader_1.c ****     #endif    /* (0u != Bootloader_1_BOOTLOADER_APP_VALIDATION) */
 248:.\Generated_Source\PSoC5/Bootloader_1.c **** 
 249:.\Generated_Source\PSoC5/Bootloader_1.c ****     #if(!CY_PSOC4)
 250:.\Generated_Source\PSoC5/Bootloader_1.c ****         #if(0u != Bootloader_1_FAST_APP_VALIDATION)
 251:.\Generated_Source\PSoC5/Bootloader_1.c ****             #if !defined(CY_BOOT_VERSION)
ARM GAS  C:\Users\SISTEM~1\AppData\Local\Temp\ccZs07Hi.s 			page 9


 252:.\Generated_Source\PSoC5/Bootloader_1.c **** 
 253:.\Generated_Source\PSoC5/Bootloader_1.c ****                 /* Not required starting from cy_boot 4.20 */
 254:.\Generated_Source\PSoC5/Bootloader_1.c ****                 uint8 CYXDATA Bootloader_1_flashBuffer[Bootloader_1_FROW_SIZE];
 255:.\Generated_Source\PSoC5/Bootloader_1.c **** 
 256:.\Generated_Source\PSoC5/Bootloader_1.c ****             #endif /* !defined(CY_BOOT_VERSION) */
 257:.\Generated_Source\PSoC5/Bootloader_1.c ****         #endif  /* (0u != Bootloader_1_FAST_APP_VALIDATION) */
 258:.\Generated_Source\PSoC5/Bootloader_1.c ****     #endif  /* (!CY_PSOC4) */
 259:.\Generated_Source\PSoC5/Bootloader_1.c **** 
 260:.\Generated_Source\PSoC5/Bootloader_1.c ****     cystatus validApp  = CYRET_BAD_DATA;
 204              		.loc 1 260 0
 205 0006 0623     		movs	r3, #6
 206 0008 7B60     		str	r3, [r7, #4]
 261:.\Generated_Source\PSoC5/Bootloader_1.c **** 
 262:.\Generated_Source\PSoC5/Bootloader_1.c **** 
 263:.\Generated_Source\PSoC5/Bootloader_1.c ****     /* Identify active bootloadable application */
 264:.\Generated_Source\PSoC5/Bootloader_1.c ****     #if(0u != Bootloader_1_DUAL_APP_BOOTLOADER)
 265:.\Generated_Source\PSoC5/Bootloader_1.c **** 
 266:.\Generated_Source\PSoC5/Bootloader_1.c ****         /* Assumes no active bootloadable application. Bootloader is active. */
 267:.\Generated_Source\PSoC5/Bootloader_1.c ****         Bootloader_1_activeApp = Bootloader_1_MD_BTLDB_ACTIVE_NONE;
 268:.\Generated_Source\PSoC5/Bootloader_1.c **** 
 269:.\Generated_Source\PSoC5/Bootloader_1.c ****         /* Bootloadable # A is active */
 270:.\Generated_Source\PSoC5/Bootloader_1.c ****         if(Bootloader_1_GetMetadata(Bootloader_1_GET_BTLDB_ACTIVE, 0u) == Bootloader_1_MD_BTLDB_IS_
 271:.\Generated_Source\PSoC5/Bootloader_1.c ****         {
 272:.\Generated_Source\PSoC5/Bootloader_1.c ****             /*******************************************************************
 273:.\Generated_Source\PSoC5/Bootloader_1.c ****             * -----------------------------------------------------------
 274:.\Generated_Source\PSoC5/Bootloader_1.c ****             * |      | Bootloadable A | Bootloadable B |                |
 275:.\Generated_Source\PSoC5/Bootloader_1.c ****             * | Case |---------------------------------|     Action     |
 276:.\Generated_Source\PSoC5/Bootloader_1.c ****             * |      | Active | Valid | Active | Valid |                |
 277:.\Generated_Source\PSoC5/Bootloader_1.c ****             * |------|--------------------------------------------------|
 278:.\Generated_Source\PSoC5/Bootloader_1.c ****             * |  9   |    1   |   0   |   0    |   0   | Bootloader     |
 279:.\Generated_Source\PSoC5/Bootloader_1.c ****             * |  10  |    1   |   0   |   0    |   1   | Bootloadable B |
 280:.\Generated_Source\PSoC5/Bootloader_1.c ****             * |  11  |    1   |   0   |   1    |   0   | Bootloader     |
 281:.\Generated_Source\PSoC5/Bootloader_1.c ****             * |  12  |    1   |   0   |   1    |   1   | Bootloadable B |
 282:.\Generated_Source\PSoC5/Bootloader_1.c ****             * |  13  |    1   |   1   |   0    |   0   | Bootloadable A |
 283:.\Generated_Source\PSoC5/Bootloader_1.c ****             * |  14  |    1   |   1   |   0    |   1   | Bootloadable A |
 284:.\Generated_Source\PSoC5/Bootloader_1.c ****             * |  15  |    1   |   1   |   1    |   0   | Bootloadable A |
 285:.\Generated_Source\PSoC5/Bootloader_1.c ****             * |  16  |    1   |   1   |   1    |   1   | Bootloadable A |
 286:.\Generated_Source\PSoC5/Bootloader_1.c ****             * -----------------------------------------------------------
 287:.\Generated_Source\PSoC5/Bootloader_1.c ****             *******************************************************************/
 288:.\Generated_Source\PSoC5/Bootloader_1.c ****             if (CYRET_SUCCESS == Bootloader_1_ValidateBootloadable(Bootloader_1_MD_BTLDB_ACTIVE_0))
 289:.\Generated_Source\PSoC5/Bootloader_1.c ****             {
 290:.\Generated_Source\PSoC5/Bootloader_1.c ****                 /* Cases # 13,  14, 15, and 16 */
 291:.\Generated_Source\PSoC5/Bootloader_1.c ****                 Bootloader_1_activeApp = Bootloader_1_MD_BTLDB_ACTIVE_0;
 292:.\Generated_Source\PSoC5/Bootloader_1.c ****                 validApp = CYRET_SUCCESS;
 293:.\Generated_Source\PSoC5/Bootloader_1.c ****             }
 294:.\Generated_Source\PSoC5/Bootloader_1.c ****             else
 295:.\Generated_Source\PSoC5/Bootloader_1.c ****             {
 296:.\Generated_Source\PSoC5/Bootloader_1.c ****                 if (CYRET_SUCCESS == Bootloader_1_ValidateBootloadable(Bootloader_1_MD_BTLDB_ACTIVE
 297:.\Generated_Source\PSoC5/Bootloader_1.c ****                 {
 298:.\Generated_Source\PSoC5/Bootloader_1.c ****                     /* Cases # 10 and 12 */
 299:.\Generated_Source\PSoC5/Bootloader_1.c ****                     Bootloader_1_activeApp = Bootloader_1_MD_BTLDB_ACTIVE_1;
 300:.\Generated_Source\PSoC5/Bootloader_1.c ****                     validApp = CYRET_SUCCESS;
 301:.\Generated_Source\PSoC5/Bootloader_1.c ****                 }
 302:.\Generated_Source\PSoC5/Bootloader_1.c ****             }
 303:.\Generated_Source\PSoC5/Bootloader_1.c ****         }
 304:.\Generated_Source\PSoC5/Bootloader_1.c **** 
 305:.\Generated_Source\PSoC5/Bootloader_1.c ****         /*  Active bootloadable application is not identified */
ARM GAS  C:\Users\SISTEM~1\AppData\Local\Temp\ccZs07Hi.s 			page 10


 306:.\Generated_Source\PSoC5/Bootloader_1.c ****         if(Bootloader_1_activeApp == Bootloader_1_MD_BTLDB_ACTIVE_NONE)
 307:.\Generated_Source\PSoC5/Bootloader_1.c ****         {
 308:.\Generated_Source\PSoC5/Bootloader_1.c ****             /*******************************************************************
 309:.\Generated_Source\PSoC5/Bootloader_1.c ****             * -----------------------------------------------------------
 310:.\Generated_Source\PSoC5/Bootloader_1.c ****             * |      | Bootloadable A | Bootloadable B |                |
 311:.\Generated_Source\PSoC5/Bootloader_1.c ****             * | Case |---------------------------------|     Action     |
 312:.\Generated_Source\PSoC5/Bootloader_1.c ****             * |      | Active | Valid | Active | Valid |                |
 313:.\Generated_Source\PSoC5/Bootloader_1.c ****             * |------|--------------------------------------------------|
 314:.\Generated_Source\PSoC5/Bootloader_1.c ****             * |  1   |    0   |   0   |   0    |   0   | Bootloader     |
 315:.\Generated_Source\PSoC5/Bootloader_1.c ****             * |  2   |    0   |   0   |   0    |   1   | Bootloader     |
 316:.\Generated_Source\PSoC5/Bootloader_1.c ****             * |  3   |    0   |   0   |   1    |   0   | Bootloader     |
 317:.\Generated_Source\PSoC5/Bootloader_1.c ****             * |  4   |    0   |   0   |   1    |   1   | Bootloadable B |
 318:.\Generated_Source\PSoC5/Bootloader_1.c ****             * |  5   |    0   |   1   |   0    |   0   | Bootloader     |
 319:.\Generated_Source\PSoC5/Bootloader_1.c ****             * |  6   |    0   |   1   |   0    |   1   | Bootloader     |
 320:.\Generated_Source\PSoC5/Bootloader_1.c ****             * |  7   |    0   |   1   |   1    |   0   | Bootloadable A |
 321:.\Generated_Source\PSoC5/Bootloader_1.c ****             * |  8   |    0   |   1   |   1    |   1   | Bootloadable B |
 322:.\Generated_Source\PSoC5/Bootloader_1.c ****             * -----------------------------------------------------------
 323:.\Generated_Source\PSoC5/Bootloader_1.c ****             *******************************************************************/
 324:.\Generated_Source\PSoC5/Bootloader_1.c ****             if (Bootloader_1_GetMetadata(Bootloader_1_GET_BTLDB_ACTIVE, 1u) ==
 325:.\Generated_Source\PSoC5/Bootloader_1.c ****                     Bootloader_1_MD_BTLDB_IS_ACTIVE)
 326:.\Generated_Source\PSoC5/Bootloader_1.c ****             {
 327:.\Generated_Source\PSoC5/Bootloader_1.c ****                 /* Cases # 3, 4, 7, and 8 */
 328:.\Generated_Source\PSoC5/Bootloader_1.c ****                 if (CYRET_SUCCESS == Bootloader_1_ValidateBootloadable(Bootloader_1_MD_BTLDB_ACTIVE
 329:.\Generated_Source\PSoC5/Bootloader_1.c ****                 {
 330:.\Generated_Source\PSoC5/Bootloader_1.c ****                     /* Cases # 4 and 8 */
 331:.\Generated_Source\PSoC5/Bootloader_1.c ****                     Bootloader_1_activeApp = Bootloader_1_MD_BTLDB_ACTIVE_1;
 332:.\Generated_Source\PSoC5/Bootloader_1.c ****                     validApp = CYRET_SUCCESS;
 333:.\Generated_Source\PSoC5/Bootloader_1.c ****                 }
 334:.\Generated_Source\PSoC5/Bootloader_1.c ****                 else
 335:.\Generated_Source\PSoC5/Bootloader_1.c ****                 {
 336:.\Generated_Source\PSoC5/Bootloader_1.c ****                     if (CYRET_SUCCESS == Bootloader_1_ValidateBootloadable(Bootloader_1_MD_BTLDB_AC
 337:.\Generated_Source\PSoC5/Bootloader_1.c ****                     {
 338:.\Generated_Source\PSoC5/Bootloader_1.c ****                         /* Cases # 7 */
 339:.\Generated_Source\PSoC5/Bootloader_1.c ****                         Bootloader_1_activeApp = Bootloader_1_MD_BTLDB_ACTIVE_0;
 340:.\Generated_Source\PSoC5/Bootloader_1.c ****                         validApp = CYRET_SUCCESS;
 341:.\Generated_Source\PSoC5/Bootloader_1.c ****                     }
 342:.\Generated_Source\PSoC5/Bootloader_1.c ****                 }
 343:.\Generated_Source\PSoC5/Bootloader_1.c ****             }
 344:.\Generated_Source\PSoC5/Bootloader_1.c ****         }
 345:.\Generated_Source\PSoC5/Bootloader_1.c ****     #else
 346:.\Generated_Source\PSoC5/Bootloader_1.c ****         if (CYRET_SUCCESS == Bootloader_1_ValidateBootloadable(Bootloader_1_MD_BTLDB_ACTIVE_0))
 207              		.loc 1 346 0
 208 000a 0020     		movs	r0, #0
 209 000c FFF7FEFF 		bl	Bootloader_1_ValidateBootloadable
 210 0010 0346     		mov	r3, r0
 211 0012 002B     		cmp	r3, #0
 212 0014 01D1     		bne	.L13
 347:.\Generated_Source\PSoC5/Bootloader_1.c ****         {
 348:.\Generated_Source\PSoC5/Bootloader_1.c ****             validApp = CYRET_SUCCESS;
 213              		.loc 1 348 0
 214 0016 0023     		movs	r3, #0
 215 0018 7B60     		str	r3, [r7, #4]
 216              	.L13:
 349:.\Generated_Source\PSoC5/Bootloader_1.c ****         }
 350:.\Generated_Source\PSoC5/Bootloader_1.c ****     #endif  /* (0u != Bootloader_1_DUAL_APP_BOOTLOADER) */
 351:.\Generated_Source\PSoC5/Bootloader_1.c **** 
 352:.\Generated_Source\PSoC5/Bootloader_1.c **** 
ARM GAS  C:\Users\SISTEM~1\AppData\Local\Temp\ccZs07Hi.s 			page 11


 353:.\Generated_Source\PSoC5/Bootloader_1.c ****     /* Initialize Flash subsystem for non-PSoC 4 devices */
 354:.\Generated_Source\PSoC5/Bootloader_1.c ****     #if(!CY_PSOC4)
 355:.\Generated_Source\PSoC5/Bootloader_1.c ****         #if(0u != Bootloader_1_FAST_APP_VALIDATION)
 356:.\Generated_Source\PSoC5/Bootloader_1.c **** 
 357:.\Generated_Source\PSoC5/Bootloader_1.c ****             if (CYRET_SUCCESS != CySetTemp())
 358:.\Generated_Source\PSoC5/Bootloader_1.c ****             {
 359:.\Generated_Source\PSoC5/Bootloader_1.c ****                 CyHalt(0x00u);
 360:.\Generated_Source\PSoC5/Bootloader_1.c ****             }
 361:.\Generated_Source\PSoC5/Bootloader_1.c **** 
 362:.\Generated_Source\PSoC5/Bootloader_1.c ****             #if !defined(CY_BOOT_VERSION)
 363:.\Generated_Source\PSoC5/Bootloader_1.c **** 
 364:.\Generated_Source\PSoC5/Bootloader_1.c ****                 /* Not required with cy_boot 4.20 */
 365:.\Generated_Source\PSoC5/Bootloader_1.c ****                 if (CYRET_SUCCESS != CySetFlashEEBuffer(Bootloader_1_flashBuffer))
 366:.\Generated_Source\PSoC5/Bootloader_1.c ****                 {
 367:.\Generated_Source\PSoC5/Bootloader_1.c ****                     CyHalt(0x00u);
 368:.\Generated_Source\PSoC5/Bootloader_1.c ****                 }
 369:.\Generated_Source\PSoC5/Bootloader_1.c **** 
 370:.\Generated_Source\PSoC5/Bootloader_1.c ****             #endif /* !defined(CY_BOOT_VERSION) */
 371:.\Generated_Source\PSoC5/Bootloader_1.c ****         #endif  /* (0u != Bootloader_1_FAST_APP_VALIDATION) */
 372:.\Generated_Source\PSoC5/Bootloader_1.c ****     #endif  /* (CY_PSOC4) */
 373:.\Generated_Source\PSoC5/Bootloader_1.c **** 
 374:.\Generated_Source\PSoC5/Bootloader_1.c **** 
 375:.\Generated_Source\PSoC5/Bootloader_1.c ****     /***********************************************************************
 376:.\Generated_Source\PSoC5/Bootloader_1.c ****     * Bootloader Application Validation
 377:.\Generated_Source\PSoC5/Bootloader_1.c ****     *
 378:.\Generated_Source\PSoC5/Bootloader_1.c ****     * Halt the device if:
 379:.\Generated_Source\PSoC5/Bootloader_1.c ****     *  - A calculated checksum does not match the one stored in the metadata
 380:.\Generated_Source\PSoC5/Bootloader_1.c ****     *     section.
 381:.\Generated_Source\PSoC5/Bootloader_1.c ****     *  - There is an invalid pointer to the place where the bootloader
 382:.\Generated_Source\PSoC5/Bootloader_1.c ****     *    application ends.
 383:.\Generated_Source\PSoC5/Bootloader_1.c ****     *  - Flash subsystem was not initialized correctly
 384:.\Generated_Source\PSoC5/Bootloader_1.c ****     ***********************************************************************/
 385:.\Generated_Source\PSoC5/Bootloader_1.c ****     #if(0u != Bootloader_1_BOOTLOADER_APP_VALIDATION)
 386:.\Generated_Source\PSoC5/Bootloader_1.c **** 
 387:.\Generated_Source\PSoC5/Bootloader_1.c ****         /* Calculate Bootloader application checksum */
 388:.\Generated_Source\PSoC5/Bootloader_1.c ****         calcedChecksum = Bootloader_1_Calc8BitSum(CY_FLASH_BASE,
 217              		.loc 1 388 0
 218 001a 1C4B     		ldr	r3, .L18
 219 001c 1B68     		ldr	r3, [r3]
 220 001e 1B68     		ldr	r3, [r3]
 221 0020 0020     		movs	r0, #0
 222 0022 0021     		movs	r1, #0
 223 0024 1A46     		mov	r2, r3
 224 0026 FFF7FEFF 		bl	Bootloader_1_Calc8BitSum
 225 002a 0346     		mov	r3, r0
 226 002c FB70     		strb	r3, [r7, #3]
 389:.\Generated_Source\PSoC5/Bootloader_1.c ****                 Bootloader_1_MD_BTLDR_ADDR_PTR,
 390:.\Generated_Source\PSoC5/Bootloader_1.c ****                 *Bootloader_1_SizeBytesAccess - Bootloader_1_MD_BTLDR_ADDR_PTR);
 391:.\Generated_Source\PSoC5/Bootloader_1.c **** 
 392:.\Generated_Source\PSoC5/Bootloader_1.c ****         /* we included checksum, so remove it */
 393:.\Generated_Source\PSoC5/Bootloader_1.c ****         calcedChecksum -= *Bootloader_1_ChecksumAccess;
 227              		.loc 1 393 0
 228 002e 184B     		ldr	r3, .L18+4
 229 0030 1B68     		ldr	r3, [r3]
 230 0032 1B78     		ldrb	r3, [r3]	@ zero_extendqisi2
 231 0034 FA78     		ldrb	r2, [r7, #3]
 232 0036 D31A     		subs	r3, r2, r3
ARM GAS  C:\Users\SISTEM~1\AppData\Local\Temp\ccZs07Hi.s 			page 12


 233 0038 FB70     		strb	r3, [r7, #3]
 394:.\Generated_Source\PSoC5/Bootloader_1.c ****         calcedChecksum = ( uint8 )1u + ( uint8 )(~calcedChecksum);
 234              		.loc 1 394 0
 235 003a FB78     		ldrb	r3, [r7, #3]
 236 003c 5B42     		negs	r3, r3
 237 003e FB70     		strb	r3, [r7, #3]
 395:.\Generated_Source\PSoC5/Bootloader_1.c **** 
 396:.\Generated_Source\PSoC5/Bootloader_1.c ****         /* Checksum and pointer to bootloader verification */
 397:.\Generated_Source\PSoC5/Bootloader_1.c ****         if((calcedChecksum != *Bootloader_1_ChecksumAccess) ||
 238              		.loc 1 397 0
 239 0040 134B     		ldr	r3, .L18+4
 240 0042 1B68     		ldr	r3, [r3]
 241 0044 1B78     		ldrb	r3, [r3]	@ zero_extendqisi2
 242 0046 FA78     		ldrb	r2, [r7, #3]	@ zero_extendqisi2
 243 0048 9A42     		cmp	r2, r3
 244 004a 04D1     		bne	.L14
 398:.\Generated_Source\PSoC5/Bootloader_1.c ****            (0u == *Bootloader_1_SizeBytesAccess))
 245              		.loc 1 398 0 discriminator 1
 246 004c 0F4B     		ldr	r3, .L18
 247 004e 1B68     		ldr	r3, [r3]
 248 0050 1B68     		ldr	r3, [r3]
 397:.\Generated_Source\PSoC5/Bootloader_1.c ****         if((calcedChecksum != *Bootloader_1_ChecksumAccess) ||
 249              		.loc 1 397 0 discriminator 1
 250 0052 002B     		cmp	r3, #0
 251 0054 02D1     		bne	.L15
 252              	.L14:
 399:.\Generated_Source\PSoC5/Bootloader_1.c ****         {
 400:.\Generated_Source\PSoC5/Bootloader_1.c ****             CyHalt(0x00u);
 253              		.loc 1 400 0
 254 0056 0020     		movs	r0, #0
 255 0058 FFF7FEFF 		bl	CyHalt
 256              	.L15:
 401:.\Generated_Source\PSoC5/Bootloader_1.c ****         }
 402:.\Generated_Source\PSoC5/Bootloader_1.c **** 
 403:.\Generated_Source\PSoC5/Bootloader_1.c ****     #endif  /* (0u != Bootloader_1_BOOTLOADER_APP_VALIDATION) */
 404:.\Generated_Source\PSoC5/Bootloader_1.c **** 
 405:.\Generated_Source\PSoC5/Bootloader_1.c **** 
 406:.\Generated_Source\PSoC5/Bootloader_1.c ****     /***********************************************************************
 407:.\Generated_Source\PSoC5/Bootloader_1.c ****     * If the active bootloadable application is invalid or a bootloader
 408:.\Generated_Source\PSoC5/Bootloader_1.c ****     * application is scheduled - do the following:
 409:.\Generated_Source\PSoC5/Bootloader_1.c ****     *  - schedule the bootloader application to be run after software reset
 410:.\Generated_Source\PSoC5/Bootloader_1.c ****     *  - Go to the communication subroutine. The HostLink() will wait for
 411:.\Generated_Source\PSoC5/Bootloader_1.c ****     *    the commands forever.
 412:.\Generated_Source\PSoC5/Bootloader_1.c ****     ***********************************************************************/
 413:.\Generated_Source\PSoC5/Bootloader_1.c ****     if ((Bootloader_1_GET_RUN_TYPE == Bootloader_1_START_BTLDR) ||
 257              		.loc 1 413 0
 258 005c 0D4B     		ldr	r3, .L18+8
 259 005e 1B78     		ldrb	r3, [r3]
 260 0060 DBB2     		uxtb	r3, r3
 261 0062 03F0C003 		and	r3, r3, #192
 262 0066 402B     		cmp	r3, #64
 263 0068 02D0     		beq	.L16
 264              		.loc 1 413 0 is_stmt 0 discriminator 1
 265 006a 7B68     		ldr	r3, [r7, #4]
 266 006c 002B     		cmp	r3, #0
 267 006e 05D0     		beq	.L17
 268              	.L16:
ARM GAS  C:\Users\SISTEM~1\AppData\Local\Temp\ccZs07Hi.s 			page 13


 414:.\Generated_Source\PSoC5/Bootloader_1.c ****         (CYRET_SUCCESS != validApp))
 415:.\Generated_Source\PSoC5/Bootloader_1.c ****     {
 416:.\Generated_Source\PSoC5/Bootloader_1.c ****         Bootloader_1_SET_RUN_TYPE(0u);
 269              		.loc 1 416 0 is_stmt 1
 270 0070 084B     		ldr	r3, .L18+8
 271 0072 0022     		movs	r2, #0
 272 0074 1A70     		strb	r2, [r3]
 417:.\Generated_Source\PSoC5/Bootloader_1.c **** 
 418:.\Generated_Source\PSoC5/Bootloader_1.c ****         Bootloader_1_HostLink(Bootloader_1_WAIT_FOR_COMMAND_FOREVER);
 273              		.loc 1 418 0
 274 0076 0020     		movs	r0, #0
 275 0078 FFF7FEFF 		bl	Bootloader_1_HostLink
 276              	.L17:
 419:.\Generated_Source\PSoC5/Bootloader_1.c ****     }
 420:.\Generated_Source\PSoC5/Bootloader_1.c **** 
 421:.\Generated_Source\PSoC5/Bootloader_1.c **** 
 422:.\Generated_Source\PSoC5/Bootloader_1.c ****     /* Go to communication subroutine. Will wait for commands for specifed time */
 423:.\Generated_Source\PSoC5/Bootloader_1.c ****     #if(0u != Bootloader_1_WAIT_FOR_COMMAND)
 424:.\Generated_Source\PSoC5/Bootloader_1.c **** 
 425:.\Generated_Source\PSoC5/Bootloader_1.c ****         /* Timeout is in 100s of milliseconds */
 426:.\Generated_Source\PSoC5/Bootloader_1.c ****         Bootloader_1_HostLink(Bootloader_1_WAIT_FOR_COMMAND_TIME);
 277              		.loc 1 426 0
 278 007c 3220     		movs	r0, #50
 279 007e FFF7FEFF 		bl	Bootloader_1_HostLink
 427:.\Generated_Source\PSoC5/Bootloader_1.c **** 
 428:.\Generated_Source\PSoC5/Bootloader_1.c ****     #endif  /* (0u != Bootloader_1_WAIT_FOR_COMMAND) */
 429:.\Generated_Source\PSoC5/Bootloader_1.c **** 
 430:.\Generated_Source\PSoC5/Bootloader_1.c **** 
 431:.\Generated_Source\PSoC5/Bootloader_1.c ****     /* Schedule bootloadable application and perform software reset */
 432:.\Generated_Source\PSoC5/Bootloader_1.c ****     Bootloader_1_LaunchApplication();
 280              		.loc 1 432 0
 281 0082 FFF7FEFF 		bl	Bootloader_1_LaunchApplication
 433:.\Generated_Source\PSoC5/Bootloader_1.c **** }
 282              		.loc 1 433 0
 283 0086 0837     		adds	r7, r7, #8
 284 0088 BD46     		mov	sp, r7
 285              		@ sp needed
 286 008a 80BD     		pop	{r7, pc}
 287              	.L19:
 288              		.align	2
 289              	.L18:
 290 008c 00000000 		.word	Bootloader_1_SizeBytesAccess
 291 0090 00000000 		.word	Bootloader_1_ChecksumAccess
 292 0094 FA460040 		.word	1073759994
 293              		.cfi_endproc
 294              	.LFE65:
 295              		.size	Bootloader_1_Start, .-Bootloader_1_Start
 296              		.section	.text.Bootloader_1_LaunchApplication,"ax",%progbits
 297              		.align	2
 298              		.thumb
 299              		.thumb_func
 300              		.type	Bootloader_1_LaunchApplication, %function
 301              	Bootloader_1_LaunchApplication:
 302              	.LFB66:
 434:.\Generated_Source\PSoC5/Bootloader_1.c **** 
 435:.\Generated_Source\PSoC5/Bootloader_1.c **** 
 436:.\Generated_Source\PSoC5/Bootloader_1.c **** /*******************************************************************************
ARM GAS  C:\Users\SISTEM~1\AppData\Local\Temp\ccZs07Hi.s 			page 14


 437:.\Generated_Source\PSoC5/Bootloader_1.c **** * Function Name: Bootloader_1_LaunchApplication
 438:.\Generated_Source\PSoC5/Bootloader_1.c **** ********************************************************************************
 439:.\Generated_Source\PSoC5/Bootloader_1.c **** *
 440:.\Generated_Source\PSoC5/Bootloader_1.c **** * Summary:
 441:.\Generated_Source\PSoC5/Bootloader_1.c **** *  Schedules bootloadable application and resets device
 442:.\Generated_Source\PSoC5/Bootloader_1.c **** *
 443:.\Generated_Source\PSoC5/Bootloader_1.c **** * Parameters:
 444:.\Generated_Source\PSoC5/Bootloader_1.c **** *  None
 445:.\Generated_Source\PSoC5/Bootloader_1.c **** *
 446:.\Generated_Source\PSoC5/Bootloader_1.c **** * Returns:
 447:.\Generated_Source\PSoC5/Bootloader_1.c **** *  This method will never return.
 448:.\Generated_Source\PSoC5/Bootloader_1.c **** *
 449:.\Generated_Source\PSoC5/Bootloader_1.c **** *******************************************************************************/
 450:.\Generated_Source\PSoC5/Bootloader_1.c **** static void Bootloader_1_LaunchApplication(void) CYSMALL 
 451:.\Generated_Source\PSoC5/Bootloader_1.c **** {
 303              		.loc 1 451 0
 304              		.cfi_startproc
 305              		@ args = 0, pretend = 0, frame = 0
 306              		@ frame_needed = 1, uses_anonymous_args = 0
 307 0000 80B5     		push	{r7, lr}
 308              		.cfi_def_cfa_offset 8
 309              		.cfi_offset 7, -8
 310              		.cfi_offset 14, -4
 311 0002 00AF     		add	r7, sp, #0
 312              		.cfi_def_cfa_register 7
 452:.\Generated_Source\PSoC5/Bootloader_1.c ****     /* Schedule Bootloadable to start after reset */
 453:.\Generated_Source\PSoC5/Bootloader_1.c ****     Bootloader_1_SET_RUN_TYPE(Bootloader_1_START_APP);
 313              		.loc 1 453 0
 314 0004 024B     		ldr	r3, .L21
 315 0006 8022     		movs	r2, #128
 316 0008 1A70     		strb	r2, [r3]
 454:.\Generated_Source\PSoC5/Bootloader_1.c **** 
 455:.\Generated_Source\PSoC5/Bootloader_1.c ****     CySoftwareReset();
 317              		.loc 1 455 0
 318 000a FFF7FEFF 		bl	CySoftwareReset
 456:.\Generated_Source\PSoC5/Bootloader_1.c **** }
 319              		.loc 1 456 0
 320 000e 80BD     		pop	{r7, pc}
 321              	.L22:
 322              		.align	2
 323              	.L21:
 324 0010 FA460040 		.word	1073759994
 325              		.cfi_endproc
 326              	.LFE66:
 327              		.size	Bootloader_1_LaunchApplication, .-Bootloader_1_LaunchApplication
 328              		.section	.text.Bootloader_1_Exit,"ax",%progbits
 329              		.align	2
 330              		.global	Bootloader_1_Exit
 331              		.thumb
 332              		.thumb_func
 333              		.type	Bootloader_1_Exit, %function
 334              	Bootloader_1_Exit:
 335              	.LFB67:
 457:.\Generated_Source\PSoC5/Bootloader_1.c **** 
 458:.\Generated_Source\PSoC5/Bootloader_1.c **** 
 459:.\Generated_Source\PSoC5/Bootloader_1.c **** /*******************************************************************************
 460:.\Generated_Source\PSoC5/Bootloader_1.c **** * Function Name: Bootloader_1_Exit
ARM GAS  C:\Users\SISTEM~1\AppData\Local\Temp\ccZs07Hi.s 			page 15


 461:.\Generated_Source\PSoC5/Bootloader_1.c **** ********************************************************************************
 462:.\Generated_Source\PSoC5/Bootloader_1.c **** *
 463:.\Generated_Source\PSoC5/Bootloader_1.c **** * Summary:
 464:.\Generated_Source\PSoC5/Bootloader_1.c **** *  Schedules the specified application and performs software reset to launch
 465:.\Generated_Source\PSoC5/Bootloader_1.c **** *  a specified application.
 466:.\Generated_Source\PSoC5/Bootloader_1.c **** *
 467:.\Generated_Source\PSoC5/Bootloader_1.c **** *  If the specified application is not valid, the Bootloader (the result of the
 468:.\Generated_Source\PSoC5/Bootloader_1.c **** *  ValidateBootloadable() function execution returns other than CYRET_SUCCESS,
 469:.\Generated_Source\PSoC5/Bootloader_1.c **** *  the bootloader application is launched.
 470:.\Generated_Source\PSoC5/Bootloader_1.c **** *
 471:.\Generated_Source\PSoC5/Bootloader_1.c **** * Parameters:
 472:.\Generated_Source\PSoC5/Bootloader_1.c **** *  appId: application to be started:
 473:.\Generated_Source\PSoC5/Bootloader_1.c **** *  Bootloader_1_EXIT_TO_BTLDR   - Bootloader application will be started on
 474:.\Generated_Source\PSoC5/Bootloader_1.c **** *                                     software reset.
 475:.\Generated_Source\PSoC5/Bootloader_1.c **** *  Bootloader_1_EXIT_TO_BTLDB,
 476:.\Generated_Source\PSoC5/Bootloader_1.c **** *  Bootloader_1_EXIT_TO_BTLDB_1 - Bootloadable application # 1 will be
 477:.\Generated_Source\PSoC5/Bootloader_1.c **** *                                     started on software reset.
 478:.\Generated_Source\PSoC5/Bootloader_1.c **** *  Bootloader_1_EXIT_TO_BTLDB_2 - Bootloadable application # 2 will be
 479:.\Generated_Source\PSoC5/Bootloader_1.c **** *                                     started on software reset. Available only
 480:.\Generated_Source\PSoC5/Bootloader_1.c **** *                                     if Multi-Application option is enabled in
 481:.\Generated_Source\PSoC5/Bootloader_1.c **** *                                     the component customizer.
 482:.\Generated_Source\PSoC5/Bootloader_1.c **** * Returns:
 483:.\Generated_Source\PSoC5/Bootloader_1.c **** *  This function never returns.
 484:.\Generated_Source\PSoC5/Bootloader_1.c **** *
 485:.\Generated_Source\PSoC5/Bootloader_1.c **** *******************************************************************************/
 486:.\Generated_Source\PSoC5/Bootloader_1.c **** void Bootloader_1_Exit(uint8 appId) CYSMALL 
 487:.\Generated_Source\PSoC5/Bootloader_1.c **** {
 336              		.loc 1 487 0
 337              		.cfi_startproc
 338              		@ args = 0, pretend = 0, frame = 16
 339              		@ frame_needed = 1, uses_anonymous_args = 0
 340 0000 80B5     		push	{r7, lr}
 341              		.cfi_def_cfa_offset 8
 342              		.cfi_offset 7, -8
 343              		.cfi_offset 14, -4
 344 0002 84B0     		sub	sp, sp, #16
 345              		.cfi_def_cfa_offset 24
 346 0004 00AF     		add	r7, sp, #0
 347              		.cfi_def_cfa_register 7
 348 0006 0346     		mov	r3, r0
 349 0008 FB71     		strb	r3, [r7, #7]
 488:.\Generated_Source\PSoC5/Bootloader_1.c ****     if(Bootloader_1_EXIT_TO_BTLDR == appId)
 350              		.loc 1 488 0
 351 000a FB79     		ldrb	r3, [r7, #7]	@ zero_extendqisi2
 352 000c 022B     		cmp	r3, #2
 353 000e 03D1     		bne	.L24
 489:.\Generated_Source\PSoC5/Bootloader_1.c ****     {
 490:.\Generated_Source\PSoC5/Bootloader_1.c ****         Bootloader_1_SET_RUN_TYPE(0x0u);
 354              		.loc 1 490 0
 355 0010 194B     		ldr	r3, .L29
 356 0012 0022     		movs	r2, #0
 357 0014 1A70     		strb	r2, [r3]
 358 0016 2AE0     		b	.L25
 359              	.L24:
 491:.\Generated_Source\PSoC5/Bootloader_1.c ****     }
 492:.\Generated_Source\PSoC5/Bootloader_1.c ****     else
 493:.\Generated_Source\PSoC5/Bootloader_1.c ****     {
ARM GAS  C:\Users\SISTEM~1\AppData\Local\Temp\ccZs07Hi.s 			page 16


 494:.\Generated_Source\PSoC5/Bootloader_1.c ****         if(CYRET_SUCCESS == Bootloader_1_ValidateBootloadable(appId))
 360              		.loc 1 494 0
 361 0018 FB79     		ldrb	r3, [r7, #7]	@ zero_extendqisi2
 362 001a 1846     		mov	r0, r3
 363 001c FFF7FEFF 		bl	Bootloader_1_ValidateBootloadable
 364 0020 0346     		mov	r3, r0
 365 0022 002B     		cmp	r3, #0
 366 0024 20D1     		bne	.L26
 367              	.LBB2:
 495:.\Generated_Source\PSoC5/Bootloader_1.c ****         {
 496:.\Generated_Source\PSoC5/Bootloader_1.c ****             /* Set active application in metadata */
 497:.\Generated_Source\PSoC5/Bootloader_1.c ****             uint8 CYDATA idx;
 498:.\Generated_Source\PSoC5/Bootloader_1.c ****             for(idx = 0u; idx < Bootloader_1_MAX_NUM_OF_BTLDB; idx++)
 368              		.loc 1 498 0
 369 0026 0023     		movs	r3, #0
 370 0028 FB73     		strb	r3, [r7, #15]
 371 002a 16E0     		b	.L27
 372              	.L28:
 499:.\Generated_Source\PSoC5/Bootloader_1.c ****             {
 500:.\Generated_Source\PSoC5/Bootloader_1.c ****                 Bootloader_1_SetFlashByte((uint32) Bootloader_1_MD_BTLDB_ACTIVE_OFFSET(idx),
 373              		.loc 1 500 0 discriminator 2
 374 002c FA7B     		ldrb	r2, [r7, #15]	@ zero_extendqisi2
 375 002e 1346     		mov	r3, r2
 376 0030 1B06     		lsls	r3, r3, #24
 377 0032 9B1A     		subs	r3, r3, r2
 378 0034 1B02     		lsls	r3, r3, #8
 379 0036 03F57F33 		add	r3, r3, #261120
 380 003a 03F57473 		add	r3, r3, #976
 381 003e F97B     		ldrb	r1, [r7, #15]	@ zero_extendqisi2
 382 0040 FA79     		ldrb	r2, [r7, #7]	@ zero_extendqisi2
 383 0042 9142     		cmp	r1, r2
 384 0044 14BF     		ite	ne
 385 0046 0022     		movne	r2, #0
 386 0048 0122     		moveq	r2, #1
 387 004a D2B2     		uxtb	r2, r2
 388 004c 1846     		mov	r0, r3
 389 004e 1146     		mov	r1, r2
 390 0050 FFF7FEFF 		bl	Bootloader_1_SetFlashByte
 498:.\Generated_Source\PSoC5/Bootloader_1.c ****             for(idx = 0u; idx < Bootloader_1_MAX_NUM_OF_BTLDB; idx++)
 391              		.loc 1 498 0 discriminator 2
 392 0054 FB7B     		ldrb	r3, [r7, #15]	@ zero_extendqisi2
 393 0056 0133     		adds	r3, r3, #1
 394 0058 FB73     		strb	r3, [r7, #15]
 395              	.L27:
 498:.\Generated_Source\PSoC5/Bootloader_1.c ****             for(idx = 0u; idx < Bootloader_1_MAX_NUM_OF_BTLDB; idx++)
 396              		.loc 1 498 0 is_stmt 0 discriminator 1
 397 005a FB7B     		ldrb	r3, [r7, #15]	@ zero_extendqisi2
 398 005c 002B     		cmp	r3, #0
 399 005e E5D0     		beq	.L28
 501:.\Generated_Source\PSoC5/Bootloader_1.c ****                                               (uint8 )(idx == appId));
 502:.\Generated_Source\PSoC5/Bootloader_1.c ****             }
 503:.\Generated_Source\PSoC5/Bootloader_1.c **** 
 504:.\Generated_Source\PSoC5/Bootloader_1.c ****         #if(0u != Bootloader_1_DUAL_APP_BOOTLOADER)
 505:.\Generated_Source\PSoC5/Bootloader_1.c ****             Bootloader_1_activeApp = appId;
 506:.\Generated_Source\PSoC5/Bootloader_1.c ****         #endif /* (0u != Bootloader_1_DUAL_APP_BOOTLOADER) */
 507:.\Generated_Source\PSoC5/Bootloader_1.c **** 
 508:.\Generated_Source\PSoC5/Bootloader_1.c ****             Bootloader_1_SET_RUN_TYPE(Bootloader_1_SCHEDULE_BTLDB);
ARM GAS  C:\Users\SISTEM~1\AppData\Local\Temp\ccZs07Hi.s 			page 17


 400              		.loc 1 508 0 is_stmt 1
 401 0060 054B     		ldr	r3, .L29
 402 0062 8022     		movs	r2, #128
 403 0064 1A70     		strb	r2, [r3]
 404              	.LBE2:
 405 0066 02E0     		b	.L25
 406              	.L26:
 509:.\Generated_Source\PSoC5/Bootloader_1.c ****         }
 510:.\Generated_Source\PSoC5/Bootloader_1.c ****         else
 511:.\Generated_Source\PSoC5/Bootloader_1.c ****         {
 512:.\Generated_Source\PSoC5/Bootloader_1.c ****             Bootloader_1_SET_RUN_TYPE(0u);
 407              		.loc 1 512 0
 408 0068 034B     		ldr	r3, .L29
 409 006a 0022     		movs	r2, #0
 410 006c 1A70     		strb	r2, [r3]
 411              	.L25:
 513:.\Generated_Source\PSoC5/Bootloader_1.c ****         }
 514:.\Generated_Source\PSoC5/Bootloader_1.c ****     }
 515:.\Generated_Source\PSoC5/Bootloader_1.c **** 
 516:.\Generated_Source\PSoC5/Bootloader_1.c ****     CySoftwareReset();
 412              		.loc 1 516 0
 413 006e FFF7FEFF 		bl	CySoftwareReset
 517:.\Generated_Source\PSoC5/Bootloader_1.c **** }
 414              		.loc 1 517 0
 415 0072 1037     		adds	r7, r7, #16
 416 0074 BD46     		mov	sp, r7
 417              		@ sp needed
 418 0076 80BD     		pop	{r7, pc}
 419              	.L30:
 420              		.align	2
 421              	.L29:
 422 0078 FA460040 		.word	1073759994
 423              		.cfi_endproc
 424              	.LFE67:
 425              		.size	Bootloader_1_Exit, .-Bootloader_1_Exit
 426              		.section	.text.CyBtldr_CheckLaunch,"ax",%progbits
 427              		.align	2
 428              		.global	CyBtldr_CheckLaunch
 429              		.thumb
 430              		.thumb_func
 431              		.type	CyBtldr_CheckLaunch, %function
 432              	CyBtldr_CheckLaunch:
 433              	.LFB68:
 518:.\Generated_Source\PSoC5/Bootloader_1.c **** 
 519:.\Generated_Source\PSoC5/Bootloader_1.c **** 
 520:.\Generated_Source\PSoC5/Bootloader_1.c **** /*******************************************************************************
 521:.\Generated_Source\PSoC5/Bootloader_1.c **** * Function Name: CyBtldr_CheckLaunch
 522:.\Generated_Source\PSoC5/Bootloader_1.c **** ********************************************************************************
 523:.\Generated_Source\PSoC5/Bootloader_1.c **** *
 524:.\Generated_Source\PSoC5/Bootloader_1.c **** * Summary:
 525:.\Generated_Source\PSoC5/Bootloader_1.c **** *  This routine checks if the bootloader or the bootloadable application has to
 526:.\Generated_Source\PSoC5/Bootloader_1.c **** *  be run.  If the application has to be run, it will start executing.
 527:.\Generated_Source\PSoC5/Bootloader_1.c **** *  If the bootloader is to be run, it will return, so the bootloader can
 528:.\Generated_Source\PSoC5/Bootloader_1.c **** *  continue starting up.
 529:.\Generated_Source\PSoC5/Bootloader_1.c **** *
 530:.\Generated_Source\PSoC5/Bootloader_1.c **** * Parameters:
 531:.\Generated_Source\PSoC5/Bootloader_1.c **** *  None
ARM GAS  C:\Users\SISTEM~1\AppData\Local\Temp\ccZs07Hi.s 			page 18


 532:.\Generated_Source\PSoC5/Bootloader_1.c **** *
 533:.\Generated_Source\PSoC5/Bootloader_1.c **** * Returns:
 534:.\Generated_Source\PSoC5/Bootloader_1.c **** *  It will not return if it determines that the bootloadable application should
 535:.\Generated_Source\PSoC5/Bootloader_1.c **** *  be run.
 536:.\Generated_Source\PSoC5/Bootloader_1.c **** *
 537:.\Generated_Source\PSoC5/Bootloader_1.c **** *******************************************************************************/
 538:.\Generated_Source\PSoC5/Bootloader_1.c **** void CyBtldr_CheckLaunch(void) CYSMALL 
 539:.\Generated_Source\PSoC5/Bootloader_1.c **** {
 434              		.loc 1 539 0
 435              		.cfi_startproc
 436              		@ args = 0, pretend = 0, frame = 0
 437              		@ frame_needed = 1, uses_anonymous_args = 0
 438 0000 80B5     		push	{r7, lr}
 439              		.cfi_def_cfa_offset 8
 440              		.cfi_offset 7, -8
 441              		.cfi_offset 14, -4
 442 0002 00AF     		add	r7, sp, #0
 443              		.cfi_def_cfa_register 7
 540:.\Generated_Source\PSoC5/Bootloader_1.c **** 
 541:.\Generated_Source\PSoC5/Bootloader_1.c **** #if(CY_PSOC4)
 542:.\Generated_Source\PSoC5/Bootloader_1.c **** 
 543:.\Generated_Source\PSoC5/Bootloader_1.c ****     /*******************************************************************************
 544:.\Generated_Source\PSoC5/Bootloader_1.c ****     * Set cyBtldrRunType to zero in case of non-software reset occurred. This means
 545:.\Generated_Source\PSoC5/Bootloader_1.c ****     * that bootloader application is scheduled - that is initial clean state. The
 546:.\Generated_Source\PSoC5/Bootloader_1.c ****     * value of cyBtldrRunType is valid only in case of software reset.
 547:.\Generated_Source\PSoC5/Bootloader_1.c ****     *******************************************************************************/
 548:.\Generated_Source\PSoC5/Bootloader_1.c ****     if (0u == (Bootloader_1_RES_CAUSE_REG & Bootloader_1_RES_CAUSE_RESET_SOFT))
 549:.\Generated_Source\PSoC5/Bootloader_1.c ****     {
 550:.\Generated_Source\PSoC5/Bootloader_1.c ****         cyBtldrRunType = 0u;
 551:.\Generated_Source\PSoC5/Bootloader_1.c ****     }
 552:.\Generated_Source\PSoC5/Bootloader_1.c **** 
 553:.\Generated_Source\PSoC5/Bootloader_1.c **** #endif /* (CY_PSOC4) */
 554:.\Generated_Source\PSoC5/Bootloader_1.c **** 
 555:.\Generated_Source\PSoC5/Bootloader_1.c **** 
 556:.\Generated_Source\PSoC5/Bootloader_1.c ****     if (Bootloader_1_GET_RUN_TYPE == Bootloader_1_START_APP)
 444              		.loc 1 556 0
 445 0004 0C4B     		ldr	r3, .L33
 446 0006 1B78     		ldrb	r3, [r3]
 447 0008 DBB2     		uxtb	r3, r3
 448 000a 03F0C003 		and	r3, r3, #192
 449 000e 802B     		cmp	r3, #128
 450 0010 11D1     		bne	.L31
 557:.\Generated_Source\PSoC5/Bootloader_1.c ****     {
 558:.\Generated_Source\PSoC5/Bootloader_1.c ****         Bootloader_1_SET_RUN_TYPE(0u);
 451              		.loc 1 558 0
 452 0012 094B     		ldr	r3, .L33
 453 0014 0022     		movs	r2, #0
 454 0016 1A70     		strb	r2, [r3]
 559:.\Generated_Source\PSoC5/Bootloader_1.c **** 
 560:.\Generated_Source\PSoC5/Bootloader_1.c ****         /*******************************************************************************
 561:.\Generated_Source\PSoC5/Bootloader_1.c ****         * Indicates that we have told ourselves to jump to the application since we have
 562:.\Generated_Source\PSoC5/Bootloader_1.c ****         * already told ourselves to jump, we do not do any expensive verification of the
 563:.\Generated_Source\PSoC5/Bootloader_1.c ****         * application. We just check to make sure that the value at CY_APP_ADDR_ADDRESS
 564:.\Generated_Source\PSoC5/Bootloader_1.c ****         * is something other than 0.
 565:.\Generated_Source\PSoC5/Bootloader_1.c ****         *******************************************************************************/
 566:.\Generated_Source\PSoC5/Bootloader_1.c ****         if(0u != Bootloader_1_GetMetadata(Bootloader_1_GET_BTLDB_ADDR, Bootloader_1_activeApp))
 455              		.loc 1 566 0
ARM GAS  C:\Users\SISTEM~1\AppData\Local\Temp\ccZs07Hi.s 			page 19


 456 0018 0220     		movs	r0, #2
 457 001a 0021     		movs	r1, #0
 458 001c FFF7FEFF 		bl	Bootloader_1_GetMetadata
 459 0020 0346     		mov	r3, r0
 460 0022 002B     		cmp	r3, #0
 461 0024 07D0     		beq	.L31
 567:.\Generated_Source\PSoC5/Bootloader_1.c ****         {
 568:.\Generated_Source\PSoC5/Bootloader_1.c ****             /* Never return from this method */
 569:.\Generated_Source\PSoC5/Bootloader_1.c ****             Bootloader_1_LaunchBootloadable(Bootloader_1_GetMetadata(Bootloader_1_GET_BTLDB_ADDR,
 462              		.loc 1 569 0
 463 0026 0220     		movs	r0, #2
 464 0028 0021     		movs	r1, #0
 465 002a FFF7FEFF 		bl	Bootloader_1_GetMetadata
 466 002e 0346     		mov	r3, r0
 467 0030 1846     		mov	r0, r3
 468 0032 FFF7FEFF 		bl	Bootloader_1_LaunchBootloadable
 469              	.L31:
 570:.\Generated_Source\PSoC5/Bootloader_1.c ****                                                                              Bootloader_1_activeApp
 571:.\Generated_Source\PSoC5/Bootloader_1.c ****         }
 572:.\Generated_Source\PSoC5/Bootloader_1.c ****     }
 573:.\Generated_Source\PSoC5/Bootloader_1.c **** }
 470              		.loc 1 573 0
 471 0036 80BD     		pop	{r7, pc}
 472              	.L34:
 473              		.align	2
 474              	.L33:
 475 0038 FA460040 		.word	1073759994
 476              		.cfi_endproc
 477              	.LFE68:
 478              		.size	CyBtldr_CheckLaunch, .-CyBtldr_CheckLaunch
 479              		.section	.text.Bootloader_1_LaunchBootloadable,"ax",%progbits
 480              		.align	2
 481              		.thumb
 482              		.thumb_func
 483              		.type	Bootloader_1_LaunchBootloadable, %function
 484              	Bootloader_1_LaunchBootloadable:
 485              	.LFB69:
 574:.\Generated_Source\PSoC5/Bootloader_1.c **** 
 575:.\Generated_Source\PSoC5/Bootloader_1.c **** 
 576:.\Generated_Source\PSoC5/Bootloader_1.c **** /* Moves argument appAddr (RO) into PC, moving execution to appAddr */
 577:.\Generated_Source\PSoC5/Bootloader_1.c **** #if defined (__ARMCC_VERSION)
 578:.\Generated_Source\PSoC5/Bootloader_1.c **** 
 579:.\Generated_Source\PSoC5/Bootloader_1.c ****     __asm static void Bootloader_1_LaunchBootloadable(uint32 appAddr)
 580:.\Generated_Source\PSoC5/Bootloader_1.c ****     {
 581:.\Generated_Source\PSoC5/Bootloader_1.c ****         BX  R0
 582:.\Generated_Source\PSoC5/Bootloader_1.c ****         ALIGN
 583:.\Generated_Source\PSoC5/Bootloader_1.c ****     }
 584:.\Generated_Source\PSoC5/Bootloader_1.c **** 
 585:.\Generated_Source\PSoC5/Bootloader_1.c **** #elif defined(__GNUC__)
 586:.\Generated_Source\PSoC5/Bootloader_1.c **** 
 587:.\Generated_Source\PSoC5/Bootloader_1.c ****     __attribute__((noinline)) /* Workaround for GCC toolchain bug with inlining */
 588:.\Generated_Source\PSoC5/Bootloader_1.c ****     __attribute__((naked))
 589:.\Generated_Source\PSoC5/Bootloader_1.c ****     static void Bootloader_1_LaunchBootloadable(uint32 appAddr)
 590:.\Generated_Source\PSoC5/Bootloader_1.c ****     {
 486              		.loc 1 590 0
 487              		.cfi_startproc
 488              		@ Naked Function: prologue and epilogue provided by programmer.
ARM GAS  C:\Users\SISTEM~1\AppData\Local\Temp\ccZs07Hi.s 			page 20


 489              		@ args = 0, pretend = 0, frame = 0
 490              		@ frame_needed = 1, uses_anonymous_args = 0
 591:.\Generated_Source\PSoC5/Bootloader_1.c ****         __asm volatile("    BX  R0\n");
 491              		.loc 1 591 0
 492              	@ 591 ".\Generated_Source\PSoC5\Bootloader_1.c" 1
 493 0000 0047     		    BX  R0
 494              	
 495              	@ 0 "" 2
 592:.\Generated_Source\PSoC5/Bootloader_1.c ****     }
 496              		.loc 1 592 0
 497              		.thumb
 498              		.cfi_endproc
 499              	.LFE69:
 500              		.size	Bootloader_1_LaunchBootloadable, .-Bootloader_1_LaunchBootloadable
 501 0002 00BF     		.section	.text.Bootloader_1_ValidateBootloadable,"ax",%progbits
 502              		.align	2
 503              		.global	Bootloader_1_ValidateBootloadable
 504              		.thumb
 505              		.thumb_func
 506              		.type	Bootloader_1_ValidateBootloadable, %function
 507              	Bootloader_1_ValidateBootloadable:
 508              	.LFB70:
 593:.\Generated_Source\PSoC5/Bootloader_1.c **** 
 594:.\Generated_Source\PSoC5/Bootloader_1.c **** #elif defined (__ICCARM__)
 595:.\Generated_Source\PSoC5/Bootloader_1.c **** 
 596:.\Generated_Source\PSoC5/Bootloader_1.c ****     static void Bootloader_1_LaunchBootloadable(uint32 appAddr)
 597:.\Generated_Source\PSoC5/Bootloader_1.c ****     {
 598:.\Generated_Source\PSoC5/Bootloader_1.c ****         __asm volatile("    BX  R0\n");
 599:.\Generated_Source\PSoC5/Bootloader_1.c ****     }
 600:.\Generated_Source\PSoC5/Bootloader_1.c **** 
 601:.\Generated_Source\PSoC5/Bootloader_1.c **** #endif  /* (__ARMCC_VERSION) */
 602:.\Generated_Source\PSoC5/Bootloader_1.c **** 
 603:.\Generated_Source\PSoC5/Bootloader_1.c **** 
 604:.\Generated_Source\PSoC5/Bootloader_1.c **** /*******************************************************************************
 605:.\Generated_Source\PSoC5/Bootloader_1.c **** * Function Name: Bootloader_1_ValidateBootloadable
 606:.\Generated_Source\PSoC5/Bootloader_1.c **** ********************************************************************************
 607:.\Generated_Source\PSoC5/Bootloader_1.c **** * Summary:
 608:.\Generated_Source\PSoC5/Bootloader_1.c **** *  Performs the bootloadable application validation by calculating the
 609:.\Generated_Source\PSoC5/Bootloader_1.c **** *  application image checksum and comparing it with the checksum value stored
 610:.\Generated_Source\PSoC5/Bootloader_1.c **** *  in the Bootloadable Application Checksum field of the metadata section.
 611:.\Generated_Source\PSoC5/Bootloader_1.c **** *
 612:.\Generated_Source\PSoC5/Bootloader_1.c **** *  If the Fast bootloadable application validation option is enabled in the
 613:.\Generated_Source\PSoC5/Bootloader_1.c **** *  component customizer and bootloadable application successfully passes
 614:.\Generated_Source\PSoC5/Bootloader_1.c **** *  validation, the Bootloadable Application Verification Status field of the
 615:.\Generated_Source\PSoC5/Bootloader_1.c **** *  metadata section is updated. Refer to the Metadata Layout section for the
 616:.\Generated_Source\PSoC5/Bootloader_1.c **** *  details.
 617:.\Generated_Source\PSoC5/Bootloader_1.c **** *
 618:.\Generated_Source\PSoC5/Bootloader_1.c **** *  If the Fast bootloadable application validation option is enabled and
 619:.\Generated_Source\PSoC5/Bootloader_1.c **** *  Bootloadable Application Verification Status field of the metadata section
 620:.\Generated_Source\PSoC5/Bootloader_1.c **** *  claims that bootloadable application is valid, the function returns
 621:.\Generated_Source\PSoC5/Bootloader_1.c **** *  CYRET_SUCCESS without further checksum calculation.
 622:.\Generated_Source\PSoC5/Bootloader_1.c **** *
 623:.\Generated_Source\PSoC5/Bootloader_1.c **** * Parameters:
 624:.\Generated_Source\PSoC5/Bootloader_1.c **** *  appId:
 625:.\Generated_Source\PSoC5/Bootloader_1.c **** *  The number of the bootloadable application should be 0 for the normal
 626:.\Generated_Source\PSoC5/Bootloader_1.c **** *  bootloader and 0 or 1 for the Multi-Application bootloader.
 627:.\Generated_Source\PSoC5/Bootloader_1.c **** *
ARM GAS  C:\Users\SISTEM~1\AppData\Local\Temp\ccZs07Hi.s 			page 21


 628:.\Generated_Source\PSoC5/Bootloader_1.c **** * Returns:
 629:.\Generated_Source\PSoC5/Bootloader_1.c **** *  Returns CYRET_SUCCESS if the specified bootloadable application is valid.
 630:.\Generated_Source\PSoC5/Bootloader_1.c **** *
 631:.\Generated_Source\PSoC5/Bootloader_1.c **** *******************************************************************************/
 632:.\Generated_Source\PSoC5/Bootloader_1.c **** cystatus Bootloader_1_ValidateBootloadable(uint8 appId) CYSMALL \
 633:.\Generated_Source\PSoC5/Bootloader_1.c **** 
 634:.\Generated_Source\PSoC5/Bootloader_1.c ****     {
 509              		.loc 1 634 0
 510              		.cfi_startproc
 511              		@ args = 0, pretend = 0, frame = 24
 512              		@ frame_needed = 1, uses_anonymous_args = 0
 513 0000 90B5     		push	{r4, r7, lr}
 514              		.cfi_def_cfa_offset 12
 515              		.cfi_offset 4, -12
 516              		.cfi_offset 7, -8
 517              		.cfi_offset 14, -4
 518 0002 87B0     		sub	sp, sp, #28
 519              		.cfi_def_cfa_offset 40
 520 0004 00AF     		add	r7, sp, #0
 521              		.cfi_def_cfa_register 7
 522 0006 0346     		mov	r3, r0
 523 0008 FB71     		strb	r3, [r7, #7]
 635:.\Generated_Source\PSoC5/Bootloader_1.c ****         uint32 CYDATA idx;
 636:.\Generated_Source\PSoC5/Bootloader_1.c **** 
 637:.\Generated_Source\PSoC5/Bootloader_1.c ****         uint32 CYDATA end   = Bootloader_1_FIRST_APP_BYTE(appId) +
 524              		.loc 1 637 0
 525 000a FB79     		ldrb	r3, [r7, #7]	@ zero_extendqisi2
 526 000c 0320     		movs	r0, #3
 527 000e 1946     		mov	r1, r3
 528 0010 FFF7FEFF 		bl	Bootloader_1_GetMetadata
 529 0014 0346     		mov	r3, r0
 530 0016 0133     		adds	r3, r3, #1
 531 0018 1C02     		lsls	r4, r3, #8
 638:.\Generated_Source\PSoC5/Bootloader_1.c ****                                 Bootloader_1_GetMetadata(Bootloader_1_GET_BTLDB_LENGTH,
 532              		.loc 1 638 0
 533 001a FB79     		ldrb	r3, [r7, #7]	@ zero_extendqisi2
 534 001c 0420     		movs	r0, #4
 535 001e 1946     		mov	r1, r3
 536 0020 FFF7FEFF 		bl	Bootloader_1_GetMetadata
 537 0024 0346     		mov	r3, r0
 637:.\Generated_Source\PSoC5/Bootloader_1.c ****         uint32 CYDATA end   = Bootloader_1_FIRST_APP_BYTE(appId) +
 538              		.loc 1 637 0
 539 0026 2344     		add	r3, r3, r4
 540 0028 FB60     		str	r3, [r7, #12]
 639:.\Generated_Source\PSoC5/Bootloader_1.c ****                                                        appId);
 640:.\Generated_Source\PSoC5/Bootloader_1.c **** 
 641:.\Generated_Source\PSoC5/Bootloader_1.c ****         CYBIT         valid = 0u; /* Assume bad flash image */
 541              		.loc 1 641 0
 542 002a 0023     		movs	r3, #0
 543 002c FB74     		strb	r3, [r7, #19]
 642:.\Generated_Source\PSoC5/Bootloader_1.c ****         uint8  CYDATA calcedChecksum = 0u;
 544              		.loc 1 642 0
 545 002e 0023     		movs	r3, #0
 546 0030 BB74     		strb	r3, [r7, #18]
 643:.\Generated_Source\PSoC5/Bootloader_1.c **** 
 644:.\Generated_Source\PSoC5/Bootloader_1.c **** 
 645:.\Generated_Source\PSoC5/Bootloader_1.c ****         #if(0u != Bootloader_1_DUAL_APP_BOOTLOADER)
ARM GAS  C:\Users\SISTEM~1\AppData\Local\Temp\ccZs07Hi.s 			page 22


 646:.\Generated_Source\PSoC5/Bootloader_1.c **** 
 647:.\Generated_Source\PSoC5/Bootloader_1.c ****             if(appId > 1u)
 648:.\Generated_Source\PSoC5/Bootloader_1.c ****             {
 649:.\Generated_Source\PSoC5/Bootloader_1.c ****                 return(CYRET_BAD_DATA);
 650:.\Generated_Source\PSoC5/Bootloader_1.c ****             }
 651:.\Generated_Source\PSoC5/Bootloader_1.c **** 
 652:.\Generated_Source\PSoC5/Bootloader_1.c ****         #endif  /* (0u != Bootloader_1_DUAL_APP_BOOTLOADER) */
 653:.\Generated_Source\PSoC5/Bootloader_1.c **** 
 654:.\Generated_Source\PSoC5/Bootloader_1.c **** 
 655:.\Generated_Source\PSoC5/Bootloader_1.c ****         #if(0u != Bootloader_1_FAST_APP_VALIDATION)
 656:.\Generated_Source\PSoC5/Bootloader_1.c **** 
 657:.\Generated_Source\PSoC5/Bootloader_1.c **** 
 658:.\Generated_Source\PSoC5/Bootloader_1.c ****             if(Bootloader_1_GetMetadata(Bootloader_1_GET_BTLDB_STATUS, appId) ==
 659:.\Generated_Source\PSoC5/Bootloader_1.c ****                Bootloader_1_MD_BTLDB_IS_VERIFIED)
 660:.\Generated_Source\PSoC5/Bootloader_1.c ****             {
 661:.\Generated_Source\PSoC5/Bootloader_1.c ****                 return(CYRET_SUCCESS);
 662:.\Generated_Source\PSoC5/Bootloader_1.c ****             }
 663:.\Generated_Source\PSoC5/Bootloader_1.c **** 
 664:.\Generated_Source\PSoC5/Bootloader_1.c ****         #endif  /* (0u != Bootloader_1_FAST_APP_VALIDATION) */
 665:.\Generated_Source\PSoC5/Bootloader_1.c **** 
 666:.\Generated_Source\PSoC5/Bootloader_1.c **** 
 667:.\Generated_Source\PSoC5/Bootloader_1.c ****         /* Calculate checksum of bootloadable image */
 668:.\Generated_Source\PSoC5/Bootloader_1.c ****         for(idx = Bootloader_1_FIRST_APP_BYTE(appId); idx < end; ++idx)
 547              		.loc 1 668 0
 548 0032 FB79     		ldrb	r3, [r7, #7]	@ zero_extendqisi2
 549 0034 0320     		movs	r0, #3
 550 0036 1946     		mov	r1, r3
 551 0038 FFF7FEFF 		bl	Bootloader_1_GetMetadata
 552 003c 0346     		mov	r3, r0
 553 003e 0133     		adds	r3, r3, #1
 554 0040 1B02     		lsls	r3, r3, #8
 555 0042 7B61     		str	r3, [r7, #20]
 556 0044 11E0     		b	.L37
 557              	.L39:
 558              	.LBB3:
 669:.\Generated_Source\PSoC5/Bootloader_1.c ****         {
 670:.\Generated_Source\PSoC5/Bootloader_1.c ****             uint8 CYDATA curByte = Bootloader_1_GET_CODE_BYTE(idx);
 559              		.loc 1 670 0
 560 0046 7B69     		ldr	r3, [r7, #20]
 561 0048 1B78     		ldrb	r3, [r3]
 562 004a FB72     		strb	r3, [r7, #11]
 671:.\Generated_Source\PSoC5/Bootloader_1.c **** 
 672:.\Generated_Source\PSoC5/Bootloader_1.c ****             if((curByte != 0u) && (curByte != 0xFFu))
 563              		.loc 1 672 0
 564 004c FB7A     		ldrb	r3, [r7, #11]	@ zero_extendqisi2
 565 004e 002B     		cmp	r3, #0
 566 0050 04D0     		beq	.L38
 567              		.loc 1 672 0 is_stmt 0 discriminator 1
 568 0052 FB7A     		ldrb	r3, [r7, #11]	@ zero_extendqisi2
 569 0054 FF2B     		cmp	r3, #255
 570 0056 01D0     		beq	.L38
 673:.\Generated_Source\PSoC5/Bootloader_1.c ****             {
 674:.\Generated_Source\PSoC5/Bootloader_1.c ****                 valid = 1u;
 571              		.loc 1 674 0 is_stmt 1
 572 0058 0123     		movs	r3, #1
 573 005a FB74     		strb	r3, [r7, #19]
 574              	.L38:
ARM GAS  C:\Users\SISTEM~1\AppData\Local\Temp\ccZs07Hi.s 			page 23


 675:.\Generated_Source\PSoC5/Bootloader_1.c ****             }
 676:.\Generated_Source\PSoC5/Bootloader_1.c **** 
 677:.\Generated_Source\PSoC5/Bootloader_1.c ****             calcedChecksum += curByte;
 575              		.loc 1 677 0
 576 005c BA7C     		ldrb	r2, [r7, #18]
 577 005e FB7A     		ldrb	r3, [r7, #11]
 578 0060 1344     		add	r3, r3, r2
 579 0062 BB74     		strb	r3, [r7, #18]
 580              	.LBE3:
 668:.\Generated_Source\PSoC5/Bootloader_1.c ****         for(idx = Bootloader_1_FIRST_APP_BYTE(appId); idx < end; ++idx)
 581              		.loc 1 668 0
 582 0064 7B69     		ldr	r3, [r7, #20]
 583 0066 0133     		adds	r3, r3, #1
 584 0068 7B61     		str	r3, [r7, #20]
 585              	.L37:
 668:.\Generated_Source\PSoC5/Bootloader_1.c ****         for(idx = Bootloader_1_FIRST_APP_BYTE(appId); idx < end; ++idx)
 586              		.loc 1 668 0 is_stmt 0 discriminator 1
 587 006a 7A69     		ldr	r2, [r7, #20]
 588 006c FB68     		ldr	r3, [r7, #12]
 589 006e 9A42     		cmp	r2, r3
 590 0070 E9D3     		bcc	.L39
 678:.\Generated_Source\PSoC5/Bootloader_1.c ****         }
 679:.\Generated_Source\PSoC5/Bootloader_1.c **** 
 680:.\Generated_Source\PSoC5/Bootloader_1.c **** 
 681:.\Generated_Source\PSoC5/Bootloader_1.c ****         /***************************************************************************
 682:.\Generated_Source\PSoC5/Bootloader_1.c ****         * We do not compute checksum over the meta data section, so no need to
 683:.\Generated_Source\PSoC5/Bootloader_1.c ****         * subtract off App Verified or App Active information here like we do when
 684:.\Generated_Source\PSoC5/Bootloader_1.c ****         * verifying a row.
 685:.\Generated_Source\PSoC5/Bootloader_1.c ****         ***************************************************************************/
 686:.\Generated_Source\PSoC5/Bootloader_1.c **** 
 687:.\Generated_Source\PSoC5/Bootloader_1.c **** 
 688:.\Generated_Source\PSoC5/Bootloader_1.c ****         #if((!CY_PSOC4) && (CYDEV_ECC_ENABLE == 0u))
 689:.\Generated_Source\PSoC5/Bootloader_1.c **** 
 690:.\Generated_Source\PSoC5/Bootloader_1.c ****             /* Add ECC data to checksum */
 691:.\Generated_Source\PSoC5/Bootloader_1.c ****             idx = ((Bootloader_1_FIRST_APP_BYTE(appId)) >> 3u);
 591              		.loc 1 691 0 is_stmt 1
 592 0072 FB79     		ldrb	r3, [r7, #7]	@ zero_extendqisi2
 593 0074 0320     		movs	r0, #3
 594 0076 1946     		mov	r1, r3
 595 0078 FFF7FEFF 		bl	Bootloader_1_GetMetadata
 596 007c 0346     		mov	r3, r0
 597 007e 0133     		adds	r3, r3, #1
 598 0080 1B02     		lsls	r3, r3, #8
 599 0082 DB08     		lsrs	r3, r3, #3
 600 0084 7B61     		str	r3, [r7, #20]
 692:.\Generated_Source\PSoC5/Bootloader_1.c **** 
 693:.\Generated_Source\PSoC5/Bootloader_1.c ****             /* Flash may run into meta data, so ECC does not use full row */
 694:.\Generated_Source\PSoC5/Bootloader_1.c ****             end = (end == (CY_FLASH_SIZE - Bootloader_1_MD_SIZEOF))
 695:.\Generated_Source\PSoC5/Bootloader_1.c ****                 ? (CY_FLASH_SIZE >> 3u)
 696:.\Generated_Source\PSoC5/Bootloader_1.c ****                 : (end >> 3u);
 601              		.loc 1 696 0
 602 0086 FA68     		ldr	r2, [r7, #12]
 603 0088 174B     		ldr	r3, .L47
 604 008a 9A42     		cmp	r2, r3
 605 008c 02D0     		beq	.L40
 606              		.loc 1 696 0 is_stmt 0 discriminator 1
 607 008e FB68     		ldr	r3, [r7, #12]
ARM GAS  C:\Users\SISTEM~1\AppData\Local\Temp\ccZs07Hi.s 			page 24


 608 0090 DB08     		lsrs	r3, r3, #3
 609 0092 01E0     		b	.L41
 610              	.L40:
 611              		.loc 1 696 0 discriminator 2
 612 0094 4FF40043 		mov	r3, #32768
 613              	.L41:
 694:.\Generated_Source\PSoC5/Bootloader_1.c ****             end = (end == (CY_FLASH_SIZE - Bootloader_1_MD_SIZEOF))
 614              		.loc 1 694 0 is_stmt 1
 615 0098 FB60     		str	r3, [r7, #12]
 697:.\Generated_Source\PSoC5/Bootloader_1.c **** 
 698:.\Generated_Source\PSoC5/Bootloader_1.c ****             for (; idx < end; ++idx)
 616              		.loc 1 698 0
 617 009a 0AE0     		b	.L42
 618              	.L43:
 699:.\Generated_Source\PSoC5/Bootloader_1.c ****             {
 700:.\Generated_Source\PSoC5/Bootloader_1.c ****                 calcedChecksum += CY_GET_XTND_REG8((volatile uint8 *)(CYDEV_ECC_BASE + idx));
 619              		.loc 1 700 0 discriminator 2
 620 009c 7B69     		ldr	r3, [r7, #20]
 621 009e 03F19043 		add	r3, r3, #1207959552
 622 00a2 1B78     		ldrb	r3, [r3]
 623 00a4 DAB2     		uxtb	r2, r3
 624 00a6 BB7C     		ldrb	r3, [r7, #18]
 625 00a8 1344     		add	r3, r3, r2
 626 00aa BB74     		strb	r3, [r7, #18]
 698:.\Generated_Source\PSoC5/Bootloader_1.c ****             for (; idx < end; ++idx)
 627              		.loc 1 698 0 discriminator 2
 628 00ac 7B69     		ldr	r3, [r7, #20]
 629 00ae 0133     		adds	r3, r3, #1
 630 00b0 7B61     		str	r3, [r7, #20]
 631              	.L42:
 698:.\Generated_Source\PSoC5/Bootloader_1.c ****             for (; idx < end; ++idx)
 632              		.loc 1 698 0 is_stmt 0 discriminator 1
 633 00b2 7A69     		ldr	r2, [r7, #20]
 634 00b4 FB68     		ldr	r3, [r7, #12]
 635 00b6 9A42     		cmp	r2, r3
 636 00b8 F0D3     		bcc	.L43
 701:.\Generated_Source\PSoC5/Bootloader_1.c ****             }
 702:.\Generated_Source\PSoC5/Bootloader_1.c **** 
 703:.\Generated_Source\PSoC5/Bootloader_1.c ****         #endif  /* ((!CY_PSOC4) && (CYDEV_ECC_ENABLE == 0u)) */
 704:.\Generated_Source\PSoC5/Bootloader_1.c **** 
 705:.\Generated_Source\PSoC5/Bootloader_1.c **** 
 706:.\Generated_Source\PSoC5/Bootloader_1.c ****         calcedChecksum = ( uint8 )1u + ( uint8 )(~calcedChecksum);
 637              		.loc 1 706 0 is_stmt 1
 638 00ba BB7C     		ldrb	r3, [r7, #18]
 639 00bc 5B42     		negs	r3, r3
 640 00be BB74     		strb	r3, [r7, #18]
 707:.\Generated_Source\PSoC5/Bootloader_1.c **** 
 708:.\Generated_Source\PSoC5/Bootloader_1.c **** 
 709:.\Generated_Source\PSoC5/Bootloader_1.c ****         if((calcedChecksum != Bootloader_1_GetMetadata(Bootloader_1_GET_BTLDB_CHECKSUM, appId)) ||
 641              		.loc 1 709 0
 642 00c0 BC7C     		ldrb	r4, [r7, #18]	@ zero_extendqisi2
 643 00c2 FB79     		ldrb	r3, [r7, #7]	@ zero_extendqisi2
 644 00c4 0120     		movs	r0, #1
 645 00c6 1946     		mov	r1, r3
 646 00c8 FFF7FEFF 		bl	Bootloader_1_GetMetadata
 647 00cc 0346     		mov	r3, r0
 648 00ce 9C42     		cmp	r4, r3
ARM GAS  C:\Users\SISTEM~1\AppData\Local\Temp\ccZs07Hi.s 			page 25


 649 00d0 02D1     		bne	.L44
 650              		.loc 1 709 0 is_stmt 0 discriminator 1
 651 00d2 FB7C     		ldrb	r3, [r7, #19]	@ zero_extendqisi2
 652 00d4 002B     		cmp	r3, #0
 653 00d6 01D1     		bne	.L45
 654              	.L44:
 710:.\Generated_Source\PSoC5/Bootloader_1.c ****            (0u == valid))
 711:.\Generated_Source\PSoC5/Bootloader_1.c ****         {
 712:.\Generated_Source\PSoC5/Bootloader_1.c ****             return(CYRET_BAD_DATA);
 655              		.loc 1 712 0 is_stmt 1
 656 00d8 0623     		movs	r3, #6
 657 00da 00E0     		b	.L46
 658              	.L45:
 713:.\Generated_Source\PSoC5/Bootloader_1.c ****         }
 714:.\Generated_Source\PSoC5/Bootloader_1.c **** 
 715:.\Generated_Source\PSoC5/Bootloader_1.c **** 
 716:.\Generated_Source\PSoC5/Bootloader_1.c ****         #if(0u != Bootloader_1_FAST_APP_VALIDATION)
 717:.\Generated_Source\PSoC5/Bootloader_1.c ****             Bootloader_1_SetFlashByte((uint32) Bootloader_1_MD_BTLDB_VERIFIED_OFFSET(appId),
 718:.\Generated_Source\PSoC5/Bootloader_1.c ****                                           Bootloader_1_MD_BTLDB_IS_VERIFIED);
 719:.\Generated_Source\PSoC5/Bootloader_1.c ****         #endif  /* (0u != Bootloader_1_FAST_APP_VALIDATION) */
 720:.\Generated_Source\PSoC5/Bootloader_1.c **** 
 721:.\Generated_Source\PSoC5/Bootloader_1.c **** 
 722:.\Generated_Source\PSoC5/Bootloader_1.c ****         return(CYRET_SUCCESS);
 659              		.loc 1 722 0
 660 00dc 0023     		movs	r3, #0
 661              	.L46:
 723:.\Generated_Source\PSoC5/Bootloader_1.c **** }
 662              		.loc 1 723 0
 663 00de 1846     		mov	r0, r3
 664 00e0 1C37     		adds	r7, r7, #28
 665 00e2 BD46     		mov	sp, r7
 666              		@ sp needed
 667 00e4 90BD     		pop	{r4, r7, pc}
 668              	.L48:
 669 00e6 00BF     		.align	2
 670              	.L47:
 671 00e8 C0FF0300 		.word	262080
 672              		.cfi_endproc
 673              	.LFE70:
 674              		.size	Bootloader_1_ValidateBootloadable, .-Bootloader_1_ValidateBootloadable
 675              		.section	.rodata
 676              		.align	2
 677              	.LC0:
 678 0000 6930122E 		.word	772943977
 679 0004 00       		.byte	0
 680 0005 1E       		.byte	30
 681 0006 01       		.byte	1
 682 0007 01       		.byte	1
 683              		.section	.text.Bootloader_1_HostLink,"ax",%progbits
 684              		.align	2
 685              		.thumb
 686              		.thumb_func
 687              		.type	Bootloader_1_HostLink, %function
 688              	Bootloader_1_HostLink:
 689              	.LFB71:
 724:.\Generated_Source\PSoC5/Bootloader_1.c **** 
 725:.\Generated_Source\PSoC5/Bootloader_1.c **** 
ARM GAS  C:\Users\SISTEM~1\AppData\Local\Temp\ccZs07Hi.s 			page 26


 726:.\Generated_Source\PSoC5/Bootloader_1.c **** /*******************************************************************************
 727:.\Generated_Source\PSoC5/Bootloader_1.c **** * Function Name: Bootloader_1_HostLink
 728:.\Generated_Source\PSoC5/Bootloader_1.c **** ********************************************************************************
 729:.\Generated_Source\PSoC5/Bootloader_1.c **** *
 730:.\Generated_Source\PSoC5/Bootloader_1.c **** * Summary:
 731:.\Generated_Source\PSoC5/Bootloader_1.c **** *  Causes the bootloader to attempt to read data being transmitted by the
 732:.\Generated_Source\PSoC5/Bootloader_1.c **** *  host application.  If data is sent from the host, this establishes the
 733:.\Generated_Source\PSoC5/Bootloader_1.c **** *  communication interface to process all requests.
 734:.\Generated_Source\PSoC5/Bootloader_1.c **** *
 735:.\Generated_Source\PSoC5/Bootloader_1.c **** * Parameters:
 736:.\Generated_Source\PSoC5/Bootloader_1.c **** *  timeOut:
 737:.\Generated_Source\PSoC5/Bootloader_1.c **** *   The amount of time to listen for data before giving up. Timeout is
 738:.\Generated_Source\PSoC5/Bootloader_1.c **** *   measured in 10s of ms.  Use 0 for an infinite wait.
 739:.\Generated_Source\PSoC5/Bootloader_1.c **** *
 740:.\Generated_Source\PSoC5/Bootloader_1.c **** * Return:
 741:.\Generated_Source\PSoC5/Bootloader_1.c **** *   None
 742:.\Generated_Source\PSoC5/Bootloader_1.c **** *
 743:.\Generated_Source\PSoC5/Bootloader_1.c **** *******************************************************************************/
 744:.\Generated_Source\PSoC5/Bootloader_1.c **** static void Bootloader_1_HostLink(uint8 timeOut) 
 745:.\Generated_Source\PSoC5/Bootloader_1.c **** {
 690              		.loc 1 745 0
 691              		.cfi_startproc
 692              		@ args = 0, pretend = 0, frame = 656
 693              		@ frame_needed = 1, uses_anonymous_args = 0
 694 0000 80B5     		push	{r7, lr}
 695              		.cfi_def_cfa_offset 8
 696              		.cfi_offset 7, -8
 697              		.cfi_offset 14, -4
 698 0002 ADF5247D 		sub	sp, sp, #656
 699              		.cfi_def_cfa_offset 664
 700 0006 00AF     		add	r7, sp, #0
 701              		.cfi_def_cfa_register 7
 702 0008 0246     		mov	r2, r0
 703 000a FB1D     		adds	r3, r7, #7
 704 000c 1A70     		strb	r2, [r3]
 746:.\Generated_Source\PSoC5/Bootloader_1.c ****     uint16    CYDATA numberRead;
 747:.\Generated_Source\PSoC5/Bootloader_1.c ****     uint16    CYDATA rspSize;
 748:.\Generated_Source\PSoC5/Bootloader_1.c ****     uint8     CYDATA ackCode;
 749:.\Generated_Source\PSoC5/Bootloader_1.c ****     uint16    CYDATA pktChecksum;
 750:.\Generated_Source\PSoC5/Bootloader_1.c ****     cystatus  CYDATA readStat;
 751:.\Generated_Source\PSoC5/Bootloader_1.c ****     uint16    CYDATA pktSize    = 0u;
 705              		.loc 1 751 0
 706 000e 0023     		movs	r3, #0
 707 0010 A7F88A32 		strh	r3, [r7, #650]	@ movhi
 752:.\Generated_Source\PSoC5/Bootloader_1.c ****     uint16    CYDATA dataOffset = 0u;
 708              		.loc 1 752 0
 709 0014 0023     		movs	r3, #0
 710 0016 A7F88832 		strh	r3, [r7, #648]	@ movhi
 753:.\Generated_Source\PSoC5/Bootloader_1.c ****     uint8     CYDATA timeOutCnt = 10u;
 711              		.loc 1 753 0
 712 001a 0A23     		movs	r3, #10
 713 001c 87F88732 		strb	r3, [r7, #647]
 754:.\Generated_Source\PSoC5/Bootloader_1.c **** 
 755:.\Generated_Source\PSoC5/Bootloader_1.c ****     #if(0u != Bootloader_1_FAST_APP_VALIDATION)
 756:.\Generated_Source\PSoC5/Bootloader_1.c ****         uint8 CYDATA clearedMetaData = 0u;
 757:.\Generated_Source\PSoC5/Bootloader_1.c ****     #endif  /* (0u != Bootloader_1_FAST_APP_VALIDATION) */
 758:.\Generated_Source\PSoC5/Bootloader_1.c **** 
ARM GAS  C:\Users\SISTEM~1\AppData\Local\Temp\ccZs07Hi.s 			page 27


 759:.\Generated_Source\PSoC5/Bootloader_1.c ****     CYBIT     communicationState = Bootloader_1_COMMUNICATION_STATE_IDLE;
 714              		.loc 1 759 0
 715 0020 0023     		movs	r3, #0
 716 0022 87F88632 		strb	r3, [r7, #646]
 760:.\Generated_Source\PSoC5/Bootloader_1.c **** 
 761:.\Generated_Source\PSoC5/Bootloader_1.c ****     uint8     packetBuffer[Bootloader_1_SIZEOF_COMMAND_BUFFER];
 762:.\Generated_Source\PSoC5/Bootloader_1.c ****     uint8     dataBuffer  [Bootloader_1_SIZEOF_COMMAND_BUFFER];
 763:.\Generated_Source\PSoC5/Bootloader_1.c **** 
 764:.\Generated_Source\PSoC5/Bootloader_1.c **** 
 765:.\Generated_Source\PSoC5/Bootloader_1.c ****     #if(!CY_PSOC4)
 766:.\Generated_Source\PSoC5/Bootloader_1.c ****         #if(0u == Bootloader_1_FAST_APP_VALIDATION)
 767:.\Generated_Source\PSoC5/Bootloader_1.c ****             #if !defined(CY_BOOT_VERSION)
 768:.\Generated_Source\PSoC5/Bootloader_1.c **** 
 769:.\Generated_Source\PSoC5/Bootloader_1.c ****                 /* Not required with cy_boot 4.20 */
 770:.\Generated_Source\PSoC5/Bootloader_1.c ****                 uint8 CYXDATA Bootloader_1_flashBuffer[Bootloader_1_FROW_SIZE];
 771:.\Generated_Source\PSoC5/Bootloader_1.c **** 
 772:.\Generated_Source\PSoC5/Bootloader_1.c ****             #endif /* !defined(CY_BOOT_VERSION) */
 773:.\Generated_Source\PSoC5/Bootloader_1.c ****         #endif  /* (0u == Bootloader_1_FAST_APP_VALIDATION) */
 774:.\Generated_Source\PSoC5/Bootloader_1.c ****     #endif  /* (CY_PSOC4) */
 775:.\Generated_Source\PSoC5/Bootloader_1.c **** 
 776:.\Generated_Source\PSoC5/Bootloader_1.c **** 
 777:.\Generated_Source\PSoC5/Bootloader_1.c **** 
 778:.\Generated_Source\PSoC5/Bootloader_1.c ****     #if(!CY_PSOC4)
 779:.\Generated_Source\PSoC5/Bootloader_1.c ****         #if(0u == Bootloader_1_FAST_APP_VALIDATION)
 780:.\Generated_Source\PSoC5/Bootloader_1.c **** 
 781:.\Generated_Source\PSoC5/Bootloader_1.c ****             /* Initialize Flash subsystem for non-PSoC 4 devices */
 782:.\Generated_Source\PSoC5/Bootloader_1.c ****             if (CYRET_SUCCESS != CySetTemp())
 717              		.loc 1 782 0
 718 0026 FFF7FEFF 		bl	CySetTemp
 719 002a 0346     		mov	r3, r0
 720 002c 002B     		cmp	r3, #0
 721 002e 02D0     		beq	.L50
 783:.\Generated_Source\PSoC5/Bootloader_1.c ****             {
 784:.\Generated_Source\PSoC5/Bootloader_1.c ****                 CyHalt(0x00u);
 722              		.loc 1 784 0
 723 0030 0020     		movs	r0, #0
 724 0032 FFF7FEFF 		bl	CyHalt
 725              	.L50:
 785:.\Generated_Source\PSoC5/Bootloader_1.c ****             }
 786:.\Generated_Source\PSoC5/Bootloader_1.c **** 
 787:.\Generated_Source\PSoC5/Bootloader_1.c ****             #if !defined(CY_BOOT_VERSION)
 788:.\Generated_Source\PSoC5/Bootloader_1.c **** 
 789:.\Generated_Source\PSoC5/Bootloader_1.c ****                 /* Not required with cy_boot 4.20 */
 790:.\Generated_Source\PSoC5/Bootloader_1.c ****                 if (CYRET_SUCCESS != CySetFlashEEBuffer(Bootloader_1_flashBuffer))
 791:.\Generated_Source\PSoC5/Bootloader_1.c ****                 {
 792:.\Generated_Source\PSoC5/Bootloader_1.c ****                     CyHalt(0x00u);
 793:.\Generated_Source\PSoC5/Bootloader_1.c ****                 }
 794:.\Generated_Source\PSoC5/Bootloader_1.c **** 
 795:.\Generated_Source\PSoC5/Bootloader_1.c ****             #endif /* !defined(CY_BOOT_VERSION) */
 796:.\Generated_Source\PSoC5/Bootloader_1.c ****         #endif  /* (0u == Bootloader_1_FAST_APP_VALIDATION) */
 797:.\Generated_Source\PSoC5/Bootloader_1.c ****     #endif  /* (CY_PSOC4) */
 798:.\Generated_Source\PSoC5/Bootloader_1.c **** 
 799:.\Generated_Source\PSoC5/Bootloader_1.c ****     /* Initialize communications channel. */
 800:.\Generated_Source\PSoC5/Bootloader_1.c ****     CyBtldrCommStart();
 726              		.loc 1 800 0
 727 0036 FFF7FEFF 		bl	UART_1_CyBtldrCommStart
 801:.\Generated_Source\PSoC5/Bootloader_1.c **** 
ARM GAS  C:\Users\SISTEM~1\AppData\Local\Temp\ccZs07Hi.s 			page 28


 802:.\Generated_Source\PSoC5/Bootloader_1.c ****     /* Enable global interrupts */
 803:.\Generated_Source\PSoC5/Bootloader_1.c ****     CyGlobalIntEnable;
 728              		.loc 1 803 0
 729              	@ 803 ".\Generated_Source\PSoC5\Bootloader_1.c" 1
 730 003a 62B6     		CPSIE   i
 731              	@ 0 "" 2
 732              		.thumb
 733              	.L103:
 804:.\Generated_Source\PSoC5/Bootloader_1.c **** 
 805:.\Generated_Source\PSoC5/Bootloader_1.c ****     do
 806:.\Generated_Source\PSoC5/Bootloader_1.c ****     {
 807:.\Generated_Source\PSoC5/Bootloader_1.c ****         ackCode = CYRET_SUCCESS;
 734              		.loc 1 807 0
 735 003c 0023     		movs	r3, #0
 736 003e 87F88D32 		strb	r3, [r7, #653]
 737              	.L55:
 808:.\Generated_Source\PSoC5/Bootloader_1.c **** 
 809:.\Generated_Source\PSoC5/Bootloader_1.c ****         do
 810:.\Generated_Source\PSoC5/Bootloader_1.c ****         {
 811:.\Generated_Source\PSoC5/Bootloader_1.c ****             readStat = CyBtldrCommRead(packetBuffer,
 738              		.loc 1 811 0
 739 0042 FB1D     		adds	r3, r7, #7
 740 0044 1B78     		ldrb	r3, [r3]	@ zero_extendqisi2
 741 0046 002B     		cmp	r3, #0
 742 0048 02D0     		beq	.L51
 743              		.loc 1 811 0 is_stmt 0 discriminator 1
 744 004a FB1D     		adds	r3, r7, #7
 745 004c 1B78     		ldrb	r3, [r3]	@ zero_extendqisi2
 746 004e 00E0     		b	.L52
 747              	.L51:
 748              		.loc 1 811 0 discriminator 2
 749 0050 FF23     		movs	r3, #255
 750              	.L52:
 751              		.loc 1 811 0 discriminator 3
 752 0052 07F59E71 		add	r1, r7, #316
 753 0056 07F26A22 		addw	r2, r7, #618
 754 005a 0846     		mov	r0, r1
 755 005c 4FF49671 		mov	r1, #300
 756 0060 FFF7FEFF 		bl	UART_1_CyBtldrCommRead
 757 0064 C7F87802 		str	r0, [r7, #632]
 812:.\Generated_Source\PSoC5/Bootloader_1.c ****                                         Bootloader_1_SIZEOF_COMMAND_BUFFER,
 813:.\Generated_Source\PSoC5/Bootloader_1.c ****                                         &numberRead,
 814:.\Generated_Source\PSoC5/Bootloader_1.c ****                                         (0u == timeOut) ? 0xFFu : timeOut);
 815:.\Generated_Source\PSoC5/Bootloader_1.c ****             if (0u != timeOut)
 758              		.loc 1 815 0 is_stmt 1 discriminator 3
 759 0068 FB1D     		adds	r3, r7, #7
 760 006a 1B78     		ldrb	r3, [r3]	@ zero_extendqisi2
 761 006c 002B     		cmp	r3, #0
 762 006e 04D0     		beq	.L53
 816:.\Generated_Source\PSoC5/Bootloader_1.c ****             {
 817:.\Generated_Source\PSoC5/Bootloader_1.c ****                 timeOutCnt--;
 763              		.loc 1 817 0
 764 0070 97F88732 		ldrb	r3, [r7, #647]	@ zero_extendqisi2
 765 0074 013B     		subs	r3, r3, #1
 766 0076 87F88732 		strb	r3, [r7, #647]
 767              	.L53:
 818:.\Generated_Source\PSoC5/Bootloader_1.c ****             }
ARM GAS  C:\Users\SISTEM~1\AppData\Local\Temp\ccZs07Hi.s 			page 29


 819:.\Generated_Source\PSoC5/Bootloader_1.c **** 
 820:.\Generated_Source\PSoC5/Bootloader_1.c ****         } while ( (0u != timeOutCnt) && (readStat != CYRET_SUCCESS) );
 768              		.loc 1 820 0
 769 007a 97F88732 		ldrb	r3, [r7, #647]	@ zero_extendqisi2
 770 007e 002B     		cmp	r3, #0
 771 0080 03D0     		beq	.L54
 772              		.loc 1 820 0 is_stmt 0 discriminator 1
 773 0082 D7F87832 		ldr	r3, [r7, #632]
 774 0086 002B     		cmp	r3, #0
 775 0088 DBD1     		bne	.L55
 776              	.L54:
 821:.\Generated_Source\PSoC5/Bootloader_1.c **** 
 822:.\Generated_Source\PSoC5/Bootloader_1.c **** 
 823:.\Generated_Source\PSoC5/Bootloader_1.c ****         if( readStat != CYRET_SUCCESS )
 777              		.loc 1 823 0 is_stmt 1
 778 008a D7F87832 		ldr	r3, [r7, #632]
 779 008e 002B     		cmp	r3, #0
 780 0090 00D0     		beq	.L56
 824:.\Generated_Source\PSoC5/Bootloader_1.c ****         {
 825:.\Generated_Source\PSoC5/Bootloader_1.c ****             continue;
 781              		.loc 1 825 0
 782 0092 B0E2     		b	.L57
 783              	.L56:
 826:.\Generated_Source\PSoC5/Bootloader_1.c ****         }
 827:.\Generated_Source\PSoC5/Bootloader_1.c **** 
 828:.\Generated_Source\PSoC5/Bootloader_1.c ****         if((numberRead < Bootloader_1_MIN_PKT_SIZE) ||
 784              		.loc 1 828 0
 785 0094 B7F86A32 		ldrh	r3, [r7, #618]
 786 0098 062B     		cmp	r3, #6
 787 009a 04D9     		bls	.L58
 829:.\Generated_Source\PSoC5/Bootloader_1.c ****            (packetBuffer[Bootloader_1_SOP_ADDR] != Bootloader_1_SOP))
 788              		.loc 1 829 0 discriminator 1
 789 009c 07F59E73 		add	r3, r7, #316
 790 00a0 1B78     		ldrb	r3, [r3]	@ zero_extendqisi2
 828:.\Generated_Source\PSoC5/Bootloader_1.c ****         if((numberRead < Bootloader_1_MIN_PKT_SIZE) ||
 791              		.loc 1 828 0 discriminator 1
 792 00a2 012B     		cmp	r3, #1
 793 00a4 03D0     		beq	.L59
 794              	.L58:
 830:.\Generated_Source\PSoC5/Bootloader_1.c ****         {
 831:.\Generated_Source\PSoC5/Bootloader_1.c ****             ackCode = Bootloader_1_ERR_DATA;
 795              		.loc 1 831 0
 796 00a6 0423     		movs	r3, #4
 797 00a8 87F88D32 		strb	r3, [r7, #653]
 798 00ac 44E0     		b	.L60
 799              	.L59:
 832:.\Generated_Source\PSoC5/Bootloader_1.c ****         }
 833:.\Generated_Source\PSoC5/Bootloader_1.c ****         else
 834:.\Generated_Source\PSoC5/Bootloader_1.c ****         {
 835:.\Generated_Source\PSoC5/Bootloader_1.c ****             pktSize = ((uint16)((uint16)packetBuffer[Bootloader_1_SIZE_ADDR + 1u] << 8u)) |
 800              		.loc 1 835 0
 801 00ae 07F59E73 		add	r3, r7, #316
 802 00b2 DB78     		ldrb	r3, [r3, #3]	@ zero_extendqisi2
 803 00b4 1B02     		lsls	r3, r3, #8
 804 00b6 9AB2     		uxth	r2, r3
 836:.\Generated_Source\PSoC5/Bootloader_1.c ****                                packetBuffer[Bootloader_1_SIZE_ADDR];
 805              		.loc 1 836 0
ARM GAS  C:\Users\SISTEM~1\AppData\Local\Temp\ccZs07Hi.s 			page 30


 806 00b8 07F59E73 		add	r3, r7, #316
 807 00bc 9B78     		ldrb	r3, [r3, #2]	@ zero_extendqisi2
 835:.\Generated_Source\PSoC5/Bootloader_1.c ****             pktSize = ((uint16)((uint16)packetBuffer[Bootloader_1_SIZE_ADDR + 1u] << 8u)) |
 808              		.loc 1 835 0
 809 00be 1343     		orrs	r3, r3, r2
 810 00c0 A7F88A32 		strh	r3, [r7, #650]	@ movhi
 837:.\Generated_Source\PSoC5/Bootloader_1.c **** 
 838:.\Generated_Source\PSoC5/Bootloader_1.c ****             pktChecksum = ((uint16)((uint16)packetBuffer[Bootloader_1_CHK_ADDR(pktSize) + 1u] << 8u
 811              		.loc 1 838 0
 812 00c4 B7F88A32 		ldrh	r3, [r7, #650]
 813 00c8 0533     		adds	r3, r3, #5
 814 00ca 07F59E72 		add	r2, r7, #316
 815 00ce D35C     		ldrb	r3, [r2, r3]	@ zero_extendqisi2
 816 00d0 1B02     		lsls	r3, r3, #8
 817 00d2 9AB2     		uxth	r2, r3
 839:.\Generated_Source\PSoC5/Bootloader_1.c ****                                    packetBuffer[Bootloader_1_CHK_ADDR(pktSize)];
 818              		.loc 1 839 0
 819 00d4 B7F88A32 		ldrh	r3, [r7, #650]
 820 00d8 0433     		adds	r3, r3, #4
 821 00da 07F59E71 		add	r1, r7, #316
 822 00de CB5C     		ldrb	r3, [r1, r3]	@ zero_extendqisi2
 838:.\Generated_Source\PSoC5/Bootloader_1.c ****             pktChecksum = ((uint16)((uint16)packetBuffer[Bootloader_1_CHK_ADDR(pktSize) + 1u] << 8u
 823              		.loc 1 838 0
 824 00e0 1343     		orrs	r3, r3, r2
 825 00e2 A7F87632 		strh	r3, [r7, #630]	@ movhi
 840:.\Generated_Source\PSoC5/Bootloader_1.c **** 
 841:.\Generated_Source\PSoC5/Bootloader_1.c ****             if((pktSize + Bootloader_1_MIN_PKT_SIZE) > numberRead)
 826              		.loc 1 841 0
 827 00e6 B7F88A32 		ldrh	r3, [r7, #650]
 828 00ea DA1D     		adds	r2, r3, #7
 829 00ec B7F86A32 		ldrh	r3, [r7, #618]
 830 00f0 9A42     		cmp	r2, r3
 831 00f2 03D9     		bls	.L61
 842:.\Generated_Source\PSoC5/Bootloader_1.c ****             {
 843:.\Generated_Source\PSoC5/Bootloader_1.c ****                 ackCode = Bootloader_1_ERR_LENGTH;
 832              		.loc 1 843 0
 833 00f4 0323     		movs	r3, #3
 834 00f6 87F88D32 		strb	r3, [r7, #653]
 835 00fa 1DE0     		b	.L60
 836              	.L61:
 844:.\Generated_Source\PSoC5/Bootloader_1.c ****             }
 845:.\Generated_Source\PSoC5/Bootloader_1.c ****             else if(packetBuffer[Bootloader_1_EOP_ADDR(pktSize)] != Bootloader_1_EOP)
 837              		.loc 1 845 0
 838 00fc B7F88A32 		ldrh	r3, [r7, #650]
 839 0100 0633     		adds	r3, r3, #6
 840 0102 07F59E72 		add	r2, r7, #316
 841 0106 D35C     		ldrb	r3, [r2, r3]	@ zero_extendqisi2
 842 0108 172B     		cmp	r3, #23
 843 010a 03D0     		beq	.L62
 846:.\Generated_Source\PSoC5/Bootloader_1.c ****             {
 847:.\Generated_Source\PSoC5/Bootloader_1.c ****                 ackCode = Bootloader_1_ERR_DATA;
 844              		.loc 1 847 0
 845 010c 0423     		movs	r3, #4
 846 010e 87F88D32 		strb	r3, [r7, #653]
 847 0112 11E0     		b	.L60
 848              	.L62:
 848:.\Generated_Source\PSoC5/Bootloader_1.c ****             }
ARM GAS  C:\Users\SISTEM~1\AppData\Local\Temp\ccZs07Hi.s 			page 31


 849:.\Generated_Source\PSoC5/Bootloader_1.c ****             else if(pktChecksum != Bootloader_1_CalcPacketChecksum(packetBuffer,
 849              		.loc 1 849 0
 850 0114 B7F88A32 		ldrh	r3, [r7, #650]	@ movhi
 851 0118 0433     		adds	r3, r3, #4
 852 011a 9BB2     		uxth	r3, r3
 853 011c 07F59E72 		add	r2, r7, #316
 854 0120 1046     		mov	r0, r2
 855 0122 1946     		mov	r1, r3
 856 0124 FFF7FEFF 		bl	Bootloader_1_CalcPacketChecksum
 857 0128 0346     		mov	r3, r0
 858 012a B7F87622 		ldrh	r2, [r7, #630]
 859 012e 9A42     		cmp	r2, r3
 860 0130 02D0     		beq	.L60
 850:.\Generated_Source\PSoC5/Bootloader_1.c ****                                                                         pktSize + Bootloader_1_DATA
 851:.\Generated_Source\PSoC5/Bootloader_1.c ****             {
 852:.\Generated_Source\PSoC5/Bootloader_1.c ****                 ackCode = Bootloader_1_ERR_CHECKSUM;
 861              		.loc 1 852 0
 862 0132 0823     		movs	r3, #8
 863 0134 87F88D32 		strb	r3, [r7, #653]
 864              	.L60:
 853:.\Generated_Source\PSoC5/Bootloader_1.c ****             }
 854:.\Generated_Source\PSoC5/Bootloader_1.c ****             else
 855:.\Generated_Source\PSoC5/Bootloader_1.c ****             {
 856:.\Generated_Source\PSoC5/Bootloader_1.c ****                 /* Empty section */
 857:.\Generated_Source\PSoC5/Bootloader_1.c ****             }
 858:.\Generated_Source\PSoC5/Bootloader_1.c ****         }
 859:.\Generated_Source\PSoC5/Bootloader_1.c **** 
 860:.\Generated_Source\PSoC5/Bootloader_1.c ****         rspSize = 0u;
 865              		.loc 1 860 0
 866 0138 0023     		movs	r3, #0
 867 013a A7F88E32 		strh	r3, [r7, #654]	@ movhi
 861:.\Generated_Source\PSoC5/Bootloader_1.c ****         if(ackCode == CYRET_SUCCESS)
 868              		.loc 1 861 0
 869 013e 97F88D32 		ldrb	r3, [r7, #653]	@ zero_extendqisi2
 870 0142 002B     		cmp	r3, #0
 871 0144 40F04C82 		bne	.L63
 872              	.LBB4:
 862:.\Generated_Source\PSoC5/Bootloader_1.c ****         {
 863:.\Generated_Source\PSoC5/Bootloader_1.c ****             uint8 CYDATA btldrData = packetBuffer[Bootloader_1_DATA_ADDR];
 873              		.loc 1 863 0
 874 0148 07F59E73 		add	r3, r7, #316
 875 014c 1B79     		ldrb	r3, [r3, #4]
 876 014e 87F87532 		strb	r3, [r7, #629]
 864:.\Generated_Source\PSoC5/Bootloader_1.c **** 
 865:.\Generated_Source\PSoC5/Bootloader_1.c ****             ackCode = Bootloader_1_ERR_DATA;
 877              		.loc 1 865 0
 878 0152 0423     		movs	r3, #4
 879 0154 87F88D32 		strb	r3, [r7, #653]
 866:.\Generated_Source\PSoC5/Bootloader_1.c ****             switch(packetBuffer[Bootloader_1_CMD_ADDR])
 880              		.loc 1 866 0
 881 0158 07F59E73 		add	r3, r7, #316
 882 015c 5B78     		ldrb	r3, [r3, #1]	@ zero_extendqisi2
 883 015e 313B     		subs	r3, r3, #49
 884 0160 0A2B     		cmp	r3, #10
 885 0162 00F23982 		bhi	.L64
 886 0166 01A2     		adr	r2, .L66
 887 0168 52F823F0 		ldr	pc, [r2, r3, lsl #2]
ARM GAS  C:\Users\SISTEM~1\AppData\Local\Temp\ccZs07Hi.s 			page 32


 888              		.p2align 2
 889              	.L66:
 890 016c 99010000 		.word	.L65+1
 891 0170 D3010000 		.word	.L67+1
 892 0174 D9050000 		.word	.L64+1
 893 0178 6D020000 		.word	.L68+1
 894 017c DF030000 		.word	.L69+1
 895 0180 D9050000 		.word	.L64+1
 896 0184 F1030000 		.word	.L70+1
 897 0188 47040000 		.word	.L71+1
 898 018c 6D020000 		.word	.L68+1
 899 0190 8B040000 		.word	.L72+1
 900 0194 C1050000 		.word	.L73+1
 901              		.p2align 1
 902              	.L65:
 867:.\Generated_Source\PSoC5/Bootloader_1.c ****             {
 868:.\Generated_Source\PSoC5/Bootloader_1.c **** 
 869:.\Generated_Source\PSoC5/Bootloader_1.c **** 
 870:.\Generated_Source\PSoC5/Bootloader_1.c ****             /***************************************************************************
 871:.\Generated_Source\PSoC5/Bootloader_1.c ****             *   Get metadata
 872:.\Generated_Source\PSoC5/Bootloader_1.c ****             ***************************************************************************/
 873:.\Generated_Source\PSoC5/Bootloader_1.c ****             #if(0u != Bootloader_1_CMD_GET_METADATA)
 874:.\Generated_Source\PSoC5/Bootloader_1.c **** 
 875:.\Generated_Source\PSoC5/Bootloader_1.c ****                 case Bootloader_1_COMMAND_GET_METADATA:
 876:.\Generated_Source\PSoC5/Bootloader_1.c **** 
 877:.\Generated_Source\PSoC5/Bootloader_1.c ****                     if((Bootloader_1_COMMUNICATION_STATE_ACTIVE == communicationState) && (pktSize 
 878:.\Generated_Source\PSoC5/Bootloader_1.c ****                     {
 879:.\Generated_Source\PSoC5/Bootloader_1.c ****                         if (btldrData >= Bootloader_1_MAX_NUM_OF_BTLDB)
 880:.\Generated_Source\PSoC5/Bootloader_1.c ****                         {
 881:.\Generated_Source\PSoC5/Bootloader_1.c ****                             ackCode = Bootloader_1_ERR_APP;
 882:.\Generated_Source\PSoC5/Bootloader_1.c ****                         }
 883:.\Generated_Source\PSoC5/Bootloader_1.c ****                         else if(CYRET_SUCCESS == Bootloader_1_ValidateBootloadable(btldrData))
 884:.\Generated_Source\PSoC5/Bootloader_1.c ****                         {
 885:.\Generated_Source\PSoC5/Bootloader_1.c ****                             #if(CY_PSOC3)
 886:.\Generated_Source\PSoC5/Bootloader_1.c ****                                 (void) memcpy(&packetBuffer[Bootloader_1_DATA_ADDR],
 887:.\Generated_Source\PSoC5/Bootloader_1.c ****                                             ((uint8  CYCODE *) (Bootloader_1_META_BASE(btldrData)))
 888:.\Generated_Source\PSoC5/Bootloader_1.c ****                                             Bootloader_1_GET_METADATA_RESPONSE_SIZE);
 889:.\Generated_Source\PSoC5/Bootloader_1.c ****                             #else
 890:.\Generated_Source\PSoC5/Bootloader_1.c ****                                 (void) memcpy(&packetBuffer[Bootloader_1_DATA_ADDR],
 891:.\Generated_Source\PSoC5/Bootloader_1.c ****                                             (uint8 *) Bootloader_1_META_BASE(btldrData),
 892:.\Generated_Source\PSoC5/Bootloader_1.c ****                                             Bootloader_1_GET_METADATA_RESPONSE_SIZE);
 893:.\Generated_Source\PSoC5/Bootloader_1.c ****                             #endif  /* (CY_PSOC3) */
 894:.\Generated_Source\PSoC5/Bootloader_1.c **** 
 895:.\Generated_Source\PSoC5/Bootloader_1.c ****                             rspSize = 56u;
 896:.\Generated_Source\PSoC5/Bootloader_1.c ****                             ackCode = CYRET_SUCCESS;
 897:.\Generated_Source\PSoC5/Bootloader_1.c ****                         }
 898:.\Generated_Source\PSoC5/Bootloader_1.c ****                         else
 899:.\Generated_Source\PSoC5/Bootloader_1.c ****                         {
 900:.\Generated_Source\PSoC5/Bootloader_1.c ****                             ackCode = Bootloader_1_ERR_APP;
 901:.\Generated_Source\PSoC5/Bootloader_1.c ****                         }
 902:.\Generated_Source\PSoC5/Bootloader_1.c ****                     }
 903:.\Generated_Source\PSoC5/Bootloader_1.c ****                     break;
 904:.\Generated_Source\PSoC5/Bootloader_1.c **** 
 905:.\Generated_Source\PSoC5/Bootloader_1.c ****             #endif  /* (0u != Bootloader_1_CMD_GET_METADATA) */
 906:.\Generated_Source\PSoC5/Bootloader_1.c **** 
 907:.\Generated_Source\PSoC5/Bootloader_1.c **** 
 908:.\Generated_Source\PSoC5/Bootloader_1.c ****             /***************************************************************************
ARM GAS  C:\Users\SISTEM~1\AppData\Local\Temp\ccZs07Hi.s 			page 33


 909:.\Generated_Source\PSoC5/Bootloader_1.c ****             *   Verify checksum
 910:.\Generated_Source\PSoC5/Bootloader_1.c ****             ***************************************************************************/
 911:.\Generated_Source\PSoC5/Bootloader_1.c ****             case Bootloader_1_COMMAND_CHECKSUM:
 912:.\Generated_Source\PSoC5/Bootloader_1.c **** 
 913:.\Generated_Source\PSoC5/Bootloader_1.c ****                 if((Bootloader_1_COMMUNICATION_STATE_ACTIVE == communicationState) && (pktSize == 0
 903              		.loc 1 913 0
 904 0198 97F88632 		ldrb	r3, [r7, #646]	@ zero_extendqisi2
 905 019c 012B     		cmp	r3, #1
 906 019e 17D1     		bne	.L74
 907              		.loc 1 913 0 is_stmt 0 discriminator 1
 908 01a0 B7F88A32 		ldrh	r3, [r7, #650]
 909 01a4 002B     		cmp	r3, #0
 910 01a6 13D1     		bne	.L74
 914:.\Generated_Source\PSoC5/Bootloader_1.c ****                 {
 915:.\Generated_Source\PSoC5/Bootloader_1.c ****                     packetBuffer[Bootloader_1_DATA_ADDR] =
 916:.\Generated_Source\PSoC5/Bootloader_1.c ****                             (uint8)(Bootloader_1_ValidateBootloadable(Bootloader_1_activeApp) == CY
 911              		.loc 1 916 0 is_stmt 1
 912 01a8 0020     		movs	r0, #0
 913 01aa FFF7FEFF 		bl	Bootloader_1_ValidateBootloadable
 914 01ae 0346     		mov	r3, r0
 915 01b0 002B     		cmp	r3, #0
 916 01b2 14BF     		ite	ne
 917 01b4 0023     		movne	r3, #0
 918 01b6 0123     		moveq	r3, #1
 919 01b8 DBB2     		uxtb	r3, r3
 920 01ba 1A46     		mov	r2, r3
 915:.\Generated_Source\PSoC5/Bootloader_1.c ****                     packetBuffer[Bootloader_1_DATA_ADDR] =
 921              		.loc 1 915 0
 922 01bc 07F59E73 		add	r3, r7, #316
 923 01c0 1A71     		strb	r2, [r3, #4]
 917:.\Generated_Source\PSoC5/Bootloader_1.c **** 
 918:.\Generated_Source\PSoC5/Bootloader_1.c ****                     rspSize = 1u;
 924              		.loc 1 918 0
 925 01c2 0123     		movs	r3, #1
 926 01c4 A7F88E32 		strh	r3, [r7, #654]	@ movhi
 919:.\Generated_Source\PSoC5/Bootloader_1.c ****                     ackCode = CYRET_SUCCESS;
 927              		.loc 1 919 0
 928 01c8 0023     		movs	r3, #0
 929 01ca 87F88D32 		strb	r3, [r7, #653]
 920:.\Generated_Source\PSoC5/Bootloader_1.c ****                 }
 921:.\Generated_Source\PSoC5/Bootloader_1.c ****                 break;
 930              		.loc 1 921 0
 931 01ce 07E2     		b	.L63
 932              	.L74:
 933 01d0 06E2     		b	.L63
 934              	.L67:
 922:.\Generated_Source\PSoC5/Bootloader_1.c **** 
 923:.\Generated_Source\PSoC5/Bootloader_1.c **** 
 924:.\Generated_Source\PSoC5/Bootloader_1.c ****             /***************************************************************************
 925:.\Generated_Source\PSoC5/Bootloader_1.c ****             *   Get flash size
 926:.\Generated_Source\PSoC5/Bootloader_1.c ****             ***************************************************************************/
 927:.\Generated_Source\PSoC5/Bootloader_1.c **** 
 928:.\Generated_Source\PSoC5/Bootloader_1.c ****             /* Replace Bootloader_1_NUM_OF_FLASH_ARRAYS with CY_FLASH_NUMBER_ARRAYS */
 929:.\Generated_Source\PSoC5/Bootloader_1.c **** 
 930:.\Generated_Source\PSoC5/Bootloader_1.c **** 
 931:.\Generated_Source\PSoC5/Bootloader_1.c ****             #if(0u != Bootloader_1_CMD_GET_FLASH_SIZE_AVAIL)
 932:.\Generated_Source\PSoC5/Bootloader_1.c **** 
ARM GAS  C:\Users\SISTEM~1\AppData\Local\Temp\ccZs07Hi.s 			page 34


 933:.\Generated_Source\PSoC5/Bootloader_1.c ****                 case Bootloader_1_COMMAND_REPORT_SIZE:
 934:.\Generated_Source\PSoC5/Bootloader_1.c **** 
 935:.\Generated_Source\PSoC5/Bootloader_1.c ****                     /* btldrData - holds flash array ID sent by host */
 936:.\Generated_Source\PSoC5/Bootloader_1.c **** 
 937:.\Generated_Source\PSoC5/Bootloader_1.c ****                     if((Bootloader_1_COMMUNICATION_STATE_ACTIVE == communicationState) && (pktSize 
 935              		.loc 1 937 0
 936 01d2 97F88632 		ldrb	r3, [r7, #646]	@ zero_extendqisi2
 937 01d6 012B     		cmp	r3, #1
 938 01d8 47D1     		bne	.L75
 939              		.loc 1 937 0 is_stmt 0 discriminator 1
 940 01da B7F88A32 		ldrh	r3, [r7, #650]
 941 01de 012B     		cmp	r3, #1
 942 01e0 43D1     		bne	.L75
 938:.\Generated_Source\PSoC5/Bootloader_1.c ****                     {
 939:.\Generated_Source\PSoC5/Bootloader_1.c ****                         if(btldrData < CY_FLASH_NUMBER_ARRAYS)
 943              		.loc 1 939 0 is_stmt 1
 944 01e2 97F87532 		ldrb	r3, [r7, #629]	@ zero_extendqisi2
 945 01e6 032B     		cmp	r3, #3
 946 01e8 3FD8     		bhi	.L75
 947              	.LBB5:
 940:.\Generated_Source\PSoC5/Bootloader_1.c ****                         {
 941:.\Generated_Source\PSoC5/Bootloader_1.c ****                             uint16 CYDATA startRow;
 942:.\Generated_Source\PSoC5/Bootloader_1.c ****                             uint8  CYDATA ArrayIdBtlderEnds;
 943:.\Generated_Source\PSoC5/Bootloader_1.c **** 
 944:.\Generated_Source\PSoC5/Bootloader_1.c **** 
 945:.\Generated_Source\PSoC5/Bootloader_1.c ****                             /**********************************************************************
 946:.\Generated_Source\PSoC5/Bootloader_1.c ****                             * - For the flash array where bootloader application ends, return the f
 947:.\Generated_Source\PSoC5/Bootloader_1.c ****                             *   full row after the bootloader application.
 948:.\Generated_Source\PSoC5/Bootloader_1.c ****                             *
 949:.\Generated_Source\PSoC5/Bootloader_1.c ****                             * - For the fully occupied flash array, the number of rows in array is 
 950:.\Generated_Source\PSoC5/Bootloader_1.c ****                             *   As there is no space for the bootloadable application in this array
 951:.\Generated_Source\PSoC5/Bootloader_1.c ****                             *
 952:.\Generated_Source\PSoC5/Bootloader_1.c ****                             * - For the arrays next to the occupied array, zero is returned.
 953:.\Generated_Source\PSoC5/Bootloader_1.c ****                             *   The bootloadable application can written from the their beginning.
 954:.\Generated_Source\PSoC5/Bootloader_1.c ****                             *
 955:.\Generated_Source\PSoC5/Bootloader_1.c ****                             ***********************************************************************
 956:.\Generated_Source\PSoC5/Bootloader_1.c ****                             ArrayIdBtlderEnds = (uint8)  (*Bootloader_1_SizeBytesAccess / CY_FLASH_
 948              		.loc 1 956 0
 949 01ea D14B     		ldr	r3, .L104
 950 01ec 1B68     		ldr	r3, [r3]
 951 01ee 1B68     		ldr	r3, [r3]
 952 01f0 1B0C     		lsrs	r3, r3, #16
 953 01f2 87F87432 		strb	r3, [r7, #628]
 957:.\Generated_Source\PSoC5/Bootloader_1.c **** 
 958:.\Generated_Source\PSoC5/Bootloader_1.c ****                             if (btldrData == ArrayIdBtlderEnds)
 954              		.loc 1 958 0
 955 01f6 97F87522 		ldrb	r2, [r7, #629]	@ zero_extendqisi2
 956 01fa 97F87432 		ldrb	r3, [r7, #628]	@ zero_extendqisi2
 957 01fe 9A42     		cmp	r2, r3
 958 0200 08D1     		bne	.L76
 959:.\Generated_Source\PSoC5/Bootloader_1.c ****                             {
 960:.\Generated_Source\PSoC5/Bootloader_1.c ****                                 startRow = (uint16) (*Bootloader_1_SizeBytesAccess / CY_FLASH_SIZEO
 959              		.loc 1 960 0
 960 0202 CB4B     		ldr	r3, .L104
 961 0204 1B68     		ldr	r3, [r3]
 962 0206 1B68     		ldr	r3, [r3]
 963 0208 1B0A     		lsrs	r3, r3, #8
ARM GAS  C:\Users\SISTEM~1\AppData\Local\Temp\ccZs07Hi.s 			page 35


 964 020a 9BB2     		uxth	r3, r3
 965 020c DBB2     		uxtb	r3, r3
 966 020e A7F88432 		strh	r3, [r7, #644]	@ movhi
 967 0212 0DE0     		b	.L77
 968              	.L76:
 961:.\Generated_Source\PSoC5/Bootloader_1.c ****                                             Bootloader_1_NUMBER_OF_ROWS_IN_ARRAY;
 962:.\Generated_Source\PSoC5/Bootloader_1.c ****                             }
 963:.\Generated_Source\PSoC5/Bootloader_1.c ****                             else if (btldrData > ArrayIdBtlderEnds)
 969              		.loc 1 963 0
 970 0214 97F87522 		ldrb	r2, [r7, #629]	@ zero_extendqisi2
 971 0218 97F87432 		ldrb	r3, [r7, #628]	@ zero_extendqisi2
 972 021c 9A42     		cmp	r2, r3
 973 021e 03D9     		bls	.L78
 964:.\Generated_Source\PSoC5/Bootloader_1.c ****                             {
 965:.\Generated_Source\PSoC5/Bootloader_1.c ****                                 startRow = Bootloader_1_FIRST_ROW_IN_ARRAY;
 974              		.loc 1 965 0
 975 0220 0023     		movs	r3, #0
 976 0222 A7F88432 		strh	r3, [r7, #644]	@ movhi
 977 0226 03E0     		b	.L77
 978              	.L78:
 966:.\Generated_Source\PSoC5/Bootloader_1.c ****                             }
 967:.\Generated_Source\PSoC5/Bootloader_1.c ****                             else /* (btldrData < ArrayIdBtlderEnds) */
 968:.\Generated_Source\PSoC5/Bootloader_1.c ****                             {
 969:.\Generated_Source\PSoC5/Bootloader_1.c ****                                 startRow = Bootloader_1_NUMBER_OF_ROWS_IN_ARRAY;
 979              		.loc 1 969 0
 980 0228 4FF48073 		mov	r3, #256
 981 022c A7F88432 		strh	r3, [r7, #644]	@ movhi
 982              	.L77:
 970:.\Generated_Source\PSoC5/Bootloader_1.c ****                             }
 971:.\Generated_Source\PSoC5/Bootloader_1.c **** 
 972:.\Generated_Source\PSoC5/Bootloader_1.c ****                             packetBuffer[Bootloader_1_DATA_ADDR]      = LO8(startRow);
 983              		.loc 1 972 0
 984 0230 B7F88432 		ldrh	r3, [r7, #644]	@ movhi
 985 0234 DAB2     		uxtb	r2, r3
 986 0236 07F59E73 		add	r3, r7, #316
 987 023a 1A71     		strb	r2, [r3, #4]
 973:.\Generated_Source\PSoC5/Bootloader_1.c ****                             packetBuffer[Bootloader_1_DATA_ADDR + 1u] = HI8(startRow);
 988              		.loc 1 973 0
 989 023c B7F88432 		ldrh	r3, [r7, #644]
 990 0240 1B0A     		lsrs	r3, r3, #8
 991 0242 9BB2     		uxth	r3, r3
 992 0244 DAB2     		uxtb	r2, r3
 993 0246 07F59E73 		add	r3, r7, #316
 994 024a 5A71     		strb	r2, [r3, #5]
 974:.\Generated_Source\PSoC5/Bootloader_1.c **** 
 975:.\Generated_Source\PSoC5/Bootloader_1.c ****                             packetBuffer[Bootloader_1_DATA_ADDR + 2u] =
 995              		.loc 1 975 0
 996 024c 07F59E73 		add	r3, r7, #316
 997 0250 FF22     		movs	r2, #255
 998 0252 9A71     		strb	r2, [r3, #6]
 976:.\Generated_Source\PSoC5/Bootloader_1.c ****                                         LO8(Bootloader_1_NUMBER_OF_ROWS_IN_ARRAY - 1u);
 977:.\Generated_Source\PSoC5/Bootloader_1.c **** 
 978:.\Generated_Source\PSoC5/Bootloader_1.c ****                             packetBuffer[Bootloader_1_DATA_ADDR + 3u] =
 999              		.loc 1 978 0
 1000 0254 07F59E73 		add	r3, r7, #316
 1001 0258 0022     		movs	r2, #0
 1002 025a DA71     		strb	r2, [r3, #7]
ARM GAS  C:\Users\SISTEM~1\AppData\Local\Temp\ccZs07Hi.s 			page 36


 979:.\Generated_Source\PSoC5/Bootloader_1.c ****                                         HI8(Bootloader_1_NUMBER_OF_ROWS_IN_ARRAY - 1u);
 980:.\Generated_Source\PSoC5/Bootloader_1.c **** 
 981:.\Generated_Source\PSoC5/Bootloader_1.c ****                             rspSize = 4u;
 1003              		.loc 1 981 0
 1004 025c 0423     		movs	r3, #4
 1005 025e A7F88E32 		strh	r3, [r7, #654]	@ movhi
 982:.\Generated_Source\PSoC5/Bootloader_1.c ****                             ackCode = CYRET_SUCCESS;
 1006              		.loc 1 982 0
 1007 0262 0023     		movs	r3, #0
 1008 0264 87F88D32 		strb	r3, [r7, #653]
 1009              	.LBE5:
 983:.\Generated_Source\PSoC5/Bootloader_1.c ****                         }
 984:.\Generated_Source\PSoC5/Bootloader_1.c **** 
 985:.\Generated_Source\PSoC5/Bootloader_1.c ****                     }
 986:.\Generated_Source\PSoC5/Bootloader_1.c ****                     break;
 1010              		.loc 1 986 0
 1011 0268 BAE1     		b	.L63
 1012              	.L75:
 1013 026a B9E1     		b	.L63
 1014              	.L68:
 987:.\Generated_Source\PSoC5/Bootloader_1.c **** 
 988:.\Generated_Source\PSoC5/Bootloader_1.c ****             #endif  /* (0u != Bootloader_1_CMD_GET_FLASH_SIZE_AVAIL) */
 989:.\Generated_Source\PSoC5/Bootloader_1.c **** 
 990:.\Generated_Source\PSoC5/Bootloader_1.c **** 
 991:.\Generated_Source\PSoC5/Bootloader_1.c ****             /***************************************************************************
 992:.\Generated_Source\PSoC5/Bootloader_1.c ****             *   Get application status
 993:.\Generated_Source\PSoC5/Bootloader_1.c ****             ***************************************************************************/
 994:.\Generated_Source\PSoC5/Bootloader_1.c ****             #if(0u != Bootloader_1_DUAL_APP_BOOTLOADER)
 995:.\Generated_Source\PSoC5/Bootloader_1.c **** 
 996:.\Generated_Source\PSoC5/Bootloader_1.c ****                 #if(0u != Bootloader_1_CMD_GET_APP_STATUS_AVAIL)
 997:.\Generated_Source\PSoC5/Bootloader_1.c **** 
 998:.\Generated_Source\PSoC5/Bootloader_1.c ****                     case Bootloader_1_COMMAND_APP_STATUS:
 999:.\Generated_Source\PSoC5/Bootloader_1.c **** 
1000:.\Generated_Source\PSoC5/Bootloader_1.c ****                         if((Bootloader_1_COMMUNICATION_STATE_ACTIVE == communicationState) && (pktS
1001:.\Generated_Source\PSoC5/Bootloader_1.c ****                         {
1002:.\Generated_Source\PSoC5/Bootloader_1.c **** 
1003:.\Generated_Source\PSoC5/Bootloader_1.c ****                             packetBuffer[Bootloader_1_DATA_ADDR] =
1004:.\Generated_Source\PSoC5/Bootloader_1.c ****                                 (uint8)Bootloader_1_ValidateBootloadable(btldrData);
1005:.\Generated_Source\PSoC5/Bootloader_1.c **** 
1006:.\Generated_Source\PSoC5/Bootloader_1.c ****                             packetBuffer[Bootloader_1_DATA_ADDR + 1u] =
1007:.\Generated_Source\PSoC5/Bootloader_1.c ****                                 (uint8) Bootloader_1_GetMetadata(Bootloader_1_GET_BTLDB_ACTIVE, btl
1008:.\Generated_Source\PSoC5/Bootloader_1.c **** 
1009:.\Generated_Source\PSoC5/Bootloader_1.c ****                             rspSize = 2u;
1010:.\Generated_Source\PSoC5/Bootloader_1.c ****                             ackCode = CYRET_SUCCESS;
1011:.\Generated_Source\PSoC5/Bootloader_1.c ****                         }
1012:.\Generated_Source\PSoC5/Bootloader_1.c ****                         break;
1013:.\Generated_Source\PSoC5/Bootloader_1.c **** 
1014:.\Generated_Source\PSoC5/Bootloader_1.c ****                 #endif  /* (0u != Bootloader_1_CMD_GET_APP_STATUS_AVAIL) */
1015:.\Generated_Source\PSoC5/Bootloader_1.c **** 
1016:.\Generated_Source\PSoC5/Bootloader_1.c ****             #endif  /* (0u != Bootloader_1_DUAL_APP_BOOTLOADER) */
1017:.\Generated_Source\PSoC5/Bootloader_1.c **** 
1018:.\Generated_Source\PSoC5/Bootloader_1.c **** 
1019:.\Generated_Source\PSoC5/Bootloader_1.c ****             /***************************************************************************
1020:.\Generated_Source\PSoC5/Bootloader_1.c ****             *   Program / Erase row
1021:.\Generated_Source\PSoC5/Bootloader_1.c ****             ***************************************************************************/
1022:.\Generated_Source\PSoC5/Bootloader_1.c ****             case Bootloader_1_COMMAND_PROGRAM:
1023:.\Generated_Source\PSoC5/Bootloader_1.c **** 
ARM GAS  C:\Users\SISTEM~1\AppData\Local\Temp\ccZs07Hi.s 			page 37


1024:.\Generated_Source\PSoC5/Bootloader_1.c ****             /* The btldrData variable holds Flash Array ID */
1025:.\Generated_Source\PSoC5/Bootloader_1.c **** 
1026:.\Generated_Source\PSoC5/Bootloader_1.c ****         #if (0u != Bootloader_1_CMD_ERASE_ROW_AVAIL)
1027:.\Generated_Source\PSoC5/Bootloader_1.c **** 
1028:.\Generated_Source\PSoC5/Bootloader_1.c ****             case Bootloader_1_COMMAND_ERASE:
1029:.\Generated_Source\PSoC5/Bootloader_1.c ****                 if (Bootloader_1_COMMAND_ERASE == packetBuffer[Bootloader_1_CMD_ADDR])
 1015              		.loc 1 1029 0
 1016 026c 07F59E73 		add	r3, r7, #316
 1017 0270 5B78     		ldrb	r3, [r3, #1]	@ zero_extendqisi2
 1018 0272 342B     		cmp	r3, #52
 1019 0274 23D1     		bne	.L79
1030:.\Generated_Source\PSoC5/Bootloader_1.c ****                 {
1031:.\Generated_Source\PSoC5/Bootloader_1.c ****                     if ((Bootloader_1_COMMUNICATION_STATE_ACTIVE == communicationState) && (pktSize
 1020              		.loc 1 1031 0
 1021 0276 97F88632 		ldrb	r3, [r7, #646]	@ zero_extendqisi2
 1022 027a 012B     		cmp	r3, #1
 1023 027c 40F0B081 		bne	.L63
 1024              		.loc 1 1031 0 is_stmt 0 discriminator 1
 1025 0280 B7F88A32 		ldrh	r3, [r7, #650]
 1026 0284 032B     		cmp	r3, #3
 1027 0286 40F0AB81 		bne	.L63
1032:.\Generated_Source\PSoC5/Bootloader_1.c ****                     {
1033:.\Generated_Source\PSoC5/Bootloader_1.c ****                         #if(!CY_PSOC4)
1034:.\Generated_Source\PSoC5/Bootloader_1.c ****                             if((btldrData >= Bootloader_1_FIRST_EE_ARRAYID) &&
 1028              		.loc 1 1034 0 is_stmt 1
 1029 028a 97F87532 		ldrb	r3, [r7, #629]	@ zero_extendqisi2
 1030 028e 3F2B     		cmp	r3, #63
 1031 0290 08D9     		bls	.L80
1035:.\Generated_Source\PSoC5/Bootloader_1.c ****                                (btldrData <= Bootloader_1_LAST_EE_ARRAYID))
 1032              		.loc 1 1035 0 discriminator 1
 1033 0292 97F87532 		ldrb	r3, [r7, #629]	@ zero_extendqisi2
1034:.\Generated_Source\PSoC5/Bootloader_1.c ****                             if((btldrData >= Bootloader_1_FIRST_EE_ARRAYID) &&
 1034              		.loc 1 1034 0 discriminator 1
 1035 0296 5BB2     		sxtb	r3, r3
 1036 0298 002B     		cmp	r3, #0
 1037 029a 03DB     		blt	.L80
1036:.\Generated_Source\PSoC5/Bootloader_1.c ****                             {
1037:.\Generated_Source\PSoC5/Bootloader_1.c ****                                 /* Size of EEPROM row */
1038:.\Generated_Source\PSoC5/Bootloader_1.c ****                                 dataOffset = CY_EEPROM_SIZEOF_ROW;
 1038              		.loc 1 1038 0
 1039 029c 1023     		movs	r3, #16
 1040 029e A7F88832 		strh	r3, [r7, #648]	@ movhi
 1041 02a2 03E0     		b	.L81
 1042              	.L80:
1039:.\Generated_Source\PSoC5/Bootloader_1.c ****                             }
1040:.\Generated_Source\PSoC5/Bootloader_1.c ****                             else
1041:.\Generated_Source\PSoC5/Bootloader_1.c ****                             {
1042:.\Generated_Source\PSoC5/Bootloader_1.c ****                                 /* Size of FLASH row (depends on ECC configuration) */
1043:.\Generated_Source\PSoC5/Bootloader_1.c ****                                 dataOffset = Bootloader_1_FROW_SIZE;
 1043              		.loc 1 1043 0
 1044 02a4 4FF49073 		mov	r3, #288
 1045 02a8 A7F88832 		strh	r3, [r7, #648]	@ movhi
 1046              	.L81:
1044:.\Generated_Source\PSoC5/Bootloader_1.c ****                             }
1045:.\Generated_Source\PSoC5/Bootloader_1.c ****                         #else
1046:.\Generated_Source\PSoC5/Bootloader_1.c ****                             /* Size of FLASH row (no ECC available) */
1047:.\Generated_Source\PSoC5/Bootloader_1.c ****                             dataOffset = Bootloader_1_FROW_SIZE;
ARM GAS  C:\Users\SISTEM~1\AppData\Local\Temp\ccZs07Hi.s 			page 38


1048:.\Generated_Source\PSoC5/Bootloader_1.c ****                         #endif  /* (!CY_PSOC4) */
1049:.\Generated_Source\PSoC5/Bootloader_1.c **** 
1050:.\Generated_Source\PSoC5/Bootloader_1.c ****                         #if(CY_PSOC3)
1051:.\Generated_Source\PSoC5/Bootloader_1.c ****                             (void) memset(dataBuffer, (char8) 0, (int16) dataOffset);
1052:.\Generated_Source\PSoC5/Bootloader_1.c ****                         #else
1053:.\Generated_Source\PSoC5/Bootloader_1.c ****                             (void) memset(dataBuffer, 0, (uint32) dataOffset);
 1047              		.loc 1 1053 0
 1048 02ac B7F88832 		ldrh	r3, [r7, #648]
 1049 02b0 07F11002 		add	r2, r7, #16
 1050 02b4 1046     		mov	r0, r2
 1051 02b6 0021     		movs	r1, #0
 1052 02b8 1A46     		mov	r2, r3
 1053 02ba FFF7FEFF 		bl	memset
 1054              	.L79:
1054:.\Generated_Source\PSoC5/Bootloader_1.c ****                         #endif  /* (CY_PSOC3) */
1055:.\Generated_Source\PSoC5/Bootloader_1.c ****                     }
1056:.\Generated_Source\PSoC5/Bootloader_1.c ****                     else
1057:.\Generated_Source\PSoC5/Bootloader_1.c ****                     {
1058:.\Generated_Source\PSoC5/Bootloader_1.c ****                         break;
1059:.\Generated_Source\PSoC5/Bootloader_1.c ****                     }
1060:.\Generated_Source\PSoC5/Bootloader_1.c ****                 }
1061:.\Generated_Source\PSoC5/Bootloader_1.c **** 
1062:.\Generated_Source\PSoC5/Bootloader_1.c ****         #endif  /* (0u != Bootloader_1_CMD_ERASE_ROW_AVAIL) */
1063:.\Generated_Source\PSoC5/Bootloader_1.c **** 
1064:.\Generated_Source\PSoC5/Bootloader_1.c **** 
1065:.\Generated_Source\PSoC5/Bootloader_1.c ****                 if((Bootloader_1_COMMUNICATION_STATE_ACTIVE == communicationState) && (pktSize >= 3
 1055              		.loc 1 1065 0
 1056 02be 97F88632 		ldrb	r3, [r7, #646]	@ zero_extendqisi2
 1057 02c2 012B     		cmp	r3, #1
 1058 02c4 40F08A80 		bne	.L82
 1059              		.loc 1 1065 0 is_stmt 0 discriminator 1
 1060 02c8 B7F88A32 		ldrh	r3, [r7, #650]
 1061 02cc 022B     		cmp	r3, #2
 1062 02ce 40F28580 		bls	.L82
1066:.\Generated_Source\PSoC5/Bootloader_1.c ****                 {
1067:.\Generated_Source\PSoC5/Bootloader_1.c **** 
1068:.\Generated_Source\PSoC5/Bootloader_1.c ****                     /* The command may be sent along with the last block of data, to program the ro
1069:.\Generated_Source\PSoC5/Bootloader_1.c ****                     #if(CY_PSOC3)
1070:.\Generated_Source\PSoC5/Bootloader_1.c ****                         (void) memcpy(&dataBuffer[dataOffset],
1071:.\Generated_Source\PSoC5/Bootloader_1.c ****                                       &packetBuffer[Bootloader_1_DATA_ADDR + 3u],
1072:.\Generated_Source\PSoC5/Bootloader_1.c ****                                       (int16) pktSize - 3);
1073:.\Generated_Source\PSoC5/Bootloader_1.c ****                     #else
1074:.\Generated_Source\PSoC5/Bootloader_1.c ****                         (void) memcpy(&dataBuffer[dataOffset],
 1063              		.loc 1 1074 0 is_stmt 1
 1064 02d2 B7F88832 		ldrh	r3, [r7, #648]
 1065 02d6 07F11002 		add	r2, r7, #16
 1066 02da D118     		adds	r1, r2, r3
1075:.\Generated_Source\PSoC5/Bootloader_1.c ****                                       &packetBuffer[Bootloader_1_DATA_ADDR + 3u],
1076:.\Generated_Source\PSoC5/Bootloader_1.c ****                                       (uint32) pktSize - 3u);
 1067              		.loc 1 1076 0
 1068 02dc B7F88A32 		ldrh	r3, [r7, #650]
 1069 02e0 033B     		subs	r3, r3, #3
1074:.\Generated_Source\PSoC5/Bootloader_1.c ****                         (void) memcpy(&dataBuffer[dataOffset],
 1070              		.loc 1 1074 0
 1071 02e2 07F59E72 		add	r2, r7, #316
 1072 02e6 0732     		adds	r2, r2, #7
 1073 02e8 0846     		mov	r0, r1
ARM GAS  C:\Users\SISTEM~1\AppData\Local\Temp\ccZs07Hi.s 			page 39


 1074 02ea 1146     		mov	r1, r2
 1075 02ec 1A46     		mov	r2, r3
 1076 02ee FFF7FEFF 		bl	memcpy
1077:.\Generated_Source\PSoC5/Bootloader_1.c ****                     #endif  /* (CY_PSOC3) */
1078:.\Generated_Source\PSoC5/Bootloader_1.c **** 
1079:.\Generated_Source\PSoC5/Bootloader_1.c ****                     dataOffset += (pktSize - 3u);
 1077              		.loc 1 1079 0
 1078 02f2 B7F88822 		ldrh	r2, [r7, #648]	@ movhi
 1079 02f6 B7F88A32 		ldrh	r3, [r7, #650]	@ movhi
 1080 02fa 1344     		add	r3, r3, r2
 1081 02fc 9BB2     		uxth	r3, r3
 1082 02fe 033B     		subs	r3, r3, #3
 1083 0300 A7F88832 		strh	r3, [r7, #648]	@ movhi
1080:.\Generated_Source\PSoC5/Bootloader_1.c **** 
1081:.\Generated_Source\PSoC5/Bootloader_1.c ****                     #if(!CY_PSOC4)
1082:.\Generated_Source\PSoC5/Bootloader_1.c ****                         if((btldrData >= Bootloader_1_FIRST_EE_ARRAYID) &&
 1084              		.loc 1 1082 0
 1085 0304 97F87532 		ldrb	r3, [r7, #629]	@ zero_extendqisi2
 1086 0308 3F2B     		cmp	r3, #63
 1087 030a 0AD9     		bls	.L83
1083:.\Generated_Source\PSoC5/Bootloader_1.c ****                            (btldrData <= Bootloader_1_LAST_EE_ARRAYID))
 1088              		.loc 1 1083 0 discriminator 1
 1089 030c 97F87532 		ldrb	r3, [r7, #629]	@ zero_extendqisi2
1082:.\Generated_Source\PSoC5/Bootloader_1.c ****                         if((btldrData >= Bootloader_1_FIRST_EE_ARRAYID) &&
 1090              		.loc 1 1082 0 discriminator 1
 1091 0310 5BB2     		sxtb	r3, r3
 1092 0312 002B     		cmp	r3, #0
 1093 0314 05DB     		blt	.L83
1084:.\Generated_Source\PSoC5/Bootloader_1.c ****                         {
1085:.\Generated_Source\PSoC5/Bootloader_1.c **** 
1086:.\Generated_Source\PSoC5/Bootloader_1.c ****                             CyEEPROM_Start();
 1094              		.loc 1 1086 0
 1095 0316 FFF7FEFF 		bl	CyEEPROM_Start
1087:.\Generated_Source\PSoC5/Bootloader_1.c **** 
1088:.\Generated_Source\PSoC5/Bootloader_1.c ****                             /* Size of EEPROM row */
1089:.\Generated_Source\PSoC5/Bootloader_1.c ****                             pktSize = CY_EEPROM_SIZEOF_ROW;
 1096              		.loc 1 1089 0
 1097 031a 1023     		movs	r3, #16
 1098 031c A7F88A32 		strh	r3, [r7, #650]	@ movhi
 1099 0320 03E0     		b	.L84
 1100              	.L83:
1090:.\Generated_Source\PSoC5/Bootloader_1.c ****                         }
1091:.\Generated_Source\PSoC5/Bootloader_1.c ****                         else
1092:.\Generated_Source\PSoC5/Bootloader_1.c ****                         {
1093:.\Generated_Source\PSoC5/Bootloader_1.c ****                             /* Size of FLASH row (depends on ECC configuration) */
1094:.\Generated_Source\PSoC5/Bootloader_1.c ****                             pktSize = Bootloader_1_FROW_SIZE;
 1101              		.loc 1 1094 0
 1102 0322 4FF49073 		mov	r3, #288
 1103 0326 A7F88A32 		strh	r3, [r7, #650]	@ movhi
 1104              	.L84:
1095:.\Generated_Source\PSoC5/Bootloader_1.c ****                         }
1096:.\Generated_Source\PSoC5/Bootloader_1.c ****                     #else
1097:.\Generated_Source\PSoC5/Bootloader_1.c ****                         /* Size of FLASH row (no ECC available) */
1098:.\Generated_Source\PSoC5/Bootloader_1.c ****                         pktSize = Bootloader_1_FROW_SIZE;
1099:.\Generated_Source\PSoC5/Bootloader_1.c ****                     #endif  /* (!CY_PSOC4) */
1100:.\Generated_Source\PSoC5/Bootloader_1.c **** 
1101:.\Generated_Source\PSoC5/Bootloader_1.c **** 
ARM GAS  C:\Users\SISTEM~1\AppData\Local\Temp\ccZs07Hi.s 			page 40


1102:.\Generated_Source\PSoC5/Bootloader_1.c ****                     /* Check if we have all data to program */
1103:.\Generated_Source\PSoC5/Bootloader_1.c ****                     if(dataOffset == pktSize)
 1105              		.loc 1 1103 0
 1106 032a B7F88822 		ldrh	r2, [r7, #648]
 1107 032e B7F88A32 		ldrh	r3, [r7, #650]
 1108 0332 9A42     		cmp	r2, r3
 1109 0334 4BD1     		bne	.L85
 1110              	.LBB6:
1104:.\Generated_Source\PSoC5/Bootloader_1.c ****                     {
1105:.\Generated_Source\PSoC5/Bootloader_1.c ****                         uint16 row;
1106:.\Generated_Source\PSoC5/Bootloader_1.c ****                         uint16 firstRow;
1107:.\Generated_Source\PSoC5/Bootloader_1.c **** 
1108:.\Generated_Source\PSoC5/Bootloader_1.c ****                         /* Get FLASH/EEPROM row number inside of the array */
1109:.\Generated_Source\PSoC5/Bootloader_1.c ****                         dataOffset = ((uint16)((uint16)packetBuffer[Bootloader_1_DATA_ADDR + 2u] <<
 1111              		.loc 1 1109 0
 1112 0336 07F59E73 		add	r3, r7, #316
 1113 033a 9B79     		ldrb	r3, [r3, #6]	@ zero_extendqisi2
 1114 033c 1B02     		lsls	r3, r3, #8
 1115 033e 9AB2     		uxth	r2, r3
1110:.\Generated_Source\PSoC5/Bootloader_1.c ****                                               packetBuffer[Bootloader_1_DATA_ADDR + 1u];
 1116              		.loc 1 1110 0
 1117 0340 07F59E73 		add	r3, r7, #316
 1118 0344 5B79     		ldrb	r3, [r3, #5]	@ zero_extendqisi2
1109:.\Generated_Source\PSoC5/Bootloader_1.c ****                         dataOffset = ((uint16)((uint16)packetBuffer[Bootloader_1_DATA_ADDR + 2u] <<
 1119              		.loc 1 1109 0
 1120 0346 1343     		orrs	r3, r3, r2
 1121 0348 A7F88832 		strh	r3, [r7, #648]	@ movhi
1111:.\Generated_Source\PSoC5/Bootloader_1.c **** 
1112:.\Generated_Source\PSoC5/Bootloader_1.c **** 
1113:.\Generated_Source\PSoC5/Bootloader_1.c ****                         /* Metadata section resides in Flash (cannot be in EEPROM). */
1114:.\Generated_Source\PSoC5/Bootloader_1.c ****                         #if(!CY_PSOC4)
1115:.\Generated_Source\PSoC5/Bootloader_1.c ****                             if(btldrData <= Bootloader_1_LAST_FLASH_ARRAYID)
 1122              		.loc 1 1115 0
 1123 034c 97F87532 		ldrb	r3, [r7, #629]	@ zero_extendqisi2
 1124 0350 3F2B     		cmp	r3, #63
 1125 0352 27D8     		bhi	.L86
1116:.\Generated_Source\PSoC5/Bootloader_1.c ****                             {
1117:.\Generated_Source\PSoC5/Bootloader_1.c ****                         #endif  /* (!CY_PSOC4) */
1118:.\Generated_Source\PSoC5/Bootloader_1.c **** 
1119:.\Generated_Source\PSoC5/Bootloader_1.c **** 
1120:.\Generated_Source\PSoC5/Bootloader_1.c ****                         /* btldrData  - holds flash array Id sent by host */
1121:.\Generated_Source\PSoC5/Bootloader_1.c ****                         /* dataOffset - holds flash row Id sent by host   */
1122:.\Generated_Source\PSoC5/Bootloader_1.c ****                         row = (uint16)(btldrData * Bootloader_1_NUMBER_OF_ROWS_IN_ARRAY) + dataOffs
 1126              		.loc 1 1122 0
 1127 0354 97F87532 		ldrb	r3, [r7, #629]	@ zero_extendqisi2
 1128 0358 9BB2     		uxth	r3, r3
 1129 035a 1B02     		lsls	r3, r3, #8
 1130 035c 9AB2     		uxth	r2, r3
 1131 035e B7F88832 		ldrh	r3, [r7, #648]	@ movhi
 1132 0362 1344     		add	r3, r3, r2
 1133 0364 A7F87232 		strh	r3, [r7, #626]	@ movhi
1123:.\Generated_Source\PSoC5/Bootloader_1.c **** 
1124:.\Generated_Source\PSoC5/Bootloader_1.c **** 
1125:.\Generated_Source\PSoC5/Bootloader_1.c ****                         /**************************************************************************
1126:.\Generated_Source\PSoC5/Bootloader_1.c ****                         * Refuse to write to the row within range of the bootloader application
1127:.\Generated_Source\PSoC5/Bootloader_1.c ****                         ***************************************************************************
1128:.\Generated_Source\PSoC5/Bootloader_1.c **** 
ARM GAS  C:\Users\SISTEM~1\AppData\Local\Temp\ccZs07Hi.s 			page 41


1129:.\Generated_Source\PSoC5/Bootloader_1.c ****                         /* First empty flash row after bootloader application */
1130:.\Generated_Source\PSoC5/Bootloader_1.c ****                         firstRow = (uint16) (*Bootloader_1_SizeBytesAccess / CYDEV_FLS_ROW_SIZE);
 1134              		.loc 1 1130 0
 1135 0368 714B     		ldr	r3, .L104
 1136 036a 1B68     		ldr	r3, [r3]
 1137 036c 1B68     		ldr	r3, [r3]
 1138 036e 1B0A     		lsrs	r3, r3, #8
 1139 0370 A7F88232 		strh	r3, [r7, #642]	@ movhi
1131:.\Generated_Source\PSoC5/Bootloader_1.c ****                         if ((*Bootloader_1_SizeBytesAccess % CYDEV_FLS_ROW_SIZE) != 0u)
 1140              		.loc 1 1131 0
 1141 0374 6E4B     		ldr	r3, .L104
 1142 0376 1B68     		ldr	r3, [r3]
 1143 0378 1B68     		ldr	r3, [r3]
 1144 037a DBB2     		uxtb	r3, r3
 1145 037c 002B     		cmp	r3, #0
 1146 037e 04D0     		beq	.L87
1132:.\Generated_Source\PSoC5/Bootloader_1.c ****                         {
1133:.\Generated_Source\PSoC5/Bootloader_1.c ****                             firstRow++;
 1147              		.loc 1 1133 0
 1148 0380 B7F88232 		ldrh	r3, [r7, #642]
 1149 0384 0133     		adds	r3, r3, #1
 1150 0386 A7F88232 		strh	r3, [r7, #642]	@ movhi
 1151              	.L87:
1134:.\Generated_Source\PSoC5/Bootloader_1.c ****                         }
1135:.\Generated_Source\PSoC5/Bootloader_1.c **** 
1136:.\Generated_Source\PSoC5/Bootloader_1.c ****                         /* Check to see if the row to program will not corrupt the bootloader appli
1137:.\Generated_Source\PSoC5/Bootloader_1.c ****                         if(row < firstRow)
 1152              		.loc 1 1137 0
 1153 038a B7F87222 		ldrh	r2, [r7, #626]
 1154 038e B7F88232 		ldrh	r3, [r7, #642]
 1155 0392 9A42     		cmp	r2, r3
 1156 0394 06D2     		bcs	.L86
1138:.\Generated_Source\PSoC5/Bootloader_1.c ****                         {
1139:.\Generated_Source\PSoC5/Bootloader_1.c ****                             ackCode = Bootloader_1_ERR_ROW;
 1157              		.loc 1 1139 0
 1158 0396 0A23     		movs	r3, #10
 1159 0398 87F88D32 		strb	r3, [r7, #653]
1140:.\Generated_Source\PSoC5/Bootloader_1.c ****                             dataOffset = 0u;
 1160              		.loc 1 1140 0
 1161 039c 0023     		movs	r3, #0
 1162 039e A7F88832 		strh	r3, [r7, #648]	@ movhi
1141:.\Generated_Source\PSoC5/Bootloader_1.c ****                             break;
 1163              		.loc 1 1141 0
 1164 03a2 1DE1     		b	.L63
 1165              	.L86:
1142:.\Generated_Source\PSoC5/Bootloader_1.c ****                         }
1143:.\Generated_Source\PSoC5/Bootloader_1.c **** 
1144:.\Generated_Source\PSoC5/Bootloader_1.c **** 
1145:.\Generated_Source\PSoC5/Bootloader_1.c ****                         #if(0u != Bootloader_1_DUAL_APP_BOOTLOADER)
1146:.\Generated_Source\PSoC5/Bootloader_1.c **** 
1147:.\Generated_Source\PSoC5/Bootloader_1.c ****                             if(Bootloader_1_activeApp < Bootloader_1_MD_BTLDB_ACTIVE_NONE)
1148:.\Generated_Source\PSoC5/Bootloader_1.c ****                             {
1149:.\Generated_Source\PSoC5/Bootloader_1.c ****                                 uint16 lastRow;
1150:.\Generated_Source\PSoC5/Bootloader_1.c **** 
1151:.\Generated_Source\PSoC5/Bootloader_1.c **** 
1152:.\Generated_Source\PSoC5/Bootloader_1.c ****                                 /******************************************************************
1153:.\Generated_Source\PSoC5/Bootloader_1.c ****                                 * For the first bootloadable application gets the last flash row oc
ARM GAS  C:\Users\SISTEM~1\AppData\Local\Temp\ccZs07Hi.s 			page 42


1154:.\Generated_Source\PSoC5/Bootloader_1.c ****                                 * the bootloader application image:
1155:.\Generated_Source\PSoC5/Bootloader_1.c ****                                 *  ----------------------------------------------------------------
1156:.\Generated_Source\PSoC5/Bootloader_1.c ****                                 * | Bootloader   | Bootloadable # 1 |     | Bootloadable # 2 |     
1157:.\Generated_Source\PSoC5/Bootloader_1.c ****                                 *  ----------------------------------------------------------------
1158:.\Generated_Source\PSoC5/Bootloader_1.c ****                                 * |<--firstRow---|>
1159:.\Generated_Source\PSoC5/Bootloader_1.c ****                                 *
1160:.\Generated_Source\PSoC5/Bootloader_1.c ****                                 * For the second bootloadable application gets the last flash row o
1161:.\Generated_Source\PSoC5/Bootloader_1.c ****                                 * the first bootloadable application:
1162:.\Generated_Source\PSoC5/Bootloader_1.c ****                                 *  ----------------------------------------------------------------
1163:.\Generated_Source\PSoC5/Bootloader_1.c ****                                 * | Bootloader   | Bootloadable # 1 |     | Bootloadable # 2 |     
1164:.\Generated_Source\PSoC5/Bootloader_1.c ****                                 *  ----------------------------------------------------------------
1165:.\Generated_Source\PSoC5/Bootloader_1.c ****                                 * |<-------------firstRow-----------------|>
1166:.\Generated_Source\PSoC5/Bootloader_1.c ****                                 *
1167:.\Generated_Source\PSoC5/Bootloader_1.c ****                                 * Incremented by 1 to get the first available row.
1168:.\Generated_Source\PSoC5/Bootloader_1.c ****                                 *
1169:.\Generated_Source\PSoC5/Bootloader_1.c ****                                 * Note: M1 and M2 stands for the metadata # 1 and metadata # 2, met
1170:.\Generated_Source\PSoC5/Bootloader_1.c ****                                 * sections for the 1st and 2nd bootloadable applications.
1171:.\Generated_Source\PSoC5/Bootloader_1.c ****                                 *******************************************************************
1172:.\Generated_Source\PSoC5/Bootloader_1.c ****                                 firstRow = (uint16) 1u +
1173:.\Generated_Source\PSoC5/Bootloader_1.c ****                                     (uint16) Bootloader_1_GetMetadata(Bootloader_1_GET_BTLDR_LAST_R
1174:.\Generated_Source\PSoC5/Bootloader_1.c ****                                                                           Bootloader_1_activeApp);
1175:.\Generated_Source\PSoC5/Bootloader_1.c **** 
1176:.\Generated_Source\PSoC5/Bootloader_1.c **** 
1177:.\Generated_Source\PSoC5/Bootloader_1.c ****                                 /******************************************************************
1178:.\Generated_Source\PSoC5/Bootloader_1.c ****                                 * The number of flash rows available for the both bootloadable appl
1179:.\Generated_Source\PSoC5/Bootloader_1.c ****                                 *
1180:.\Generated_Source\PSoC5/Bootloader_1.c ****                                 * First bootloadable application is active:
1181:.\Generated_Source\PSoC5/Bootloader_1.c ****                                 *  ----------------------------------------------------------------
1182:.\Generated_Source\PSoC5/Bootloader_1.c ****                                 * | Bootloader   | Bootloadable # 1 |     | Bootloadable # 2 |     
1183:.\Generated_Source\PSoC5/Bootloader_1.c ****                                 *  ----------------------------------------------------------------
1184:.\Generated_Source\PSoC5/Bootloader_1.c ****                                 *                |<-------------------lastRow -------------------->
1185:.\Generated_Source\PSoC5/Bootloader_1.c ****                                 *
1186:.\Generated_Source\PSoC5/Bootloader_1.c ****                                 * Second bootloadable application is active:
1187:.\Generated_Source\PSoC5/Bootloader_1.c ****                                 *  ----------------------------------------------------------------
1188:.\Generated_Source\PSoC5/Bootloader_1.c ****                                 * | Bootloader   | Bootloadable # 1 |     | Bootloadable # 2 |     
1189:.\Generated_Source\PSoC5/Bootloader_1.c ****                                 *  ----------------------------------------------------------------
1190:.\Generated_Source\PSoC5/Bootloader_1.c ****                                 *                                         |<-------lastRow-------->
1191:.\Generated_Source\PSoC5/Bootloader_1.c ****                                 *******************************************************************
1192:.\Generated_Source\PSoC5/Bootloader_1.c ****                                 lastRow = (uint16)(CY_FLASH_NUMBER_ROWS -
1193:.\Generated_Source\PSoC5/Bootloader_1.c ****                                                     Bootloader_1_NUMBER_OF_METADATA_ROWS -
1194:.\Generated_Source\PSoC5/Bootloader_1.c ****                                                     firstRow);
1195:.\Generated_Source\PSoC5/Bootloader_1.c **** 
1196:.\Generated_Source\PSoC5/Bootloader_1.c **** 
1197:.\Generated_Source\PSoC5/Bootloader_1.c ****                                 /******************************************************************
1198:.\Generated_Source\PSoC5/Bootloader_1.c ****                                 * The number of flash rows available for the active bootloadable ap
1199:.\Generated_Source\PSoC5/Bootloader_1.c ****                                 *
1200:.\Generated_Source\PSoC5/Bootloader_1.c ****                                 * First bootloadable application is active: the number of flash row
1201:.\Generated_Source\PSoC5/Bootloader_1.c ****                                 * for the both bootloadable applications should be divided by 2 - 2
1202:.\Generated_Source\PSoC5/Bootloader_1.c ****                                 * applications should fit there.
1203:.\Generated_Source\PSoC5/Bootloader_1.c ****                                 *
1204:.\Generated_Source\PSoC5/Bootloader_1.c ****                                 * Second bootloadable application is active: the number of flash ro
1205:.\Generated_Source\PSoC5/Bootloader_1.c ****                                 * for the both bootloadable applications should be divided by 1 - 1
1206:.\Generated_Source\PSoC5/Bootloader_1.c ****                                 * application should fit there.
1207:.\Generated_Source\PSoC5/Bootloader_1.c ****                                 *******************************************************************
1208:.\Generated_Source\PSoC5/Bootloader_1.c ****                                 lastRow = lastRow / (Bootloader_1_NUMBER_OF_BTLDBLE_APPS -
1209:.\Generated_Source\PSoC5/Bootloader_1.c ****                                                 Bootloader_1_activeApp);
1210:.\Generated_Source\PSoC5/Bootloader_1.c **** 
ARM GAS  C:\Users\SISTEM~1\AppData\Local\Temp\ccZs07Hi.s 			page 43


1211:.\Generated_Source\PSoC5/Bootloader_1.c **** 
1212:.\Generated_Source\PSoC5/Bootloader_1.c ****                                 /******************************************************************
1213:.\Generated_Source\PSoC5/Bootloader_1.c ****                                 * The last row equals to the first row plus the number of rows avai
1214:.\Generated_Source\PSoC5/Bootloader_1.c ****                                 * the each bootloadable application. That gives the flash row numbe
1215:.\Generated_Source\PSoC5/Bootloader_1.c ****                                 * beyond the valid range, so we subtract 1.
1216:.\Generated_Source\PSoC5/Bootloader_1.c ****                                 *
1217:.\Generated_Source\PSoC5/Bootloader_1.c ****                                 * First bootloadable application is active:
1218:.\Generated_Source\PSoC5/Bootloader_1.c ****                                 *  ----------------------------------------------------------------
1219:.\Generated_Source\PSoC5/Bootloader_1.c ****                                 * | Bootloader   | Bootloadable # 1 |     | Bootloadable # 2 |     
1220:.\Generated_Source\PSoC5/Bootloader_1.c ****                                 *  ----------------------------------------------------------------
1221:.\Generated_Source\PSoC5/Bootloader_1.c ****                                 * |<----------------lastRow ------------->|
1222:.\Generated_Source\PSoC5/Bootloader_1.c ****                                 *
1223:.\Generated_Source\PSoC5/Bootloader_1.c ****                                 * Second bootloadable application is active:
1224:.\Generated_Source\PSoC5/Bootloader_1.c ****                                 *  ----------------------------------------------------------------
1225:.\Generated_Source\PSoC5/Bootloader_1.c ****                                 * | Bootloader   | Bootloadable # 1 |     | Bootloadable # 2 |     
1226:.\Generated_Source\PSoC5/Bootloader_1.c ****                                 *  ----------------------------------------------------------------
1227:.\Generated_Source\PSoC5/Bootloader_1.c ****                                 * |<-----------------------------lastRow-------------------------->
1228:.\Generated_Source\PSoC5/Bootloader_1.c ****                                 *******************************************************************
1229:.\Generated_Source\PSoC5/Bootloader_1.c ****                                 lastRow = (firstRow + lastRow) - 1u;
1230:.\Generated_Source\PSoC5/Bootloader_1.c **** 
1231:.\Generated_Source\PSoC5/Bootloader_1.c **** 
1232:.\Generated_Source\PSoC5/Bootloader_1.c ****                                 /******************************************************************
1233:.\Generated_Source\PSoC5/Bootloader_1.c ****                                 * 1. Refuse to write row within the range of the active application
1234:.\Generated_Source\PSoC5/Bootloader_1.c ****                                 *
1235:.\Generated_Source\PSoC5/Bootloader_1.c ****                                 *  First bootloadable application is active:
1236:.\Generated_Source\PSoC5/Bootloader_1.c ****                                 *   ---------------------------------------------------------------
1237:.\Generated_Source\PSoC5/Bootloader_1.c ****                                 *  | Bootloader   | Bootloadable # 1 |     | Bootloadable # 2 |    
1238:.\Generated_Source\PSoC5/Bootloader_1.c ****                                 *   ---------------------------------------------------------------
1239:.\Generated_Source\PSoC5/Bootloader_1.c ****                                 *  |<----------------lastRow ------------->|
1240:.\Generated_Source\PSoC5/Bootloader_1.c ****                                 *  |<--firstRow---|>
1241:.\Generated_Source\PSoC5/Bootloader_1.c ****                                 *                 |<-------protected------>|
1242:.\Generated_Source\PSoC5/Bootloader_1.c ****                                 *
1243:.\Generated_Source\PSoC5/Bootloader_1.c ****                                 *  Second bootloadable application is active:
1244:.\Generated_Source\PSoC5/Bootloader_1.c ****                                 *   ---------------------------------------------------------------
1245:.\Generated_Source\PSoC5/Bootloader_1.c ****                                 *  | Bootloader   | Bootloadable # 1 |     | Bootloadable # 2 |    
1246:.\Generated_Source\PSoC5/Bootloader_1.c ****                                 *   ---------------------------------------------------------------
1247:.\Generated_Source\PSoC5/Bootloader_1.c ****                                 *  |<-------------firstRow-----------------|>
1248:.\Generated_Source\PSoC5/Bootloader_1.c ****                                 *  |<-----------------------------lastRow--------------------------
1249:.\Generated_Source\PSoC5/Bootloader_1.c ****                                 *                                          |<-------protected------
1250:.\Generated_Source\PSoC5/Bootloader_1.c ****                                 *
1251:.\Generated_Source\PSoC5/Bootloader_1.c ****                                 * 2. Refuse to write to the row that contains metadata of the activ
1252:.\Generated_Source\PSoC5/Bootloader_1.c ****                                 *    bootloadable application.
1253:.\Generated_Source\PSoC5/Bootloader_1.c ****                                 *
1254:.\Generated_Source\PSoC5/Bootloader_1.c ****                                 *******************************************************************
1255:.\Generated_Source\PSoC5/Bootloader_1.c ****                                 if(((row >= firstRow) && (row <= lastRow)) ||
1256:.\Generated_Source\PSoC5/Bootloader_1.c ****                                    ((btldrData == Bootloader_1_MD_FLASH_ARRAY_NUM) &&
1257:.\Generated_Source\PSoC5/Bootloader_1.c ****                                    (dataOffset == Bootloader_1_MD_ROW_NUM(Bootloader_1_activeApp)))
1258:.\Generated_Source\PSoC5/Bootloader_1.c ****                                 {
1259:.\Generated_Source\PSoC5/Bootloader_1.c ****                                     ackCode = Bootloader_1_ERR_ACTIVE;
1260:.\Generated_Source\PSoC5/Bootloader_1.c ****                                     dataOffset = 0u;
1261:.\Generated_Source\PSoC5/Bootloader_1.c ****                                     break;
1262:.\Generated_Source\PSoC5/Bootloader_1.c ****                                 }
1263:.\Generated_Source\PSoC5/Bootloader_1.c ****                             }
1264:.\Generated_Source\PSoC5/Bootloader_1.c **** 
1265:.\Generated_Source\PSoC5/Bootloader_1.c ****                         #endif  /* (0u != Bootloader_1_DUAL_APP_BOOTLOADER) */
1266:.\Generated_Source\PSoC5/Bootloader_1.c **** 
1267:.\Generated_Source\PSoC5/Bootloader_1.c **** 
ARM GAS  C:\Users\SISTEM~1\AppData\Local\Temp\ccZs07Hi.s 			page 44


1268:.\Generated_Source\PSoC5/Bootloader_1.c **** 
1269:.\Generated_Source\PSoC5/Bootloader_1.c ****                         /**************************************************************************
1270:.\Generated_Source\PSoC5/Bootloader_1.c ****                         * Clear row that contains the metadata, when 'Fast bootloadable application
1271:.\Generated_Source\PSoC5/Bootloader_1.c ****                         * validation' option is enabled.
1272:.\Generated_Source\PSoC5/Bootloader_1.c ****                         *
1273:.\Generated_Source\PSoC5/Bootloader_1.c ****                         * If 'Fast bootloadable application validation' option is enabled, the
1274:.\Generated_Source\PSoC5/Bootloader_1.c ****                         * bootloader only computes the checksum the first time and assumes that it
1275:.\Generated_Source\PSoC5/Bootloader_1.c ****                         * remains valid in each future startup. The metadata row is cleared because
1276:.\Generated_Source\PSoC5/Bootloader_1.c ****                         * bootloadable application might become corrupted during update, while
1277:.\Generated_Source\PSoC5/Bootloader_1.c ****                         * 'Bootloadable Application Verification Status' field will still report th
1278:.\Generated_Source\PSoC5/Bootloader_1.c ****                         * application is valid.
1279:.\Generated_Source\PSoC5/Bootloader_1.c ****                         ***************************************************************************
1280:.\Generated_Source\PSoC5/Bootloader_1.c ****                         #if(0u != Bootloader_1_FAST_APP_VALIDATION)
1281:.\Generated_Source\PSoC5/Bootloader_1.c **** 
1282:.\Generated_Source\PSoC5/Bootloader_1.c ****                             if(0u == clearedMetaData)
1283:.\Generated_Source\PSoC5/Bootloader_1.c ****                             {
1284:.\Generated_Source\PSoC5/Bootloader_1.c ****                                 /* Metadata section must be filled with zeros */
1285:.\Generated_Source\PSoC5/Bootloader_1.c **** 
1286:.\Generated_Source\PSoC5/Bootloader_1.c ****                                 uint8 erase[Bootloader_1_FROW_SIZE];
1287:.\Generated_Source\PSoC5/Bootloader_1.c ****                                 uint8 Bootloader_1_notActiveApp;
1288:.\Generated_Source\PSoC5/Bootloader_1.c **** 
1289:.\Generated_Source\PSoC5/Bootloader_1.c **** 
1290:.\Generated_Source\PSoC5/Bootloader_1.c ****                                 #if(CY_PSOC3)
1291:.\Generated_Source\PSoC5/Bootloader_1.c ****                                     (void) memset(erase, (char8) 0, (int16) Bootloader_1_FROW_SIZE)
1292:.\Generated_Source\PSoC5/Bootloader_1.c ****                                 #else
1293:.\Generated_Source\PSoC5/Bootloader_1.c ****                                     (void) memset(erase, 0, Bootloader_1_FROW_SIZE);
1294:.\Generated_Source\PSoC5/Bootloader_1.c ****                                 #endif  /* (CY_PSOC3) */
1295:.\Generated_Source\PSoC5/Bootloader_1.c **** 
1296:.\Generated_Source\PSoC5/Bootloader_1.c **** 
1297:.\Generated_Source\PSoC5/Bootloader_1.c ****                                 #if(0u != Bootloader_1_DUAL_APP_BOOTLOADER)
1298:.\Generated_Source\PSoC5/Bootloader_1.c ****                                     if (Bootloader_1_MD_BTLDB_ACTIVE_0 == Bootloader_1_activeApp)
1299:.\Generated_Source\PSoC5/Bootloader_1.c ****                                     {
1300:.\Generated_Source\PSoC5/Bootloader_1.c ****                                         Bootloader_1_notActiveApp = Bootloader_1_MD_BTLDB_ACTIVE_1;
1301:.\Generated_Source\PSoC5/Bootloader_1.c ****                                     }
1302:.\Generated_Source\PSoC5/Bootloader_1.c ****                                     else
1303:.\Generated_Source\PSoC5/Bootloader_1.c ****                                     {
1304:.\Generated_Source\PSoC5/Bootloader_1.c ****                                         Bootloader_1_notActiveApp = Bootloader_1_MD_BTLDB_ACTIVE_0;
1305:.\Generated_Source\PSoC5/Bootloader_1.c ****                                     }
1306:.\Generated_Source\PSoC5/Bootloader_1.c ****                                 #else
1307:.\Generated_Source\PSoC5/Bootloader_1.c ****                                     Bootloader_1_notActiveApp = Bootloader_1_MD_BTLDB_ACTIVE_0;
1308:.\Generated_Source\PSoC5/Bootloader_1.c ****                                 #endif /* (0u != Bootloader_1_DUAL_APP_BOOTLOADER) */
1309:.\Generated_Source\PSoC5/Bootloader_1.c **** 
1310:.\Generated_Source\PSoC5/Bootloader_1.c **** 
1311:.\Generated_Source\PSoC5/Bootloader_1.c ****                                 #if(CY_PSOC4)
1312:.\Generated_Source\PSoC5/Bootloader_1.c ****                                     (void) CySysFlashWriteRow(
1313:.\Generated_Source\PSoC5/Bootloader_1.c ****                                             Bootloader_1_MD_ROW_NUM(Bootloader_1_notActiveApp),
1314:.\Generated_Source\PSoC5/Bootloader_1.c ****                                             erase);
1315:.\Generated_Source\PSoC5/Bootloader_1.c ****                                 #else
1316:.\Generated_Source\PSoC5/Bootloader_1.c ****                                     (void) CyWriteRowFull(
1317:.\Generated_Source\PSoC5/Bootloader_1.c ****                                             (uint8)  Bootloader_1_MD_FLASH_ARRAY_NUM,
1318:.\Generated_Source\PSoC5/Bootloader_1.c ****                                             (uint16) Bootloader_1_MD_ROW_NUM(Bootloader_1_notActive
1319:.\Generated_Source\PSoC5/Bootloader_1.c ****                                             erase,
1320:.\Generated_Source\PSoC5/Bootloader_1.c ****                                             Bootloader_1_FROW_SIZE);
1321:.\Generated_Source\PSoC5/Bootloader_1.c ****                                 #endif  /* (CY_PSOC4) */
1322:.\Generated_Source\PSoC5/Bootloader_1.c **** 
1323:.\Generated_Source\PSoC5/Bootloader_1.c ****                                 /* PSoC 5: Do not care about flushing the cache as flash row has be
1324:.\Generated_Source\PSoC5/Bootloader_1.c **** 
ARM GAS  C:\Users\SISTEM~1\AppData\Local\Temp\ccZs07Hi.s 			page 45


1325:.\Generated_Source\PSoC5/Bootloader_1.c ****                                 /* Set up flag that metadata was cleared */
1326:.\Generated_Source\PSoC5/Bootloader_1.c ****                                 clearedMetaData = 1u;
1327:.\Generated_Source\PSoC5/Bootloader_1.c ****                             }
1328:.\Generated_Source\PSoC5/Bootloader_1.c **** 
1329:.\Generated_Source\PSoC5/Bootloader_1.c ****                         #endif  /* (0u != Bootloader_1_FAST_APP_VALIDATION) */
1330:.\Generated_Source\PSoC5/Bootloader_1.c **** 
1331:.\Generated_Source\PSoC5/Bootloader_1.c **** 
1332:.\Generated_Source\PSoC5/Bootloader_1.c ****                         #if(!CY_PSOC4)
1333:.\Generated_Source\PSoC5/Bootloader_1.c ****                             }   /* (btldrData <= Bootloader_1_LAST_FLASH_ARRAYID) */
1334:.\Generated_Source\PSoC5/Bootloader_1.c ****                         #endif  /* (!CY_PSOC4) */
1335:.\Generated_Source\PSoC5/Bootloader_1.c **** 
1336:.\Generated_Source\PSoC5/Bootloader_1.c **** 
1337:.\Generated_Source\PSoC5/Bootloader_1.c ****                         #if(CY_PSOC4)
1338:.\Generated_Source\PSoC5/Bootloader_1.c ****                             ackCode = (CYRET_SUCCESS != CySysFlashWriteRow((uint32) row, dataBuffer
1339:.\Generated_Source\PSoC5/Bootloader_1.c ****                                 ? Bootloader_1_ERR_ROW \
1340:.\Generated_Source\PSoC5/Bootloader_1.c ****                                 : CYRET_SUCCESS;
1341:.\Generated_Source\PSoC5/Bootloader_1.c ****                         #else
1342:.\Generated_Source\PSoC5/Bootloader_1.c ****                             ackCode = (CYRET_SUCCESS != CyWriteRowFull(btldrData, dataOffset, dataB
 1166              		.loc 1 1342 0
 1167 03a4 97F87502 		ldrb	r0, [r7, #629]	@ zero_extendqisi2
 1168 03a8 B7F88812 		ldrh	r1, [r7, #648]
 1169 03ac 07F11002 		add	r2, r7, #16
 1170 03b0 B7F88A32 		ldrh	r3, [r7, #650]
 1171 03b4 FFF7FEFF 		bl	CyWriteRowFull
 1172 03b8 0346     		mov	r3, r0
 1173 03ba 002B     		cmp	r3, #0
 1174 03bc 01D0     		beq	.L88
 1175              		.loc 1 1342 0 is_stmt 0 discriminator 1
 1176 03be 0A23     		movs	r3, #10
 1177 03c0 00E0     		b	.L89
 1178              	.L88:
 1179              		.loc 1 1342 0 discriminator 2
 1180 03c2 0023     		movs	r3, #0
 1181              	.L89:
 1182              		.loc 1 1342 0 discriminator 1
 1183 03c4 87F88D32 		strb	r3, [r7, #653]
1343:.\Generated_Source\PSoC5/Bootloader_1.c ****                                 ? Bootloader_1_ERR_ROW \
1344:.\Generated_Source\PSoC5/Bootloader_1.c ****                                 : CYRET_SUCCESS;
1345:.\Generated_Source\PSoC5/Bootloader_1.c ****                         #endif  /* (CY_PSOC4) */
1346:.\Generated_Source\PSoC5/Bootloader_1.c **** 
1347:.\Generated_Source\PSoC5/Bootloader_1.c **** 
1348:.\Generated_Source\PSoC5/Bootloader_1.c ****                         #if(CY_PSOC5)
1349:.\Generated_Source\PSoC5/Bootloader_1.c ****                             /**********************************************************************
1350:.\Generated_Source\PSoC5/Bootloader_1.c ****                             * When writing Flash, data in the instruction cache can become stale.
1351:.\Generated_Source\PSoC5/Bootloader_1.c ****                             * Therefore, the cache data does not correlate to the data just written
1352:.\Generated_Source\PSoC5/Bootloader_1.c ****                             * Flash. A call to CyFlushCache() is required to invalidate the data in
1353:.\Generated_Source\PSoC5/Bootloader_1.c ****                             * cache and force fresh information to be loaded from Flash.
1354:.\Generated_Source\PSoC5/Bootloader_1.c ****                             ***********************************************************************
1355:.\Generated_Source\PSoC5/Bootloader_1.c ****                             CyFlushCache();
 1184              		.loc 1 1355 0 is_stmt 1 discriminator 1
 1185 03c8 FFF7FEFF 		bl	CyFlushCache
 1186              	.LBE6:
 1187 03cc 02E0     		b	.L90
 1188              	.L85:
1356:.\Generated_Source\PSoC5/Bootloader_1.c ****                         #endif /* (CY_PSOC5) */
1357:.\Generated_Source\PSoC5/Bootloader_1.c **** 
1358:.\Generated_Source\PSoC5/Bootloader_1.c ****                     }
ARM GAS  C:\Users\SISTEM~1\AppData\Local\Temp\ccZs07Hi.s 			page 46


1359:.\Generated_Source\PSoC5/Bootloader_1.c ****                     else
1360:.\Generated_Source\PSoC5/Bootloader_1.c ****                     {
1361:.\Generated_Source\PSoC5/Bootloader_1.c ****                         ackCode = Bootloader_1_ERR_LENGTH;
 1189              		.loc 1 1361 0
 1190 03ce 0323     		movs	r3, #3
 1191 03d0 87F88D32 		strb	r3, [r7, #653]
 1192              	.L90:
1362:.\Generated_Source\PSoC5/Bootloader_1.c ****                     }
1363:.\Generated_Source\PSoC5/Bootloader_1.c **** 
1364:.\Generated_Source\PSoC5/Bootloader_1.c ****                     dataOffset = 0u;
 1193              		.loc 1 1364 0
 1194 03d4 0023     		movs	r3, #0
 1195 03d6 A7F88832 		strh	r3, [r7, #648]	@ movhi
1365:.\Generated_Source\PSoC5/Bootloader_1.c ****                 }
1366:.\Generated_Source\PSoC5/Bootloader_1.c ****                 break;
 1196              		.loc 1 1366 0
 1197 03da 01E1     		b	.L63
 1198              	.L82:
 1199 03dc 00E1     		b	.L63
 1200              	.L69:
1367:.\Generated_Source\PSoC5/Bootloader_1.c **** 
1368:.\Generated_Source\PSoC5/Bootloader_1.c **** 
1369:.\Generated_Source\PSoC5/Bootloader_1.c ****             /***************************************************************************
1370:.\Generated_Source\PSoC5/Bootloader_1.c ****             *   Sync bootloader
1371:.\Generated_Source\PSoC5/Bootloader_1.c ****             ***************************************************************************/
1372:.\Generated_Source\PSoC5/Bootloader_1.c ****             #if(0u != Bootloader_1_CMD_SYNC_BOOTLOADER_AVAIL)
1373:.\Generated_Source\PSoC5/Bootloader_1.c **** 
1374:.\Generated_Source\PSoC5/Bootloader_1.c ****             case Bootloader_1_COMMAND_SYNC:
1375:.\Generated_Source\PSoC5/Bootloader_1.c **** 
1376:.\Generated_Source\PSoC5/Bootloader_1.c ****                 if(Bootloader_1_COMMUNICATION_STATE_ACTIVE == communicationState)
 1201              		.loc 1 1376 0
 1202 03de 97F88632 		ldrb	r3, [r7, #646]	@ zero_extendqisi2
 1203 03e2 012B     		cmp	r3, #1
 1204 03e4 03D1     		bne	.L91
1377:.\Generated_Source\PSoC5/Bootloader_1.c ****                 {
1378:.\Generated_Source\PSoC5/Bootloader_1.c ****                     /* If something failed the host would send this command to reset the bootloader
1379:.\Generated_Source\PSoC5/Bootloader_1.c ****                     dataOffset = 0u;
 1205              		.loc 1 1379 0
 1206 03e6 0023     		movs	r3, #0
 1207 03e8 A7F88832 		strh	r3, [r7, #648]	@ movhi
1380:.\Generated_Source\PSoC5/Bootloader_1.c **** 
1381:.\Generated_Source\PSoC5/Bootloader_1.c ****                     /* Don't acknowledge the packet, just get ready to accept the next one */
1382:.\Generated_Source\PSoC5/Bootloader_1.c ****                     continue;
 1208              		.loc 1 1382 0
 1209 03ec 03E1     		b	.L57
 1210              	.L91:
1383:.\Generated_Source\PSoC5/Bootloader_1.c ****                 }
1384:.\Generated_Source\PSoC5/Bootloader_1.c ****                 break;
 1211              		.loc 1 1384 0
 1212 03ee F7E0     		b	.L63
 1213              	.L70:
1385:.\Generated_Source\PSoC5/Bootloader_1.c **** 
1386:.\Generated_Source\PSoC5/Bootloader_1.c ****             #endif  /* (0u != Bootloader_1_CMD_SYNC_BOOTLOADER_AVAIL) */
1387:.\Generated_Source\PSoC5/Bootloader_1.c **** 
1388:.\Generated_Source\PSoC5/Bootloader_1.c **** 
1389:.\Generated_Source\PSoC5/Bootloader_1.c ****             /***************************************************************************
1390:.\Generated_Source\PSoC5/Bootloader_1.c ****             *   Set an active application
ARM GAS  C:\Users\SISTEM~1\AppData\Local\Temp\ccZs07Hi.s 			page 47


1391:.\Generated_Source\PSoC5/Bootloader_1.c ****             ***************************************************************************/
1392:.\Generated_Source\PSoC5/Bootloader_1.c ****             #if(0u != Bootloader_1_DUAL_APP_BOOTLOADER)
1393:.\Generated_Source\PSoC5/Bootloader_1.c **** 
1394:.\Generated_Source\PSoC5/Bootloader_1.c ****                 case Bootloader_1_COMMAND_APP_ACTIVE:
1395:.\Generated_Source\PSoC5/Bootloader_1.c **** 
1396:.\Generated_Source\PSoC5/Bootloader_1.c ****                     if((Bootloader_1_COMMUNICATION_STATE_ACTIVE == communicationState) && (pktSize 
1397:.\Generated_Source\PSoC5/Bootloader_1.c ****                     {
1398:.\Generated_Source\PSoC5/Bootloader_1.c ****                         if(CYRET_SUCCESS == Bootloader_1_ValidateBootloadable(btldrData))
1399:.\Generated_Source\PSoC5/Bootloader_1.c ****                         {
1400:.\Generated_Source\PSoC5/Bootloader_1.c ****                             uint8 CYDATA idx;
1401:.\Generated_Source\PSoC5/Bootloader_1.c **** 
1402:.\Generated_Source\PSoC5/Bootloader_1.c ****                             for(idx = 0u; idx < Bootloader_1_MAX_NUM_OF_BTLDB; idx++)
1403:.\Generated_Source\PSoC5/Bootloader_1.c ****                             {
1404:.\Generated_Source\PSoC5/Bootloader_1.c ****                                 Bootloader_1_SetFlashByte((uint32) Bootloader_1_MD_BTLDB_ACTIVE_OFF
1405:.\Generated_Source\PSoC5/Bootloader_1.c ****                                                               (uint8 )(idx == btldrData));
1406:.\Generated_Source\PSoC5/Bootloader_1.c ****                             }
1407:.\Generated_Source\PSoC5/Bootloader_1.c ****                             Bootloader_1_activeApp = btldrData;
1408:.\Generated_Source\PSoC5/Bootloader_1.c ****                             ackCode = CYRET_SUCCESS;
1409:.\Generated_Source\PSoC5/Bootloader_1.c ****                         }
1410:.\Generated_Source\PSoC5/Bootloader_1.c ****                         else
1411:.\Generated_Source\PSoC5/Bootloader_1.c ****                         {
1412:.\Generated_Source\PSoC5/Bootloader_1.c ****                             ackCode = Bootloader_1_ERR_APP;
1413:.\Generated_Source\PSoC5/Bootloader_1.c ****                         }
1414:.\Generated_Source\PSoC5/Bootloader_1.c ****                     }
1415:.\Generated_Source\PSoC5/Bootloader_1.c ****                     break;
1416:.\Generated_Source\PSoC5/Bootloader_1.c **** 
1417:.\Generated_Source\PSoC5/Bootloader_1.c ****             #endif  /* (0u != Bootloader_1_DUAL_APP_BOOTLOADER) */
1418:.\Generated_Source\PSoC5/Bootloader_1.c **** 
1419:.\Generated_Source\PSoC5/Bootloader_1.c **** 
1420:.\Generated_Source\PSoC5/Bootloader_1.c ****             /***************************************************************************
1421:.\Generated_Source\PSoC5/Bootloader_1.c ****             *   Send data
1422:.\Generated_Source\PSoC5/Bootloader_1.c ****             ***************************************************************************/
1423:.\Generated_Source\PSoC5/Bootloader_1.c ****             #if (0u != Bootloader_1_CMD_SEND_DATA_AVAIL)
1424:.\Generated_Source\PSoC5/Bootloader_1.c **** 
1425:.\Generated_Source\PSoC5/Bootloader_1.c ****                 case Bootloader_1_COMMAND_DATA:
1426:.\Generated_Source\PSoC5/Bootloader_1.c **** 
1427:.\Generated_Source\PSoC5/Bootloader_1.c ****                     if(Bootloader_1_COMMUNICATION_STATE_ACTIVE == communicationState)
 1214              		.loc 1 1427 0
 1215 03f0 97F88632 		ldrb	r3, [r7, #646]	@ zero_extendqisi2
 1216 03f4 012B     		cmp	r3, #1
 1217 03f6 25D1     		bne	.L92
1428:.\Generated_Source\PSoC5/Bootloader_1.c ****                     {
1429:.\Generated_Source\PSoC5/Bootloader_1.c ****                         /*  Make sure that dataOffset is valid before copying the data */
1430:.\Generated_Source\PSoC5/Bootloader_1.c ****                         if((dataOffset + pktSize) <= Bootloader_1_SIZEOF_COMMAND_BUFFER)
 1218              		.loc 1 1430 0
 1219 03f8 B7F88822 		ldrh	r2, [r7, #648]
 1220 03fc B7F88A32 		ldrh	r3, [r7, #650]
 1221 0400 1344     		add	r3, r3, r2
 1222 0402 B3F5967F 		cmp	r3, #300
 1223 0406 19D8     		bhi	.L93
1431:.\Generated_Source\PSoC5/Bootloader_1.c ****                         {
1432:.\Generated_Source\PSoC5/Bootloader_1.c ****                             ackCode = CYRET_SUCCESS;
 1224              		.loc 1 1432 0
 1225 0408 0023     		movs	r3, #0
 1226 040a 87F88D32 		strb	r3, [r7, #653]
1433:.\Generated_Source\PSoC5/Bootloader_1.c **** 
1434:.\Generated_Source\PSoC5/Bootloader_1.c ****                             #if(CY_PSOC3)
ARM GAS  C:\Users\SISTEM~1\AppData\Local\Temp\ccZs07Hi.s 			page 48


1435:.\Generated_Source\PSoC5/Bootloader_1.c ****                                 (void) memcpy(&dataBuffer[dataOffset],
1436:.\Generated_Source\PSoC5/Bootloader_1.c ****                                               &packetBuffer[Bootloader_1_DATA_ADDR],
1437:.\Generated_Source\PSoC5/Bootloader_1.c ****                                               ( int16 )pktSize);
1438:.\Generated_Source\PSoC5/Bootloader_1.c ****                             #else
1439:.\Generated_Source\PSoC5/Bootloader_1.c ****                                 (void) memcpy(&dataBuffer[dataOffset],
 1227              		.loc 1 1439 0
 1228 040e B7F88832 		ldrh	r3, [r7, #648]
 1229 0412 07F11002 		add	r2, r7, #16
 1230 0416 D118     		adds	r1, r2, r3
 1231 0418 B7F88A32 		ldrh	r3, [r7, #650]
 1232 041c 07F59E72 		add	r2, r7, #316
 1233 0420 0432     		adds	r2, r2, #4
 1234 0422 0846     		mov	r0, r1
 1235 0424 1146     		mov	r1, r2
 1236 0426 1A46     		mov	r2, r3
 1237 0428 FFF7FEFF 		bl	memcpy
1440:.\Generated_Source\PSoC5/Bootloader_1.c ****                                               &packetBuffer[Bootloader_1_DATA_ADDR],
1441:.\Generated_Source\PSoC5/Bootloader_1.c ****                                               (uint32) pktSize);
1442:.\Generated_Source\PSoC5/Bootloader_1.c ****                             #endif  /* (CY_PSOC3) */
1443:.\Generated_Source\PSoC5/Bootloader_1.c **** 
1444:.\Generated_Source\PSoC5/Bootloader_1.c ****                             dataOffset += pktSize;
 1238              		.loc 1 1444 0
 1239 042c B7F88822 		ldrh	r2, [r7, #648]	@ movhi
 1240 0430 B7F88A32 		ldrh	r3, [r7, #650]	@ movhi
 1241 0434 1344     		add	r3, r3, r2
 1242 0436 A7F88832 		strh	r3, [r7, #648]	@ movhi
 1243 043a 03E0     		b	.L92
 1244              	.L93:
1445:.\Generated_Source\PSoC5/Bootloader_1.c ****                         }
1446:.\Generated_Source\PSoC5/Bootloader_1.c ****                         else
1447:.\Generated_Source\PSoC5/Bootloader_1.c ****                         {
1448:.\Generated_Source\PSoC5/Bootloader_1.c ****                             ackCode = Bootloader_1_ERR_LENGTH;
 1245              		.loc 1 1448 0
 1246 043c 0323     		movs	r3, #3
 1247 043e 87F88D32 		strb	r3, [r7, #653]
1449:.\Generated_Source\PSoC5/Bootloader_1.c ****                         }
1450:.\Generated_Source\PSoC5/Bootloader_1.c ****                     }
1451:.\Generated_Source\PSoC5/Bootloader_1.c **** 
1452:.\Generated_Source\PSoC5/Bootloader_1.c ****                     break;
 1248              		.loc 1 1452 0
 1249 0442 CDE0     		b	.L63
 1250              	.L92:
 1251 0444 CCE0     		b	.L63
 1252              	.L71:
1453:.\Generated_Source\PSoC5/Bootloader_1.c **** 
1454:.\Generated_Source\PSoC5/Bootloader_1.c ****             #endif  /* (0u != Bootloader_1_CMD_SEND_DATA_AVAIL) */
1455:.\Generated_Source\PSoC5/Bootloader_1.c **** 
1456:.\Generated_Source\PSoC5/Bootloader_1.c **** 
1457:.\Generated_Source\PSoC5/Bootloader_1.c ****             /***************************************************************************
1458:.\Generated_Source\PSoC5/Bootloader_1.c ****             *   Enter bootloader
1459:.\Generated_Source\PSoC5/Bootloader_1.c ****             ***************************************************************************/
1460:.\Generated_Source\PSoC5/Bootloader_1.c ****             case Bootloader_1_COMMAND_ENTER:
1461:.\Generated_Source\PSoC5/Bootloader_1.c **** 
1462:.\Generated_Source\PSoC5/Bootloader_1.c ****                 if(pktSize == 0u)
 1253              		.loc 1 1462 0
 1254 0446 B7F88A32 		ldrh	r3, [r7, #650]
 1255 044a 002B     		cmp	r3, #0
ARM GAS  C:\Users\SISTEM~1\AppData\Local\Temp\ccZs07Hi.s 			page 49


 1256 044c 1CD1     		bne	.L94
 1257              	.LBB7:
1463:.\Generated_Source\PSoC5/Bootloader_1.c ****                 {
1464:.\Generated_Source\PSoC5/Bootloader_1.c ****                     #if(CY_PSOC3)
1465:.\Generated_Source\PSoC5/Bootloader_1.c **** 
1466:.\Generated_Source\PSoC5/Bootloader_1.c ****                         Bootloader_1_ENTER CYDATA BtldrVersion =
1467:.\Generated_Source\PSoC5/Bootloader_1.c ****                             {CYSWAP_ENDIAN32(CYDEV_CHIP_JTAG_ID), CYDEV_CHIP_REV_EXPECT, Bootloader
1468:.\Generated_Source\PSoC5/Bootloader_1.c **** 
1469:.\Generated_Source\PSoC5/Bootloader_1.c ****                     #else
1470:.\Generated_Source\PSoC5/Bootloader_1.c **** 
1471:.\Generated_Source\PSoC5/Bootloader_1.c ****                         Bootloader_1_ENTER CYDATA BtldrVersion =
 1258              		.loc 1 1471 0
 1259 044e 07F10803 		add	r3, r7, #8
 1260 0452 384A     		ldr	r2, .L104+4
 1261 0454 92E80300 		ldmia	r2, {r0, r1}
 1262 0458 83E80300 		stmia	r3, {r0, r1}
1472:.\Generated_Source\PSoC5/Bootloader_1.c ****                             {CYDEV_CHIP_JTAG_ID, CYDEV_CHIP_REV_EXPECT, Bootloader_1_VERSION};
1473:.\Generated_Source\PSoC5/Bootloader_1.c **** 
1474:.\Generated_Source\PSoC5/Bootloader_1.c ****                     #endif  /* (CY_PSOC3) */
1475:.\Generated_Source\PSoC5/Bootloader_1.c **** 
1476:.\Generated_Source\PSoC5/Bootloader_1.c ****                     communicationState = Bootloader_1_COMMUNICATION_STATE_ACTIVE;
 1263              		.loc 1 1476 0
 1264 045c 0123     		movs	r3, #1
 1265 045e 87F88632 		strb	r3, [r7, #646]
1477:.\Generated_Source\PSoC5/Bootloader_1.c **** 
1478:.\Generated_Source\PSoC5/Bootloader_1.c ****                     rspSize = sizeof(Bootloader_1_ENTER);
 1266              		.loc 1 1478 0
 1267 0462 0823     		movs	r3, #8
 1268 0464 A7F88E32 		strh	r3, [r7, #654]	@ movhi
1479:.\Generated_Source\PSoC5/Bootloader_1.c **** 
1480:.\Generated_Source\PSoC5/Bootloader_1.c ****                     #if(CY_PSOC3)
1481:.\Generated_Source\PSoC5/Bootloader_1.c ****                         (void) memcpy(&packetBuffer[Bootloader_1_DATA_ADDR],
1482:.\Generated_Source\PSoC5/Bootloader_1.c ****                                       &BtldrVersion,
1483:.\Generated_Source\PSoC5/Bootloader_1.c ****                                       ( int16 )rspSize);
1484:.\Generated_Source\PSoC5/Bootloader_1.c ****                     #else
1485:.\Generated_Source\PSoC5/Bootloader_1.c ****                         (void) memcpy(&packetBuffer[Bootloader_1_DATA_ADDR],
 1269              		.loc 1 1485 0
 1270 0468 B7F88E32 		ldrh	r3, [r7, #654]
 1271 046c 07F59E72 		add	r2, r7, #316
 1272 0470 111D     		adds	r1, r2, #4
 1273 0472 07F10802 		add	r2, r7, #8
 1274 0476 0846     		mov	r0, r1
 1275 0478 1146     		mov	r1, r2
 1276 047a 1A46     		mov	r2, r3
 1277 047c FFF7FEFF 		bl	memcpy
1486:.\Generated_Source\PSoC5/Bootloader_1.c ****                                       &BtldrVersion,
1487:.\Generated_Source\PSoC5/Bootloader_1.c ****                                       (uint32) rspSize);
1488:.\Generated_Source\PSoC5/Bootloader_1.c ****                     #endif  /* (CY_PSOC3) */
1489:.\Generated_Source\PSoC5/Bootloader_1.c **** 
1490:.\Generated_Source\PSoC5/Bootloader_1.c ****                     ackCode = CYRET_SUCCESS;
 1278              		.loc 1 1490 0
 1279 0480 0023     		movs	r3, #0
 1280 0482 87F88D32 		strb	r3, [r7, #653]
 1281              	.LBE7:
1491:.\Generated_Source\PSoC5/Bootloader_1.c ****                 }
1492:.\Generated_Source\PSoC5/Bootloader_1.c ****                 break;
 1282              		.loc 1 1492 0
ARM GAS  C:\Users\SISTEM~1\AppData\Local\Temp\ccZs07Hi.s 			page 50


 1283 0486 ABE0     		b	.L63
 1284              	.L94:
 1285 0488 AAE0     		b	.L63
 1286              	.L72:
1493:.\Generated_Source\PSoC5/Bootloader_1.c **** 
1494:.\Generated_Source\PSoC5/Bootloader_1.c **** 
1495:.\Generated_Source\PSoC5/Bootloader_1.c ****             /***************************************************************************
1496:.\Generated_Source\PSoC5/Bootloader_1.c ****             *   Verify row
1497:.\Generated_Source\PSoC5/Bootloader_1.c ****             ***************************************************************************/
1498:.\Generated_Source\PSoC5/Bootloader_1.c ****             #if (0u != Bootloader_1_CMD_VERIFY_ROW_AVAIL)
1499:.\Generated_Source\PSoC5/Bootloader_1.c **** 
1500:.\Generated_Source\PSoC5/Bootloader_1.c ****             case Bootloader_1_COMMAND_VERIFY:
1501:.\Generated_Source\PSoC5/Bootloader_1.c **** 
1502:.\Generated_Source\PSoC5/Bootloader_1.c ****                 if((Bootloader_1_COMMUNICATION_STATE_ACTIVE == communicationState) && (pktSize == 3
 1287              		.loc 1 1502 0
 1288 048a 97F88632 		ldrb	r3, [r7, #646]	@ zero_extendqisi2
 1289 048e 012B     		cmp	r3, #1
 1290 0490 40F09580 		bne	.L95
 1291              		.loc 1 1502 0 is_stmt 0 discriminator 1
 1292 0494 B7F88A32 		ldrh	r3, [r7, #650]
 1293 0498 032B     		cmp	r3, #3
 1294 049a 40F09080 		bne	.L95
 1295              	.LBB8:
1503:.\Generated_Source\PSoC5/Bootloader_1.c ****                 {
1504:.\Generated_Source\PSoC5/Bootloader_1.c ****                     /* Get FLASH/EEPROM row number */
1505:.\Generated_Source\PSoC5/Bootloader_1.c ****                     uint16 CYDATA rowNum = ((uint16)((uint16)packetBuffer[Bootloader_1_DATA_ADDR + 
 1296              		.loc 1 1505 0 is_stmt 1
 1297 049e 07F59E73 		add	r3, r7, #316
 1298 04a2 9B79     		ldrb	r3, [r3, #6]	@ zero_extendqisi2
 1299 04a4 1B02     		lsls	r3, r3, #8
 1300 04a6 9AB2     		uxth	r2, r3
1506:.\Generated_Source\PSoC5/Bootloader_1.c ****                                                     packetBuffer[Bootloader_1_DATA_ADDR + 1u];
 1301              		.loc 1 1506 0
 1302 04a8 07F59E73 		add	r3, r7, #316
 1303 04ac 5B79     		ldrb	r3, [r3, #5]	@ zero_extendqisi2
1505:.\Generated_Source\PSoC5/Bootloader_1.c ****                     uint16 CYDATA rowNum = ((uint16)((uint16)packetBuffer[Bootloader_1_DATA_ADDR + 
 1304              		.loc 1 1505 0
 1305 04ae 1343     		orrs	r3, r3, r2
 1306 04b0 A7F87032 		strh	r3, [r7, #624]	@ movhi
1507:.\Generated_Source\PSoC5/Bootloader_1.c **** 
1508:.\Generated_Source\PSoC5/Bootloader_1.c ****                     #if(!CY_PSOC4)
1509:.\Generated_Source\PSoC5/Bootloader_1.c **** 
1510:.\Generated_Source\PSoC5/Bootloader_1.c ****                         uint32 CYDATA rowAddr;
1511:.\Generated_Source\PSoC5/Bootloader_1.c ****                         uint8 CYDATA checksum;
1512:.\Generated_Source\PSoC5/Bootloader_1.c **** 
1513:.\Generated_Source\PSoC5/Bootloader_1.c ****                         if((btldrData >= Bootloader_1_FIRST_EE_ARRAYID) &&
 1307              		.loc 1 1513 0
 1308 04b4 97F87532 		ldrb	r3, [r7, #629]	@ zero_extendqisi2
 1309 04b8 3F2B     		cmp	r3, #63
 1310 04ba 13D9     		bls	.L96
1514:.\Generated_Source\PSoC5/Bootloader_1.c ****                            (btldrData <= Bootloader_1_LAST_EE_ARRAYID))
 1311              		.loc 1 1514 0 discriminator 1
 1312 04bc 97F87532 		ldrb	r3, [r7, #629]	@ zero_extendqisi2
1513:.\Generated_Source\PSoC5/Bootloader_1.c ****                         if((btldrData >= Bootloader_1_FIRST_EE_ARRAYID) &&
 1313              		.loc 1 1513 0 discriminator 1
 1314 04c0 5BB2     		sxtb	r3, r3
 1315 04c2 002B     		cmp	r3, #0
ARM GAS  C:\Users\SISTEM~1\AppData\Local\Temp\ccZs07Hi.s 			page 51


 1316 04c4 0EDB     		blt	.L96
1515:.\Generated_Source\PSoC5/Bootloader_1.c ****                         {
1516:.\Generated_Source\PSoC5/Bootloader_1.c ****                             /* EEPROM */
1517:.\Generated_Source\PSoC5/Bootloader_1.c ****                             /* Both PSoC 3 and PSoC 5LP architectures have one EEPROM array. */
1518:.\Generated_Source\PSoC5/Bootloader_1.c ****                             rowAddr = (uint32)rowNum * CYDEV_EEPROM_ROW_SIZE;
 1317              		.loc 1 1518 0
 1318 04c6 B7F87032 		ldrh	r3, [r7, #624]
 1319 04ca 1B01     		lsls	r3, r3, #4
 1320 04cc C7F86C32 		str	r3, [r7, #620]
1519:.\Generated_Source\PSoC5/Bootloader_1.c **** 
1520:.\Generated_Source\PSoC5/Bootloader_1.c ****                             checksum = Bootloader_1_Calc8BitSum(CY_EEPROM_BASE, rowAddr, CYDEV_EEPR
 1321              		.loc 1 1520 0
 1322 04d0 1948     		ldr	r0, .L104+8
 1323 04d2 D7F86C12 		ldr	r1, [r7, #620]
 1324 04d6 1022     		movs	r2, #16
 1325 04d8 FFF7FEFF 		bl	Bootloader_1_Calc8BitSum
 1326 04dc 0346     		mov	r3, r0
 1327 04de 87F88132 		strb	r3, [r7, #641]
 1328 04e2 12E0     		b	.L97
 1329              	.L96:
1521:.\Generated_Source\PSoC5/Bootloader_1.c ****                         }
1522:.\Generated_Source\PSoC5/Bootloader_1.c ****                         else
1523:.\Generated_Source\PSoC5/Bootloader_1.c ****                         {
1524:.\Generated_Source\PSoC5/Bootloader_1.c ****                             /* FLASH */
1525:.\Generated_Source\PSoC5/Bootloader_1.c ****                             rowAddr = ((uint32)btldrData * CYDEV_FLS_SECTOR_SIZE)
 1330              		.loc 1 1525 0
 1331 04e4 97F87532 		ldrb	r3, [r7, #629]	@ zero_extendqisi2
1526:.\Generated_Source\PSoC5/Bootloader_1.c ****                                        + ((uint32)rowNum * CYDEV_FLS_ROW_SIZE);
 1332              		.loc 1 1526 0
 1333 04e8 1A02     		lsls	r2, r3, #8
 1334 04ea B7F87032 		ldrh	r3, [r7, #624]
 1335 04ee 1344     		add	r3, r3, r2
1525:.\Generated_Source\PSoC5/Bootloader_1.c ****                             rowAddr = ((uint32)btldrData * CYDEV_FLS_SECTOR_SIZE)
 1336              		.loc 1 1525 0
 1337 04f0 1B02     		lsls	r3, r3, #8
 1338 04f2 C7F86C32 		str	r3, [r7, #620]
1527:.\Generated_Source\PSoC5/Bootloader_1.c **** 
1528:.\Generated_Source\PSoC5/Bootloader_1.c ****                             checksum = Bootloader_1_Calc8BitSum(CY_FLASH_BASE, rowAddr, CYDEV_FLS_R
 1339              		.loc 1 1528 0
 1340 04f6 0020     		movs	r0, #0
 1341 04f8 D7F86C12 		ldr	r1, [r7, #620]
 1342 04fc 4FF48072 		mov	r2, #256
 1343 0500 FFF7FEFF 		bl	Bootloader_1_Calc8BitSum
 1344 0504 0346     		mov	r3, r0
 1345 0506 87F88132 		strb	r3, [r7, #641]
 1346              	.L97:
1529:.\Generated_Source\PSoC5/Bootloader_1.c ****                         }
1530:.\Generated_Source\PSoC5/Bootloader_1.c **** 
1531:.\Generated_Source\PSoC5/Bootloader_1.c ****                     #else
1532:.\Generated_Source\PSoC5/Bootloader_1.c **** 
1533:.\Generated_Source\PSoC5/Bootloader_1.c ****                         uint32 CYDATA rowAddr = ((uint32)btldrData * CYDEV_FLS_SECTOR_SIZE)
1534:.\Generated_Source\PSoC5/Bootloader_1.c ****                                             + ((uint32)rowNum * CYDEV_FLS_ROW_SIZE);
1535:.\Generated_Source\PSoC5/Bootloader_1.c **** 
1536:.\Generated_Source\PSoC5/Bootloader_1.c ****                         uint8 CYDATA checksum = Bootloader_1_Calc8BitSum(CY_FLASH_BASE,
1537:.\Generated_Source\PSoC5/Bootloader_1.c ****                                                                              rowAddr,
1538:.\Generated_Source\PSoC5/Bootloader_1.c ****                                                                              CYDEV_FLS_ROW_SIZE);
1539:.\Generated_Source\PSoC5/Bootloader_1.c **** 
ARM GAS  C:\Users\SISTEM~1\AppData\Local\Temp\ccZs07Hi.s 			page 52


1540:.\Generated_Source\PSoC5/Bootloader_1.c ****                     #endif  /* (!CY_PSOC4) */
1541:.\Generated_Source\PSoC5/Bootloader_1.c **** 
1542:.\Generated_Source\PSoC5/Bootloader_1.c **** 
1543:.\Generated_Source\PSoC5/Bootloader_1.c ****                     /* Calculate checksum on data from ECC */
1544:.\Generated_Source\PSoC5/Bootloader_1.c ****                     #if(!CY_PSOC4) && (CYDEV_ECC_ENABLE == 0u)
1545:.\Generated_Source\PSoC5/Bootloader_1.c **** 
1546:.\Generated_Source\PSoC5/Bootloader_1.c ****                         if(btldrData <= Bootloader_1_LAST_FLASH_ARRAYID)
 1347              		.loc 1 1546 0
 1348 050a 97F87532 		ldrb	r3, [r7, #629]	@ zero_extendqisi2
 1349 050e 3F2B     		cmp	r3, #63
 1350 0510 29D8     		bhi	.L98
 1351              	.LBB9:
1547:.\Generated_Source\PSoC5/Bootloader_1.c ****                         {
1548:.\Generated_Source\PSoC5/Bootloader_1.c ****                             uint16 CYDATA tmpIndex;
1549:.\Generated_Source\PSoC5/Bootloader_1.c **** 
1550:.\Generated_Source\PSoC5/Bootloader_1.c ****                             rowAddr = CYDEV_ECC_BASE + ((uint32)btldrData * (CYDEV_FLS_SECTOR_SIZE 
 1352              		.loc 1 1550 0
 1353 0512 97F87532 		ldrb	r3, [r7, #629]	@ zero_extendqisi2
1551:.\Generated_Source\PSoC5/Bootloader_1.c ****                                         + ((uint32)rowNum * CYDEV_ECC_ROW_SIZE);
 1354              		.loc 1 1551 0
 1355 0516 03F51033 		add	r3, r3, #147456
 1356 051a 1A02     		lsls	r2, r3, #8
 1357 051c B7F87032 		ldrh	r3, [r7, #624]
 1358 0520 1344     		add	r3, r3, r2
1550:.\Generated_Source\PSoC5/Bootloader_1.c ****                             rowAddr = CYDEV_ECC_BASE + ((uint32)btldrData * (CYDEV_FLS_SECTOR_SIZE 
 1359              		.loc 1 1550 0
 1360 0522 5B01     		lsls	r3, r3, #5
 1361 0524 C7F86C32 		str	r3, [r7, #620]
1552:.\Generated_Source\PSoC5/Bootloader_1.c **** 
1553:.\Generated_Source\PSoC5/Bootloader_1.c ****                             for(tmpIndex = 0u; tmpIndex < CYDEV_ECC_ROW_SIZE; tmpIndex++)
 1362              		.loc 1 1553 0
 1363 0528 0023     		movs	r3, #0
 1364 052a A7F87E32 		strh	r3, [r7, #638]	@ movhi
 1365 052e 16E0     		b	.L99
 1366              	.L105:
 1367              		.align	2
 1368              	.L104:
 1369 0530 00000000 		.word	Bootloader_1_SizeBytesAccess
 1370 0534 00000000 		.word	.LC0
 1371 0538 00800040 		.word	1073774592
 1372              	.L100:
1554:.\Generated_Source\PSoC5/Bootloader_1.c ****                             {
1555:.\Generated_Source\PSoC5/Bootloader_1.c ****                                 checksum += CY_GET_XTND_REG8((uint8 CYFAR *)(rowAddr + tmpIndex));
 1373              		.loc 1 1555 0 discriminator 2
 1374 053c B7F87E22 		ldrh	r2, [r7, #638]
 1375 0540 D7F86C32 		ldr	r3, [r7, #620]
 1376 0544 1344     		add	r3, r3, r2
 1377 0546 1B78     		ldrb	r3, [r3]
 1378 0548 DAB2     		uxtb	r2, r3
 1379 054a 97F88132 		ldrb	r3, [r7, #641]
 1380 054e 1344     		add	r3, r3, r2
 1381 0550 87F88132 		strb	r3, [r7, #641]
1553:.\Generated_Source\PSoC5/Bootloader_1.c ****                             for(tmpIndex = 0u; tmpIndex < CYDEV_ECC_ROW_SIZE; tmpIndex++)
 1382              		.loc 1 1553 0 discriminator 2
 1383 0554 B7F87E32 		ldrh	r3, [r7, #638]
 1384 0558 0133     		adds	r3, r3, #1
 1385 055a A7F87E32 		strh	r3, [r7, #638]	@ movhi
ARM GAS  C:\Users\SISTEM~1\AppData\Local\Temp\ccZs07Hi.s 			page 53


 1386              	.L99:
1553:.\Generated_Source\PSoC5/Bootloader_1.c ****                             for(tmpIndex = 0u; tmpIndex < CYDEV_ECC_ROW_SIZE; tmpIndex++)
 1387              		.loc 1 1553 0 is_stmt 0 discriminator 1
 1388 055e B7F87E32 		ldrh	r3, [r7, #638]
 1389 0562 1F2B     		cmp	r3, #31
 1390 0564 EAD9     		bls	.L100
 1391              	.L98:
 1392              	.LBE9:
1556:.\Generated_Source\PSoC5/Bootloader_1.c ****                             }
1557:.\Generated_Source\PSoC5/Bootloader_1.c ****                         }
1558:.\Generated_Source\PSoC5/Bootloader_1.c **** 
1559:.\Generated_Source\PSoC5/Bootloader_1.c ****                     #endif  /* (!CY_PSOC4) && (CYDEV_ECC_ENABLE == 0u) */
1560:.\Generated_Source\PSoC5/Bootloader_1.c **** 
1561:.\Generated_Source\PSoC5/Bootloader_1.c **** 
1562:.\Generated_Source\PSoC5/Bootloader_1.c ****                     /******************************************************************************
1563:.\Generated_Source\PSoC5/Bootloader_1.c ****                     * App Verified & App Active are information that is updated in Flash at runtime
1564:.\Generated_Source\PSoC5/Bootloader_1.c ****                     * Remove these items from the checksum to allow the host to verify everything i
1565:.\Generated_Source\PSoC5/Bootloader_1.c ****                     * correct.
1566:.\Generated_Source\PSoC5/Bootloader_1.c ****                      ******************************************************************************
1567:.\Generated_Source\PSoC5/Bootloader_1.c ****                     if((Bootloader_1_MD_FLASH_ARRAY_NUM == btldrData) &&
 1393              		.loc 1 1567 0 is_stmt 1
 1394 0566 97F87532 		ldrb	r3, [r7, #629]	@ zero_extendqisi2
 1395 056a 032B     		cmp	r3, #3
 1396 056c 19D1     		bne	.L101
 1397              		.loc 1 1567 0 is_stmt 0 discriminator 1
 1398 056e B7F87032 		ldrh	r3, [r7, #624]
 1399 0572 FF2B     		cmp	r3, #255
 1400 0574 15D1     		bne	.L101
1568:.\Generated_Source\PSoC5/Bootloader_1.c ****                        (Bootloader_1_CONTAIN_METADATA(rowNum)))
1569:.\Generated_Source\PSoC5/Bootloader_1.c ****                     {
1570:.\Generated_Source\PSoC5/Bootloader_1.c **** 
1571:.\Generated_Source\PSoC5/Bootloader_1.c ****                         checksum -= (uint8)Bootloader_1_GetMetadata(Bootloader_1_GET_BTLDB_ACTIVE,
 1401              		.loc 1 1571 0 is_stmt 1
 1402 0576 0520     		movs	r0, #5
 1403 0578 0021     		movs	r1, #0
 1404 057a FFF7FEFF 		bl	Bootloader_1_GetMetadata
 1405 057e 0346     		mov	r3, r0
 1406 0580 DBB2     		uxtb	r3, r3
 1407 0582 97F88122 		ldrb	r2, [r7, #641]
 1408 0586 D31A     		subs	r3, r2, r3
 1409 0588 87F88132 		strb	r3, [r7, #641]
1572:.\Generated_Source\PSoC5/Bootloader_1.c ****                                                                  Bootloader_1_GET_APP_ID(rowNum));
1573:.\Generated_Source\PSoC5/Bootloader_1.c **** 
1574:.\Generated_Source\PSoC5/Bootloader_1.c ****                         checksum -= (uint8)Bootloader_1_GetMetadata(Bootloader_1_GET_BTLDB_STATUS,
 1410              		.loc 1 1574 0
 1411 058c 0620     		movs	r0, #6
 1412 058e 0021     		movs	r1, #0
 1413 0590 FFF7FEFF 		bl	Bootloader_1_GetMetadata
 1414 0594 0346     		mov	r3, r0
 1415 0596 DBB2     		uxtb	r3, r3
 1416 0598 97F88122 		ldrb	r2, [r7, #641]
 1417 059c D31A     		subs	r3, r2, r3
 1418 059e 87F88132 		strb	r3, [r7, #641]
 1419              	.L101:
1575:.\Generated_Source\PSoC5/Bootloader_1.c ****                                                                  Bootloader_1_GET_APP_ID(rowNum));
1576:.\Generated_Source\PSoC5/Bootloader_1.c ****                     }
1577:.\Generated_Source\PSoC5/Bootloader_1.c **** 
ARM GAS  C:\Users\SISTEM~1\AppData\Local\Temp\ccZs07Hi.s 			page 54


1578:.\Generated_Source\PSoC5/Bootloader_1.c ****                     packetBuffer[Bootloader_1_DATA_ADDR] = (uint8)1u + (uint8)(~checksum);
 1420              		.loc 1 1578 0
 1421 05a2 97F88132 		ldrb	r3, [r7, #641]
 1422 05a6 5B42     		negs	r3, r3
 1423 05a8 DAB2     		uxtb	r2, r3
 1424 05aa 07F59E73 		add	r3, r7, #316
 1425 05ae 1A71     		strb	r2, [r3, #4]
1579:.\Generated_Source\PSoC5/Bootloader_1.c ****                     ackCode = CYRET_SUCCESS;
 1426              		.loc 1 1579 0
 1427 05b0 0023     		movs	r3, #0
 1428 05b2 87F88D32 		strb	r3, [r7, #653]
1580:.\Generated_Source\PSoC5/Bootloader_1.c ****                     rspSize = 1u;
 1429              		.loc 1 1580 0
 1430 05b6 0123     		movs	r3, #1
 1431 05b8 A7F88E32 		strh	r3, [r7, #654]	@ movhi
 1432              	.LBE8:
1581:.\Generated_Source\PSoC5/Bootloader_1.c ****                 }
1582:.\Generated_Source\PSoC5/Bootloader_1.c ****                 break;
 1433              		.loc 1 1582 0
 1434 05bc 10E0     		b	.L63
 1435              	.L95:
 1436 05be 0FE0     		b	.L63
 1437              	.L73:
1583:.\Generated_Source\PSoC5/Bootloader_1.c **** 
1584:.\Generated_Source\PSoC5/Bootloader_1.c ****             #endif /* (0u != Bootloader_1_CMD_VERIFY_ROW_AVAIL) */
1585:.\Generated_Source\PSoC5/Bootloader_1.c **** 
1586:.\Generated_Source\PSoC5/Bootloader_1.c **** 
1587:.\Generated_Source\PSoC5/Bootloader_1.c ****             /***************************************************************************
1588:.\Generated_Source\PSoC5/Bootloader_1.c ****             *   Exit bootloader
1589:.\Generated_Source\PSoC5/Bootloader_1.c ****             ***************************************************************************/
1590:.\Generated_Source\PSoC5/Bootloader_1.c ****             case Bootloader_1_COMMAND_EXIT:
1591:.\Generated_Source\PSoC5/Bootloader_1.c **** 
1592:.\Generated_Source\PSoC5/Bootloader_1.c ****                 if(CYRET_SUCCESS == Bootloader_1_ValidateBootloadable(Bootloader_1_activeApp))
 1438              		.loc 1 1592 0
 1439 05c0 0020     		movs	r0, #0
 1440 05c2 FFF7FEFF 		bl	Bootloader_1_ValidateBootloadable
 1441 05c6 0346     		mov	r3, r0
 1442 05c8 002B     		cmp	r3, #0
 1443 05ca 02D1     		bne	.L102
1593:.\Generated_Source\PSoC5/Bootloader_1.c ****                 {
1594:.\Generated_Source\PSoC5/Bootloader_1.c ****                     Bootloader_1_SET_RUN_TYPE(Bootloader_1_SCHEDULE_BTLDB);
 1444              		.loc 1 1594 0
 1445 05cc 114B     		ldr	r3, .L106
 1446 05ce 8022     		movs	r2, #128
 1447 05d0 1A70     		strb	r2, [r3]
 1448              	.L102:
1595:.\Generated_Source\PSoC5/Bootloader_1.c ****                 }
1596:.\Generated_Source\PSoC5/Bootloader_1.c **** 
1597:.\Generated_Source\PSoC5/Bootloader_1.c ****                 CySoftwareReset();
 1449              		.loc 1 1597 0
 1450 05d2 FFF7FEFF 		bl	CySoftwareReset
1598:.\Generated_Source\PSoC5/Bootloader_1.c **** 
1599:.\Generated_Source\PSoC5/Bootloader_1.c ****                 /* Will never get here */
1600:.\Generated_Source\PSoC5/Bootloader_1.c ****                 break;
 1451              		.loc 1 1600 0
 1452 05d6 03E0     		b	.L63
 1453              	.L64:
ARM GAS  C:\Users\SISTEM~1\AppData\Local\Temp\ccZs07Hi.s 			page 55


1601:.\Generated_Source\PSoC5/Bootloader_1.c **** 
1602:.\Generated_Source\PSoC5/Bootloader_1.c **** 
1603:.\Generated_Source\PSoC5/Bootloader_1.c ****             /***************************************************************************
1604:.\Generated_Source\PSoC5/Bootloader_1.c ****             *   Unsupported command
1605:.\Generated_Source\PSoC5/Bootloader_1.c ****             ***************************************************************************/
1606:.\Generated_Source\PSoC5/Bootloader_1.c ****             default:
1607:.\Generated_Source\PSoC5/Bootloader_1.c ****                 ackCode = Bootloader_1_ERR_CMD;
 1454              		.loc 1 1607 0
 1455 05d8 0523     		movs	r3, #5
 1456 05da 87F88D32 		strb	r3, [r7, #653]
1608:.\Generated_Source\PSoC5/Bootloader_1.c ****                 break;
 1457              		.loc 1 1608 0
 1458 05de 00BF     		nop
 1459              	.L63:
 1460              	.LBE4:
1609:.\Generated_Source\PSoC5/Bootloader_1.c ****             }
1610:.\Generated_Source\PSoC5/Bootloader_1.c ****         }
1611:.\Generated_Source\PSoC5/Bootloader_1.c **** 
1612:.\Generated_Source\PSoC5/Bootloader_1.c ****         /* Reply with acknowledge or not acknowledge packet */
1613:.\Generated_Source\PSoC5/Bootloader_1.c ****         (void) Bootloader_1_WritePacket(ackCode, packetBuffer, rspSize);
 1461              		.loc 1 1613 0
 1462 05e0 97F88D12 		ldrb	r1, [r7, #653]	@ zero_extendqisi2
 1463 05e4 07F59E72 		add	r2, r7, #316
 1464 05e8 B7F88E32 		ldrh	r3, [r7, #654]
 1465 05ec 0846     		mov	r0, r1
 1466 05ee 1146     		mov	r1, r2
 1467 05f0 1A46     		mov	r2, r3
 1468 05f2 FFF7FEFF 		bl	Bootloader_1_WritePacket
 1469              	.L57:
1614:.\Generated_Source\PSoC5/Bootloader_1.c **** 
1615:.\Generated_Source\PSoC5/Bootloader_1.c ****     } while ((0u == timeOut) || (Bootloader_1_COMMUNICATION_STATE_ACTIVE == communicationState));
 1470              		.loc 1 1615 0
 1471 05f6 FB1D     		adds	r3, r7, #7
 1472 05f8 1B78     		ldrb	r3, [r3]	@ zero_extendqisi2
 1473 05fa 002B     		cmp	r3, #0
 1474 05fc 3FF41EAD 		beq	.L103
 1475              		.loc 1 1615 0 is_stmt 0 discriminator 1
 1476 0600 97F88632 		ldrb	r3, [r7, #646]	@ zero_extendqisi2
 1477 0604 012B     		cmp	r3, #1
 1478 0606 3FF419AD 		beq	.L103
1616:.\Generated_Source\PSoC5/Bootloader_1.c **** }
 1479              		.loc 1 1616 0 is_stmt 1
 1480 060a 07F52477 		add	r7, r7, #656
 1481 060e BD46     		mov	sp, r7
 1482              		@ sp needed
 1483 0610 80BD     		pop	{r7, pc}
 1484              	.L107:
 1485 0612 00BF     		.align	2
 1486              	.L106:
 1487 0614 FA460040 		.word	1073759994
 1488              		.cfi_endproc
 1489              	.LFE71:
 1490              		.size	Bootloader_1_HostLink, .-Bootloader_1_HostLink
 1491              		.section	.text.Bootloader_1_WritePacket,"ax",%progbits
 1492              		.align	2
 1493              		.thumb
 1494              		.thumb_func
ARM GAS  C:\Users\SISTEM~1\AppData\Local\Temp\ccZs07Hi.s 			page 56


 1495              		.type	Bootloader_1_WritePacket, %function
 1496              	Bootloader_1_WritePacket:
 1497              	.LFB72:
1617:.\Generated_Source\PSoC5/Bootloader_1.c **** 
1618:.\Generated_Source\PSoC5/Bootloader_1.c **** 
1619:.\Generated_Source\PSoC5/Bootloader_1.c **** /*******************************************************************************
1620:.\Generated_Source\PSoC5/Bootloader_1.c **** * Function Name: Bootloader_1_WritePacket
1621:.\Generated_Source\PSoC5/Bootloader_1.c **** ********************************************************************************
1622:.\Generated_Source\PSoC5/Bootloader_1.c **** *
1623:.\Generated_Source\PSoC5/Bootloader_1.c **** * Summary:
1624:.\Generated_Source\PSoC5/Bootloader_1.c **** *  Creates a bootloader response packet and transmits it back to the bootloader
1625:.\Generated_Source\PSoC5/Bootloader_1.c **** *  host application over the already established communications protocol.
1626:.\Generated_Source\PSoC5/Bootloader_1.c **** *
1627:.\Generated_Source\PSoC5/Bootloader_1.c **** * Parameters:
1628:.\Generated_Source\PSoC5/Bootloader_1.c **** *  status:
1629:.\Generated_Source\PSoC5/Bootloader_1.c **** *      The status code to pass back as the second byte of the packet
1630:.\Generated_Source\PSoC5/Bootloader_1.c **** *  buffer:
1631:.\Generated_Source\PSoC5/Bootloader_1.c **** *      The buffer containing the data portion of the packet
1632:.\Generated_Source\PSoC5/Bootloader_1.c **** *  size:
1633:.\Generated_Source\PSoC5/Bootloader_1.c **** *      The number of bytes contained within the buffer to pass back
1634:.\Generated_Source\PSoC5/Bootloader_1.c **** *
1635:.\Generated_Source\PSoC5/Bootloader_1.c **** * Return:
1636:.\Generated_Source\PSoC5/Bootloader_1.c **** *   CYRET_SUCCESS if successful. Any other non-zero value if failure occurred.
1637:.\Generated_Source\PSoC5/Bootloader_1.c **** *
1638:.\Generated_Source\PSoC5/Bootloader_1.c **** *******************************************************************************/
1639:.\Generated_Source\PSoC5/Bootloader_1.c **** static cystatus Bootloader_1_WritePacket(uint8 status, uint8 buffer[], uint16 size) CYSMALL \
1640:.\Generated_Source\PSoC5/Bootloader_1.c ****                                             
1641:.\Generated_Source\PSoC5/Bootloader_1.c **** {
 1498              		.loc 1 1641 0
 1499              		.cfi_startproc
 1500              		@ args = 0, pretend = 0, frame = 16
 1501              		@ frame_needed = 1, uses_anonymous_args = 0
 1502 0000 80B5     		push	{r7, lr}
 1503              		.cfi_def_cfa_offset 8
 1504              		.cfi_offset 7, -8
 1505              		.cfi_offset 14, -4
 1506 0002 84B0     		sub	sp, sp, #16
 1507              		.cfi_def_cfa_offset 24
 1508 0004 00AF     		add	r7, sp, #0
 1509              		.cfi_def_cfa_register 7
 1510 0006 3960     		str	r1, [r7]
 1511 0008 1346     		mov	r3, r2
 1512 000a 0246     		mov	r2, r0
 1513 000c FA71     		strb	r2, [r7, #7]
 1514 000e BB80     		strh	r3, [r7, #4]	@ movhi
1642:.\Generated_Source\PSoC5/Bootloader_1.c ****     uint16 CYDATA checksum;
1643:.\Generated_Source\PSoC5/Bootloader_1.c **** 
1644:.\Generated_Source\PSoC5/Bootloader_1.c ****     /* Start of packet. */
1645:.\Generated_Source\PSoC5/Bootloader_1.c ****     buffer[Bootloader_1_SOP_ADDR]      = Bootloader_1_SOP;
 1515              		.loc 1 1645 0
 1516 0010 3B68     		ldr	r3, [r7]
 1517 0012 0122     		movs	r2, #1
 1518 0014 1A70     		strb	r2, [r3]
1646:.\Generated_Source\PSoC5/Bootloader_1.c ****     buffer[Bootloader_1_CMD_ADDR]      = status;
 1519              		.loc 1 1646 0
 1520 0016 3B68     		ldr	r3, [r7]
 1521 0018 0133     		adds	r3, r3, #1
ARM GAS  C:\Users\SISTEM~1\AppData\Local\Temp\ccZs07Hi.s 			page 57


 1522 001a FA79     		ldrb	r2, [r7, #7]
 1523 001c 1A70     		strb	r2, [r3]
1647:.\Generated_Source\PSoC5/Bootloader_1.c ****     buffer[Bootloader_1_SIZE_ADDR]     = LO8(size);
 1524              		.loc 1 1647 0
 1525 001e 3B68     		ldr	r3, [r7]
 1526 0020 0233     		adds	r3, r3, #2
 1527 0022 BA88     		ldrh	r2, [r7, #4]
 1528 0024 D2B2     		uxtb	r2, r2
 1529 0026 1A70     		strb	r2, [r3]
1648:.\Generated_Source\PSoC5/Bootloader_1.c ****     buffer[Bootloader_1_SIZE_ADDR + 1u] = HI8(size);
 1530              		.loc 1 1648 0
 1531 0028 3B68     		ldr	r3, [r7]
 1532 002a 0333     		adds	r3, r3, #3
 1533 002c BA88     		ldrh	r2, [r7, #4]
 1534 002e 120A     		lsrs	r2, r2, #8
 1535 0030 92B2     		uxth	r2, r2
 1536 0032 D2B2     		uxtb	r2, r2
 1537 0034 1A70     		strb	r2, [r3]
1649:.\Generated_Source\PSoC5/Bootloader_1.c **** 
1650:.\Generated_Source\PSoC5/Bootloader_1.c ****     /* Compute checksum. */
1651:.\Generated_Source\PSoC5/Bootloader_1.c ****     checksum = Bootloader_1_CalcPacketChecksum(buffer, size + Bootloader_1_DATA_ADDR);
 1538              		.loc 1 1651 0
 1539 0036 BB88     		ldrh	r3, [r7, #4]
 1540 0038 0433     		adds	r3, r3, #4
 1541 003a 9BB2     		uxth	r3, r3
 1542 003c 3868     		ldr	r0, [r7]
 1543 003e 1946     		mov	r1, r3
 1544 0040 FFF7FEFF 		bl	Bootloader_1_CalcPacketChecksum
 1545 0044 0346     		mov	r3, r0
 1546 0046 FB81     		strh	r3, [r7, #14]	@ movhi
1652:.\Generated_Source\PSoC5/Bootloader_1.c **** 
1653:.\Generated_Source\PSoC5/Bootloader_1.c ****     buffer[Bootloader_1_CHK_ADDR(size)]     = LO8(checksum);
 1547              		.loc 1 1653 0
 1548 0048 BB88     		ldrh	r3, [r7, #4]
 1549 004a 0433     		adds	r3, r3, #4
 1550 004c 3A68     		ldr	r2, [r7]
 1551 004e 1344     		add	r3, r3, r2
 1552 0050 FA89     		ldrh	r2, [r7, #14]	@ movhi
 1553 0052 D2B2     		uxtb	r2, r2
 1554 0054 1A70     		strb	r2, [r3]
1654:.\Generated_Source\PSoC5/Bootloader_1.c ****     buffer[Bootloader_1_CHK_ADDR(1u + size)] = HI8(checksum);
 1555              		.loc 1 1654 0
 1556 0056 BB88     		ldrh	r3, [r7, #4]
 1557 0058 0533     		adds	r3, r3, #5
 1558 005a 3A68     		ldr	r2, [r7]
 1559 005c 1344     		add	r3, r3, r2
 1560 005e FA89     		ldrh	r2, [r7, #14]
 1561 0060 120A     		lsrs	r2, r2, #8
 1562 0062 92B2     		uxth	r2, r2
 1563 0064 D2B2     		uxtb	r2, r2
 1564 0066 1A70     		strb	r2, [r3]
1655:.\Generated_Source\PSoC5/Bootloader_1.c ****     buffer[Bootloader_1_EOP_ADDR(size)]     = Bootloader_1_EOP;
 1565              		.loc 1 1655 0
 1566 0068 BB88     		ldrh	r3, [r7, #4]
 1567 006a 0633     		adds	r3, r3, #6
 1568 006c 3A68     		ldr	r2, [r7]
 1569 006e 1344     		add	r3, r3, r2
ARM GAS  C:\Users\SISTEM~1\AppData\Local\Temp\ccZs07Hi.s 			page 58


 1570 0070 1722     		movs	r2, #23
 1571 0072 1A70     		strb	r2, [r3]
1656:.\Generated_Source\PSoC5/Bootloader_1.c **** 
1657:.\Generated_Source\PSoC5/Bootloader_1.c ****     /* Start packet transmit. */
1658:.\Generated_Source\PSoC5/Bootloader_1.c ****     return(CyBtldrCommWrite(buffer, size + Bootloader_1_MIN_PKT_SIZE, &size, 150u));
 1572              		.loc 1 1658 0
 1573 0074 BB88     		ldrh	r3, [r7, #4]
 1574 0076 0733     		adds	r3, r3, #7
 1575 0078 9AB2     		uxth	r2, r3
 1576 007a 3B1D     		adds	r3, r7, #4
 1577 007c 3868     		ldr	r0, [r7]
 1578 007e 1146     		mov	r1, r2
 1579 0080 1A46     		mov	r2, r3
 1580 0082 9623     		movs	r3, #150
 1581 0084 FFF7FEFF 		bl	UART_1_CyBtldrCommWrite
 1582 0088 0346     		mov	r3, r0
1659:.\Generated_Source\PSoC5/Bootloader_1.c **** }
 1583              		.loc 1 1659 0
 1584 008a 1846     		mov	r0, r3
 1585 008c 1037     		adds	r7, r7, #16
 1586 008e BD46     		mov	sp, r7
 1587              		@ sp needed
 1588 0090 80BD     		pop	{r7, pc}
 1589              		.cfi_endproc
 1590              	.LFE72:
 1591              		.size	Bootloader_1_WritePacket, .-Bootloader_1_WritePacket
 1592 0092 00BF     		.section	.text.Bootloader_1_SetFlashByte,"ax",%progbits
 1593              		.align	2
 1594              		.global	Bootloader_1_SetFlashByte
 1595              		.thumb
 1596              		.thumb_func
 1597              		.type	Bootloader_1_SetFlashByte, %function
 1598              	Bootloader_1_SetFlashByte:
 1599              	.LFB73:
1660:.\Generated_Source\PSoC5/Bootloader_1.c **** 
1661:.\Generated_Source\PSoC5/Bootloader_1.c **** 
1662:.\Generated_Source\PSoC5/Bootloader_1.c **** /*******************************************************************************
1663:.\Generated_Source\PSoC5/Bootloader_1.c **** * Function Name: Bootloader_1_SetFlashByte
1664:.\Generated_Source\PSoC5/Bootloader_1.c **** ********************************************************************************
1665:.\Generated_Source\PSoC5/Bootloader_1.c **** *
1666:.\Generated_Source\PSoC5/Bootloader_1.c **** * Summary:
1667:.\Generated_Source\PSoC5/Bootloader_1.c **** *  Writes a byte to the specified Flash memory location.
1668:.\Generated_Source\PSoC5/Bootloader_1.c **** *
1669:.\Generated_Source\PSoC5/Bootloader_1.c **** * Parameters:
1670:.\Generated_Source\PSoC5/Bootloader_1.c **** *  address:
1671:.\Generated_Source\PSoC5/Bootloader_1.c **** *      The address in Flash memory where data will be written
1672:.\Generated_Source\PSoC5/Bootloader_1.c **** *
1673:.\Generated_Source\PSoC5/Bootloader_1.c **** *  runType:
1674:.\Generated_Source\PSoC5/Bootloader_1.c **** *      Byte to be written
1675:.\Generated_Source\PSoC5/Bootloader_1.c **** *
1676:.\Generated_Source\PSoC5/Bootloader_1.c **** * Return:
1677:.\Generated_Source\PSoC5/Bootloader_1.c **** *  None
1678:.\Generated_Source\PSoC5/Bootloader_1.c **** *
1679:.\Generated_Source\PSoC5/Bootloader_1.c **** *******************************************************************************/
1680:.\Generated_Source\PSoC5/Bootloader_1.c **** void Bootloader_1_SetFlashByte(uint32 address, uint8 runType) 
1681:.\Generated_Source\PSoC5/Bootloader_1.c **** {
 1600              		.loc 1 1681 0
ARM GAS  C:\Users\SISTEM~1\AppData\Local\Temp\ccZs07Hi.s 			page 59


 1601              		.cfi_startproc
 1602              		@ args = 0, pretend = 0, frame = 280
 1603              		@ frame_needed = 1, uses_anonymous_args = 0
 1604 0000 80B5     		push	{r7, lr}
 1605              		.cfi_def_cfa_offset 8
 1606              		.cfi_offset 7, -8
 1607              		.cfi_offset 14, -4
 1608 0002 C6B0     		sub	sp, sp, #280
 1609              		.cfi_def_cfa_offset 288
 1610 0004 00AF     		add	r7, sp, #0
 1611              		.cfi_def_cfa_register 7
 1612 0006 3B1D     		adds	r3, r7, #4
 1613 0008 1860     		str	r0, [r3]
 1614 000a 0A46     		mov	r2, r1
 1615 000c FB1C     		adds	r3, r7, #3
 1616 000e 1A70     		strb	r2, [r3]
1682:.\Generated_Source\PSoC5/Bootloader_1.c ****     uint32 flsAddr = address - CYDEV_FLASH_BASE;
 1617              		.loc 1 1682 0
 1618 0010 3B1D     		adds	r3, r7, #4
 1619 0012 1B68     		ldr	r3, [r3]
 1620 0014 C7F81031 		str	r3, [r7, #272]
1683:.\Generated_Source\PSoC5/Bootloader_1.c ****     uint8  rowData[CYDEV_FLS_ROW_SIZE];
1684:.\Generated_Source\PSoC5/Bootloader_1.c **** 
1685:.\Generated_Source\PSoC5/Bootloader_1.c ****     #if !(CY_PSOC4)
1686:.\Generated_Source\PSoC5/Bootloader_1.c ****         uint8 arrayId = ( uint8 )(flsAddr / CYDEV_FLS_SECTOR_SIZE);
 1621              		.loc 1 1686 0
 1622 0018 D7F81031 		ldr	r3, [r7, #272]
 1623 001c 1B0C     		lsrs	r3, r3, #16
 1624 001e 87F80F31 		strb	r3, [r7, #271]
1687:.\Generated_Source\PSoC5/Bootloader_1.c ****     #endif  /* !(CY_PSOC4) */
1688:.\Generated_Source\PSoC5/Bootloader_1.c **** 
1689:.\Generated_Source\PSoC5/Bootloader_1.c ****     #if (CY_PSOC4)
1690:.\Generated_Source\PSoC5/Bootloader_1.c ****         uint16 rowNum = ( uint16 )(flsAddr / CYDEV_FLS_ROW_SIZE);
1691:.\Generated_Source\PSoC5/Bootloader_1.c ****     #else
1692:.\Generated_Source\PSoC5/Bootloader_1.c ****         uint16 rowNum = ( uint16 )((flsAddr % CYDEV_FLS_SECTOR_SIZE) / CYDEV_FLS_ROW_SIZE);
 1625              		.loc 1 1692 0
 1626 0022 D7F81031 		ldr	r3, [r7, #272]
 1627 0026 9BB2     		uxth	r3, r3
 1628 0028 1B0A     		lsrs	r3, r3, #8
 1629 002a A7F80C31 		strh	r3, [r7, #268]	@ movhi
1693:.\Generated_Source\PSoC5/Bootloader_1.c ****     #endif  /* (CY_PSOC4) */
1694:.\Generated_Source\PSoC5/Bootloader_1.c **** 
1695:.\Generated_Source\PSoC5/Bootloader_1.c ****     uint32 baseAddr = address - (address % CYDEV_FLS_ROW_SIZE);
 1630              		.loc 1 1695 0
 1631 002e 3B1D     		adds	r3, r7, #4
 1632 0030 1B68     		ldr	r3, [r3]
 1633 0032 23F0FF03 		bic	r3, r3, #255
 1634 0036 C7F80831 		str	r3, [r7, #264]
1696:.\Generated_Source\PSoC5/Bootloader_1.c ****     uint16 idx;
1697:.\Generated_Source\PSoC5/Bootloader_1.c **** 
1698:.\Generated_Source\PSoC5/Bootloader_1.c ****     for(idx = 0u; idx < CYDEV_FLS_ROW_SIZE; idx++)
 1635              		.loc 1 1698 0
 1636 003a 0023     		movs	r3, #0
 1637 003c A7F81631 		strh	r3, [r7, #278]	@ movhi
 1638 0040 0FE0     		b	.L111
 1639              	.L112:
1699:.\Generated_Source\PSoC5/Bootloader_1.c ****     {
ARM GAS  C:\Users\SISTEM~1\AppData\Local\Temp\ccZs07Hi.s 			page 60


1700:.\Generated_Source\PSoC5/Bootloader_1.c ****         rowData[idx] = Bootloader_1_GET_CODE_BYTE(baseAddr + idx);
 1640              		.loc 1 1700 0 discriminator 2
 1641 0042 B7F81631 		ldrh	r3, [r7, #278]
 1642 0046 B7F81611 		ldrh	r1, [r7, #278]
 1643 004a D7F80821 		ldr	r2, [r7, #264]
 1644 004e 0A44     		add	r2, r2, r1
 1645 0050 1178     		ldrb	r1, [r2]	@ zero_extendqisi2
 1646 0052 07F10802 		add	r2, r7, #8
 1647 0056 D154     		strb	r1, [r2, r3]
1698:.\Generated_Source\PSoC5/Bootloader_1.c ****     for(idx = 0u; idx < CYDEV_FLS_ROW_SIZE; idx++)
 1648              		.loc 1 1698 0 discriminator 2
 1649 0058 B7F81631 		ldrh	r3, [r7, #278]
 1650 005c 0133     		adds	r3, r3, #1
 1651 005e A7F81631 		strh	r3, [r7, #278]	@ movhi
 1652              	.L111:
1698:.\Generated_Source\PSoC5/Bootloader_1.c ****     for(idx = 0u; idx < CYDEV_FLS_ROW_SIZE; idx++)
 1653              		.loc 1 1698 0 is_stmt 0 discriminator 1
 1654 0062 B7F81631 		ldrh	r3, [r7, #278]
 1655 0066 FF2B     		cmp	r3, #255
 1656 0068 EBD9     		bls	.L112
1701:.\Generated_Source\PSoC5/Bootloader_1.c ****     }
1702:.\Generated_Source\PSoC5/Bootloader_1.c **** 
1703:.\Generated_Source\PSoC5/Bootloader_1.c ****     rowData[address % CYDEV_FLS_ROW_SIZE] = runType;
 1657              		.loc 1 1703 0 is_stmt 1
 1658 006a 3B1D     		adds	r3, r7, #4
 1659 006c 1B68     		ldr	r3, [r3]
 1660 006e DBB2     		uxtb	r3, r3
 1661 0070 07F10802 		add	r2, r7, #8
 1662 0074 F91C     		adds	r1, r7, #3
 1663 0076 0978     		ldrb	r1, [r1]
 1664 0078 D154     		strb	r1, [r2, r3]
1704:.\Generated_Source\PSoC5/Bootloader_1.c **** 
1705:.\Generated_Source\PSoC5/Bootloader_1.c ****     #if(CY_PSOC4)
1706:.\Generated_Source\PSoC5/Bootloader_1.c ****         (void) CySysFlashWriteRow((uint32) rowNum, rowData);
1707:.\Generated_Source\PSoC5/Bootloader_1.c ****     #else
1708:.\Generated_Source\PSoC5/Bootloader_1.c ****         (void) CyWriteRowData(arrayId, rowNum, rowData);
 1665              		.loc 1 1708 0
 1666 007a 97F80F11 		ldrb	r1, [r7, #271]	@ zero_extendqisi2
 1667 007e B7F80C21 		ldrh	r2, [r7, #268]
 1668 0082 07F10803 		add	r3, r7, #8
 1669 0086 0846     		mov	r0, r1
 1670 0088 1146     		mov	r1, r2
 1671 008a 1A46     		mov	r2, r3
 1672 008c FFF7FEFF 		bl	CyWriteRowData
1709:.\Generated_Source\PSoC5/Bootloader_1.c ****     #endif  /* (CY_PSOC4) */
1710:.\Generated_Source\PSoC5/Bootloader_1.c **** 
1711:.\Generated_Source\PSoC5/Bootloader_1.c ****     #if(CY_PSOC5)
1712:.\Generated_Source\PSoC5/Bootloader_1.c ****         /***************************************************************************
1713:.\Generated_Source\PSoC5/Bootloader_1.c ****         * When writing Flash, data in the instruction cache can become stale.
1714:.\Generated_Source\PSoC5/Bootloader_1.c ****         * Therefore, the cache data does not correlate to the data just written to
1715:.\Generated_Source\PSoC5/Bootloader_1.c ****         * Flash. A call to CyFlushCache() is required to invalidate the data in the
1716:.\Generated_Source\PSoC5/Bootloader_1.c ****         * cache and force fresh information to be loaded from Flash.
1717:.\Generated_Source\PSoC5/Bootloader_1.c ****         ***************************************************************************/
1718:.\Generated_Source\PSoC5/Bootloader_1.c ****         CyFlushCache();
 1673              		.loc 1 1718 0
 1674 0090 FFF7FEFF 		bl	CyFlushCache
1719:.\Generated_Source\PSoC5/Bootloader_1.c ****     #endif /* (CY_PSOC5) */
ARM GAS  C:\Users\SISTEM~1\AppData\Local\Temp\ccZs07Hi.s 			page 61


1720:.\Generated_Source\PSoC5/Bootloader_1.c **** }
 1675              		.loc 1 1720 0
 1676 0094 07F58C77 		add	r7, r7, #280
 1677 0098 BD46     		mov	sp, r7
 1678              		@ sp needed
 1679 009a 80BD     		pop	{r7, pc}
 1680              		.cfi_endproc
 1681              	.LFE73:
 1682              		.size	Bootloader_1_SetFlashByte, .-Bootloader_1_SetFlashByte
 1683              		.section	.text.Bootloader_1_GetMetadata,"ax",%progbits
 1684              		.align	2
 1685              		.global	Bootloader_1_GetMetadata
 1686              		.thumb
 1687              		.thumb_func
 1688              		.type	Bootloader_1_GetMetadata, %function
 1689              	Bootloader_1_GetMetadata:
 1690              	.LFB74:
1721:.\Generated_Source\PSoC5/Bootloader_1.c **** 
1722:.\Generated_Source\PSoC5/Bootloader_1.c **** 
1723:.\Generated_Source\PSoC5/Bootloader_1.c **** /*******************************************************************************
1724:.\Generated_Source\PSoC5/Bootloader_1.c **** * Function Name: Bootloader_1_GetMetadata
1725:.\Generated_Source\PSoC5/Bootloader_1.c **** ********************************************************************************
1726:.\Generated_Source\PSoC5/Bootloader_1.c **** *
1727:.\Generated_Source\PSoC5/Bootloader_1.c **** * Summary:
1728:.\Generated_Source\PSoC5/Bootloader_1.c **** *  Returns the value of the specified field of the metadata section.
1729:.\Generated_Source\PSoC5/Bootloader_1.c **** *
1730:.\Generated_Source\PSoC5/Bootloader_1.c **** * Parameters:
1731:.\Generated_Source\PSoC5/Bootloader_1.c **** *  field:
1732:.\Generated_Source\PSoC5/Bootloader_1.c **** *   The field to get data from:
1733:.\Generated_Source\PSoC5/Bootloader_1.c **** *   Bootloader_1_GET_BTLDB_CHECKSUM    - Bootloadable Application Checksum
1734:.\Generated_Source\PSoC5/Bootloader_1.c **** *   Bootloader_1_GET_BTLDB_ADDR        - Bootloadable Application Start
1735:.\Generated_Source\PSoC5/Bootloader_1.c **** *                                            Routine Address
1736:.\Generated_Source\PSoC5/Bootloader_1.c **** *   Bootloader_1_GET_BTLDR_LAST_ROW    - Bootloader Last Flash Row
1737:.\Generated_Source\PSoC5/Bootloader_1.c **** *   Bootloader_1_GET_BTLDB_LENGTH      - Bootloadable Application Length
1738:.\Generated_Source\PSoC5/Bootloader_1.c **** *   Bootloader_1_GET_BTLDB_ACTIVE      - Active Bootloadable Application
1739:.\Generated_Source\PSoC5/Bootloader_1.c **** *   Bootloader_1_GET_BTLDB_STATUS      - Bootloadable Application
1740:.\Generated_Source\PSoC5/Bootloader_1.c **** *                                            Verification Status
1741:.\Generated_Source\PSoC5/Bootloader_1.c **** *   Bootloader_1_GET_BTLDR_APP_VERSION - Bootloader Application Version
1742:.\Generated_Source\PSoC5/Bootloader_1.c **** *   Bootloader_1_GET_BTLDB_APP_VERSION - Bootloadable Application Version
1743:.\Generated_Source\PSoC5/Bootloader_1.c **** *   Bootloader_1_GET_BTLDB_APP_ID      - Bootloadable Application ID
1744:.\Generated_Source\PSoC5/Bootloader_1.c **** *   Bootloader_1_GET_BTLDB_APP_CUST_ID - Bootloadable Application Custom ID
1745:.\Generated_Source\PSoC5/Bootloader_1.c **** *
1746:.\Generated_Source\PSoC5/Bootloader_1.c **** *  appId:
1747:.\Generated_Source\PSoC5/Bootloader_1.c **** *   Number of the bootlodable application. Should be 0 for the normal
1748:.\Generated_Source\PSoC5/Bootloader_1.c **** *   bootloader and 0 or 1 for the Multi-Application bootloader.
1749:.\Generated_Source\PSoC5/Bootloader_1.c **** *
1750:.\Generated_Source\PSoC5/Bootloader_1.c **** * Return:
1751:.\Generated_Source\PSoC5/Bootloader_1.c **** *  The value of the specified field of the specified application.
1752:.\Generated_Source\PSoC5/Bootloader_1.c **** *
1753:.\Generated_Source\PSoC5/Bootloader_1.c **** *******************************************************************************/
1754:.\Generated_Source\PSoC5/Bootloader_1.c **** uint32 Bootloader_1_GetMetadata(uint8 field, uint8 appId)
1755:.\Generated_Source\PSoC5/Bootloader_1.c **** {
 1691              		.loc 1 1755 0
 1692              		.cfi_startproc
 1693              		@ args = 0, pretend = 0, frame = 24
 1694              		@ frame_needed = 1, uses_anonymous_args = 0
 1695 0000 80B5     		push	{r7, lr}
ARM GAS  C:\Users\SISTEM~1\AppData\Local\Temp\ccZs07Hi.s 			page 62


 1696              		.cfi_def_cfa_offset 8
 1697              		.cfi_offset 7, -8
 1698              		.cfi_offset 14, -4
 1699 0002 86B0     		sub	sp, sp, #24
 1700              		.cfi_def_cfa_offset 32
 1701 0004 00AF     		add	r7, sp, #0
 1702              		.cfi_def_cfa_register 7
 1703 0006 0246     		mov	r2, r0
 1704 0008 0B46     		mov	r3, r1
 1705 000a FA71     		strb	r2, [r7, #7]
 1706 000c BB71     		strb	r3, [r7, #6]
1756:.\Generated_Source\PSoC5/Bootloader_1.c ****     uint32 fieldPtr;
1757:.\Generated_Source\PSoC5/Bootloader_1.c ****     uint8  fieldSize = 2u;
 1707              		.loc 1 1757 0
 1708 000e 0223     		movs	r3, #2
 1709 0010 FB74     		strb	r3, [r7, #19]
1758:.\Generated_Source\PSoC5/Bootloader_1.c ****     uint32 result = 0u;
 1710              		.loc 1 1758 0
 1711 0012 0023     		movs	r3, #0
 1712 0014 FB60     		str	r3, [r7, #12]
1759:.\Generated_Source\PSoC5/Bootloader_1.c **** 
1760:.\Generated_Source\PSoC5/Bootloader_1.c ****     switch (field)
 1713              		.loc 1 1760 0
 1714 0016 FB79     		ldrb	r3, [r7, #7]	@ zero_extendqisi2
 1715 0018 013B     		subs	r3, r3, #1
 1716 001a 092B     		cmp	r3, #9
 1717 001c 00F29280 		bhi	.L114
 1718 0020 01A2     		adr	r2, .L116
 1719 0022 52F823F0 		ldr	pc, [r2, r3, lsl #2]
 1720 0026 00BF     		.p2align 2
 1721              	.L116:
 1722 0028 51000000 		.word	.L115+1
 1723 002c 6B000000 		.word	.L117+1
 1724 0030 85000000 		.word	.L118+1
 1725 0034 9B000000 		.word	.L119+1
 1726 0038 B5000000 		.word	.L120+1
 1727 003c CF000000 		.word	.L121+1
 1728 0040 FF000000 		.word	.L122+1
 1729 0044 E9000000 		.word	.L123+1
 1730 0048 15010000 		.word	.L124+1
 1731 004c 2B010000 		.word	.L125+1
 1732              		.p2align 1
 1733              	.L115:
1761:.\Generated_Source\PSoC5/Bootloader_1.c ****     {
1762:.\Generated_Source\PSoC5/Bootloader_1.c ****     case Bootloader_1_GET_BTLDB_CHECKSUM:
1763:.\Generated_Source\PSoC5/Bootloader_1.c ****         fieldPtr  = Bootloader_1_MD_BTLDB_CHECKSUM_OFFSET(appId);
 1734              		.loc 1 1763 0
 1735 0050 BA79     		ldrb	r2, [r7, #6]	@ zero_extendqisi2
 1736 0052 1346     		mov	r3, r2
 1737 0054 1B06     		lsls	r3, r3, #24
 1738 0056 9B1A     		subs	r3, r3, r2
 1739 0058 1B02     		lsls	r3, r3, #8
 1740 005a 03F57F33 		add	r3, r3, #261120
 1741 005e 03F57073 		add	r3, r3, #960
 1742 0062 7B61     		str	r3, [r7, #20]
1764:.\Generated_Source\PSoC5/Bootloader_1.c ****         fieldSize = 1u;
 1743              		.loc 1 1764 0
ARM GAS  C:\Users\SISTEM~1\AppData\Local\Temp\ccZs07Hi.s 			page 63


 1744 0064 0123     		movs	r3, #1
 1745 0066 FB74     		strb	r3, [r7, #19]
1765:.\Generated_Source\PSoC5/Bootloader_1.c ****         break;
 1746              		.loc 1 1765 0
 1747 0068 72E0     		b	.L126
 1748              	.L117:
1766:.\Generated_Source\PSoC5/Bootloader_1.c **** 
1767:.\Generated_Source\PSoC5/Bootloader_1.c ****     case Bootloader_1_GET_BTLDB_ADDR:
1768:.\Generated_Source\PSoC5/Bootloader_1.c ****         fieldPtr  = Bootloader_1_MD_BTLDB_ADDR_OFFSET(appId);
 1749              		.loc 1 1768 0
 1750 006a BA79     		ldrb	r2, [r7, #6]	@ zero_extendqisi2
 1751 006c 1346     		mov	r3, r2
 1752 006e 1B06     		lsls	r3, r3, #24
 1753 0070 9B1A     		subs	r3, r3, r2
 1754 0072 1B02     		lsls	r3, r3, #8
 1755 0074 03F57F33 		add	r3, r3, #261120
 1756 0078 03F2C133 		addw	r3, r3, #961
 1757 007c 7B61     		str	r3, [r7, #20]
1769:.\Generated_Source\PSoC5/Bootloader_1.c ****     #if(!CY_PSOC3)
1770:.\Generated_Source\PSoC5/Bootloader_1.c ****         fieldSize = 4u;
 1758              		.loc 1 1770 0
 1759 007e 0423     		movs	r3, #4
 1760 0080 FB74     		strb	r3, [r7, #19]
1771:.\Generated_Source\PSoC5/Bootloader_1.c ****     #endif  /* (!CY_PSOC3) */
1772:.\Generated_Source\PSoC5/Bootloader_1.c ****         break;
 1761              		.loc 1 1772 0
 1762 0082 65E0     		b	.L126
 1763              	.L118:
1773:.\Generated_Source\PSoC5/Bootloader_1.c **** 
1774:.\Generated_Source\PSoC5/Bootloader_1.c ****     case Bootloader_1_GET_BTLDR_LAST_ROW:
1775:.\Generated_Source\PSoC5/Bootloader_1.c ****         fieldPtr  = Bootloader_1_MD_BTLDR_LAST_ROW_OFFSET(appId);
 1764              		.loc 1 1775 0
 1765 0084 BA79     		ldrb	r2, [r7, #6]	@ zero_extendqisi2
 1766 0086 1346     		mov	r3, r2
 1767 0088 1B06     		lsls	r3, r3, #24
 1768 008a 9B1A     		subs	r3, r3, r2
 1769 008c 1B02     		lsls	r3, r3, #8
 1770 008e 03F57F33 		add	r3, r3, #261120
 1771 0092 03F2C533 		addw	r3, r3, #965
 1772 0096 7B61     		str	r3, [r7, #20]
1776:.\Generated_Source\PSoC5/Bootloader_1.c ****         break;
 1773              		.loc 1 1776 0
 1774 0098 5AE0     		b	.L126
 1775              	.L119:
1777:.\Generated_Source\PSoC5/Bootloader_1.c **** 
1778:.\Generated_Source\PSoC5/Bootloader_1.c ****     case Bootloader_1_GET_BTLDB_LENGTH:
1779:.\Generated_Source\PSoC5/Bootloader_1.c ****         fieldPtr  = Bootloader_1_MD_BTLDB_LENGTH_OFFSET(appId);
 1776              		.loc 1 1779 0
 1777 009a BA79     		ldrb	r2, [r7, #6]	@ zero_extendqisi2
 1778 009c 1346     		mov	r3, r2
 1779 009e 1B06     		lsls	r3, r3, #24
 1780 00a0 9B1A     		subs	r3, r3, r2
 1781 00a2 1B02     		lsls	r3, r3, #8
 1782 00a4 03F57F33 		add	r3, r3, #261120
 1783 00a8 03F2C933 		addw	r3, r3, #969
 1784 00ac 7B61     		str	r3, [r7, #20]
1780:.\Generated_Source\PSoC5/Bootloader_1.c ****     #if(!CY_PSOC3)
ARM GAS  C:\Users\SISTEM~1\AppData\Local\Temp\ccZs07Hi.s 			page 64


1781:.\Generated_Source\PSoC5/Bootloader_1.c ****         fieldSize = 4u;
 1785              		.loc 1 1781 0
 1786 00ae 0423     		movs	r3, #4
 1787 00b0 FB74     		strb	r3, [r7, #19]
1782:.\Generated_Source\PSoC5/Bootloader_1.c ****     #endif  /* (!CY_PSOC3) */
1783:.\Generated_Source\PSoC5/Bootloader_1.c ****         break;
 1788              		.loc 1 1783 0
 1789 00b2 4DE0     		b	.L126
 1790              	.L120:
1784:.\Generated_Source\PSoC5/Bootloader_1.c **** 
1785:.\Generated_Source\PSoC5/Bootloader_1.c ****     case Bootloader_1_GET_BTLDB_ACTIVE:
1786:.\Generated_Source\PSoC5/Bootloader_1.c ****         fieldPtr  = Bootloader_1_MD_BTLDB_ACTIVE_OFFSET(appId);
 1791              		.loc 1 1786 0
 1792 00b4 BA79     		ldrb	r2, [r7, #6]	@ zero_extendqisi2
 1793 00b6 1346     		mov	r3, r2
 1794 00b8 1B06     		lsls	r3, r3, #24
 1795 00ba 9B1A     		subs	r3, r3, r2
 1796 00bc 1B02     		lsls	r3, r3, #8
 1797 00be 03F57F33 		add	r3, r3, #261120
 1798 00c2 03F57473 		add	r3, r3, #976
 1799 00c6 7B61     		str	r3, [r7, #20]
1787:.\Generated_Source\PSoC5/Bootloader_1.c ****         fieldSize = 1u;
 1800              		.loc 1 1787 0
 1801 00c8 0123     		movs	r3, #1
 1802 00ca FB74     		strb	r3, [r7, #19]
1788:.\Generated_Source\PSoC5/Bootloader_1.c ****         break;
 1803              		.loc 1 1788 0
 1804 00cc 40E0     		b	.L126
 1805              	.L121:
1789:.\Generated_Source\PSoC5/Bootloader_1.c **** 
1790:.\Generated_Source\PSoC5/Bootloader_1.c ****     case Bootloader_1_GET_BTLDB_STATUS:
1791:.\Generated_Source\PSoC5/Bootloader_1.c ****         fieldPtr  = Bootloader_1_MD_BTLDB_VERIFIED_OFFSET(appId);
 1806              		.loc 1 1791 0
 1807 00ce BA79     		ldrb	r2, [r7, #6]	@ zero_extendqisi2
 1808 00d0 1346     		mov	r3, r2
 1809 00d2 1B06     		lsls	r3, r3, #24
 1810 00d4 9B1A     		subs	r3, r3, r2
 1811 00d6 1B02     		lsls	r3, r3, #8
 1812 00d8 03F57F33 		add	r3, r3, #261120
 1813 00dc 03F2D133 		addw	r3, r3, #977
 1814 00e0 7B61     		str	r3, [r7, #20]
1792:.\Generated_Source\PSoC5/Bootloader_1.c ****         fieldSize = 1u;
 1815              		.loc 1 1792 0
 1816 00e2 0123     		movs	r3, #1
 1817 00e4 FB74     		strb	r3, [r7, #19]
1793:.\Generated_Source\PSoC5/Bootloader_1.c ****         break;
 1818              		.loc 1 1793 0
 1819 00e6 33E0     		b	.L126
 1820              	.L123:
1794:.\Generated_Source\PSoC5/Bootloader_1.c **** 
1795:.\Generated_Source\PSoC5/Bootloader_1.c ****     case Bootloader_1_GET_BTLDB_APP_VERSION:
1796:.\Generated_Source\PSoC5/Bootloader_1.c ****         fieldPtr  = Bootloader_1_MD_BTLDB_APP_VERSION_OFFSET(appId);
 1821              		.loc 1 1796 0
 1822 00e8 BA79     		ldrb	r2, [r7, #6]	@ zero_extendqisi2
 1823 00ea 1346     		mov	r3, r2
 1824 00ec 1B06     		lsls	r3, r3, #24
 1825 00ee 9B1A     		subs	r3, r3, r2
ARM GAS  C:\Users\SISTEM~1\AppData\Local\Temp\ccZs07Hi.s 			page 65


 1826 00f0 1B02     		lsls	r3, r3, #8
 1827 00f2 03F57F33 		add	r3, r3, #261120
 1828 00f6 03F2D633 		addw	r3, r3, #982
 1829 00fa 7B61     		str	r3, [r7, #20]
1797:.\Generated_Source\PSoC5/Bootloader_1.c ****         break;
 1830              		.loc 1 1797 0
 1831 00fc 28E0     		b	.L126
 1832              	.L122:
1798:.\Generated_Source\PSoC5/Bootloader_1.c **** 
1799:.\Generated_Source\PSoC5/Bootloader_1.c ****     case Bootloader_1_GET_BTLDR_APP_VERSION:
1800:.\Generated_Source\PSoC5/Bootloader_1.c ****         fieldPtr  = Bootloader_1_MD_BTLDR_APP_VERSION_OFFSET(appId);
 1833              		.loc 1 1800 0
 1834 00fe BA79     		ldrb	r2, [r7, #6]	@ zero_extendqisi2
 1835 0100 1346     		mov	r3, r2
 1836 0102 1B06     		lsls	r3, r3, #24
 1837 0104 9B1A     		subs	r3, r3, r2
 1838 0106 1B02     		lsls	r3, r3, #8
 1839 0108 03F57F33 		add	r3, r3, #261120
 1840 010c 03F2D233 		addw	r3, r3, #978
 1841 0110 7B61     		str	r3, [r7, #20]
1801:.\Generated_Source\PSoC5/Bootloader_1.c ****         break;
 1842              		.loc 1 1801 0
 1843 0112 1DE0     		b	.L126
 1844              	.L124:
1802:.\Generated_Source\PSoC5/Bootloader_1.c **** 
1803:.\Generated_Source\PSoC5/Bootloader_1.c ****     case Bootloader_1_GET_BTLDB_APP_ID:
1804:.\Generated_Source\PSoC5/Bootloader_1.c ****         fieldPtr  = Bootloader_1_MD_BTLDB_APP_ID_OFFSET(appId);
 1845              		.loc 1 1804 0
 1846 0114 BA79     		ldrb	r2, [r7, #6]	@ zero_extendqisi2
 1847 0116 1346     		mov	r3, r2
 1848 0118 1B06     		lsls	r3, r3, #24
 1849 011a 9B1A     		subs	r3, r3, r2
 1850 011c 1B02     		lsls	r3, r3, #8
 1851 011e 03F57F33 		add	r3, r3, #261120
 1852 0122 03F57573 		add	r3, r3, #980
 1853 0126 7B61     		str	r3, [r7, #20]
1805:.\Generated_Source\PSoC5/Bootloader_1.c ****         break;
 1854              		.loc 1 1805 0
 1855 0128 12E0     		b	.L126
 1856              	.L125:
1806:.\Generated_Source\PSoC5/Bootloader_1.c **** 
1807:.\Generated_Source\PSoC5/Bootloader_1.c ****     case Bootloader_1_GET_BTLDB_APP_CUST_ID:
1808:.\Generated_Source\PSoC5/Bootloader_1.c ****         fieldPtr  = Bootloader_1_MD_BTLDB_APP_CUST_ID_OFFSET(appId);
 1857              		.loc 1 1808 0
 1858 012a BA79     		ldrb	r2, [r7, #6]	@ zero_extendqisi2
 1859 012c 1346     		mov	r3, r2
 1860 012e 1B06     		lsls	r3, r3, #24
 1861 0130 9B1A     		subs	r3, r3, r2
 1862 0132 1B02     		lsls	r3, r3, #8
 1863 0134 03F57F33 		add	r3, r3, #261120
 1864 0138 03F57673 		add	r3, r3, #984
 1865 013c 7B61     		str	r3, [r7, #20]
1809:.\Generated_Source\PSoC5/Bootloader_1.c ****         fieldSize = 4u;
 1866              		.loc 1 1809 0
 1867 013e 0423     		movs	r3, #4
 1868 0140 FB74     		strb	r3, [r7, #19]
1810:.\Generated_Source\PSoC5/Bootloader_1.c ****         break;
ARM GAS  C:\Users\SISTEM~1\AppData\Local\Temp\ccZs07Hi.s 			page 66


 1869              		.loc 1 1810 0
 1870 0142 05E0     		b	.L126
 1871              	.L114:
1811:.\Generated_Source\PSoC5/Bootloader_1.c **** 
1812:.\Generated_Source\PSoC5/Bootloader_1.c ****     default:
1813:.\Generated_Source\PSoC5/Bootloader_1.c ****         /* Should never be here */
1814:.\Generated_Source\PSoC5/Bootloader_1.c ****         CYASSERT(0u != 0u);
 1872              		.loc 1 1814 0
 1873 0144 0020     		movs	r0, #0
 1874 0146 FFF7FEFF 		bl	CyHalt
1815:.\Generated_Source\PSoC5/Bootloader_1.c ****         fieldPtr  = 0u;
 1875              		.loc 1 1815 0
 1876 014a 0023     		movs	r3, #0
 1877 014c 7B61     		str	r3, [r7, #20]
1816:.\Generated_Source\PSoC5/Bootloader_1.c ****         break;
 1878              		.loc 1 1816 0
 1879 014e 00BF     		nop
 1880              	.L126:
1817:.\Generated_Source\PSoC5/Bootloader_1.c ****     }
1818:.\Generated_Source\PSoC5/Bootloader_1.c **** 
1819:.\Generated_Source\PSoC5/Bootloader_1.c **** 
1820:.\Generated_Source\PSoC5/Bootloader_1.c ****     if (1u == fieldSize)
 1881              		.loc 1 1820 0
 1882 0150 FB7C     		ldrb	r3, [r7, #19]	@ zero_extendqisi2
 1883 0152 012B     		cmp	r3, #1
 1884 0154 03D1     		bne	.L127
1821:.\Generated_Source\PSoC5/Bootloader_1.c ****     {
1822:.\Generated_Source\PSoC5/Bootloader_1.c ****         result =  (uint32) CY_GET_XTND_REG8((volatile uint8 *)fieldPtr);
 1885              		.loc 1 1822 0
 1886 0156 7B69     		ldr	r3, [r7, #20]
 1887 0158 1B78     		ldrb	r3, [r3]
 1888 015a DBB2     		uxtb	r3, r3
 1889 015c FB60     		str	r3, [r7, #12]
 1890              	.L127:
1823:.\Generated_Source\PSoC5/Bootloader_1.c ****     }
1824:.\Generated_Source\PSoC5/Bootloader_1.c **** 
1825:.\Generated_Source\PSoC5/Bootloader_1.c ****     #if(CY_PSOC3)   /* Big-endian */
1826:.\Generated_Source\PSoC5/Bootloader_1.c **** 
1827:.\Generated_Source\PSoC5/Bootloader_1.c ****         if (2u == fieldSize)
1828:.\Generated_Source\PSoC5/Bootloader_1.c ****         {
1829:.\Generated_Source\PSoC5/Bootloader_1.c ****             result =  (uint32) CY_GET_XTND_REG8((volatile uint8 *)(fieldPtr + 1u));
1830:.\Generated_Source\PSoC5/Bootloader_1.c ****             result |= (uint32) CY_GET_XTND_REG8((volatile uint8 *)(fieldPtr     )) <<  8u;
1831:.\Generated_Source\PSoC5/Bootloader_1.c ****         }
1832:.\Generated_Source\PSoC5/Bootloader_1.c **** 
1833:.\Generated_Source\PSoC5/Bootloader_1.c ****         if (4u == fieldSize)
1834:.\Generated_Source\PSoC5/Bootloader_1.c ****         {
1835:.\Generated_Source\PSoC5/Bootloader_1.c ****             result =  (uint32) CY_GET_XTND_REG8((volatile uint8 *)(fieldPtr + 3u));
1836:.\Generated_Source\PSoC5/Bootloader_1.c ****             result |= (uint32) CY_GET_XTND_REG8((volatile uint8 *)(fieldPtr + 2u)) <<  8u;
1837:.\Generated_Source\PSoC5/Bootloader_1.c ****             result |= (uint32) CY_GET_XTND_REG8((volatile uint8 *)(fieldPtr + 1u)) << 16u;
1838:.\Generated_Source\PSoC5/Bootloader_1.c ****             result |= (uint32) CY_GET_XTND_REG8((volatile uint8 *)(fieldPtr     )) << 24u;
1839:.\Generated_Source\PSoC5/Bootloader_1.c ****         }
1840:.\Generated_Source\PSoC5/Bootloader_1.c **** 
1841:.\Generated_Source\PSoC5/Bootloader_1.c ****     #else   /* PSoC 4 and PSoC 5: Little-endian */
1842:.\Generated_Source\PSoC5/Bootloader_1.c **** 
1843:.\Generated_Source\PSoC5/Bootloader_1.c ****         if (2u == fieldSize)
 1891              		.loc 1 1843 0
 1892 015e FB7C     		ldrb	r3, [r7, #19]	@ zero_extendqisi2
ARM GAS  C:\Users\SISTEM~1\AppData\Local\Temp\ccZs07Hi.s 			page 67


 1893 0160 022B     		cmp	r3, #2
 1894 0162 0BD1     		bne	.L128
1844:.\Generated_Source\PSoC5/Bootloader_1.c ****         {
1845:.\Generated_Source\PSoC5/Bootloader_1.c ****             result =  (uint32) CY_GET_XTND_REG8((volatile uint8 *) (fieldPtr     ));
 1895              		.loc 1 1845 0
 1896 0164 7B69     		ldr	r3, [r7, #20]
 1897 0166 1B78     		ldrb	r3, [r3]
 1898 0168 DBB2     		uxtb	r3, r3
 1899 016a FB60     		str	r3, [r7, #12]
1846:.\Generated_Source\PSoC5/Bootloader_1.c ****             result |= (uint32) CY_GET_XTND_REG8((volatile uint8 *) (fieldPtr + 1u)) <<  8u;
 1900              		.loc 1 1846 0
 1901 016c 7B69     		ldr	r3, [r7, #20]
 1902 016e 0133     		adds	r3, r3, #1
 1903 0170 1B78     		ldrb	r3, [r3]
 1904 0172 DBB2     		uxtb	r3, r3
 1905 0174 1B02     		lsls	r3, r3, #8
 1906 0176 FA68     		ldr	r2, [r7, #12]
 1907 0178 1343     		orrs	r3, r3, r2
 1908 017a FB60     		str	r3, [r7, #12]
 1909              	.L128:
1847:.\Generated_Source\PSoC5/Bootloader_1.c ****         }
1848:.\Generated_Source\PSoC5/Bootloader_1.c **** 
1849:.\Generated_Source\PSoC5/Bootloader_1.c ****         if (4u == fieldSize)
 1910              		.loc 1 1849 0
 1911 017c FB7C     		ldrb	r3, [r7, #19]	@ zero_extendqisi2
 1912 017e 042B     		cmp	r3, #4
 1913 0180 1BD1     		bne	.L129
1850:.\Generated_Source\PSoC5/Bootloader_1.c ****         {
1851:.\Generated_Source\PSoC5/Bootloader_1.c ****             result =  (uint32) CY_GET_XTND_REG8((volatile uint8 *)(fieldPtr     ));
 1914              		.loc 1 1851 0
 1915 0182 7B69     		ldr	r3, [r7, #20]
 1916 0184 1B78     		ldrb	r3, [r3]
 1917 0186 DBB2     		uxtb	r3, r3
 1918 0188 FB60     		str	r3, [r7, #12]
1852:.\Generated_Source\PSoC5/Bootloader_1.c ****             result |= (uint32) CY_GET_XTND_REG8((volatile uint8 *)(fieldPtr + 1u)) <<  8u;
