ARM GAS  C:\Users\RECEPC~1\AppData\Local\Temp\ccS4CeFf.s 			page 1


   1              		.syntax unified
   2              		.cpu cortex-m3
   3              		.fpu softvfp
   4              		.eabi_attribute 20, 1
   5              		.eabi_attribute 21, 1
   6              		.eabi_attribute 23, 3
   7              		.eabi_attribute 24, 1
   8              		.eabi_attribute 25, 1
   9              		.eabi_attribute 26, 1
  10              		.eabi_attribute 30, 1
  11              		.eabi_attribute 34, 1
  12              		.eabi_attribute 18, 4
  13              		.thumb
  14              		.file	"I2C_1.c"
  15              		.text
  16              	.Ltext0:
  17              		.cfi_sections	.debug_frame
  18              		.section	.text.I2C_1_Init,"ax",%progbits
  19              		.align	2
  20              		.global	I2C_1_Init
  21              		.thumb
  22              		.thumb_func
  23              		.type	I2C_1_Init, %function
  24              	I2C_1_Init:
  25              	.LFB0:
  26              		.file 1 ".\\Generated_Source\\PSoC5\\I2C_1.c"
   1:.\Generated_Source\PSoC5/I2C_1.c **** /*******************************************************************************
   2:.\Generated_Source\PSoC5/I2C_1.c **** * File Name: I2C_1.c
   3:.\Generated_Source\PSoC5/I2C_1.c **** * Version 3.30
   4:.\Generated_Source\PSoC5/I2C_1.c **** *
   5:.\Generated_Source\PSoC5/I2C_1.c **** * Description:
   6:.\Generated_Source\PSoC5/I2C_1.c **** *  This file provides the source code of APIs for the I2C component.
   7:.\Generated_Source\PSoC5/I2C_1.c **** *  Actual protocol and operation code resides in the interrupt service routine
   8:.\Generated_Source\PSoC5/I2C_1.c **** *  file.
   9:.\Generated_Source\PSoC5/I2C_1.c **** *
  10:.\Generated_Source\PSoC5/I2C_1.c **** * Note:
  11:.\Generated_Source\PSoC5/I2C_1.c **** *
  12:.\Generated_Source\PSoC5/I2C_1.c **** *******************************************************************************
  13:.\Generated_Source\PSoC5/I2C_1.c **** * Copyright 2008-2012, Cypress Semiconductor Corporation. All rights reserved.
  14:.\Generated_Source\PSoC5/I2C_1.c **** * You may use this file only in accordance with the license, terms, conditions,
  15:.\Generated_Source\PSoC5/I2C_1.c **** * disclaimers, and limitations in the end user license agreement accompanying
  16:.\Generated_Source\PSoC5/I2C_1.c **** * the software package with which this file was provided.
  17:.\Generated_Source\PSoC5/I2C_1.c **** *******************************************************************************/
  18:.\Generated_Source\PSoC5/I2C_1.c **** 
  19:.\Generated_Source\PSoC5/I2C_1.c **** #include "I2C_1_PVT.h"
  20:.\Generated_Source\PSoC5/I2C_1.c **** 
  21:.\Generated_Source\PSoC5/I2C_1.c **** 
  22:.\Generated_Source\PSoC5/I2C_1.c **** /**********************************
  23:.\Generated_Source\PSoC5/I2C_1.c **** *      System variables
  24:.\Generated_Source\PSoC5/I2C_1.c **** **********************************/
  25:.\Generated_Source\PSoC5/I2C_1.c **** 
  26:.\Generated_Source\PSoC5/I2C_1.c **** uint8 I2C_1_initVar = 0u;    /* Defines if component was initialized */
  27:.\Generated_Source\PSoC5/I2C_1.c **** 
  28:.\Generated_Source\PSoC5/I2C_1.c **** volatile uint8 I2C_1_state;  /* Current state of I2C FSM */
  29:.\Generated_Source\PSoC5/I2C_1.c **** 
  30:.\Generated_Source\PSoC5/I2C_1.c **** 
  31:.\Generated_Source\PSoC5/I2C_1.c **** /*******************************************************************************
ARM GAS  C:\Users\RECEPC~1\AppData\Local\Temp\ccS4CeFf.s 			page 2


  32:.\Generated_Source\PSoC5/I2C_1.c **** * Function Name: I2C_1_Init
  33:.\Generated_Source\PSoC5/I2C_1.c **** ********************************************************************************
  34:.\Generated_Source\PSoC5/I2C_1.c **** *
  35:.\Generated_Source\PSoC5/I2C_1.c **** * Summary:
  36:.\Generated_Source\PSoC5/I2C_1.c **** *  Initializes I2C registers with initial values provided from customizer.
  37:.\Generated_Source\PSoC5/I2C_1.c **** *
  38:.\Generated_Source\PSoC5/I2C_1.c **** * Parameters:
  39:.\Generated_Source\PSoC5/I2C_1.c **** *  None
  40:.\Generated_Source\PSoC5/I2C_1.c **** *
  41:.\Generated_Source\PSoC5/I2C_1.c **** * Return:
  42:.\Generated_Source\PSoC5/I2C_1.c **** *  None
  43:.\Generated_Source\PSoC5/I2C_1.c **** *
  44:.\Generated_Source\PSoC5/I2C_1.c **** * Global variables:
  45:.\Generated_Source\PSoC5/I2C_1.c **** *  None
  46:.\Generated_Source\PSoC5/I2C_1.c **** *
  47:.\Generated_Source\PSoC5/I2C_1.c **** * Reentrant:
  48:.\Generated_Source\PSoC5/I2C_1.c **** *  No
  49:.\Generated_Source\PSoC5/I2C_1.c **** *
  50:.\Generated_Source\PSoC5/I2C_1.c **** *******************************************************************************/
  51:.\Generated_Source\PSoC5/I2C_1.c **** void I2C_1_Init(void) 
  52:.\Generated_Source\PSoC5/I2C_1.c **** {
  27              		.loc 1 52 0
  28              		.cfi_startproc
  29              		@ args = 0, pretend = 0, frame = 0
  30              		@ frame_needed = 0, uses_anonymous_args = 0
  31 0000 10B5     		push	{r4, lr}
  32              		.cfi_def_cfa_offset 8
  33              		.cfi_offset 4, -8
  34              		.cfi_offset 14, -4
  53:.\Generated_Source\PSoC5/I2C_1.c ****     #if(I2C_1_FF_IMPLEMENTED)
  54:.\Generated_Source\PSoC5/I2C_1.c ****         I2C_1_CFG_REG  = I2C_1_DEFAULT_CFG;
  35              		.loc 1 54 0
  36 0002 0222     		movs	r2, #2
  37 0004 104B     		ldr	r3, .L3
  38 0006 1A70     		strb	r2, [r3]
  55:.\Generated_Source\PSoC5/I2C_1.c ****         I2C_1_XCFG_REG = I2C_1_DEFAULT_XCFG;
  39              		.loc 1 55 0
  40 0008 8122     		movs	r2, #129
  41 000a 0E3B     		subs	r3, r3, #14
  42 000c 1A70     		strb	r2, [r3]
  56:.\Generated_Source\PSoC5/I2C_1.c **** 
  57:.\Generated_Source\PSoC5/I2C_1.c ****         #if(CY_PSOC5A)
  58:.\Generated_Source\PSoC5/I2C_1.c ****             I2C_1_CLKDIV_REG  = LO8(I2C_1_DEFAULT_DIVIDE_FACTOR);
  59:.\Generated_Source\PSoC5/I2C_1.c ****         #else
  60:.\Generated_Source\PSoC5/I2C_1.c ****             I2C_1_CLKDIV1_REG = LO8(I2C_1_DEFAULT_DIVIDE_FACTOR);
  43              		.loc 1 60 0
  44 000e 0F24     		movs	r4, #15
  45 0010 1333     		adds	r3, r3, #19
  46 0012 1C70     		strb	r4, [r3]
  61:.\Generated_Source\PSoC5/I2C_1.c ****             I2C_1_CLKDIV2_REG = HI8(I2C_1_DEFAULT_DIVIDE_FACTOR);
  47              		.loc 1 61 0
  48 0014 0022     		movs	r2, #0
  49 0016 0133     		adds	r3, r3, #1
  50 0018 1A70     		strb	r2, [r3]
  62:.\Generated_Source\PSoC5/I2C_1.c ****         #endif /* (CY_PSOC5A) */
  63:.\Generated_Source\PSoC5/I2C_1.c **** 
  64:.\Generated_Source\PSoC5/I2C_1.c ****     #else
ARM GAS  C:\Users\RECEPC~1\AppData\Local\Temp\ccS4CeFf.s 			page 3


  65:.\Generated_Source\PSoC5/I2C_1.c ****         uint8 enableInterrupts;
  66:.\Generated_Source\PSoC5/I2C_1.c **** 
  67:.\Generated_Source\PSoC5/I2C_1.c ****         I2C_1_CFG_REG      = I2C_1_DEFAULT_CFG;      /* control  */
  68:.\Generated_Source\PSoC5/I2C_1.c ****         I2C_1_INT_MASK_REG = I2C_1_DEFAULT_INT_MASK; /* int_mask */
  69:.\Generated_Source\PSoC5/I2C_1.c **** 
  70:.\Generated_Source\PSoC5/I2C_1.c ****         /* Enable interrupts from block */
  71:.\Generated_Source\PSoC5/I2C_1.c ****         enableInterrupts = CyEnterCriticalSection();
  72:.\Generated_Source\PSoC5/I2C_1.c ****         I2C_1_INT_ENABLE_REG |= I2C_1_INTR_ENABLE; /* aux_ctl */
  73:.\Generated_Source\PSoC5/I2C_1.c ****         CyExitCriticalSection(enableInterrupts);
  74:.\Generated_Source\PSoC5/I2C_1.c **** 
  75:.\Generated_Source\PSoC5/I2C_1.c ****         #if(I2C_1_MODE_MASTER_ENABLED)
  76:.\Generated_Source\PSoC5/I2C_1.c ****             I2C_1_MCLK_PRD_REG = I2C_1_DEFAULT_MCLK_PRD;
  77:.\Generated_Source\PSoC5/I2C_1.c ****             I2C_1_MCLK_CMP_REG = I2C_1_DEFAULT_MCLK_CMP;
  78:.\Generated_Source\PSoC5/I2C_1.c ****          #endif /* (I2C_1_MODE_MASTER_ENABLED) */
  79:.\Generated_Source\PSoC5/I2C_1.c **** 
  80:.\Generated_Source\PSoC5/I2C_1.c ****         #if(I2C_1_MODE_SLAVE_ENABLED)
  81:.\Generated_Source\PSoC5/I2C_1.c ****             I2C_1_PERIOD_REG = I2C_1_DEFAULT_PERIOD;
  82:.\Generated_Source\PSoC5/I2C_1.c ****         #endif  /* (I2C_1_MODE_SLAVE_ENABLED) */
  83:.\Generated_Source\PSoC5/I2C_1.c **** 
  84:.\Generated_Source\PSoC5/I2C_1.c ****     #endif /* (I2C_1_FF_IMPLEMENTED) */
  85:.\Generated_Source\PSoC5/I2C_1.c **** 
  86:.\Generated_Source\PSoC5/I2C_1.c ****     #if(I2C_1_TIMEOUT_ENABLED)
  87:.\Generated_Source\PSoC5/I2C_1.c ****         I2C_1_TimeoutInit();
  88:.\Generated_Source\PSoC5/I2C_1.c ****     #endif /* (I2C_1_TIMEOUT_ENABLED) */
  89:.\Generated_Source\PSoC5/I2C_1.c **** 
  90:.\Generated_Source\PSoC5/I2C_1.c ****     /* Disable Interrupt and set vector and priority */
  91:.\Generated_Source\PSoC5/I2C_1.c ****     CyIntDisable    (I2C_1_ISR_NUMBER);
  51              		.loc 1 91 0
  52 001a 4FF40042 		mov	r2, #32768
  53 001e 0B4B     		ldr	r3, .L3+4
  54 0020 1A60     		str	r2, [r3]
  92:.\Generated_Source\PSoC5/I2C_1.c ****     CyIntSetPriority(I2C_1_ISR_NUMBER, I2C_1_ISR_PRIORITY);
  55              		.loc 1 92 0
  56 0022 2046     		mov	r0, r4
  57 0024 0721     		movs	r1, #7
  58 0026 FFF7FEFF 		bl	CyIntSetPriority
  59              	.LVL0:
  93:.\Generated_Source\PSoC5/I2C_1.c ****     #if(I2C_1_INTERN_I2C_INTR_HANDLER)
  94:.\Generated_Source\PSoC5/I2C_1.c ****         (void) CyIntSetVector(I2C_1_ISR_NUMBER, &I2C_1_ISR);
  60              		.loc 1 94 0
  61 002a 2046     		mov	r0, r4
  62 002c 0849     		ldr	r1, .L3+8
  63 002e FFF7FEFF 		bl	CyIntSetVector
  64              	.LVL1:
  95:.\Generated_Source\PSoC5/I2C_1.c ****     #endif /* (I2C_1_INTERN_I2C_INTR_HANDLER) */
  96:.\Generated_Source\PSoC5/I2C_1.c **** 
  97:.\Generated_Source\PSoC5/I2C_1.c **** 
  98:.\Generated_Source\PSoC5/I2C_1.c ****     /* Put state machine in idle state */
  99:.\Generated_Source\PSoC5/I2C_1.c ****     I2C_1_state = I2C_1_SM_IDLE;
  65              		.loc 1 99 0
  66 0032 1022     		movs	r2, #16
  67 0034 074B     		ldr	r3, .L3+12
  68 0036 1A70     		strb	r2, [r3]
 100:.\Generated_Source\PSoC5/I2C_1.c **** 
 101:.\Generated_Source\PSoC5/I2C_1.c ****     #if(I2C_1_MODE_SLAVE_ENABLED)
 102:.\Generated_Source\PSoC5/I2C_1.c ****         /* Reset status and buffers index */
 103:.\Generated_Source\PSoC5/I2C_1.c ****         I2C_1_SlaveClearReadBuf();
ARM GAS  C:\Users\RECEPC~1\AppData\Local\Temp\ccS4CeFf.s 			page 4


 104:.\Generated_Source\PSoC5/I2C_1.c ****         I2C_1_SlaveClearWriteBuf();
 105:.\Generated_Source\PSoC5/I2C_1.c ****         I2C_1_slStatus = 0u; /* Reset slave status */
 106:.\Generated_Source\PSoC5/I2C_1.c **** 
 107:.\Generated_Source\PSoC5/I2C_1.c ****         /* Set default address */
 108:.\Generated_Source\PSoC5/I2C_1.c ****         I2C_1_SlaveSetAddress(I2C_1_DEFAULT_ADDR);
 109:.\Generated_Source\PSoC5/I2C_1.c ****     #endif /* (I2C_1_MODE_SLAVE_ENABLED) */
 110:.\Generated_Source\PSoC5/I2C_1.c **** 
 111:.\Generated_Source\PSoC5/I2C_1.c ****     #if(I2C_1_MODE_MASTER_ENABLED)
 112:.\Generated_Source\PSoC5/I2C_1.c ****         /* Reset status and buffers index */
 113:.\Generated_Source\PSoC5/I2C_1.c ****         I2C_1_MasterClearReadBuf();
  69              		.loc 1 113 0
  70 0038 FFF7FEFF 		bl	I2C_1_MasterClearReadBuf
  71              	.LVL2:
 114:.\Generated_Source\PSoC5/I2C_1.c ****         I2C_1_MasterClearWriteBuf();
  72              		.loc 1 114 0
  73 003c FFF7FEFF 		bl	I2C_1_MasterClearWriteBuf
  74              	.LVL3:
 115:.\Generated_Source\PSoC5/I2C_1.c ****         (void) I2C_1_MasterClearStatus();
  75              		.loc 1 115 0
  76 0040 FFF7FEFF 		bl	I2C_1_MasterClearStatus
  77              	.LVL4:
  78 0044 10BD     		pop	{r4, pc}
  79              	.L4:
  80 0046 00BF     		.align	2
  81              	.L3:
  82 0048 D6490040 		.word	1073760726
  83 004c 80E100E0 		.word	-536813184
  84 0050 00000000 		.word	I2C_1_ISR
  85 0054 00000000 		.word	I2C_1_state
  86              		.cfi_endproc
  87              	.LFE0:
  88              		.size	I2C_1_Init, .-I2C_1_Init
  89              		.section	.text.I2C_1_Enable,"ax",%progbits
  90              		.align	2
  91              		.global	I2C_1_Enable
  92              		.thumb
  93              		.thumb_func
  94              		.type	I2C_1_Enable, %function
  95              	I2C_1_Enable:
  96              	.LFB1:
 116:.\Generated_Source\PSoC5/I2C_1.c ****     #endif /* (I2C_1_MODE_MASTER_ENABLED) */
 117:.\Generated_Source\PSoC5/I2C_1.c **** }
 118:.\Generated_Source\PSoC5/I2C_1.c **** 
 119:.\Generated_Source\PSoC5/I2C_1.c **** 
 120:.\Generated_Source\PSoC5/I2C_1.c **** /*******************************************************************************
 121:.\Generated_Source\PSoC5/I2C_1.c **** * Function Name: I2C_1_Enable
 122:.\Generated_Source\PSoC5/I2C_1.c **** ********************************************************************************
 123:.\Generated_Source\PSoC5/I2C_1.c **** *
 124:.\Generated_Source\PSoC5/I2C_1.c **** * Summary:
 125:.\Generated_Source\PSoC5/I2C_1.c **** *  Enables I2C operations.
 126:.\Generated_Source\PSoC5/I2C_1.c **** *
 127:.\Generated_Source\PSoC5/I2C_1.c **** * Parameters:
 128:.\Generated_Source\PSoC5/I2C_1.c **** *  None
 129:.\Generated_Source\PSoC5/I2C_1.c **** *
 130:.\Generated_Source\PSoC5/I2C_1.c **** * Return:
 131:.\Generated_Source\PSoC5/I2C_1.c **** *  None
 132:.\Generated_Source\PSoC5/I2C_1.c **** *
ARM GAS  C:\Users\RECEPC~1\AppData\Local\Temp\ccS4CeFf.s 			page 5


 133:.\Generated_Source\PSoC5/I2C_1.c **** * Global variables:
 134:.\Generated_Source\PSoC5/I2C_1.c **** *  None
 135:.\Generated_Source\PSoC5/I2C_1.c **** *
 136:.\Generated_Source\PSoC5/I2C_1.c **** *******************************************************************************/
 137:.\Generated_Source\PSoC5/I2C_1.c **** void I2C_1_Enable(void) 
 138:.\Generated_Source\PSoC5/I2C_1.c **** {
  97              		.loc 1 138 0
  98              		.cfi_startproc
  99              		@ args = 0, pretend = 0, frame = 0
 100              		@ frame_needed = 0, uses_anonymous_args = 0
 101 0000 08B5     		push	{r3, lr}
 102              		.cfi_def_cfa_offset 8
 103              		.cfi_offset 3, -8
 104              		.cfi_offset 14, -4
 139:.\Generated_Source\PSoC5/I2C_1.c ****     #if(I2C_1_FF_IMPLEMENTED)
 140:.\Generated_Source\PSoC5/I2C_1.c ****         uint8 enableInterrupts;
 141:.\Generated_Source\PSoC5/I2C_1.c **** 
 142:.\Generated_Source\PSoC5/I2C_1.c ****         /* Enable power to I2C FF block */
 143:.\Generated_Source\PSoC5/I2C_1.c ****         enableInterrupts = CyEnterCriticalSection();
 105              		.loc 1 143 0
 106 0002 FFF7FEFF 		bl	CyEnterCriticalSection
 107              	.LVL5:
 144:.\Generated_Source\PSoC5/I2C_1.c ****         I2C_1_ACT_PWRMGR_REG  |= I2C_1_ACT_PWR_EN;
 108              		.loc 1 144 0
 109 0006 064A     		ldr	r2, .L7
 110 0008 1378     		ldrb	r3, [r2]	@ zero_extendqisi2
 111 000a 43F00403 		orr	r3, r3, #4
 112 000e 1370     		strb	r3, [r2]
 145:.\Generated_Source\PSoC5/I2C_1.c ****         I2C_1_STBY_PWRMGR_REG |= I2C_1_STBY_PWR_EN;
 113              		.loc 1 145 0
 114 0010 1032     		adds	r2, r2, #16
 115 0012 1378     		ldrb	r3, [r2]	@ zero_extendqisi2
 116 0014 43F00403 		orr	r3, r3, #4
 117 0018 1370     		strb	r3, [r2]
 146:.\Generated_Source\PSoC5/I2C_1.c ****         CyExitCriticalSection(enableInterrupts);
 118              		.loc 1 146 0
 119 001a FFF7FEFF 		bl	CyExitCriticalSection
 120              	.LVL6:
 121 001e 08BD     		pop	{r3, pc}
 122              	.L8:
 123              		.align	2
 124              	.L7:
 125 0020 A5430040 		.word	1073759141
 126              		.cfi_endproc
 127              	.LFE1:
 128              		.size	I2C_1_Enable, .-I2C_1_Enable
 129              		.section	.text.I2C_1_Start,"ax",%progbits
 130              		.align	2
 131              		.global	I2C_1_Start
 132              		.thumb
 133              		.thumb_func
 134              		.type	I2C_1_Start, %function
 135              	I2C_1_Start:
 136              	.LFB2:
 147:.\Generated_Source\PSoC5/I2C_1.c **** 
 148:.\Generated_Source\PSoC5/I2C_1.c ****     #else
 149:.\Generated_Source\PSoC5/I2C_1.c **** 
ARM GAS  C:\Users\RECEPC~1\AppData\Local\Temp\ccS4CeFf.s 			page 6


 150:.\Generated_Source\PSoC5/I2C_1.c ****         #if(I2C_1_MODE_SLAVE_ENABLED)
 151:.\Generated_Source\PSoC5/I2C_1.c ****             uint8 enableInterrupts;
 152:.\Generated_Source\PSoC5/I2C_1.c ****         #endif /* (I2C_1_MODE_SLAVE_ENABLED) */
 153:.\Generated_Source\PSoC5/I2C_1.c **** 
 154:.\Generated_Source\PSoC5/I2C_1.c ****         #if(I2C_1_MODE_SLAVE_ENABLED)
 155:.\Generated_Source\PSoC5/I2C_1.c ****             /* Enable slave bit counter */
 156:.\Generated_Source\PSoC5/I2C_1.c ****             enableInterrupts = CyEnterCriticalSection();
 157:.\Generated_Source\PSoC5/I2C_1.c ****             I2C_1_COUNTER_AUX_CTL_REG |= I2C_1_CNT7_ENABLE;   /* aux_ctl */
 158:.\Generated_Source\PSoC5/I2C_1.c ****             CyExitCriticalSection(enableInterrupts);
 159:.\Generated_Source\PSoC5/I2C_1.c ****         #endif /* (I2C_1_MODE_SLAVE_ENABLED) */
 160:.\Generated_Source\PSoC5/I2C_1.c **** 
 161:.\Generated_Source\PSoC5/I2C_1.c ****         I2C_1_CFG_REG |= I2C_1_ENABLE_MS;
 162:.\Generated_Source\PSoC5/I2C_1.c **** 
 163:.\Generated_Source\PSoC5/I2C_1.c ****     #endif /* (I2C_1_FF_IMPLEMENTED) */
 164:.\Generated_Source\PSoC5/I2C_1.c **** 
 165:.\Generated_Source\PSoC5/I2C_1.c ****     #if(I2C_1_TIMEOUT_ENABLED)
 166:.\Generated_Source\PSoC5/I2C_1.c ****         I2C_1_TimeoutEnable();
 167:.\Generated_Source\PSoC5/I2C_1.c ****     #endif /* (I2C_1_TIMEOUT_ENABLED) */
 168:.\Generated_Source\PSoC5/I2C_1.c **** }
 169:.\Generated_Source\PSoC5/I2C_1.c **** 
 170:.\Generated_Source\PSoC5/I2C_1.c **** 
 171:.\Generated_Source\PSoC5/I2C_1.c **** /*******************************************************************************
 172:.\Generated_Source\PSoC5/I2C_1.c **** * Function Name: I2C_1_Start
 173:.\Generated_Source\PSoC5/I2C_1.c **** ********************************************************************************
 174:.\Generated_Source\PSoC5/I2C_1.c **** *
 175:.\Generated_Source\PSoC5/I2C_1.c **** * Summary:
 176:.\Generated_Source\PSoC5/I2C_1.c **** *  Starts the I2C hardware. Enables Active mode power template bits or clock
 177:.\Generated_Source\PSoC5/I2C_1.c **** *  gating as appropriate. It is required to be executed before I2C bus
 178:.\Generated_Source\PSoC5/I2C_1.c **** *  operation.
 179:.\Generated_Source\PSoC5/I2C_1.c **** *
 180:.\Generated_Source\PSoC5/I2C_1.c **** * Parameters:
 181:.\Generated_Source\PSoC5/I2C_1.c **** *  None
 182:.\Generated_Source\PSoC5/I2C_1.c **** *
 183:.\Generated_Source\PSoC5/I2C_1.c **** * Return:
 184:.\Generated_Source\PSoC5/I2C_1.c **** *  None
 185:.\Generated_Source\PSoC5/I2C_1.c **** *
 186:.\Generated_Source\PSoC5/I2C_1.c **** * Side Effects:
 187:.\Generated_Source\PSoC5/I2C_1.c **** *  This component automatically enables it's interrupt.  If I2C is enabled
 188:.\Generated_Source\PSoC5/I2C_1.c **** *  without the interrupt enabled, it could lock up the I2C bus.
 189:.\Generated_Source\PSoC5/I2C_1.c **** *
 190:.\Generated_Source\PSoC5/I2C_1.c **** * Global variables:
 191:.\Generated_Source\PSoC5/I2C_1.c **** *  I2C_1_initVar - used to check initial configuration, modified
 192:.\Generated_Source\PSoC5/I2C_1.c **** *  on first function call.
 193:.\Generated_Source\PSoC5/I2C_1.c **** *
 194:.\Generated_Source\PSoC5/I2C_1.c **** * Reentrant:
 195:.\Generated_Source\PSoC5/I2C_1.c **** *  No
 196:.\Generated_Source\PSoC5/I2C_1.c **** *
 197:.\Generated_Source\PSoC5/I2C_1.c **** *******************************************************************************/
 198:.\Generated_Source\PSoC5/I2C_1.c **** void I2C_1_Start(void) 
 199:.\Generated_Source\PSoC5/I2C_1.c **** {
 137              		.loc 1 199 0
 138              		.cfi_startproc
 139              		@ args = 0, pretend = 0, frame = 0
 140              		@ frame_needed = 0, uses_anonymous_args = 0
 141 0000 08B5     		push	{r3, lr}
 142              		.cfi_def_cfa_offset 8
 143              		.cfi_offset 3, -8
ARM GAS  C:\Users\RECEPC~1\AppData\Local\Temp\ccS4CeFf.s 			page 7


 144              		.cfi_offset 14, -4
 200:.\Generated_Source\PSoC5/I2C_1.c ****     /* Initialize I2C registers, reset I2C buffer index and clears status */
 201:.\Generated_Source\PSoC5/I2C_1.c ****     if(0u == I2C_1_initVar)
 145              		.loc 1 201 0
 146 0002 074B     		ldr	r3, .L12
 147 0004 1B78     		ldrb	r3, [r3]	@ zero_extendqisi2
 148 0006 23B9     		cbnz	r3, .L10
 202:.\Generated_Source\PSoC5/I2C_1.c ****     {
 203:.\Generated_Source\PSoC5/I2C_1.c ****         I2C_1_Init();
 149              		.loc 1 203 0
 150 0008 FFF7FEFF 		bl	I2C_1_Init
 151              	.LVL7:
 204:.\Generated_Source\PSoC5/I2C_1.c ****         I2C_1_initVar = 1u; /* Component initialized */
 152              		.loc 1 204 0
 153 000c 0122     		movs	r2, #1
 154 000e 044B     		ldr	r3, .L12
 155 0010 1A70     		strb	r2, [r3]
 156              	.L10:
 205:.\Generated_Source\PSoC5/I2C_1.c ****     }
 206:.\Generated_Source\PSoC5/I2C_1.c **** 
 207:.\Generated_Source\PSoC5/I2C_1.c ****     I2C_1_Enable();
 157              		.loc 1 207 0
 158 0012 FFF7FEFF 		bl	I2C_1_Enable
 159              	.LVL8:
 208:.\Generated_Source\PSoC5/I2C_1.c ****     I2C_1_EnableInt();
 160              		.loc 1 208 0
 161 0016 4FF40042 		mov	r2, #32768
 162 001a 024B     		ldr	r3, .L12+4
 163 001c 1A60     		str	r2, [r3]
 164 001e 08BD     		pop	{r3, pc}
 165              	.L13:
 166              		.align	2
 167              	.L12:
 168 0020 00000000 		.word	.LANCHOR0
 169 0024 00E100E0 		.word	-536813312
 170              		.cfi_endproc
 171              	.LFE2:
 172              		.size	I2C_1_Start, .-I2C_1_Start
 173              		.section	.text.I2C_1_Stop,"ax",%progbits
 174              		.align	2
 175              		.global	I2C_1_Stop
 176              		.thumb
 177              		.thumb_func
 178              		.type	I2C_1_Stop, %function
 179              	I2C_1_Stop:
 180              	.LFB3:
 209:.\Generated_Source\PSoC5/I2C_1.c **** }
 210:.\Generated_Source\PSoC5/I2C_1.c **** 
 211:.\Generated_Source\PSoC5/I2C_1.c **** 
 212:.\Generated_Source\PSoC5/I2C_1.c **** /*******************************************************************************
 213:.\Generated_Source\PSoC5/I2C_1.c **** * Function Name: I2C_1_Stop
 214:.\Generated_Source\PSoC5/I2C_1.c **** ********************************************************************************
 215:.\Generated_Source\PSoC5/I2C_1.c **** *
 216:.\Generated_Source\PSoC5/I2C_1.c **** * Summary:
 217:.\Generated_Source\PSoC5/I2C_1.c **** *  Disables I2C hardware and disables I2C interrupt. Disables Active mode power
 218:.\Generated_Source\PSoC5/I2C_1.c **** *  template bits or clock gating as appropriate.
 219:.\Generated_Source\PSoC5/I2C_1.c **** *
ARM GAS  C:\Users\RECEPC~1\AppData\Local\Temp\ccS4CeFf.s 			page 8


 220:.\Generated_Source\PSoC5/I2C_1.c **** * Parameters:
 221:.\Generated_Source\PSoC5/I2C_1.c **** *  None
 222:.\Generated_Source\PSoC5/I2C_1.c **** *
 223:.\Generated_Source\PSoC5/I2C_1.c **** * Return:
 224:.\Generated_Source\PSoC5/I2C_1.c **** *  None
 225:.\Generated_Source\PSoC5/I2C_1.c **** *
 226:.\Generated_Source\PSoC5/I2C_1.c **** *******************************************************************************/
 227:.\Generated_Source\PSoC5/I2C_1.c **** void I2C_1_Stop(void) 
 228:.\Generated_Source\PSoC5/I2C_1.c **** {
 181              		.loc 1 228 0
 182              		.cfi_startproc
 183              		@ args = 0, pretend = 0, frame = 0
 184              		@ frame_needed = 0, uses_anonymous_args = 0
 185 0000 2DE9F041 		push	{r4, r5, r6, r7, r8, lr}
 186              		.cfi_def_cfa_offset 24
 187              		.cfi_offset 4, -24
 188              		.cfi_offset 5, -20
 189              		.cfi_offset 6, -16
 190              		.cfi_offset 7, -12
 191              		.cfi_offset 8, -8
 192              		.cfi_offset 14, -4
 229:.\Generated_Source\PSoC5/I2C_1.c ****     #if((I2C_1_FF_IMPLEMENTED)  || \
 230:.\Generated_Source\PSoC5/I2C_1.c ****         (I2C_1_UDB_IMPLEMENTED && I2C_1_MODE_SLAVE_ENABLED))
 231:.\Generated_Source\PSoC5/I2C_1.c ****         uint8 enableInterrupts;
 232:.\Generated_Source\PSoC5/I2C_1.c ****     #endif /* ((I2C_1_FF_IMPLEMENTED)  || \
 233:.\Generated_Source\PSoC5/I2C_1.c ****                (I2C_1_UDB_IMPLEMENTED && I2C_1_MODE_SLAVE_ENABLED)) */
 234:.\Generated_Source\PSoC5/I2C_1.c **** 
 235:.\Generated_Source\PSoC5/I2C_1.c ****     I2C_1_DisableInt();
 193              		.loc 1 235 0
 194 0004 4FF40046 		mov	r6, #32768
 195 0008 1B4B     		ldr	r3, .L16
 196 000a 1E60     		str	r6, [r3]
 236:.\Generated_Source\PSoC5/I2C_1.c **** 
 237:.\Generated_Source\PSoC5/I2C_1.c ****     I2C_1_DISABLE_INT_ON_STOP;   /* Interrupt on Stop can be enabled by write */
 197              		.loc 1 237 0
 198 000c 1B4C     		ldr	r4, .L16+4
 199 000e 2378     		ldrb	r3, [r4]	@ zero_extendqisi2
 200 0010 03F0EF03 		and	r3, r3, #239
 201 0014 2370     		strb	r3, [r4]
 238:.\Generated_Source\PSoC5/I2C_1.c ****     (void) I2C_1_CSR_REG;        /* Clear CSR reg */
 202              		.loc 1 238 0
 203 0016 1A4B     		ldr	r3, .L16+8
 204 0018 1B78     		ldrb	r3, [r3]	@ zero_extendqisi2
 239:.\Generated_Source\PSoC5/I2C_1.c ****     
 240:.\Generated_Source\PSoC5/I2C_1.c ****     #if(I2C_1_TIMEOUT_ENABLED)
 241:.\Generated_Source\PSoC5/I2C_1.c ****         I2C_1_TimeoutStop();
 242:.\Generated_Source\PSoC5/I2C_1.c ****     #endif  /* End (I2C_1_TIMEOUT_ENABLED) */
 243:.\Generated_Source\PSoC5/I2C_1.c **** 
 244:.\Generated_Source\PSoC5/I2C_1.c ****     #if(I2C_1_FF_IMPLEMENTED)
 245:.\Generated_Source\PSoC5/I2C_1.c ****         #if(CY_PSOC3 || CY_PSOC5LP)
 246:.\Generated_Source\PSoC5/I2C_1.c ****             /* Store registers which are held in reset when Master and Slave bits are cleared */
 247:.\Generated_Source\PSoC5/I2C_1.c ****             #if(I2C_1_MODE_SLAVE_ENABLED)
 248:.\Generated_Source\PSoC5/I2C_1.c ****                 I2C_1_backup.addr = I2C_1_ADDR_REG;
 249:.\Generated_Source\PSoC5/I2C_1.c ****             #endif /* (I2C_1_MODE_SLAVE_ENABLED) */
 250:.\Generated_Source\PSoC5/I2C_1.c **** 
 251:.\Generated_Source\PSoC5/I2C_1.c ****             I2C_1_backup.clkDiv1  = I2C_1_CLKDIV1_REG;
 205              		.loc 1 251 0
ARM GAS  C:\Users\RECEPC~1\AppData\Local\Temp\ccS4CeFf.s 			page 9


 206 001a DFF87C80 		ldr	r8, .L16+32
 207 001e 98F80030 		ldrb	r3, [r8]	@ zero_extendqisi2
 208 0022 184D     		ldr	r5, .L16+12
 209 0024 EB70     		strb	r3, [r5, #3]
 252:.\Generated_Source\PSoC5/I2C_1.c ****             I2C_1_backup.clkDiv2  = I2C_1_CLKDIV2_REG;
 210              		.loc 1 252 0
 211 0026 184F     		ldr	r7, .L16+16
 212 0028 3B78     		ldrb	r3, [r7]	@ zero_extendqisi2
 213 002a 2B71     		strb	r3, [r5, #4]
 253:.\Generated_Source\PSoC5/I2C_1.c **** 
 254:.\Generated_Source\PSoC5/I2C_1.c **** 
 255:.\Generated_Source\PSoC5/I2C_1.c ****             /* Reset FF block */
 256:.\Generated_Source\PSoC5/I2C_1.c ****             I2C_1_CFG_REG &= ((uint8) ~I2C_1_ENABLE_MS);
 214              		.loc 1 256 0
 215 002c 2378     		ldrb	r3, [r4]	@ zero_extendqisi2
 216 002e 03F0FD03 		and	r3, r3, #253
 217 0032 2370     		strb	r3, [r4]
 257:.\Generated_Source\PSoC5/I2C_1.c ****             CyDelayUs(I2C_1_FF_RESET_DELAY);
 218              		.loc 1 257 0
 219 0034 0220     		movs	r0, #2
 220 0036 FFF7FEFF 		bl	CyDelayUs
 221              	.LVL9:
 258:.\Generated_Source\PSoC5/I2C_1.c ****             I2C_1_CFG_REG |= ((uint8)  I2C_1_ENABLE_MS);
 222              		.loc 1 258 0
 223 003a 2378     		ldrb	r3, [r4]	@ zero_extendqisi2
 224 003c 43F00203 		orr	r3, r3, #2
 225 0040 2370     		strb	r3, [r4]
 259:.\Generated_Source\PSoC5/I2C_1.c **** 
 260:.\Generated_Source\PSoC5/I2C_1.c **** 
 261:.\Generated_Source\PSoC5/I2C_1.c ****             /* Restore registers */
 262:.\Generated_Source\PSoC5/I2C_1.c ****             #if(I2C_1_MODE_SLAVE_ENABLED)
 263:.\Generated_Source\PSoC5/I2C_1.c ****                 I2C_1_ADDR_REG = I2C_1_backup.addr;
 264:.\Generated_Source\PSoC5/I2C_1.c ****             #endif /* (I2C_1_MODE_SLAVE_ENABLED) */
 265:.\Generated_Source\PSoC5/I2C_1.c **** 
 266:.\Generated_Source\PSoC5/I2C_1.c ****             I2C_1_CLKDIV1_REG = I2C_1_backup.clkDiv1;
 226              		.loc 1 266 0
 227 0042 EB78     		ldrb	r3, [r5, #3]	@ zero_extendqisi2
 228 0044 88F80030 		strb	r3, [r8]
 267:.\Generated_Source\PSoC5/I2C_1.c ****             I2C_1_CLKDIV2_REG = I2C_1_backup.clkDiv2;
 229              		.loc 1 267 0
 230 0048 2B79     		ldrb	r3, [r5, #4]	@ zero_extendqisi2
 231 004a 3B70     		strb	r3, [r7]
 268:.\Generated_Source\PSoC5/I2C_1.c **** 
 269:.\Generated_Source\PSoC5/I2C_1.c ****         #endif /* (CY_PSOC3 || CY_PSOC5LP) */
 270:.\Generated_Source\PSoC5/I2C_1.c **** 
 271:.\Generated_Source\PSoC5/I2C_1.c ****         /* Disable power to I2C block */
 272:.\Generated_Source\PSoC5/I2C_1.c ****         enableInterrupts = CyEnterCriticalSection();
 232              		.loc 1 272 0
 233 004c FFF7FEFF 		bl	CyEnterCriticalSection
 234              	.LVL10:
 273:.\Generated_Source\PSoC5/I2C_1.c ****         I2C_1_ACT_PWRMGR_REG  &= ((uint8) ~I2C_1_ACT_PWR_EN);
 235              		.loc 1 273 0
 236 0050 0E4A     		ldr	r2, .L16+20
 237 0052 1378     		ldrb	r3, [r2]	@ zero_extendqisi2
 238 0054 03F0FB03 		and	r3, r3, #251
 239 0058 1370     		strb	r3, [r2]
 274:.\Generated_Source\PSoC5/I2C_1.c ****         I2C_1_STBY_PWRMGR_REG &= ((uint8) ~I2C_1_STBY_PWR_EN);
ARM GAS  C:\Users\RECEPC~1\AppData\Local\Temp\ccS4CeFf.s 			page 10


 240              		.loc 1 274 0
 241 005a 1032     		adds	r2, r2, #16
 242 005c 1378     		ldrb	r3, [r2]	@ zero_extendqisi2
 243 005e 03F0FB03 		and	r3, r3, #251
 244 0062 1370     		strb	r3, [r2]
 275:.\Generated_Source\PSoC5/I2C_1.c ****         CyExitCriticalSection(enableInterrupts);
 245              		.loc 1 275 0
 246 0064 FFF7FEFF 		bl	CyExitCriticalSection
 247              	.LVL11:
 276:.\Generated_Source\PSoC5/I2C_1.c **** 
 277:.\Generated_Source\PSoC5/I2C_1.c ****     #else
 278:.\Generated_Source\PSoC5/I2C_1.c **** 
 279:.\Generated_Source\PSoC5/I2C_1.c ****         #if(I2C_1_MODE_SLAVE_ENABLED)
 280:.\Generated_Source\PSoC5/I2C_1.c ****             /* Disable slave bit counter */
 281:.\Generated_Source\PSoC5/I2C_1.c ****             enableInterrupts = CyEnterCriticalSection();
 282:.\Generated_Source\PSoC5/I2C_1.c ****             I2C_1_COUNTER_AUX_CTL_REG &= ((uint8) ~I2C_1_CNT7_ENABLE);
 283:.\Generated_Source\PSoC5/I2C_1.c ****             CyExitCriticalSection(enableInterrupts);
 284:.\Generated_Source\PSoC5/I2C_1.c ****         #endif /* (I2C_1_MODE_SLAVE_ENABLED) */
 285:.\Generated_Source\PSoC5/I2C_1.c **** 
 286:.\Generated_Source\PSoC5/I2C_1.c ****         I2C_1_CFG_REG &= ((uint8) ~I2C_1_ENABLE_MS);
 287:.\Generated_Source\PSoC5/I2C_1.c **** 
 288:.\Generated_Source\PSoC5/I2C_1.c ****     #endif /* (I2C_1_FF_IMPLEMENTED) */
 289:.\Generated_Source\PSoC5/I2C_1.c **** 
 290:.\Generated_Source\PSoC5/I2C_1.c ****     I2C_1_ClearPendingInt();  /* Clear interrupt triggers on reset */
 248              		.loc 1 290 0
 249 0068 094B     		ldr	r3, .L16+24
 250 006a 1E60     		str	r6, [r3]
 291:.\Generated_Source\PSoC5/I2C_1.c **** 
 292:.\Generated_Source\PSoC5/I2C_1.c ****     I2C_1_state = I2C_1_SM_IDLE;  /* Reset software FSM */
 251              		.loc 1 292 0
 252 006c 1022     		movs	r2, #16
 253 006e 094B     		ldr	r3, .L16+28
 254 0070 1A70     		strb	r2, [r3]
 255 0072 BDE8F081 		pop	{r4, r5, r6, r7, r8, pc}
 256              	.L17:
 257 0076 00BF     		.align	2
 258              	.L16:
 259 0078 80E100E0 		.word	-536813184
 260 007c D6490040 		.word	1073760726
 261 0080 D7490040 		.word	1073760727
 262 0084 00000000 		.word	I2C_1_backup
 263 0088 DC490040 		.word	1073760732
 264 008c A5430040 		.word	1073759141
 265 0090 80E200E0 		.word	-536812928
 266 0094 00000000 		.word	I2C_1_state
 267 0098 DB490040 		.word	1073760731
 268              		.cfi_endproc
 269              	.LFE3:
 270              		.size	I2C_1_Stop, .-I2C_1_Stop
 271              		.comm	I2C_1_state,1,1
 272              		.global	I2C_1_initVar
 273              		.bss
 274              		.set	.LANCHOR0,. + 0
 275              		.type	I2C_1_initVar, %object
 276              		.size	I2C_1_initVar, 1
 277              	I2C_1_initVar:
 278 0000 00       		.space	1
ARM GAS  C:\Users\RECEPC~1\AppData\Local\Temp\ccS4CeFf.s 			page 11


 279              		.text
 280              	.Letext0:
 281              		.file 2 ".\\Generated_Source\\PSoC5\\cytypes.h"
 282              		.file 3 ".\\Generated_Source\\PSoC5\\I2C_1.h"
 283              		.file 4 ".\\Generated_Source\\PSoC5\\I2C_1_PVT.h"
 284              		.file 5 ".\\Generated_Source\\PSoC5\\CyLib.h"