ARM GAS  C:\Users\RECEPC~1\AppData\Local\Temp\cc2GhSrY.s 			page 1


   1              		.syntax unified
   2              		.cpu cortex-m3
   3              		.fpu softvfp
   4              		.eabi_attribute 20, 1
   5              		.eabi_attribute 21, 1
   6              		.eabi_attribute 23, 3
   7              		.eabi_attribute 24, 1
   8              		.eabi_attribute 25, 1
   9              		.eabi_attribute 26, 1
  10              		.eabi_attribute 30, 1
  11              		.eabi_attribute 34, 1
  12              		.eabi_attribute 18, 4
  13              		.thumb
  14              		.file	"ibuton.c"
  15              		.text
  16              	.Ltext0:
  17              		.cfi_sections	.debug_frame
  18              		.section	.text.touch_present,"ax",%progbits
  19              		.align	2
  20              		.global	touch_present
  21              		.thumb
  22              		.thumb_func
  23              		.type	touch_present, %function
  24              	touch_present:
  25              	.LFB63:
  26              		.file 1 ".\\ibuton.c"
   1:.\ibuton.c    **** /*
   2:.\ibuton.c    **** ***************************************************************************************************
   3:.\ibuton.c    **** *                                           GRP550M CODE
   4:.\ibuton.c    **** *
   5:.\ibuton.c    **** *                             (c) Copyright 2013; Sistemas Insepet LTDA
   6:.\ibuton.c    **** *
   7:.\ibuton.c    **** *               All rights reserved.  Protected by international copyright laws.
   8:.\ibuton.c    **** *               Knowledge of the source code may NOT be used to develop a similar product.
   9:.\ibuton.c    **** *               Please help us continue to provide the Embedded community with the finest
  10:.\ibuton.c    **** *               software available.  Your honesty is greatly appreciated.
  11:.\ibuton.c    **** ***************************************************************************************************
  12:.\ibuton.c    **** */
  13:.\ibuton.c    **** 
  14:.\ibuton.c    **** /*
  15:.\ibuton.c    **** ***************************************************************************************************
  16:.\ibuton.c    **** *
  17:.\ibuton.c    **** *                                               GRP550M CODE
  18:.\ibuton.c    **** *
  19:.\ibuton.c    **** *                                             CYPRESS PSoC5LP
  20:.\ibuton.c    **** *                                                with the
  21:.\ibuton.c    **** *                                            CY8C5969AXI-LP035
  22:.\ibuton.c    **** *
  23:.\ibuton.c    **** * Filename      : ibutton.c
  24:.\ibuton.c    **** * Version       : V1.00
  25:.\ibuton.c    **** * Programmer(s) : 
  26:.\ibuton.c    ****                   
  27:.\ibuton.c    **** ***************************************************************************************************
  28:.\ibuton.c    **** */
  29:.\ibuton.c    **** 
  30:.\ibuton.c    **** /*
  31:.\ibuton.c    **** ***************************************************************************************************
ARM GAS  C:\Users\RECEPC~1\AppData\Local\Temp\cc2GhSrY.s 			page 2


  32:.\ibuton.c    **** *                                             INCLUDE FILES
  33:.\ibuton.c    **** ***************************************************************************************************
  34:.\ibuton.c    **** */
  35:.\ibuton.c    **** #include <device.h>
  36:.\ibuton.c    **** #include "VariablesG.h"
  37:.\ibuton.c    **** #include "LCD.h"
  38:.\ibuton.c    **** 
  39:.\ibuton.c    **** /*
  40:.\ibuton.c    **** ***************************************************************************************************
  41:.\ibuton.c    **** *                                       uint8 touch_present(uint8 ibutton)
  42:.\ibuton.c    **** *
  43:.\ibuton.c    **** * Description : Revisa que hay ibutton en el lector
  44:.\ibuton.c    **** *               
  45:.\ibuton.c    **** *
  46:.\ibuton.c    **** * Argument(s) : uint8 ibutton, indica el lado donde se encuentra el ibutton
  47:.\ibuton.c    **** *
  48:.\ibuton.c    **** * Return(s)   : 0 no hay ibutton , 1 si hay ibutton
  49:.\ibuton.c    **** *
  50:.\ibuton.c    **** * Caller(s)   : 
  51:.\ibuton.c    **** *
  52:.\ibuton.c    **** * Note(s)     : none.
  53:.\ibuton.c    **** ***************************************************************************************************
  54:.\ibuton.c    **** */
  55:.\ibuton.c    **** 
  56:.\ibuton.c    **** uint8 touch_present(uint8 ibutton){  
  27              		.loc 1 56 0
  28              		.cfi_startproc
  29              		@ args = 0, pretend = 0, frame = 0
  30              		@ frame_needed = 0, uses_anonymous_args = 0
  31              	.LVL0:
  32 0000 10B5     		push	{r4, lr}
  33              		.cfi_def_cfa_offset 8
  34              		.cfi_offset 4, -8
  35              		.cfi_offset 14, -4
  57:.\ibuton.c    ****     uint8 present;
  58:.\ibuton.c    **** 	if(ibutton==1){
  36              		.loc 1 58 0
  37 0002 0128     		cmp	r0, #1
  38 0004 1CD1     		bne	.L2
  59:.\ibuton.c    **** 	    IB1_Write(0);
  39              		.loc 1 59 0
  40 0006 0020     		movs	r0, #0
  41              	.LVL1:
  42 0008 FFF7FEFF 		bl	IB1_Write
  43              	.LVL2:
  60:.\ibuton.c    **** 	    CyDelayUs(500);
  44              		.loc 1 60 0
  45 000c 4FF4FA70 		mov	r0, #500
  46 0010 FFF7FEFF 		bl	CyDelayUs
  47              	.LVL3:
  61:.\ibuton.c    **** 	    IB1_Write(1);
  48              		.loc 1 61 0
  49 0014 0120     		movs	r0, #1
  50 0016 FFF7FEFF 		bl	IB1_Write
  51              	.LVL4:
  62:.\ibuton.c    **** 	    CyDelayUs(5);
  52              		.loc 1 62 0
ARM GAS  C:\Users\RECEPC~1\AppData\Local\Temp\cc2GhSrY.s 			page 3


  53 001a 0520     		movs	r0, #5
  54 001c FFF7FEFF 		bl	CyDelayUs
  55              	.LVL5:
  63:.\ibuton.c    **** 
  64:.\ibuton.c    **** 	    if(!IB1_Read()){
  56              		.loc 1 64 0
  57 0020 FFF7FEFF 		bl	IB1_Read
  58              	.LVL6:
  59 0024 0346     		mov	r3, r0
  60 0026 58B3     		cbz	r0, .L3
  65:.\ibuton.c    **** 	        return 0;
  66:.\ibuton.c    **** 	    }
  67:.\ibuton.c    **** 
  68:.\ibuton.c    **** 	    CyDelayUs(65);
  61              		.loc 1 68 0
  62 0028 4120     		movs	r0, #65
  63 002a FFF7FEFF 		bl	CyDelayUs
  64              	.LVL7:
  69:.\ibuton.c    **** 	    present=!IB1_Read();
  65              		.loc 1 69 0
  66 002e FFF7FEFF 		bl	IB1_Read
  67              	.LVL8:
  68 0032 0446     		mov	r4, r0
  69              	.LVL9:
  70:.\ibuton.c    **** 	    CyDelayUs(240);
  70              		.loc 1 70 0
  71 0034 F020     		movs	r0, #240
  72 0036 FFF7FEFF 		bl	CyDelayUs
  73              	.LVL10:
  71:.\ibuton.c    **** 	    if(present){
  74              		.loc 1 71 0
  75 003a F4B9     		cbnz	r4, .L4
  72:.\ibuton.c    **** 	        return 1;
  76              		.loc 1 72 0
  77 003c 0123     		movs	r3, #1
  78 003e 1FE0     		b	.L3
  79              	.LVL11:
  80              	.L2:
  73:.\ibuton.c    **** 	    }
  74:.\ibuton.c    **** 	    else{
  75:.\ibuton.c    **** 	        return 0;
  76:.\ibuton.c    **** 	    } 
  77:.\ibuton.c    **** 	}
  78:.\ibuton.c    **** 	else{
  79:.\ibuton.c    **** 	    IB2_Write(0);
  81              		.loc 1 79 0
  82 0040 0020     		movs	r0, #0
  83              	.LVL12:
  84 0042 FFF7FEFF 		bl	IB2_Write
  85              	.LVL13:
  80:.\ibuton.c    **** 	    CyDelayUs(500);
  86              		.loc 1 80 0
  87 0046 4FF4FA70 		mov	r0, #500
  88 004a FFF7FEFF 		bl	CyDelayUs
  89              	.LVL14:
  81:.\ibuton.c    **** 	    IB2_Write(1);
  90              		.loc 1 81 0
ARM GAS  C:\Users\RECEPC~1\AppData\Local\Temp\cc2GhSrY.s 			page 4


  91 004e 0120     		movs	r0, #1
  92 0050 FFF7FEFF 		bl	IB2_Write
  93              	.LVL15:
  82:.\ibuton.c    **** 	    CyDelayUs(5);
  94              		.loc 1 82 0
  95 0054 0520     		movs	r0, #5
  96 0056 FFF7FEFF 		bl	CyDelayUs
  97              	.LVL16:
  83:.\ibuton.c    **** 
  84:.\ibuton.c    **** 	    if(!IB2_Read()){
  98              		.loc 1 84 0
  99 005a FFF7FEFF 		bl	IB2_Read
 100              	.LVL17:
 101 005e 0346     		mov	r3, r0
 102 0060 70B1     		cbz	r0, .L3
  85:.\ibuton.c    **** 	        return 0;
  86:.\ibuton.c    **** 	    }
  87:.\ibuton.c    **** 
  88:.\ibuton.c    **** 	    CyDelayUs(65);
 103              		.loc 1 88 0
 104 0062 4120     		movs	r0, #65
 105 0064 FFF7FEFF 		bl	CyDelayUs
 106              	.LVL18:
  89:.\ibuton.c    **** 	    present=!IB2_Read();
 107              		.loc 1 89 0
 108 0068 FFF7FEFF 		bl	IB2_Read
 109              	.LVL19:
 110 006c 0446     		mov	r4, r0
 111              	.LVL20:
  90:.\ibuton.c    **** 	    CyDelayUs(240);
 112              		.loc 1 90 0
 113 006e F020     		movs	r0, #240
 114 0070 FFF7FEFF 		bl	CyDelayUs
 115              	.LVL21:
  91:.\ibuton.c    **** 	    if(present){
 116              		.loc 1 91 0
 117 0074 1CB9     		cbnz	r4, .L5
  92:.\ibuton.c    **** 	        return 1;
 118              		.loc 1 92 0
 119 0076 0123     		movs	r3, #1
 120 0078 02E0     		b	.L3
 121              	.L4:
  75:.\ibuton.c    **** 	    } 
 122              		.loc 1 75 0
 123 007a 0023     		movs	r3, #0
 124 007c 00E0     		b	.L3
 125              	.L5:
  93:.\ibuton.c    **** 	    }
  94:.\ibuton.c    **** 	    else{
  95:.\ibuton.c    **** 	        return 0;
 126              		.loc 1 95 0
 127 007e 0023     		movs	r3, #0
 128              	.LVL22:
 129              	.L3:
  96:.\ibuton.c    **** 	    }	
  97:.\ibuton.c    **** 	}
  98:.\ibuton.c    **** }
ARM GAS  C:\Users\RECEPC~1\AppData\Local\Temp\cc2GhSrY.s 			page 5


 130              		.loc 1 98 0
 131 0080 1846     		mov	r0, r3
 132 0082 10BD     		pop	{r4, pc}
 133              		.cfi_endproc
 134              	.LFE63:
 135              		.size	touch_present, .-touch_present
 136              		.section	.text.touch_write,"ax",%progbits
 137              		.align	2
 138              		.global	touch_write
 139              		.thumb
 140              		.thumb_func
 141              		.type	touch_write, %function
 142              	touch_write:
 143              	.LFB64:
  99:.\ibuton.c    **** 
 100:.\ibuton.c    **** /*
 101:.\ibuton.c    **** ***************************************************************************************************
 102:.\ibuton.c    **** *                                  uint8 touch_write(uint8 ibutton, uint8 dato)
 103:.\ibuton.c    **** *
 104:.\ibuton.c    **** * Description : Escribe un byte en el Ibutton
 105:.\ibuton.c    **** *               
 106:.\ibuton.c    **** *
 107:.\ibuton.c    **** * Argument(s) : uint8 ibutton = lado
 108:.\ibuton.c    **** 				uint8 dato = byte que se va a escribir
 109:.\ibuton.c    **** *
 110:.\ibuton.c    **** * Return(s)   : 0 operacion correcta
 111:.\ibuton.c    **** 				1 operacion incorrecta
 112:.\ibuton.c    **** *
 113:.\ibuton.c    **** * Caller(s)   : 
 114:.\ibuton.c    **** *
 115:.\ibuton.c    **** * Note(s)     : none.
 116:.\ibuton.c    **** ***************************************************************************************************
 117:.\ibuton.c    **** */
 118:.\ibuton.c    **** 
 119:.\ibuton.c    **** uint8 touch_write(uint8 ibutton, uint8 dato){
 144              		.loc 1 119 0
 145              		.cfi_startproc
 146              		@ args = 0, pretend = 0, frame = 0
 147              		@ frame_needed = 0, uses_anonymous_args = 0
 148              	.LVL23:
 149 0000 38B5     		push	{r3, r4, r5, lr}
 150              		.cfi_def_cfa_offset 16
 151              		.cfi_offset 3, -16
 152              		.cfi_offset 4, -12
 153              		.cfi_offset 5, -8
 154              		.cfi_offset 14, -4
 155 0002 0D46     		mov	r5, r1
 120:.\ibuton.c    ****     uint8 i;
 121:.\ibuton.c    **** 	if(ibutton==1){
 156              		.loc 1 121 0
 157 0004 0128     		cmp	r0, #1
 158 0006 2DD0     		beq	.L17
 159 0008 0024     		movs	r4, #0
 160 000a 5AE0     		b	.L9
 161              	.LVL24:
 162              	.L13:
 122:.\ibuton.c    **** 	    for(i=0;i<=7;i++){
ARM GAS  C:\Users\RECEPC~1\AppData\Local\Temp\cc2GhSrY.s 			page 6


 123:.\ibuton.c    **** 	        IB1_Write(0); 
 163              		.loc 1 123 0
 164 000c 0020     		movs	r0, #0
 165 000e FFF7FEFF 		bl	IB1_Write
 166              	.LVL25:
 124:.\ibuton.c    **** 	        CyDelayUs(10);
 167              		.loc 1 124 0
 168 0012 0A20     		movs	r0, #10
 169 0014 FFF7FEFF 		bl	CyDelayUs
 170              	.LVL26:
 125:.\ibuton.c    **** 	        if(((dato>>i)&1)){
 171              		.loc 1 125 0
 172 0018 45FA04F3 		asr	r3, r5, r4
 173 001c 13F0010F 		tst	r3, #1
 174 0020 0AD0     		beq	.L10
 126:.\ibuton.c    **** 	           IB1_Write(1);
 175              		.loc 1 126 0
 176 0022 0120     		movs	r0, #1
 177 0024 FFF7FEFF 		bl	IB1_Write
 178              	.LVL27:
 127:.\ibuton.c    **** 	           CyDelayUs(10);
 179              		.loc 1 127 0
 180 0028 0A20     		movs	r0, #10
 181 002a FFF7FEFF 		bl	CyDelayUs
 182              	.LVL28:
 128:.\ibuton.c    **** 	           if(!IB1_Read()){
 183              		.loc 1 128 0
 184 002e FFF7FEFF 		bl	IB1_Read
 185              	.LVL29:
 186 0032 0346     		mov	r3, r0
 187 0034 50B9     		cbnz	r0, .L12
 188 0036 4BE0     		b	.L11
 189              	.L10:
 129:.\ibuton.c    **** 	                return 0;                
 130:.\ibuton.c    **** 	           }
 131:.\ibuton.c    **** 	        }
 132:.\ibuton.c    **** 	        else{
 133:.\ibuton.c    **** 	            IB1_Write(0); 
 190              		.loc 1 133 0
 191 0038 0020     		movs	r0, #0
 192 003a FFF7FEFF 		bl	IB1_Write
 193              	.LVL30:
 134:.\ibuton.c    **** 	            CyDelayUs(10);
 194              		.loc 1 134 0
 195 003e 0A20     		movs	r0, #10
 196 0040 FFF7FEFF 		bl	CyDelayUs
 197              	.LVL31:
 135:.\ibuton.c    **** 	           if(IB1_Read()){
 198              		.loc 1 135 0
 199 0044 FFF7FEFF 		bl	IB1_Read
 200              	.LVL32:
 201 0048 0028     		cmp	r0, #0
 202 004a 3ED1     		bne	.L18
 203              	.L12:
 136:.\ibuton.c    **** 	                return 0;                
 137:.\ibuton.c    **** 	           }            
 138:.\ibuton.c    **** 	        }
ARM GAS  C:\Users\RECEPC~1\AppData\Local\Temp\cc2GhSrY.s 			page 7


 139:.\ibuton.c    **** 	        CyDelayUs(50);
 204              		.loc 1 139 0 discriminator 2
 205 004c 3220     		movs	r0, #50
 206 004e FFF7FEFF 		bl	CyDelayUs
 207              	.LVL33:
 140:.\ibuton.c    **** 	        IB1_Write(1);
 208              		.loc 1 140 0 discriminator 2
 209 0052 0120     		movs	r0, #1
 210 0054 FFF7FEFF 		bl	IB1_Write
 211              	.LVL34:
 141:.\ibuton.c    **** 	        CyDelayUs(50);
 212              		.loc 1 141 0 discriminator 2
 213 0058 3220     		movs	r0, #50
 214 005a FFF7FEFF 		bl	CyDelayUs
 215              	.LVL35:
 122:.\ibuton.c    **** 	        IB1_Write(0); 
 216              		.loc 1 122 0 discriminator 2
 217 005e 0134     		adds	r4, r4, #1
 218              	.LVL36:
 219 0060 E4B2     		uxtb	r4, r4
 220              	.LVL37:
 221 0062 00E0     		b	.L8
 222              	.LVL38:
 223              	.L17:
 224 0064 0024     		movs	r4, #0
 225              	.LVL39:
 226              	.L8:
 122:.\ibuton.c    **** 	        IB1_Write(0); 
 227              		.loc 1 122 0 is_stmt 0 discriminator 1
 228 0066 072C     		cmp	r4, #7
 229 0068 D0D9     		bls	.L13
 142:.\ibuton.c    **** 	    }
 143:.\ibuton.c    **** 	    return 1;
 230              		.loc 1 143 0 is_stmt 1
 231 006a 0123     		movs	r3, #1
 232 006c 30E0     		b	.L11
 233              	.L16:
 144:.\ibuton.c    **** 	}
 145:.\ibuton.c    **** 	else{
 146:.\ibuton.c    **** 	    for(i=0;i<=7;i++){
 147:.\ibuton.c    **** 	        IB2_Write(0); 
 234              		.loc 1 147 0
 235 006e 0020     		movs	r0, #0
 236 0070 FFF7FEFF 		bl	IB2_Write
 237              	.LVL40:
 148:.\ibuton.c    **** 	        CyDelayUs(10);
 238              		.loc 1 148 0
 239 0074 0A20     		movs	r0, #10
 240 0076 FFF7FEFF 		bl	CyDelayUs
 241              	.LVL41:
 149:.\ibuton.c    **** 	        if(((dato>>i)&1)){
 242              		.loc 1 149 0
 243 007a 45FA04F3 		asr	r3, r5, r4
 244 007e 13F0010F 		tst	r3, #1
 245 0082 0AD0     		beq	.L14
 150:.\ibuton.c    **** 	           IB2_Write(1);
 246              		.loc 1 150 0
ARM GAS  C:\Users\RECEPC~1\AppData\Local\Temp\cc2GhSrY.s 			page 8


 247 0084 0120     		movs	r0, #1
 248 0086 FFF7FEFF 		bl	IB2_Write
 249              	.LVL42:
 151:.\ibuton.c    **** 	           CyDelayUs(10);
 250              		.loc 1 151 0
 251 008a 0A20     		movs	r0, #10
 252 008c FFF7FEFF 		bl	CyDelayUs
 253              	.LVL43:
 152:.\ibuton.c    **** 	           if(!IB2_Read()){
 254              		.loc 1 152 0
 255 0090 FFF7FEFF 		bl	IB2_Read
 256              	.LVL44:
 257 0094 0346     		mov	r3, r0
 258 0096 48B9     		cbnz	r0, .L15
 259 0098 1AE0     		b	.L11
 260              	.L14:
 153:.\ibuton.c    **** 	                return 0;                
 154:.\ibuton.c    **** 	           }
 155:.\ibuton.c    **** 	        }
 156:.\ibuton.c    **** 	        else{
 157:.\ibuton.c    **** 	            IB2_Write(0); 
 261              		.loc 1 157 0
 262 009a 0020     		movs	r0, #0
 263 009c FFF7FEFF 		bl	IB2_Write
 264              	.LVL45:
 158:.\ibuton.c    **** 	            CyDelayUs(10);
 265              		.loc 1 158 0
 266 00a0 0A20     		movs	r0, #10
 267 00a2 FFF7FEFF 		bl	CyDelayUs
 268              	.LVL46:
 159:.\ibuton.c    **** 	           if(IB2_Read()){
 269              		.loc 1 159 0
 270 00a6 FFF7FEFF 		bl	IB2_Read
 271              	.LVL47:
 272 00aa 80B9     		cbnz	r0, .L19
 273              	.L15:
 160:.\ibuton.c    **** 	                return 0;                
 161:.\ibuton.c    **** 	           }            
 162:.\ibuton.c    **** 	        }
 163:.\ibuton.c    **** 	        CyDelayUs(50);
 274              		.loc 1 163 0 discriminator 2
 275 00ac 3220     		movs	r0, #50
 276 00ae FFF7FEFF 		bl	CyDelayUs
 277              	.LVL48:
 164:.\ibuton.c    **** 	        IB2_Write(1);
 278              		.loc 1 164 0 discriminator 2
 279 00b2 0120     		movs	r0, #1
 280 00b4 FFF7FEFF 		bl	IB2_Write
 281              	.LVL49:
 165:.\ibuton.c    **** 	        CyDelayUs(50);
 282              		.loc 1 165 0 discriminator 2
 283 00b8 3220     		movs	r0, #50
 284 00ba FFF7FEFF 		bl	CyDelayUs
 285              	.LVL50:
 146:.\ibuton.c    **** 	        IB2_Write(0); 
 286              		.loc 1 146 0 discriminator 2
 287 00be 0134     		adds	r4, r4, #1
ARM GAS  C:\Users\RECEPC~1\AppData\Local\Temp\cc2GhSrY.s 			page 9


 288              	.LVL51:
 289 00c0 E4B2     		uxtb	r4, r4
 290              	.LVL52:
 291              	.L9:
 146:.\ibuton.c    **** 	        IB2_Write(0); 
 292              		.loc 1 146 0 is_stmt 0 discriminator 1
 293 00c2 072C     		cmp	r4, #7
 294 00c4 D3D9     		bls	.L16
 166:.\ibuton.c    **** 	    }
 167:.\ibuton.c    **** 	    return 1;	
 295              		.loc 1 167 0 is_stmt 1
 296 00c6 0123     		movs	r3, #1
 297 00c8 02E0     		b	.L11
 298              	.L18:
 136:.\ibuton.c    **** 	           }            
 299              		.loc 1 136 0
 300 00ca 0023     		movs	r3, #0
 301 00cc 00E0     		b	.L11
 302              	.L19:
 160:.\ibuton.c    **** 	           }            
 303              		.loc 1 160 0
 304 00ce 0023     		movs	r3, #0
 305              	.L11:
 168:.\ibuton.c    **** 	}
 169:.\ibuton.c    **** }
 306              		.loc 1 169 0
 307 00d0 1846     		mov	r0, r3
 308 00d2 38BD     		pop	{r3, r4, r5, pc}
 309              		.cfi_endproc
 310              	.LFE64:
 311              		.size	touch_write, .-touch_write
 312              		.section	.text.touch_read_byte,"ax",%progbits
 313              		.align	2
 314              		.global	touch_read_byte
 315              		.thumb
 316              		.thumb_func
 317              		.type	touch_read_byte, %function
 318              	touch_read_byte:
 319              	.LFB65:
 170:.\ibuton.c    **** 
 171:.\ibuton.c    **** /*
 172:.\ibuton.c    **** ***************************************************************************************************
 173:.\ibuton.c    **** *                                   uint8 touch_read_byte(uint8 ibutton)
 174:.\ibuton.c    **** *
 175:.\ibuton.c    **** * Description : Lee un byte del ibutton, se usa para leer los bytes del serial
 176:.\ibuton.c    **** *               
 177:.\ibuton.c    **** *
 178:.\ibuton.c    **** * Argument(s) : uint8 ibutton = lado
 179:.\ibuton.c    **** *
 180:.\ibuton.c    **** * Return(s)   : 0 = no hubo lectura
 181:.\ibuton.c    **** 				!=0 dato leido
 182:.\ibuton.c    **** *
 183:.\ibuton.c    **** * Caller(s)   : 
 184:.\ibuton.c    **** *
 185:.\ibuton.c    **** * Note(s)     : none.
 186:.\ibuton.c    **** ***************************************************************************************************
 187:.\ibuton.c    **** */
ARM GAS  C:\Users\RECEPC~1\AppData\Local\Temp\cc2GhSrY.s 			page 10


 188:.\ibuton.c    **** 
 189:.\ibuton.c    **** uint8 touch_read_byte(uint8 ibutton){
 320              		.loc 1 189 0
 321              		.cfi_startproc
 322              		@ args = 0, pretend = 0, frame = 0
 323              		@ frame_needed = 0, uses_anonymous_args = 0
 324              	.LVL53:
 325 0000 38B5     		push	{r3, r4, r5, lr}
 326              		.cfi_def_cfa_offset 16
 327              		.cfi_offset 3, -16
 328              		.cfi_offset 4, -12
 329              		.cfi_offset 5, -8
 330              		.cfi_offset 14, -4
 331              	.LVL54:
 190:.\ibuton.c    ****     uint8 i, dato=0;
 191:.\ibuton.c    **** 	if(ibutton==1){
 332              		.loc 1 191 0
 333 0002 0128     		cmp	r0, #1
 334 0004 19D0     		beq	.L27
 335 0006 0025     		movs	r5, #0
 336 0008 2C46     		mov	r4, r5
 337 000a 31E0     		b	.L23
 338              	.LVL55:
 339              	.L24:
 192:.\ibuton.c    **** 	    for(i=0;i<=7;i++){
 193:.\ibuton.c    **** 	        IB1_Write(0);    
 340              		.loc 1 193 0 discriminator 3
 341 000c 0020     		movs	r0, #0
 342 000e FFF7FEFF 		bl	IB1_Write
 343              	.LVL56:
 194:.\ibuton.c    **** 	        CyDelayUs(14);
 344              		.loc 1 194 0 discriminator 3
 345 0012 0E20     		movs	r0, #14
 346 0014 FFF7FEFF 		bl	CyDelayUs
 347              	.LVL57:
 195:.\ibuton.c    **** 	        IB1_Write(1);
 348              		.loc 1 195 0 discriminator 3
 349 0018 0120     		movs	r0, #1
 350 001a FFF7FEFF 		bl	IB1_Write
 351              	.LVL58:
 196:.\ibuton.c    **** 	        CyDelayUs(7);
 352              		.loc 1 196 0 discriminator 3
 353 001e 0720     		movs	r0, #7
 354 0020 FFF7FEFF 		bl	CyDelayUs
 355              	.LVL59:
 197:.\ibuton.c    **** 	        dato|=(IB1_Read()<<i);
 356              		.loc 1 197 0 discriminator 3
 357 0024 FFF7FEFF 		bl	IB1_Read
 358              	.LVL60:
 359 0028 A040     		lsls	r0, r0, r4
 360 002a 0543     		orrs	r5, r5, r0
 361              	.LVL61:
 362 002c EDB2     		uxtb	r5, r5
 363              	.LVL62:
 198:.\ibuton.c    **** 	        CyDelayUs(100);
 364              		.loc 1 198 0 discriminator 3
 365 002e 6420     		movs	r0, #100
ARM GAS  C:\Users\RECEPC~1\AppData\Local\Temp\cc2GhSrY.s 			page 11


 366 0030 FFF7FEFF 		bl	CyDelayUs
 367              	.LVL63:
 192:.\ibuton.c    **** 	        IB1_Write(0);    
 368              		.loc 1 192 0 discriminator 3
 369 0034 0134     		adds	r4, r4, #1
 370              	.LVL64:
 371 0036 E4B2     		uxtb	r4, r4
 372              	.LVL65:
 373 0038 01E0     		b	.L22
 374              	.LVL66:
 375              	.L27:
 376 003a 0025     		movs	r5, #0
 377 003c 2C46     		mov	r4, r5
 378              	.LVL67:
 379              	.L22:
 192:.\ibuton.c    **** 	        IB1_Write(0);    
 380              		.loc 1 192 0 is_stmt 0 discriminator 1
 381 003e 072C     		cmp	r4, #7
 382 0040 E4D9     		bls	.L24
 383 0042 17E0     		b	.L25
 384              	.L26:
 199:.\ibuton.c    **** 	    }
 200:.\ibuton.c    **** 	    return dato;
 201:.\ibuton.c    **** 	}
 202:.\ibuton.c    **** 	else{
 203:.\ibuton.c    **** 	    for(i=0;i<=7;i++){
 204:.\ibuton.c    **** 	        IB2_Write(0);    
 385              		.loc 1 204 0 is_stmt 1 discriminator 3
 386 0044 0020     		movs	r0, #0
 387 0046 FFF7FEFF 		bl	IB2_Write
 388              	.LVL68:
 205:.\ibuton.c    **** 	        CyDelayUs(14);
 389              		.loc 1 205 0 discriminator 3
 390 004a 0E20     		movs	r0, #14
 391 004c FFF7FEFF 		bl	CyDelayUs
 392              	.LVL69:
 206:.\ibuton.c    **** 	        IB2_Write(1);
 393              		.loc 1 206 0 discriminator 3
 394 0050 0120     		movs	r0, #1
 395 0052 FFF7FEFF 		bl	IB2_Write
 396              	.LVL70:
 207:.\ibuton.c    **** 	        CyDelayUs(7);
 397              		.loc 1 207 0 discriminator 3
 398 0056 0720     		movs	r0, #7
 399 0058 FFF7FEFF 		bl	CyDelayUs
 400              	.LVL71:
 208:.\ibuton.c    **** 	        dato|=(IB2_Read()<<i);
 401              		.loc 1 208 0 discriminator 3
 402 005c FFF7FEFF 		bl	IB2_Read
 403              	.LVL72:
 404 0060 A040     		lsls	r0, r0, r4
 405 0062 0543     		orrs	r5, r5, r0
 406              	.LVL73:
 407 0064 EDB2     		uxtb	r5, r5
 408              	.LVL74:
 209:.\ibuton.c    **** 	        CyDelayUs(100);
 409              		.loc 1 209 0 discriminator 3
ARM GAS  C:\Users\RECEPC~1\AppData\Local\Temp\cc2GhSrY.s 			page 12


 410 0066 6420     		movs	r0, #100
 411 0068 FFF7FEFF 		bl	CyDelayUs
 412              	.LVL75:
 203:.\ibuton.c    **** 	        IB2_Write(0);    
 413              		.loc 1 203 0 discriminator 3
 414 006c 0134     		adds	r4, r4, #1
 415              	.LVL76:
 416 006e E4B2     		uxtb	r4, r4
 417              	.LVL77:
 418              	.L23:
 203:.\ibuton.c    **** 	        IB2_Write(0);    
 419              		.loc 1 203 0 is_stmt 0 discriminator 1
 420 0070 072C     		cmp	r4, #7
 421 0072 E7D9     		bls	.L26
 422              	.L25:
 210:.\ibuton.c    **** 	    }
 211:.\ibuton.c    **** 	    return dato;	
 212:.\ibuton.c    **** 	}
 213:.\ibuton.c    **** } 
 423              		.loc 1 213 0 is_stmt 1
 424 0074 2846     		mov	r0, r5
 425 0076 38BD     		pop	{r3, r4, r5, pc}
 426              		.cfi_endproc
 427              	.LFE65:
 428              		.size	touch_read_byte, .-touch_read_byte
 429              		.section	.text.read_memory_ibutton,"ax",%progbits
 430              		.align	2
 431              		.global	read_memory_ibutton
 432              		.thumb
 433              		.thumb_func
 434              		.type	read_memory_ibutton, %function
 435              	read_memory_ibutton:
 436              	.LFB66:
 214:.\ibuton.c    **** 
 215:.\ibuton.c    **** /*
 216:.\ibuton.c    **** ***************************************************************************************************
 217:.\ibuton.c    **** *                                uint8 read_memory_ibutton(uint8 ibutton)
 218:.\ibuton.c    **** *
 219:.\ibuton.c    **** * Description : 
 220:.\ibuton.c    **** *               
 221:.\ibuton.c    **** *
 222:.\ibuton.c    **** * Argument(s) : none
 223:.\ibuton.c    **** *
 224:.\ibuton.c    **** * Return(s)   : none
 225:.\ibuton.c    **** *
 226:.\ibuton.c    **** * Caller(s)   : 
 227:.\ibuton.c    **** *
 228:.\ibuton.c    **** * Note(s)     : none.
 229:.\ibuton.c    **** ***************************************************************************************************
 230:.\ibuton.c    **** */
 231:.\ibuton.c    **** 
 232:.\ibuton.c    **** uint8 read_memory_ibutton(uint8 ibutton, uint8 pos){
 437              		.loc 1 232 0
 438              		.cfi_startproc
 439              		@ args = 0, pretend = 0, frame = 0
 440              		@ frame_needed = 0, uses_anonymous_args = 0
 441              	.LVL78:
ARM GAS  C:\Users\RECEPC~1\AppData\Local\Temp\cc2GhSrY.s 			page 13


 442 0000 38B5     		push	{r3, r4, r5, lr}
 443              		.cfi_def_cfa_offset 16
 444              		.cfi_offset 3, -16
 445              		.cfi_offset 4, -12
 446              		.cfi_offset 5, -8
 447              		.cfi_offset 14, -4
 448 0002 0C46     		mov	r4, r1
 449              	.LVL79:
 233:.\ibuton.c    ****     uint8 i, check=0;
 234:.\ibuton.c    **** 	if(ibutton==1){
 450              		.loc 1 234 0
 451 0004 0128     		cmp	r0, #1
 452 0006 64D1     		bne	.L30
 235:.\ibuton.c    **** 		if(touch_present(1)==1){				
 453              		.loc 1 235 0
 454 0008 FFF7FEFF 		bl	touch_present
 455              	.LVL80:
 456 000c 0128     		cmp	r0, #1
 457 000e 40F0C480 		bne	.L46
 236:.\ibuton.c    **** 			CyDelay(200);
 458              		.loc 1 236 0
 459 0012 C820     		movs	r0, #200
 460 0014 FFF7FEFF 		bl	CyDelay
 461              	.LVL81:
 237:.\ibuton.c    **** 			if(touch_present(1)==1){
 462              		.loc 1 237 0
 463 0018 0120     		movs	r0, #1
 464 001a FFF7FEFF 		bl	touch_present
 465              	.LVL82:
 466 001e 0128     		cmp	r0, #1
 467 0020 40F0BD80 		bne	.L47
 238:.\ibuton.c    **** 				CyDelay(200);
 468              		.loc 1 238 0
 469 0024 C820     		movs	r0, #200
 470 0026 FFF7FEFF 		bl	CyDelay
 471              	.LVL83:
 239:.\ibuton.c    **** 				touch_write(1,0xCC);
 472              		.loc 1 239 0
 473 002a 0120     		movs	r0, #1
 474 002c CC21     		movs	r1, #204
 475 002e FFF7FEFF 		bl	touch_write
 476              	.LVL84:
 240:.\ibuton.c    **** 				touch_write(1,0xF0);	
 477              		.loc 1 240 0
 478 0032 0120     		movs	r0, #1
 479 0034 F021     		movs	r1, #240
 480 0036 FFF7FEFF 		bl	touch_write
 481              	.LVL85:
 241:.\ibuton.c    **** 				touch_write(1,pos);
 482              		.loc 1 241 0
 483 003a 0120     		movs	r0, #1
 484 003c 2146     		mov	r1, r4
 485 003e FFF7FEFF 		bl	touch_write
 486              	.LVL86:
 242:.\ibuton.c    **** 				touch_write(1,0x00);
 487              		.loc 1 242 0
 488 0042 0120     		movs	r0, #1
ARM GAS  C:\Users\RECEPC~1\AppData\Local\Temp\cc2GhSrY.s 			page 14


 489 0044 0021     		movs	r1, #0
 490 0046 FFF7FEFF 		bl	touch_write
 491              	.LVL87:
 243:.\ibuton.c    **** 				if(pos==1){
 492              		.loc 1 243 0
 493 004a 012C     		cmp	r4, #1
 494 004c 20D1     		bne	.L32
 244:.\ibuton.c    **** 	                Buffer_LCD1.placa[0]=touch_read_byte(1);
 495              		.loc 1 244 0
 496 004e 0120     		movs	r0, #1
 497 0050 FFF7FEFF 		bl	touch_read_byte
 498              	.LVL88:
 499 0054 554B     		ldr	r3, .L55
 500 0056 83F86500 		strb	r0, [r3, #101]
 245:.\ibuton.c    **** 					if((Buffer_LCD1.placa[0]!=0xFF)&&(Buffer_LCD1.placa[0]<=30)){
 501              		.loc 1 245 0
 502 005a 1E28     		cmp	r0, #30
 503 005c 0FD9     		bls	.L48
 246:.\ibuton.c    **** 						check++;
 247:.\ibuton.c    **** 					}	
 248:.\ibuton.c    **** 					else{
 249:.\ibuton.c    **** 						return 0;
 504              		.loc 1 249 0
 505 005e 0020     		movs	r0, #0
 506 0060 38BD     		pop	{r3, r4, r5, pc}
 507              	.LVL89:
 508              	.L35:
 250:.\ibuton.c    **** 					}
 251:.\ibuton.c    **** 					for(i=1;i<=Buffer_LCD1.placa[0];i++){
 252:.\ibuton.c    **** 		                Buffer_LCD1.placa[i]=touch_read_byte(1);
 509              		.loc 1 252 0
 510 0062 0120     		movs	r0, #1
 511 0064 FFF7FEFF 		bl	touch_read_byte
 512              	.LVL90:
 513 0068 504B     		ldr	r3, .L55
 514 006a 2B44     		add	r3, r3, r5
 515 006c 83F86500 		strb	r0, [r3, #101]
 253:.\ibuton.c    **** 						if(Buffer_LCD1.placa[i]!=0xFF){
 516              		.loc 1 253 0
 517 0070 FF28     		cmp	r0, #255
 518 0072 01D0     		beq	.L34
 254:.\ibuton.c    **** 							check++;
 519              		.loc 1 254 0
 520 0074 601C     		adds	r0, r4, #1
 521 0076 C4B2     		uxtb	r4, r0
 522              	.LVL91:
 523              	.L34:
 251:.\ibuton.c    **** 		                Buffer_LCD1.placa[i]=touch_read_byte(1);
 524              		.loc 1 251 0 discriminator 2
 525 0078 0135     		adds	r5, r5, #1
 526              	.LVL92:
 527 007a EDB2     		uxtb	r5, r5
 528              	.LVL93:
 529 007c 01E0     		b	.L33
 530              	.LVL94:
 531              	.L48:
 532 007e 0124     		movs	r4, #1
ARM GAS  C:\Users\RECEPC~1\AppData\Local\Temp\cc2GhSrY.s 			page 15


 533 0080 2546     		mov	r5, r4
 534              	.LVL95:
 535              	.L33:
 251:.\ibuton.c    **** 		                Buffer_LCD1.placa[i]=touch_read_byte(1);
 536              		.loc 1 251 0 is_stmt 0 discriminator 1
 537 0082 4A4B     		ldr	r3, .L55
 538 0084 93F86530 		ldrb	r3, [r3, #101]	@ zero_extendqisi2
 539 0088 AB42     		cmp	r3, r5
 540 008a EAD2     		bcs	.L35
 255:.\ibuton.c    **** 						}
 256:.\ibuton.c    **** 					}
 257:.\ibuton.c    **** 					return check;
 541              		.loc 1 257 0 is_stmt 1
 542 008c 2046     		mov	r0, r4
 543 008e 38BD     		pop	{r3, r4, r5, pc}
 544              	.LVL96:
 545              	.L32:
 258:.\ibuton.c    **** 				}
 259:.\ibuton.c    **** 				else{
 260:.\ibuton.c    **** 	                Buffer_LCD1.cuenta[0]=touch_read_byte(1);
 546              		.loc 1 260 0
 547 0090 0120     		movs	r0, #1
 548 0092 FFF7FEFF 		bl	touch_read_byte
 549              	.LVL97:
 550 0096 454B     		ldr	r3, .L55
 551 0098 83F84700 		strb	r0, [r3, #71]
 261:.\ibuton.c    **** 					if((Buffer_LCD1.cuenta[0]!=0xFF)&&(Buffer_LCD1.cuenta[0]<=30)){
 552              		.loc 1 261 0
 553 009c 1E28     		cmp	r0, #30
 554 009e 0FD9     		bls	.L49
 262:.\ibuton.c    **** 						check++;
 263:.\ibuton.c    **** 					}
 264:.\ibuton.c    **** 					else{
 265:.\ibuton.c    **** 						return 0;
 555              		.loc 1 265 0
 556 00a0 0020     		movs	r0, #0
 557 00a2 38BD     		pop	{r3, r4, r5, pc}
 558              	.LVL98:
 559              	.L38:
 266:.\ibuton.c    **** 					}
 267:.\ibuton.c    **** 					for(i=1;i<=Buffer_LCD1.cuenta[0];i++){
 268:.\ibuton.c    **** 		                Buffer_LCD1.cuenta[i]=touch_read_byte(1);
 560              		.loc 1 268 0
 561 00a4 0120     		movs	r0, #1
 562 00a6 FFF7FEFF 		bl	touch_read_byte
 563              	.LVL99:
 564 00aa 404B     		ldr	r3, .L55
 565 00ac 2B44     		add	r3, r3, r5
 566 00ae 83F84700 		strb	r0, [r3, #71]
 269:.\ibuton.c    **** 						if(Buffer_LCD1.cuenta[i]!=0xFF){
 567              		.loc 1 269 0
 568 00b2 FF28     		cmp	r0, #255
 569 00b4 01D0     		beq	.L37
 270:.\ibuton.c    **** 							check++;
 570              		.loc 1 270 0
 571 00b6 601C     		adds	r0, r4, #1
 572 00b8 C4B2     		uxtb	r4, r0
ARM GAS  C:\Users\RECEPC~1\AppData\Local\Temp\cc2GhSrY.s 			page 16


 573              	.LVL100:
 574              	.L37:
 267:.\ibuton.c    **** 		                Buffer_LCD1.cuenta[i]=touch_read_byte(1);
 575              		.loc 1 267 0 discriminator 2
 576 00ba 0135     		adds	r5, r5, #1
 577              	.LVL101:
 578 00bc EDB2     		uxtb	r5, r5
 579              	.LVL102:
 580 00be 01E0     		b	.L36
 581              	.LVL103:
 582              	.L49:
 583 00c0 0124     		movs	r4, #1
 584 00c2 2546     		mov	r5, r4
 585              	.LVL104:
 586              	.L36:
 267:.\ibuton.c    **** 		                Buffer_LCD1.cuenta[i]=touch_read_byte(1);
 587              		.loc 1 267 0 is_stmt 0 discriminator 1
 588 00c4 394B     		ldr	r3, .L55
 589 00c6 93F84730 		ldrb	r3, [r3, #71]	@ zero_extendqisi2
 590 00ca AB42     		cmp	r3, r5
 591 00cc EAD2     		bcs	.L38
 271:.\ibuton.c    **** 						}
 272:.\ibuton.c    **** 					}
 273:.\ibuton.c    **** 					return check;				
 592              		.loc 1 273 0 is_stmt 1
 593 00ce 2046     		mov	r0, r4
 594 00d0 38BD     		pop	{r3, r4, r5, pc}
 595              	.LVL105:
 596              	.L30:
 274:.\ibuton.c    **** 				}
 275:.\ibuton.c    **** 			}
 276:.\ibuton.c    **** 			else{
 277:.\ibuton.c    **** 				return check;
 278:.\ibuton.c    **** 			}
 279:.\ibuton.c    **** 		}
 280:.\ibuton.c    **** 		else{
 281:.\ibuton.c    **** 			return check;	
 282:.\ibuton.c    **** 		}
 283:.\ibuton.c    **** 	}
 284:.\ibuton.c    **** 	else{
 285:.\ibuton.c    **** 		if(touch_present(2)==1){				
 597              		.loc 1 285 0
 598 00d2 0220     		movs	r0, #2
 599              	.LVL106:
 600 00d4 FFF7FEFF 		bl	touch_present
 601              	.LVL107:
 602 00d8 0128     		cmp	r0, #1
 603 00da 62D1     		bne	.L50
 286:.\ibuton.c    **** 			CyDelay(200);
 604              		.loc 1 286 0
 605 00dc C820     		movs	r0, #200
 606 00de FFF7FEFF 		bl	CyDelay
 607              	.LVL108:
 287:.\ibuton.c    **** 			if(touch_present(2)==1){
 608              		.loc 1 287 0
 609 00e2 0220     		movs	r0, #2
 610 00e4 FFF7FEFF 		bl	touch_present
ARM GAS  C:\Users\RECEPC~1\AppData\Local\Temp\cc2GhSrY.s 			page 17


 611              	.LVL109:
 612 00e8 0128     		cmp	r0, #1
 613 00ea 5CD1     		bne	.L51
 288:.\ibuton.c    **** 				CyDelay(200);
 614              		.loc 1 288 0
 615 00ec C820     		movs	r0, #200
 616 00ee FFF7FEFF 		bl	CyDelay
 617              	.LVL110:
 289:.\ibuton.c    **** 				touch_write(2,0xCC);
 618              		.loc 1 289 0
 619 00f2 0220     		movs	r0, #2
 620 00f4 CC21     		movs	r1, #204
 621 00f6 FFF7FEFF 		bl	touch_write
 622              	.LVL111:
 290:.\ibuton.c    **** 				touch_write(2,0xF0);	
 623              		.loc 1 290 0
 624 00fa 0220     		movs	r0, #2
 625 00fc F021     		movs	r1, #240
 626 00fe FFF7FEFF 		bl	touch_write
 627              	.LVL112:
 291:.\ibuton.c    **** 				touch_write(2,pos);
 628              		.loc 1 291 0
 629 0102 0220     		movs	r0, #2
 630 0104 2146     		mov	r1, r4
 631 0106 FFF7FEFF 		bl	touch_write
 632              	.LVL113:
 292:.\ibuton.c    **** 				touch_write(2,0x00);
 633              		.loc 1 292 0
 634 010a 0220     		movs	r0, #2
 635 010c 0021     		movs	r1, #0
 636 010e FFF7FEFF 		bl	touch_write
 637              	.LVL114:
 293:.\ibuton.c    **** 				if(pos==1){
 638              		.loc 1 293 0
 639 0112 012C     		cmp	r4, #1
 640 0114 20D1     		bne	.L39
 294:.\ibuton.c    **** 	                Buffer_LCD2.placa[0]=touch_read_byte(2);
 641              		.loc 1 294 0
 642 0116 0220     		movs	r0, #2
 643 0118 FFF7FEFF 		bl	touch_read_byte
 644              	.LVL115:
 645 011c 244B     		ldr	r3, .L55+4
 646 011e 83F86500 		strb	r0, [r3, #101]
 295:.\ibuton.c    **** 					if((Buffer_LCD2.placa[0]!=0xFF)&&(Buffer_LCD2.placa[0]<=30)){
 647              		.loc 1 295 0
 648 0122 1E28     		cmp	r0, #30
 649 0124 0FD9     		bls	.L52
 296:.\ibuton.c    **** 						check++;
 297:.\ibuton.c    **** 					}
 298:.\ibuton.c    **** 					else{
 299:.\ibuton.c    **** 						return 0;
 650              		.loc 1 299 0
 651 0126 0020     		movs	r0, #0
 652 0128 38BD     		pop	{r3, r4, r5, pc}
 653              	.LVL116:
 654              	.L42:
 300:.\ibuton.c    **** 					}
ARM GAS  C:\Users\RECEPC~1\AppData\Local\Temp\cc2GhSrY.s 			page 18


 301:.\ibuton.c    **** 					for(i=1;i<=Buffer_LCD2.placa[0];i++){
 302:.\ibuton.c    **** 		                Buffer_LCD2.placa[i]=touch_read_byte(2);
 655              		.loc 1 302 0
 656 012a 0220     		movs	r0, #2
 657 012c FFF7FEFF 		bl	touch_read_byte
 658              	.LVL117:
 659 0130 1F4B     		ldr	r3, .L55+4
 660 0132 2B44     		add	r3, r3, r5
 661 0134 83F86500 		strb	r0, [r3, #101]
 303:.\ibuton.c    **** 						if(Buffer_LCD2.placa[i]!=0xFF){
 662              		.loc 1 303 0
 663 0138 FF28     		cmp	r0, #255
 664 013a 01D0     		beq	.L41
 304:.\ibuton.c    **** 							check++;
 665              		.loc 1 304 0
 666 013c 601C     		adds	r0, r4, #1
 667 013e C4B2     		uxtb	r4, r0
 668              	.LVL118:
 669              	.L41:
 301:.\ibuton.c    **** 		                Buffer_LCD2.placa[i]=touch_read_byte(2);
 670              		.loc 1 301 0 discriminator 2
 671 0140 0135     		adds	r5, r5, #1
 672              	.LVL119:
 673 0142 EDB2     		uxtb	r5, r5
 674              	.LVL120:
 675 0144 01E0     		b	.L40
 676              	.LVL121:
 677              	.L52:
 678 0146 0124     		movs	r4, #1
 679 0148 2546     		mov	r5, r4
 680              	.LVL122:
 681              	.L40:
 301:.\ibuton.c    **** 		                Buffer_LCD2.placa[i]=touch_read_byte(2);
 682              		.loc 1 301 0 is_stmt 0 discriminator 1
 683 014a 194B     		ldr	r3, .L55+4
 684 014c 93F86530 		ldrb	r3, [r3, #101]	@ zero_extendqisi2
 685 0150 AB42     		cmp	r3, r5
 686 0152 EAD2     		bcs	.L42
 305:.\ibuton.c    **** 						}
 306:.\ibuton.c    **** 					}
 307:.\ibuton.c    **** 					return check;
 687              		.loc 1 307 0 is_stmt 1
 688 0154 2046     		mov	r0, r4
 689 0156 38BD     		pop	{r3, r4, r5, pc}
 690              	.LVL123:
 691              	.L39:
 308:.\ibuton.c    **** 				}
 309:.\ibuton.c    **** 				else{
 310:.\ibuton.c    **** 	                Buffer_LCD2.cuenta[0]=touch_read_byte(2);
 692              		.loc 1 310 0
 693 0158 0220     		movs	r0, #2
 694 015a FFF7FEFF 		bl	touch_read_byte
 695              	.LVL124:
 696 015e 144B     		ldr	r3, .L55+4
 697 0160 83F84700 		strb	r0, [r3, #71]
 311:.\ibuton.c    **** 					if((Buffer_LCD2.cuenta[0]!=0xFF)&&(Buffer_LCD2.cuenta[0]<=30)){
 698              		.loc 1 311 0
ARM GAS  C:\Users\RECEPC~1\AppData\Local\Temp\cc2GhSrY.s 			page 19


 699 0164 1E28     		cmp	r0, #30
 700 0166 0FD9     		bls	.L53
 312:.\ibuton.c    **** 						check++;
 313:.\ibuton.c    **** 					}
 314:.\ibuton.c    **** 					else{
 315:.\ibuton.c    **** 						return 0;
 701              		.loc 1 315 0
 702 0168 0020     		movs	r0, #0
 703 016a 38BD     		pop	{r3, r4, r5, pc}
 704              	.LVL125:
 705              	.L45:
 316:.\ibuton.c    **** 					}
 317:.\ibuton.c    **** 					for(i=1;i<=Buffer_LCD2.cuenta[0];i++){
 318:.\ibuton.c    **** 		                Buffer_LCD2.cuenta[i]=touch_read_byte(2);
 706              		.loc 1 318 0
 707 016c 0220     		movs	r0, #2
 708 016e FFF7FEFF 		bl	touch_read_byte
 709              	.LVL126:
 710 0172 0F4B     		ldr	r3, .L55+4
 711 0174 2B44     		add	r3, r3, r5
 712 0176 83F84700 		strb	r0, [r3, #71]
 319:.\ibuton.c    **** 						if(Buffer_LCD2.cuenta[i]!=0xFF){
 713              		.loc 1 319 0
 714 017a FF28     		cmp	r0, #255
 715 017c 01D0     		beq	.L44
 320:.\ibuton.c    **** 							check++;
 716              		.loc 1 320 0
 717 017e 601C     		adds	r0, r4, #1
 718 0180 C4B2     		uxtb	r4, r0
 719              	.LVL127:
 720              	.L44:
 317:.\ibuton.c    **** 		                Buffer_LCD2.cuenta[i]=touch_read_byte(2);
 721              		.loc 1 317 0 discriminator 2
 722 0182 0135     		adds	r5, r5, #1
 723              	.LVL128:
 724 0184 EDB2     		uxtb	r5, r5
 725              	.LVL129:
 726 0186 01E0     		b	.L43
 727              	.LVL130:
 728              	.L53:
 729 0188 0124     		movs	r4, #1
 730 018a 2546     		mov	r5, r4
 731              	.LVL131:
 732              	.L43:
 317:.\ibuton.c    **** 		                Buffer_LCD2.cuenta[i]=touch_read_byte(2);
 733              		.loc 1 317 0 is_stmt 0 discriminator 1
 734 018c 084B     		ldr	r3, .L55+4
 735 018e 93F84730 		ldrb	r3, [r3, #71]	@ zero_extendqisi2
 736 0192 AB42     		cmp	r3, r5
 737 0194 EAD2     		bcs	.L45
 321:.\ibuton.c    **** 						}
 322:.\ibuton.c    **** 					}
 323:.\ibuton.c    **** 					return check;				
 738              		.loc 1 323 0 is_stmt 1
 739 0196 2046     		mov	r0, r4
 740 0198 38BD     		pop	{r3, r4, r5, pc}
 741              	.LVL132:
ARM GAS  C:\Users\RECEPC~1\AppData\Local\Temp\cc2GhSrY.s 			page 20


 742              	.L46:
 281:.\ibuton.c    **** 		}
 743              		.loc 1 281 0
 744 019a 0020     		movs	r0, #0
 745 019c 38BD     		pop	{r3, r4, r5, pc}
 746              	.L47:
 277:.\ibuton.c    **** 			}
 747              		.loc 1 277 0
 748 019e 0020     		movs	r0, #0
 749 01a0 38BD     		pop	{r3, r4, r5, pc}
 750              	.L50:
 324:.\ibuton.c    **** 				}
 325:.\ibuton.c    **** 			}
 326:.\ibuton.c    **** 			else{
 327:.\ibuton.c    **** 				return check;
 328:.\ibuton.c    **** 			}
 329:.\ibuton.c    **** 		}
 330:.\ibuton.c    **** 		else{
 331:.\ibuton.c    **** 			return check;	
 751              		.loc 1 331 0
 752 01a2 0020     		movs	r0, #0
 753 01a4 38BD     		pop	{r3, r4, r5, pc}
 754              	.L51:
 327:.\ibuton.c    **** 			}
 755              		.loc 1 327 0
 756 01a6 0020     		movs	r0, #0
 332:.\ibuton.c    **** 		}	
 333:.\ibuton.c    **** 	}
 334:.\ibuton.c    **** }
 757              		.loc 1 334 0
 758 01a8 38BD     		pop	{r3, r4, r5, pc}
 759              	.L56:
 760 01aa 00BF     		.align	2
 761              	.L55:
 762 01ac 00000000 		.word	Buffer_LCD1
 763 01b0 00000000 		.word	Buffer_LCD2
 764              		.cfi_endproc
 765              	.LFE66:
 766              		.size	read_memory_ibutton, .-read_memory_ibutton
 767              		.section	.text.touch_write_memoria,"ax",%progbits
 768              		.align	2
 769              		.global	touch_write_memoria
 770              		.thumb
 771              		.thumb_func
 772              		.type	touch_write_memoria, %function
 773              	touch_write_memoria:
 774              	.LFB67:
 335:.\ibuton.c    **** 
 336:.\ibuton.c    **** /*
 337:.\ibuton.c    **** ***************************************************************************************************
 338:.\ibuton.c    **** *          uint8 touch_write_memoria(uint8 ibutton, uint8 cantidad, uint8 pos, uint8 *valor)
 339:.\ibuton.c    **** *
 340:.\ibuton.c    **** * Description : 
 341:.\ibuton.c    **** *               
 342:.\ibuton.c    **** *
 343:.\ibuton.c    **** * Argument(s) : none
 344:.\ibuton.c    **** *
ARM GAS  C:\Users\RECEPC~1\AppData\Local\Temp\cc2GhSrY.s 			page 21


 345:.\ibuton.c    **** * Return(s)   : none
 346:.\ibuton.c    **** *
 347:.\ibuton.c    **** * Caller(s)   : 
 348:.\ibuton.c    **** *
 349:.\ibuton.c    **** * Note(s)     : none.
 350:.\ibuton.c    **** ***************************************************************************************************
 351:.\ibuton.c    **** */
 352:.\ibuton.c    **** 
 353:.\ibuton.c    **** uint8 touch_write_memoria(uint8 ibutton, uint8 cantidad, uint8 pos, uint8 *valor){
 775              		.loc 1 353 0
 776              		.cfi_startproc
 777              		@ args = 0, pretend = 0, frame = 0
 778              		@ frame_needed = 0, uses_anonymous_args = 0
 779              	.LVL133:
 780 0000 2DE9F041 		push	{r4, r5, r6, r7, r8, lr}
 781              		.cfi_def_cfa_offset 24
 782              		.cfi_offset 4, -24
 783              		.cfi_offset 5, -20
 784              		.cfi_offset 6, -16
 785              		.cfi_offset 7, -12
 786              		.cfi_offset 8, -8
 787              		.cfi_offset 14, -4
 788 0004 0D46     		mov	r5, r1
 789 0006 1746     		mov	r7, r2
 790 0008 1E46     		mov	r6, r3
 791              	.LVL134:
 354:.\ibuton.c    **** 	uint8 i,check=0;
 355:.\ibuton.c    **** 	if(ibutton==1){
 792              		.loc 1 355 0
 793 000a 0128     		cmp	r0, #1
 794 000c 40F0B180 		bne	.L58
 356:.\ibuton.c    **** 		if(touch_present(1)==1){
 795              		.loc 1 356 0
 796 0010 FFF7FEFF 		bl	touch_present
 797              	.LVL135:
 798 0014 0128     		cmp	r0, #1
 799 0016 40F05B81 		bne	.L74
 357:.\ibuton.c    **** 			CyDelay(200);
 800              		.loc 1 357 0
 801 001a C820     		movs	r0, #200
 802 001c FFF7FEFF 		bl	CyDelay
 803              	.LVL136:
 358:.\ibuton.c    **** 	        touch_write(1,0xCC);
 804              		.loc 1 358 0
 805 0020 0120     		movs	r0, #1
 806 0022 CC21     		movs	r1, #204
 807 0024 FFF7FEFF 		bl	touch_write
 808              	.LVL137:
 359:.\ibuton.c    **** 			touch_write(1,0x0F);
 809              		.loc 1 359 0
 810 0028 0120     		movs	r0, #1
 811 002a 0F21     		movs	r1, #15
 812 002c FFF7FEFF 		bl	touch_write
 813              	.LVL138:
 360:.\ibuton.c    **** 			touch_write(1,pos);
 814              		.loc 1 360 0
 815 0030 0120     		movs	r0, #1
ARM GAS  C:\Users\RECEPC~1\AppData\Local\Temp\cc2GhSrY.s 			page 22


 816 0032 3946     		mov	r1, r7
 817 0034 FFF7FEFF 		bl	touch_write
 818              	.LVL139:
 361:.\ibuton.c    **** 			touch_write(1,0x00);
 819              		.loc 1 361 0
 820 0038 0120     		movs	r0, #1
 821 003a 0021     		movs	r1, #0
 822 003c FFF7FEFF 		bl	touch_write
 823              	.LVL140:
 362:.\ibuton.c    **** 			for(i=0;i<=cantidad;i++){
 824              		.loc 1 362 0
 825 0040 0024     		movs	r4, #0
 826 0042 05E0     		b	.L60
 827              	.LVL141:
 828              	.L61:
 363:.\ibuton.c    **** 				touch_write(1,valor[i]);
 829              		.loc 1 363 0 discriminator 3
 830 0044 0120     		movs	r0, #1
 831 0046 315D     		ldrb	r1, [r6, r4]	@ zero_extendqisi2
 832 0048 FFF7FEFF 		bl	touch_write
 833              	.LVL142:
 362:.\ibuton.c    **** 			for(i=0;i<=cantidad;i++){
 834              		.loc 1 362 0 discriminator 3
 835 004c 0134     		adds	r4, r4, #1
 836              	.LVL143:
 837 004e E4B2     		uxtb	r4, r4
 838              	.LVL144:
 839              	.L60:
 362:.\ibuton.c    **** 			for(i=0;i<=cantidad;i++){
 840              		.loc 1 362 0 is_stmt 0 discriminator 1
 841 0050 AC42     		cmp	r4, r5
 842 0052 F7D9     		bls	.L61
 364:.\ibuton.c    **** 			}
 365:.\ibuton.c    **** 			CyDelay(750);
 843              		.loc 1 365 0 is_stmt 1
 844 0054 40F2EE20 		movw	r0, #750
 845 0058 FFF7FEFF 		bl	CyDelay
 846              	.LVL145:
 366:.\ibuton.c    **** 			if(touch_present(1)==1){
 847              		.loc 1 366 0
 848 005c 0120     		movs	r0, #1
 849 005e FFF7FEFF 		bl	touch_present
 850              	.LVL146:
 851 0062 0128     		cmp	r0, #1
 852 0064 40F03681 		bne	.L75
 367:.\ibuton.c    **** 				CyDelay(200);
 853              		.loc 1 367 0
 854 0068 C820     		movs	r0, #200
 855 006a FFF7FEFF 		bl	CyDelay
 856              	.LVL147:
 368:.\ibuton.c    **** 				touch_write(1,0xCC);
 857              		.loc 1 368 0
 858 006e 0120     		movs	r0, #1
 859 0070 CC21     		movs	r1, #204
 860 0072 FFF7FEFF 		bl	touch_write
 861              	.LVL148:
 369:.\ibuton.c    **** 				touch_write(1,0xAA);	
ARM GAS  C:\Users\RECEPC~1\AppData\Local\Temp\cc2GhSrY.s 			page 23


 862              		.loc 1 369 0
 863 0076 0120     		movs	r0, #1
 864 0078 AA21     		movs	r1, #170
 865 007a FFF7FEFF 		bl	touch_write
 866              	.LVL149:
 370:.\ibuton.c    **** 				for(x=0;x<=cantidad+2;x++){
 867              		.loc 1 370 0
 868 007e 0022     		movs	r2, #0
 869 0080 9E4B     		ldr	r3, .L85
 870 0082 1A60     		str	r2, [r3]
 871 0084 0AE0     		b	.L62
 872              	.LVL150:
 873              	.L63:
 371:.\ibuton.c    **** 	                Buffer_LCD1.id[x]=touch_read_byte(1);
 874              		.loc 1 371 0 discriminator 3
 875 0086 0120     		movs	r0, #1
 876 0088 FFF7FEFF 		bl	touch_read_byte
 877              	.LVL151:
 878 008c 9C4B     		ldr	r3, .L85+4
 879 008e 1C44     		add	r4, r4, r3
 880 0090 84F82900 		strb	r0, [r4, #41]
 370:.\ibuton.c    **** 				for(x=0;x<=cantidad+2;x++){
 881              		.loc 1 370 0 discriminator 3
 882 0094 994A     		ldr	r2, .L85
 883 0096 1368     		ldr	r3, [r2]
 884 0098 0133     		adds	r3, r3, #1
 885 009a 1360     		str	r3, [r2]
 886              	.L62:
 370:.\ibuton.c    **** 				for(x=0;x<=cantidad+2;x++){
 887              		.loc 1 370 0 is_stmt 0 discriminator 1
 888 009c 2E46     		mov	r6, r5
 889 009e AB1C     		adds	r3, r5, #2
 890 00a0 964A     		ldr	r2, .L85
 891 00a2 1468     		ldr	r4, [r2]
 892 00a4 A342     		cmp	r3, r4
 893 00a6 EED2     		bcs	.L63
 372:.\ibuton.c    **** 				}
 373:.\ibuton.c    **** 				CyDelay(750);
 894              		.loc 1 373 0 is_stmt 1
 895 00a8 40F2EE20 		movw	r0, #750
 896 00ac FFF7FEFF 		bl	CyDelay
 897              	.LVL152:
 374:.\ibuton.c    **** 				if(touch_present(1)==1){
 898              		.loc 1 374 0
 899 00b0 0120     		movs	r0, #1
 900 00b2 FFF7FEFF 		bl	touch_present
 901              	.LVL153:
 902 00b6 0128     		cmp	r0, #1
 903 00b8 40F00E81 		bne	.L76
 375:.\ibuton.c    **** 					CyDelay(200);
 904              		.loc 1 375 0
 905 00bc C820     		movs	r0, #200
 906 00be FFF7FEFF 		bl	CyDelay
 907              	.LVL154:
 376:.\ibuton.c    **** 					touch_write(1,0xCC);
 908              		.loc 1 376 0
 909 00c2 0120     		movs	r0, #1
ARM GAS  C:\Users\RECEPC~1\AppData\Local\Temp\cc2GhSrY.s 			page 24


 910 00c4 CC21     		movs	r1, #204
 911 00c6 FFF7FEFF 		bl	touch_write
 912              	.LVL155:
 377:.\ibuton.c    **** 					touch_write(1,0x55);	
 913              		.loc 1 377 0
 914 00ca 0120     		movs	r0, #1
 915 00cc 5521     		movs	r1, #85
 916 00ce FFF7FEFF 		bl	touch_write
 917              	.LVL156:
 378:.\ibuton.c    **** 					touch_write(1,pos);
 918              		.loc 1 378 0
 919 00d2 0120     		movs	r0, #1
 920 00d4 3946     		mov	r1, r7
 921 00d6 FFF7FEFF 		bl	touch_write
 922              	.LVL157:
 379:.\ibuton.c    **** 					touch_write(1,0x00);
 923              		.loc 1 379 0
 924 00da 0120     		movs	r0, #1
 925 00dc 0021     		movs	r1, #0
 926 00de FFF7FEFF 		bl	touch_write
 927              	.LVL158:
 380:.\ibuton.c    **** 					touch_write(1,Buffer_LCD1.id[2]);					
 928              		.loc 1 380 0
 929 00e2 0120     		movs	r0, #1
 930 00e4 864B     		ldr	r3, .L85+4
 931 00e6 93F82B10 		ldrb	r1, [r3, #43]	@ zero_extendqisi2
 932 00ea FFF7FEFF 		bl	touch_write
 933              	.LVL159:
 381:.\ibuton.c    **** 					CyDelay(750);
 934              		.loc 1 381 0
 935 00ee 40F2EE20 		movw	r0, #750
 936 00f2 FFF7FEFF 		bl	CyDelay
 937              	.LVL160:
 382:.\ibuton.c    **** 					if(touch_present(1)==1){
 938              		.loc 1 382 0
 939 00f6 0120     		movs	r0, #1
 940 00f8 FFF7FEFF 		bl	touch_present
 941              	.LVL161:
 942 00fc 0446     		mov	r4, r0
 943 00fe 0128     		cmp	r0, #1
 944 0100 40F0EC80 		bne	.L77
 383:.\ibuton.c    **** 						CyDelay(200);
 945              		.loc 1 383 0
 946 0104 C820     		movs	r0, #200
 947 0106 FFF7FEFF 		bl	CyDelay
 948              	.LVL162:
 384:.\ibuton.c    **** 						touch_write(1,0xCC);
 949              		.loc 1 384 0
 950 010a 0120     		movs	r0, #1
 951 010c CC21     		movs	r1, #204
 952 010e FFF7FEFF 		bl	touch_write
 953              	.LVL163:
 385:.\ibuton.c    **** 						touch_write(1,0xF0);	
 954              		.loc 1 385 0
 955 0112 0120     		movs	r0, #1
 956 0114 F021     		movs	r1, #240
 957 0116 FFF7FEFF 		bl	touch_write
ARM GAS  C:\Users\RECEPC~1\AppData\Local\Temp\cc2GhSrY.s 			page 25


 958              	.LVL164:
 386:.\ibuton.c    **** 						touch_write(1,pos);
 959              		.loc 1 386 0
 960 011a 0120     		movs	r0, #1
 961 011c 3946     		mov	r1, r7
 962 011e FFF7FEFF 		bl	touch_write
 963              	.LVL165:
 387:.\ibuton.c    **** 						touch_write(1,0x00);
 964              		.loc 1 387 0
 965 0122 0120     		movs	r0, #1
 966 0124 0021     		movs	r1, #0
 967 0126 FFF7FEFF 		bl	touch_write
 968              	.LVL166:
 388:.\ibuton.c    **** 						for(z=0;z<=cantidad;z++){
 969              		.loc 1 388 0
 970 012a 0023     		movs	r3, #0
 971 012c 754A     		ldr	r2, .L85+8
 972 012e 1360     		str	r3, [r2]
 354:.\ibuton.c    **** 	if(ibutton==1){
 973              		.loc 1 354 0
 974 0130 9846     		mov	r8, r3
 975              		.loc 1 388 0
 976 0132 15E0     		b	.L64
 977              	.LVL167:
 978              	.L66:
 389:.\ibuton.c    **** 			                Buffer_LCD1.id[z]=touch_read_byte(1);
 979              		.loc 1 389 0
 980 0134 0120     		movs	r0, #1
 981 0136 FFF7FEFF 		bl	touch_read_byte
 982              	.LVL168:
 983 013a 714B     		ldr	r3, .L85+4
 984 013c 1F44     		add	r7, r7, r3
 985 013e 87F82900 		strb	r0, [r7, #41]
 390:.\ibuton.c    **** 							if(Buffer_LCD1.id[z]==Buffer_LCD1.valor[z]){
 986              		.loc 1 390 0
 987 0142 704A     		ldr	r2, .L85+8
 988 0144 1268     		ldr	r2, [r2]
 989 0146 1344     		add	r3, r3, r2
 990 0148 93F82910 		ldrb	r1, [r3, #41]	@ zero_extendqisi2
 991 014c DB7A     		ldrb	r3, [r3, #11]	@ zero_extendqisi2
 992 014e 9942     		cmp	r1, r3
 993 0150 03D1     		bne	.L65
 391:.\ibuton.c    **** 								check++;	
 994              		.loc 1 391 0
 995 0152 08F10108 		add	r8, r8, #1
 996              	.LVL169:
 997 0156 5FFA88F8 		uxtb	r8, r8
 998              	.LVL170:
 999              	.L65:
 388:.\ibuton.c    **** 			                Buffer_LCD1.id[z]=touch_read_byte(1);
 1000              		.loc 1 388 0 discriminator 2
 1001 015a 0132     		adds	r2, r2, #1
 1002 015c 694B     		ldr	r3, .L85+8
 1003 015e 1A60     		str	r2, [r3]
 1004              	.LVL171:
 1005              	.L64:
 388:.\ibuton.c    **** 			                Buffer_LCD1.id[z]=touch_read_byte(1);
ARM GAS  C:\Users\RECEPC~1\AppData\Local\Temp\cc2GhSrY.s 			page 26


 1006              		.loc 1 388 0 is_stmt 0 discriminator 1
 1007 0160 684B     		ldr	r3, .L85+8
 1008 0162 1F68     		ldr	r7, [r3]
 1009 0164 BD42     		cmp	r5, r7
 1010 0166 E5D2     		bcs	.L66
 392:.\ibuton.c    **** 							}									
 393:.\ibuton.c    **** 						}
 394:.\ibuton.c    **** 						if(check==(cantidad+1)){
 1011              		.loc 1 394 0 is_stmt 1
 1012 0168 0136     		adds	r6, r6, #1
 1013 016a B045     		cmp	r8, r6
 1014 016c 40F0B880 		bne	.L78
 1015 0170 C1E0     		b	.L59
 1016              	.LVL172:
 1017              	.L58:
 395:.\ibuton.c    **** 							return 1;
 396:.\ibuton.c    **** 						}
 397:.\ibuton.c    **** 					}	
 398:.\ibuton.c    **** 				}	
 399:.\ibuton.c    **** 			}			
 400:.\ibuton.c    **** 	    }	
 401:.\ibuton.c    **** 		else{
 402:.\ibuton.c    **** 			return 0;
 403:.\ibuton.c    **** 		}
 404:.\ibuton.c    **** 	}
 405:.\ibuton.c    **** 	else{
 406:.\ibuton.c    **** 		if(touch_present(2)==1){
 1018              		.loc 1 406 0
 1019 0172 0220     		movs	r0, #2
 1020              	.LVL173:
 1021 0174 FFF7FEFF 		bl	touch_present
 1022              	.LVL174:
 1023 0178 0128     		cmp	r0, #1
 1024 017a 40F0B380 		bne	.L79
 407:.\ibuton.c    **** 			CyDelay(200);
 1025              		.loc 1 407 0
 1026 017e C820     		movs	r0, #200
 1027 0180 FFF7FEFF 		bl	CyDelay
 1028              	.LVL175:
 408:.\ibuton.c    **** 	        touch_write(2,0xCC);
 1029              		.loc 1 408 0
 1030 0184 0220     		movs	r0, #2
 1031 0186 CC21     		movs	r1, #204
 1032 0188 FFF7FEFF 		bl	touch_write
 1033              	.LVL176:
 409:.\ibuton.c    **** 			touch_write(2,0x0F);
 1034              		.loc 1 409 0
 1035 018c 0220     		movs	r0, #2
 1036 018e 0F21     		movs	r1, #15
 1037 0190 FFF7FEFF 		bl	touch_write
 1038              	.LVL177:
 410:.\ibuton.c    **** 			touch_write(2,pos);
 1039              		.loc 1 410 0
 1040 0194 0220     		movs	r0, #2
 1041 0196 3946     		mov	r1, r7
 1042 0198 FFF7FEFF 		bl	touch_write
 1043              	.LVL178:
ARM GAS  C:\Users\RECEPC~1\AppData\Local\Temp\cc2GhSrY.s 			page 27


 411:.\ibuton.c    **** 			touch_write(2,0x00);
 1044              		.loc 1 411 0
 1045 019c 0220     		movs	r0, #2
 1046 019e 0021     		movs	r1, #0
 1047 01a0 FFF7FEFF 		bl	touch_write
 1048              	.LVL179:
 412:.\ibuton.c    **** 			for(i=0;i<=cantidad;i++){
 1049              		.loc 1 412 0
 1050 01a4 0024     		movs	r4, #0
 1051 01a6 05E0     		b	.L67
 1052              	.LVL180:
 1053              	.L68:
 413:.\ibuton.c    **** 				touch_write(2,valor[i]);
 1054              		.loc 1 413 0 discriminator 3
 1055 01a8 0220     		movs	r0, #2
 1056 01aa 315D     		ldrb	r1, [r6, r4]	@ zero_extendqisi2
 1057 01ac FFF7FEFF 		bl	touch_write
 1058              	.LVL181:
 412:.\ibuton.c    **** 			for(i=0;i<=cantidad;i++){
 1059              		.loc 1 412 0 discriminator 3
 1060 01b0 0134     		adds	r4, r4, #1
 1061              	.LVL182:
 1062 01b2 E4B2     		uxtb	r4, r4
 1063              	.LVL183:
 1064              	.L67:
 412:.\ibuton.c    **** 			for(i=0;i<=cantidad;i++){
 1065              		.loc 1 412 0 is_stmt 0 discriminator 1
 1066 01b4 AC42     		cmp	r4, r5
 1067 01b6 F7D9     		bls	.L68
 414:.\ibuton.c    **** 			}
 415:.\ibuton.c    **** 			CyDelay(750);
 1068              		.loc 1 415 0 is_stmt 1
 1069 01b8 40F2EE20 		movw	r0, #750
 1070 01bc FFF7FEFF 		bl	CyDelay
 1071              	.LVL184:
 416:.\ibuton.c    **** 			if(touch_present(2)==1){
 1072              		.loc 1 416 0
 1073 01c0 0220     		movs	r0, #2
 1074 01c2 FFF7FEFF 		bl	touch_present
 1075              	.LVL185:
 1076 01c6 0128     		cmp	r0, #1
 1077 01c8 40F08E80 		bne	.L80
 417:.\ibuton.c    **** 				CyDelay(200);
 1078              		.loc 1 417 0
 1079 01cc C820     		movs	r0, #200
 1080 01ce FFF7FEFF 		bl	CyDelay
 1081              	.LVL186:
 418:.\ibuton.c    **** 				touch_write(2,0xCC);
 1082              		.loc 1 418 0
 1083 01d2 0220     		movs	r0, #2
 1084 01d4 CC21     		movs	r1, #204
 1085 01d6 FFF7FEFF 		bl	touch_write
 1086              	.LVL187:
 419:.\ibuton.c    **** 				touch_write(2,0xAA);	
 1087              		.loc 1 419 0
 1088 01da 0220     		movs	r0, #2
 1089 01dc AA21     		movs	r1, #170
ARM GAS  C:\Users\RECEPC~1\AppData\Local\Temp\cc2GhSrY.s 			page 28


 1090 01de FFF7FEFF 		bl	touch_write
 1091              	.LVL188:
 420:.\ibuton.c    **** 				for(x=0;x<=cantidad+2;x++){
 1092              		.loc 1 420 0
 1093 01e2 0022     		movs	r2, #0
 1094 01e4 454B     		ldr	r3, .L85
 1095 01e6 1A60     		str	r2, [r3]
 1096 01e8 0AE0     		b	.L69
 1097              	.LVL189:
 1098              	.L70:
 421:.\ibuton.c    **** 	                Buffer_LCD2.id[x]=touch_read_byte(2);
 1099              		.loc 1 421 0 discriminator 3
 1100 01ea 0220     		movs	r0, #2
 1101 01ec FFF7FEFF 		bl	touch_read_byte
 1102              	.LVL190:
 1103 01f0 454B     		ldr	r3, .L85+12
 1104 01f2 1C44     		add	r4, r4, r3
 1105 01f4 84F82900 		strb	r0, [r4, #41]
 420:.\ibuton.c    **** 				for(x=0;x<=cantidad+2;x++){
 1106              		.loc 1 420 0 discriminator 3
 1107 01f8 404A     		ldr	r2, .L85
 1108 01fa 1368     		ldr	r3, [r2]
 1109 01fc 0133     		adds	r3, r3, #1
 1110 01fe 1360     		str	r3, [r2]
 1111              	.L69:
 420:.\ibuton.c    **** 				for(x=0;x<=cantidad+2;x++){
 1112              		.loc 1 420 0 is_stmt 0 discriminator 1
 1113 0200 2E46     		mov	r6, r5
 1114 0202 AB1C     		adds	r3, r5, #2
 1115 0204 3D4A     		ldr	r2, .L85
 1116 0206 1468     		ldr	r4, [r2]
 1117 0208 A342     		cmp	r3, r4
 1118 020a EED2     		bcs	.L70
 422:.\ibuton.c    **** 				}
 423:.\ibuton.c    **** 				CyDelay(750);
 1119              		.loc 1 423 0 is_stmt 1
 1120 020c 40F2EE20 		movw	r0, #750
 1121 0210 FFF7FEFF 		bl	CyDelay
 1122              	.LVL191:
 424:.\ibuton.c    **** 				if(touch_present(2)==1){
 1123              		.loc 1 424 0
 1124 0214 0220     		movs	r0, #2
 1125 0216 FFF7FEFF 		bl	touch_present
 1126              	.LVL192:
 1127 021a 0128     		cmp	r0, #1
 1128 021c 66D1     		bne	.L81
 425:.\ibuton.c    **** 					CyDelay(200);
 1129              		.loc 1 425 0
 1130 021e C820     		movs	r0, #200
 1131 0220 FFF7FEFF 		bl	CyDelay
 1132              	.LVL193:
 426:.\ibuton.c    **** 					touch_write(2,0xCC);
 1133              		.loc 1 426 0
 1134 0224 0220     		movs	r0, #2
 1135 0226 CC21     		movs	r1, #204
 1136 0228 FFF7FEFF 		bl	touch_write
 1137              	.LVL194:
ARM GAS  C:\Users\RECEPC~1\AppData\Local\Temp\cc2GhSrY.s 			page 29


 427:.\ibuton.c    **** 					touch_write(2,0x55);	
 1138              		.loc 1 427 0
 1139 022c 0220     		movs	r0, #2
 1140 022e 5521     		movs	r1, #85
 1141 0230 FFF7FEFF 		bl	touch_write
 1142              	.LVL195:
 428:.\ibuton.c    **** 					touch_write(2,pos);
 1143              		.loc 1 428 0
 1144 0234 0220     		movs	r0, #2
 1145 0236 3946     		mov	r1, r7
 1146 0238 FFF7FEFF 		bl	touch_write
 1147              	.LVL196:
 429:.\ibuton.c    **** 					touch_write(2,0x00);
 1148              		.loc 1 429 0
 1149 023c 0220     		movs	r0, #2
 1150 023e 0021     		movs	r1, #0
 1151 0240 FFF7FEFF 		bl	touch_write
 1152              	.LVL197:
 430:.\ibuton.c    **** 					touch_write(2,Buffer_LCD2.id[2]);					
 1153              		.loc 1 430 0
 1154 0244 0220     		movs	r0, #2
 1155 0246 304B     		ldr	r3, .L85+12
 1156 0248 93F82B10 		ldrb	r1, [r3, #43]	@ zero_extendqisi2
 1157 024c FFF7FEFF 		bl	touch_write
 1158              	.LVL198:
 431:.\ibuton.c    **** 					CyDelay(750);
 1159              		.loc 1 431 0
 1160 0250 40F2EE20 		movw	r0, #750
 1161 0254 FFF7FEFF 		bl	CyDelay
 1162              	.LVL199:
 432:.\ibuton.c    **** 					if(touch_present(2)==1){
 1163              		.loc 1 432 0
 1164 0258 0220     		movs	r0, #2
 1165 025a FFF7FEFF 		bl	touch_present
 1166              	.LVL200:
 1167 025e 0446     		mov	r4, r0
 1168 0260 0128     		cmp	r0, #1
 1169 0262 45D1     		bne	.L82
 433:.\ibuton.c    **** 						CyDelay(200);
 1170              		.loc 1 433 0
 1171 0264 C820     		movs	r0, #200
 1172 0266 FFF7FEFF 		bl	CyDelay
 1173              	.LVL201:
 434:.\ibuton.c    **** 						touch_write(2,0xCC);
 1174              		.loc 1 434 0
 1175 026a 0220     		movs	r0, #2
 1176 026c CC21     		movs	r1, #204
 1177 026e FFF7FEFF 		bl	touch_write
 1178              	.LVL202:
 435:.\ibuton.c    **** 						touch_write(2,0xF0);	
 1179              		.loc 1 435 0
 1180 0272 0220     		movs	r0, #2
 1181 0274 F021     		movs	r1, #240
 1182 0276 FFF7FEFF 		bl	touch_write
 1183              	.LVL203:
 436:.\ibuton.c    **** 						touch_write(2,pos);
 1184              		.loc 1 436 0
ARM GAS  C:\Users\RECEPC~1\AppData\Local\Temp\cc2GhSrY.s 			page 30


 1185 027a 0220     		movs	r0, #2
 1186 027c 3946     		mov	r1, r7
 1187 027e FFF7FEFF 		bl	touch_write
 1188              	.LVL204:
 437:.\ibuton.c    **** 						touch_write(2,0x00);
 1189              		.loc 1 437 0
 1190 0282 0220     		movs	r0, #2
 1191 0284 0021     		movs	r1, #0
 1192 0286 FFF7FEFF 		bl	touch_write
 1193              	.LVL205:
 438:.\ibuton.c    **** 						for(z=0;z<=cantidad;z++){
 1194              		.loc 1 438 0
 1195 028a 0023     		movs	r3, #0
 1196 028c 1D4A     		ldr	r2, .L85+8
 1197 028e 1360     		str	r3, [r2]
 354:.\ibuton.c    **** 	if(ibutton==1){
 1198              		.loc 1 354 0
 1199 0290 9846     		mov	r8, r3
 1200              		.loc 1 438 0
 1201 0292 15E0     		b	.L71
 1202              	.LVL206:
 1203              	.L73:
 439:.\ibuton.c    **** 			                Buffer_LCD2.id[z]=touch_read_byte(2);
 1204              		.loc 1 439 0
 1205 0294 0220     		movs	r0, #2
 1206 0296 FFF7FEFF 		bl	touch_read_byte
 1207              	.LVL207:
 1208 029a 1B4B     		ldr	r3, .L85+12
 1209 029c 1F44     		add	r7, r7, r3
 1210 029e 87F82900 		strb	r0, [r7, #41]
 440:.\ibuton.c    **** 							if(Buffer_LCD2.id[z]==Buffer_LCD2.valor[z]){
 1211              		.loc 1 440 0
 1212 02a2 184A     		ldr	r2, .L85+8
 1213 02a4 1268     		ldr	r2, [r2]
 1214 02a6 1344     		add	r3, r3, r2
 1215 02a8 93F82910 		ldrb	r1, [r3, #41]	@ zero_extendqisi2
 1216 02ac DB7A     		ldrb	r3, [r3, #11]	@ zero_extendqisi2
 1217 02ae 9942     		cmp	r1, r3
 1218 02b0 03D1     		bne	.L72
 441:.\ibuton.c    **** 								check++;	
 1219              		.loc 1 441 0
 1220 02b2 08F10108 		add	r8, r8, #1
 1221              	.LVL208:
 1222 02b6 5FFA88F8 		uxtb	r8, r8
 1223              	.LVL209:
 1224              	.L72:
 438:.\ibuton.c    **** 			                Buffer_LCD2.id[z]=touch_read_byte(2);
 1225              		.loc 1 438 0 discriminator 2
 1226 02ba 0132     		adds	r2, r2, #1
 1227 02bc 114B     		ldr	r3, .L85+8
 1228 02be 1A60     		str	r2, [r3]
 1229              	.LVL210:
 1230              	.L71:
 438:.\ibuton.c    **** 			                Buffer_LCD2.id[z]=touch_read_byte(2);
 1231              		.loc 1 438 0 is_stmt 0 discriminator 1
 1232 02c0 104B     		ldr	r3, .L85+8
 1233 02c2 1F68     		ldr	r7, [r3]
ARM GAS  C:\Users\RECEPC~1\AppData\Local\Temp\cc2GhSrY.s 			page 31


 1234 02c4 BD42     		cmp	r5, r7
 1235 02c6 E5D2     		bcs	.L73
 442:.\ibuton.c    **** 							}									
 443:.\ibuton.c    **** 						}
 444:.\ibuton.c    **** 						if(check==(cantidad+1)){
 1236              		.loc 1 444 0 is_stmt 1
 1237 02c8 0136     		adds	r6, r6, #1
 1238 02ca B045     		cmp	r8, r6
 1239 02cc 12D1     		bne	.L83
 1240 02ce 12E0     		b	.L59
 1241              	.LVL211:
 1242              	.L74:
 402:.\ibuton.c    **** 		}
 1243              		.loc 1 402 0
 1244 02d0 0024     		movs	r4, #0
 1245 02d2 10E0     		b	.L59
 1246              	.LVL212:
 1247              	.L75:
 445:.\ibuton.c    **** 							return 1;
 446:.\ibuton.c    **** 						}
 447:.\ibuton.c    **** 					}	
 448:.\ibuton.c    **** 				}	
 449:.\ibuton.c    **** 			}			
 450:.\ibuton.c    **** 	    }	
 451:.\ibuton.c    **** 		else{
 452:.\ibuton.c    **** 			return 0;
 453:.\ibuton.c    **** 		}	
 454:.\ibuton.c    **** 	}
 455:.\ibuton.c    **** 	return 0;
 1248              		.loc 1 455 0
 1249 02d4 0024     		movs	r4, #0
 1250              	.LVL213:
 1251 02d6 0EE0     		b	.L59
 1252              	.LVL214:
 1253              	.L76:
 1254 02d8 0024     		movs	r4, #0
 1255 02da 0CE0     		b	.L59
 1256              	.L77:
 1257 02dc 0024     		movs	r4, #0
 1258 02de 0AE0     		b	.L59
 1259              	.LVL215:
 1260              	.L78:
 1261 02e0 0024     		movs	r4, #0
 1262 02e2 08E0     		b	.L59
 1263              	.LVL216:
 1264              	.L79:
 452:.\ibuton.c    **** 		}	
 1265              		.loc 1 452 0
 1266 02e4 0024     		movs	r4, #0
 1267 02e6 06E0     		b	.L59
 1268              	.LVL217:
 1269              	.L80:
 1270              		.loc 1 455 0
 1271 02e8 0024     		movs	r4, #0
 1272              	.LVL218:
 1273 02ea 04E0     		b	.L59
 1274              	.LVL219:
ARM GAS  C:\Users\RECEPC~1\AppData\Local\Temp\cc2GhSrY.s 			page 32


 1275              	.L81:
 1276 02ec 0024     		movs	r4, #0
 1277 02ee 02E0     		b	.L59
 1278              	.L82:
 1279 02f0 0024     		movs	r4, #0
 1280 02f2 00E0     		b	.L59
 1281              	.LVL220:
 1282              	.L83:
 1283 02f4 0024     		movs	r4, #0
 1284              	.LVL221:
 1285              	.L59:
 456:.\ibuton.c    **** }
 1286              		.loc 1 456 0
 1287 02f6 2046     		mov	r0, r4
 1288 02f8 BDE8F081 		pop	{r4, r5, r6, r7, r8, pc}
 1289              	.L86:
 1290              		.align	2
 1291              	.L85:
 1292 02fc 00000000 		.word	x
 1293 0300 00000000 		.word	Buffer_LCD1
 1294 0304 00000000 		.word	z
 1295 0308 00000000 		.word	Buffer_LCD2
 1296              		.cfi_endproc
 1297              	.LFE67:
 1298              		.size	touch_write_memoria, .-touch_write_memoria
 1299              		.section	.text.crc_check,"ax",%progbits
 1300              		.align	2
 1301              		.global	crc_check
 1302              		.thumb
 1303              		.thumb_func
 1304              		.type	crc_check, %function
 1305              	crc_check:
 1306              	.LFB68:
 457:.\ibuton.c    **** 
 458:.\ibuton.c    **** /*
 459:.\ibuton.c    **** ***************************************************************************************************
 460:.\ibuton.c    **** * 							uint8 crc_check(uint8_t crc, uint8_t data)
 461:.\ibuton.c    **** *
 462:.\ibuton.c    **** * Description : 
 463:.\ibuton.c    **** *               
 464:.\ibuton.c    **** *
 465:.\ibuton.c    **** * Argument(s) : none
 466:.\ibuton.c    **** *
 467:.\ibuton.c    **** * Return(s)   : none
 468:.\ibuton.c    **** *
 469:.\ibuton.c    **** * Caller(s)   : 
 470:.\ibuton.c    **** *
 471:.\ibuton.c    **** * Note(s)     : none.
 472:.\ibuton.c    **** ***************************************************************************************************
 473:.\ibuton.c    **** */
 474:.\ibuton.c    **** 
 475:.\ibuton.c    **** uint8 crc_check(uint8 crc, uint8 dato){
 1307              		.loc 1 475 0
 1308              		.cfi_startproc
 1309              		@ args = 0, pretend = 0, frame = 0
 1310              		@ frame_needed = 0, uses_anonymous_args = 0
 1311              		@ link register save eliminated.
ARM GAS  C:\Users\RECEPC~1\AppData\Local\Temp\cc2GhSrY.s 			page 33


 1312              	.LVL222:
 476:.\ibuton.c    ****     uint8 i;
 477:.\ibuton.c    ****     crc = crc ^ dato;
 1313              		.loc 1 477 0
 1314 0000 4840     		eors	r0, r0, r1
 1315              	.LVL223:
 478:.\ibuton.c    ****     for (i = 0; i < 8; i++)
 1316              		.loc 1 478 0
 1317 0002 0023     		movs	r3, #0
 1318 0004 09E0     		b	.L88
 1319              	.LVL224:
 1320              	.L91:
 479:.\ibuton.c    ****     {
 480:.\ibuton.c    ****         if (crc & 0x01){
 1321              		.loc 1 480 0
 1322 0006 10F0010F 		tst	r0, #1
 1323 000a 03D0     		beq	.L89
 481:.\ibuton.c    ****             crc = (crc >> 1) ^ 0x8C;
 1324              		.loc 1 481 0
 1325 000c 4008     		lsrs	r0, r0, #1
 1326              	.LVL225:
 1327 000e 80F08C00 		eor	r0, r0, #140
 1328              	.LVL226:
 1329 0012 00E0     		b	.L90
 1330              	.L89:
 482:.\ibuton.c    **** 		}	
 483:.\ibuton.c    ****         else{
 484:.\ibuton.c    ****             crc >>= 1;
 1331              		.loc 1 484 0
 1332 0014 4008     		lsrs	r0, r0, #1
 1333              	.LVL227:
 1334              	.L90:
 478:.\ibuton.c    ****     {
 1335              		.loc 1 478 0 discriminator 2
 1336 0016 0133     		adds	r3, r3, #1
 1337              	.LVL228:
 1338 0018 DBB2     		uxtb	r3, r3
 1339              	.LVL229:
 1340              	.L88:
 478:.\ibuton.c    ****     {
 1341              		.loc 1 478 0 is_stmt 0 discriminator 1
 1342 001a 072B     		cmp	r3, #7
 1343 001c F3D9     		bls	.L91
 485:.\ibuton.c    **** 		}	
 486:.\ibuton.c    ****     }
 487:.\ibuton.c    ****     return crc;
 488:.\ibuton.c    **** }
 1344              		.loc 1 488 0 is_stmt 1
 1345 001e 7047     		bx	lr
 1346              		.cfi_endproc
 1347              	.LFE68:
 1348              		.size	crc_check, .-crc_check
 1349              		.comm	rventa2,225,4
 1350              		.comm	rventa,225,4
 1351              		.comm	producto,1,1
 1352              		.comm	grado2,1,1
 1353              		.comm	grado1,1,1
ARM GAS  C:\Users\RECEPC~1\AppData\Local\Temp\cc2GhSrY.s 			page 34


 1354              		.comm	modulo,400,4
 1355              		.comm	w,4,4
 1356              		.comm	z,4,4
 1357              		.comm	y,4,4
 1358              		.comm	x,4,4
 1359              		.comm	d,4,4
 1360              		.comm	c,4,4
 1361              		.comm	b,4,4
 1362              		.comm	a,4,4
 1363              		.comm	estado_0,1,1
 1364              		.comm	Buffer_LCD2,152,4
 1365              		.comm	Buffer_LCD1,152,4
 1366              		.comm	no_venta,4,4
 1367              		.comm	id_corte,2,2
 1368              		.comm	flujo_pos2,1,1
 1369              		.comm	flujo_pos,1,1
 1370              		.comm	venta_activa2,1,1
 1371              		.comm	venta_activa,1,1
 1372              		.comm	seleccion_pos2,1,1
 1373              		.comm	seleccion_pos,1,1
 1374              		.comm	estado_lcd2,1,1
 1375              		.comm	estado_lcd1,1,1
 1376              		.comm	imagen,1,1
 1377              		.comm	no_imprime2,1,1
 1378              		.comm	no_imprime,1,1
 1379              		.comm	n_copias,1,4
 1380              		.comm	a_copias,1,1
 1381              		.comm	producto4n,11,4
 1382              		.comm	producto3n,11,4
 1383              		.comm	producto2n,11,4
 1384              		.comm	producto1n,11,4
 1385              		.comm	nombreproducto,1,1
 1386              		.comm	id_venta,6,4
 1387              		.comm	copia_recibo2,2,4
 1388              		.comm	copia_recibo,2,4
 1389              		.comm	print2,2,4
 1390              		.comm	print1,2,4
 1391              		.comm	crc_total,1,1
 1392              		.comm	pos_ibutton,1,1
 1393              		.comm	fecha_corte,6,4
 1394              		.comm	decimalD,1,1
 1395              		.comm	decimalV,1,1
 1396              		.comm	tipo_imp,2,4
 1397              		.comm	bandera,2,4
 1398              		.comm	ppux10,1,1
 1399              		.comm	teclado2,1,1
 1400              		.comm	teclado,1,1
 1401              		.comm	resultado,14,4
 1402              		.comm	buffer_i2c,64,4
 1403              		.comm	producto4b,1,1
 1404              		.comm	producto3b,1,1
 1405              		.comm	producto2b,1,1
 1406              		.comm	producto1b,1,1
 1407              		.comm	producto4,1,1
 1408              		.comm	producto3,1,1
 1409              		.comm	producto2,1,1
 1410              		.comm	producto1,1,1
ARM GAS  C:\Users\RECEPC~1\AppData\Local\Temp\cc2GhSrY.s 			page 35


 1411              		.comm	versurt,1,1
 1412              		.comm	comas2,1,1
 1413              		.comm	comas1,1,1
 1414              		.comm	teclas2,1,1
 1415              		.comm	teclas1,1,1
 1416              		.comm	cont1,1,1
 1417              		.comm	flujo_LCD2,1,1
 1418              		.comm	flujo_LCD,1,1
 1419              		.text
 1420              	.Letext0:
 1421              		.file 2 "c:\\program files (x86)\\cypress\\psoc creator\\3.3\\psoc creator\\import\\gnu\\arm\\4.9.
 1422              		.file 3 "c:\\program files (x86)\\cypress\\psoc creator\\3.3\\psoc creator\\import\\gnu\\arm\\4.9.
 1423              		.file 4 "Generated_Source\\PSoC5/cytypes.h"
 1424              		.file 5 ".\\VariablesG.h"
 1425              		.file 6 "Generated_Source\\PSoC5/core_cm3.h"
 1426              		.file 7 "Generated_Source\\PSoC5/IB1.h"
 1427              		.file 8 "Generated_Source\\PSoC5/CyLib.h"
 1428              		.file 9 "Generated_Source\\PSoC5/IB2.h"