ARM GAS  C:\Users\IN-002~1\AppData\Local\Temp\ccbDDmmd.s 			page 1


   1              		.syntax unified
   2              		.cpu cortex-m3
   3              		.fpu softvfp
   4              		.eabi_attribute 20, 1
   5              		.eabi_attribute 21, 1
   6              		.eabi_attribute 23, 3
   7              		.eabi_attribute 24, 1
   8              		.eabi_attribute 25, 1
   9              		.eabi_attribute 26, 1
  10              		.eabi_attribute 30, 1
  11              		.eabi_attribute 34, 1
  12              		.eabi_attribute 18, 4
  13              		.thumb
  14              		.file	"Impresora.c"
  15              		.text
  16              	.Ltext0:
  17              		.cfi_sections	.debug_frame
  18              		.section	.text.Impresora_Init,"ax",%progbits
  19              		.align	2
  20              		.global	Impresora_Init
  21              		.thumb
  22              		.thumb_func
  23              		.type	Impresora_Init, %function
  24              	Impresora_Init:
  25              	.LFB1:
  26              		.file 1 ".\\Generated_Source\\PSoC5\\Impresora.c"
   1:.\Generated_Source\PSoC5/Impresora.c **** /*******************************************************************************
   2:.\Generated_Source\PSoC5/Impresora.c **** * File Name: Impresora.c
   3:.\Generated_Source\PSoC5/Impresora.c **** * Version 2.30
   4:.\Generated_Source\PSoC5/Impresora.c **** *
   5:.\Generated_Source\PSoC5/Impresora.c **** * Description:
   6:.\Generated_Source\PSoC5/Impresora.c **** *  This file provides all API functionality of the UART component
   7:.\Generated_Source\PSoC5/Impresora.c **** *
   8:.\Generated_Source\PSoC5/Impresora.c **** * Note:
   9:.\Generated_Source\PSoC5/Impresora.c **** *
  10:.\Generated_Source\PSoC5/Impresora.c **** ********************************************************************************
  11:.\Generated_Source\PSoC5/Impresora.c **** * Copyright 2008-2012, Cypress Semiconductor Corporation.  All rights reserved.
  12:.\Generated_Source\PSoC5/Impresora.c **** * You may use this file only in accordance with the license, terms, conditions,
  13:.\Generated_Source\PSoC5/Impresora.c **** * disclaimers, and limitations in the end user license agreement accompanying
  14:.\Generated_Source\PSoC5/Impresora.c **** * the software package with which this file was provided.
  15:.\Generated_Source\PSoC5/Impresora.c **** *******************************************************************************/
  16:.\Generated_Source\PSoC5/Impresora.c **** 
  17:.\Generated_Source\PSoC5/Impresora.c **** #include "Impresora.h"
  18:.\Generated_Source\PSoC5/Impresora.c **** #include "CyLib.h"
  19:.\Generated_Source\PSoC5/Impresora.c **** #if(Impresora_INTERNAL_CLOCK_USED)
  20:.\Generated_Source\PSoC5/Impresora.c ****     #include "Impresora_IntClock.h"
  21:.\Generated_Source\PSoC5/Impresora.c **** #endif /* End Impresora_INTERNAL_CLOCK_USED */
  22:.\Generated_Source\PSoC5/Impresora.c **** 
  23:.\Generated_Source\PSoC5/Impresora.c **** 
  24:.\Generated_Source\PSoC5/Impresora.c **** /***************************************
  25:.\Generated_Source\PSoC5/Impresora.c **** * Global data allocation
  26:.\Generated_Source\PSoC5/Impresora.c **** ***************************************/
  27:.\Generated_Source\PSoC5/Impresora.c **** 
  28:.\Generated_Source\PSoC5/Impresora.c **** uint8 Impresora_initVar = 0u;
  29:.\Generated_Source\PSoC5/Impresora.c **** #if( Impresora_TX_ENABLED && (Impresora_TXBUFFERSIZE > Impresora_FIFO_LENGTH))
  30:.\Generated_Source\PSoC5/Impresora.c ****     volatile uint8 Impresora_txBuffer[Impresora_TXBUFFERSIZE];
  31:.\Generated_Source\PSoC5/Impresora.c ****     volatile uint8 Impresora_txBufferRead = 0u;
ARM GAS  C:\Users\IN-002~1\AppData\Local\Temp\ccbDDmmd.s 			page 2


  32:.\Generated_Source\PSoC5/Impresora.c ****     uint8 Impresora_txBufferWrite = 0u;
  33:.\Generated_Source\PSoC5/Impresora.c **** #endif /* End Impresora_TX_ENABLED */
  34:.\Generated_Source\PSoC5/Impresora.c **** #if( ( Impresora_RX_ENABLED || Impresora_HD_ENABLED ) && \
  35:.\Generated_Source\PSoC5/Impresora.c ****      (Impresora_RXBUFFERSIZE > Impresora_FIFO_LENGTH) )
  36:.\Generated_Source\PSoC5/Impresora.c ****     volatile uint8 Impresora_rxBuffer[Impresora_RXBUFFERSIZE];
  37:.\Generated_Source\PSoC5/Impresora.c ****     volatile uint8 Impresora_rxBufferRead = 0u;
  38:.\Generated_Source\PSoC5/Impresora.c ****     volatile uint8 Impresora_rxBufferWrite = 0u;
  39:.\Generated_Source\PSoC5/Impresora.c ****     volatile uint8 Impresora_rxBufferLoopDetect = 0u;
  40:.\Generated_Source\PSoC5/Impresora.c ****     volatile uint8 Impresora_rxBufferOverflow = 0u;
  41:.\Generated_Source\PSoC5/Impresora.c ****     #if (Impresora_RXHW_ADDRESS_ENABLED)
  42:.\Generated_Source\PSoC5/Impresora.c ****         volatile uint8 Impresora_rxAddressMode = Impresora_RXADDRESSMODE;
  43:.\Generated_Source\PSoC5/Impresora.c ****         volatile uint8 Impresora_rxAddressDetected = 0u;
  44:.\Generated_Source\PSoC5/Impresora.c ****     #endif /* End EnableHWAddress */
  45:.\Generated_Source\PSoC5/Impresora.c **** #endif /* End Impresora_RX_ENABLED */
  46:.\Generated_Source\PSoC5/Impresora.c **** 
  47:.\Generated_Source\PSoC5/Impresora.c **** 
  48:.\Generated_Source\PSoC5/Impresora.c **** /*******************************************************************************
  49:.\Generated_Source\PSoC5/Impresora.c **** * Function Name: Impresora_Start
  50:.\Generated_Source\PSoC5/Impresora.c **** ********************************************************************************
  51:.\Generated_Source\PSoC5/Impresora.c **** *
  52:.\Generated_Source\PSoC5/Impresora.c **** * Summary:
  53:.\Generated_Source\PSoC5/Impresora.c **** *  Initialize and Enable the UART component.
  54:.\Generated_Source\PSoC5/Impresora.c **** *  Enable the clock input to enable operation.
  55:.\Generated_Source\PSoC5/Impresora.c **** *
  56:.\Generated_Source\PSoC5/Impresora.c **** * Parameters:
  57:.\Generated_Source\PSoC5/Impresora.c **** *  None.
  58:.\Generated_Source\PSoC5/Impresora.c **** *
  59:.\Generated_Source\PSoC5/Impresora.c **** * Return:
  60:.\Generated_Source\PSoC5/Impresora.c **** *  None.
  61:.\Generated_Source\PSoC5/Impresora.c **** *
  62:.\Generated_Source\PSoC5/Impresora.c **** * Global variables:
  63:.\Generated_Source\PSoC5/Impresora.c **** *  The Impresora_intiVar variable is used to indicate initial
  64:.\Generated_Source\PSoC5/Impresora.c **** *  configuration of this component. The variable is initialized to zero (0u)
  65:.\Generated_Source\PSoC5/Impresora.c **** *  and set to one (1u) the first time UART_Start() is called. This allows for
  66:.\Generated_Source\PSoC5/Impresora.c **** *  component initialization without re-initialization in all subsequent calls
  67:.\Generated_Source\PSoC5/Impresora.c **** *  to the Impresora_Start() routine.
  68:.\Generated_Source\PSoC5/Impresora.c **** *
  69:.\Generated_Source\PSoC5/Impresora.c **** * Reentrant:
  70:.\Generated_Source\PSoC5/Impresora.c **** *  No.
  71:.\Generated_Source\PSoC5/Impresora.c **** *
  72:.\Generated_Source\PSoC5/Impresora.c **** *******************************************************************************/
  73:.\Generated_Source\PSoC5/Impresora.c **** void Impresora_Start(void) 
  74:.\Generated_Source\PSoC5/Impresora.c **** {
  75:.\Generated_Source\PSoC5/Impresora.c ****     /* If not Initialized then initialize all required hardware and software */
  76:.\Generated_Source\PSoC5/Impresora.c ****     if(Impresora_initVar == 0u)
  77:.\Generated_Source\PSoC5/Impresora.c ****     {
  78:.\Generated_Source\PSoC5/Impresora.c ****         Impresora_Init();
  79:.\Generated_Source\PSoC5/Impresora.c ****         Impresora_initVar = 1u;
  80:.\Generated_Source\PSoC5/Impresora.c ****     }
  81:.\Generated_Source\PSoC5/Impresora.c ****     Impresora_Enable();
  82:.\Generated_Source\PSoC5/Impresora.c **** }
  83:.\Generated_Source\PSoC5/Impresora.c **** 
  84:.\Generated_Source\PSoC5/Impresora.c **** 
  85:.\Generated_Source\PSoC5/Impresora.c **** /*******************************************************************************
  86:.\Generated_Source\PSoC5/Impresora.c **** * Function Name: Impresora_Init
  87:.\Generated_Source\PSoC5/Impresora.c **** ********************************************************************************
  88:.\Generated_Source\PSoC5/Impresora.c **** *
ARM GAS  C:\Users\IN-002~1\AppData\Local\Temp\ccbDDmmd.s 			page 3


  89:.\Generated_Source\PSoC5/Impresora.c **** * Summary:
  90:.\Generated_Source\PSoC5/Impresora.c **** *  Initialize component's parameters to the parameters set by user in the
  91:.\Generated_Source\PSoC5/Impresora.c **** *  customizer of the component placed onto schematic. Usually called in
  92:.\Generated_Source\PSoC5/Impresora.c **** *  Impresora_Start().
  93:.\Generated_Source\PSoC5/Impresora.c **** *
  94:.\Generated_Source\PSoC5/Impresora.c **** * Parameters:
  95:.\Generated_Source\PSoC5/Impresora.c **** *  None.
  96:.\Generated_Source\PSoC5/Impresora.c **** *
  97:.\Generated_Source\PSoC5/Impresora.c **** * Return:
  98:.\Generated_Source\PSoC5/Impresora.c **** *  None.
  99:.\Generated_Source\PSoC5/Impresora.c **** *
 100:.\Generated_Source\PSoC5/Impresora.c **** *******************************************************************************/
 101:.\Generated_Source\PSoC5/Impresora.c **** void Impresora_Init(void) 
 102:.\Generated_Source\PSoC5/Impresora.c **** {
  27              		.loc 1 102 0
  28              		.cfi_startproc
  29              		@ args = 0, pretend = 0, frame = 0
  30              		@ frame_needed = 0, uses_anonymous_args = 0
  31 0000 08B5     		push	{r3, lr}
  32              		.cfi_def_cfa_offset 8
  33              		.cfi_offset 3, -8
  34              		.cfi_offset 14, -4
 103:.\Generated_Source\PSoC5/Impresora.c ****     #if(Impresora_RX_ENABLED || Impresora_HD_ENABLED)
 104:.\Generated_Source\PSoC5/Impresora.c **** 
 105:.\Generated_Source\PSoC5/Impresora.c ****         #if(Impresora_RX_INTERRUPT_ENABLED && (Impresora_RXBUFFERSIZE > Impresora_FIFO_LENGTH))
 106:.\Generated_Source\PSoC5/Impresora.c ****             /* Set the RX Interrupt. */
 107:.\Generated_Source\PSoC5/Impresora.c ****             (void)CyIntSetVector(Impresora_RX_VECT_NUM, &Impresora_RXISR);
  35              		.loc 1 107 0
  36 0002 0020     		movs	r0, #0
  37 0004 0B49     		ldr	r1, .L3
  38 0006 FFF7FEFF 		bl	CyIntSetVector
  39              	.LVL0:
 108:.\Generated_Source\PSoC5/Impresora.c ****             CyIntSetPriority(Impresora_RX_VECT_NUM, Impresora_RX_PRIOR_NUM);
  40              		.loc 1 108 0
  41 000a 0020     		movs	r0, #0
  42 000c 0721     		movs	r1, #7
  43 000e FFF7FEFF 		bl	CyIntSetPriority
  44              	.LVL1:
 109:.\Generated_Source\PSoC5/Impresora.c ****         #endif /* End Impresora_RX_INTERRUPT_ENABLED */
 110:.\Generated_Source\PSoC5/Impresora.c **** 
 111:.\Generated_Source\PSoC5/Impresora.c ****         #if (Impresora_RXHW_ADDRESS_ENABLED)
 112:.\Generated_Source\PSoC5/Impresora.c ****             Impresora_SetRxAddressMode(Impresora_RXAddressMode);
 113:.\Generated_Source\PSoC5/Impresora.c ****             Impresora_SetRxAddress1(Impresora_RXHWADDRESS1);
 114:.\Generated_Source\PSoC5/Impresora.c ****             Impresora_SetRxAddress2(Impresora_RXHWADDRESS2);
 115:.\Generated_Source\PSoC5/Impresora.c ****         #endif /* End Impresora_RXHW_ADDRESS_ENABLED */
 116:.\Generated_Source\PSoC5/Impresora.c **** 
 117:.\Generated_Source\PSoC5/Impresora.c ****         /* Init Count7 period */
 118:.\Generated_Source\PSoC5/Impresora.c ****         Impresora_RXBITCTR_PERIOD_REG = Impresora_RXBITCTR_INIT;
  45              		.loc 1 118 0
  46 0012 7222     		movs	r2, #114
  47 0014 084B     		ldr	r3, .L3+4
  48 0016 1A70     		strb	r2, [r3]
 119:.\Generated_Source\PSoC5/Impresora.c ****         /* Configure the Initial RX interrupt mask */
 120:.\Generated_Source\PSoC5/Impresora.c ****         Impresora_RXSTATUS_MASK_REG  = Impresora_INIT_RX_INTERRUPTS_MASK;
  49              		.loc 1 120 0
  50 0018 2022     		movs	r2, #32
  51 001a 0133     		adds	r3, r3, #1
ARM GAS  C:\Users\IN-002~1\AppData\Local\Temp\ccbDDmmd.s 			page 4


  52 001c 1A70     		strb	r2, [r3]
 121:.\Generated_Source\PSoC5/Impresora.c ****     #endif /* End Impresora_RX_ENABLED || Impresora_HD_ENABLED*/
 122:.\Generated_Source\PSoC5/Impresora.c **** 
 123:.\Generated_Source\PSoC5/Impresora.c ****     #if(Impresora_TX_ENABLED)
 124:.\Generated_Source\PSoC5/Impresora.c ****         #if(Impresora_TX_INTERRUPT_ENABLED && (Impresora_TXBUFFERSIZE > Impresora_FIFO_LENGTH))
 125:.\Generated_Source\PSoC5/Impresora.c ****             /* Set the TX Interrupt. */
 126:.\Generated_Source\PSoC5/Impresora.c ****             (void)CyIntSetVector(Impresora_TX_VECT_NUM, &Impresora_TXISR);
 127:.\Generated_Source\PSoC5/Impresora.c ****             CyIntSetPriority(Impresora_TX_VECT_NUM, Impresora_TX_PRIOR_NUM);
 128:.\Generated_Source\PSoC5/Impresora.c ****         #endif /* End Impresora_TX_INTERRUPT_ENABLED */
 129:.\Generated_Source\PSoC5/Impresora.c **** 
 130:.\Generated_Source\PSoC5/Impresora.c ****         /* Write Counter Value for TX Bit Clk Generator*/
 131:.\Generated_Source\PSoC5/Impresora.c ****         #if(Impresora_TXCLKGEN_DP)
 132:.\Generated_Source\PSoC5/Impresora.c ****             Impresora_TXBITCLKGEN_CTR_REG = Impresora_BIT_CENTER;
  53              		.loc 1 132 0
  54 001e 0722     		movs	r2, #7
  55 0020 623B     		subs	r3, r3, #98
  56 0022 1A70     		strb	r2, [r3]
 133:.\Generated_Source\PSoC5/Impresora.c ****             Impresora_TXBITCLKTX_COMPLETE_REG = (Impresora_NUMBER_OF_DATA_BITS +
  57              		.loc 1 133 0
  58 0024 4822     		movs	r2, #72
  59 0026 1033     		adds	r3, r3, #16
  60 0028 1A70     		strb	r2, [r3]
 134:.\Generated_Source\PSoC5/Impresora.c ****                         Impresora_NUMBER_OF_START_BIT) * Impresora_OVER_SAMPLE_COUNT;
 135:.\Generated_Source\PSoC5/Impresora.c ****         #else
 136:.\Generated_Source\PSoC5/Impresora.c ****             Impresora_TXBITCTR_PERIOD_REG = ((Impresora_NUMBER_OF_DATA_BITS +
 137:.\Generated_Source\PSoC5/Impresora.c ****                         Impresora_NUMBER_OF_START_BIT) * Impresora_OVER_SAMPLE_8) - 1u;
 138:.\Generated_Source\PSoC5/Impresora.c ****         #endif /* End Impresora_TXCLKGEN_DP */
 139:.\Generated_Source\PSoC5/Impresora.c **** 
 140:.\Generated_Source\PSoC5/Impresora.c ****         /* Configure the Initial TX interrupt mask */
 141:.\Generated_Source\PSoC5/Impresora.c ****         #if(Impresora_TX_INTERRUPT_ENABLED && (Impresora_TXBUFFERSIZE > Impresora_FIFO_LENGTH))
 142:.\Generated_Source\PSoC5/Impresora.c ****             Impresora_TXSTATUS_MASK_REG = Impresora_TX_STS_FIFO_EMPTY;
 143:.\Generated_Source\PSoC5/Impresora.c ****         #else
 144:.\Generated_Source\PSoC5/Impresora.c ****             Impresora_TXSTATUS_MASK_REG = Impresora_INIT_TX_INTERRUPTS_MASK;
  61              		.loc 1 144 0
  62 002a 0022     		movs	r2, #0
  63 002c 4D33     		adds	r3, r3, #77
  64 002e 1A70     		strb	r2, [r3]
  65 0030 08BD     		pop	{r3, pc}
  66              	.L4:
  67 0032 00BF     		.align	2
  68              	.L3:
  69 0034 00000000 		.word	Impresora_RXISR
  70 0038 8B640040 		.word	1073767563
  71              		.cfi_endproc
  72              	.LFE1:
  73              		.size	Impresora_Init, .-Impresora_Init
  74              		.section	.text.Impresora_Enable,"ax",%progbits
  75              		.align	2
  76              		.global	Impresora_Enable
  77              		.thumb
  78              		.thumb_func
  79              		.type	Impresora_Enable, %function
  80              	Impresora_Enable:
  81              	.LFB2:
 145:.\Generated_Source\PSoC5/Impresora.c ****         #endif /*End Impresora_TX_INTERRUPT_ENABLED*/
 146:.\Generated_Source\PSoC5/Impresora.c **** 
 147:.\Generated_Source\PSoC5/Impresora.c ****     #endif /* End Impresora_TX_ENABLED */
ARM GAS  C:\Users\IN-002~1\AppData\Local\Temp\ccbDDmmd.s 			page 5


 148:.\Generated_Source\PSoC5/Impresora.c **** 
 149:.\Generated_Source\PSoC5/Impresora.c ****     #if(Impresora_PARITY_TYPE_SW)  /* Write Parity to Control Register */
 150:.\Generated_Source\PSoC5/Impresora.c ****         Impresora_WriteControlRegister( \
 151:.\Generated_Source\PSoC5/Impresora.c ****             (Impresora_ReadControlRegister() & (uint8)~Impresora_CTRL_PARITY_TYPE_MASK) | \
 152:.\Generated_Source\PSoC5/Impresora.c ****             (uint8)(Impresora_PARITY_TYPE << Impresora_CTRL_PARITY_TYPE0_SHIFT) );
 153:.\Generated_Source\PSoC5/Impresora.c ****     #endif /* End Impresora_PARITY_TYPE_SW */
 154:.\Generated_Source\PSoC5/Impresora.c **** }
 155:.\Generated_Source\PSoC5/Impresora.c **** 
 156:.\Generated_Source\PSoC5/Impresora.c **** 
 157:.\Generated_Source\PSoC5/Impresora.c **** /*******************************************************************************
 158:.\Generated_Source\PSoC5/Impresora.c **** * Function Name: Impresora_Enable
 159:.\Generated_Source\PSoC5/Impresora.c **** ********************************************************************************
 160:.\Generated_Source\PSoC5/Impresora.c **** *
 161:.\Generated_Source\PSoC5/Impresora.c **** * Summary:
 162:.\Generated_Source\PSoC5/Impresora.c **** *  Enables the UART block operation
 163:.\Generated_Source\PSoC5/Impresora.c **** *
 164:.\Generated_Source\PSoC5/Impresora.c **** * Parameters:
 165:.\Generated_Source\PSoC5/Impresora.c **** *  None.
 166:.\Generated_Source\PSoC5/Impresora.c **** *
 167:.\Generated_Source\PSoC5/Impresora.c **** * Return:
 168:.\Generated_Source\PSoC5/Impresora.c **** *  None.
 169:.\Generated_Source\PSoC5/Impresora.c **** *
 170:.\Generated_Source\PSoC5/Impresora.c **** * Global Variables:
 171:.\Generated_Source\PSoC5/Impresora.c **** *  Impresora_rxAddressDetected - set to initial state (0).
 172:.\Generated_Source\PSoC5/Impresora.c **** *
 173:.\Generated_Source\PSoC5/Impresora.c **** *******************************************************************************/
 174:.\Generated_Source\PSoC5/Impresora.c **** void Impresora_Enable(void) 
 175:.\Generated_Source\PSoC5/Impresora.c **** {
  82              		.loc 1 175 0
  83              		.cfi_startproc
  84              		@ args = 0, pretend = 0, frame = 0
  85              		@ frame_needed = 0, uses_anonymous_args = 0
  86 0000 10B5     		push	{r4, lr}
  87              		.cfi_def_cfa_offset 8
  88              		.cfi_offset 4, -8
  89              		.cfi_offset 14, -4
 176:.\Generated_Source\PSoC5/Impresora.c ****     uint8 enableInterrupts;
 177:.\Generated_Source\PSoC5/Impresora.c ****     enableInterrupts = CyEnterCriticalSection();
  90              		.loc 1 177 0
  91 0002 FFF7FEFF 		bl	CyEnterCriticalSection
  92              	.LVL2:
  93 0006 0446     		mov	r4, r0
  94              	.LVL3:
 178:.\Generated_Source\PSoC5/Impresora.c **** 
 179:.\Generated_Source\PSoC5/Impresora.c ****     #if(Impresora_RX_ENABLED || Impresora_HD_ENABLED)
 180:.\Generated_Source\PSoC5/Impresora.c ****         /*RX Counter (Count7) Enable */
 181:.\Generated_Source\PSoC5/Impresora.c ****         Impresora_RXBITCTR_CONTROL_REG |= Impresora_CNTR_ENABLE;
  95              		.loc 1 181 0
  96 0008 0B4A     		ldr	r2, .L7
  97 000a 1378     		ldrb	r3, [r2]	@ zero_extendqisi2
  98 000c 43F02003 		orr	r3, r3, #32
  99 0010 1370     		strb	r3, [r2]
 182:.\Generated_Source\PSoC5/Impresora.c ****         /* Enable the RX Interrupt. */
 183:.\Generated_Source\PSoC5/Impresora.c ****         Impresora_RXSTATUS_ACTL_REG  |= Impresora_INT_ENABLE;
 100              		.loc 1 183 0
 101 0012 0132     		adds	r2, r2, #1
 102 0014 1378     		ldrb	r3, [r2]	@ zero_extendqisi2
ARM GAS  C:\Users\IN-002~1\AppData\Local\Temp\ccbDDmmd.s 			page 6


 103 0016 43F01003 		orr	r3, r3, #16
 104 001a 1370     		strb	r3, [r2]
 184:.\Generated_Source\PSoC5/Impresora.c ****         #if(Impresora_RX_INTERRUPT_ENABLED && (Impresora_RXBUFFERSIZE > Impresora_FIFO_LENGTH))
 185:.\Generated_Source\PSoC5/Impresora.c ****             CyIntEnable(Impresora_RX_VECT_NUM);
 105              		.loc 1 185 0
 106 001c 0122     		movs	r2, #1
 107 001e 074B     		ldr	r3, .L7+4
 108 0020 1A60     		str	r2, [r3]
 186:.\Generated_Source\PSoC5/Impresora.c ****             #if (Impresora_RXHW_ADDRESS_ENABLED)
 187:.\Generated_Source\PSoC5/Impresora.c ****                 Impresora_rxAddressDetected = 0u;
 188:.\Generated_Source\PSoC5/Impresora.c ****             #endif /* End Impresora_RXHW_ADDRESS_ENABLED */
 189:.\Generated_Source\PSoC5/Impresora.c ****         #endif /* End Impresora_RX_INTERRUPT_ENABLED */
 190:.\Generated_Source\PSoC5/Impresora.c ****     #endif /* End Impresora_RX_ENABLED || Impresora_HD_ENABLED*/
 191:.\Generated_Source\PSoC5/Impresora.c **** 
 192:.\Generated_Source\PSoC5/Impresora.c ****     #if(Impresora_TX_ENABLED)
 193:.\Generated_Source\PSoC5/Impresora.c ****         /*TX Counter (DP/Count7) Enable */
 194:.\Generated_Source\PSoC5/Impresora.c ****         #if(!Impresora_TXCLKGEN_DP)
 195:.\Generated_Source\PSoC5/Impresora.c ****             Impresora_TXBITCTR_CONTROL_REG |= Impresora_CNTR_ENABLE;
 196:.\Generated_Source\PSoC5/Impresora.c ****         #endif /* End Impresora_TXCLKGEN_DP */
 197:.\Generated_Source\PSoC5/Impresora.c ****         /* Enable the TX Interrupt. */
 198:.\Generated_Source\PSoC5/Impresora.c ****         Impresora_TXSTATUS_ACTL_REG |= Impresora_INT_ENABLE;
 109              		.loc 1 198 0
 110 0022 074A     		ldr	r2, .L7+8
 111 0024 1378     		ldrb	r3, [r2]	@ zero_extendqisi2
 112 0026 43F01003 		orr	r3, r3, #16
 113 002a 1370     		strb	r3, [r2]
 199:.\Generated_Source\PSoC5/Impresora.c ****         #if(Impresora_TX_INTERRUPT_ENABLED && (Impresora_TXBUFFERSIZE > Impresora_FIFO_LENGTH))
 200:.\Generated_Source\PSoC5/Impresora.c ****             CyIntEnable(Impresora_TX_VECT_NUM);
 201:.\Generated_Source\PSoC5/Impresora.c ****         #endif /* End Impresora_TX_INTERRUPT_ENABLED*/
 202:.\Generated_Source\PSoC5/Impresora.c ****      #endif /* End Impresora_TX_ENABLED */
 203:.\Generated_Source\PSoC5/Impresora.c **** 
 204:.\Generated_Source\PSoC5/Impresora.c ****     #if(Impresora_INTERNAL_CLOCK_USED)
 205:.\Generated_Source\PSoC5/Impresora.c ****         /* Enable the clock. */
 206:.\Generated_Source\PSoC5/Impresora.c ****         Impresora_IntClock_Start();
 114              		.loc 1 206 0
 115 002c FFF7FEFF 		bl	Impresora_IntClock_Start
 116              	.LVL4:
 207:.\Generated_Source\PSoC5/Impresora.c ****     #endif /* End Impresora_INTERNAL_CLOCK_USED */
 208:.\Generated_Source\PSoC5/Impresora.c **** 
 209:.\Generated_Source\PSoC5/Impresora.c ****     CyExitCriticalSection(enableInterrupts);
 117              		.loc 1 209 0
 118 0030 2046     		mov	r0, r4
 119 0032 FFF7FEFF 		bl	CyExitCriticalSection
 120              	.LVL5:
 121 0036 10BD     		pop	{r4, pc}
 122              	.LVL6:
 123              	.L8:
 124              		.align	2
 125              	.L7:
 126 0038 9B640040 		.word	1073767579
 127 003c 00E100E0 		.word	-536813312
 128 0040 97640040 		.word	1073767575
 129              		.cfi_endproc
 130              	.LFE2:
 131              		.size	Impresora_Enable, .-Impresora_Enable
 132              		.section	.text.Impresora_Start,"ax",%progbits
 133              		.align	2
ARM GAS  C:\Users\IN-002~1\AppData\Local\Temp\ccbDDmmd.s 			page 7


 134              		.global	Impresora_Start
 135              		.thumb
 136              		.thumb_func
 137              		.type	Impresora_Start, %function
 138              	Impresora_Start:
 139              	.LFB0:
  74:.\Generated_Source\PSoC5/Impresora.c ****     /* If not Initialized then initialize all required hardware and software */
 140              		.loc 1 74 0
 141              		.cfi_startproc
 142              		@ args = 0, pretend = 0, frame = 0
 143              		@ frame_needed = 0, uses_anonymous_args = 0
 144 0000 08B5     		push	{r3, lr}
 145              		.cfi_def_cfa_offset 8
 146              		.cfi_offset 3, -8
 147              		.cfi_offset 14, -4
  76:.\Generated_Source\PSoC5/Impresora.c ****     {
 148              		.loc 1 76 0
 149 0002 054B     		ldr	r3, .L12
 150 0004 1B78     		ldrb	r3, [r3]	@ zero_extendqisi2
 151 0006 23B9     		cbnz	r3, .L10
  78:.\Generated_Source\PSoC5/Impresora.c ****         Impresora_initVar = 1u;
 152              		.loc 1 78 0
 153 0008 FFF7FEFF 		bl	Impresora_Init
 154              	.LVL7:
  79:.\Generated_Source\PSoC5/Impresora.c ****     }
 155              		.loc 1 79 0
 156 000c 0122     		movs	r2, #1
 157 000e 024B     		ldr	r3, .L12
 158 0010 1A70     		strb	r2, [r3]
 159              	.L10:
  81:.\Generated_Source\PSoC5/Impresora.c **** }
 160              		.loc 1 81 0
 161 0012 FFF7FEFF 		bl	Impresora_Enable
 162              	.LVL8:
 163 0016 08BD     		pop	{r3, pc}
 164              	.L13:
 165              		.align	2
 166              	.L12:
 167 0018 00000000 		.word	.LANCHOR0
 168              		.cfi_endproc
 169              	.LFE0:
 170              		.size	Impresora_Start, .-Impresora_Start
 171              		.section	.text.Impresora_ReadControlRegister,"ax",%progbits
 172              		.align	2
 173              		.global	Impresora_ReadControlRegister
 174              		.thumb
 175              		.thumb_func
 176              		.type	Impresora_ReadControlRegister, %function
 177              	Impresora_ReadControlRegister:
 178              	.LFB4:
 210:.\Generated_Source\PSoC5/Impresora.c **** }
 211:.\Generated_Source\PSoC5/Impresora.c **** 
 212:.\Generated_Source\PSoC5/Impresora.c **** 
 213:.\Generated_Source\PSoC5/Impresora.c **** /*******************************************************************************
 214:.\Generated_Source\PSoC5/Impresora.c **** * Function Name: Impresora_Stop
 215:.\Generated_Source\PSoC5/Impresora.c **** ********************************************************************************
 216:.\Generated_Source\PSoC5/Impresora.c **** *
ARM GAS  C:\Users\IN-002~1\AppData\Local\Temp\ccbDDmmd.s 			page 8


 217:.\Generated_Source\PSoC5/Impresora.c **** * Summary:
 218:.\Generated_Source\PSoC5/Impresora.c **** *  Disable the UART component
 219:.\Generated_Source\PSoC5/Impresora.c **** *
 220:.\Generated_Source\PSoC5/Impresora.c **** * Parameters:
 221:.\Generated_Source\PSoC5/Impresora.c **** *  None.
 222:.\Generated_Source\PSoC5/Impresora.c **** *
 223:.\Generated_Source\PSoC5/Impresora.c **** * Return:
 224:.\Generated_Source\PSoC5/Impresora.c **** *  None.
 225:.\Generated_Source\PSoC5/Impresora.c **** *
 226:.\Generated_Source\PSoC5/Impresora.c **** *******************************************************************************/
 227:.\Generated_Source\PSoC5/Impresora.c **** void Impresora_Stop(void) 
 228:.\Generated_Source\PSoC5/Impresora.c **** {
 229:.\Generated_Source\PSoC5/Impresora.c ****     uint8 enableInterrupts;
 230:.\Generated_Source\PSoC5/Impresora.c ****     enableInterrupts = CyEnterCriticalSection();
 231:.\Generated_Source\PSoC5/Impresora.c **** 
 232:.\Generated_Source\PSoC5/Impresora.c ****     /* Write Bit Counter Disable */
 233:.\Generated_Source\PSoC5/Impresora.c ****     #if(Impresora_RX_ENABLED || Impresora_HD_ENABLED)
 234:.\Generated_Source\PSoC5/Impresora.c ****         Impresora_RXBITCTR_CONTROL_REG &= (uint8)~Impresora_CNTR_ENABLE;
 235:.\Generated_Source\PSoC5/Impresora.c ****     #endif /* End Impresora_RX_ENABLED */
 236:.\Generated_Source\PSoC5/Impresora.c **** 
 237:.\Generated_Source\PSoC5/Impresora.c ****     #if(Impresora_TX_ENABLED)
 238:.\Generated_Source\PSoC5/Impresora.c ****         #if(!Impresora_TXCLKGEN_DP)
 239:.\Generated_Source\PSoC5/Impresora.c ****             Impresora_TXBITCTR_CONTROL_REG &= (uint8)~Impresora_CNTR_ENABLE;
 240:.\Generated_Source\PSoC5/Impresora.c ****         #endif /* End Impresora_TXCLKGEN_DP */
 241:.\Generated_Source\PSoC5/Impresora.c ****     #endif /* Impresora_TX_ENABLED */
 242:.\Generated_Source\PSoC5/Impresora.c **** 
 243:.\Generated_Source\PSoC5/Impresora.c ****     #if(Impresora_INTERNAL_CLOCK_USED)
 244:.\Generated_Source\PSoC5/Impresora.c ****         /* Disable the clock. */
 245:.\Generated_Source\PSoC5/Impresora.c ****         Impresora_IntClock_Stop();
 246:.\Generated_Source\PSoC5/Impresora.c ****     #endif /* End Impresora_INTERNAL_CLOCK_USED */
 247:.\Generated_Source\PSoC5/Impresora.c **** 
 248:.\Generated_Source\PSoC5/Impresora.c ****     /* Disable internal interrupt component */
 249:.\Generated_Source\PSoC5/Impresora.c ****     #if(Impresora_RX_ENABLED || Impresora_HD_ENABLED)
 250:.\Generated_Source\PSoC5/Impresora.c ****         Impresora_RXSTATUS_ACTL_REG  &= (uint8)~Impresora_INT_ENABLE;
 251:.\Generated_Source\PSoC5/Impresora.c ****         #if(Impresora_RX_INTERRUPT_ENABLED && (Impresora_RXBUFFERSIZE > Impresora_FIFO_LENGTH))
 252:.\Generated_Source\PSoC5/Impresora.c ****             Impresora_DisableRxInt();
 253:.\Generated_Source\PSoC5/Impresora.c ****         #endif /* End Impresora_RX_INTERRUPT_ENABLED */
 254:.\Generated_Source\PSoC5/Impresora.c ****     #endif /* End Impresora_RX_ENABLED */
 255:.\Generated_Source\PSoC5/Impresora.c **** 
 256:.\Generated_Source\PSoC5/Impresora.c ****     #if(Impresora_TX_ENABLED)
 257:.\Generated_Source\PSoC5/Impresora.c ****         Impresora_TXSTATUS_ACTL_REG &= (uint8)~Impresora_INT_ENABLE;
 258:.\Generated_Source\PSoC5/Impresora.c ****         #if(Impresora_TX_INTERRUPT_ENABLED && (Impresora_TXBUFFERSIZE > Impresora_FIFO_LENGTH))
 259:.\Generated_Source\PSoC5/Impresora.c ****             Impresora_DisableTxInt();
 260:.\Generated_Source\PSoC5/Impresora.c ****         #endif /* End Impresora_TX_INTERRUPT_ENABLED */
 261:.\Generated_Source\PSoC5/Impresora.c ****     #endif /* End Impresora_TX_ENABLED */
 262:.\Generated_Source\PSoC5/Impresora.c **** 
 263:.\Generated_Source\PSoC5/Impresora.c ****     CyExitCriticalSection(enableInterrupts);
 264:.\Generated_Source\PSoC5/Impresora.c **** }
 265:.\Generated_Source\PSoC5/Impresora.c **** 
 266:.\Generated_Source\PSoC5/Impresora.c **** 
 267:.\Generated_Source\PSoC5/Impresora.c **** /*******************************************************************************
 268:.\Generated_Source\PSoC5/Impresora.c **** * Function Name: Impresora_ReadControlRegister
 269:.\Generated_Source\PSoC5/Impresora.c **** ********************************************************************************
 270:.\Generated_Source\PSoC5/Impresora.c **** *
 271:.\Generated_Source\PSoC5/Impresora.c **** * Summary:
 272:.\Generated_Source\PSoC5/Impresora.c **** *  Read the current state of the control register
 273:.\Generated_Source\PSoC5/Impresora.c **** *
ARM GAS  C:\Users\IN-002~1\AppData\Local\Temp\ccbDDmmd.s 			page 9


 274:.\Generated_Source\PSoC5/Impresora.c **** * Parameters:
 275:.\Generated_Source\PSoC5/Impresora.c **** *  None.
 276:.\Generated_Source\PSoC5/Impresora.c **** *
 277:.\Generated_Source\PSoC5/Impresora.c **** * Return:
 278:.\Generated_Source\PSoC5/Impresora.c **** *  Current state of the control register.
 279:.\Generated_Source\PSoC5/Impresora.c **** *
 280:.\Generated_Source\PSoC5/Impresora.c **** *******************************************************************************/
 281:.\Generated_Source\PSoC5/Impresora.c **** uint8 Impresora_ReadControlRegister(void) 
 282:.\Generated_Source\PSoC5/Impresora.c **** {
 179              		.loc 1 282 0
 180              		.cfi_startproc
 181              		@ args = 0, pretend = 0, frame = 0
 182              		@ frame_needed = 0, uses_anonymous_args = 0
 183              		@ link register save eliminated.
 283:.\Generated_Source\PSoC5/Impresora.c ****     #if( Impresora_CONTROL_REG_REMOVED )
 284:.\Generated_Source\PSoC5/Impresora.c ****         return(0u);
 285:.\Generated_Source\PSoC5/Impresora.c ****     #else
 286:.\Generated_Source\PSoC5/Impresora.c ****         return(Impresora_CONTROL_REG);
 287:.\Generated_Source\PSoC5/Impresora.c ****     #endif /* End Impresora_CONTROL_REG_REMOVED */
 288:.\Generated_Source\PSoC5/Impresora.c **** }
 184              		.loc 1 288 0
 185 0000 0020     		movs	r0, #0
 186 0002 7047     		bx	lr
 187              		.cfi_endproc
 188              	.LFE4:
 189              		.size	Impresora_ReadControlRegister, .-Impresora_ReadControlRegister
 190              		.section	.text.Impresora_WriteControlRegister,"ax",%progbits
 191              		.align	2
 192              		.global	Impresora_WriteControlRegister
 193              		.thumb
 194              		.thumb_func
 195              		.type	Impresora_WriteControlRegister, %function
 196              	Impresora_WriteControlRegister:
 197              	.LFB5:
 289:.\Generated_Source\PSoC5/Impresora.c **** 
 290:.\Generated_Source\PSoC5/Impresora.c **** 
 291:.\Generated_Source\PSoC5/Impresora.c **** /*******************************************************************************
 292:.\Generated_Source\PSoC5/Impresora.c **** * Function Name: Impresora_WriteControlRegister
 293:.\Generated_Source\PSoC5/Impresora.c **** ********************************************************************************
 294:.\Generated_Source\PSoC5/Impresora.c **** *
 295:.\Generated_Source\PSoC5/Impresora.c **** * Summary:
 296:.\Generated_Source\PSoC5/Impresora.c **** *  Writes an 8-bit value into the control register
 297:.\Generated_Source\PSoC5/Impresora.c **** *
 298:.\Generated_Source\PSoC5/Impresora.c **** * Parameters:
 299:.\Generated_Source\PSoC5/Impresora.c **** *  control:  control register value
 300:.\Generated_Source\PSoC5/Impresora.c **** *
 301:.\Generated_Source\PSoC5/Impresora.c **** * Return:
 302:.\Generated_Source\PSoC5/Impresora.c **** *  None.
 303:.\Generated_Source\PSoC5/Impresora.c **** *
 304:.\Generated_Source\PSoC5/Impresora.c **** *******************************************************************************/
 305:.\Generated_Source\PSoC5/Impresora.c **** void  Impresora_WriteControlRegister(uint8 control) 
 306:.\Generated_Source\PSoC5/Impresora.c **** {
 198              		.loc 1 306 0
 199              		.cfi_startproc
 200              		@ args = 0, pretend = 0, frame = 0
 201              		@ frame_needed = 0, uses_anonymous_args = 0
 202              		@ link register save eliminated.
ARM GAS  C:\Users\IN-002~1\AppData\Local\Temp\ccbDDmmd.s 			page 10


 203              	.LVL9:
 204 0000 7047     		bx	lr
 205              		.cfi_endproc
 206              	.LFE5:
 207              		.size	Impresora_WriteControlRegister, .-Impresora_WriteControlRegister
 208 0002 00BF     		.section	.text.Impresora_EnableRxInt,"ax",%progbits
 209              		.align	2
 210              		.global	Impresora_EnableRxInt
 211              		.thumb
 212              		.thumb_func
 213              		.type	Impresora_EnableRxInt, %function
 214              	Impresora_EnableRxInt:
 215              	.LFB6:
 307:.\Generated_Source\PSoC5/Impresora.c ****     #if( Impresora_CONTROL_REG_REMOVED )
 308:.\Generated_Source\PSoC5/Impresora.c ****         if(control != 0u) { }      /* release compiler warning */
 309:.\Generated_Source\PSoC5/Impresora.c ****     #else
 310:.\Generated_Source\PSoC5/Impresora.c ****        Impresora_CONTROL_REG = control;
 311:.\Generated_Source\PSoC5/Impresora.c ****     #endif /* End Impresora_CONTROL_REG_REMOVED */
 312:.\Generated_Source\PSoC5/Impresora.c **** }
 313:.\Generated_Source\PSoC5/Impresora.c **** 
 314:.\Generated_Source\PSoC5/Impresora.c **** 
 315:.\Generated_Source\PSoC5/Impresora.c **** #if(Impresora_RX_ENABLED || Impresora_HD_ENABLED)
 316:.\Generated_Source\PSoC5/Impresora.c **** 
 317:.\Generated_Source\PSoC5/Impresora.c ****     #if(Impresora_RX_INTERRUPT_ENABLED)
 318:.\Generated_Source\PSoC5/Impresora.c **** 
 319:.\Generated_Source\PSoC5/Impresora.c ****         /*******************************************************************************
 320:.\Generated_Source\PSoC5/Impresora.c ****         * Function Name: Impresora_EnableRxInt
 321:.\Generated_Source\PSoC5/Impresora.c ****         ********************************************************************************
 322:.\Generated_Source\PSoC5/Impresora.c ****         *
 323:.\Generated_Source\PSoC5/Impresora.c ****         * Summary:
 324:.\Generated_Source\PSoC5/Impresora.c ****         *  Enable RX interrupt generation
 325:.\Generated_Source\PSoC5/Impresora.c ****         *
 326:.\Generated_Source\PSoC5/Impresora.c ****         * Parameters:
 327:.\Generated_Source\PSoC5/Impresora.c ****         *  None.
 328:.\Generated_Source\PSoC5/Impresora.c ****         *
 329:.\Generated_Source\PSoC5/Impresora.c ****         * Return:
 330:.\Generated_Source\PSoC5/Impresora.c ****         *  None.
 331:.\Generated_Source\PSoC5/Impresora.c ****         *
 332:.\Generated_Source\PSoC5/Impresora.c ****         * Theory:
 333:.\Generated_Source\PSoC5/Impresora.c ****         *  Enable the interrupt output -or- the interrupt component itself
 334:.\Generated_Source\PSoC5/Impresora.c ****         *
 335:.\Generated_Source\PSoC5/Impresora.c ****         *******************************************************************************/
 336:.\Generated_Source\PSoC5/Impresora.c ****         void Impresora_EnableRxInt(void) 
 337:.\Generated_Source\PSoC5/Impresora.c ****         {
 216              		.loc 1 337 0
 217              		.cfi_startproc
 218              		@ args = 0, pretend = 0, frame = 0
 219              		@ frame_needed = 0, uses_anonymous_args = 0
 220              		@ link register save eliminated.
 338:.\Generated_Source\PSoC5/Impresora.c ****             CyIntEnable(Impresora_RX_VECT_NUM);
 221              		.loc 1 338 0
 222 0000 0122     		movs	r2, #1
 223 0002 014B     		ldr	r3, .L17
 224 0004 1A60     		str	r2, [r3]
 225 0006 7047     		bx	lr
 226              	.L18:
 227              		.align	2
ARM GAS  C:\Users\IN-002~1\AppData\Local\Temp\ccbDDmmd.s 			page 11


 228              	.L17:
 229 0008 00E100E0 		.word	-536813312
 230              		.cfi_endproc
 231              	.LFE6:
 232              		.size	Impresora_EnableRxInt, .-Impresora_EnableRxInt
 233              		.section	.text.Impresora_DisableRxInt,"ax",%progbits
 234              		.align	2
 235              		.global	Impresora_DisableRxInt
 236              		.thumb
 237              		.thumb_func
 238              		.type	Impresora_DisableRxInt, %function
 239              	Impresora_DisableRxInt:
 240              	.LFB7:
 339:.\Generated_Source\PSoC5/Impresora.c ****         }
 340:.\Generated_Source\PSoC5/Impresora.c **** 
 341:.\Generated_Source\PSoC5/Impresora.c **** 
 342:.\Generated_Source\PSoC5/Impresora.c ****         /*******************************************************************************
 343:.\Generated_Source\PSoC5/Impresora.c ****         * Function Name: Impresora_DisableRxInt
 344:.\Generated_Source\PSoC5/Impresora.c ****         ********************************************************************************
 345:.\Generated_Source\PSoC5/Impresora.c ****         *
 346:.\Generated_Source\PSoC5/Impresora.c ****         * Summary:
 347:.\Generated_Source\PSoC5/Impresora.c ****         *  Disable RX interrupt generation
 348:.\Generated_Source\PSoC5/Impresora.c ****         *
 349:.\Generated_Source\PSoC5/Impresora.c ****         * Parameters:
 350:.\Generated_Source\PSoC5/Impresora.c ****         *  None.
 351:.\Generated_Source\PSoC5/Impresora.c ****         *
 352:.\Generated_Source\PSoC5/Impresora.c ****         * Return:
 353:.\Generated_Source\PSoC5/Impresora.c ****         *  None.
 354:.\Generated_Source\PSoC5/Impresora.c ****         *
 355:.\Generated_Source\PSoC5/Impresora.c ****         * Theory:
 356:.\Generated_Source\PSoC5/Impresora.c ****         *  Disable the interrupt output -or- the interrupt component itself
 357:.\Generated_Source\PSoC5/Impresora.c ****         *
 358:.\Generated_Source\PSoC5/Impresora.c ****         *******************************************************************************/
 359:.\Generated_Source\PSoC5/Impresora.c ****         void Impresora_DisableRxInt(void) 
 360:.\Generated_Source\PSoC5/Impresora.c ****         {
 241              		.loc 1 360 0
 242              		.cfi_startproc
 243              		@ args = 0, pretend = 0, frame = 0
 244              		@ frame_needed = 0, uses_anonymous_args = 0
 245              		@ link register save eliminated.
 361:.\Generated_Source\PSoC5/Impresora.c ****             CyIntDisable(Impresora_RX_VECT_NUM);
 246              		.loc 1 361 0
 247 0000 0122     		movs	r2, #1
 248 0002 014B     		ldr	r3, .L20
 249 0004 1A60     		str	r2, [r3]
 250 0006 7047     		bx	lr
 251              	.L21:
 252              		.align	2
 253              	.L20:
 254 0008 80E100E0 		.word	-536813184
 255              		.cfi_endproc
 256              	.LFE7:
 257              		.size	Impresora_DisableRxInt, .-Impresora_DisableRxInt
 258              		.section	.text.Impresora_Stop,"ax",%progbits
 259              		.align	2
 260              		.global	Impresora_Stop
 261              		.thumb
ARM GAS  C:\Users\IN-002~1\AppData\Local\Temp\ccbDDmmd.s 			page 12


 262              		.thumb_func
 263              		.type	Impresora_Stop, %function
 264              	Impresora_Stop:
 265              	.LFB3:
 228:.\Generated_Source\PSoC5/Impresora.c ****     uint8 enableInterrupts;
 266              		.loc 1 228 0
 267              		.cfi_startproc
 268              		@ args = 0, pretend = 0, frame = 0
 269              		@ frame_needed = 0, uses_anonymous_args = 0
 270 0000 10B5     		push	{r4, lr}
 271              		.cfi_def_cfa_offset 8
 272              		.cfi_offset 4, -8
 273              		.cfi_offset 14, -4
 230:.\Generated_Source\PSoC5/Impresora.c **** 
 274              		.loc 1 230 0
 275 0002 FFF7FEFF 		bl	CyEnterCriticalSection
 276              	.LVL10:
 277 0006 0446     		mov	r4, r0
 278              	.LVL11:
 234:.\Generated_Source\PSoC5/Impresora.c ****     #endif /* End Impresora_RX_ENABLED */
 279              		.loc 1 234 0
 280 0008 0B4A     		ldr	r2, .L24
 281 000a 1378     		ldrb	r3, [r2]	@ zero_extendqisi2
 282 000c 03F0DF03 		and	r3, r3, #223
 283 0010 1370     		strb	r3, [r2]
 245:.\Generated_Source\PSoC5/Impresora.c ****     #endif /* End Impresora_INTERNAL_CLOCK_USED */
 284              		.loc 1 245 0
 285 0012 FFF7FEFF 		bl	Impresora_IntClock_Stop
 286              	.LVL12:
 250:.\Generated_Source\PSoC5/Impresora.c ****         #if(Impresora_RX_INTERRUPT_ENABLED && (Impresora_RXBUFFERSIZE > Impresora_FIFO_LENGTH))
 287              		.loc 1 250 0
 288 0016 094A     		ldr	r2, .L24+4
 289 0018 1378     		ldrb	r3, [r2]	@ zero_extendqisi2
 290 001a 03F0EF03 		and	r3, r3, #239
 291 001e 1370     		strb	r3, [r2]
 252:.\Generated_Source\PSoC5/Impresora.c ****         #endif /* End Impresora_RX_INTERRUPT_ENABLED */
 292              		.loc 1 252 0
 293 0020 FFF7FEFF 		bl	Impresora_DisableRxInt
 294              	.LVL13:
 257:.\Generated_Source\PSoC5/Impresora.c ****         #if(Impresora_TX_INTERRUPT_ENABLED && (Impresora_TXBUFFERSIZE > Impresora_FIFO_LENGTH))
 295              		.loc 1 257 0
 296 0024 064A     		ldr	r2, .L24+8
 297 0026 1378     		ldrb	r3, [r2]	@ zero_extendqisi2
 298 0028 03F0EF03 		and	r3, r3, #239
 299 002c 1370     		strb	r3, [r2]
 263:.\Generated_Source\PSoC5/Impresora.c **** }
 300              		.loc 1 263 0
 301 002e 2046     		mov	r0, r4
 302 0030 FFF7FEFF 		bl	CyExitCriticalSection
 303              	.LVL14:
 304 0034 10BD     		pop	{r4, pc}
 305              	.LVL15:
 306              	.L25:
 307 0036 00BF     		.align	2
 308              	.L24:
 309 0038 9B640040 		.word	1073767579
 310 003c 9C640040 		.word	1073767580
ARM GAS  C:\Users\IN-002~1\AppData\Local\Temp\ccbDDmmd.s 			page 13


 311 0040 97640040 		.word	1073767575
 312              		.cfi_endproc
 313              	.LFE3:
 314              		.size	Impresora_Stop, .-Impresora_Stop
 315              		.section	.text.Impresora_SetRxInterruptMode,"ax",%progbits
 316              		.align	2
 317              		.global	Impresora_SetRxInterruptMode
 318              		.thumb
 319              		.thumb_func
 320              		.type	Impresora_SetRxInterruptMode, %function
 321              	Impresora_SetRxInterruptMode:
 322              	.LFB8:
 362:.\Generated_Source\PSoC5/Impresora.c ****         }
 363:.\Generated_Source\PSoC5/Impresora.c **** 
 364:.\Generated_Source\PSoC5/Impresora.c ****     #endif /* Impresora_RX_INTERRUPT_ENABLED */
 365:.\Generated_Source\PSoC5/Impresora.c **** 
 366:.\Generated_Source\PSoC5/Impresora.c **** 
 367:.\Generated_Source\PSoC5/Impresora.c ****     /*******************************************************************************
 368:.\Generated_Source\PSoC5/Impresora.c ****     * Function Name: Impresora_SetRxInterruptMode
 369:.\Generated_Source\PSoC5/Impresora.c ****     ********************************************************************************
 370:.\Generated_Source\PSoC5/Impresora.c ****     *
 371:.\Generated_Source\PSoC5/Impresora.c ****     * Summary:
 372:.\Generated_Source\PSoC5/Impresora.c ****     *  Configure which status bits trigger an interrupt event
 373:.\Generated_Source\PSoC5/Impresora.c ****     *
 374:.\Generated_Source\PSoC5/Impresora.c ****     * Parameters:
 375:.\Generated_Source\PSoC5/Impresora.c ****     *  IntSrc:  An or'd combination of the desired status bit masks (defined in
 376:.\Generated_Source\PSoC5/Impresora.c ****     *           the header file)
 377:.\Generated_Source\PSoC5/Impresora.c ****     *
 378:.\Generated_Source\PSoC5/Impresora.c ****     * Return:
 379:.\Generated_Source\PSoC5/Impresora.c ****     *  None.
 380:.\Generated_Source\PSoC5/Impresora.c ****     *
 381:.\Generated_Source\PSoC5/Impresora.c ****     * Theory:
 382:.\Generated_Source\PSoC5/Impresora.c ****     *  Enables the output of specific status bits to the interrupt controller
 383:.\Generated_Source\PSoC5/Impresora.c ****     *
 384:.\Generated_Source\PSoC5/Impresora.c ****     *******************************************************************************/
 385:.\Generated_Source\PSoC5/Impresora.c ****     void Impresora_SetRxInterruptMode(uint8 intSrc) 
 386:.\Generated_Source\PSoC5/Impresora.c ****     {
 323              		.loc 1 386 0
 324              		.cfi_startproc
 325              		@ args = 0, pretend = 0, frame = 0
 326              		@ frame_needed = 0, uses_anonymous_args = 0
 327              		@ link register save eliminated.
 328              	.LVL16:
 387:.\Generated_Source\PSoC5/Impresora.c ****         Impresora_RXSTATUS_MASK_REG  = intSrc;
 329              		.loc 1 387 0
 330 0000 014B     		ldr	r3, .L27
 331 0002 1870     		strb	r0, [r3]
 332 0004 7047     		bx	lr
 333              	.L28:
 334 0006 00BF     		.align	2
 335              	.L27:
 336 0008 8C640040 		.word	1073767564
 337              		.cfi_endproc
 338              	.LFE8:
 339              		.size	Impresora_SetRxInterruptMode, .-Impresora_SetRxInterruptMode
 340              		.section	.text.Impresora_ReadRxData,"ax",%progbits
 341              		.align	2
ARM GAS  C:\Users\IN-002~1\AppData\Local\Temp\ccbDDmmd.s 			page 14


 342              		.global	Impresora_ReadRxData
 343              		.thumb
 344              		.thumb_func
 345              		.type	Impresora_ReadRxData, %function
 346              	Impresora_ReadRxData:
 347              	.LFB9:
 388:.\Generated_Source\PSoC5/Impresora.c ****     }
 389:.\Generated_Source\PSoC5/Impresora.c **** 
 390:.\Generated_Source\PSoC5/Impresora.c **** 
 391:.\Generated_Source\PSoC5/Impresora.c ****     /*******************************************************************************
 392:.\Generated_Source\PSoC5/Impresora.c ****     * Function Name: Impresora_ReadRxData
 393:.\Generated_Source\PSoC5/Impresora.c ****     ********************************************************************************
 394:.\Generated_Source\PSoC5/Impresora.c ****     *
 395:.\Generated_Source\PSoC5/Impresora.c ****     * Summary:
 396:.\Generated_Source\PSoC5/Impresora.c ****     *  Returns data in RX Data register without checking status register to
 397:.\Generated_Source\PSoC5/Impresora.c ****     *  determine if data is valid
 398:.\Generated_Source\PSoC5/Impresora.c ****     *
 399:.\Generated_Source\PSoC5/Impresora.c ****     * Parameters:
 400:.\Generated_Source\PSoC5/Impresora.c ****     *  None.
 401:.\Generated_Source\PSoC5/Impresora.c ****     *
 402:.\Generated_Source\PSoC5/Impresora.c ****     * Return:
 403:.\Generated_Source\PSoC5/Impresora.c ****     *  Received data from RX register
 404:.\Generated_Source\PSoC5/Impresora.c ****     *
 405:.\Generated_Source\PSoC5/Impresora.c ****     * Global Variables:
 406:.\Generated_Source\PSoC5/Impresora.c ****     *  Impresora_rxBuffer - RAM buffer pointer for save received data.
 407:.\Generated_Source\PSoC5/Impresora.c ****     *  Impresora_rxBufferWrite - cyclic index for write to rxBuffer,
 408:.\Generated_Source\PSoC5/Impresora.c ****     *     checked to identify new data.
 409:.\Generated_Source\PSoC5/Impresora.c ****     *  Impresora_rxBufferRead - cyclic index for read from rxBuffer,
 410:.\Generated_Source\PSoC5/Impresora.c ****     *     incremented after each byte has been read from buffer.
 411:.\Generated_Source\PSoC5/Impresora.c ****     *  Impresora_rxBufferLoopDetect - creared if loop condition was detected
 412:.\Generated_Source\PSoC5/Impresora.c ****     *     in RX ISR.
 413:.\Generated_Source\PSoC5/Impresora.c ****     *
 414:.\Generated_Source\PSoC5/Impresora.c ****     * Reentrant:
 415:.\Generated_Source\PSoC5/Impresora.c ****     *  No.
 416:.\Generated_Source\PSoC5/Impresora.c ****     *
 417:.\Generated_Source\PSoC5/Impresora.c ****     *******************************************************************************/
 418:.\Generated_Source\PSoC5/Impresora.c ****     uint8 Impresora_ReadRxData(void) 
 419:.\Generated_Source\PSoC5/Impresora.c ****     {
 348              		.loc 1 419 0
 349              		.cfi_startproc
 350              		@ args = 0, pretend = 0, frame = 0
 351              		@ frame_needed = 0, uses_anonymous_args = 0
 352 0000 10B5     		push	{r4, lr}
 353              		.cfi_def_cfa_offset 8
 354              		.cfi_offset 4, -8
 355              		.cfi_offset 14, -4
 420:.\Generated_Source\PSoC5/Impresora.c ****         uint8 rxData;
 421:.\Generated_Source\PSoC5/Impresora.c **** 
 422:.\Generated_Source\PSoC5/Impresora.c ****         #if(Impresora_RXBUFFERSIZE > Impresora_FIFO_LENGTH)
 423:.\Generated_Source\PSoC5/Impresora.c ****             uint8 loc_rxBufferRead;
 424:.\Generated_Source\PSoC5/Impresora.c ****             uint8 loc_rxBufferWrite;
 425:.\Generated_Source\PSoC5/Impresora.c ****             /* Protect variables that could change on interrupt. */
 426:.\Generated_Source\PSoC5/Impresora.c ****             /* Disable Rx interrupt. */
 427:.\Generated_Source\PSoC5/Impresora.c ****             #if(Impresora_RX_INTERRUPT_ENABLED)
 428:.\Generated_Source\PSoC5/Impresora.c ****                 Impresora_DisableRxInt();
 356              		.loc 1 428 0
 357 0002 FFF7FEFF 		bl	Impresora_DisableRxInt
ARM GAS  C:\Users\IN-002~1\AppData\Local\Temp\ccbDDmmd.s 			page 15


 358              	.LVL17:
 429:.\Generated_Source\PSoC5/Impresora.c ****             #endif /* Impresora_RX_INTERRUPT_ENABLED */
 430:.\Generated_Source\PSoC5/Impresora.c ****             loc_rxBufferRead = Impresora_rxBufferRead;
 359              		.loc 1 430 0
 360 0006 124A     		ldr	r2, .L36
 361 0008 5378     		ldrb	r3, [r2, #1]	@ zero_extendqisi2
 362 000a DBB2     		uxtb	r3, r3
 363              	.LVL18:
 431:.\Generated_Source\PSoC5/Impresora.c ****             loc_rxBufferWrite = Impresora_rxBufferWrite;
 364              		.loc 1 431 0
 365 000c 9178     		ldrb	r1, [r2, #2]	@ zero_extendqisi2
 366 000e C9B2     		uxtb	r1, r1
 367              	.LVL19:
 432:.\Generated_Source\PSoC5/Impresora.c **** 
 433:.\Generated_Source\PSoC5/Impresora.c ****             if( (Impresora_rxBufferLoopDetect != 0u) || (loc_rxBufferRead != loc_rxBufferWrite) )
 368              		.loc 1 433 0
 369 0010 D278     		ldrb	r2, [r2, #3]	@ zero_extendqisi2
 370 0012 12F0FF0F 		tst	r2, #255
 371 0016 01D1     		bne	.L30
 372              		.loc 1 433 0 is_stmt 0 discriminator 1
 373 0018 8B42     		cmp	r3, r1
 374 001a 11D0     		beq	.L31
 375              	.L30:
 434:.\Generated_Source\PSoC5/Impresora.c ****             {
 435:.\Generated_Source\PSoC5/Impresora.c ****                 rxData = Impresora_rxBuffer[loc_rxBufferRead];
 376              		.loc 1 435 0 is_stmt 1
 377 001c 0D4A     		ldr	r2, .L36+4
 378 001e D45C     		ldrb	r4, [r2, r3]	@ zero_extendqisi2
 379 0020 E4B2     		uxtb	r4, r4
 380              	.LVL20:
 436:.\Generated_Source\PSoC5/Impresora.c ****                 loc_rxBufferRead++;
 381              		.loc 1 436 0
 382 0022 0133     		adds	r3, r3, #1
 383              	.LVL21:
 384 0024 DBB2     		uxtb	r3, r3
 385              	.LVL22:
 437:.\Generated_Source\PSoC5/Impresora.c **** 
 438:.\Generated_Source\PSoC5/Impresora.c ****                 if(loc_rxBufferRead >= Impresora_RXBUFFERSIZE)
 386              		.loc 1 438 0
 387 0026 632B     		cmp	r3, #99
 388 0028 00D9     		bls	.L32
 439:.\Generated_Source\PSoC5/Impresora.c ****                 {
 440:.\Generated_Source\PSoC5/Impresora.c ****                     loc_rxBufferRead = 0u;
 389              		.loc 1 440 0
 390 002a 0023     		movs	r3, #0
 391              	.LVL23:
 392              	.L32:
 441:.\Generated_Source\PSoC5/Impresora.c ****                 }
 442:.\Generated_Source\PSoC5/Impresora.c ****                 /* Update the real pointer */
 443:.\Generated_Source\PSoC5/Impresora.c ****                 Impresora_rxBufferRead = loc_rxBufferRead;
 393              		.loc 1 443 0
 394 002c 084A     		ldr	r2, .L36
 395 002e 5370     		strb	r3, [r2, #1]
 444:.\Generated_Source\PSoC5/Impresora.c **** 
 445:.\Generated_Source\PSoC5/Impresora.c ****                 if(Impresora_rxBufferLoopDetect != 0u )
 396              		.loc 1 445 0
 397 0030 D378     		ldrb	r3, [r2, #3]	@ zero_extendqisi2
ARM GAS  C:\Users\IN-002~1\AppData\Local\Temp\ccbDDmmd.s 			page 16


 398              	.LVL24:
 399 0032 13F0FF0F 		tst	r3, #255
 400 0036 06D0     		beq	.L33
 446:.\Generated_Source\PSoC5/Impresora.c ****                 {
 447:.\Generated_Source\PSoC5/Impresora.c ****                     Impresora_rxBufferLoopDetect = 0u;
 401              		.loc 1 447 0
 402 0038 0022     		movs	r2, #0
 403 003a 054B     		ldr	r3, .L36
 404 003c DA70     		strb	r2, [r3, #3]
 405              	.LVL25:
 406 003e 02E0     		b	.L33
 407              	.LVL26:
 408              	.L31:
 448:.\Generated_Source\PSoC5/Impresora.c ****                     #if( (Impresora_RX_INTERRUPT_ENABLED) && (Impresora_FLOW_CONTROL != 0u) && \
 449:.\Generated_Source\PSoC5/Impresora.c ****                          (Impresora_RXBUFFERSIZE > Impresora_FIFO_LENGTH) )
 450:.\Generated_Source\PSoC5/Impresora.c ****                         /* When Hardware Flow Control selected - return RX mask */
 451:.\Generated_Source\PSoC5/Impresora.c ****                         #if( Impresora_HD_ENABLED )
 452:.\Generated_Source\PSoC5/Impresora.c ****                             if((Impresora_CONTROL_REG & Impresora_CTRL_HD_SEND) == 0u)
 453:.\Generated_Source\PSoC5/Impresora.c ****                             {   /* In Half duplex mode return RX mask only in RX
 454:.\Generated_Source\PSoC5/Impresora.c ****                                 *  configuration set, otherwise
 455:.\Generated_Source\PSoC5/Impresora.c ****                                 *  mask will be returned in LoadRxConfig() API.
 456:.\Generated_Source\PSoC5/Impresora.c ****                                 */
 457:.\Generated_Source\PSoC5/Impresora.c ****                                 Impresora_RXSTATUS_MASK_REG  |= Impresora_RX_STS_FIFO_NOTEMPTY;
 458:.\Generated_Source\PSoC5/Impresora.c ****                             }
 459:.\Generated_Source\PSoC5/Impresora.c ****                         #else
 460:.\Generated_Source\PSoC5/Impresora.c ****                             Impresora_RXSTATUS_MASK_REG  |= Impresora_RX_STS_FIFO_NOTEMPTY;
 461:.\Generated_Source\PSoC5/Impresora.c ****                         #endif /* end Impresora_HD_ENABLED */
 462:.\Generated_Source\PSoC5/Impresora.c ****                     #endif /* Impresora_RX_INTERRUPT_ENABLED and Hardware flow control*/
 463:.\Generated_Source\PSoC5/Impresora.c ****                 }
 464:.\Generated_Source\PSoC5/Impresora.c ****             }
 465:.\Generated_Source\PSoC5/Impresora.c ****             else
 466:.\Generated_Source\PSoC5/Impresora.c ****             {   /* Needs to check status for RX_STS_FIFO_NOTEMPTY bit*/
 467:.\Generated_Source\PSoC5/Impresora.c ****                 rxData = Impresora_RXDATA_REG;
 409              		.loc 1 467 0
 410 0040 054B     		ldr	r3, .L36+8
 411              	.LVL27:
 412 0042 1C78     		ldrb	r4, [r3]	@ zero_extendqisi2
 413 0044 E4B2     		uxtb	r4, r4
 414              	.LVL28:
 415              	.L33:
 468:.\Generated_Source\PSoC5/Impresora.c ****             }
 469:.\Generated_Source\PSoC5/Impresora.c **** 
 470:.\Generated_Source\PSoC5/Impresora.c ****             /* Enable Rx interrupt. */
 471:.\Generated_Source\PSoC5/Impresora.c ****             #if(Impresora_RX_INTERRUPT_ENABLED)
 472:.\Generated_Source\PSoC5/Impresora.c ****                 Impresora_EnableRxInt();
 416              		.loc 1 472 0
 417 0046 FFF7FEFF 		bl	Impresora_EnableRxInt
 418              	.LVL29:
 473:.\Generated_Source\PSoC5/Impresora.c ****             #endif /* End Impresora_RX_INTERRUPT_ENABLED */
 474:.\Generated_Source\PSoC5/Impresora.c **** 
 475:.\Generated_Source\PSoC5/Impresora.c ****         #else /* Impresora_RXBUFFERSIZE > Impresora_FIFO_LENGTH */
 476:.\Generated_Source\PSoC5/Impresora.c **** 
 477:.\Generated_Source\PSoC5/Impresora.c ****             /* Needs to check status for RX_STS_FIFO_NOTEMPTY bit*/
 478:.\Generated_Source\PSoC5/Impresora.c ****             rxData = Impresora_RXDATA_REG;
 479:.\Generated_Source\PSoC5/Impresora.c **** 
 480:.\Generated_Source\PSoC5/Impresora.c ****         #endif /* Impresora_RXBUFFERSIZE > Impresora_FIFO_LENGTH */
 481:.\Generated_Source\PSoC5/Impresora.c **** 
ARM GAS  C:\Users\IN-002~1\AppData\Local\Temp\ccbDDmmd.s 			page 17


 482:.\Generated_Source\PSoC5/Impresora.c ****         return(rxData);
 483:.\Generated_Source\PSoC5/Impresora.c ****     }
 419              		.loc 1 483 0
 420 004a 2046     		mov	r0, r4
 421 004c 10BD     		pop	{r4, pc}
 422              	.LVL30:
 423              	.L37:
 424 004e 00BF     		.align	2
 425              	.L36:
 426 0050 00000000 		.word	.LANCHOR0
 427 0054 00000000 		.word	Impresora_rxBuffer
 428 0058 4B640040 		.word	1073767499
 429              		.cfi_endproc
 430              	.LFE9:
 431              		.size	Impresora_ReadRxData, .-Impresora_ReadRxData
 432              		.section	.text.Impresora_ReadRxStatus,"ax",%progbits
 433              		.align	2
 434              		.global	Impresora_ReadRxStatus
 435              		.thumb
 436              		.thumb_func
 437              		.type	Impresora_ReadRxStatus, %function
 438              	Impresora_ReadRxStatus:
 439              	.LFB10:
 484:.\Generated_Source\PSoC5/Impresora.c **** 
 485:.\Generated_Source\PSoC5/Impresora.c **** 
 486:.\Generated_Source\PSoC5/Impresora.c ****     /*******************************************************************************
 487:.\Generated_Source\PSoC5/Impresora.c ****     * Function Name: Impresora_ReadRxStatus
 488:.\Generated_Source\PSoC5/Impresora.c ****     ********************************************************************************
 489:.\Generated_Source\PSoC5/Impresora.c ****     *
 490:.\Generated_Source\PSoC5/Impresora.c ****     * Summary:
 491:.\Generated_Source\PSoC5/Impresora.c ****     *  Read the current state of the status register
 492:.\Generated_Source\PSoC5/Impresora.c ****     *  And detect software buffer overflow.
 493:.\Generated_Source\PSoC5/Impresora.c ****     *
 494:.\Generated_Source\PSoC5/Impresora.c ****     * Parameters:
 495:.\Generated_Source\PSoC5/Impresora.c ****     *  None.
 496:.\Generated_Source\PSoC5/Impresora.c ****     *
 497:.\Generated_Source\PSoC5/Impresora.c ****     * Return:
 498:.\Generated_Source\PSoC5/Impresora.c ****     *  Current state of the status register.
 499:.\Generated_Source\PSoC5/Impresora.c ****     *
 500:.\Generated_Source\PSoC5/Impresora.c ****     * Global Variables:
 501:.\Generated_Source\PSoC5/Impresora.c ****     *  Impresora_rxBufferOverflow - used to indicate overload condition.
 502:.\Generated_Source\PSoC5/Impresora.c ****     *   It set to one in RX interrupt when there isn?t free space in
 503:.\Generated_Source\PSoC5/Impresora.c ****     *   Impresora_rxBufferRead to write new data. This condition returned
 504:.\Generated_Source\PSoC5/Impresora.c ****     *   and cleared to zero by this API as an
 505:.\Generated_Source\PSoC5/Impresora.c ****     *   Impresora_RX_STS_SOFT_BUFF_OVER bit along with RX Status register
 506:.\Generated_Source\PSoC5/Impresora.c ****     *   bits.
 507:.\Generated_Source\PSoC5/Impresora.c ****     *
 508:.\Generated_Source\PSoC5/Impresora.c ****     *******************************************************************************/
 509:.\Generated_Source\PSoC5/Impresora.c ****     uint8 Impresora_ReadRxStatus(void) 
 510:.\Generated_Source\PSoC5/Impresora.c ****     {
 440              		.loc 1 510 0
 441              		.cfi_startproc
 442              		@ args = 0, pretend = 0, frame = 0
 443              		@ frame_needed = 0, uses_anonymous_args = 0
 444              		@ link register save eliminated.
 511:.\Generated_Source\PSoC5/Impresora.c ****         uint8 status;
 512:.\Generated_Source\PSoC5/Impresora.c **** 
ARM GAS  C:\Users\IN-002~1\AppData\Local\Temp\ccbDDmmd.s 			page 18


 513:.\Generated_Source\PSoC5/Impresora.c ****         status = Impresora_RXSTATUS_REG & Impresora_RX_HW_MASK;
 445              		.loc 1 513 0
 446 0000 074B     		ldr	r3, .L40
 447 0002 1878     		ldrb	r0, [r3]	@ zero_extendqisi2
 448 0004 00F07F00 		and	r0, r0, #127
 449              	.LVL31:
 514:.\Generated_Source\PSoC5/Impresora.c **** 
 515:.\Generated_Source\PSoC5/Impresora.c ****         #if(Impresora_RXBUFFERSIZE > Impresora_FIFO_LENGTH)
 516:.\Generated_Source\PSoC5/Impresora.c ****             if( Impresora_rxBufferOverflow != 0u )
 450              		.loc 1 516 0
 451 0008 064B     		ldr	r3, .L40+4
 452 000a 1B79     		ldrb	r3, [r3, #4]	@ zero_extendqisi2
 453 000c 13F0FF0F 		tst	r3, #255
 454 0010 04D0     		beq	.L39
 517:.\Generated_Source\PSoC5/Impresora.c ****             {
 518:.\Generated_Source\PSoC5/Impresora.c ****                 status |= Impresora_RX_STS_SOFT_BUFF_OVER;
 455              		.loc 1 518 0
 456 0012 40F08000 		orr	r0, r0, #128
 457              	.LVL32:
 519:.\Generated_Source\PSoC5/Impresora.c ****                 Impresora_rxBufferOverflow = 0u;
 458              		.loc 1 519 0
 459 0016 0022     		movs	r2, #0
 460 0018 024B     		ldr	r3, .L40+4
 461 001a 1A71     		strb	r2, [r3, #4]
 462              	.L39:
 520:.\Generated_Source\PSoC5/Impresora.c ****             }
 521:.\Generated_Source\PSoC5/Impresora.c ****         #endif /* Impresora_RXBUFFERSIZE */
 522:.\Generated_Source\PSoC5/Impresora.c **** 
 523:.\Generated_Source\PSoC5/Impresora.c ****         return(status);
 524:.\Generated_Source\PSoC5/Impresora.c ****     }
 463              		.loc 1 524 0
 464 001c 7047     		bx	lr
 465              	.L41:
 466 001e 00BF     		.align	2
 467              	.L40:
 468 0020 6C640040 		.word	1073767532
 469 0024 00000000 		.word	.LANCHOR0
 470              		.cfi_endproc
 471              	.LFE10:
 472              		.size	Impresora_ReadRxStatus, .-Impresora_ReadRxStatus
 473              		.section	.text.Impresora_GetChar,"ax",%progbits
 474              		.align	2
 475              		.global	Impresora_GetChar
 476              		.thumb
 477              		.thumb_func
 478              		.type	Impresora_GetChar, %function
 479              	Impresora_GetChar:
 480              	.LFB11:
 525:.\Generated_Source\PSoC5/Impresora.c **** 
 526:.\Generated_Source\PSoC5/Impresora.c **** 
 527:.\Generated_Source\PSoC5/Impresora.c ****     /*******************************************************************************
 528:.\Generated_Source\PSoC5/Impresora.c ****     * Function Name: Impresora_GetChar
 529:.\Generated_Source\PSoC5/Impresora.c ****     ********************************************************************************
 530:.\Generated_Source\PSoC5/Impresora.c ****     *
 531:.\Generated_Source\PSoC5/Impresora.c ****     * Summary:
 532:.\Generated_Source\PSoC5/Impresora.c ****     *  Reads UART RX buffer immediately, if data is not available or an error
 533:.\Generated_Source\PSoC5/Impresora.c ****     *  condition exists, zero is returned; otherwise, character is read and
ARM GAS  C:\Users\IN-002~1\AppData\Local\Temp\ccbDDmmd.s 			page 19


 534:.\Generated_Source\PSoC5/Impresora.c ****     *  returned.
 535:.\Generated_Source\PSoC5/Impresora.c ****     *
 536:.\Generated_Source\PSoC5/Impresora.c ****     * Parameters:
 537:.\Generated_Source\PSoC5/Impresora.c ****     *  None.
 538:.\Generated_Source\PSoC5/Impresora.c ****     *
 539:.\Generated_Source\PSoC5/Impresora.c ****     * Return:
 540:.\Generated_Source\PSoC5/Impresora.c ****     *  Character read from UART RX buffer. ASCII characters from 1 to 255 are valid.
 541:.\Generated_Source\PSoC5/Impresora.c ****     *  A returned zero signifies an error condition or no data available.
 542:.\Generated_Source\PSoC5/Impresora.c ****     *
 543:.\Generated_Source\PSoC5/Impresora.c ****     * Global Variables:
 544:.\Generated_Source\PSoC5/Impresora.c ****     *  Impresora_rxBuffer - RAM buffer pointer for save received data.
 545:.\Generated_Source\PSoC5/Impresora.c ****     *  Impresora_rxBufferWrite - cyclic index for write to rxBuffer,
 546:.\Generated_Source\PSoC5/Impresora.c ****     *     checked to identify new data.
 547:.\Generated_Source\PSoC5/Impresora.c ****     *  Impresora_rxBufferRead - cyclic index for read from rxBuffer,
 548:.\Generated_Source\PSoC5/Impresora.c ****     *     incremented after each byte has been read from buffer.
 549:.\Generated_Source\PSoC5/Impresora.c ****     *  Impresora_rxBufferLoopDetect - creared if loop condition was detected
 550:.\Generated_Source\PSoC5/Impresora.c ****     *     in RX ISR.
 551:.\Generated_Source\PSoC5/Impresora.c ****     *
 552:.\Generated_Source\PSoC5/Impresora.c ****     * Reentrant:
 553:.\Generated_Source\PSoC5/Impresora.c ****     *  No.
 554:.\Generated_Source\PSoC5/Impresora.c ****     *
 555:.\Generated_Source\PSoC5/Impresora.c ****     *******************************************************************************/
 556:.\Generated_Source\PSoC5/Impresora.c ****     uint8 Impresora_GetChar(void) 
 557:.\Generated_Source\PSoC5/Impresora.c ****     {
 481              		.loc 1 557 0
 482              		.cfi_startproc
 483              		@ args = 0, pretend = 0, frame = 0
 484              		@ frame_needed = 0, uses_anonymous_args = 0
 485 0000 10B5     		push	{r4, lr}
 486              		.cfi_def_cfa_offset 8
 487              		.cfi_offset 4, -8
 488              		.cfi_offset 14, -4
 489              	.LVL33:
 558:.\Generated_Source\PSoC5/Impresora.c ****         uint8 rxData = 0u;
 559:.\Generated_Source\PSoC5/Impresora.c ****         uint8 rxStatus;
 560:.\Generated_Source\PSoC5/Impresora.c **** 
 561:.\Generated_Source\PSoC5/Impresora.c ****         #if(Impresora_RXBUFFERSIZE > Impresora_FIFO_LENGTH)
 562:.\Generated_Source\PSoC5/Impresora.c ****             uint8 loc_rxBufferRead;
 563:.\Generated_Source\PSoC5/Impresora.c ****             uint8 loc_rxBufferWrite;
 564:.\Generated_Source\PSoC5/Impresora.c ****             /* Protect variables that could change on interrupt. */
 565:.\Generated_Source\PSoC5/Impresora.c ****             /* Disable Rx interrupt. */
 566:.\Generated_Source\PSoC5/Impresora.c ****             #if(Impresora_RX_INTERRUPT_ENABLED)
 567:.\Generated_Source\PSoC5/Impresora.c ****                 Impresora_DisableRxInt();
 490              		.loc 1 567 0
 491 0002 FFF7FEFF 		bl	Impresora_DisableRxInt
 492              	.LVL34:
 568:.\Generated_Source\PSoC5/Impresora.c ****             #endif /* Impresora_RX_INTERRUPT_ENABLED */
 569:.\Generated_Source\PSoC5/Impresora.c ****             loc_rxBufferRead = Impresora_rxBufferRead;
 493              		.loc 1 569 0
 494 0006 184A     		ldr	r2, .L51
 495 0008 5378     		ldrb	r3, [r2, #1]	@ zero_extendqisi2
 496 000a DBB2     		uxtb	r3, r3
 497              	.LVL35:
 570:.\Generated_Source\PSoC5/Impresora.c ****             loc_rxBufferWrite = Impresora_rxBufferWrite;
 498              		.loc 1 570 0
 499 000c 9178     		ldrb	r1, [r2, #2]	@ zero_extendqisi2
 500 000e C9B2     		uxtb	r1, r1
ARM GAS  C:\Users\IN-002~1\AppData\Local\Temp\ccbDDmmd.s 			page 20


 501              	.LVL36:
 571:.\Generated_Source\PSoC5/Impresora.c **** 
 572:.\Generated_Source\PSoC5/Impresora.c ****             if( (Impresora_rxBufferLoopDetect != 0u) || (loc_rxBufferRead != loc_rxBufferWrite) )
 502              		.loc 1 572 0
 503 0010 D278     		ldrb	r2, [r2, #3]	@ zero_extendqisi2
 504 0012 12F0FF0F 		tst	r2, #255
 505 0016 01D1     		bne	.L43
 506              		.loc 1 572 0 is_stmt 0 discriminator 1
 507 0018 8B42     		cmp	r3, r1
 508 001a 11D0     		beq	.L44
 509              	.L43:
 573:.\Generated_Source\PSoC5/Impresora.c ****             {
 574:.\Generated_Source\PSoC5/Impresora.c ****                 rxData = Impresora_rxBuffer[loc_rxBufferRead];
 510              		.loc 1 574 0 is_stmt 1
 511 001c 134A     		ldr	r2, .L51+4
 512 001e D45C     		ldrb	r4, [r2, r3]	@ zero_extendqisi2
 513 0020 E4B2     		uxtb	r4, r4
 514              	.LVL37:
 575:.\Generated_Source\PSoC5/Impresora.c ****                 loc_rxBufferRead++;
 515              		.loc 1 575 0
 516 0022 0133     		adds	r3, r3, #1
 517              	.LVL38:
 518 0024 DBB2     		uxtb	r3, r3
 519              	.LVL39:
 576:.\Generated_Source\PSoC5/Impresora.c ****                 if(loc_rxBufferRead >= Impresora_RXBUFFERSIZE)
 520              		.loc 1 576 0
 521 0026 632B     		cmp	r3, #99
 522 0028 00D9     		bls	.L45
 577:.\Generated_Source\PSoC5/Impresora.c ****                 {
 578:.\Generated_Source\PSoC5/Impresora.c ****                     loc_rxBufferRead = 0u;
 523              		.loc 1 578 0
 524 002a 0023     		movs	r3, #0
 525              	.LVL40:
 526              	.L45:
 579:.\Generated_Source\PSoC5/Impresora.c ****                 }
 580:.\Generated_Source\PSoC5/Impresora.c ****                 /* Update the real pointer */
 581:.\Generated_Source\PSoC5/Impresora.c ****                 Impresora_rxBufferRead = loc_rxBufferRead;
 527              		.loc 1 581 0
 528 002c 0E4A     		ldr	r2, .L51
 529 002e 5370     		strb	r3, [r2, #1]
 582:.\Generated_Source\PSoC5/Impresora.c **** 
 583:.\Generated_Source\PSoC5/Impresora.c ****                 if(Impresora_rxBufferLoopDetect > 0u )
 530              		.loc 1 583 0
 531 0030 D378     		ldrb	r3, [r2, #3]	@ zero_extendqisi2
 532              	.LVL41:
 533 0032 13F0FF0F 		tst	r3, #255
 534 0036 13D0     		beq	.L46
 584:.\Generated_Source\PSoC5/Impresora.c ****                 {
 585:.\Generated_Source\PSoC5/Impresora.c ****                     Impresora_rxBufferLoopDetect = 0u;
 535              		.loc 1 585 0
 536 0038 0022     		movs	r2, #0
 537 003a 0B4B     		ldr	r3, .L51
 538 003c DA70     		strb	r2, [r3, #3]
 539              	.LVL42:
 540 003e 0FE0     		b	.L46
 541              	.LVL43:
 542              	.L44:
ARM GAS  C:\Users\IN-002~1\AppData\Local\Temp\ccbDDmmd.s 			page 21


 586:.\Generated_Source\PSoC5/Impresora.c ****                     #if( (Impresora_RX_INTERRUPT_ENABLED) && (Impresora_FLOW_CONTROL != 0u) )
 587:.\Generated_Source\PSoC5/Impresora.c ****                         /* When Hardware Flow Control selected - return RX mask */
 588:.\Generated_Source\PSoC5/Impresora.c ****                         #if( Impresora_HD_ENABLED )
 589:.\Generated_Source\PSoC5/Impresora.c ****                             if((Impresora_CONTROL_REG & Impresora_CTRL_HD_SEND) == 0u)
 590:.\Generated_Source\PSoC5/Impresora.c ****                             {   /* In Half duplex mode return RX mask only if
 591:.\Generated_Source\PSoC5/Impresora.c ****                                 *  RX configuration set, otherwise
 592:.\Generated_Source\PSoC5/Impresora.c ****                                 *  mask will be returned in LoadRxConfig() API.
 593:.\Generated_Source\PSoC5/Impresora.c ****                                 */
 594:.\Generated_Source\PSoC5/Impresora.c ****                                 Impresora_RXSTATUS_MASK_REG  |= Impresora_RX_STS_FIFO_NOTEMPTY;
 595:.\Generated_Source\PSoC5/Impresora.c ****                             }
 596:.\Generated_Source\PSoC5/Impresora.c ****                         #else
 597:.\Generated_Source\PSoC5/Impresora.c ****                             Impresora_RXSTATUS_MASK_REG  |= Impresora_RX_STS_FIFO_NOTEMPTY;
 598:.\Generated_Source\PSoC5/Impresora.c ****                         #endif /* end Impresora_HD_ENABLED */
 599:.\Generated_Source\PSoC5/Impresora.c ****                     #endif /* Impresora_RX_INTERRUPT_ENABLED and Hardware flow control*/
 600:.\Generated_Source\PSoC5/Impresora.c ****                 }
 601:.\Generated_Source\PSoC5/Impresora.c **** 
 602:.\Generated_Source\PSoC5/Impresora.c ****             }
 603:.\Generated_Source\PSoC5/Impresora.c ****             else
 604:.\Generated_Source\PSoC5/Impresora.c ****             {   rxStatus = Impresora_RXSTATUS_REG;
 543              		.loc 1 604 0
 544 0040 0B4B     		ldr	r3, .L51+8
 545              	.LVL44:
 546 0042 1B78     		ldrb	r3, [r3]	@ zero_extendqisi2
 547 0044 DBB2     		uxtb	r3, r3
 548              	.LVL45:
 605:.\Generated_Source\PSoC5/Impresora.c ****                 if((rxStatus & Impresora_RX_STS_FIFO_NOTEMPTY) != 0u)
 549              		.loc 1 605 0
 550 0046 13F0200F 		tst	r3, #32
 551 004a 06D0     		beq	.L48
 606:.\Generated_Source\PSoC5/Impresora.c ****                 {   /* Read received data from FIFO*/
 607:.\Generated_Source\PSoC5/Impresora.c ****                     rxData = Impresora_RXDATA_REG;
 552              		.loc 1 607 0
 553 004c 094A     		ldr	r2, .L51+12
 554 004e 1478     		ldrb	r4, [r2]	@ zero_extendqisi2
 555 0050 E4B2     		uxtb	r4, r4
 556              	.LVL46:
 608:.\Generated_Source\PSoC5/Impresora.c ****                     /*Check status on error*/
 609:.\Generated_Source\PSoC5/Impresora.c ****                     if((rxStatus & (Impresora_RX_STS_BREAK | Impresora_RX_STS_PAR_ERROR |
 557              		.loc 1 609 0
 558 0052 13F01E0F 		tst	r3, #30
 559 0056 02D1     		bne	.L49
 560 0058 02E0     		b	.L46
 561              	.LVL47:
 562              	.L48:
 558:.\Generated_Source\PSoC5/Impresora.c ****         uint8 rxStatus;
 563              		.loc 1 558 0
 564 005a 0024     		movs	r4, #0
 565 005c 00E0     		b	.L46
 566              	.LVL48:
 567              	.L49:
 610:.\Generated_Source\PSoC5/Impresora.c ****                                    Impresora_RX_STS_STOP_ERROR | Impresora_RX_STS_OVERRUN)) != 0u)
 611:.\Generated_Source\PSoC5/Impresora.c ****                     {
 612:.\Generated_Source\PSoC5/Impresora.c ****                         rxData = 0u;
 568              		.loc 1 612 0
 569 005e 0024     		movs	r4, #0
 570              	.LVL49:
 571              	.L46:
ARM GAS  C:\Users\IN-002~1\AppData\Local\Temp\ccbDDmmd.s 			page 22


 613:.\Generated_Source\PSoC5/Impresora.c ****                     }
 614:.\Generated_Source\PSoC5/Impresora.c ****                 }
 615:.\Generated_Source\PSoC5/Impresora.c ****             }
 616:.\Generated_Source\PSoC5/Impresora.c **** 
 617:.\Generated_Source\PSoC5/Impresora.c ****             /* Enable Rx interrupt. */
 618:.\Generated_Source\PSoC5/Impresora.c ****             #if(Impresora_RX_INTERRUPT_ENABLED)
 619:.\Generated_Source\PSoC5/Impresora.c ****                 Impresora_EnableRxInt();
 572              		.loc 1 619 0
 573 0060 FFF7FEFF 		bl	Impresora_EnableRxInt
 574              	.LVL50:
 620:.\Generated_Source\PSoC5/Impresora.c ****             #endif /* Impresora_RX_INTERRUPT_ENABLED */
 621:.\Generated_Source\PSoC5/Impresora.c **** 
 622:.\Generated_Source\PSoC5/Impresora.c ****         #else /* Impresora_RXBUFFERSIZE > Impresora_FIFO_LENGTH */
 623:.\Generated_Source\PSoC5/Impresora.c **** 
 624:.\Generated_Source\PSoC5/Impresora.c ****             rxStatus =Impresora_RXSTATUS_REG;
 625:.\Generated_Source\PSoC5/Impresora.c ****             if((rxStatus & Impresora_RX_STS_FIFO_NOTEMPTY) != 0u)
 626:.\Generated_Source\PSoC5/Impresora.c ****             {   /* Read received data from FIFO*/
 627:.\Generated_Source\PSoC5/Impresora.c ****                 rxData = Impresora_RXDATA_REG;
 628:.\Generated_Source\PSoC5/Impresora.c ****                 /*Check status on error*/
 629:.\Generated_Source\PSoC5/Impresora.c ****                 if((rxStatus & (Impresora_RX_STS_BREAK | Impresora_RX_STS_PAR_ERROR |
 630:.\Generated_Source\PSoC5/Impresora.c ****                                Impresora_RX_STS_STOP_ERROR | Impresora_RX_STS_OVERRUN)) != 0u)
 631:.\Generated_Source\PSoC5/Impresora.c ****                 {
 632:.\Generated_Source\PSoC5/Impresora.c ****                     rxData = 0u;
 633:.\Generated_Source\PSoC5/Impresora.c ****                 }
 634:.\Generated_Source\PSoC5/Impresora.c ****             }
 635:.\Generated_Source\PSoC5/Impresora.c ****         #endif /* Impresora_RXBUFFERSIZE > Impresora_FIFO_LENGTH */
 636:.\Generated_Source\PSoC5/Impresora.c **** 
 637:.\Generated_Source\PSoC5/Impresora.c ****         return(rxData);
 638:.\Generated_Source\PSoC5/Impresora.c ****     }
 575              		.loc 1 638 0
 576 0064 2046     		mov	r0, r4
 577 0066 10BD     		pop	{r4, pc}
 578              	.LVL51:
 579              	.L52:
 580              		.align	2
 581              	.L51:
 582 0068 00000000 		.word	.LANCHOR0
 583 006c 00000000 		.word	Impresora_rxBuffer
 584 0070 6C640040 		.word	1073767532
 585 0074 4B640040 		.word	1073767499
 586              		.cfi_endproc
 587              	.LFE11:
 588              		.size	Impresora_GetChar, .-Impresora_GetChar
 589              		.section	.text.Impresora_GetByte,"ax",%progbits
 590              		.align	2
 591              		.global	Impresora_GetByte
 592              		.thumb
 593              		.thumb_func
 594              		.type	Impresora_GetByte, %function
 595              	Impresora_GetByte:
 596              	.LFB12:
 639:.\Generated_Source\PSoC5/Impresora.c **** 
 640:.\Generated_Source\PSoC5/Impresora.c **** 
 641:.\Generated_Source\PSoC5/Impresora.c ****     /*******************************************************************************
 642:.\Generated_Source\PSoC5/Impresora.c ****     * Function Name: Impresora_GetByte
 643:.\Generated_Source\PSoC5/Impresora.c ****     ********************************************************************************
 644:.\Generated_Source\PSoC5/Impresora.c ****     *
ARM GAS  C:\Users\IN-002~1\AppData\Local\Temp\ccbDDmmd.s 			page 23


 645:.\Generated_Source\PSoC5/Impresora.c ****     * Summary:
 646:.\Generated_Source\PSoC5/Impresora.c ****     *  Grab the next available byte of data from the recieve FIFO
 647:.\Generated_Source\PSoC5/Impresora.c ****     *
 648:.\Generated_Source\PSoC5/Impresora.c ****     * Parameters:
 649:.\Generated_Source\PSoC5/Impresora.c ****     *  None.
 650:.\Generated_Source\PSoC5/Impresora.c ****     *
 651:.\Generated_Source\PSoC5/Impresora.c ****     * Return:
 652:.\Generated_Source\PSoC5/Impresora.c ****     *  MSB contains Status Register and LSB contains UART RX data
 653:.\Generated_Source\PSoC5/Impresora.c ****     *
 654:.\Generated_Source\PSoC5/Impresora.c ****     * Reentrant:
 655:.\Generated_Source\PSoC5/Impresora.c ****     *  No.
 656:.\Generated_Source\PSoC5/Impresora.c ****     *
 657:.\Generated_Source\PSoC5/Impresora.c ****     *******************************************************************************/
 658:.\Generated_Source\PSoC5/Impresora.c ****     uint16 Impresora_GetByte(void) 
 659:.\Generated_Source\PSoC5/Impresora.c ****     {
 597              		.loc 1 659 0
 598              		.cfi_startproc
 599              		@ args = 0, pretend = 0, frame = 0
 600              		@ frame_needed = 0, uses_anonymous_args = 0
 601 0000 10B5     		push	{r4, lr}
 602              		.cfi_def_cfa_offset 8
 603              		.cfi_offset 4, -8
 604              		.cfi_offset 14, -4
 660:.\Generated_Source\PSoC5/Impresora.c ****         return ( ((uint16)Impresora_ReadRxStatus() << 8u) | Impresora_ReadRxData() );
 605              		.loc 1 660 0
 606 0002 FFF7FEFF 		bl	Impresora_ReadRxStatus
 607              	.LVL52:
 608 0006 0402     		lsls	r4, r0, #8
 609 0008 FFF7FEFF 		bl	Impresora_ReadRxData
 610              	.LVL53:
 611 000c 2043     		orrs	r0, r0, r4
 661:.\Generated_Source\PSoC5/Impresora.c ****     }
 612              		.loc 1 661 0
 613 000e 80B2     		uxth	r0, r0
 614 0010 10BD     		pop	{r4, pc}
 615              		.cfi_endproc
 616              	.LFE12:
 617              		.size	Impresora_GetByte, .-Impresora_GetByte
 618 0012 00BF     		.section	.text.Impresora_GetRxBufferSize,"ax",%progbits
 619              		.align	2
 620              		.global	Impresora_GetRxBufferSize
 621              		.thumb
 622              		.thumb_func
 623              		.type	Impresora_GetRxBufferSize, %function
 624              	Impresora_GetRxBufferSize:
 625              	.LFB13:
 662:.\Generated_Source\PSoC5/Impresora.c **** 
 663:.\Generated_Source\PSoC5/Impresora.c **** 
 664:.\Generated_Source\PSoC5/Impresora.c ****     /*******************************************************************************
 665:.\Generated_Source\PSoC5/Impresora.c ****     * Function Name: Impresora_GetRxBufferSize
 666:.\Generated_Source\PSoC5/Impresora.c ****     ********************************************************************************
 667:.\Generated_Source\PSoC5/Impresora.c ****     *
 668:.\Generated_Source\PSoC5/Impresora.c ****     * Summary:
 669:.\Generated_Source\PSoC5/Impresora.c ****     *  Determine the amount of bytes left in the RX buffer and return the count in
 670:.\Generated_Source\PSoC5/Impresora.c ****     *  bytes
 671:.\Generated_Source\PSoC5/Impresora.c ****     *
 672:.\Generated_Source\PSoC5/Impresora.c ****     * Parameters:
ARM GAS  C:\Users\IN-002~1\AppData\Local\Temp\ccbDDmmd.s 			page 24


 673:.\Generated_Source\PSoC5/Impresora.c ****     *  None.
 674:.\Generated_Source\PSoC5/Impresora.c ****     *
 675:.\Generated_Source\PSoC5/Impresora.c ****     * Return:
 676:.\Generated_Source\PSoC5/Impresora.c ****     *  uint8: Integer count of the number of bytes left
 677:.\Generated_Source\PSoC5/Impresora.c ****     *  in the RX buffer
 678:.\Generated_Source\PSoC5/Impresora.c ****     *
 679:.\Generated_Source\PSoC5/Impresora.c ****     * Global Variables:
 680:.\Generated_Source\PSoC5/Impresora.c ****     *  Impresora_rxBufferWrite - used to calculate left bytes.
 681:.\Generated_Source\PSoC5/Impresora.c ****     *  Impresora_rxBufferRead - used to calculate left bytes.
 682:.\Generated_Source\PSoC5/Impresora.c ****     *  Impresora_rxBufferLoopDetect - checked to decide left bytes amount.
 683:.\Generated_Source\PSoC5/Impresora.c ****     *
 684:.\Generated_Source\PSoC5/Impresora.c ****     * Reentrant:
 685:.\Generated_Source\PSoC5/Impresora.c ****     *  No.
 686:.\Generated_Source\PSoC5/Impresora.c ****     *
 687:.\Generated_Source\PSoC5/Impresora.c ****     * Theory:
 688:.\Generated_Source\PSoC5/Impresora.c ****     *  Allows the user to find out how full the RX Buffer is.
 689:.\Generated_Source\PSoC5/Impresora.c ****     *
 690:.\Generated_Source\PSoC5/Impresora.c ****     *******************************************************************************/
 691:.\Generated_Source\PSoC5/Impresora.c ****     uint8 Impresora_GetRxBufferSize(void)
 692:.\Generated_Source\PSoC5/Impresora.c ****                                                             
 693:.\Generated_Source\PSoC5/Impresora.c ****     {
 626              		.loc 1 693 0
 627              		.cfi_startproc
 628              		@ args = 0, pretend = 0, frame = 0
 629              		@ frame_needed = 0, uses_anonymous_args = 0
 630 0000 10B5     		push	{r4, lr}
 631              		.cfi_def_cfa_offset 8
 632              		.cfi_offset 4, -8
 633              		.cfi_offset 14, -4
 694:.\Generated_Source\PSoC5/Impresora.c ****         uint8 size;
 695:.\Generated_Source\PSoC5/Impresora.c **** 
 696:.\Generated_Source\PSoC5/Impresora.c ****         #if(Impresora_RXBUFFERSIZE > Impresora_FIFO_LENGTH)
 697:.\Generated_Source\PSoC5/Impresora.c **** 
 698:.\Generated_Source\PSoC5/Impresora.c ****             /* Disable Rx interrupt. */
 699:.\Generated_Source\PSoC5/Impresora.c ****             /* Protect variables that could change on interrupt. */
 700:.\Generated_Source\PSoC5/Impresora.c ****             #if(Impresora_RX_INTERRUPT_ENABLED)
 701:.\Generated_Source\PSoC5/Impresora.c ****                 Impresora_DisableRxInt();
 634              		.loc 1 701 0
 635 0002 FFF7FEFF 		bl	Impresora_DisableRxInt
 636              	.LVL54:
 702:.\Generated_Source\PSoC5/Impresora.c ****             #endif /* Impresora_RX_INTERRUPT_ENABLED */
 703:.\Generated_Source\PSoC5/Impresora.c **** 
 704:.\Generated_Source\PSoC5/Impresora.c ****             if(Impresora_rxBufferRead == Impresora_rxBufferWrite)
 637              		.loc 1 704 0
 638 0006 124A     		ldr	r2, .L61
 639 0008 5378     		ldrb	r3, [r2, #1]	@ zero_extendqisi2
 640 000a 9278     		ldrb	r2, [r2, #2]	@ zero_extendqisi2
 641 000c DBB2     		uxtb	r3, r3
 642 000e 9342     		cmp	r3, r2
 643 0010 06D1     		bne	.L56
 705:.\Generated_Source\PSoC5/Impresora.c ****             {
 706:.\Generated_Source\PSoC5/Impresora.c ****                 if(Impresora_rxBufferLoopDetect > 0u)
 644              		.loc 1 706 0
 645 0012 0F4B     		ldr	r3, .L61
 646 0014 DB78     		ldrb	r3, [r3, #3]	@ zero_extendqisi2
 647 0016 13F0FF0F 		tst	r3, #255
 648 001a 14D0     		beq	.L59
ARM GAS  C:\Users\IN-002~1\AppData\Local\Temp\ccbDDmmd.s 			page 25


 707:.\Generated_Source\PSoC5/Impresora.c ****                 {
 708:.\Generated_Source\PSoC5/Impresora.c ****                     size = Impresora_RXBUFFERSIZE;
 649              		.loc 1 708 0
 650 001c 6424     		movs	r4, #100
 651 001e 13E0     		b	.L57
 652              	.L56:
 709:.\Generated_Source\PSoC5/Impresora.c ****                 }
 710:.\Generated_Source\PSoC5/Impresora.c ****                 else
 711:.\Generated_Source\PSoC5/Impresora.c ****                 {
 712:.\Generated_Source\PSoC5/Impresora.c ****                     size = 0u;
 713:.\Generated_Source\PSoC5/Impresora.c ****                 }
 714:.\Generated_Source\PSoC5/Impresora.c ****             }
 715:.\Generated_Source\PSoC5/Impresora.c ****             else if(Impresora_rxBufferRead < Impresora_rxBufferWrite)
 653              		.loc 1 715 0
 654 0020 0B4A     		ldr	r2, .L61
 655 0022 5378     		ldrb	r3, [r2, #1]	@ zero_extendqisi2
 656 0024 9278     		ldrb	r2, [r2, #2]	@ zero_extendqisi2
 657 0026 DBB2     		uxtb	r3, r3
 658 0028 9342     		cmp	r3, r2
 659 002a 05D2     		bcs	.L58
 716:.\Generated_Source\PSoC5/Impresora.c ****             {
 717:.\Generated_Source\PSoC5/Impresora.c ****                 size = (Impresora_rxBufferWrite - Impresora_rxBufferRead);
 660              		.loc 1 717 0
 661 002c 084A     		ldr	r2, .L61
 662 002e 9378     		ldrb	r3, [r2, #2]	@ zero_extendqisi2
 663 0030 5478     		ldrb	r4, [r2, #1]	@ zero_extendqisi2
 664 0032 1C1B     		subs	r4, r3, r4
 665 0034 E4B2     		uxtb	r4, r4
 666              	.LVL55:
 667 0036 07E0     		b	.L57
 668              	.LVL56:
 669              	.L58:
 718:.\Generated_Source\PSoC5/Impresora.c ****             }
 719:.\Generated_Source\PSoC5/Impresora.c ****             else
 720:.\Generated_Source\PSoC5/Impresora.c ****             {
 721:.\Generated_Source\PSoC5/Impresora.c ****                 size = (Impresora_RXBUFFERSIZE - Impresora_rxBufferRead) + Impresora_rxBufferWrite;
 670              		.loc 1 721 0
 671 0038 054A     		ldr	r2, .L61
 672 003a 9378     		ldrb	r3, [r2, #2]	@ zero_extendqisi2
 673 003c 5478     		ldrb	r4, [r2, #1]	@ zero_extendqisi2
 674 003e 1C1B     		subs	r4, r3, r4
 675 0040 6434     		adds	r4, r4, #100
 676 0042 E4B2     		uxtb	r4, r4
 677              	.LVL57:
 678 0044 00E0     		b	.L57
 679              	.LVL58:
 680              	.L59:
 712:.\Generated_Source\PSoC5/Impresora.c ****                 }
 681              		.loc 1 712 0
 682 0046 0024     		movs	r4, #0
 683              	.L57:
 684              	.LVL59:
 722:.\Generated_Source\PSoC5/Impresora.c ****             }
 723:.\Generated_Source\PSoC5/Impresora.c **** 
 724:.\Generated_Source\PSoC5/Impresora.c ****             /* Enable Rx interrupt. */
 725:.\Generated_Source\PSoC5/Impresora.c ****             #if(Impresora_RX_INTERRUPT_ENABLED)
 726:.\Generated_Source\PSoC5/Impresora.c ****                 Impresora_EnableRxInt();
ARM GAS  C:\Users\IN-002~1\AppData\Local\Temp\ccbDDmmd.s 			page 26


 685              		.loc 1 726 0
 686 0048 FFF7FEFF 		bl	Impresora_EnableRxInt
 687              	.LVL60:
 727:.\Generated_Source\PSoC5/Impresora.c ****             #endif /* End Impresora_RX_INTERRUPT_ENABLED */
 728:.\Generated_Source\PSoC5/Impresora.c **** 
 729:.\Generated_Source\PSoC5/Impresora.c ****         #else /* Impresora_RXBUFFERSIZE > Impresora_FIFO_LENGTH */
 730:.\Generated_Source\PSoC5/Impresora.c **** 
 731:.\Generated_Source\PSoC5/Impresora.c ****             /* We can only know if there is data in the fifo. */
 732:.\Generated_Source\PSoC5/Impresora.c ****             size = ((Impresora_RXSTATUS_REG & Impresora_RX_STS_FIFO_NOTEMPTY) != 0u) ? 1u : 0u;
 733:.\Generated_Source\PSoC5/Impresora.c **** 
 734:.\Generated_Source\PSoC5/Impresora.c ****         #endif /* End Impresora_RXBUFFERSIZE > Impresora_FIFO_LENGTH */
 735:.\Generated_Source\PSoC5/Impresora.c **** 
 736:.\Generated_Source\PSoC5/Impresora.c ****         return(size);
 737:.\Generated_Source\PSoC5/Impresora.c ****     }
 688              		.loc 1 737 0
 689 004c 2046     		mov	r0, r4
 690 004e 10BD     		pop	{r4, pc}
 691              	.LVL61:
 692              	.L62:
 693              		.align	2
 694              	.L61:
 695 0050 00000000 		.word	.LANCHOR0
 696              		.cfi_endproc
 697              	.LFE13:
 698              		.size	Impresora_GetRxBufferSize, .-Impresora_GetRxBufferSize
 699              		.section	.text.Impresora_ClearRxBuffer,"ax",%progbits
 700              		.align	2
 701              		.global	Impresora_ClearRxBuffer
 702              		.thumb
 703              		.thumb_func
 704              		.type	Impresora_ClearRxBuffer, %function
 705              	Impresora_ClearRxBuffer:
 706              	.LFB14:
 738:.\Generated_Source\PSoC5/Impresora.c **** 
 739:.\Generated_Source\PSoC5/Impresora.c **** 
 740:.\Generated_Source\PSoC5/Impresora.c ****     /*******************************************************************************
 741:.\Generated_Source\PSoC5/Impresora.c ****     * Function Name: Impresora_ClearRxBuffer
 742:.\Generated_Source\PSoC5/Impresora.c ****     ********************************************************************************
 743:.\Generated_Source\PSoC5/Impresora.c ****     *
 744:.\Generated_Source\PSoC5/Impresora.c ****     * Summary:
 745:.\Generated_Source\PSoC5/Impresora.c ****     *  Clears the RX RAM buffer by setting the read and write pointers both to zero.
 746:.\Generated_Source\PSoC5/Impresora.c ****     *  Clears hardware RX FIFO.
 747:.\Generated_Source\PSoC5/Impresora.c ****     *
 748:.\Generated_Source\PSoC5/Impresora.c ****     * Parameters:
 749:.\Generated_Source\PSoC5/Impresora.c ****     *  None.
 750:.\Generated_Source\PSoC5/Impresora.c ****     *
 751:.\Generated_Source\PSoC5/Impresora.c ****     * Return:
 752:.\Generated_Source\PSoC5/Impresora.c ****     *  None.
 753:.\Generated_Source\PSoC5/Impresora.c ****     *
 754:.\Generated_Source\PSoC5/Impresora.c ****     * Global Variables:
 755:.\Generated_Source\PSoC5/Impresora.c ****     *  Impresora_rxBufferWrite - cleared to zero.
 756:.\Generated_Source\PSoC5/Impresora.c ****     *  Impresora_rxBufferRead - cleared to zero.
 757:.\Generated_Source\PSoC5/Impresora.c ****     *  Impresora_rxBufferLoopDetect - cleared to zero.
 758:.\Generated_Source\PSoC5/Impresora.c ****     *  Impresora_rxBufferOverflow - cleared to zero.
 759:.\Generated_Source\PSoC5/Impresora.c ****     *
 760:.\Generated_Source\PSoC5/Impresora.c ****     * Reentrant:
 761:.\Generated_Source\PSoC5/Impresora.c ****     *  No.
ARM GAS  C:\Users\IN-002~1\AppData\Local\Temp\ccbDDmmd.s 			page 27


 762:.\Generated_Source\PSoC5/Impresora.c ****     *
 763:.\Generated_Source\PSoC5/Impresora.c ****     * Theory:
 764:.\Generated_Source\PSoC5/Impresora.c ****     *  Setting the pointers to zero makes the system believe there is no data to
 765:.\Generated_Source\PSoC5/Impresora.c ****     *  read and writing will resume at address 0 overwriting any data that may
 766:.\Generated_Source\PSoC5/Impresora.c ****     *  have remained in the RAM.
 767:.\Generated_Source\PSoC5/Impresora.c ****     *
 768:.\Generated_Source\PSoC5/Impresora.c ****     * Side Effects:
 769:.\Generated_Source\PSoC5/Impresora.c ****     *  Any received data not read from the RAM or FIFO buffer will be lost.
 770:.\Generated_Source\PSoC5/Impresora.c ****     *******************************************************************************/
 771:.\Generated_Source\PSoC5/Impresora.c ****     void Impresora_ClearRxBuffer(void) 
 772:.\Generated_Source\PSoC5/Impresora.c ****     {
 707              		.loc 1 772 0
 708              		.cfi_startproc
 709              		@ args = 0, pretend = 0, frame = 0
 710              		@ frame_needed = 0, uses_anonymous_args = 0
 711 0000 08B5     		push	{r3, lr}
 712              		.cfi_def_cfa_offset 8
 713              		.cfi_offset 3, -8
 714              		.cfi_offset 14, -4
 773:.\Generated_Source\PSoC5/Impresora.c ****         uint8 enableInterrupts;
 774:.\Generated_Source\PSoC5/Impresora.c **** 
 775:.\Generated_Source\PSoC5/Impresora.c ****         /* clear the HW FIFO */
 776:.\Generated_Source\PSoC5/Impresora.c ****         /* Enter critical section */
 777:.\Generated_Source\PSoC5/Impresora.c ****         enableInterrupts = CyEnterCriticalSection();
 715              		.loc 1 777 0
 716 0002 FFF7FEFF 		bl	CyEnterCriticalSection
 717              	.LVL62:
 778:.\Generated_Source\PSoC5/Impresora.c ****         Impresora_RXDATA_AUX_CTL_REG |=  Impresora_RX_FIFO_CLR;
 718              		.loc 1 778 0
 719 0006 0B4B     		ldr	r3, .L65
 720 0008 1A78     		ldrb	r2, [r3]	@ zero_extendqisi2
 721 000a 42F00102 		orr	r2, r2, #1
 722 000e 1A70     		strb	r2, [r3]
 779:.\Generated_Source\PSoC5/Impresora.c ****         Impresora_RXDATA_AUX_CTL_REG &= (uint8)~Impresora_RX_FIFO_CLR;
 723              		.loc 1 779 0
 724 0010 1A78     		ldrb	r2, [r3]	@ zero_extendqisi2
 725 0012 02F0FE02 		and	r2, r2, #254
 726 0016 1A70     		strb	r2, [r3]
 780:.\Generated_Source\PSoC5/Impresora.c ****         /* Exit critical section */
 781:.\Generated_Source\PSoC5/Impresora.c ****         CyExitCriticalSection(enableInterrupts);
 727              		.loc 1 781 0
 728 0018 FFF7FEFF 		bl	CyExitCriticalSection
 729              	.LVL63:
 782:.\Generated_Source\PSoC5/Impresora.c **** 
 783:.\Generated_Source\PSoC5/Impresora.c ****         #if(Impresora_RXBUFFERSIZE > Impresora_FIFO_LENGTH)
 784:.\Generated_Source\PSoC5/Impresora.c ****             /* Disable Rx interrupt. */
 785:.\Generated_Source\PSoC5/Impresora.c ****             /* Protect variables that could change on interrupt. */
 786:.\Generated_Source\PSoC5/Impresora.c ****             #if(Impresora_RX_INTERRUPT_ENABLED)
 787:.\Generated_Source\PSoC5/Impresora.c ****                 Impresora_DisableRxInt();
 730              		.loc 1 787 0
 731 001c FFF7FEFF 		bl	Impresora_DisableRxInt
 732              	.LVL64:
 788:.\Generated_Source\PSoC5/Impresora.c ****             #endif /* End Impresora_RX_INTERRUPT_ENABLED */
 789:.\Generated_Source\PSoC5/Impresora.c **** 
 790:.\Generated_Source\PSoC5/Impresora.c ****             Impresora_rxBufferRead = 0u;
 733              		.loc 1 790 0
 734 0020 054B     		ldr	r3, .L65+4
ARM GAS  C:\Users\IN-002~1\AppData\Local\Temp\ccbDDmmd.s 			page 28


 735 0022 0022     		movs	r2, #0
 736 0024 5A70     		strb	r2, [r3, #1]
 791:.\Generated_Source\PSoC5/Impresora.c ****             Impresora_rxBufferWrite = 0u;
 737              		.loc 1 791 0
 738 0026 9A70     		strb	r2, [r3, #2]
 792:.\Generated_Source\PSoC5/Impresora.c ****             Impresora_rxBufferLoopDetect = 0u;
 739              		.loc 1 792 0
 740 0028 DA70     		strb	r2, [r3, #3]
 793:.\Generated_Source\PSoC5/Impresora.c ****             Impresora_rxBufferOverflow = 0u;
 741              		.loc 1 793 0
 742 002a 1A71     		strb	r2, [r3, #4]
 794:.\Generated_Source\PSoC5/Impresora.c **** 
 795:.\Generated_Source\PSoC5/Impresora.c ****             /* Enable Rx interrupt. */
 796:.\Generated_Source\PSoC5/Impresora.c ****             #if(Impresora_RX_INTERRUPT_ENABLED)
 797:.\Generated_Source\PSoC5/Impresora.c ****                 Impresora_EnableRxInt();
 743              		.loc 1 797 0
 744 002c FFF7FEFF 		bl	Impresora_EnableRxInt
 745              	.LVL65:
 746 0030 08BD     		pop	{r3, pc}
 747              	.L66:
 748 0032 00BF     		.align	2
 749              	.L65:
 750 0034 9B640040 		.word	1073767579
 751 0038 00000000 		.word	.LANCHOR0
 752              		.cfi_endproc
 753              	.LFE14:
 754              		.size	Impresora_ClearRxBuffer, .-Impresora_ClearRxBuffer
 755              		.section	.text.Impresora_SetRxAddressMode,"ax",%progbits
 756              		.align	2
 757              		.global	Impresora_SetRxAddressMode
 758              		.thumb
 759              		.thumb_func
 760              		.type	Impresora_SetRxAddressMode, %function
 761              	Impresora_SetRxAddressMode:
 762              	.LFB15:
 798:.\Generated_Source\PSoC5/Impresora.c ****             #endif /* End Impresora_RX_INTERRUPT_ENABLED */
 799:.\Generated_Source\PSoC5/Impresora.c ****         #endif /* End Impresora_RXBUFFERSIZE > Impresora_FIFO_LENGTH */
 800:.\Generated_Source\PSoC5/Impresora.c **** 
 801:.\Generated_Source\PSoC5/Impresora.c ****     }
 802:.\Generated_Source\PSoC5/Impresora.c **** 
 803:.\Generated_Source\PSoC5/Impresora.c **** 
 804:.\Generated_Source\PSoC5/Impresora.c ****     /*******************************************************************************
 805:.\Generated_Source\PSoC5/Impresora.c ****     * Function Name: Impresora_SetRxAddressMode
 806:.\Generated_Source\PSoC5/Impresora.c ****     ********************************************************************************
 807:.\Generated_Source\PSoC5/Impresora.c ****     *
 808:.\Generated_Source\PSoC5/Impresora.c ****     * Summary:
 809:.\Generated_Source\PSoC5/Impresora.c ****     *  Set the receive addressing mode
 810:.\Generated_Source\PSoC5/Impresora.c ****     *
 811:.\Generated_Source\PSoC5/Impresora.c ****     * Parameters:
 812:.\Generated_Source\PSoC5/Impresora.c ****     *  addressMode: Enumerated value indicating the mode of RX addressing
 813:.\Generated_Source\PSoC5/Impresora.c ****     *  Impresora__B_UART__AM_SW_BYTE_BYTE -  Software Byte-by-Byte address
 814:.\Generated_Source\PSoC5/Impresora.c ****     *                                               detection
 815:.\Generated_Source\PSoC5/Impresora.c ****     *  Impresora__B_UART__AM_SW_DETECT_TO_BUFFER - Software Detect to Buffer
 816:.\Generated_Source\PSoC5/Impresora.c ****     *                                               address detection
 817:.\Generated_Source\PSoC5/Impresora.c ****     *  Impresora__B_UART__AM_HW_BYTE_BY_BYTE - Hardware Byte-by-Byte address
 818:.\Generated_Source\PSoC5/Impresora.c ****     *                                               detection
 819:.\Generated_Source\PSoC5/Impresora.c ****     *  Impresora__B_UART__AM_HW_DETECT_TO_BUFFER - Hardware Detect to Buffer
ARM GAS  C:\Users\IN-002~1\AppData\Local\Temp\ccbDDmmd.s 			page 29


 820:.\Generated_Source\PSoC5/Impresora.c ****     *                                               address detection
 821:.\Generated_Source\PSoC5/Impresora.c ****     *  Impresora__B_UART__AM_NONE - No address detection
 822:.\Generated_Source\PSoC5/Impresora.c ****     *
 823:.\Generated_Source\PSoC5/Impresora.c ****     * Return:
 824:.\Generated_Source\PSoC5/Impresora.c ****     *  None.
 825:.\Generated_Source\PSoC5/Impresora.c ****     *
 826:.\Generated_Source\PSoC5/Impresora.c ****     * Global Variables:
 827:.\Generated_Source\PSoC5/Impresora.c ****     *  Impresora_rxAddressMode - the parameter stored in this variable for
 828:.\Generated_Source\PSoC5/Impresora.c ****     *   the farther usage in RX ISR.
 829:.\Generated_Source\PSoC5/Impresora.c ****     *  Impresora_rxAddressDetected - set to initial state (0).
 830:.\Generated_Source\PSoC5/Impresora.c ****     *
 831:.\Generated_Source\PSoC5/Impresora.c ****     *******************************************************************************/
 832:.\Generated_Source\PSoC5/Impresora.c ****     void Impresora_SetRxAddressMode(uint8 addressMode)
 833:.\Generated_Source\PSoC5/Impresora.c ****                                                         
 834:.\Generated_Source\PSoC5/Impresora.c ****     {
 763              		.loc 1 834 0
 764              		.cfi_startproc
 765              		@ args = 0, pretend = 0, frame = 0
 766              		@ frame_needed = 0, uses_anonymous_args = 0
 767              		@ link register save eliminated.
 768              	.LVL66:
 769 0000 7047     		bx	lr
 770              		.cfi_endproc
 771              	.LFE15:
 772              		.size	Impresora_SetRxAddressMode, .-Impresora_SetRxAddressMode
 773 0002 00BF     		.section	.text.Impresora_SetRxAddress1,"ax",%progbits
 774              		.align	2
 775              		.global	Impresora_SetRxAddress1
 776              		.thumb
 777              		.thumb_func
 778              		.type	Impresora_SetRxAddress1, %function
 779              	Impresora_SetRxAddress1:
 780              	.LFB16:
 835:.\Generated_Source\PSoC5/Impresora.c ****         #if(Impresora_RXHW_ADDRESS_ENABLED)
 836:.\Generated_Source\PSoC5/Impresora.c ****             #if(Impresora_CONTROL_REG_REMOVED)
 837:.\Generated_Source\PSoC5/Impresora.c ****                 if(addressMode != 0u) { }     /* release compiler warning */
 838:.\Generated_Source\PSoC5/Impresora.c ****             #else /* Impresora_CONTROL_REG_REMOVED */
 839:.\Generated_Source\PSoC5/Impresora.c ****                 uint8 tmpCtrl;
 840:.\Generated_Source\PSoC5/Impresora.c ****                 tmpCtrl = Impresora_CONTROL_REG & (uint8)~Impresora_CTRL_RXADDR_MODE_MASK;
 841:.\Generated_Source\PSoC5/Impresora.c ****                 tmpCtrl |= (uint8)(addressMode << Impresora_CTRL_RXADDR_MODE0_SHIFT);
 842:.\Generated_Source\PSoC5/Impresora.c ****                 Impresora_CONTROL_REG = tmpCtrl;
 843:.\Generated_Source\PSoC5/Impresora.c ****                 #if(Impresora_RX_INTERRUPT_ENABLED && \
 844:.\Generated_Source\PSoC5/Impresora.c ****                    (Impresora_RXBUFFERSIZE > Impresora_FIFO_LENGTH) )
 845:.\Generated_Source\PSoC5/Impresora.c ****                     Impresora_rxAddressMode = addressMode;
 846:.\Generated_Source\PSoC5/Impresora.c ****                     Impresora_rxAddressDetected = 0u;
 847:.\Generated_Source\PSoC5/Impresora.c ****                 #endif /* End Impresora_RXBUFFERSIZE > Impresora_FIFO_LENGTH*/
 848:.\Generated_Source\PSoC5/Impresora.c ****             #endif /* End Impresora_CONTROL_REG_REMOVED */
 849:.\Generated_Source\PSoC5/Impresora.c ****         #else /* Impresora_RXHW_ADDRESS_ENABLED */
 850:.\Generated_Source\PSoC5/Impresora.c ****             if(addressMode != 0u) { }     /* release compiler warning */
 851:.\Generated_Source\PSoC5/Impresora.c ****         #endif /* End Impresora_RXHW_ADDRESS_ENABLED */
 852:.\Generated_Source\PSoC5/Impresora.c ****     }
 853:.\Generated_Source\PSoC5/Impresora.c **** 
 854:.\Generated_Source\PSoC5/Impresora.c **** 
 855:.\Generated_Source\PSoC5/Impresora.c ****     /*******************************************************************************
 856:.\Generated_Source\PSoC5/Impresora.c ****     * Function Name: Impresora_SetRxAddress1
 857:.\Generated_Source\PSoC5/Impresora.c ****     ********************************************************************************
 858:.\Generated_Source\PSoC5/Impresora.c ****     *
ARM GAS  C:\Users\IN-002~1\AppData\Local\Temp\ccbDDmmd.s 			page 30


 859:.\Generated_Source\PSoC5/Impresora.c ****     * Summary:
 860:.\Generated_Source\PSoC5/Impresora.c ****     *  Set the first hardware address compare value
 861:.\Generated_Source\PSoC5/Impresora.c ****     *
 862:.\Generated_Source\PSoC5/Impresora.c ****     * Parameters:
 863:.\Generated_Source\PSoC5/Impresora.c ****     *  address
 864:.\Generated_Source\PSoC5/Impresora.c ****     *
 865:.\Generated_Source\PSoC5/Impresora.c ****     * Return:
 866:.\Generated_Source\PSoC5/Impresora.c ****     *  None.
 867:.\Generated_Source\PSoC5/Impresora.c ****     *
 868:.\Generated_Source\PSoC5/Impresora.c ****     *******************************************************************************/
 869:.\Generated_Source\PSoC5/Impresora.c ****     void Impresora_SetRxAddress1(uint8 address) 
 870:.\Generated_Source\PSoC5/Impresora.c **** 
 871:.\Generated_Source\PSoC5/Impresora.c ****     {
 781              		.loc 1 871 0
 782              		.cfi_startproc
 783              		@ args = 0, pretend = 0, frame = 0
 784              		@ frame_needed = 0, uses_anonymous_args = 0
 785              		@ link register save eliminated.
 786              	.LVL67:
 872:.\Generated_Source\PSoC5/Impresora.c ****         Impresora_RXADDRESS1_REG = address;
 787              		.loc 1 872 0
 788 0000 014B     		ldr	r3, .L69
 789 0002 1870     		strb	r0, [r3]
 790 0004 7047     		bx	lr
 791              	.L70:
 792 0006 00BF     		.align	2
 793              	.L69:
 794 0008 2B640040 		.word	1073767467
 795              		.cfi_endproc
 796              	.LFE16:
 797              		.size	Impresora_SetRxAddress1, .-Impresora_SetRxAddress1
 798              		.section	.text.Impresora_SetRxAddress2,"ax",%progbits
 799              		.align	2
 800              		.global	Impresora_SetRxAddress2
 801              		.thumb
 802              		.thumb_func
 803              		.type	Impresora_SetRxAddress2, %function
 804              	Impresora_SetRxAddress2:
 805              	.LFB17:
 873:.\Generated_Source\PSoC5/Impresora.c ****     }
 874:.\Generated_Source\PSoC5/Impresora.c **** 
 875:.\Generated_Source\PSoC5/Impresora.c **** 
 876:.\Generated_Source\PSoC5/Impresora.c ****     /*******************************************************************************
 877:.\Generated_Source\PSoC5/Impresora.c ****     * Function Name: Impresora_SetRxAddress2
 878:.\Generated_Source\PSoC5/Impresora.c ****     ********************************************************************************
 879:.\Generated_Source\PSoC5/Impresora.c ****     *
 880:.\Generated_Source\PSoC5/Impresora.c ****     * Summary:
 881:.\Generated_Source\PSoC5/Impresora.c ****     *  Set the second hardware address compare value
 882:.\Generated_Source\PSoC5/Impresora.c ****     *
 883:.\Generated_Source\PSoC5/Impresora.c ****     * Parameters:
 884:.\Generated_Source\PSoC5/Impresora.c ****     *  address
 885:.\Generated_Source\PSoC5/Impresora.c ****     *
 886:.\Generated_Source\PSoC5/Impresora.c ****     * Return:
 887:.\Generated_Source\PSoC5/Impresora.c ****     *  None.
 888:.\Generated_Source\PSoC5/Impresora.c ****     *
 889:.\Generated_Source\PSoC5/Impresora.c ****     *******************************************************************************/
 890:.\Generated_Source\PSoC5/Impresora.c ****     void Impresora_SetRxAddress2(uint8 address) 
ARM GAS  C:\Users\IN-002~1\AppData\Local\Temp\ccbDDmmd.s 			page 31


 891:.\Generated_Source\PSoC5/Impresora.c ****     {
 806              		.loc 1 891 0
 807              		.cfi_startproc
 808              		@ args = 0, pretend = 0, frame = 0
 809              		@ frame_needed = 0, uses_anonymous_args = 0
 810              		@ link register save eliminated.
 811              	.LVL68:
 892:.\Generated_Source\PSoC5/Impresora.c ****         Impresora_RXADDRESS2_REG = address;
 812              		.loc 1 892 0
 813 0000 014B     		ldr	r3, .L72
 814 0002 1870     		strb	r0, [r3]
 815 0004 7047     		bx	lr
 816              	.L73:
 817 0006 00BF     		.align	2
 818              	.L72:
 819 0008 3B640040 		.word	1073767483
 820              		.cfi_endproc
 821              	.LFE17:
 822              		.size	Impresora_SetRxAddress2, .-Impresora_SetRxAddress2
 823              		.section	.text.Impresora_SetTxInterruptMode,"ax",%progbits
 824              		.align	2
 825              		.global	Impresora_SetTxInterruptMode
 826              		.thumb
 827              		.thumb_func
 828              		.type	Impresora_SetTxInterruptMode, %function
 829              	Impresora_SetTxInterruptMode:
 830              	.LFB18:
 893:.\Generated_Source\PSoC5/Impresora.c ****     }
 894:.\Generated_Source\PSoC5/Impresora.c **** 
 895:.\Generated_Source\PSoC5/Impresora.c **** #endif  /* Impresora_RX_ENABLED || Impresora_HD_ENABLED*/
 896:.\Generated_Source\PSoC5/Impresora.c **** 
 897:.\Generated_Source\PSoC5/Impresora.c **** 
 898:.\Generated_Source\PSoC5/Impresora.c **** #if( (Impresora_TX_ENABLED) || (Impresora_HD_ENABLED) )
 899:.\Generated_Source\PSoC5/Impresora.c **** 
 900:.\Generated_Source\PSoC5/Impresora.c ****     #if(Impresora_TX_INTERRUPT_ENABLED)
 901:.\Generated_Source\PSoC5/Impresora.c **** 
 902:.\Generated_Source\PSoC5/Impresora.c ****         /*******************************************************************************
 903:.\Generated_Source\PSoC5/Impresora.c ****         * Function Name: Impresora_EnableTxInt
 904:.\Generated_Source\PSoC5/Impresora.c ****         ********************************************************************************
 905:.\Generated_Source\PSoC5/Impresora.c ****         *
 906:.\Generated_Source\PSoC5/Impresora.c ****         * Summary:
 907:.\Generated_Source\PSoC5/Impresora.c ****         *  Enable TX interrupt generation
 908:.\Generated_Source\PSoC5/Impresora.c ****         *
 909:.\Generated_Source\PSoC5/Impresora.c ****         * Parameters:
 910:.\Generated_Source\PSoC5/Impresora.c ****         *  None.
 911:.\Generated_Source\PSoC5/Impresora.c ****         *
 912:.\Generated_Source\PSoC5/Impresora.c ****         * Return:
 913:.\Generated_Source\PSoC5/Impresora.c ****         *  None.
 914:.\Generated_Source\PSoC5/Impresora.c ****         *
 915:.\Generated_Source\PSoC5/Impresora.c ****         * Theory:
 916:.\Generated_Source\PSoC5/Impresora.c ****         *  Enable the interrupt output -or- the interrupt component itself
 917:.\Generated_Source\PSoC5/Impresora.c ****         *
 918:.\Generated_Source\PSoC5/Impresora.c ****         *******************************************************************************/
 919:.\Generated_Source\PSoC5/Impresora.c ****         void Impresora_EnableTxInt(void) 
 920:.\Generated_Source\PSoC5/Impresora.c ****         {
 921:.\Generated_Source\PSoC5/Impresora.c ****             CyIntEnable(Impresora_TX_VECT_NUM);
 922:.\Generated_Source\PSoC5/Impresora.c ****         }
ARM GAS  C:\Users\IN-002~1\AppData\Local\Temp\ccbDDmmd.s 			page 32


 923:.\Generated_Source\PSoC5/Impresora.c **** 
 924:.\Generated_Source\PSoC5/Impresora.c **** 
 925:.\Generated_Source\PSoC5/Impresora.c ****         /*******************************************************************************
 926:.\Generated_Source\PSoC5/Impresora.c ****         * Function Name: Impresora_DisableTxInt
 927:.\Generated_Source\PSoC5/Impresora.c ****         ********************************************************************************
 928:.\Generated_Source\PSoC5/Impresora.c ****         *
 929:.\Generated_Source\PSoC5/Impresora.c ****         * Summary:
 930:.\Generated_Source\PSoC5/Impresora.c ****         *  Disable TX interrupt generation
 931:.\Generated_Source\PSoC5/Impresora.c ****         *
 932:.\Generated_Source\PSoC5/Impresora.c ****         * Parameters:
 933:.\Generated_Source\PSoC5/Impresora.c ****         *  None.
 934:.\Generated_Source\PSoC5/Impresora.c ****         *
 935:.\Generated_Source\PSoC5/Impresora.c ****         * Return:
 936:.\Generated_Source\PSoC5/Impresora.c ****         *  None.
 937:.\Generated_Source\PSoC5/Impresora.c ****         *
 938:.\Generated_Source\PSoC5/Impresora.c ****         * Theory:
 939:.\Generated_Source\PSoC5/Impresora.c ****         *  Disable the interrupt output -or- the interrupt component itself
 940:.\Generated_Source\PSoC5/Impresora.c ****         *
 941:.\Generated_Source\PSoC5/Impresora.c ****         *******************************************************************************/
 942:.\Generated_Source\PSoC5/Impresora.c ****         void Impresora_DisableTxInt(void) 
 943:.\Generated_Source\PSoC5/Impresora.c ****         {
 944:.\Generated_Source\PSoC5/Impresora.c ****             CyIntDisable(Impresora_TX_VECT_NUM);
 945:.\Generated_Source\PSoC5/Impresora.c ****         }
 946:.\Generated_Source\PSoC5/Impresora.c **** 
 947:.\Generated_Source\PSoC5/Impresora.c ****     #endif /* Impresora_TX_INTERRUPT_ENABLED */
 948:.\Generated_Source\PSoC5/Impresora.c **** 
 949:.\Generated_Source\PSoC5/Impresora.c **** 
 950:.\Generated_Source\PSoC5/Impresora.c ****     /*******************************************************************************
 951:.\Generated_Source\PSoC5/Impresora.c ****     * Function Name: Impresora_SetTxInterruptMode
 952:.\Generated_Source\PSoC5/Impresora.c ****     ********************************************************************************
 953:.\Generated_Source\PSoC5/Impresora.c ****     *
 954:.\Generated_Source\PSoC5/Impresora.c ****     * Summary:
 955:.\Generated_Source\PSoC5/Impresora.c ****     *  Configure which status bits trigger an interrupt event
 956:.\Generated_Source\PSoC5/Impresora.c ****     *
 957:.\Generated_Source\PSoC5/Impresora.c ****     * Parameters:
 958:.\Generated_Source\PSoC5/Impresora.c ****     *  intSrc: An or'd combination of the desired status bit masks (defined in
 959:.\Generated_Source\PSoC5/Impresora.c ****     *          the header file)
 960:.\Generated_Source\PSoC5/Impresora.c ****     *
 961:.\Generated_Source\PSoC5/Impresora.c ****     * Return:
 962:.\Generated_Source\PSoC5/Impresora.c ****     *  None.
 963:.\Generated_Source\PSoC5/Impresora.c ****     *
 964:.\Generated_Source\PSoC5/Impresora.c ****     * Theory:
 965:.\Generated_Source\PSoC5/Impresora.c ****     *  Enables the output of specific status bits to the interrupt controller
 966:.\Generated_Source\PSoC5/Impresora.c ****     *
 967:.\Generated_Source\PSoC5/Impresora.c ****     *******************************************************************************/
 968:.\Generated_Source\PSoC5/Impresora.c ****     void Impresora_SetTxInterruptMode(uint8 intSrc) 
 969:.\Generated_Source\PSoC5/Impresora.c ****     {
 831              		.loc 1 969 0
 832              		.cfi_startproc
 833              		@ args = 0, pretend = 0, frame = 0
 834              		@ frame_needed = 0, uses_anonymous_args = 0
 835              		@ link register save eliminated.
 836              	.LVL69:
 970:.\Generated_Source\PSoC5/Impresora.c ****         Impresora_TXSTATUS_MASK_REG = intSrc;
 837              		.loc 1 970 0
 838 0000 014B     		ldr	r3, .L75
 839 0002 1870     		strb	r0, [r3]
ARM GAS  C:\Users\IN-002~1\AppData\Local\Temp\ccbDDmmd.s 			page 33


 840 0004 7047     		bx	lr
 841              	.L76:
 842 0006 00BF     		.align	2
 843              	.L75:
 844 0008 87640040 		.word	1073767559
 845              		.cfi_endproc
 846              	.LFE18:
 847              		.size	Impresora_SetTxInterruptMode, .-Impresora_SetTxInterruptMode
 848              		.section	.text.Impresora_WriteTxData,"ax",%progbits
 849              		.align	2
 850              		.global	Impresora_WriteTxData
 851              		.thumb
 852              		.thumb_func
 853              		.type	Impresora_WriteTxData, %function
 854              	Impresora_WriteTxData:
 855              	.LFB19:
 971:.\Generated_Source\PSoC5/Impresora.c ****     }
 972:.\Generated_Source\PSoC5/Impresora.c **** 
 973:.\Generated_Source\PSoC5/Impresora.c **** 
 974:.\Generated_Source\PSoC5/Impresora.c ****     /*******************************************************************************
 975:.\Generated_Source\PSoC5/Impresora.c ****     * Function Name: Impresora_WriteTxData
 976:.\Generated_Source\PSoC5/Impresora.c ****     ********************************************************************************
 977:.\Generated_Source\PSoC5/Impresora.c ****     *
 978:.\Generated_Source\PSoC5/Impresora.c ****     * Summary:
 979:.\Generated_Source\PSoC5/Impresora.c ****     *  Write a byte of data to the Transmit FIFO or TX buffer to be sent when the
 980:.\Generated_Source\PSoC5/Impresora.c ****     *  bus is available. WriteTxData sends a byte without checking for buffer room
 981:.\Generated_Source\PSoC5/Impresora.c ****     *  or status. It is up to the user to separately check status.
 982:.\Generated_Source\PSoC5/Impresora.c ****     *
 983:.\Generated_Source\PSoC5/Impresora.c ****     * Parameters:
 984:.\Generated_Source\PSoC5/Impresora.c ****     *  TXDataByte: byte of data to place in the transmit FIFO
 985:.\Generated_Source\PSoC5/Impresora.c ****     *
 986:.\Generated_Source\PSoC5/Impresora.c ****     * Return:
 987:.\Generated_Source\PSoC5/Impresora.c ****     * void
 988:.\Generated_Source\PSoC5/Impresora.c ****     *
 989:.\Generated_Source\PSoC5/Impresora.c ****     * Global Variables:
 990:.\Generated_Source\PSoC5/Impresora.c ****     *  Impresora_txBuffer - RAM buffer pointer for save data for transmission
 991:.\Generated_Source\PSoC5/Impresora.c ****     *  Impresora_txBufferWrite - cyclic index for write to txBuffer,
 992:.\Generated_Source\PSoC5/Impresora.c ****     *    incremented after each byte saved to buffer.
 993:.\Generated_Source\PSoC5/Impresora.c ****     *  Impresora_txBufferRead - cyclic index for read from txBuffer,
 994:.\Generated_Source\PSoC5/Impresora.c ****     *    checked to identify the condition to write to FIFO directly or to TX buffer
 995:.\Generated_Source\PSoC5/Impresora.c ****     *  Impresora_initVar - checked to identify that the component has been
 996:.\Generated_Source\PSoC5/Impresora.c ****     *    initialized.
 997:.\Generated_Source\PSoC5/Impresora.c ****     *
 998:.\Generated_Source\PSoC5/Impresora.c ****     * Reentrant:
 999:.\Generated_Source\PSoC5/Impresora.c ****     *  No.
1000:.\Generated_Source\PSoC5/Impresora.c ****     *
1001:.\Generated_Source\PSoC5/Impresora.c ****     *******************************************************************************/
1002:.\Generated_Source\PSoC5/Impresora.c ****     void Impresora_WriteTxData(uint8 txDataByte) 
1003:.\Generated_Source\PSoC5/Impresora.c ****     {
 856              		.loc 1 1003 0
 857              		.cfi_startproc
 858              		@ args = 0, pretend = 0, frame = 0
 859              		@ frame_needed = 0, uses_anonymous_args = 0
 860              		@ link register save eliminated.
 861              	.LVL70:
1004:.\Generated_Source\PSoC5/Impresora.c ****         /* If not Initialized then skip this function*/
1005:.\Generated_Source\PSoC5/Impresora.c ****         if(Impresora_initVar != 0u)
ARM GAS  C:\Users\IN-002~1\AppData\Local\Temp\ccbDDmmd.s 			page 34


 862              		.loc 1 1005 0
 863 0000 024B     		ldr	r3, .L79
 864 0002 1B78     		ldrb	r3, [r3]	@ zero_extendqisi2
 865 0004 0BB1     		cbz	r3, .L77
1006:.\Generated_Source\PSoC5/Impresora.c ****         {
1007:.\Generated_Source\PSoC5/Impresora.c ****             #if(Impresora_TXBUFFERSIZE > Impresora_FIFO_LENGTH)
1008:.\Generated_Source\PSoC5/Impresora.c **** 
1009:.\Generated_Source\PSoC5/Impresora.c ****                 /* Disable Tx interrupt. */
1010:.\Generated_Source\PSoC5/Impresora.c ****                 /* Protect variables that could change on interrupt. */
1011:.\Generated_Source\PSoC5/Impresora.c ****                 #if(Impresora_TX_INTERRUPT_ENABLED)
1012:.\Generated_Source\PSoC5/Impresora.c ****                     Impresora_DisableTxInt();
1013:.\Generated_Source\PSoC5/Impresora.c ****                 #endif /* End Impresora_TX_INTERRUPT_ENABLED */
1014:.\Generated_Source\PSoC5/Impresora.c **** 
1015:.\Generated_Source\PSoC5/Impresora.c ****                 if( (Impresora_txBufferRead == Impresora_txBufferWrite) &&
1016:.\Generated_Source\PSoC5/Impresora.c ****                     ((Impresora_TXSTATUS_REG & Impresora_TX_STS_FIFO_FULL) == 0u) )
1017:.\Generated_Source\PSoC5/Impresora.c ****                 {
1018:.\Generated_Source\PSoC5/Impresora.c ****                     /* Add directly to the FIFO. */
1019:.\Generated_Source\PSoC5/Impresora.c ****                     Impresora_TXDATA_REG = txDataByte;
1020:.\Generated_Source\PSoC5/Impresora.c ****                 }
1021:.\Generated_Source\PSoC5/Impresora.c ****                 else
1022:.\Generated_Source\PSoC5/Impresora.c ****                 {
1023:.\Generated_Source\PSoC5/Impresora.c ****                     if(Impresora_txBufferWrite >= Impresora_TXBUFFERSIZE)
1024:.\Generated_Source\PSoC5/Impresora.c ****                     {
1025:.\Generated_Source\PSoC5/Impresora.c ****                         Impresora_txBufferWrite = 0u;
1026:.\Generated_Source\PSoC5/Impresora.c ****                     }
1027:.\Generated_Source\PSoC5/Impresora.c **** 
1028:.\Generated_Source\PSoC5/Impresora.c ****                     Impresora_txBuffer[Impresora_txBufferWrite] = txDataByte;
1029:.\Generated_Source\PSoC5/Impresora.c **** 
1030:.\Generated_Source\PSoC5/Impresora.c ****                     /* Add to the software buffer. */
1031:.\Generated_Source\PSoC5/Impresora.c ****                     Impresora_txBufferWrite++;
1032:.\Generated_Source\PSoC5/Impresora.c **** 
1033:.\Generated_Source\PSoC5/Impresora.c ****                 }
1034:.\Generated_Source\PSoC5/Impresora.c **** 
1035:.\Generated_Source\PSoC5/Impresora.c ****                 /* Enable Tx interrupt. */
1036:.\Generated_Source\PSoC5/Impresora.c ****                 #if(Impresora_TX_INTERRUPT_ENABLED)
1037:.\Generated_Source\PSoC5/Impresora.c ****                     Impresora_EnableTxInt();
1038:.\Generated_Source\PSoC5/Impresora.c ****                 #endif /* End Impresora_TX_INTERRUPT_ENABLED */
1039:.\Generated_Source\PSoC5/Impresora.c **** 
1040:.\Generated_Source\PSoC5/Impresora.c ****             #else /* Impresora_TXBUFFERSIZE > Impresora_FIFO_LENGTH */
1041:.\Generated_Source\PSoC5/Impresora.c **** 
1042:.\Generated_Source\PSoC5/Impresora.c ****                 /* Add directly to the FIFO. */
1043:.\Generated_Source\PSoC5/Impresora.c ****                 Impresora_TXDATA_REG = txDataByte;
 866              		.loc 1 1043 0
 867 0006 024B     		ldr	r3, .L79+4
 868 0008 1870     		strb	r0, [r3]
 869              	.L77:
 870 000a 7047     		bx	lr
 871              	.L80:
 872              		.align	2
 873              	.L79:
 874 000c 00000000 		.word	.LANCHOR0
 875 0010 49640040 		.word	1073767497
 876              		.cfi_endproc
 877              	.LFE19:
 878              		.size	Impresora_WriteTxData, .-Impresora_WriteTxData
 879              		.section	.text.Impresora_ReadTxStatus,"ax",%progbits
 880              		.align	2
ARM GAS  C:\Users\IN-002~1\AppData\Local\Temp\ccbDDmmd.s 			page 35


 881              		.global	Impresora_ReadTxStatus
 882              		.thumb
 883              		.thumb_func
 884              		.type	Impresora_ReadTxStatus, %function
 885              	Impresora_ReadTxStatus:
 886              	.LFB20:
1044:.\Generated_Source\PSoC5/Impresora.c **** 
1045:.\Generated_Source\PSoC5/Impresora.c ****             #endif /* End Impresora_TXBUFFERSIZE > Impresora_FIFO_LENGTH */
1046:.\Generated_Source\PSoC5/Impresora.c ****         }
1047:.\Generated_Source\PSoC5/Impresora.c ****     }
1048:.\Generated_Source\PSoC5/Impresora.c **** 
1049:.\Generated_Source\PSoC5/Impresora.c **** 
1050:.\Generated_Source\PSoC5/Impresora.c ****     /*******************************************************************************
1051:.\Generated_Source\PSoC5/Impresora.c ****     * Function Name: Impresora_ReadTxStatus
1052:.\Generated_Source\PSoC5/Impresora.c ****     ********************************************************************************
1053:.\Generated_Source\PSoC5/Impresora.c ****     *
1054:.\Generated_Source\PSoC5/Impresora.c ****     * Summary:
1055:.\Generated_Source\PSoC5/Impresora.c ****     *  Read the status register for the component
1056:.\Generated_Source\PSoC5/Impresora.c ****     *
1057:.\Generated_Source\PSoC5/Impresora.c ****     * Parameters:
1058:.\Generated_Source\PSoC5/Impresora.c ****     *  None.
1059:.\Generated_Source\PSoC5/Impresora.c ****     *
1060:.\Generated_Source\PSoC5/Impresora.c ****     * Return:
1061:.\Generated_Source\PSoC5/Impresora.c ****     *  Contents of the status register
1062:.\Generated_Source\PSoC5/Impresora.c ****     *
1063:.\Generated_Source\PSoC5/Impresora.c ****     * Theory:
1064:.\Generated_Source\PSoC5/Impresora.c ****     *  This function reads the status register which is clear on read. It is up to
1065:.\Generated_Source\PSoC5/Impresora.c ****     *  the user to handle all bits in this return value accordingly, even if the bit
1066:.\Generated_Source\PSoC5/Impresora.c ****     *  was not enabled as an interrupt source the event happened and must be handled
1067:.\Generated_Source\PSoC5/Impresora.c ****     *  accordingly.
1068:.\Generated_Source\PSoC5/Impresora.c ****     *
1069:.\Generated_Source\PSoC5/Impresora.c ****     *******************************************************************************/
1070:.\Generated_Source\PSoC5/Impresora.c ****     uint8 Impresora_ReadTxStatus(void) 
1071:.\Generated_Source\PSoC5/Impresora.c ****     {
 887              		.loc 1 1071 0
 888              		.cfi_startproc
 889              		@ args = 0, pretend = 0, frame = 0
 890              		@ frame_needed = 0, uses_anonymous_args = 0
 891              		@ link register save eliminated.
1072:.\Generated_Source\PSoC5/Impresora.c ****         return(Impresora_TXSTATUS_REG);
 892              		.loc 1 1072 0
 893 0000 014B     		ldr	r3, .L82
 894 0002 1878     		ldrb	r0, [r3]	@ zero_extendqisi2
1073:.\Generated_Source\PSoC5/Impresora.c ****     }
 895              		.loc 1 1073 0
 896 0004 7047     		bx	lr
 897              	.L83:
 898 0006 00BF     		.align	2
 899              	.L82:
 900 0008 67640040 		.word	1073767527
 901              		.cfi_endproc
 902              	.LFE20:
 903              		.size	Impresora_ReadTxStatus, .-Impresora_ReadTxStatus
 904              		.section	.text.Impresora_PutChar,"ax",%progbits
 905              		.align	2
 906              		.global	Impresora_PutChar
 907              		.thumb
ARM GAS  C:\Users\IN-002~1\AppData\Local\Temp\ccbDDmmd.s 			page 36


 908              		.thumb_func
 909              		.type	Impresora_PutChar, %function
 910              	Impresora_PutChar:
 911              	.LFB21:
1074:.\Generated_Source\PSoC5/Impresora.c **** 
1075:.\Generated_Source\PSoC5/Impresora.c **** 
1076:.\Generated_Source\PSoC5/Impresora.c ****     /*******************************************************************************
1077:.\Generated_Source\PSoC5/Impresora.c ****     * Function Name: Impresora_PutChar
1078:.\Generated_Source\PSoC5/Impresora.c ****     ********************************************************************************
1079:.\Generated_Source\PSoC5/Impresora.c ****     *
1080:.\Generated_Source\PSoC5/Impresora.c ****     * Summary:
1081:.\Generated_Source\PSoC5/Impresora.c ****     *  Wait to send byte until TX register or buffer has room.
1082:.\Generated_Source\PSoC5/Impresora.c ****     *
1083:.\Generated_Source\PSoC5/Impresora.c ****     * Parameters:
1084:.\Generated_Source\PSoC5/Impresora.c ****     *  txDataByte: The 8-bit data value to send across the UART.
1085:.\Generated_Source\PSoC5/Impresora.c ****     *
1086:.\Generated_Source\PSoC5/Impresora.c ****     * Return:
1087:.\Generated_Source\PSoC5/Impresora.c ****     *  None.
1088:.\Generated_Source\PSoC5/Impresora.c ****     *
1089:.\Generated_Source\PSoC5/Impresora.c ****     * Global Variables:
1090:.\Generated_Source\PSoC5/Impresora.c ****     *  Impresora_txBuffer - RAM buffer pointer for save data for transmission
1091:.\Generated_Source\PSoC5/Impresora.c ****     *  Impresora_txBufferWrite - cyclic index for write to txBuffer,
1092:.\Generated_Source\PSoC5/Impresora.c ****     *     checked to identify free space in txBuffer and incremented after each byte
1093:.\Generated_Source\PSoC5/Impresora.c ****     *     saved to buffer.
1094:.\Generated_Source\PSoC5/Impresora.c ****     *  Impresora_txBufferRead - cyclic index for read from txBuffer,
1095:.\Generated_Source\PSoC5/Impresora.c ****     *     checked to identify free space in txBuffer.
1096:.\Generated_Source\PSoC5/Impresora.c ****     *  Impresora_initVar - checked to identify that the component has been
1097:.\Generated_Source\PSoC5/Impresora.c ****     *     initialized.
1098:.\Generated_Source\PSoC5/Impresora.c ****     *
1099:.\Generated_Source\PSoC5/Impresora.c ****     * Reentrant:
1100:.\Generated_Source\PSoC5/Impresora.c ****     *  No.
1101:.\Generated_Source\PSoC5/Impresora.c ****     *
1102:.\Generated_Source\PSoC5/Impresora.c ****     * Theory:
1103:.\Generated_Source\PSoC5/Impresora.c ****     *  Allows the user to transmit any byte of data in a single transfer
1104:.\Generated_Source\PSoC5/Impresora.c ****     *
1105:.\Generated_Source\PSoC5/Impresora.c ****     *******************************************************************************/
1106:.\Generated_Source\PSoC5/Impresora.c ****     void Impresora_PutChar(uint8 txDataByte) 
1107:.\Generated_Source\PSoC5/Impresora.c ****     {
 912              		.loc 1 1107 0
 913              		.cfi_startproc
 914              		@ args = 0, pretend = 0, frame = 0
 915              		@ frame_needed = 0, uses_anonymous_args = 0
 916              		@ link register save eliminated.
 917              	.LVL71:
 918              	.L85:
1108:.\Generated_Source\PSoC5/Impresora.c ****             #if(Impresora_TXBUFFERSIZE > Impresora_FIFO_LENGTH)
1109:.\Generated_Source\PSoC5/Impresora.c ****                 /* The temporary output pointer is used since it takes two instructions
1110:.\Generated_Source\PSoC5/Impresora.c ****                 *  to increment with a wrap, and we can't risk doing that with the real
1111:.\Generated_Source\PSoC5/Impresora.c ****                 *  pointer and getting an interrupt in between instructions.
1112:.\Generated_Source\PSoC5/Impresora.c ****                 */
1113:.\Generated_Source\PSoC5/Impresora.c ****                 uint8 loc_txBufferWrite;
1114:.\Generated_Source\PSoC5/Impresora.c ****                 uint8 loc_txBufferRead;
1115:.\Generated_Source\PSoC5/Impresora.c **** 
1116:.\Generated_Source\PSoC5/Impresora.c ****                 do{
1117:.\Generated_Source\PSoC5/Impresora.c ****                     /* Block if software buffer is full, so we don't overwrite. */
1118:.\Generated_Source\PSoC5/Impresora.c ****                     #if ((Impresora_TXBUFFERSIZE > Impresora_MAX_BYTE_VALUE) && (CY_PSOC3))
1119:.\Generated_Source\PSoC5/Impresora.c ****                         /* Disable TX interrupt to protect variables that could change on interrupt
ARM GAS  C:\Users\IN-002~1\AppData\Local\Temp\ccbDDmmd.s 			page 37


1120:.\Generated_Source\PSoC5/Impresora.c ****                         CyIntDisable(Impresora_TX_VECT_NUM);
1121:.\Generated_Source\PSoC5/Impresora.c ****                     #endif /* End TXBUFFERSIZE > 255 */
1122:.\Generated_Source\PSoC5/Impresora.c ****                     loc_txBufferWrite = Impresora_txBufferWrite;
1123:.\Generated_Source\PSoC5/Impresora.c ****                     loc_txBufferRead = Impresora_txBufferRead;
1124:.\Generated_Source\PSoC5/Impresora.c ****                     #if ((Impresora_TXBUFFERSIZE > Impresora_MAX_BYTE_VALUE) && (CY_PSOC3))
1125:.\Generated_Source\PSoC5/Impresora.c ****                         /* Enable interrupt to continue transmission */
1126:.\Generated_Source\PSoC5/Impresora.c ****                         CyIntEnable(Impresora_TX_VECT_NUM);
1127:.\Generated_Source\PSoC5/Impresora.c ****                     #endif /* End TXBUFFERSIZE > 255 */
1128:.\Generated_Source\PSoC5/Impresora.c ****                 }while( (loc_txBufferWrite < loc_txBufferRead) ? (loc_txBufferWrite == (loc_txBuffe
1129:.\Generated_Source\PSoC5/Impresora.c ****                                         ((loc_txBufferWrite - loc_txBufferRead) ==
1130:.\Generated_Source\PSoC5/Impresora.c ****                                         (uint8)(Impresora_TXBUFFERSIZE - 1u)) );
1131:.\Generated_Source\PSoC5/Impresora.c **** 
1132:.\Generated_Source\PSoC5/Impresora.c ****                 if( (loc_txBufferRead == loc_txBufferWrite) &&
1133:.\Generated_Source\PSoC5/Impresora.c ****                     ((Impresora_TXSTATUS_REG & Impresora_TX_STS_FIFO_FULL) == 0u) )
1134:.\Generated_Source\PSoC5/Impresora.c ****                 {
1135:.\Generated_Source\PSoC5/Impresora.c ****                     /* Add directly to the FIFO. */
1136:.\Generated_Source\PSoC5/Impresora.c ****                     Impresora_TXDATA_REG = txDataByte;
1137:.\Generated_Source\PSoC5/Impresora.c ****                 }
1138:.\Generated_Source\PSoC5/Impresora.c ****                 else
1139:.\Generated_Source\PSoC5/Impresora.c ****                 {
1140:.\Generated_Source\PSoC5/Impresora.c ****                     if(loc_txBufferWrite >= Impresora_TXBUFFERSIZE)
1141:.\Generated_Source\PSoC5/Impresora.c ****                     {
1142:.\Generated_Source\PSoC5/Impresora.c ****                         loc_txBufferWrite = 0u;
1143:.\Generated_Source\PSoC5/Impresora.c ****                     }
1144:.\Generated_Source\PSoC5/Impresora.c ****                     /* Add to the software buffer. */
1145:.\Generated_Source\PSoC5/Impresora.c ****                     Impresora_txBuffer[loc_txBufferWrite] = txDataByte;
1146:.\Generated_Source\PSoC5/Impresora.c ****                     loc_txBufferWrite++;
1147:.\Generated_Source\PSoC5/Impresora.c **** 
1148:.\Generated_Source\PSoC5/Impresora.c ****                     /* Finally, update the real output pointer */
1149:.\Generated_Source\PSoC5/Impresora.c ****                     #if ((Impresora_TXBUFFERSIZE > Impresora_MAX_BYTE_VALUE) && (CY_PSOC3))
1150:.\Generated_Source\PSoC5/Impresora.c ****                         CyIntDisable(Impresora_TX_VECT_NUM);
1151:.\Generated_Source\PSoC5/Impresora.c ****                     #endif /* End TXBUFFERSIZE > 255 */
1152:.\Generated_Source\PSoC5/Impresora.c ****                     Impresora_txBufferWrite = loc_txBufferWrite;
1153:.\Generated_Source\PSoC5/Impresora.c ****                     #if ((Impresora_TXBUFFERSIZE > Impresora_MAX_BYTE_VALUE) && (CY_PSOC3))
1154:.\Generated_Source\PSoC5/Impresora.c ****                         CyIntEnable(Impresora_TX_VECT_NUM);
1155:.\Generated_Source\PSoC5/Impresora.c ****                     #endif /* End TXBUFFERSIZE > 255 */
1156:.\Generated_Source\PSoC5/Impresora.c ****                 }
1157:.\Generated_Source\PSoC5/Impresora.c **** 
1158:.\Generated_Source\PSoC5/Impresora.c ****             #else /* Impresora_TXBUFFERSIZE > Impresora_FIFO_LENGTH */
1159:.\Generated_Source\PSoC5/Impresora.c **** 
1160:.\Generated_Source\PSoC5/Impresora.c ****                 while((Impresora_TXSTATUS_REG & Impresora_TX_STS_FIFO_FULL) != 0u)
 919              		.loc 1 1160 0 discriminator 1
 920 0000 034B     		ldr	r3, .L86
 921 0002 1B78     		ldrb	r3, [r3]	@ zero_extendqisi2
 922 0004 13F0040F 		tst	r3, #4
 923 0008 FAD1     		bne	.L85
1161:.\Generated_Source\PSoC5/Impresora.c ****                 {
1162:.\Generated_Source\PSoC5/Impresora.c ****                     ; /* Wait for room in the FIFO. */
1163:.\Generated_Source\PSoC5/Impresora.c ****                 }
1164:.\Generated_Source\PSoC5/Impresora.c **** 
1165:.\Generated_Source\PSoC5/Impresora.c ****                 /* Add directly to the FIFO. */
1166:.\Generated_Source\PSoC5/Impresora.c ****                 Impresora_TXDATA_REG = txDataByte;
 924              		.loc 1 1166 0
 925 000a 024B     		ldr	r3, .L86+4
 926 000c 1870     		strb	r0, [r3]
 927 000e 7047     		bx	lr
 928              	.L87:
ARM GAS  C:\Users\IN-002~1\AppData\Local\Temp\ccbDDmmd.s 			page 38


 929              		.align	2
 930              	.L86:
 931 0010 67640040 		.word	1073767527
 932 0014 49640040 		.word	1073767497
 933              		.cfi_endproc
 934              	.LFE21:
 935              		.size	Impresora_PutChar, .-Impresora_PutChar
 936              		.section	.text.Impresora_PutString,"ax",%progbits
 937              		.align	2
 938              		.global	Impresora_PutString
 939              		.thumb
 940              		.thumb_func
 941              		.type	Impresora_PutString, %function
 942              	Impresora_PutString:
 943              	.LFB22:
1167:.\Generated_Source\PSoC5/Impresora.c **** 
1168:.\Generated_Source\PSoC5/Impresora.c ****             #endif /* End Impresora_TXBUFFERSIZE > Impresora_FIFO_LENGTH */
1169:.\Generated_Source\PSoC5/Impresora.c ****     }
1170:.\Generated_Source\PSoC5/Impresora.c **** 
1171:.\Generated_Source\PSoC5/Impresora.c **** 
1172:.\Generated_Source\PSoC5/Impresora.c ****     /*******************************************************************************
1173:.\Generated_Source\PSoC5/Impresora.c ****     * Function Name: Impresora_PutString
1174:.\Generated_Source\PSoC5/Impresora.c ****     ********************************************************************************
1175:.\Generated_Source\PSoC5/Impresora.c ****     *
1176:.\Generated_Source\PSoC5/Impresora.c ****     * Summary:
1177:.\Generated_Source\PSoC5/Impresora.c ****     *  Write a Sequence of bytes on the Transmit line. Data comes from RAM or ROM.
1178:.\Generated_Source\PSoC5/Impresora.c ****     *
1179:.\Generated_Source\PSoC5/Impresora.c ****     * Parameters:
1180:.\Generated_Source\PSoC5/Impresora.c ****     *  string: char pointer to character string of Data to Send.
1181:.\Generated_Source\PSoC5/Impresora.c ****     *
1182:.\Generated_Source\PSoC5/Impresora.c ****     * Return:
1183:.\Generated_Source\PSoC5/Impresora.c ****     *  None.
1184:.\Generated_Source\PSoC5/Impresora.c ****     *
1185:.\Generated_Source\PSoC5/Impresora.c ****     * Global Variables:
1186:.\Generated_Source\PSoC5/Impresora.c ****     *  Impresora_initVar - checked to identify that the component has been
1187:.\Generated_Source\PSoC5/Impresora.c ****     *     initialized.
1188:.\Generated_Source\PSoC5/Impresora.c ****     *
1189:.\Generated_Source\PSoC5/Impresora.c ****     * Reentrant:
1190:.\Generated_Source\PSoC5/Impresora.c ****     *  No.
1191:.\Generated_Source\PSoC5/Impresora.c ****     *
1192:.\Generated_Source\PSoC5/Impresora.c ****     * Theory:
1193:.\Generated_Source\PSoC5/Impresora.c ****     *  This function will block if there is not enough memory to place the whole
1194:.\Generated_Source\PSoC5/Impresora.c ****     *  string, it will block until the entire string has been written to the
1195:.\Generated_Source\PSoC5/Impresora.c ****     *  transmit buffer.
1196:.\Generated_Source\PSoC5/Impresora.c ****     *
1197:.\Generated_Source\PSoC5/Impresora.c ****     *******************************************************************************/
1198:.\Generated_Source\PSoC5/Impresora.c ****     void Impresora_PutString(const char8 string[]) 
1199:.\Generated_Source\PSoC5/Impresora.c ****     {
 944              		.loc 1 1199 0
 945              		.cfi_startproc
 946              		@ args = 0, pretend = 0, frame = 0
 947              		@ frame_needed = 0, uses_anonymous_args = 0
 948              	.LVL72:
 949 0000 38B5     		push	{r3, r4, r5, lr}
 950              		.cfi_def_cfa_offset 16
 951              		.cfi_offset 3, -16
 952              		.cfi_offset 4, -12
ARM GAS  C:\Users\IN-002~1\AppData\Local\Temp\ccbDDmmd.s 			page 39


 953              		.cfi_offset 5, -8
 954              		.cfi_offset 14, -4
 955              	.LVL73:
1200:.\Generated_Source\PSoC5/Impresora.c ****         uint16 buf_index = 0u;
1201:.\Generated_Source\PSoC5/Impresora.c ****         /* If not Initialized then skip this function*/
1202:.\Generated_Source\PSoC5/Impresora.c ****         if(Impresora_initVar != 0u)
 956              		.loc 1 1202 0
 957 0002 074B     		ldr	r3, .L94
 958 0004 1B78     		ldrb	r3, [r3]	@ zero_extendqisi2
 959 0006 2BB9     		cbnz	r3, .L92
 960 0008 38BD     		pop	{r3, r4, r5, pc}
 961              	.LVL74:
 962              	.L91:
1203:.\Generated_Source\PSoC5/Impresora.c ****         {
1204:.\Generated_Source\PSoC5/Impresora.c ****             /* This is a blocking function, it will not exit until all data is sent*/
1205:.\Generated_Source\PSoC5/Impresora.c ****             while(string[buf_index] != (char8)0)
1206:.\Generated_Source\PSoC5/Impresora.c ****             {
1207:.\Generated_Source\PSoC5/Impresora.c ****                 Impresora_PutChar((uint8)string[buf_index]);
 963              		.loc 1 1207 0
 964 000a FFF7FEFF 		bl	Impresora_PutChar
 965              	.LVL75:
1208:.\Generated_Source\PSoC5/Impresora.c ****                 buf_index++;
 966              		.loc 1 1208 0
 967 000e 0134     		adds	r4, r4, #1
 968              	.LVL76:
 969 0010 A4B2     		uxth	r4, r4
 970              	.LVL77:
 971 0012 01E0     		b	.L89
 972              	.LVL78:
 973              	.L92:
 974 0014 0546     		mov	r5, r0
 975 0016 0024     		movs	r4, #0
 976              	.LVL79:
 977              	.L89:
1205:.\Generated_Source\PSoC5/Impresora.c ****             {
 978              		.loc 1 1205 0
 979 0018 285D     		ldrb	r0, [r5, r4]	@ zero_extendqisi2
 980 001a 0028     		cmp	r0, #0
 981 001c F5D1     		bne	.L91
 982 001e 38BD     		pop	{r3, r4, r5, pc}
 983              	.LVL80:
 984              	.L95:
 985              		.align	2
 986              	.L94:
 987 0020 00000000 		.word	.LANCHOR0
 988              		.cfi_endproc
 989              	.LFE22:
 990              		.size	Impresora_PutString, .-Impresora_PutString
 991              		.section	.text.Impresora_PutArray,"ax",%progbits
 992              		.align	2
 993              		.global	Impresora_PutArray
 994              		.thumb
 995              		.thumb_func
 996              		.type	Impresora_PutArray, %function
 997              	Impresora_PutArray:
 998              	.LFB23:
1209:.\Generated_Source\PSoC5/Impresora.c ****             }
ARM GAS  C:\Users\IN-002~1\AppData\Local\Temp\ccbDDmmd.s 			page 40


1210:.\Generated_Source\PSoC5/Impresora.c ****         }
1211:.\Generated_Source\PSoC5/Impresora.c ****     }
1212:.\Generated_Source\PSoC5/Impresora.c **** 
1213:.\Generated_Source\PSoC5/Impresora.c **** 
1214:.\Generated_Source\PSoC5/Impresora.c ****     /*******************************************************************************
1215:.\Generated_Source\PSoC5/Impresora.c ****     * Function Name: Impresora_PutArray
1216:.\Generated_Source\PSoC5/Impresora.c ****     ********************************************************************************
1217:.\Generated_Source\PSoC5/Impresora.c ****     *
1218:.\Generated_Source\PSoC5/Impresora.c ****     * Summary:
1219:.\Generated_Source\PSoC5/Impresora.c ****     *  Write a Sequence of bytes on the Transmit line. Data comes from RAM or ROM.
1220:.\Generated_Source\PSoC5/Impresora.c ****     *
1221:.\Generated_Source\PSoC5/Impresora.c ****     * Parameters:
1222:.\Generated_Source\PSoC5/Impresora.c ****     *  string: Address of the memory array residing in RAM or ROM.
1223:.\Generated_Source\PSoC5/Impresora.c ****     *  byteCount: Number of Bytes to be transmitted.
1224:.\Generated_Source\PSoC5/Impresora.c ****     *
1225:.\Generated_Source\PSoC5/Impresora.c ****     * Return:
1226:.\Generated_Source\PSoC5/Impresora.c ****     *  None.
1227:.\Generated_Source\PSoC5/Impresora.c ****     *
1228:.\Generated_Source\PSoC5/Impresora.c ****     * Global Variables:
1229:.\Generated_Source\PSoC5/Impresora.c ****     *  Impresora_initVar - checked to identify that the component has been
1230:.\Generated_Source\PSoC5/Impresora.c ****     *     initialized.
1231:.\Generated_Source\PSoC5/Impresora.c ****     *
1232:.\Generated_Source\PSoC5/Impresora.c ****     * Reentrant:
1233:.\Generated_Source\PSoC5/Impresora.c ****     *  No.
1234:.\Generated_Source\PSoC5/Impresora.c ****     *
1235:.\Generated_Source\PSoC5/Impresora.c ****     *******************************************************************************/
1236:.\Generated_Source\PSoC5/Impresora.c ****     void Impresora_PutArray(const uint8 string[], uint8 byteCount)
1237:.\Generated_Source\PSoC5/Impresora.c ****                                                                     
1238:.\Generated_Source\PSoC5/Impresora.c ****     {
 999              		.loc 1 1238 0
 1000              		.cfi_startproc
 1001              		@ args = 0, pretend = 0, frame = 0
 1002              		@ frame_needed = 0, uses_anonymous_args = 0
 1003              	.LVL81:
1239:.\Generated_Source\PSoC5/Impresora.c ****         uint8 buf_index = 0u;
1240:.\Generated_Source\PSoC5/Impresora.c ****         /* If not Initialized then skip this function*/
1241:.\Generated_Source\PSoC5/Impresora.c ****         if(Impresora_initVar != 0u)
 1004              		.loc 1 1241 0
 1005 0000 074B     		ldr	r3, .L101
 1006 0002 1B78     		ldrb	r3, [r3]	@ zero_extendqisi2
 1007 0004 5BB1     		cbz	r3, .L100
1238:.\Generated_Source\PSoC5/Impresora.c ****         uint8 buf_index = 0u;
 1008              		.loc 1 1238 0
 1009 0006 70B5     		push	{r4, r5, r6, lr}
 1010              		.cfi_def_cfa_offset 16
 1011              		.cfi_offset 4, -16
 1012              		.cfi_offset 5, -12
 1013              		.cfi_offset 6, -8
 1014              		.cfi_offset 14, -4
 1015 0008 0E46     		mov	r6, r1
 1016 000a 0546     		mov	r5, r0
 1017 000c 0024     		movs	r4, #0
 1018              	.LVL82:
 1019              	.L98:
1242:.\Generated_Source\PSoC5/Impresora.c ****         {
1243:.\Generated_Source\PSoC5/Impresora.c ****             do
1244:.\Generated_Source\PSoC5/Impresora.c ****             {
ARM GAS  C:\Users\IN-002~1\AppData\Local\Temp\ccbDDmmd.s 			page 41


1245:.\Generated_Source\PSoC5/Impresora.c ****                 Impresora_PutChar(string[buf_index]);
 1020              		.loc 1 1245 0 discriminator 1
 1021 000e 285D     		ldrb	r0, [r5, r4]	@ zero_extendqisi2
 1022 0010 FFF7FEFF 		bl	Impresora_PutChar
 1023              	.LVL83:
1246:.\Generated_Source\PSoC5/Impresora.c ****                 buf_index++;
 1024              		.loc 1 1246 0 discriminator 1
 1025 0014 0134     		adds	r4, r4, #1
 1026              	.LVL84:
 1027 0016 E4B2     		uxtb	r4, r4
 1028              	.LVL85:
1247:.\Generated_Source\PSoC5/Impresora.c ****             }while(buf_index < byteCount);
 1029              		.loc 1 1247 0 discriminator 1
 1030 0018 B442     		cmp	r4, r6
 1031 001a F8D3     		bcc	.L98
 1032 001c 70BD     		pop	{r4, r5, r6, pc}
 1033              	.LVL86:
 1034              	.L100:
 1035              		.cfi_def_cfa_offset 0
 1036              		.cfi_restore 4
 1037              		.cfi_restore 5
 1038              		.cfi_restore 6
 1039              		.cfi_restore 14
 1040 001e 7047     		bx	lr
 1041              	.L102:
 1042              		.align	2
 1043              	.L101:
 1044 0020 00000000 		.word	.LANCHOR0
 1045              		.cfi_endproc
 1046              	.LFE23:
 1047              		.size	Impresora_PutArray, .-Impresora_PutArray
 1048              		.section	.text.Impresora_PutCRLF,"ax",%progbits
 1049              		.align	2
 1050              		.global	Impresora_PutCRLF
 1051              		.thumb
 1052              		.thumb_func
 1053              		.type	Impresora_PutCRLF, %function
 1054              	Impresora_PutCRLF:
 1055              	.LFB24:
1248:.\Generated_Source\PSoC5/Impresora.c ****         }
1249:.\Generated_Source\PSoC5/Impresora.c ****     }
1250:.\Generated_Source\PSoC5/Impresora.c **** 
1251:.\Generated_Source\PSoC5/Impresora.c **** 
1252:.\Generated_Source\PSoC5/Impresora.c ****     /*******************************************************************************
1253:.\Generated_Source\PSoC5/Impresora.c ****     * Function Name: Impresora_PutCRLF
1254:.\Generated_Source\PSoC5/Impresora.c ****     ********************************************************************************
1255:.\Generated_Source\PSoC5/Impresora.c ****     *
1256:.\Generated_Source\PSoC5/Impresora.c ****     * Summary:
1257:.\Generated_Source\PSoC5/Impresora.c ****     *  Write a character and then carriage return and line feed.
1258:.\Generated_Source\PSoC5/Impresora.c ****     *
1259:.\Generated_Source\PSoC5/Impresora.c ****     * Parameters:
1260:.\Generated_Source\PSoC5/Impresora.c ****     *  txDataByte: uint8 Character to send.
1261:.\Generated_Source\PSoC5/Impresora.c ****     *
1262:.\Generated_Source\PSoC5/Impresora.c ****     * Return:
1263:.\Generated_Source\PSoC5/Impresora.c ****     *  None.
1264:.\Generated_Source\PSoC5/Impresora.c ****     *
1265:.\Generated_Source\PSoC5/Impresora.c ****     * Global Variables:
ARM GAS  C:\Users\IN-002~1\AppData\Local\Temp\ccbDDmmd.s 			page 42


1266:.\Generated_Source\PSoC5/Impresora.c ****     *  Impresora_initVar - checked to identify that the component has been
1267:.\Generated_Source\PSoC5/Impresora.c ****     *     initialized.
1268:.\Generated_Source\PSoC5/Impresora.c ****     *
1269:.\Generated_Source\PSoC5/Impresora.c ****     * Reentrant:
1270:.\Generated_Source\PSoC5/Impresora.c ****     *  No.
1271:.\Generated_Source\PSoC5/Impresora.c ****     *
1272:.\Generated_Source\PSoC5/Impresora.c ****     *******************************************************************************/
1273:.\Generated_Source\PSoC5/Impresora.c ****     void Impresora_PutCRLF(uint8 txDataByte) 
1274:.\Generated_Source\PSoC5/Impresora.c ****     {
 1056              		.loc 1 1274 0
 1057              		.cfi_startproc
 1058              		@ args = 0, pretend = 0, frame = 0
 1059              		@ frame_needed = 0, uses_anonymous_args = 0
 1060              	.LVL87:
 1061 0000 08B5     		push	{r3, lr}
 1062              		.cfi_def_cfa_offset 8
 1063              		.cfi_offset 3, -8
 1064              		.cfi_offset 14, -4
1275:.\Generated_Source\PSoC5/Impresora.c ****         /* If not Initialized then skip this function*/
1276:.\Generated_Source\PSoC5/Impresora.c ****         if(Impresora_initVar != 0u)
 1065              		.loc 1 1276 0
 1066 0002 064B     		ldr	r3, .L106
 1067 0004 1B78     		ldrb	r3, [r3]	@ zero_extendqisi2
 1068 0006 3BB1     		cbz	r3, .L103
1277:.\Generated_Source\PSoC5/Impresora.c ****         {
1278:.\Generated_Source\PSoC5/Impresora.c ****             Impresora_PutChar(txDataByte);
 1069              		.loc 1 1278 0
 1070 0008 FFF7FEFF 		bl	Impresora_PutChar
 1071              	.LVL88:
1279:.\Generated_Source\PSoC5/Impresora.c ****             Impresora_PutChar(0x0Du);
 1072              		.loc 1 1279 0
 1073 000c 0D20     		movs	r0, #13
 1074 000e FFF7FEFF 		bl	Impresora_PutChar
 1075              	.LVL89:
1280:.\Generated_Source\PSoC5/Impresora.c ****             Impresora_PutChar(0x0Au);
 1076              		.loc 1 1280 0
 1077 0012 0A20     		movs	r0, #10
 1078 0014 FFF7FEFF 		bl	Impresora_PutChar
 1079              	.LVL90:
 1080              	.L103:
 1081 0018 08BD     		pop	{r3, pc}
 1082              	.L107:
 1083 001a 00BF     		.align	2
 1084              	.L106:
 1085 001c 00000000 		.word	.LANCHOR0
 1086              		.cfi_endproc
 1087              	.LFE24:
 1088              		.size	Impresora_PutCRLF, .-Impresora_PutCRLF
 1089              		.section	.text.Impresora_GetTxBufferSize,"ax",%progbits
 1090              		.align	2
 1091              		.global	Impresora_GetTxBufferSize
 1092              		.thumb
 1093              		.thumb_func
 1094              		.type	Impresora_GetTxBufferSize, %function
 1095              	Impresora_GetTxBufferSize:
 1096              	.LFB25:
1281:.\Generated_Source\PSoC5/Impresora.c ****         }
ARM GAS  C:\Users\IN-002~1\AppData\Local\Temp\ccbDDmmd.s 			page 43


1282:.\Generated_Source\PSoC5/Impresora.c ****     }
1283:.\Generated_Source\PSoC5/Impresora.c **** 
1284:.\Generated_Source\PSoC5/Impresora.c **** 
1285:.\Generated_Source\PSoC5/Impresora.c ****     /*******************************************************************************
1286:.\Generated_Source\PSoC5/Impresora.c ****     * Function Name: Impresora_GetTxBufferSize
1287:.\Generated_Source\PSoC5/Impresora.c ****     ********************************************************************************
1288:.\Generated_Source\PSoC5/Impresora.c ****     *
1289:.\Generated_Source\PSoC5/Impresora.c ****     * Summary:
1290:.\Generated_Source\PSoC5/Impresora.c ****     *  Determine the amount of space left in the TX buffer and return the count in
1291:.\Generated_Source\PSoC5/Impresora.c ****     *  bytes
1292:.\Generated_Source\PSoC5/Impresora.c ****     *
1293:.\Generated_Source\PSoC5/Impresora.c ****     * Parameters:
1294:.\Generated_Source\PSoC5/Impresora.c ****     *  None.
1295:.\Generated_Source\PSoC5/Impresora.c ****     *
1296:.\Generated_Source\PSoC5/Impresora.c ****     * Return:
1297:.\Generated_Source\PSoC5/Impresora.c ****     *  Integer count of the number of bytes left in the TX buffer
1298:.\Generated_Source\PSoC5/Impresora.c ****     *
1299:.\Generated_Source\PSoC5/Impresora.c ****     * Global Variables:
1300:.\Generated_Source\PSoC5/Impresora.c ****     *  Impresora_txBufferWrite - used to calculate left space.
1301:.\Generated_Source\PSoC5/Impresora.c ****     *  Impresora_txBufferRead - used to calculate left space.
1302:.\Generated_Source\PSoC5/Impresora.c ****     *
1303:.\Generated_Source\PSoC5/Impresora.c ****     * Reentrant:
1304:.\Generated_Source\PSoC5/Impresora.c ****     *  No.
1305:.\Generated_Source\PSoC5/Impresora.c ****     *
1306:.\Generated_Source\PSoC5/Impresora.c ****     * Theory:
1307:.\Generated_Source\PSoC5/Impresora.c ****     *  Allows the user to find out how full the TX Buffer is.
1308:.\Generated_Source\PSoC5/Impresora.c ****     *
1309:.\Generated_Source\PSoC5/Impresora.c ****     *******************************************************************************/
1310:.\Generated_Source\PSoC5/Impresora.c ****     uint8 Impresora_GetTxBufferSize(void)
1311:.\Generated_Source\PSoC5/Impresora.c ****                                                             
1312:.\Generated_Source\PSoC5/Impresora.c ****     {
 1097              		.loc 1 1312 0
 1098              		.cfi_startproc
 1099              		@ args = 0, pretend = 0, frame = 0
 1100              		@ frame_needed = 0, uses_anonymous_args = 0
 1101              		@ link register save eliminated.
1313:.\Generated_Source\PSoC5/Impresora.c ****         uint8 size;
1314:.\Generated_Source\PSoC5/Impresora.c **** 
1315:.\Generated_Source\PSoC5/Impresora.c ****         #if(Impresora_TXBUFFERSIZE > Impresora_FIFO_LENGTH)
1316:.\Generated_Source\PSoC5/Impresora.c **** 
1317:.\Generated_Source\PSoC5/Impresora.c ****             /* Disable Tx interrupt. */
1318:.\Generated_Source\PSoC5/Impresora.c ****             /* Protect variables that could change on interrupt. */
1319:.\Generated_Source\PSoC5/Impresora.c ****             #if(Impresora_TX_INTERRUPT_ENABLED)
1320:.\Generated_Source\PSoC5/Impresora.c ****                 Impresora_DisableTxInt();
1321:.\Generated_Source\PSoC5/Impresora.c ****             #endif /* End Impresora_TX_INTERRUPT_ENABLED */
1322:.\Generated_Source\PSoC5/Impresora.c **** 
1323:.\Generated_Source\PSoC5/Impresora.c ****             if(Impresora_txBufferRead == Impresora_txBufferWrite)
1324:.\Generated_Source\PSoC5/Impresora.c ****             {
1325:.\Generated_Source\PSoC5/Impresora.c ****                 size = 0u;
1326:.\Generated_Source\PSoC5/Impresora.c ****             }
1327:.\Generated_Source\PSoC5/Impresora.c ****             else if(Impresora_txBufferRead < Impresora_txBufferWrite)
1328:.\Generated_Source\PSoC5/Impresora.c ****             {
1329:.\Generated_Source\PSoC5/Impresora.c ****                 size = (Impresora_txBufferWrite - Impresora_txBufferRead);
1330:.\Generated_Source\PSoC5/Impresora.c ****             }
1331:.\Generated_Source\PSoC5/Impresora.c ****             else
1332:.\Generated_Source\PSoC5/Impresora.c ****             {
1333:.\Generated_Source\PSoC5/Impresora.c ****                 size = (Impresora_TXBUFFERSIZE - Impresora_txBufferRead) + Impresora_txBufferWrite;
ARM GAS  C:\Users\IN-002~1\AppData\Local\Temp\ccbDDmmd.s 			page 44


1334:.\Generated_Source\PSoC5/Impresora.c ****             }
1335:.\Generated_Source\PSoC5/Impresora.c **** 
1336:.\Generated_Source\PSoC5/Impresora.c ****             /* Enable Tx interrupt. */
1337:.\Generated_Source\PSoC5/Impresora.c ****             #if(Impresora_TX_INTERRUPT_ENABLED)
1338:.\Generated_Source\PSoC5/Impresora.c ****                 Impresora_EnableTxInt();
1339:.\Generated_Source\PSoC5/Impresora.c ****             #endif /* End Impresora_TX_INTERRUPT_ENABLED */
1340:.\Generated_Source\PSoC5/Impresora.c **** 
1341:.\Generated_Source\PSoC5/Impresora.c ****         #else /* Impresora_TXBUFFERSIZE > Impresora_FIFO_LENGTH */
1342:.\Generated_Source\PSoC5/Impresora.c **** 
1343:.\Generated_Source\PSoC5/Impresora.c ****             size = Impresora_TXSTATUS_REG;
 1102              		.loc 1 1343 0
 1103 0000 074B     		ldr	r3, .L112
 1104 0002 1B78     		ldrb	r3, [r3]	@ zero_extendqisi2
 1105 0004 DBB2     		uxtb	r3, r3
 1106              	.LVL91:
1344:.\Generated_Source\PSoC5/Impresora.c **** 
1345:.\Generated_Source\PSoC5/Impresora.c ****             /* Is the fifo is full. */
1346:.\Generated_Source\PSoC5/Impresora.c ****             if((size & Impresora_TX_STS_FIFO_FULL) != 0u)
 1107              		.loc 1 1346 0
 1108 0006 13F0040F 		tst	r3, #4
 1109 000a 04D1     		bne	.L110
1347:.\Generated_Source\PSoC5/Impresora.c ****             {
1348:.\Generated_Source\PSoC5/Impresora.c ****                 size = Impresora_FIFO_LENGTH;
1349:.\Generated_Source\PSoC5/Impresora.c ****             }
1350:.\Generated_Source\PSoC5/Impresora.c ****             else if((size & Impresora_TX_STS_FIFO_EMPTY) != 0u)
 1110              		.loc 1 1350 0
 1111 000c 13F0020F 		tst	r3, #2
 1112 0010 03D0     		beq	.L111
1351:.\Generated_Source\PSoC5/Impresora.c ****             {
1352:.\Generated_Source\PSoC5/Impresora.c ****                 size = 0u;
 1113              		.loc 1 1352 0
 1114 0012 0020     		movs	r0, #0
 1115 0014 7047     		bx	lr
 1116              	.L110:
1348:.\Generated_Source\PSoC5/Impresora.c ****             }
 1117              		.loc 1 1348 0
 1118 0016 0420     		movs	r0, #4
 1119 0018 7047     		bx	lr
 1120              	.L111:
1353:.\Generated_Source\PSoC5/Impresora.c ****             }
1354:.\Generated_Source\PSoC5/Impresora.c ****             else
1355:.\Generated_Source\PSoC5/Impresora.c ****             {
1356:.\Generated_Source\PSoC5/Impresora.c ****                 /* We only know there is data in the fifo. */
1357:.\Generated_Source\PSoC5/Impresora.c ****                 size = 1u;
 1121              		.loc 1 1357 0
 1122 001a 0120     		movs	r0, #1
 1123              	.LVL92:
1358:.\Generated_Source\PSoC5/Impresora.c ****             }
1359:.\Generated_Source\PSoC5/Impresora.c **** 
1360:.\Generated_Source\PSoC5/Impresora.c ****         #endif /* End Impresora_TXBUFFERSIZE > Impresora_FIFO_LENGTH */
1361:.\Generated_Source\PSoC5/Impresora.c **** 
1362:.\Generated_Source\PSoC5/Impresora.c ****         return(size);
1363:.\Generated_Source\PSoC5/Impresora.c ****     }
 1124              		.loc 1 1363 0
 1125 001c 7047     		bx	lr
 1126              	.L113:
 1127 001e 00BF     		.align	2
ARM GAS  C:\Users\IN-002~1\AppData\Local\Temp\ccbDDmmd.s 			page 45


 1128              	.L112:
 1129 0020 67640040 		.word	1073767527
 1130              		.cfi_endproc
 1131              	.LFE25:
 1132              		.size	Impresora_GetTxBufferSize, .-Impresora_GetTxBufferSize
 1133              		.section	.text.Impresora_ClearTxBuffer,"ax",%progbits
 1134              		.align	2
 1135              		.global	Impresora_ClearTxBuffer
 1136              		.thumb
 1137              		.thumb_func
 1138              		.type	Impresora_ClearTxBuffer, %function
 1139              	Impresora_ClearTxBuffer:
 1140              	.LFB26:
1364:.\Generated_Source\PSoC5/Impresora.c **** 
1365:.\Generated_Source\PSoC5/Impresora.c **** 
1366:.\Generated_Source\PSoC5/Impresora.c ****     /*******************************************************************************
1367:.\Generated_Source\PSoC5/Impresora.c ****     * Function Name: Impresora_ClearTxBuffer
1368:.\Generated_Source\PSoC5/Impresora.c ****     ********************************************************************************
1369:.\Generated_Source\PSoC5/Impresora.c ****     *
1370:.\Generated_Source\PSoC5/Impresora.c ****     * Summary:
1371:.\Generated_Source\PSoC5/Impresora.c ****     *  Clears the TX RAM buffer by setting the read and write pointers both to zero.
1372:.\Generated_Source\PSoC5/Impresora.c ****     *  Clears the hardware TX FIFO.  Any data present in the FIFO will not be sent.
1373:.\Generated_Source\PSoC5/Impresora.c ****     *
1374:.\Generated_Source\PSoC5/Impresora.c ****     * Parameters:
1375:.\Generated_Source\PSoC5/Impresora.c ****     *  None.
1376:.\Generated_Source\PSoC5/Impresora.c ****     *
1377:.\Generated_Source\PSoC5/Impresora.c ****     * Return:
1378:.\Generated_Source\PSoC5/Impresora.c ****     *  None.
1379:.\Generated_Source\PSoC5/Impresora.c ****     *
1380:.\Generated_Source\PSoC5/Impresora.c ****     * Global Variables:
1381:.\Generated_Source\PSoC5/Impresora.c ****     *  Impresora_txBufferWrite - cleared to zero.
1382:.\Generated_Source\PSoC5/Impresora.c ****     *  Impresora_txBufferRead - cleared to zero.
1383:.\Generated_Source\PSoC5/Impresora.c ****     *
1384:.\Generated_Source\PSoC5/Impresora.c ****     * Reentrant:
1385:.\Generated_Source\PSoC5/Impresora.c ****     *  No.
1386:.\Generated_Source\PSoC5/Impresora.c ****     *
1387:.\Generated_Source\PSoC5/Impresora.c ****     * Theory:
1388:.\Generated_Source\PSoC5/Impresora.c ****     *  Setting the pointers to zero makes the system believe there is no data to
1389:.\Generated_Source\PSoC5/Impresora.c ****     *  read and writing will resume at address 0 overwriting any data that may have
1390:.\Generated_Source\PSoC5/Impresora.c ****     *  remained in the RAM.
1391:.\Generated_Source\PSoC5/Impresora.c ****     *
1392:.\Generated_Source\PSoC5/Impresora.c ****     * Side Effects:
1393:.\Generated_Source\PSoC5/Impresora.c ****     *  Any received data not read from the RAM buffer will be lost when overwritten.
1394:.\Generated_Source\PSoC5/Impresora.c ****     *
1395:.\Generated_Source\PSoC5/Impresora.c ****     *******************************************************************************/
1396:.\Generated_Source\PSoC5/Impresora.c ****     void Impresora_ClearTxBuffer(void) 
1397:.\Generated_Source\PSoC5/Impresora.c ****     {
 1141              		.loc 1 1397 0
 1142              		.cfi_startproc
 1143              		@ args = 0, pretend = 0, frame = 0
 1144              		@ frame_needed = 0, uses_anonymous_args = 0
 1145 0000 08B5     		push	{r3, lr}
 1146              		.cfi_def_cfa_offset 8
 1147              		.cfi_offset 3, -8
 1148              		.cfi_offset 14, -4
1398:.\Generated_Source\PSoC5/Impresora.c ****         uint8 enableInterrupts;
1399:.\Generated_Source\PSoC5/Impresora.c **** 
ARM GAS  C:\Users\IN-002~1\AppData\Local\Temp\ccbDDmmd.s 			page 46


1400:.\Generated_Source\PSoC5/Impresora.c ****         /* Enter critical section */
1401:.\Generated_Source\PSoC5/Impresora.c ****         enableInterrupts = CyEnterCriticalSection();
 1149              		.loc 1 1401 0
 1150 0002 FFF7FEFF 		bl	CyEnterCriticalSection
 1151              	.LVL93:
1402:.\Generated_Source\PSoC5/Impresora.c ****         /* clear the HW FIFO */
1403:.\Generated_Source\PSoC5/Impresora.c ****         Impresora_TXDATA_AUX_CTL_REG |=  Impresora_TX_FIFO_CLR;
 1152              		.loc 1 1403 0
 1153 0006 064B     		ldr	r3, .L116
 1154 0008 1A78     		ldrb	r2, [r3]	@ zero_extendqisi2
 1155 000a 42F00102 		orr	r2, r2, #1
 1156 000e 1A70     		strb	r2, [r3]
1404:.\Generated_Source\PSoC5/Impresora.c ****         Impresora_TXDATA_AUX_CTL_REG &= (uint8)~Impresora_TX_FIFO_CLR;
 1157              		.loc 1 1404 0
 1158 0010 1A78     		ldrb	r2, [r3]	@ zero_extendqisi2
 1159 0012 02F0FE02 		and	r2, r2, #254
 1160 0016 1A70     		strb	r2, [r3]
1405:.\Generated_Source\PSoC5/Impresora.c ****         /* Exit critical section */
1406:.\Generated_Source\PSoC5/Impresora.c ****         CyExitCriticalSection(enableInterrupts);
 1161              		.loc 1 1406 0
 1162 0018 FFF7FEFF 		bl	CyExitCriticalSection
 1163              	.LVL94:
 1164 001c 08BD     		pop	{r3, pc}
 1165              	.L117:
 1166 001e 00BF     		.align	2
 1167              	.L116:
 1168 0020 99640040 		.word	1073767577
 1169              		.cfi_endproc
 1170              	.LFE26:
 1171              		.size	Impresora_ClearTxBuffer, .-Impresora_ClearTxBuffer
 1172              		.section	.text.Impresora_SendBreak,"ax",%progbits
 1173              		.align	2
 1174              		.global	Impresora_SendBreak
 1175              		.thumb
 1176              		.thumb_func
 1177              		.type	Impresora_SendBreak, %function
 1178              	Impresora_SendBreak:
 1179              	.LFB27:
1407:.\Generated_Source\PSoC5/Impresora.c **** 
1408:.\Generated_Source\PSoC5/Impresora.c ****         #if(Impresora_TXBUFFERSIZE > Impresora_FIFO_LENGTH)
1409:.\Generated_Source\PSoC5/Impresora.c **** 
1410:.\Generated_Source\PSoC5/Impresora.c ****             /* Disable Tx interrupt. */
1411:.\Generated_Source\PSoC5/Impresora.c ****             /* Protect variables that could change on interrupt. */
1412:.\Generated_Source\PSoC5/Impresora.c ****             #if(Impresora_TX_INTERRUPT_ENABLED)
1413:.\Generated_Source\PSoC5/Impresora.c ****                 Impresora_DisableTxInt();
1414:.\Generated_Source\PSoC5/Impresora.c ****             #endif /* End Impresora_TX_INTERRUPT_ENABLED */
1415:.\Generated_Source\PSoC5/Impresora.c **** 
1416:.\Generated_Source\PSoC5/Impresora.c ****             Impresora_txBufferRead = 0u;
1417:.\Generated_Source\PSoC5/Impresora.c ****             Impresora_txBufferWrite = 0u;
1418:.\Generated_Source\PSoC5/Impresora.c **** 
1419:.\Generated_Source\PSoC5/Impresora.c ****             /* Enable Tx interrupt. */
1420:.\Generated_Source\PSoC5/Impresora.c ****             #if(Impresora_TX_INTERRUPT_ENABLED)
1421:.\Generated_Source\PSoC5/Impresora.c ****                 Impresora_EnableTxInt();
1422:.\Generated_Source\PSoC5/Impresora.c ****             #endif /* End Impresora_TX_INTERRUPT_ENABLED */
1423:.\Generated_Source\PSoC5/Impresora.c **** 
1424:.\Generated_Source\PSoC5/Impresora.c ****         #endif /* End Impresora_TXBUFFERSIZE > Impresora_FIFO_LENGTH */
1425:.\Generated_Source\PSoC5/Impresora.c ****     }
ARM GAS  C:\Users\IN-002~1\AppData\Local\Temp\ccbDDmmd.s 			page 47


1426:.\Generated_Source\PSoC5/Impresora.c **** 
1427:.\Generated_Source\PSoC5/Impresora.c **** 
1428:.\Generated_Source\PSoC5/Impresora.c ****     /*******************************************************************************
1429:.\Generated_Source\PSoC5/Impresora.c ****     * Function Name: Impresora_SendBreak
1430:.\Generated_Source\PSoC5/Impresora.c ****     ********************************************************************************
1431:.\Generated_Source\PSoC5/Impresora.c ****     *
1432:.\Generated_Source\PSoC5/Impresora.c ****     * Summary:
1433:.\Generated_Source\PSoC5/Impresora.c ****     *  Write a Break command to the UART
1434:.\Generated_Source\PSoC5/Impresora.c ****     *
1435:.\Generated_Source\PSoC5/Impresora.c ****     * Parameters:
1436:.\Generated_Source\PSoC5/Impresora.c ****     *  uint8 retMode:  Wait mode,
1437:.\Generated_Source\PSoC5/Impresora.c ****     *   0 - Initialize registers for Break, sends the Break signal and return
1438:.\Generated_Source\PSoC5/Impresora.c ****     *       imediately.
1439:.\Generated_Source\PSoC5/Impresora.c ****     *   1 - Wait until Break sending is complete, reinitialize registers to normal
1440:.\Generated_Source\PSoC5/Impresora.c ****     *       transmission mode then return.
1441:.\Generated_Source\PSoC5/Impresora.c ****     *   2 - Reinitialize registers to normal transmission mode then return.
1442:.\Generated_Source\PSoC5/Impresora.c ****     *   3 - both steps: 0 and 1
1443:.\Generated_Source\PSoC5/Impresora.c ****     *       init registers for Break, send Break signal
1444:.\Generated_Source\PSoC5/Impresora.c ****     *       wait until Break sending is complete, reinit registers to normal
1445:.\Generated_Source\PSoC5/Impresora.c ****     *       transmission mode then return.
1446:.\Generated_Source\PSoC5/Impresora.c ****     *
1447:.\Generated_Source\PSoC5/Impresora.c ****     * Return:
1448:.\Generated_Source\PSoC5/Impresora.c ****     *  None.
1449:.\Generated_Source\PSoC5/Impresora.c ****     *
1450:.\Generated_Source\PSoC5/Impresora.c ****     * Global Variables:
1451:.\Generated_Source\PSoC5/Impresora.c ****     *  Impresora_initVar - checked to identify that the component has been
1452:.\Generated_Source\PSoC5/Impresora.c ****     *     initialized.
1453:.\Generated_Source\PSoC5/Impresora.c ****     *  tx_period - static variable, used for keeping TX period configuration.
1454:.\Generated_Source\PSoC5/Impresora.c ****     *
1455:.\Generated_Source\PSoC5/Impresora.c ****     * Reentrant:
1456:.\Generated_Source\PSoC5/Impresora.c ****     *  No.
1457:.\Generated_Source\PSoC5/Impresora.c ****     *
1458:.\Generated_Source\PSoC5/Impresora.c ****     * Theory:
1459:.\Generated_Source\PSoC5/Impresora.c ****     *  SendBreak function initializes registers to send 13-bit break signal. It is
1460:.\Generated_Source\PSoC5/Impresora.c ****     *  important to return the registers configuration to normal for continue 8-bit
1461:.\Generated_Source\PSoC5/Impresora.c ****     *  operation.
1462:.\Generated_Source\PSoC5/Impresora.c ****     *  Trere are 3 variants for this API usage:
1463:.\Generated_Source\PSoC5/Impresora.c ****     *  1) SendBreak(3) - function will send the Break signal and take care on the
1464:.\Generated_Source\PSoC5/Impresora.c ****     *     configuration returning. Funcition will block CPU untill transmition
1465:.\Generated_Source\PSoC5/Impresora.c ****     *     complete.
1466:.\Generated_Source\PSoC5/Impresora.c ****     *  2) User may want to use bloking time if UART configured to the low speed
1467:.\Generated_Source\PSoC5/Impresora.c ****     *     operation
1468:.\Generated_Source\PSoC5/Impresora.c ****     *     Emample for this case:
1469:.\Generated_Source\PSoC5/Impresora.c ****     *     SendBreak(0);     - init Break signal transmition
1470:.\Generated_Source\PSoC5/Impresora.c ****     *         Add your code here to use CPU time
1471:.\Generated_Source\PSoC5/Impresora.c ****     *     SendBreak(1);     - complete Break operation
1472:.\Generated_Source\PSoC5/Impresora.c ****     *  3) Same to 2) but user may want to init and use the interrupt for complete
1473:.\Generated_Source\PSoC5/Impresora.c ****     *     break operation.
1474:.\Generated_Source\PSoC5/Impresora.c ****     *     Example for this case:
1475:.\Generated_Source\PSoC5/Impresora.c ****     *     Init TX interrupt whith "TX - On TX Complete" parameter
1476:.\Generated_Source\PSoC5/Impresora.c ****     *     SendBreak(0);     - init Break signal transmition
1477:.\Generated_Source\PSoC5/Impresora.c ****     *         Add your code here to use CPU time
1478:.\Generated_Source\PSoC5/Impresora.c ****     *     When interrupt appear with UART_TX_STS_COMPLETE status:
1479:.\Generated_Source\PSoC5/Impresora.c ****     *     SendBreak(2);     - complete Break operation
1480:.\Generated_Source\PSoC5/Impresora.c ****     *
1481:.\Generated_Source\PSoC5/Impresora.c ****     * Side Effects:
1482:.\Generated_Source\PSoC5/Impresora.c ****     *   Uses static variable to keep registers configuration.
ARM GAS  C:\Users\IN-002~1\AppData\Local\Temp\ccbDDmmd.s 			page 48


1483:.\Generated_Source\PSoC5/Impresora.c ****     *
1484:.\Generated_Source\PSoC5/Impresora.c ****     *******************************************************************************/
1485:.\Generated_Source\PSoC5/Impresora.c ****     void Impresora_SendBreak(uint8 retMode) 
1486:.\Generated_Source\PSoC5/Impresora.c ****     {
 1180              		.loc 1 1486 0
 1181              		.cfi_startproc
 1182              		@ args = 0, pretend = 0, frame = 0
 1183              		@ frame_needed = 0, uses_anonymous_args = 0
 1184              		@ link register save eliminated.
 1185              	.LVL95:
1487:.\Generated_Source\PSoC5/Impresora.c **** 
1488:.\Generated_Source\PSoC5/Impresora.c ****         /* If not Initialized then skip this function*/
1489:.\Generated_Source\PSoC5/Impresora.c ****         if(Impresora_initVar != 0u)
 1186              		.loc 1 1489 0
 1187 0000 124B     		ldr	r3, .L125
 1188 0002 1B78     		ldrb	r3, [r3]	@ zero_extendqisi2
 1189 0004 0BB3     		cbz	r3, .L118
 1190              	.LBB2:
1490:.\Generated_Source\PSoC5/Impresora.c ****         {
1491:.\Generated_Source\PSoC5/Impresora.c ****             /*Set the Counter to 13-bits and transmit a 00 byte*/
1492:.\Generated_Source\PSoC5/Impresora.c ****             /*When that is done then reset the counter value back*/
1493:.\Generated_Source\PSoC5/Impresora.c ****             uint8 tmpStat;
1494:.\Generated_Source\PSoC5/Impresora.c **** 
1495:.\Generated_Source\PSoC5/Impresora.c ****             #if(Impresora_HD_ENABLED) /* Half Duplex mode*/
1496:.\Generated_Source\PSoC5/Impresora.c **** 
1497:.\Generated_Source\PSoC5/Impresora.c ****                 if( (retMode == Impresora_SEND_BREAK) ||
1498:.\Generated_Source\PSoC5/Impresora.c ****                     (retMode == Impresora_SEND_WAIT_REINIT ) )
1499:.\Generated_Source\PSoC5/Impresora.c ****                 {
1500:.\Generated_Source\PSoC5/Impresora.c ****                     /* CTRL_HD_SEND_BREAK - sends break bits in HD mode*/
1501:.\Generated_Source\PSoC5/Impresora.c ****                     Impresora_WriteControlRegister(Impresora_ReadControlRegister() |
1502:.\Generated_Source\PSoC5/Impresora.c ****                                                           Impresora_CTRL_HD_SEND_BREAK);
1503:.\Generated_Source\PSoC5/Impresora.c ****                     /* Send zeros*/
1504:.\Generated_Source\PSoC5/Impresora.c ****                     Impresora_TXDATA_REG = 0u;
1505:.\Generated_Source\PSoC5/Impresora.c **** 
1506:.\Generated_Source\PSoC5/Impresora.c ****                     do /*wait until transmit starts*/
1507:.\Generated_Source\PSoC5/Impresora.c ****                     {
1508:.\Generated_Source\PSoC5/Impresora.c ****                         tmpStat = Impresora_TXSTATUS_REG;
1509:.\Generated_Source\PSoC5/Impresora.c ****                     }while((tmpStat & Impresora_TX_STS_FIFO_EMPTY) != 0u);
1510:.\Generated_Source\PSoC5/Impresora.c ****                 }
1511:.\Generated_Source\PSoC5/Impresora.c **** 
1512:.\Generated_Source\PSoC5/Impresora.c ****                 if( (retMode == Impresora_WAIT_FOR_COMPLETE_REINIT) ||
1513:.\Generated_Source\PSoC5/Impresora.c ****                     (retMode == Impresora_SEND_WAIT_REINIT) )
1514:.\Generated_Source\PSoC5/Impresora.c ****                 {
1515:.\Generated_Source\PSoC5/Impresora.c ****                     do /*wait until transmit complete*/
1516:.\Generated_Source\PSoC5/Impresora.c ****                     {
1517:.\Generated_Source\PSoC5/Impresora.c ****                         tmpStat = Impresora_TXSTATUS_REG;
1518:.\Generated_Source\PSoC5/Impresora.c ****                     }while(((uint8)~tmpStat & Impresora_TX_STS_COMPLETE) != 0u);
1519:.\Generated_Source\PSoC5/Impresora.c ****                 }
1520:.\Generated_Source\PSoC5/Impresora.c **** 
1521:.\Generated_Source\PSoC5/Impresora.c ****                 if( (retMode == Impresora_WAIT_FOR_COMPLETE_REINIT) ||
1522:.\Generated_Source\PSoC5/Impresora.c ****                     (retMode == Impresora_REINIT) ||
1523:.\Generated_Source\PSoC5/Impresora.c ****                     (retMode == Impresora_SEND_WAIT_REINIT) )
1524:.\Generated_Source\PSoC5/Impresora.c ****                 {
1525:.\Generated_Source\PSoC5/Impresora.c ****                     Impresora_WriteControlRegister(Impresora_ReadControlRegister() &
1526:.\Generated_Source\PSoC5/Impresora.c ****                                                   (uint8)~Impresora_CTRL_HD_SEND_BREAK);
1527:.\Generated_Source\PSoC5/Impresora.c ****                 }
1528:.\Generated_Source\PSoC5/Impresora.c **** 
ARM GAS  C:\Users\IN-002~1\AppData\Local\Temp\ccbDDmmd.s 			page 49


1529:.\Generated_Source\PSoC5/Impresora.c ****             #else /* Impresora_HD_ENABLED Full Duplex mode */
1530:.\Generated_Source\PSoC5/Impresora.c **** 
1531:.\Generated_Source\PSoC5/Impresora.c ****                 static uint8 tx_period;
1532:.\Generated_Source\PSoC5/Impresora.c **** 
1533:.\Generated_Source\PSoC5/Impresora.c ****                 if( (retMode == Impresora_SEND_BREAK) ||
 1191              		.loc 1 1533 0
 1192 0006 08B1     		cbz	r0, .L120
 1193              		.loc 1 1533 0 is_stmt 0 discriminator 1
 1194 0008 0328     		cmp	r0, #3
 1195 000a 0DD1     		bne	.L121
 1196              	.L120:
1534:.\Generated_Source\PSoC5/Impresora.c ****                     (retMode == Impresora_SEND_WAIT_REINIT) )
1535:.\Generated_Source\PSoC5/Impresora.c ****                 {
1536:.\Generated_Source\PSoC5/Impresora.c ****                     /* CTRL_HD_SEND_BREAK - skip to send parity bit at Break signal in Full Duplex 
1537:.\Generated_Source\PSoC5/Impresora.c ****                     #if( (Impresora_PARITY_TYPE != Impresora__B_UART__NONE_REVB) || \
1538:.\Generated_Source\PSoC5/Impresora.c ****                                         (Impresora_PARITY_TYPE_SW != 0u) )
1539:.\Generated_Source\PSoC5/Impresora.c ****                         Impresora_WriteControlRegister(Impresora_ReadControlRegister() |
1540:.\Generated_Source\PSoC5/Impresora.c ****                                                               Impresora_CTRL_HD_SEND_BREAK);
1541:.\Generated_Source\PSoC5/Impresora.c ****                     #endif /* End Impresora_PARITY_TYPE != Impresora__B_UART__NONE_REVB  */
1542:.\Generated_Source\PSoC5/Impresora.c **** 
1543:.\Generated_Source\PSoC5/Impresora.c ****                     #if(Impresora_TXCLKGEN_DP)
1544:.\Generated_Source\PSoC5/Impresora.c ****                         tx_period = Impresora_TXBITCLKTX_COMPLETE_REG;
 1197              		.loc 1 1544 0 is_stmt 1
 1198 000c 104B     		ldr	r3, .L125+4
 1199 000e 1978     		ldrb	r1, [r3]	@ zero_extendqisi2
 1200 0010 0E4A     		ldr	r2, .L125
 1201 0012 5171     		strb	r1, [r2, #5]
1545:.\Generated_Source\PSoC5/Impresora.c ****                         Impresora_TXBITCLKTX_COMPLETE_REG = Impresora_TXBITCTR_BREAKBITS;
 1202              		.loc 1 1545 0
 1203 0014 6722     		movs	r2, #103
 1204 0016 1A70     		strb	r2, [r3]
1546:.\Generated_Source\PSoC5/Impresora.c ****                     #else
1547:.\Generated_Source\PSoC5/Impresora.c ****                         tx_period = Impresora_TXBITCTR_PERIOD_REG;
1548:.\Generated_Source\PSoC5/Impresora.c ****                         Impresora_TXBITCTR_PERIOD_REG = Impresora_TXBITCTR_BREAKBITS8X;
1549:.\Generated_Source\PSoC5/Impresora.c ****                     #endif /* End Impresora_TXCLKGEN_DP */
1550:.\Generated_Source\PSoC5/Impresora.c **** 
1551:.\Generated_Source\PSoC5/Impresora.c ****                     /* Send zeros*/
1552:.\Generated_Source\PSoC5/Impresora.c ****                     Impresora_TXDATA_REG = 0u;
 1205              		.loc 1 1552 0
 1206 0018 0022     		movs	r2, #0
 1207 001a 0F33     		adds	r3, r3, #15
 1208 001c 1A70     		strb	r2, [r3]
 1209              	.L122:
1553:.\Generated_Source\PSoC5/Impresora.c **** 
1554:.\Generated_Source\PSoC5/Impresora.c ****                     do /* wait until transmit starts */
1555:.\Generated_Source\PSoC5/Impresora.c ****                     {
1556:.\Generated_Source\PSoC5/Impresora.c ****                         tmpStat = Impresora_TXSTATUS_REG;
 1210              		.loc 1 1556 0 discriminator 1
 1211 001e 0D4B     		ldr	r3, .L125+8
 1212 0020 1B78     		ldrb	r3, [r3]	@ zero_extendqisi2
 1213              	.LVL96:
1557:.\Generated_Source\PSoC5/Impresora.c ****                     }while((tmpStat & Impresora_TX_STS_FIFO_EMPTY) != 0u);
 1214              		.loc 1 1557 0 discriminator 1
 1215 0022 13F0020F 		tst	r3, #2
 1216 0026 FAD1     		bne	.L122
 1217              	.LVL97:
 1218              	.L121:
ARM GAS  C:\Users\IN-002~1\AppData\Local\Temp\ccbDDmmd.s 			page 50


1558:.\Generated_Source\PSoC5/Impresora.c ****                 }
1559:.\Generated_Source\PSoC5/Impresora.c **** 
1560:.\Generated_Source\PSoC5/Impresora.c ****                 if( (retMode == Impresora_WAIT_FOR_COMPLETE_REINIT) ||
 1219              		.loc 1 1560 0
 1220 0028 0128     		cmp	r0, #1
 1221 002a 01D0     		beq	.L123
 1222              		.loc 1 1560 0 is_stmt 0 discriminator 1
 1223 002c 0328     		cmp	r0, #3
 1224 002e 04D1     		bne	.L124
 1225              	.L123:
1561:.\Generated_Source\PSoC5/Impresora.c ****                     (retMode == Impresora_SEND_WAIT_REINIT) )
1562:.\Generated_Source\PSoC5/Impresora.c ****                 {
1563:.\Generated_Source\PSoC5/Impresora.c ****                     do /*wait until transmit complete*/
1564:.\Generated_Source\PSoC5/Impresora.c ****                     {
1565:.\Generated_Source\PSoC5/Impresora.c ****                         tmpStat = Impresora_TXSTATUS_REG;
 1226              		.loc 1 1565 0 is_stmt 1 discriminator 1
 1227 0030 084B     		ldr	r3, .L125+8
 1228 0032 1B78     		ldrb	r3, [r3]	@ zero_extendqisi2
 1229              	.LVL98:
1566:.\Generated_Source\PSoC5/Impresora.c ****                     }while(((uint8)~tmpStat & Impresora_TX_STS_COMPLETE) != 0u);
 1230              		.loc 1 1566 0 discriminator 1
 1231 0034 13F0010F 		tst	r3, #1
 1232 0038 FAD0     		beq	.L123
 1233              	.LVL99:
 1234              	.L124:
1567:.\Generated_Source\PSoC5/Impresora.c ****                 }
1568:.\Generated_Source\PSoC5/Impresora.c **** 
1569:.\Generated_Source\PSoC5/Impresora.c ****                 if( (retMode == Impresora_WAIT_FOR_COMPLETE_REINIT) ||
1570:.\Generated_Source\PSoC5/Impresora.c ****                     (retMode == Impresora_REINIT) ||
 1235              		.loc 1 1570 0
 1236 003a 0138     		subs	r0, r0, #1
 1237              	.LVL100:
 1238 003c C0B2     		uxtb	r0, r0
1569:.\Generated_Source\PSoC5/Impresora.c ****                     (retMode == Impresora_REINIT) ||
 1239              		.loc 1 1569 0
 1240 003e 0228     		cmp	r0, #2
 1241 0040 03D8     		bhi	.L118
1571:.\Generated_Source\PSoC5/Impresora.c ****                     (retMode == Impresora_SEND_WAIT_REINIT) )
1572:.\Generated_Source\PSoC5/Impresora.c ****                 {
1573:.\Generated_Source\PSoC5/Impresora.c **** 
1574:.\Generated_Source\PSoC5/Impresora.c ****                     #if(Impresora_TXCLKGEN_DP)
1575:.\Generated_Source\PSoC5/Impresora.c ****                         Impresora_TXBITCLKTX_COMPLETE_REG = tx_period;
 1242              		.loc 1 1575 0
 1243 0042 024B     		ldr	r3, .L125
 1244 0044 5A79     		ldrb	r2, [r3, #5]	@ zero_extendqisi2
 1245 0046 024B     		ldr	r3, .L125+4
 1246 0048 1A70     		strb	r2, [r3]
 1247              	.L118:
 1248 004a 7047     		bx	lr
 1249              	.L126:
 1250              		.align	2
 1251              	.L125:
 1252 004c 00000000 		.word	.LANCHOR0
 1253 0050 3A640040 		.word	1073767482
 1254 0054 67640040 		.word	1073767527
 1255              	.LBE2:
 1256              		.cfi_endproc
ARM GAS  C:\Users\IN-002~1\AppData\Local\Temp\ccbDDmmd.s 			page 51


 1257              	.LFE27:
 1258              		.size	Impresora_SendBreak, .-Impresora_SendBreak
 1259              		.section	.text.Impresora_SetTxAddressMode,"ax",%progbits
 1260              		.align	2
 1261              		.global	Impresora_SetTxAddressMode
 1262              		.thumb
 1263              		.thumb_func
 1264              		.type	Impresora_SetTxAddressMode, %function
 1265              	Impresora_SetTxAddressMode:
 1266              	.LFB28:
1576:.\Generated_Source\PSoC5/Impresora.c ****                     #else
1577:.\Generated_Source\PSoC5/Impresora.c ****                         Impresora_TXBITCTR_PERIOD_REG = tx_period;
1578:.\Generated_Source\PSoC5/Impresora.c ****                     #endif /* End Impresora_TXCLKGEN_DP */
1579:.\Generated_Source\PSoC5/Impresora.c **** 
1580:.\Generated_Source\PSoC5/Impresora.c ****                     #if( (Impresora_PARITY_TYPE != Impresora__B_UART__NONE_REVB) || \
1581:.\Generated_Source\PSoC5/Impresora.c ****                          (Impresora_PARITY_TYPE_SW != 0u) )
1582:.\Generated_Source\PSoC5/Impresora.c ****                         Impresora_WriteControlRegister(Impresora_ReadControlRegister() &
1583:.\Generated_Source\PSoC5/Impresora.c ****                                                       (uint8)~Impresora_CTRL_HD_SEND_BREAK);
1584:.\Generated_Source\PSoC5/Impresora.c ****                     #endif /* End Impresora_PARITY_TYPE != NONE */
1585:.\Generated_Source\PSoC5/Impresora.c ****                 }
1586:.\Generated_Source\PSoC5/Impresora.c ****             #endif    /* End Impresora_HD_ENABLED */
1587:.\Generated_Source\PSoC5/Impresora.c ****         }
1588:.\Generated_Source\PSoC5/Impresora.c ****     }
1589:.\Generated_Source\PSoC5/Impresora.c **** 
1590:.\Generated_Source\PSoC5/Impresora.c **** 
1591:.\Generated_Source\PSoC5/Impresora.c ****     /*******************************************************************************
1592:.\Generated_Source\PSoC5/Impresora.c ****     * Function Name: Impresora_SetTxAddressMode
1593:.\Generated_Source\PSoC5/Impresora.c ****     ********************************************************************************
1594:.\Generated_Source\PSoC5/Impresora.c ****     *
1595:.\Generated_Source\PSoC5/Impresora.c ****     * Summary:
1596:.\Generated_Source\PSoC5/Impresora.c ****     *  Set the transmit addressing mode
1597:.\Generated_Source\PSoC5/Impresora.c ****     *
1598:.\Generated_Source\PSoC5/Impresora.c ****     * Parameters:
1599:.\Generated_Source\PSoC5/Impresora.c ****     *  addressMode: 0 -> Space
1600:.\Generated_Source\PSoC5/Impresora.c ****     *               1 -> Mark
1601:.\Generated_Source\PSoC5/Impresora.c ****     *
1602:.\Generated_Source\PSoC5/Impresora.c ****     * Return:
1603:.\Generated_Source\PSoC5/Impresora.c ****     *  None.
1604:.\Generated_Source\PSoC5/Impresora.c ****     *
1605:.\Generated_Source\PSoC5/Impresora.c ****     *******************************************************************************/
1606:.\Generated_Source\PSoC5/Impresora.c ****     void Impresora_SetTxAddressMode(uint8 addressMode) 
1607:.\Generated_Source\PSoC5/Impresora.c ****     {
 1267              		.loc 1 1607 0
 1268              		.cfi_startproc
 1269              		@ args = 0, pretend = 0, frame = 0
 1270              		@ frame_needed = 0, uses_anonymous_args = 0
 1271              		@ link register save eliminated.
 1272              	.LVL101:
 1273 0000 7047     		bx	lr
 1274              		.cfi_endproc
 1275              	.LFE28:
 1276              		.size	Impresora_SetTxAddressMode, .-Impresora_SetTxAddressMode
 1277              		.global	Impresora_rxBufferOverflow
 1278              		.global	Impresora_rxBufferLoopDetect
 1279              		.global	Impresora_rxBufferWrite
 1280              		.global	Impresora_rxBufferRead
 1281              		.comm	Impresora_rxBuffer,100,4
ARM GAS  C:\Users\IN-002~1\AppData\Local\Temp\ccbDDmmd.s 			page 52


 1282              		.global	Impresora_initVar
 1283 0002 00BF     		.bss
 1284              		.set	.LANCHOR0,. + 0
 1285              		.type	Impresora_initVar, %object
 1286              		.size	Impresora_initVar, 1
 1287              	Impresora_initVar:
 1288 0000 00       		.space	1
 1289              		.type	Impresora_rxBufferRead, %object
 1290              		.size	Impresora_rxBufferRead, 1
 1291              	Impresora_rxBufferRead:
 1292 0001 00       		.space	1
 1293              		.type	Impresora_rxBufferWrite, %object
 1294              		.size	Impresora_rxBufferWrite, 1
 1295              	Impresora_rxBufferWrite:
 1296 0002 00       		.space	1
 1297              		.type	Impresora_rxBufferLoopDetect, %object
 1298              		.size	Impresora_rxBufferLoopDetect, 1
 1299              	Impresora_rxBufferLoopDetect:
 1300 0003 00       		.space	1
 1301              		.type	Impresora_rxBufferOverflow, %object
 1302              		.size	Impresora_rxBufferOverflow, 1
 1303              	Impresora_rxBufferOverflow:
 1304 0004 00       		.space	1
 1305              		.type	tx_period.5016, %object
 1306              		.size	tx_period.5016, 1
 1307              	tx_period.5016:
 1308 0005 00       		.space	1
 1309              		.text
 1310              	.Letext0:
 1311              		.file 2 ".\\Generated_Source\\PSoC5\\cytypes.h"
 1312              		.file 3 ".\\Generated_Source\\PSoC5\\CyLib.h"
 1313              		.file 4 ".\\Generated_Source\\PSoC5\\Impresora_IntClock.h"