ARM GAS  C:\Users\RECEPC~1\AppData\Local\Temp\ccohni6j.s 			page 1


   1              		.syntax unified
   2              		.cpu cortex-m3
   3              		.fpu softvfp
   4              		.eabi_attribute 20, 1
   5              		.eabi_attribute 21, 1
   6              		.eabi_attribute 23, 3
   7              		.eabi_attribute 24, 1
   8              		.eabi_attribute 25, 1
   9              		.eabi_attribute 26, 1
  10              		.eabi_attribute 30, 1
  11              		.eabi_attribute 34, 1
  12              		.eabi_attribute 18, 4
  13              		.thumb
  14              		.file	"LCD.c"
  15              		.text
  16              	.Ltext0:
  17              		.cfi_sections	.debug_frame
  18              		.section	.text.set_imagen,"ax",%progbits
  19              		.align	2
  20              		.global	set_imagen
  21              		.thumb
  22              		.thumb_func
  23              		.type	set_imagen, %function
  24              	set_imagen:
  25              	.LFB63:
  26              		.file 1 ".\\LCD.c"
   1:.\LCD.c       **** /*
   2:.\LCD.c       **** ***************************************************************************************************
   3:.\LCD.c       **** *                                           GRP550M CODE
   4:.\LCD.c       **** *
   5:.\LCD.c       **** *                             (c) Copyright 2013; Sistemas Insepet LTDA
   6:.\LCD.c       **** *
   7:.\LCD.c       **** *               All rights reserved.  Protected by international copyright laws.
   8:.\LCD.c       **** *               Knowledge of the source code may NOT be used to develop a similar product.
   9:.\LCD.c       **** *               Please help us continue to provide the Embedded community with the finest
  10:.\LCD.c       **** *               software available.  Your honesty is greatly appreciated.
  11:.\LCD.c       **** ***************************************************************************************************
  12:.\LCD.c       **** */
  13:.\LCD.c       **** 
  14:.\LCD.c       **** /*
  15:.\LCD.c       **** ***************************************************************************************************
  16:.\LCD.c       **** *
  17:.\LCD.c       **** *                                               GRP550M CODE
  18:.\LCD.c       **** *
  19:.\LCD.c       **** *                                             CYPRESS PSoC5LP
  20:.\LCD.c       **** *                                                with the
  21:.\LCD.c       **** *                                            CY8C5969AXI-LP035
  22:.\LCD.c       **** *
  23:.\LCD.c       **** * Filename      : LCD.c
  24:.\LCD.c       **** * Version       : V1.00
  25:.\LCD.c       **** * Programmer(s) : 
  26:.\LCD.c       ****                   
  27:.\LCD.c       **** ***************************************************************************************************
  28:.\LCD.c       **** */
  29:.\LCD.c       **** 
  30:.\LCD.c       **** /*
  31:.\LCD.c       **** ***************************************************************************************************
ARM GAS  C:\Users\RECEPC~1\AppData\Local\Temp\ccohni6j.s 			page 2


  32:.\LCD.c       **** *                                             INCLUDE FILES
  33:.\LCD.c       **** ***************************************************************************************************
  34:.\LCD.c       **** */
  35:.\LCD.c       **** 
  36:.\LCD.c       **** //#include <device.h>
  37:.\LCD.c       **** #include "VariablesG.h"
  38:.\LCD.c       **** #include "I2C.h"
  39:.\LCD.c       **** 
  40:.\LCD.c       **** /*
  41:.\LCD.c       **** ***************************************************************************************************
  42:.\LCD.c       **** *                                        void set_imagen(uint8 lcd, uint16 id)
  43:.\LCD.c       **** *
  44:.\LCD.c       **** * Description : 
  45:.\LCD.c       **** *               
  46:.\LCD.c       **** *
  47:.\LCD.c       **** * Argument(s) : none
  48:.\LCD.c       **** *
  49:.\LCD.c       **** * Return(s)   : none
  50:.\LCD.c       **** *
  51:.\LCD.c       **** * Caller(s)   : 
  52:.\LCD.c       **** *
  53:.\LCD.c       **** * Note(s)     : none.
  54:.\LCD.c       **** ***************************************************************************************************
  55:.\LCD.c       **** */
  56:.\LCD.c       **** void set_imagen(uint8 lcd, uint16 id){
  27              		.loc 1 56 0
  28              		.cfi_startproc
  29              		@ args = 0, pretend = 0, frame = 0
  30              		@ frame_needed = 0, uses_anonymous_args = 0
  31              	.LVL0:
  32 0000 38B5     		push	{r3, r4, r5, lr}
  33              		.cfi_def_cfa_offset 16
  34              		.cfi_offset 3, -16
  35              		.cfi_offset 4, -12
  36              		.cfi_offset 5, -8
  37              		.cfi_offset 14, -4
  38 0002 0446     		mov	r4, r0
  39 0004 0D46     		mov	r5, r1
  57:.\LCD.c       ****     if(lcd == 1){
  40              		.loc 1 57 0
  41 0006 0128     		cmp	r0, #1
  42 0008 17D1     		bne	.L2
  58:.\LCD.c       ****         LCD_1_PutChar(0xAA);
  43              		.loc 1 58 0
  44 000a AA20     		movs	r0, #170
  45              	.LVL1:
  46 000c FFF7FEFF 		bl	LCD_1_PutChar
  47              	.LVL2:
  59:.\LCD.c       ****         LCD_1_PutChar(0x70);
  48              		.loc 1 59 0
  49 0010 7020     		movs	r0, #112
  50 0012 FFF7FEFF 		bl	LCD_1_PutChar
  51              	.LVL3:
  60:.\LCD.c       ****         LCD_1_PutChar(((id>>8)&0xFF));
  52              		.loc 1 60 0
  53 0016 280A     		lsrs	r0, r5, #8
  54 0018 FFF7FEFF 		bl	LCD_1_PutChar
ARM GAS  C:\Users\RECEPC~1\AppData\Local\Temp\ccohni6j.s 			page 3


  55              	.LVL4:
  61:.\LCD.c       ****         LCD_1_PutChar((id&0xFF));
  56              		.loc 1 61 0
  57 001c E8B2     		uxtb	r0, r5
  58 001e FFF7FEFF 		bl	LCD_1_PutChar
  59              	.LVL5:
  62:.\LCD.c       ****         LCD_1_PutChar(0xCC);
  60              		.loc 1 62 0
  61 0022 CC20     		movs	r0, #204
  62 0024 FFF7FEFF 		bl	LCD_1_PutChar
  63              	.LVL6:
  63:.\LCD.c       ****         LCD_1_PutChar(0x33);
  64              		.loc 1 63 0
  65 0028 3320     		movs	r0, #51
  66 002a FFF7FEFF 		bl	LCD_1_PutChar
  67              	.LVL7:
  64:.\LCD.c       ****         LCD_1_PutChar(0xC3);
  68              		.loc 1 64 0
  69 002e C320     		movs	r0, #195
  70 0030 FFF7FEFF 		bl	LCD_1_PutChar
  71              	.LVL8:
  65:.\LCD.c       ****         LCD_1_PutChar(0x3C);
  72              		.loc 1 65 0
  73 0034 3C20     		movs	r0, #60
  74 0036 FFF7FEFF 		bl	LCD_1_PutChar
  75              	.LVL9:
  76              	.L2:
  66:.\LCD.c       ****     }
  67:.\LCD.c       ****     if(lcd == 2){
  77              		.loc 1 67 0
  78 003a 022C     		cmp	r4, #2
  79 003c 17D1     		bne	.L1
  68:.\LCD.c       ****        	LCD_2_PutChar(0xAA);
  80              		.loc 1 68 0
  81 003e AA20     		movs	r0, #170
  82 0040 FFF7FEFF 		bl	LCD_2_PutChar
  83              	.LVL10:
  69:.\LCD.c       ****         LCD_2_PutChar(0x70);
  84              		.loc 1 69 0
  85 0044 7020     		movs	r0, #112
  86 0046 FFF7FEFF 		bl	LCD_2_PutChar
  87              	.LVL11:
  70:.\LCD.c       ****         LCD_2_PutChar(((id>>8)&0xFF));
  88              		.loc 1 70 0
  89 004a 280A     		lsrs	r0, r5, #8
  90 004c FFF7FEFF 		bl	LCD_2_PutChar
  91              	.LVL12:
  71:.\LCD.c       ****         LCD_2_PutChar((id&0xFF));
  92              		.loc 1 71 0
  93 0050 E8B2     		uxtb	r0, r5
  94 0052 FFF7FEFF 		bl	LCD_2_PutChar
  95              	.LVL13:
  72:.\LCD.c       ****         LCD_2_PutChar(0xCC);
  96              		.loc 1 72 0
  97 0056 CC20     		movs	r0, #204
  98 0058 FFF7FEFF 		bl	LCD_2_PutChar
  99              	.LVL14:
ARM GAS  C:\Users\RECEPC~1\AppData\Local\Temp\ccohni6j.s 			page 4


  73:.\LCD.c       ****         LCD_2_PutChar(0x33);
 100              		.loc 1 73 0
 101 005c 3320     		movs	r0, #51
 102 005e FFF7FEFF 		bl	LCD_2_PutChar
 103              	.LVL15:
  74:.\LCD.c       ****         LCD_2_PutChar(0xC3);
 104              		.loc 1 74 0
 105 0062 C320     		movs	r0, #195
 106 0064 FFF7FEFF 		bl	LCD_2_PutChar
 107              	.LVL16:
  75:.\LCD.c       ****         LCD_2_PutChar(0x3C);   		 
 108              		.loc 1 75 0
 109 0068 3C20     		movs	r0, #60
 110 006a FFF7FEFF 		bl	LCD_2_PutChar
 111              	.LVL17:
 112              	.L1:
 113 006e 38BD     		pop	{r3, r4, r5, pc}
 114              		.cfi_endproc
 115              	.LFE63:
 116              		.size	set_imagen, .-set_imagen
 117              		.section	.text.write_LCD,"ax",%progbits
 118              		.align	2
 119              		.global	write_LCD
 120              		.thumb
 121              		.thumb_func
 122              		.type	write_LCD, %function
 123              	write_LCD:
 124              	.LFB64:
  76:.\LCD.c       ****     }
  77:.\LCD.c       **** }
  78:.\LCD.c       **** 
  79:.\LCD.c       **** /*
  80:.\LCD.c       **** ***************************************************************************************************
  81:.\LCD.c       **** *                                 void write_LCD(uint8 lcd, uint8 dato, uint8 pos)
  82:.\LCD.c       **** *
  83:.\LCD.c       **** * Description : 
  84:.\LCD.c       **** *               
  85:.\LCD.c       **** *
  86:.\LCD.c       **** * Argument(s) : none
  87:.\LCD.c       **** *
  88:.\LCD.c       **** * Return(s)   : none
  89:.\LCD.c       **** *
  90:.\LCD.c       **** * Caller(s)   : 
  91:.\LCD.c       **** *
  92:.\LCD.c       **** * Note(s)     : none.
  93:.\LCD.c       **** ***************************************************************************************************
  94:.\LCD.c       **** */
  95:.\LCD.c       **** void write_LCD(uint8 lcd, uint8 dato, uint8 pos){
 125              		.loc 1 95 0
 126              		.cfi_startproc
 127              		@ args = 0, pretend = 0, frame = 0
 128              		@ frame_needed = 0, uses_anonymous_args = 0
 129              	.LVL18:
 130 0000 38B5     		push	{r3, r4, r5, lr}
 131              		.cfi_def_cfa_offset 16
 132              		.cfi_offset 3, -16
 133              		.cfi_offset 4, -12
ARM GAS  C:\Users\RECEPC~1\AppData\Local\Temp\ccohni6j.s 			page 5


 134              		.cfi_offset 5, -8
 135              		.cfi_offset 14, -4
 136 0002 0D46     		mov	r5, r1
 137 0004 1446     		mov	r4, r2
  96:.\LCD.c       ****     if(lcd==1){
 138              		.loc 1 96 0
 139 0006 0128     		cmp	r0, #1
 140 0008 3CD1     		bne	.L6
  97:.\LCD.c       ****         LCD_1_PutChar(0xAA);
 141              		.loc 1 97 0
 142 000a AA20     		movs	r0, #170
 143              	.LVL19:
 144 000c FFF7FEFF 		bl	LCD_1_PutChar
 145              	.LVL20:
  98:.\LCD.c       ****         LCD_1_PutChar(0x98);
 146              		.loc 1 98 0
 147 0010 9820     		movs	r0, #152
 148 0012 FFF7FEFF 		bl	LCD_1_PutChar
 149              	.LVL21:
  99:.\LCD.c       ****         LCD_1_PutChar(0x00);
 150              		.loc 1 99 0
 151 0016 0020     		movs	r0, #0
 152 0018 FFF7FEFF 		bl	LCD_1_PutChar
 153              	.LVL22:
 100:.\LCD.c       ****         LCD_1_PutChar((0x3F)+(0x19*pos));
 154              		.loc 1 100 0
 155 001c 04EB8404 		add	r4, r4, r4, lsl #2
 156 0020 04EB8404 		add	r4, r4, r4, lsl #2
 157 0024 04F13F00 		add	r0, r4, #63
 158 0028 C0B2     		uxtb	r0, r0
 159 002a FFF7FEFF 		bl	LCD_1_PutChar
 160              	.LVL23:
 101:.\LCD.c       ****         LCD_1_PutChar(0x00);
 161              		.loc 1 101 0
 162 002e 0020     		movs	r0, #0
 163 0030 FFF7FEFF 		bl	LCD_1_PutChar
 164              	.LVL24:
 102:.\LCD.c       ****         LCD_1_PutChar(0x23);
 165              		.loc 1 102 0
 166 0034 2320     		movs	r0, #35
 167 0036 FFF7FEFF 		bl	LCD_1_PutChar
 168              	.LVL25:
 103:.\LCD.c       ****         LCD_1_PutChar(0x24);
 169              		.loc 1 103 0
 170 003a 2420     		movs	r0, #36
 171 003c FFF7FEFF 		bl	LCD_1_PutChar
 172              	.LVL26:
 104:.\LCD.c       ****         LCD_1_PutChar(0xC5);
 173              		.loc 1 104 0
 174 0040 C520     		movs	r0, #197
 175 0042 FFF7FEFF 		bl	LCD_1_PutChar
 176              	.LVL27:
 105:.\LCD.c       ****         LCD_1_PutChar(0x02);
 177              		.loc 1 105 0
 178 0046 0220     		movs	r0, #2
 179 0048 FFF7FEFF 		bl	LCD_1_PutChar
 180              	.LVL28:
ARM GAS  C:\Users\RECEPC~1\AppData\Local\Temp\ccohni6j.s 			page 6


 106:.\LCD.c       ****         LCD_1_PutChar(0x00);
 181              		.loc 1 106 0
 182 004c 0020     		movs	r0, #0
 183 004e FFF7FEFF 		bl	LCD_1_PutChar
 184              	.LVL29:
 107:.\LCD.c       ****         LCD_1_PutChar(0x00);
 185              		.loc 1 107 0
 186 0052 0020     		movs	r0, #0
 187 0054 FFF7FEFF 		bl	LCD_1_PutChar
 188              	.LVL30:
 108:.\LCD.c       ****         LCD_1_PutChar(0xFF);
 189              		.loc 1 108 0
 190 0058 FF20     		movs	r0, #255
 191 005a FFF7FEFF 		bl	LCD_1_PutChar
 192              	.LVL31:
 109:.\LCD.c       ****         LCD_1_PutChar(0xFF);
 193              		.loc 1 109 0
 194 005e FF20     		movs	r0, #255
 195 0060 FFF7FEFF 		bl	LCD_1_PutChar
 196              	.LVL32:
 110:.\LCD.c       ****         LCD_1_PutChar(dato);
 197              		.loc 1 110 0
 198 0064 2846     		mov	r0, r5
 199 0066 FFF7FEFF 		bl	LCD_1_PutChar
 200              	.LVL33:
 111:.\LCD.c       ****         LCD_1_PutChar(0xCC);
 201              		.loc 1 111 0
 202 006a CC20     		movs	r0, #204
 203 006c FFF7FEFF 		bl	LCD_1_PutChar
 204              	.LVL34:
 112:.\LCD.c       ****         LCD_1_PutChar(0x33);
 205              		.loc 1 112 0
 206 0070 3320     		movs	r0, #51
 207 0072 FFF7FEFF 		bl	LCD_1_PutChar
 208              	.LVL35:
 113:.\LCD.c       ****         LCD_1_PutChar(0xC3);
 209              		.loc 1 113 0
 210 0076 C320     		movs	r0, #195
 211 0078 FFF7FEFF 		bl	LCD_1_PutChar
 212              	.LVL36:
 114:.\LCD.c       ****         LCD_1_PutChar(0x3C);
 213              		.loc 1 114 0
 214 007c 3C20     		movs	r0, #60
 215 007e FFF7FEFF 		bl	LCD_1_PutChar
 216              	.LVL37:
 217 0082 38BD     		pop	{r3, r4, r5, pc}
 218              	.LVL38:
 219              	.L6:
 115:.\LCD.c       ****     }
 116:.\LCD.c       ****     else{
 117:.\LCD.c       ****         LCD_2_PutChar(0xAA);
 220              		.loc 1 117 0
 221 0084 AA20     		movs	r0, #170
 222              	.LVL39:
 223 0086 FFF7FEFF 		bl	LCD_2_PutChar
 224              	.LVL40:
 118:.\LCD.c       ****         LCD_2_PutChar(0x98);
ARM GAS  C:\Users\RECEPC~1\AppData\Local\Temp\ccohni6j.s 			page 7


 225              		.loc 1 118 0
 226 008a 9820     		movs	r0, #152
 227 008c FFF7FEFF 		bl	LCD_2_PutChar
 228              	.LVL41:
 119:.\LCD.c       ****         LCD_2_PutChar(0x00);
 229              		.loc 1 119 0
 230 0090 0020     		movs	r0, #0
 231 0092 FFF7FEFF 		bl	LCD_2_PutChar
 232              	.LVL42:
 120:.\LCD.c       ****         LCD_2_PutChar((0x3F)+(0x19*pos));
 233              		.loc 1 120 0
 234 0096 04EB8404 		add	r4, r4, r4, lsl #2
 235 009a 04EB8404 		add	r4, r4, r4, lsl #2
 236 009e 04F13F00 		add	r0, r4, #63
 237 00a2 C0B2     		uxtb	r0, r0
 238 00a4 FFF7FEFF 		bl	LCD_2_PutChar
 239              	.LVL43:
 121:.\LCD.c       ****         LCD_2_PutChar(0x00);
 240              		.loc 1 121 0
 241 00a8 0020     		movs	r0, #0
 242 00aa FFF7FEFF 		bl	LCD_2_PutChar
 243              	.LVL44:
 122:.\LCD.c       ****         LCD_2_PutChar(0x23);
 244              		.loc 1 122 0
 245 00ae 2320     		movs	r0, #35
 246 00b0 FFF7FEFF 		bl	LCD_2_PutChar
 247              	.LVL45:
 123:.\LCD.c       ****         LCD_2_PutChar(0x24);
 248              		.loc 1 123 0
 249 00b4 2420     		movs	r0, #36
 250 00b6 FFF7FEFF 		bl	LCD_2_PutChar
 251              	.LVL46:
 124:.\LCD.c       ****         LCD_2_PutChar(0xC5);
 252              		.loc 1 124 0
 253 00ba C520     		movs	r0, #197
 254 00bc FFF7FEFF 		bl	LCD_2_PutChar
 255              	.LVL47:
 125:.\LCD.c       ****         LCD_2_PutChar(0x02);
 256              		.loc 1 125 0
 257 00c0 0220     		movs	r0, #2
 258 00c2 FFF7FEFF 		bl	LCD_2_PutChar
 259              	.LVL48:
 126:.\LCD.c       ****         LCD_2_PutChar(0x00);
 260              		.loc 1 126 0
 261 00c6 0020     		movs	r0, #0
 262 00c8 FFF7FEFF 		bl	LCD_2_PutChar
 263              	.LVL49:
 127:.\LCD.c       ****         LCD_2_PutChar(0x00);
 264              		.loc 1 127 0
 265 00cc 0020     		movs	r0, #0
 266 00ce FFF7FEFF 		bl	LCD_2_PutChar
 267              	.LVL50:
 128:.\LCD.c       ****         LCD_2_PutChar(0xFF);
 268              		.loc 1 128 0
 269 00d2 FF20     		movs	r0, #255
 270 00d4 FFF7FEFF 		bl	LCD_2_PutChar
 271              	.LVL51:
ARM GAS  C:\Users\RECEPC~1\AppData\Local\Temp\ccohni6j.s 			page 8


 129:.\LCD.c       ****         LCD_2_PutChar(0xFF);
 272              		.loc 1 129 0
 273 00d8 FF20     		movs	r0, #255
 274 00da FFF7FEFF 		bl	LCD_2_PutChar
 275              	.LVL52:
 130:.\LCD.c       ****         LCD_2_PutChar(dato);
 276              		.loc 1 130 0
 277 00de 2846     		mov	r0, r5
 278 00e0 FFF7FEFF 		bl	LCD_2_PutChar
 279              	.LVL53:
 131:.\LCD.c       ****         LCD_2_PutChar(0xCC);
 280              		.loc 1 131 0
 281 00e4 CC20     		movs	r0, #204
 282 00e6 FFF7FEFF 		bl	LCD_2_PutChar
 283              	.LVL54:
 132:.\LCD.c       ****         LCD_2_PutChar(0x33);
 284              		.loc 1 132 0
 285 00ea 3320     		movs	r0, #51
 286 00ec FFF7FEFF 		bl	LCD_2_PutChar
 287              	.LVL55:
 133:.\LCD.c       ****         LCD_2_PutChar(0xC3);
 288              		.loc 1 133 0
 289 00f0 C320     		movs	r0, #195
 290 00f2 FFF7FEFF 		bl	LCD_2_PutChar
 291              	.LVL56:
 134:.\LCD.c       ****         LCD_2_PutChar(0x3C);    
 292              		.loc 1 134 0
 293 00f6 3C20     		movs	r0, #60
 294 00f8 FFF7FEFF 		bl	LCD_2_PutChar
 295              	.LVL57:
 296 00fc 38BD     		pop	{r3, r4, r5, pc}
 297              		.cfi_endproc
 298              	.LFE64:
 299              		.size	write_LCD, .-write_LCD
 300 00fe 00BF     		.section	.text.Hora_LCD,"ax",%progbits
 301              		.align	2
 302              		.global	Hora_LCD
 303              		.thumb
 304              		.thumb_func
 305              		.type	Hora_LCD, %function
 306              	Hora_LCD:
 307              	.LFB65:
 135:.\LCD.c       ****     }
 136:.\LCD.c       **** }
 137:.\LCD.c       **** 
 138:.\LCD.c       **** /*
 139:.\LCD.c       **** ***************************************************************************************************
 140:.\LCD.c       **** *                                 			void Hora_LCD(uint8 lcd)
 141:.\LCD.c       **** *
 142:.\LCD.c       **** * Description : 
 143:.\LCD.c       **** *               
 144:.\LCD.c       **** *
 145:.\LCD.c       **** * Argument(s) : none
 146:.\LCD.c       **** *
 147:.\LCD.c       **** * Return(s)   : none
 148:.\LCD.c       **** *
 149:.\LCD.c       **** * Caller(s)   : 
ARM GAS  C:\Users\RECEPC~1\AppData\Local\Temp\ccohni6j.s 			page 9


 150:.\LCD.c       **** *
 151:.\LCD.c       **** * Note(s)     : none.
 152:.\LCD.c       **** ***************************************************************************************************
 153:.\LCD.c       **** */
 154:.\LCD.c       **** void Hora_LCD(uint8 lcd){
 308              		.loc 1 154 0
 309              		.cfi_startproc
 310              		@ args = 0, pretend = 0, frame = 24
 311              		@ frame_needed = 0, uses_anonymous_args = 0
 312              	.LVL58:
 313 0000 70B5     		push	{r4, r5, r6, lr}
 314              		.cfi_def_cfa_offset 16
 315              		.cfi_offset 4, -16
 316              		.cfi_offset 5, -12
 317              		.cfi_offset 6, -8
 318              		.cfi_offset 14, -4
 319 0002 86B0     		sub	sp, sp, #24
 320              		.cfi_def_cfa_offset 40
 321 0004 0646     		mov	r6, r0
 155:.\LCD.c       **** 	uint8 hora[24]={0xAA,0x98,0x00,0xd0,0x00,0xbb,0x24,0xC5,0x02,0x00,0x00,0xFF,0xFF,0X30,0x30,':',0x3
 322              		.loc 1 155 0
 323 0006 2A4D     		ldr	r5, .L19
 324 0008 6C46     		mov	r4, sp
 325 000a 2868     		ldr	r0, [r5]	@ unaligned
 326              	.LVL59:
 327 000c 6968     		ldr	r1, [r5, #4]	@ unaligned
 328 000e AA68     		ldr	r2, [r5, #8]	@ unaligned
 329 0010 EB68     		ldr	r3, [r5, #12]	@ unaligned
 330 0012 0FC4     		stmia	r4!, {r0, r1, r2, r3}
 331 0014 2869     		ldr	r0, [r5, #16]	@ unaligned
 332 0016 6969     		ldr	r1, [r5, #20]	@ unaligned
 333 0018 03C4     		stmia	r4!, {r0, r1}
 156:.\LCD.c       **** 	hora[13]=(((rventa.hora[1]&0x10)>>4)+48);
 334              		.loc 1 156 0
 335 001a 2649     		ldr	r1, .L19+4
 336 001c 91F8A120 		ldrb	r2, [r1, #161]	@ zero_extendqisi2
 337 0020 C2F30013 		ubfx	r3, r2, #4, #1
 338 0024 3033     		adds	r3, r3, #48
 339 0026 8DF80D30 		strb	r3, [sp, #13]
 157:.\LCD.c       **** 	hora[14]=((rventa.hora[1]&0x0F)+48);
 340              		.loc 1 157 0
 341 002a 02F00F03 		and	r3, r2, #15
 342 002e 3033     		adds	r3, r3, #48
 343 0030 8DF80E30 		strb	r3, [sp, #14]
 158:.\LCD.c       **** 	hora[16]=(((rventa.hora[0]&0xF0)>>4)+48);
 344              		.loc 1 158 0
 345 0034 91F8A030 		ldrb	r3, [r1, #160]	@ zero_extendqisi2
 346 0038 1909     		lsrs	r1, r3, #4
 347 003a 3031     		adds	r1, r1, #48
 348 003c 8DF81010 		strb	r1, [sp, #16]
 159:.\LCD.c       **** 	hora[17]=((rventa.hora[0]&0x0F)+48);
 349              		.loc 1 159 0
 350 0040 03F00F03 		and	r3, r3, #15
 351 0044 3033     		adds	r3, r3, #48
 352 0046 8DF81130 		strb	r3, [sp, #17]
 160:.\LCD.c       **** 	if((rventa.hora[1]&0x20)==0x20){
 353              		.loc 1 160 0
ARM GAS  C:\Users\RECEPC~1\AppData\Local\Temp\ccohni6j.s 			page 10


 354 004a 12F0200F 		tst	r2, #32
 355 004e 03D0     		beq	.L10
 161:.\LCD.c       **** 		hora[18]='p';
 356              		.loc 1 161 0
 357 0050 7023     		movs	r3, #112
 358 0052 8DF81230 		strb	r3, [sp, #18]
 359 0056 02E0     		b	.L11
 360              	.L10:
 162:.\LCD.c       **** 	}
 163:.\LCD.c       **** 	else{
 164:.\LCD.c       **** 		hora[18]='a';						
 361              		.loc 1 164 0
 362 0058 6123     		movs	r3, #97
 363 005a 8DF81230 		strb	r3, [sp, #18]
 364              	.L11:
 165:.\LCD.c       **** 	}	
 166:.\LCD.c       ****     if(lcd==1){
 365              		.loc 1 166 0
 366 005e 012E     		cmp	r6, #1
 367 0060 12D1     		bne	.L12
 167:.\LCD.c       **** 		for(x=0;x<=23;x++){
 368              		.loc 1 167 0
 369 0062 0022     		movs	r2, #0
 370 0064 144B     		ldr	r3, .L19+8
 371 0066 1A60     		str	r2, [r3]
 372 0068 09E0     		b	.L13
 373              	.L14:
 168:.\LCD.c       ****         	LCD_1_PutChar(hora[x]);
 374              		.loc 1 168 0 discriminator 3
 375 006a 06AA     		add	r2, sp, #24
 376 006c 1344     		add	r3, r3, r2
 377 006e 13F8180C 		ldrb	r0, [r3, #-24]	@ zero_extendqisi2
 378 0072 FFF7FEFF 		bl	LCD_1_PutChar
 379              	.LVL60:
 167:.\LCD.c       **** 		for(x=0;x<=23;x++){
 380              		.loc 1 167 0 discriminator 3
 381 0076 104A     		ldr	r2, .L19+8
 382 0078 1368     		ldr	r3, [r2]
 383 007a 0133     		adds	r3, r3, #1
 384 007c 1360     		str	r3, [r2]
 385              	.L13:
 167:.\LCD.c       **** 		for(x=0;x<=23;x++){
 386              		.loc 1 167 0 is_stmt 0 discriminator 1
 387 007e 0E4B     		ldr	r3, .L19+8
 388 0080 1B68     		ldr	r3, [r3]
 389 0082 172B     		cmp	r3, #23
 390 0084 F1D9     		bls	.L14
 391 0086 11E0     		b	.L9
 392              	.L12:
 169:.\LCD.c       **** 		}
 170:.\LCD.c       ****     }
 171:.\LCD.c       ****     else{
 172:.\LCD.c       **** 		for(x=0;x<=23;x++){
 393              		.loc 1 172 0 is_stmt 1
 394 0088 0022     		movs	r2, #0
 395 008a 0B4B     		ldr	r3, .L19+8
 396 008c 1A60     		str	r2, [r3]
ARM GAS  C:\Users\RECEPC~1\AppData\Local\Temp\ccohni6j.s 			page 11


 397 008e 09E0     		b	.L16
 398              	.L17:
 173:.\LCD.c       **** 	        LCD_2_PutChar(hora[x]);
 399              		.loc 1 173 0 discriminator 3
 400 0090 06AA     		add	r2, sp, #24
 401 0092 1344     		add	r3, r3, r2
 402 0094 13F8180C 		ldrb	r0, [r3, #-24]	@ zero_extendqisi2
 403 0098 FFF7FEFF 		bl	LCD_2_PutChar
 404              	.LVL61:
 172:.\LCD.c       **** 	        LCD_2_PutChar(hora[x]);
 405              		.loc 1 172 0 discriminator 3
 406 009c 064A     		ldr	r2, .L19+8
 407 009e 1368     		ldr	r3, [r2]
 408 00a0 0133     		adds	r3, r3, #1
 409 00a2 1360     		str	r3, [r2]
 410              	.L16:
 172:.\LCD.c       **** 	        LCD_2_PutChar(hora[x]);
 411              		.loc 1 172 0 is_stmt 0 discriminator 1
 412 00a4 044B     		ldr	r3, .L19+8
 413 00a6 1B68     		ldr	r3, [r3]
 414 00a8 172B     		cmp	r3, #23
 415 00aa F1D9     		bls	.L17
 416              	.L9:
 174:.\LCD.c       **** 		}
 175:.\LCD.c       ****     }
 176:.\LCD.c       **** }
 417              		.loc 1 176 0 is_stmt 1
 418 00ac 06B0     		add	sp, sp, #24
 419              		.cfi_def_cfa_offset 16
 420              		@ sp needed
 421 00ae 70BD     		pop	{r4, r5, r6, pc}
 422              	.L20:
 423              		.align	2
 424              	.L19:
 425 00b0 00000000 		.word	.LANCHOR0
 426 00b4 00000000 		.word	rventa
 427 00b8 00000000 		.word	x
 428              		.cfi_endproc
 429              	.LFE65:
 430              		.size	Hora_LCD, .-Hora_LCD
 431              		.section	.text.Fecha_LCD,"ax",%progbits
 432              		.align	2
 433              		.global	Fecha_LCD
 434              		.thumb
 435              		.thumb_func
 436              		.type	Fecha_LCD, %function
 437              	Fecha_LCD:
 438              	.LFB66:
 177:.\LCD.c       **** 
 178:.\LCD.c       **** /*
 179:.\LCD.c       **** ***************************************************************************************************
 180:.\LCD.c       **** *                                 			void Fecha_LCD(uint8 lcd)
 181:.\LCD.c       **** *
 182:.\LCD.c       **** * Description : 
 183:.\LCD.c       **** *               
 184:.\LCD.c       **** *
 185:.\LCD.c       **** * Argument(s) : none
ARM GAS  C:\Users\RECEPC~1\AppData\Local\Temp\ccohni6j.s 			page 12


 186:.\LCD.c       **** *
 187:.\LCD.c       **** * Return(s)   : none
 188:.\LCD.c       **** *
 189:.\LCD.c       **** * Caller(s)   : 
 190:.\LCD.c       **** *
 191:.\LCD.c       **** * Note(s)     : none.
 192:.\LCD.c       **** ***************************************************************************************************
 193:.\LCD.c       **** */
 194:.\LCD.c       **** void Fecha_LCD(uint8 lcd){
 439              		.loc 1 194 0
 440              		.cfi_startproc
 441              		@ args = 0, pretend = 0, frame = 32
 442              		@ frame_needed = 0, uses_anonymous_args = 0
 443              	.LVL62:
 444 0000 70B5     		push	{r4, r5, r6, lr}
 445              		.cfi_def_cfa_offset 16
 446              		.cfi_offset 4, -16
 447              		.cfi_offset 5, -12
 448              		.cfi_offset 6, -8
 449              		.cfi_offset 14, -4
 450 0002 88B0     		sub	sp, sp, #32
 451              		.cfi_def_cfa_offset 48
 452 0004 0646     		mov	r6, r0
 195:.\LCD.c       **** 	uint8 fecha[25]={0xAA,0x98,0x00,0xcb,0x01,0x27,0x24,0xC5,0x02,0x00,0x00,0xFF,0xFF,0x30,0x30,0x2f,0
 453              		.loc 1 195 0
 454 0006 01AC     		add	r4, sp, #4
 455 0008 2C4D     		ldr	r5, .L29
 456 000a 55F8180F 		ldr	r0, [r5, #24]!	@ unaligned
 457              	.LVL63:
 458 000e 6968     		ldr	r1, [r5, #4]	@ unaligned
 459 0010 AA68     		ldr	r2, [r5, #8]	@ unaligned
 460 0012 EB68     		ldr	r3, [r5, #12]	@ unaligned
 461 0014 0FC4     		stmia	r4!, {r0, r1, r2, r3}
 462 0016 2869     		ldr	r0, [r5, #16]	@ unaligned
 463 0018 6969     		ldr	r1, [r5, #20]	@ unaligned
 464 001a 03C4     		stmia	r4!, {r0, r1}
 465 001c 2B7E     		ldrb	r3, [r5, #24]	@ zero_extendqisi2
 466 001e 2370     		strb	r3, [r4]
 196:.\LCD.c       **** 	fecha[13]=(((rventa.fecha[0]&0x30)>>4)+48);
 467              		.loc 1 196 0
 468 0020 274A     		ldr	r2, .L29+4
 469 0022 92F89D30 		ldrb	r3, [r2, #157]	@ zero_extendqisi2
 470 0026 C3F30111 		ubfx	r1, r3, #4, #2
 471 002a 3031     		adds	r1, r1, #48
 472 002c 8DF81110 		strb	r1, [sp, #17]
 197:.\LCD.c       **** 	fecha[14]=((rventa.fecha[0]&0x0F)+48);
 473              		.loc 1 197 0
 474 0030 03F00F03 		and	r3, r3, #15
 475 0034 3033     		adds	r3, r3, #48
 476 0036 8DF81230 		strb	r3, [sp, #18]
 198:.\LCD.c       **** 	fecha[16]=(((rventa.fecha[1]&0x10)>>4)+48);
 477              		.loc 1 198 0
 478 003a 92F89E30 		ldrb	r3, [r2, #158]	@ zero_extendqisi2
 479 003e C3F30011 		ubfx	r1, r3, #4, #1
 480 0042 3031     		adds	r1, r1, #48
 481 0044 8DF81410 		strb	r1, [sp, #20]
 199:.\LCD.c       **** 	fecha[17]=((rventa.fecha[1]&0x0F)+48);
ARM GAS  C:\Users\RECEPC~1\AppData\Local\Temp\ccohni6j.s 			page 13


 482              		.loc 1 199 0
 483 0048 03F00F03 		and	r3, r3, #15
 484 004c 3033     		adds	r3, r3, #48
 485 004e 8DF81530 		strb	r3, [sp, #21]
 200:.\LCD.c       **** 	fecha[19]=(((rventa.fecha[2]&0xF0)>>4)+48);
 486              		.loc 1 200 0
 487 0052 92F89F30 		ldrb	r3, [r2, #159]	@ zero_extendqisi2
 488 0056 1A09     		lsrs	r2, r3, #4
 489 0058 3032     		adds	r2, r2, #48
 490 005a 8DF81720 		strb	r2, [sp, #23]
 201:.\LCD.c       **** 	fecha[20]=((rventa.fecha[2]&0x0F)+48);	
 491              		.loc 1 201 0
 492 005e 03F00F03 		and	r3, r3, #15
 493 0062 3033     		adds	r3, r3, #48
 494 0064 8DF81830 		strb	r3, [sp, #24]
 202:.\LCD.c       ****     if(lcd==1){
 495              		.loc 1 202 0
 496 0068 012E     		cmp	r6, #1
 497 006a 12D1     		bne	.L22
 203:.\LCD.c       **** 		for(x=0;x<=24;x++){
 498              		.loc 1 203 0
 499 006c 0022     		movs	r2, #0
 500 006e 154B     		ldr	r3, .L29+8
 501 0070 1A60     		str	r2, [r3]
 502 0072 09E0     		b	.L23
 503              	.L24:
 204:.\LCD.c       ****         	LCD_1_PutChar(fecha[x]);
 504              		.loc 1 204 0 discriminator 3
 505 0074 08AA     		add	r2, sp, #32
 506 0076 1344     		add	r3, r3, r2
 507 0078 13F81C0C 		ldrb	r0, [r3, #-28]	@ zero_extendqisi2
 508 007c FFF7FEFF 		bl	LCD_1_PutChar
 509              	.LVL64:
 203:.\LCD.c       **** 		for(x=0;x<=24;x++){
 510              		.loc 1 203 0 discriminator 3
 511 0080 104A     		ldr	r2, .L29+8
 512 0082 1368     		ldr	r3, [r2]
 513 0084 0133     		adds	r3, r3, #1
 514 0086 1360     		str	r3, [r2]
 515              	.L23:
 203:.\LCD.c       **** 		for(x=0;x<=24;x++){
 516              		.loc 1 203 0 is_stmt 0 discriminator 1
 517 0088 0E4B     		ldr	r3, .L29+8
 518 008a 1B68     		ldr	r3, [r3]
 519 008c 182B     		cmp	r3, #24
 520 008e F1D9     		bls	.L24
 521 0090 11E0     		b	.L21
 522              	.L22:
 205:.\LCD.c       **** 		}
 206:.\LCD.c       ****     }
 207:.\LCD.c       ****     else{
 208:.\LCD.c       **** 		for(x=0;x<=24;x++){
 523              		.loc 1 208 0 is_stmt 1
 524 0092 0022     		movs	r2, #0
 525 0094 0B4B     		ldr	r3, .L29+8
 526 0096 1A60     		str	r2, [r3]
 527 0098 09E0     		b	.L26
ARM GAS  C:\Users\RECEPC~1\AppData\Local\Temp\ccohni6j.s 			page 14


 528              	.L27:
 209:.\LCD.c       **** 	        LCD_2_PutChar(fecha[x]);
 529              		.loc 1 209 0 discriminator 3
 530 009a 08AA     		add	r2, sp, #32
 531 009c 1344     		add	r3, r3, r2
 532 009e 13F81C0C 		ldrb	r0, [r3, #-28]	@ zero_extendqisi2
 533 00a2 FFF7FEFF 		bl	LCD_2_PutChar
 534              	.LVL65:
 208:.\LCD.c       **** 	        LCD_2_PutChar(fecha[x]);
 535              		.loc 1 208 0 discriminator 3
 536 00a6 074A     		ldr	r2, .L29+8
 537 00a8 1368     		ldr	r3, [r2]
 538 00aa 0133     		adds	r3, r3, #1
 539 00ac 1360     		str	r3, [r2]
 540              	.L26:
 208:.\LCD.c       **** 	        LCD_2_PutChar(fecha[x]);
 541              		.loc 1 208 0 is_stmt 0 discriminator 1
 542 00ae 054B     		ldr	r3, .L29+8
 543 00b0 1B68     		ldr	r3, [r3]
 544 00b2 182B     		cmp	r3, #24
 545 00b4 F1D9     		bls	.L27
 546              	.L21:
 210:.\LCD.c       **** 		}
 211:.\LCD.c       ****     }
 212:.\LCD.c       **** }
 547              		.loc 1 212 0 is_stmt 1
 548 00b6 08B0     		add	sp, sp, #32
 549              		.cfi_def_cfa_offset 16
 550              		@ sp needed
 551 00b8 70BD     		pop	{r4, r5, r6, pc}
 552              	.L30:
 553 00ba 00BF     		.align	2
 554              	.L29:
 555 00bc 00000000 		.word	.LANCHOR0
 556 00c0 00000000 		.word	rventa
 557 00c4 00000000 		.word	x
 558              		.cfi_endproc
 559              	.LFE66:
 560              		.size	Fecha_LCD, .-Fecha_LCD
 561              		.section	.text.Nombre_LCD,"ax",%progbits
 562              		.align	2
 563              		.global	Nombre_LCD
 564              		.thumb
 565              		.thumb_func
 566              		.type	Nombre_LCD, %function
 567              	Nombre_LCD:
 568              	.LFB67:
 213:.\LCD.c       **** 
 214:.\LCD.c       **** /*
 215:.\LCD.c       **** ***************************************************************************************************
 216:.\LCD.c       **** *                                 			void Nombre_LCD(uint8 lcd)
 217:.\LCD.c       **** *
 218:.\LCD.c       **** * Description : 
 219:.\LCD.c       **** *               
 220:.\LCD.c       **** *
 221:.\LCD.c       **** * Argument(s) : none
 222:.\LCD.c       **** *
ARM GAS  C:\Users\RECEPC~1\AppData\Local\Temp\ccohni6j.s 			page 15


 223:.\LCD.c       **** * Return(s)   : none
 224:.\LCD.c       **** *
 225:.\LCD.c       **** * Caller(s)   : 
 226:.\LCD.c       **** *
 227:.\LCD.c       **** * Note(s)     : none.
 228:.\LCD.c       **** ***************************************************************************************************
 229:.\LCD.c       **** */
 230:.\LCD.c       **** void Nombre_LCD(uint8 lcd){
 569              		.loc 1 230 0
 570              		.cfi_startproc
 571              		@ args = 0, pretend = 0, frame = 24
 572              		@ frame_needed = 0, uses_anonymous_args = 0
 573              	.LVL66:
 574 0000 70B5     		push	{r4, r5, r6, lr}
 575              		.cfi_def_cfa_offset 16
 576              		.cfi_offset 4, -16
 577              		.cfi_offset 5, -12
 578              		.cfi_offset 6, -8
 579              		.cfi_offset 14, -4
 580 0002 86B0     		sub	sp, sp, #24
 581              		.cfi_def_cfa_offset 40
 582 0004 0646     		mov	r6, r0
 231:.\LCD.c       **** 	uint8 buffer[18]={0xAA,0x98,0x00,0xA5,0x00,0x7E,0x23,0xC5,0x02,0x00,0x00,0xFF,0xFF,0x20,0xCC,0x33,
 583              		.loc 1 231 0
 584 0006 01AC     		add	r4, sp, #4
 585 0008 3A4D     		ldr	r5, .L45
 586 000a 55F8340F 		ldr	r0, [r5, #52]!	@ unaligned
 587              	.LVL67:
 588 000e 6968     		ldr	r1, [r5, #4]	@ unaligned
 589 0010 AA68     		ldr	r2, [r5, #8]	@ unaligned
 590 0012 EB68     		ldr	r3, [r5, #12]	@ unaligned
 591 0014 0FC4     		stmia	r4!, {r0, r1, r2, r3}
 592 0016 2B8A     		ldrh	r3, [r5, #16]	@ unaligned
 593 0018 2380     		strh	r3, [r4]	@ unaligned
 232:.\LCD.c       ****     if(lcd==1){
 594              		.loc 1 232 0
 595 001a 012E     		cmp	r6, #1
 596 001c 35D1     		bne	.L32
 233:.\LCD.c       **** 		for(x=1;(x<=rventa.nombre[0]&&x<=25);x++){
 597              		.loc 1 233 0
 598 001e 0122     		movs	r2, #1
 599 0020 354B     		ldr	r3, .L45+4
 600 0022 1A60     		str	r2, [r3]
 601 0024 28E0     		b	.L33
 602              	.L38:
 234:.\LCD.c       **** 			buffer[13]=rventa.nombre[x];			
 603              		.loc 1 234 0
 604 0026 354A     		ldr	r2, .L45+8
 605 0028 D35C     		ldrb	r3, [r2, r3]	@ zero_extendqisi2
 606 002a 8DF81130 		strb	r3, [sp, #17]
 235:.\LCD.c       **** 			for(y=0;y<=17;y++){
 607              		.loc 1 235 0
 608 002e 0022     		movs	r2, #0
 609 0030 334B     		ldr	r3, .L45+12
 610 0032 1A60     		str	r2, [r3]
 611 0034 09E0     		b	.L34
 612              	.L35:
ARM GAS  C:\Users\RECEPC~1\AppData\Local\Temp\ccohni6j.s 			page 16


 236:.\LCD.c       ****         		LCD_1_PutChar(buffer[y]);
 613              		.loc 1 236 0 discriminator 3
 614 0036 06AA     		add	r2, sp, #24
 615 0038 1344     		add	r3, r3, r2
 616 003a 13F8140C 		ldrb	r0, [r3, #-20]	@ zero_extendqisi2
 617 003e FFF7FEFF 		bl	LCD_1_PutChar
 618              	.LVL68:
 235:.\LCD.c       **** 			for(y=0;y<=17;y++){
 619              		.loc 1 235 0 discriminator 3
 620 0042 2F4A     		ldr	r2, .L45+12
 621 0044 1368     		ldr	r3, [r2]
 622 0046 0133     		adds	r3, r3, #1
 623 0048 1360     		str	r3, [r2]
 624              	.L34:
 235:.\LCD.c       **** 			for(y=0;y<=17;y++){
 625              		.loc 1 235 0 is_stmt 0 discriminator 1
 626 004a 2D4B     		ldr	r3, .L45+12
 627 004c 1B68     		ldr	r3, [r3]
 628 004e 112B     		cmp	r3, #17
 629 0050 F1D9     		bls	.L35
 237:.\LCD.c       **** 			}
 238:.\LCD.c       **** 			if(buffer[3]==0xFF){
 630              		.loc 1 238 0 is_stmt 1
 631 0052 9DF80730 		ldrb	r3, [sp, #7]	@ zero_extendqisi2
 632 0056 FF2B     		cmp	r3, #255
 633 0058 05D1     		bne	.L36
 239:.\LCD.c       **** 				buffer[2]=0x01;
 634              		.loc 1 239 0
 635 005a 0123     		movs	r3, #1
 636 005c 8DF80630 		strb	r3, [sp, #6]
 240:.\LCD.c       **** 				buffer[3]=0x00;
 637              		.loc 1 240 0
 638 0060 0023     		movs	r3, #0
 639 0062 8DF80730 		strb	r3, [sp, #7]
 640              	.L36:
 241:.\LCD.c       **** 			}			
 242:.\LCD.c       **** 			buffer[3]+=15;
 641              		.loc 1 242 0 discriminator 2
 642 0066 9DF80730 		ldrb	r3, [sp, #7]	@ zero_extendqisi2
 643 006a 0F33     		adds	r3, r3, #15
 644 006c 8DF80730 		strb	r3, [sp, #7]
 233:.\LCD.c       **** 			buffer[13]=rventa.nombre[x];			
 645              		.loc 1 233 0 discriminator 2
 646 0070 214A     		ldr	r2, .L45+4
 647 0072 1368     		ldr	r3, [r2]
 648 0074 0133     		adds	r3, r3, #1
 649 0076 1360     		str	r3, [r2]
 650              	.L33:
 233:.\LCD.c       **** 			buffer[13]=rventa.nombre[x];			
 651              		.loc 1 233 0 is_stmt 0 discriminator 1
 652 0078 204B     		ldr	r3, .L45+8
 653 007a 1A78     		ldrb	r2, [r3]	@ zero_extendqisi2
 654 007c 1E4B     		ldr	r3, .L45+4
 655 007e 1B68     		ldr	r3, [r3]
 656 0080 9A42     		cmp	r2, r3
 657 0082 35D3     		bcc	.L31
 233:.\LCD.c       **** 			buffer[13]=rventa.nombre[x];			
ARM GAS  C:\Users\RECEPC~1\AppData\Local\Temp\ccohni6j.s 			page 17


 658              		.loc 1 233 0 discriminator 3
 659 0084 192B     		cmp	r3, #25
 660 0086 CED9     		bls	.L38
 661 0088 32E0     		b	.L31
 662              	.L32:
 243:.\LCD.c       **** 		}
 244:.\LCD.c       ****     }
 245:.\LCD.c       ****     else{
 246:.\LCD.c       **** 		for(x=1;x<=rventa.nombre[0];x++){
 663              		.loc 1 246 0 is_stmt 1
 664 008a 0122     		movs	r2, #1
 665 008c 1A4B     		ldr	r3, .L45+4
 666 008e 1A60     		str	r2, [r3]
 667 0090 28E0     		b	.L39
 668              	.L43:
 247:.\LCD.c       **** 			buffer[13]=rventa.nombre[x];			
 669              		.loc 1 247 0
 670 0092 1A4A     		ldr	r2, .L45+8
 671 0094 D35C     		ldrb	r3, [r2, r3]	@ zero_extendqisi2
 672 0096 8DF81130 		strb	r3, [sp, #17]
 248:.\LCD.c       **** 			for(y=0;y<=17;y++){
 673              		.loc 1 248 0
 674 009a 0022     		movs	r2, #0
 675 009c 184B     		ldr	r3, .L45+12
 676 009e 1A60     		str	r2, [r3]
 677 00a0 09E0     		b	.L40
 678              	.L41:
 249:.\LCD.c       ****         		LCD_2_PutChar(buffer[y]);
 679              		.loc 1 249 0 discriminator 3
 680 00a2 06AA     		add	r2, sp, #24
 681 00a4 1344     		add	r3, r3, r2
 682 00a6 13F8140C 		ldrb	r0, [r3, #-20]	@ zero_extendqisi2
 683 00aa FFF7FEFF 		bl	LCD_2_PutChar
 684              	.LVL69:
 248:.\LCD.c       **** 			for(y=0;y<=17;y++){
 685              		.loc 1 248 0 discriminator 3
 686 00ae 144A     		ldr	r2, .L45+12
 687 00b0 1368     		ldr	r3, [r2]
 688 00b2 0133     		adds	r3, r3, #1
 689 00b4 1360     		str	r3, [r2]
 690              	.L40:
 248:.\LCD.c       **** 			for(y=0;y<=17;y++){
 691              		.loc 1 248 0 is_stmt 0 discriminator 1
 692 00b6 124B     		ldr	r3, .L45+12
 693 00b8 1B68     		ldr	r3, [r3]
 694 00ba 112B     		cmp	r3, #17
 695 00bc F1D9     		bls	.L41
 250:.\LCD.c       **** 			}
 251:.\LCD.c       **** 			if(buffer[3]==0xFF){
 696              		.loc 1 251 0 is_stmt 1
 697 00be 9DF80730 		ldrb	r3, [sp, #7]	@ zero_extendqisi2
 698 00c2 FF2B     		cmp	r3, #255
 699 00c4 05D1     		bne	.L42
 252:.\LCD.c       **** 				buffer[2]=0x01;
 700              		.loc 1 252 0
 701 00c6 0123     		movs	r3, #1
 702 00c8 8DF80630 		strb	r3, [sp, #6]
ARM GAS  C:\Users\RECEPC~1\AppData\Local\Temp\ccohni6j.s 			page 18


 253:.\LCD.c       **** 				buffer[3]=0x00;
 703              		.loc 1 253 0
 704 00cc 0023     		movs	r3, #0
 705 00ce 8DF80730 		strb	r3, [sp, #7]
 706              	.L42:
 254:.\LCD.c       **** 			}			
 255:.\LCD.c       **** 			buffer[3]+=15;
 707              		.loc 1 255 0 discriminator 2
 708 00d2 9DF80730 		ldrb	r3, [sp, #7]	@ zero_extendqisi2
 709 00d6 0F33     		adds	r3, r3, #15
 710 00d8 8DF80730 		strb	r3, [sp, #7]
 246:.\LCD.c       **** 			buffer[13]=rventa.nombre[x];			
 711              		.loc 1 246 0 discriminator 2
 712 00dc 064A     		ldr	r2, .L45+4
 713 00de 1368     		ldr	r3, [r2]
 714 00e0 0133     		adds	r3, r3, #1
 715 00e2 1360     		str	r3, [r2]
 716              	.L39:
 246:.\LCD.c       **** 			buffer[13]=rventa.nombre[x];			
 717              		.loc 1 246 0 is_stmt 0 discriminator 1
 718 00e4 054B     		ldr	r3, .L45+8
 719 00e6 1A78     		ldrb	r2, [r3]	@ zero_extendqisi2
 720 00e8 034B     		ldr	r3, .L45+4
 721 00ea 1B68     		ldr	r3, [r3]
 722 00ec 9A42     		cmp	r2, r3
 723 00ee D0D2     		bcs	.L43
 724              	.L31:
 256:.\LCD.c       **** 		}
 257:.\LCD.c       ****     }	
 258:.\LCD.c       **** }
 725              		.loc 1 258 0 is_stmt 1
 726 00f0 06B0     		add	sp, sp, #24
 727              		.cfi_def_cfa_offset 16
 728              		@ sp needed
 729 00f2 70BD     		pop	{r4, r5, r6, pc}
 730              	.L46:
 731              		.align	2
 732              	.L45:
 733 00f4 00000000 		.word	.LANCHOR0
 734 00f8 00000000 		.word	x
 735 00fc 00000000 		.word	rventa
 736 0100 00000000 		.word	y
 737              		.cfi_endproc
 738              	.LFE67:
 739              		.size	Nombre_LCD, .-Nombre_LCD
 740              		.section	.text.Precio_LCD,"ax",%progbits
 741              		.align	2
 742              		.global	Precio_LCD
 743              		.thumb
 744              		.thumb_func
 745              		.type	Precio_LCD, %function
 746              	Precio_LCD:
 747              	.LFB68:
 259:.\LCD.c       **** 
 260:.\LCD.c       **** /*
 261:.\LCD.c       **** ***************************************************************************************************
 262:.\LCD.c       **** *                          void Precio_LCD(uint8 lcd, uint8 y1, uint8 y2, uint8 eeprom)
ARM GAS  C:\Users\RECEPC~1\AppData\Local\Temp\ccohni6j.s 			page 19


 263:.\LCD.c       **** *
 264:.\LCD.c       **** * Description : 
 265:.\LCD.c       **** *               
 266:.\LCD.c       **** *
 267:.\LCD.c       **** * Argument(s) : none
 268:.\LCD.c       **** *
 269:.\LCD.c       **** * Return(s)   : none
 270:.\LCD.c       **** *
 271:.\LCD.c       **** * Caller(s)   : 
 272:.\LCD.c       **** *
 273:.\LCD.c       **** * Note(s)     : none.
 274:.\LCD.c       **** ***************************************************************************************************
 275:.\LCD.c       **** */
 276:.\LCD.c       **** void Precio_LCD(uint8 lcd, uint8 y1, uint8 y2, uint16 eeprom){
 748              		.loc 1 276 0
 749              		.cfi_startproc
 750              		@ args = 0, pretend = 0, frame = 24
 751              		@ frame_needed = 0, uses_anonymous_args = 0
 752              	.LVL70:
 753 0000 F0B5     		push	{r4, r5, r6, r7, lr}
 754              		.cfi_def_cfa_offset 20
 755              		.cfi_offset 4, -20
 756              		.cfi_offset 5, -16
 757              		.cfi_offset 6, -12
 758              		.cfi_offset 7, -8
 759              		.cfi_offset 14, -4
 760 0002 87B0     		sub	sp, sp, #28
 761              		.cfi_def_cfa_offset 48
 762 0004 0646     		mov	r6, r0
 763 0006 8C46     		mov	ip, r1
 764 0008 9646     		mov	lr, r2
 765 000a 1F46     		mov	r7, r3
 277:.\LCD.c       **** 	uint8 hora[23]={0xAA,0x98,0x01,0x80,0x01,0x60,0x24,0xC5,0x02,0x00,0x00,0xFF,0xFF,'$',0X20,0x20,0X2
 766              		.loc 1 277 0
 767 000c 6C46     		mov	r4, sp
 768 000e 2A4D     		ldr	r5, .L58
 769 0010 55F8480F 		ldr	r0, [r5, #72]!	@ unaligned
 770              	.LVL71:
 771 0014 6968     		ldr	r1, [r5, #4]	@ unaligned
 772              	.LVL72:
 773 0016 AA68     		ldr	r2, [r5, #8]	@ unaligned
 774              	.LVL73:
 775 0018 EB68     		ldr	r3, [r5, #12]	@ unaligned
 776              	.LVL74:
 777 001a 0FC4     		stmia	r4!, {r0, r1, r2, r3}
 778 001c 2869     		ldr	r0, [r5, #16]	@ unaligned
 779 001e 2060     		str	r0, [r4]	@ unaligned
 780 0020 AA8A     		ldrh	r2, [r5, #20]	@ unaligned
 781 0022 AB7D     		ldrb	r3, [r5, #22]	@ zero_extendqisi2
 782 0024 A280     		strh	r2, [r4, #4]	@ unaligned
 783 0026 A371     		strb	r3, [r4, #6]
 278:.\LCD.c       **** 	hora[4]=y1;
 784              		.loc 1 278 0
 785 0028 8DF804C0 		strb	ip, [sp, #4]
 279:.\LCD.c       **** 	hora[5]=y2;
 786              		.loc 1 279 0
 787 002c 8DF805E0 		strb	lr, [sp, #5]
ARM GAS  C:\Users\RECEPC~1\AppData\Local\Temp\ccohni6j.s 			page 20


 280:.\LCD.c       **** 	if(leer_eeprom(eeprom,6)==1){
 788              		.loc 1 280 0
 789 0030 3846     		mov	r0, r7
 790 0032 0621     		movs	r1, #6
 791 0034 FFF7FEFF 		bl	leer_eeprom
 792              	.LVL75:
 793 0038 0128     		cmp	r0, #1
 794 003a 3BD1     		bne	.L47
 281:.\LCD.c       **** 		if((buffer_i2c[0]<=0x05)&&(buffer_i2c[0]>=0x00)){
 795              		.loc 1 281 0
 796 003c 1F4B     		ldr	r3, .L58+4
 797 003e 1878     		ldrb	r0, [r3]	@ zero_extendqisi2
 798 0040 0528     		cmp	r0, #5
 799 0042 10D8     		bhi	.L49
 282:.\LCD.c       **** 			for(x=1;x<=buffer_i2c[0];x++){
 800              		.loc 1 282 0
 801 0044 0122     		movs	r2, #1
 802 0046 1E4B     		ldr	r3, .L58+8
 803 0048 1A60     		str	r2, [r3]
 804 004a 08E0     		b	.L50
 805              	.L51:
 283:.\LCD.c       **** 				hora[x+13]=buffer_i2c[x];
 806              		.loc 1 283 0 discriminator 3
 807 004c 1B4A     		ldr	r2, .L58+4
 808 004e D15C     		ldrb	r1, [r2, r3]	@ zero_extendqisi2
 809 0050 06AA     		add	r2, sp, #24
 810 0052 1A44     		add	r2, r2, r3
 811 0054 02F80B1C 		strb	r1, [r2, #-11]
 282:.\LCD.c       **** 			for(x=1;x<=buffer_i2c[0];x++){
 812              		.loc 1 282 0 discriminator 3
 813 0058 0133     		adds	r3, r3, #1
 814 005a 194A     		ldr	r2, .L58+8
 815 005c 1360     		str	r3, [r2]
 816              	.L50:
 282:.\LCD.c       **** 			for(x=1;x<=buffer_i2c[0];x++){
 817              		.loc 1 282 0 is_stmt 0 discriminator 1
 818 005e 184B     		ldr	r3, .L58+8
 819 0060 1B68     		ldr	r3, [r3]
 820 0062 9842     		cmp	r0, r3
 821 0064 F2D2     		bcs	.L51
 822              	.L49:
 284:.\LCD.c       **** 			}
 285:.\LCD.c       **** 		}
 286:.\LCD.c       **** 	    if(lcd==1){
 823              		.loc 1 286 0 is_stmt 1
 824 0066 012E     		cmp	r6, #1
 825 0068 12D1     		bne	.L52
 287:.\LCD.c       **** 			for(x=0;x<=22;x++){
 826              		.loc 1 287 0
 827 006a 0022     		movs	r2, #0
 828 006c 144B     		ldr	r3, .L58+8
 829 006e 1A60     		str	r2, [r3]
 830 0070 09E0     		b	.L53
 831              	.L54:
 288:.\LCD.c       **** 	        	LCD_1_PutChar(hora[x]);
 832              		.loc 1 288 0 discriminator 3
 833 0072 06AA     		add	r2, sp, #24
ARM GAS  C:\Users\RECEPC~1\AppData\Local\Temp\ccohni6j.s 			page 21


 834 0074 1344     		add	r3, r3, r2
 835 0076 13F8180C 		ldrb	r0, [r3, #-24]	@ zero_extendqisi2
 836 007a FFF7FEFF 		bl	LCD_1_PutChar
 837              	.LVL76:
 287:.\LCD.c       **** 			for(x=0;x<=22;x++){
 838              		.loc 1 287 0 discriminator 3
 839 007e 104A     		ldr	r2, .L58+8
 840 0080 1368     		ldr	r3, [r2]
 841 0082 0133     		adds	r3, r3, #1
 842 0084 1360     		str	r3, [r2]
 843              	.L53:
 287:.\LCD.c       **** 			for(x=0;x<=22;x++){
 844              		.loc 1 287 0 is_stmt 0 discriminator 1
 845 0086 0E4B     		ldr	r3, .L58+8
 846 0088 1B68     		ldr	r3, [r3]
 847 008a 162B     		cmp	r3, #22
 848 008c F1D9     		bls	.L54
 849 008e 11E0     		b	.L47
 850              	.L52:
 289:.\LCD.c       **** 			}
 290:.\LCD.c       **** 	    }
 291:.\LCD.c       **** 	    else{
 292:.\LCD.c       **** 			for(x=0;x<=22;x++){
 851              		.loc 1 292 0 is_stmt 1
 852 0090 0022     		movs	r2, #0
 853 0092 0B4B     		ldr	r3, .L58+8
 854 0094 1A60     		str	r2, [r3]
 855 0096 09E0     		b	.L55
 856              	.L56:
 293:.\LCD.c       **** 		        LCD_2_PutChar(hora[x]);
 857              		.loc 1 293 0 discriminator 3
 858 0098 06AA     		add	r2, sp, #24
 859 009a 1344     		add	r3, r3, r2
 860 009c 13F8180C 		ldrb	r0, [r3, #-24]	@ zero_extendqisi2
 861 00a0 FFF7FEFF 		bl	LCD_2_PutChar
 862              	.LVL77:
 292:.\LCD.c       **** 		        LCD_2_PutChar(hora[x]);
 863              		.loc 1 292 0 discriminator 3
 864 00a4 064A     		ldr	r2, .L58+8
 865 00a6 1368     		ldr	r3, [r2]
 866 00a8 0133     		adds	r3, r3, #1
 867 00aa 1360     		str	r3, [r2]
 868              	.L55:
 292:.\LCD.c       **** 		        LCD_2_PutChar(hora[x]);
 869              		.loc 1 292 0 is_stmt 0 discriminator 1
 870 00ac 044B     		ldr	r3, .L58+8
 871 00ae 1B68     		ldr	r3, [r3]
 872 00b0 162B     		cmp	r3, #22
 873 00b2 F1D9     		bls	.L56
 874              	.L47:
 294:.\LCD.c       **** 			}
 295:.\LCD.c       **** 	    }
 296:.\LCD.c       **** 	}
 297:.\LCD.c       **** }
 875              		.loc 1 297 0 is_stmt 1
 876 00b4 07B0     		add	sp, sp, #28
 877              		.cfi_def_cfa_offset 20
ARM GAS  C:\Users\RECEPC~1\AppData\Local\Temp\ccohni6j.s 			page 22


 878              		@ sp needed
 879 00b6 F0BD     		pop	{r4, r5, r6, r7, pc}
 880              	.L59:
 881              		.align	2
 882              	.L58:
 883 00b8 00000000 		.word	.LANCHOR0
 884 00bc 00000000 		.word	buffer_i2c
 885 00c0 00000000 		.word	x
 886              		.cfi_endproc
 887              	.LFE68:
 888              		.size	Precio_LCD, .-Precio_LCD
 889              		.section	.text.Grado_LCD,"ax",%progbits
 890              		.align	2
 891              		.global	Grado_LCD
 892              		.thumb
 893              		.thumb_func
 894              		.type	Grado_LCD, %function
 895              	Grado_LCD:
 896              	.LFB69:
 298:.\LCD.c       **** 
 299:.\LCD.c       **** /*
 300:.\LCD.c       **** ***************************************************************************************************
 301:.\LCD.c       **** *                          void Grado_LCD(uint8 lcd, uint8 y1, uint8 y2, uint8 eeprom)
 302:.\LCD.c       **** *
 303:.\LCD.c       **** * Description : 
 304:.\LCD.c       **** *               
 305:.\LCD.c       **** *
 306:.\LCD.c       **** * Argument(s) : none
 307:.\LCD.c       **** *
 308:.\LCD.c       **** * Return(s)   : none
 309:.\LCD.c       **** *
 310:.\LCD.c       **** * Caller(s)   : 
 311:.\LCD.c       **** *
 312:.\LCD.c       **** * Note(s)     : none.
 313:.\LCD.c       **** ***************************************************************************************************
 314:.\LCD.c       **** */
 315:.\LCD.c       **** void Grado_LCD(uint8 lcd, uint8 y1, uint8 y2, uint16 eeprom){
 897              		.loc 1 315 0
 898              		.cfi_startproc
 899              		@ args = 0, pretend = 0, frame = 24
 900              		@ frame_needed = 0, uses_anonymous_args = 0
 901              	.LVL78:
 902 0000 F0B5     		push	{r4, r5, r6, r7, lr}
 903              		.cfi_def_cfa_offset 20
 904              		.cfi_offset 4, -20
 905              		.cfi_offset 5, -16
 906              		.cfi_offset 6, -12
 907              		.cfi_offset 7, -8
 908              		.cfi_offset 14, -4
 909 0002 87B0     		sub	sp, sp, #28
 910              		.cfi_def_cfa_offset 48
 911 0004 0646     		mov	r6, r0
 912 0006 8C46     		mov	ip, r1
 913 0008 9646     		mov	lr, r2
 914 000a 1F46     		mov	r7, r3
 316:.\LCD.c       **** 	uint8 hora[18]={0xAA,0x98,0x02,0x20,0x01,0x60,0x24,0xC5,0x02,0x00,0x00,0xFF,0xFF,0x20,0xCC,0x33,0x
 915              		.loc 1 316 0
ARM GAS  C:\Users\RECEPC~1\AppData\Local\Temp\ccohni6j.s 			page 23


 916 000c 01AC     		add	r4, sp, #4
 917 000e 284D     		ldr	r5, .L71
 918 0010 55F8600F 		ldr	r0, [r5, #96]!	@ unaligned
 919              	.LVL79:
 920 0014 6968     		ldr	r1, [r5, #4]	@ unaligned
 921              	.LVL80:
 922 0016 AA68     		ldr	r2, [r5, #8]	@ unaligned
 923              	.LVL81:
 924 0018 EB68     		ldr	r3, [r5, #12]	@ unaligned
 925              	.LVL82:
 926 001a 0FC4     		stmia	r4!, {r0, r1, r2, r3}
 927 001c 2B8A     		ldrh	r3, [r5, #16]	@ unaligned
 928 001e 2380     		strh	r3, [r4]	@ unaligned
 317:.\LCD.c       **** 	hora[4]=y1;
 929              		.loc 1 317 0
 930 0020 8DF808C0 		strb	ip, [sp, #8]
 318:.\LCD.c       **** 	hora[5]=y2;
 931              		.loc 1 318 0
 932 0024 8DF809E0 		strb	lr, [sp, #9]
 319:.\LCD.c       **** 	if(leer_eeprom(eeprom,2)==1){
 933              		.loc 1 319 0
 934 0028 3846     		mov	r0, r7
 935 002a 0221     		movs	r1, #2
 936 002c FFF7FEFF 		bl	leer_eeprom
 937              	.LVL83:
 938 0030 0128     		cmp	r0, #1
 939 0032 3BD1     		bne	.L60
 320:.\LCD.c       **** 		if(buffer_i2c[0]==0x01){
 940              		.loc 1 320 0
 941 0034 1F4B     		ldr	r3, .L71+4
 942 0036 1878     		ldrb	r0, [r3]	@ zero_extendqisi2
 943 0038 0128     		cmp	r0, #1
 944 003a 10D1     		bne	.L62
 321:.\LCD.c       **** 			for(x=1;x<=buffer_i2c[0];x++){
 945              		.loc 1 321 0
 946 003c 0122     		movs	r2, #1
 947 003e 1E4B     		ldr	r3, .L71+8
 948 0040 1A60     		str	r2, [r3]
 949 0042 08E0     		b	.L63
 950              	.L64:
 322:.\LCD.c       **** 				hora[x+12]=buffer_i2c[x];
 951              		.loc 1 322 0 discriminator 3
 952 0044 1B4A     		ldr	r2, .L71+4
 953 0046 D15C     		ldrb	r1, [r2, r3]	@ zero_extendqisi2
 954 0048 06AA     		add	r2, sp, #24
 955 004a 1A44     		add	r2, r2, r3
 956 004c 02F8081C 		strb	r1, [r2, #-8]
 321:.\LCD.c       **** 			for(x=1;x<=buffer_i2c[0];x++){
 957              		.loc 1 321 0 discriminator 3
 958 0050 0133     		adds	r3, r3, #1
 959 0052 194A     		ldr	r2, .L71+8
 960 0054 1360     		str	r3, [r2]
 961              	.L63:
 321:.\LCD.c       **** 			for(x=1;x<=buffer_i2c[0];x++){
 962              		.loc 1 321 0 is_stmt 0 discriminator 1
 963 0056 184B     		ldr	r3, .L71+8
 964 0058 1B68     		ldr	r3, [r3]
ARM GAS  C:\Users\RECEPC~1\AppData\Local\Temp\ccohni6j.s 			page 24


 965 005a 9842     		cmp	r0, r3
 966 005c F2D2     		bcs	.L64
 967              	.L62:
 323:.\LCD.c       **** 			}
 324:.\LCD.c       **** 		}
 325:.\LCD.c       **** 	    if(lcd==1){
 968              		.loc 1 325 0 is_stmt 1
 969 005e 012E     		cmp	r6, #1
 970 0060 12D1     		bne	.L65
 326:.\LCD.c       **** 			for(x=0;x<=22;x++){
 971              		.loc 1 326 0
 972 0062 0022     		movs	r2, #0
 973 0064 144B     		ldr	r3, .L71+8
 974 0066 1A60     		str	r2, [r3]
 975 0068 09E0     		b	.L66
 976              	.L67:
 327:.\LCD.c       **** 	        	LCD_1_PutChar(hora[x]);
 977              		.loc 1 327 0 discriminator 3
 978 006a 06AA     		add	r2, sp, #24
 979 006c 1344     		add	r3, r3, r2
 980 006e 13F8140C 		ldrb	r0, [r3, #-20]	@ zero_extendqisi2
 981 0072 FFF7FEFF 		bl	LCD_1_PutChar
 982              	.LVL84:
 326:.\LCD.c       **** 			for(x=0;x<=22;x++){
 983              		.loc 1 326 0 discriminator 3
 984 0076 104A     		ldr	r2, .L71+8
 985 0078 1368     		ldr	r3, [r2]
 986 007a 0133     		adds	r3, r3, #1
 987 007c 1360     		str	r3, [r2]
 988              	.L66:
 326:.\LCD.c       **** 			for(x=0;x<=22;x++){
 989              		.loc 1 326 0 is_stmt 0 discriminator 1
 990 007e 0E4B     		ldr	r3, .L71+8
 991 0080 1B68     		ldr	r3, [r3]
 992 0082 162B     		cmp	r3, #22
 993 0084 F1D9     		bls	.L67
 994 0086 11E0     		b	.L60
 995              	.L65:
 328:.\LCD.c       **** 			}
 329:.\LCD.c       **** 	    }
 330:.\LCD.c       **** 	    else{
 331:.\LCD.c       **** 			for(x=0;x<=22;x++){
 996              		.loc 1 331 0 is_stmt 1
 997 0088 0022     		movs	r2, #0
 998 008a 0B4B     		ldr	r3, .L71+8
 999 008c 1A60     		str	r2, [r3]
 1000 008e 09E0     		b	.L68
 1001              	.L69:
 332:.\LCD.c       **** 		        LCD_2_PutChar(hora[x]);
 1002              		.loc 1 332 0 discriminator 3
 1003 0090 06AA     		add	r2, sp, #24
 1004 0092 1344     		add	r3, r3, r2
 1005 0094 13F8140C 		ldrb	r0, [r3, #-20]	@ zero_extendqisi2
 1006 0098 FFF7FEFF 		bl	LCD_2_PutChar
 1007              	.LVL85:
 331:.\LCD.c       **** 		        LCD_2_PutChar(hora[x]);
 1008              		.loc 1 331 0 discriminator 3
ARM GAS  C:\Users\RECEPC~1\AppData\Local\Temp\ccohni6j.s 			page 25


 1009 009c 064A     		ldr	r2, .L71+8
 1010 009e 1368     		ldr	r3, [r2]
 1011 00a0 0133     		adds	r3, r3, #1
 1012 00a2 1360     		str	r3, [r2]
 1013              	.L68:
 331:.\LCD.c       **** 		        LCD_2_PutChar(hora[x]);
 1014              		.loc 1 331 0 is_stmt 0 discriminator 1
 1015 00a4 044B     		ldr	r3, .L71+8
 1016 00a6 1B68     		ldr	r3, [r3]
 1017 00a8 162B     		cmp	r3, #22
 1018 00aa F1D9     		bls	.L69
 1019              	.L60:
 333:.\LCD.c       **** 			}
 334:.\LCD.c       **** 	    }
 335:.\LCD.c       **** 	}
 336:.\LCD.c       **** }
 1020              		.loc 1 336 0 is_stmt 1
 1021 00ac 07B0     		add	sp, sp, #28
 1022              		.cfi_def_cfa_offset 20
 1023              		@ sp needed
 1024 00ae F0BD     		pop	{r4, r5, r6, r7, pc}
 1025              	.L72:
 1026              		.align	2
 1027              	.L71:
 1028 00b0 00000000 		.word	.LANCHOR0
 1029 00b4 00000000 		.word	buffer_i2c
 1030 00b8 00000000 		.word	x
 1031              		.cfi_endproc
 1032              	.LFE69:
 1033              		.size	Grado_LCD, .-Grado_LCD
 1034              		.section	.text.direccion_LCD,"ax",%progbits
 1035              		.align	2
 1036              		.global	direccion_LCD
 1037              		.thumb
 1038              		.thumb_func
 1039              		.type	direccion_LCD, %function
 1040              	direccion_LCD:
 1041              	.LFB70:
 337:.\LCD.c       **** 
 338:.\LCD.c       **** /*
 339:.\LCD.c       **** ***************************************************************************************************
 340:.\LCD.c       **** *                                 			void direccion_LCD(uint8 lcd)
 341:.\LCD.c       **** *
 342:.\LCD.c       **** * Description : 
 343:.\LCD.c       **** *               
 344:.\LCD.c       **** *
 345:.\LCD.c       **** * Argument(s) : none
 346:.\LCD.c       **** *
 347:.\LCD.c       **** * Return(s)   : none
 348:.\LCD.c       **** *
 349:.\LCD.c       **** * Caller(s)   : 
 350:.\LCD.c       **** *
 351:.\LCD.c       **** * Note(s)     : none.
 352:.\LCD.c       **** ***************************************************************************************************
 353:.\LCD.c       **** */
 354:.\LCD.c       **** void direccion_LCD(uint8 lcd){
 1042              		.loc 1 354 0
ARM GAS  C:\Users\RECEPC~1\AppData\Local\Temp\ccohni6j.s 			page 26


 1043              		.cfi_startproc
 1044              		@ args = 0, pretend = 0, frame = 24
 1045              		@ frame_needed = 0, uses_anonymous_args = 0
 1046              	.LVL86:
 1047 0000 70B5     		push	{r4, r5, r6, lr}
 1048              		.cfi_def_cfa_offset 16
 1049              		.cfi_offset 4, -16
 1050              		.cfi_offset 5, -12
 1051              		.cfi_offset 6, -8
 1052              		.cfi_offset 14, -4
 1053 0002 86B0     		sub	sp, sp, #24
 1054              		.cfi_def_cfa_offset 40
 1055 0004 0646     		mov	r6, r0
 355:.\LCD.c       **** 	uint8 buffer[18]={0xAA,0x98,0x00,0xA5,0x00,0xB7,0x23,0xC5,0x02,0x00,0x00,0xFF,0xFF,0x20,0xCC,0x33,
 1056              		.loc 1 355 0
 1057 0006 01AC     		add	r4, sp, #4
 1058 0008 3C4D     		ldr	r5, .L87
 1059 000a 55F8740F 		ldr	r0, [r5, #116]!	@ unaligned
 1060              	.LVL87:
 1061 000e 6968     		ldr	r1, [r5, #4]	@ unaligned
 1062 0010 AA68     		ldr	r2, [r5, #8]	@ unaligned
 1063 0012 EB68     		ldr	r3, [r5, #12]	@ unaligned
 1064 0014 0FC4     		stmia	r4!, {r0, r1, r2, r3}
 1065 0016 2B8A     		ldrh	r3, [r5, #16]	@ unaligned
 1066 0018 2380     		strh	r3, [r4]	@ unaligned
 356:.\LCD.c       ****     if(lcd==1){
 1067              		.loc 1 356 0
 1068 001a 012E     		cmp	r6, #1
 1069 001c 36D1     		bne	.L74
 357:.\LCD.c       **** 		for(x=1;x<=rventa.direccion[0];x++){
 1070              		.loc 1 357 0
 1071 001e 0122     		movs	r2, #1
 1072 0020 374B     		ldr	r3, .L87+4
 1073 0022 1A60     		str	r2, [r3]
 1074 0024 2AE0     		b	.L75
 1075              	.L79:
 358:.\LCD.c       **** 			buffer[13]=rventa.direccion[x];			
 1076              		.loc 1 358 0
 1077 0026 374A     		ldr	r2, .L87+8
 1078 0028 1344     		add	r3, r3, r2
 1079 002a 93F84330 		ldrb	r3, [r3, #67]	@ zero_extendqisi2
 1080 002e 8DF81130 		strb	r3, [sp, #17]
 359:.\LCD.c       **** 			for(y=0;y<=17;y++){
 1081              		.loc 1 359 0
 1082 0032 0022     		movs	r2, #0
 1083 0034 344B     		ldr	r3, .L87+12
 1084 0036 1A60     		str	r2, [r3]
 1085 0038 09E0     		b	.L76
 1086              	.L77:
 360:.\LCD.c       ****         		LCD_1_PutChar(buffer[y]);
 1087              		.loc 1 360 0 discriminator 3
 1088 003a 06AA     		add	r2, sp, #24
 1089 003c 1344     		add	r3, r3, r2
 1090 003e 13F8140C 		ldrb	r0, [r3, #-20]	@ zero_extendqisi2
 1091 0042 FFF7FEFF 		bl	LCD_1_PutChar
 1092              	.LVL88:
 359:.\LCD.c       **** 			for(y=0;y<=17;y++){
ARM GAS  C:\Users\RECEPC~1\AppData\Local\Temp\ccohni6j.s 			page 27


 1093              		.loc 1 359 0 discriminator 3
 1094 0046 304A     		ldr	r2, .L87+12
 1095 0048 1368     		ldr	r3, [r2]
 1096 004a 0133     		adds	r3, r3, #1
 1097 004c 1360     		str	r3, [r2]
 1098              	.L76:
 359:.\LCD.c       **** 			for(y=0;y<=17;y++){
 1099              		.loc 1 359 0 is_stmt 0 discriminator 1
 1100 004e 2E4B     		ldr	r3, .L87+12
 1101 0050 1B68     		ldr	r3, [r3]
 1102 0052 112B     		cmp	r3, #17
 1103 0054 F1D9     		bls	.L77
 361:.\LCD.c       **** 			}
 362:.\LCD.c       **** 			if(buffer[3]==0xFF){
 1104              		.loc 1 362 0 is_stmt 1
 1105 0056 9DF80730 		ldrb	r3, [sp, #7]	@ zero_extendqisi2
 1106 005a FF2B     		cmp	r3, #255
 1107 005c 05D1     		bne	.L78
 363:.\LCD.c       **** 				buffer[2]=0x01;
 1108              		.loc 1 363 0
 1109 005e 0123     		movs	r3, #1
 1110 0060 8DF80630 		strb	r3, [sp, #6]
 364:.\LCD.c       **** 				buffer[3]=0x00;
 1111              		.loc 1 364 0
 1112 0064 0023     		movs	r3, #0
 1113 0066 8DF80730 		strb	r3, [sp, #7]
 1114              	.L78:
 365:.\LCD.c       **** 			}			
 366:.\LCD.c       **** 			buffer[3]+=15;
 1115              		.loc 1 366 0 discriminator 2
 1116 006a 9DF80730 		ldrb	r3, [sp, #7]	@ zero_extendqisi2
 1117 006e 0F33     		adds	r3, r3, #15
 1118 0070 8DF80730 		strb	r3, [sp, #7]
 357:.\LCD.c       **** 			buffer[13]=rventa.direccion[x];			
 1119              		.loc 1 357 0 discriminator 2
 1120 0074 224A     		ldr	r2, .L87+4
 1121 0076 1368     		ldr	r3, [r2]
 1122 0078 0133     		adds	r3, r3, #1
 1123 007a 1360     		str	r3, [r2]
 1124              	.L75:
 357:.\LCD.c       **** 			buffer[13]=rventa.direccion[x];			
 1125              		.loc 1 357 0 is_stmt 0 discriminator 1
 1126 007c 214B     		ldr	r3, .L87+8
 1127 007e 93F84320 		ldrb	r2, [r3, #67]	@ zero_extendqisi2
 1128 0082 1F4B     		ldr	r3, .L87+4
 1129 0084 1B68     		ldr	r3, [r3]
 1130 0086 9A42     		cmp	r2, r3
 1131 0088 CDD2     		bcs	.L79
 1132 008a 35E0     		b	.L73
 1133              	.L74:
 367:.\LCD.c       **** 		}
 368:.\LCD.c       ****     }
 369:.\LCD.c       ****     else{
 370:.\LCD.c       **** 		for(x=1;x<=rventa.direccion[0];x++){
 1134              		.loc 1 370 0 is_stmt 1
 1135 008c 0122     		movs	r2, #1
 1136 008e 1C4B     		ldr	r3, .L87+4
ARM GAS  C:\Users\RECEPC~1\AppData\Local\Temp\ccohni6j.s 			page 28


 1137 0090 1A60     		str	r2, [r3]
 1138 0092 2AE0     		b	.L81
 1139              	.L85:
 371:.\LCD.c       **** 			buffer[13]=rventa.direccion[x];			
 1140              		.loc 1 371 0
 1141 0094 1B4A     		ldr	r2, .L87+8
 1142 0096 1344     		add	r3, r3, r2
 1143 0098 93F84330 		ldrb	r3, [r3, #67]	@ zero_extendqisi2
 1144 009c 8DF81130 		strb	r3, [sp, #17]
 372:.\LCD.c       **** 			for(y=0;y<=17;y++){
 1145              		.loc 1 372 0
 1146 00a0 0022     		movs	r2, #0
 1147 00a2 194B     		ldr	r3, .L87+12
 1148 00a4 1A60     		str	r2, [r3]
 1149 00a6 09E0     		b	.L82
 1150              	.L83:
 373:.\LCD.c       ****         		LCD_2_PutChar(buffer[y]);
 1151              		.loc 1 373 0 discriminator 3
 1152 00a8 06AA     		add	r2, sp, #24
 1153 00aa 1344     		add	r3, r3, r2
 1154 00ac 13F8140C 		ldrb	r0, [r3, #-20]	@ zero_extendqisi2
 1155 00b0 FFF7FEFF 		bl	LCD_2_PutChar
 1156              	.LVL89:
 372:.\LCD.c       **** 			for(y=0;y<=17;y++){
 1157              		.loc 1 372 0 discriminator 3
 1158 00b4 144A     		ldr	r2, .L87+12
 1159 00b6 1368     		ldr	r3, [r2]
 1160 00b8 0133     		adds	r3, r3, #1
 1161 00ba 1360     		str	r3, [r2]
 1162              	.L82:
 372:.\LCD.c       **** 			for(y=0;y<=17;y++){
 1163              		.loc 1 372 0 is_stmt 0 discriminator 1
 1164 00bc 124B     		ldr	r3, .L87+12
 1165 00be 1B68     		ldr	r3, [r3]
 1166 00c0 112B     		cmp	r3, #17
 1167 00c2 F1D9     		bls	.L83
 374:.\LCD.c       **** 			}
 375:.\LCD.c       **** 			if(buffer[3]==0xFF){
 1168              		.loc 1 375 0 is_stmt 1
 1169 00c4 9DF80730 		ldrb	r3, [sp, #7]	@ zero_extendqisi2
 1170 00c8 FF2B     		cmp	r3, #255
 1171 00ca 05D1     		bne	.L84
 376:.\LCD.c       **** 				buffer[2]=0x01;
 1172              		.loc 1 376 0
 1173 00cc 0123     		movs	r3, #1
 1174 00ce 8DF80630 		strb	r3, [sp, #6]
 377:.\LCD.c       **** 				buffer[3]=0x00;
 1175              		.loc 1 377 0
 1176 00d2 0023     		movs	r3, #0
 1177 00d4 8DF80730 		strb	r3, [sp, #7]
 1178              	.L84:
 378:.\LCD.c       **** 			}			
 379:.\LCD.c       **** 			buffer[3]+=15;
 1179              		.loc 1 379 0 discriminator 2
 1180 00d8 9DF80730 		ldrb	r3, [sp, #7]	@ zero_extendqisi2
 1181 00dc 0F33     		adds	r3, r3, #15
 1182 00de 8DF80730 		strb	r3, [sp, #7]
ARM GAS  C:\Users\RECEPC~1\AppData\Local\Temp\ccohni6j.s 			page 29


 370:.\LCD.c       **** 			buffer[13]=rventa.direccion[x];			
 1183              		.loc 1 370 0 discriminator 2
 1184 00e2 074A     		ldr	r2, .L87+4
 1185 00e4 1368     		ldr	r3, [r2]
 1186 00e6 0133     		adds	r3, r3, #1
 1187 00e8 1360     		str	r3, [r2]
 1188              	.L81:
 370:.\LCD.c       **** 			buffer[13]=rventa.direccion[x];			
 1189              		.loc 1 370 0 is_stmt 0 discriminator 1
 1190 00ea 064B     		ldr	r3, .L87+8
 1191 00ec 93F84320 		ldrb	r2, [r3, #67]	@ zero_extendqisi2
 1192 00f0 034B     		ldr	r3, .L87+4
 1193 00f2 1B68     		ldr	r3, [r3]
 1194 00f4 9A42     		cmp	r2, r3
 1195 00f6 CDD2     		bcs	.L85
 1196              	.L73:
 380:.\LCD.c       **** 		}
 381:.\LCD.c       ****     }	
 382:.\LCD.c       **** }
 1197              		.loc 1 382 0 is_stmt 1
 1198 00f8 06B0     		add	sp, sp, #24
 1199              		.cfi_def_cfa_offset 16
 1200              		@ sp needed
 1201 00fa 70BD     		pop	{r4, r5, r6, pc}
 1202              	.L88:
 1203              		.align	2
 1204              	.L87:
 1205 00fc 00000000 		.word	.LANCHOR0
 1206 0100 00000000 		.word	x
 1207 0104 00000000 		.word	rventa
 1208 0108 00000000 		.word	y
 1209              		.cfi_endproc
 1210              	.LFE70:
 1211              		.size	direccion_LCD, .-direccion_LCD
 1212              		.section	.text.lema1_LCD,"ax",%progbits
 1213              		.align	2
 1214              		.global	lema1_LCD
 1215              		.thumb
 1216              		.thumb_func
 1217              		.type	lema1_LCD, %function
 1218              	lema1_LCD:
 1219              	.LFB71:
 383:.\LCD.c       **** 
 384:.\LCD.c       **** /*
 385:.\LCD.c       **** ***************************************************************************************************
 386:.\LCD.c       **** *                                 		void lema1_LCD(uint8 lcd)
 387:.\LCD.c       **** *
 388:.\LCD.c       **** * Description : 
 389:.\LCD.c       **** *               
 390:.\LCD.c       **** *
 391:.\LCD.c       **** * Argument(s) : none
 392:.\LCD.c       **** *
 393:.\LCD.c       **** * Return(s)   : none
 394:.\LCD.c       **** *
 395:.\LCD.c       **** * Caller(s)   : 
 396:.\LCD.c       **** *
 397:.\LCD.c       **** * Note(s)     : none.
ARM GAS  C:\Users\RECEPC~1\AppData\Local\Temp\ccohni6j.s 			page 30


 398:.\LCD.c       **** ***************************************************************************************************
 399:.\LCD.c       **** */
 400:.\LCD.c       **** void lema1_LCD(uint8 lcd){
 1220              		.loc 1 400 0
 1221              		.cfi_startproc
 1222              		@ args = 0, pretend = 0, frame = 24
 1223              		@ frame_needed = 0, uses_anonymous_args = 0
 1224              	.LVL90:
 1225 0000 70B5     		push	{r4, r5, r6, lr}
 1226              		.cfi_def_cfa_offset 16
 1227              		.cfi_offset 4, -16
 1228              		.cfi_offset 5, -12
 1229              		.cfi_offset 6, -8
 1230              		.cfi_offset 14, -4
 1231 0002 86B0     		sub	sp, sp, #24
 1232              		.cfi_def_cfa_offset 40
 1233 0004 0646     		mov	r6, r0
 401:.\LCD.c       **** 	uint8 buffer[18]={0xAA,0x98,0x00,0xA5,0x01,0x27,0x23,0xC5,0x02,0x00,0x00,0xFF,0xFF,0x20,0xCC,0x33,
 1234              		.loc 1 401 0
 1235 0006 01AC     		add	r4, sp, #4
 1236 0008 3C4D     		ldr	r5, .L103
 1237 000a 55F8880F 		ldr	r0, [r5, #136]!	@ unaligned
 1238              	.LVL91:
 1239 000e 6968     		ldr	r1, [r5, #4]	@ unaligned
 1240 0010 AA68     		ldr	r2, [r5, #8]	@ unaligned
 1241 0012 EB68     		ldr	r3, [r5, #12]	@ unaligned
 1242 0014 0FC4     		stmia	r4!, {r0, r1, r2, r3}
 1243 0016 2B8A     		ldrh	r3, [r5, #16]	@ unaligned
 1244 0018 2380     		strh	r3, [r4]	@ unaligned
 402:.\LCD.c       ****     if(lcd==1){
 1245              		.loc 1 402 0
 1246 001a 012E     		cmp	r6, #1
 1247 001c 36D1     		bne	.L90
 403:.\LCD.c       **** 		for(x=1;x<=rventa.lema1[0];x++){
 1248              		.loc 1 403 0
 1249 001e 0122     		movs	r2, #1
 1250 0020 374B     		ldr	r3, .L103+4
 1251 0022 1A60     		str	r2, [r3]
 1252 0024 2AE0     		b	.L91
 1253              	.L95:
 404:.\LCD.c       **** 			buffer[13]=rventa.lema1[x];			
 1254              		.loc 1 404 0
 1255 0026 374A     		ldr	r2, .L103+8
 1256 0028 1344     		add	r3, r3, r2
 1257 002a 93F86130 		ldrb	r3, [r3, #97]	@ zero_extendqisi2
 1258 002e 8DF81130 		strb	r3, [sp, #17]
 405:.\LCD.c       **** 			for(y=0;y<=17;y++){
 1259              		.loc 1 405 0
 1260 0032 0022     		movs	r2, #0
 1261 0034 344B     		ldr	r3, .L103+12
 1262 0036 1A60     		str	r2, [r3]
 1263 0038 09E0     		b	.L92
 1264              	.L93:
 406:.\LCD.c       ****         		LCD_1_PutChar(buffer[y]);
 1265              		.loc 1 406 0 discriminator 3
 1266 003a 06AA     		add	r2, sp, #24
 1267 003c 1344     		add	r3, r3, r2
ARM GAS  C:\Users\RECEPC~1\AppData\Local\Temp\ccohni6j.s 			page 31


 1268 003e 13F8140C 		ldrb	r0, [r3, #-20]	@ zero_extendqisi2
 1269 0042 FFF7FEFF 		bl	LCD_1_PutChar
 1270              	.LVL92:
 405:.\LCD.c       **** 			for(y=0;y<=17;y++){
 1271              		.loc 1 405 0 discriminator 3
 1272 0046 304A     		ldr	r2, .L103+12
 1273 0048 1368     		ldr	r3, [r2]
 1274 004a 0133     		adds	r3, r3, #1
 1275 004c 1360     		str	r3, [r2]
 1276              	.L92:
 405:.\LCD.c       **** 			for(y=0;y<=17;y++){
 1277              		.loc 1 405 0 is_stmt 0 discriminator 1
 1278 004e 2E4B     		ldr	r3, .L103+12
 1279 0050 1B68     		ldr	r3, [r3]
 1280 0052 112B     		cmp	r3, #17
 1281 0054 F1D9     		bls	.L93
 407:.\LCD.c       **** 			}
 408:.\LCD.c       **** 			if(buffer[3]==0xFF){
 1282              		.loc 1 408 0 is_stmt 1
 1283 0056 9DF80730 		ldrb	r3, [sp, #7]	@ zero_extendqisi2
 1284 005a FF2B     		cmp	r3, #255
 1285 005c 05D1     		bne	.L94
 409:.\LCD.c       **** 				buffer[2]=0x01;
 1286              		.loc 1 409 0
 1287 005e 0123     		movs	r3, #1
 1288 0060 8DF80630 		strb	r3, [sp, #6]
 410:.\LCD.c       **** 				buffer[3]=0x00;
 1289              		.loc 1 410 0
 1290 0064 0023     		movs	r3, #0
 1291 0066 8DF80730 		strb	r3, [sp, #7]
 1292              	.L94:
 411:.\LCD.c       **** 			}			
 412:.\LCD.c       **** 			buffer[3]+=15;
 1293              		.loc 1 412 0 discriminator 2
 1294 006a 9DF80730 		ldrb	r3, [sp, #7]	@ zero_extendqisi2
 1295 006e 0F33     		adds	r3, r3, #15
 1296 0070 8DF80730 		strb	r3, [sp, #7]
 403:.\LCD.c       **** 			buffer[13]=rventa.lema1[x];			
 1297              		.loc 1 403 0 discriminator 2
 1298 0074 224A     		ldr	r2, .L103+4
 1299 0076 1368     		ldr	r3, [r2]
 1300 0078 0133     		adds	r3, r3, #1
 1301 007a 1360     		str	r3, [r2]
 1302              	.L91:
 403:.\LCD.c       **** 			buffer[13]=rventa.lema1[x];			
 1303              		.loc 1 403 0 is_stmt 0 discriminator 1
 1304 007c 214B     		ldr	r3, .L103+8
 1305 007e 93F86120 		ldrb	r2, [r3, #97]	@ zero_extendqisi2
 1306 0082 1F4B     		ldr	r3, .L103+4
 1307 0084 1B68     		ldr	r3, [r3]
 1308 0086 9A42     		cmp	r2, r3
 1309 0088 CDD2     		bcs	.L95
 1310 008a 35E0     		b	.L89
 1311              	.L90:
 413:.\LCD.c       **** 		}
 414:.\LCD.c       ****     }
 415:.\LCD.c       ****     else{
ARM GAS  C:\Users\RECEPC~1\AppData\Local\Temp\ccohni6j.s 			page 32


 416:.\LCD.c       **** 		for(x=1;x<=rventa.lema1[0];x++){
 1312              		.loc 1 416 0 is_stmt 1
 1313 008c 0122     		movs	r2, #1
 1314 008e 1C4B     		ldr	r3, .L103+4
 1315 0090 1A60     		str	r2, [r3]
 1316 0092 2AE0     		b	.L97
 1317              	.L101:
 417:.\LCD.c       **** 			buffer[13]=rventa.lema1[x];			
 1318              		.loc 1 417 0
 1319 0094 1B4A     		ldr	r2, .L103+8
 1320 0096 1344     		add	r3, r3, r2
 1321 0098 93F86130 		ldrb	r3, [r3, #97]	@ zero_extendqisi2
 1322 009c 8DF81130 		strb	r3, [sp, #17]
 418:.\LCD.c       **** 			for(y=0;y<=17;y++){
 1323              		.loc 1 418 0
 1324 00a0 0022     		movs	r2, #0
 1325 00a2 194B     		ldr	r3, .L103+12
 1326 00a4 1A60     		str	r2, [r3]
 1327 00a6 09E0     		b	.L98
 1328              	.L99:
 419:.\LCD.c       ****         		LCD_2_PutChar(buffer[y]);
 1329              		.loc 1 419 0 discriminator 3
 1330 00a8 06AA     		add	r2, sp, #24
 1331 00aa 1344     		add	r3, r3, r2
 1332 00ac 13F8140C 		ldrb	r0, [r3, #-20]	@ zero_extendqisi2
 1333 00b0 FFF7FEFF 		bl	LCD_2_PutChar
 1334              	.LVL93:
 418:.\LCD.c       **** 			for(y=0;y<=17;y++){
 1335              		.loc 1 418 0 discriminator 3
 1336 00b4 144A     		ldr	r2, .L103+12
 1337 00b6 1368     		ldr	r3, [r2]
 1338 00b8 0133     		adds	r3, r3, #1
 1339 00ba 1360     		str	r3, [r2]
 1340              	.L98:
 418:.\LCD.c       **** 			for(y=0;y<=17;y++){
 1341              		.loc 1 418 0 is_stmt 0 discriminator 1
 1342 00bc 124B     		ldr	r3, .L103+12
 1343 00be 1B68     		ldr	r3, [r3]
 1344 00c0 112B     		cmp	r3, #17
 1345 00c2 F1D9     		bls	.L99
 420:.\LCD.c       **** 			}
 421:.\LCD.c       **** 			if(buffer[3]==0xFF){
 1346              		.loc 1 421 0 is_stmt 1
 1347 00c4 9DF80730 		ldrb	r3, [sp, #7]	@ zero_extendqisi2
 1348 00c8 FF2B     		cmp	r3, #255
 1349 00ca 05D1     		bne	.L100
 422:.\LCD.c       **** 				buffer[2]=0x01;
 1350              		.loc 1 422 0
 1351 00cc 0123     		movs	r3, #1
 1352 00ce 8DF80630 		strb	r3, [sp, #6]
 423:.\LCD.c       **** 				buffer[3]=0x00;
 1353              		.loc 1 423 0
 1354 00d2 0023     		movs	r3, #0
 1355 00d4 8DF80730 		strb	r3, [sp, #7]
 1356              	.L100:
 424:.\LCD.c       **** 			}			
 425:.\LCD.c       **** 			buffer[3]+=15;
ARM GAS  C:\Users\RECEPC~1\AppData\Local\Temp\ccohni6j.s 			page 33


 1357              		.loc 1 425 0 discriminator 2
 1358 00d8 9DF80730 		ldrb	r3, [sp, #7]	@ zero_extendqisi2
 1359 00dc 0F33     		adds	r3, r3, #15
 1360 00de 8DF80730 		strb	r3, [sp, #7]
 416:.\LCD.c       **** 			buffer[13]=rventa.lema1[x];			
 1361              		.loc 1 416 0 discriminator 2
 1362 00e2 074A     		ldr	r2, .L103+4
 1363 00e4 1368     		ldr	r3, [r2]
 1364 00e6 0133     		adds	r3, r3, #1
 1365 00e8 1360     		str	r3, [r2]
 1366              	.L97:
 416:.\LCD.c       **** 			buffer[13]=rventa.lema1[x];			
 1367              		.loc 1 416 0 is_stmt 0 discriminator 1
 1368 00ea 064B     		ldr	r3, .L103+8
 1369 00ec 93F86120 		ldrb	r2, [r3, #97]	@ zero_extendqisi2
 1370 00f0 034B     		ldr	r3, .L103+4
 1371 00f2 1B68     		ldr	r3, [r3]
 1372 00f4 9A42     		cmp	r2, r3
 1373 00f6 CDD2     		bcs	.L101
 1374              	.L89:
 426:.\LCD.c       **** 		}
 427:.\LCD.c       ****     }	
 428:.\LCD.c       **** }
 1375              		.loc 1 428 0 is_stmt 1
 1376 00f8 06B0     		add	sp, sp, #24
 1377              		.cfi_def_cfa_offset 16
 1378              		@ sp needed
 1379 00fa 70BD     		pop	{r4, r5, r6, pc}
 1380              	.L104:
 1381              		.align	2
 1382              	.L103:
 1383 00fc 00000000 		.word	.LANCHOR0
 1384 0100 00000000 		.word	x
 1385 0104 00000000 		.word	rventa
 1386 0108 00000000 		.word	y
 1387              		.cfi_endproc
 1388              	.LFE71:
 1389              		.size	lema1_LCD, .-lema1_LCD
 1390              		.section	.text.lema2_LCD,"ax",%progbits
 1391              		.align	2
 1392              		.global	lema2_LCD
 1393              		.thumb
 1394              		.thumb_func
 1395              		.type	lema2_LCD, %function
 1396              	lema2_LCD:
 1397              	.LFB72:
 429:.\LCD.c       **** 
 430:.\LCD.c       **** /*
 431:.\LCD.c       **** ***************************************************************************************************
 432:.\LCD.c       **** *                                 		void lema2_LCD(uint8 lcd)
 433:.\LCD.c       **** *
 434:.\LCD.c       **** * Description : 
 435:.\LCD.c       **** *               
 436:.\LCD.c       **** *
 437:.\LCD.c       **** * Argument(s) : none
 438:.\LCD.c       **** *
 439:.\LCD.c       **** * Return(s)   : none
ARM GAS  C:\Users\RECEPC~1\AppData\Local\Temp\ccohni6j.s 			page 34


 440:.\LCD.c       **** *
 441:.\LCD.c       **** * Caller(s)   : 
 442:.\LCD.c       **** *
 443:.\LCD.c       **** * Note(s)     : none.
 444:.\LCD.c       **** ***************************************************************************************************
 445:.\LCD.c       **** */
 446:.\LCD.c       **** void lema2_LCD(uint8 lcd){
 1398              		.loc 1 446 0
 1399              		.cfi_startproc
 1400              		@ args = 0, pretend = 0, frame = 24
 1401              		@ frame_needed = 0, uses_anonymous_args = 0
 1402              	.LVL94:
 1403 0000 70B5     		push	{r4, r5, r6, lr}
 1404              		.cfi_def_cfa_offset 16
 1405              		.cfi_offset 4, -16
 1406              		.cfi_offset 5, -12
 1407              		.cfi_offset 6, -8
 1408              		.cfi_offset 14, -4
 1409 0002 86B0     		sub	sp, sp, #24
 1410              		.cfi_def_cfa_offset 40
 1411 0004 0646     		mov	r6, r0
 447:.\LCD.c       **** 	uint8 buffer[18]={0xAA,0x98,0x00,0xA5,0x01,0x5F,0x23,0xC5,0x02,0x00,0x00,0xFF,0xFF,0x20,0xCC,0x33,
 1412              		.loc 1 447 0
 1413 0006 01AC     		add	r4, sp, #4
 1414 0008 3C4D     		ldr	r5, .L119
 1415 000a 55F89C0F 		ldr	r0, [r5, #156]!	@ unaligned
 1416              	.LVL95:
 1417 000e 6968     		ldr	r1, [r5, #4]	@ unaligned
 1418 0010 AA68     		ldr	r2, [r5, #8]	@ unaligned
 1419 0012 EB68     		ldr	r3, [r5, #12]	@ unaligned
 1420 0014 0FC4     		stmia	r4!, {r0, r1, r2, r3}
 1421 0016 2B8A     		ldrh	r3, [r5, #16]	@ unaligned
 1422 0018 2380     		strh	r3, [r4]	@ unaligned
 448:.\LCD.c       ****     if(lcd==1){
 1423              		.loc 1 448 0
 1424 001a 012E     		cmp	r6, #1
 1425 001c 36D1     		bne	.L106
 449:.\LCD.c       **** 		for(x=1;x<=rventa.lema2[0];x++){
 1426              		.loc 1 449 0
 1427 001e 0122     		movs	r2, #1
 1428 0020 374B     		ldr	r3, .L119+4
 1429 0022 1A60     		str	r2, [r3]
 1430 0024 2AE0     		b	.L107
 1431              	.L111:
 450:.\LCD.c       **** 			buffer[13]=rventa.lema2[x];			
 1432              		.loc 1 450 0
 1433 0026 374A     		ldr	r2, .L119+8
 1434 0028 1344     		add	r3, r3, r2
 1435 002a 93F87F30 		ldrb	r3, [r3, #127]	@ zero_extendqisi2
 1436 002e 8DF81130 		strb	r3, [sp, #17]
 451:.\LCD.c       **** 			for(y=0;y<=17;y++){
 1437              		.loc 1 451 0
 1438 0032 0022     		movs	r2, #0
 1439 0034 344B     		ldr	r3, .L119+12
 1440 0036 1A60     		str	r2, [r3]
 1441 0038 09E0     		b	.L108
 1442              	.L109:
ARM GAS  C:\Users\RECEPC~1\AppData\Local\Temp\ccohni6j.s 			page 35


 452:.\LCD.c       ****         		LCD_1_PutChar(buffer[y]);
 1443              		.loc 1 452 0 discriminator 3
 1444 003a 06AA     		add	r2, sp, #24
 1445 003c 1344     		add	r3, r3, r2
 1446 003e 13F8140C 		ldrb	r0, [r3, #-20]	@ zero_extendqisi2
 1447 0042 FFF7FEFF 		bl	LCD_1_PutChar
 1448              	.LVL96:
 451:.\LCD.c       **** 			for(y=0;y<=17;y++){
 1449              		.loc 1 451 0 discriminator 3
 1450 0046 304A     		ldr	r2, .L119+12
 1451 0048 1368     		ldr	r3, [r2]
 1452 004a 0133     		adds	r3, r3, #1
 1453 004c 1360     		str	r3, [r2]
 1454              	.L108:
 451:.\LCD.c       **** 			for(y=0;y<=17;y++){
 1455              		.loc 1 451 0 is_stmt 0 discriminator 1
 1456 004e 2E4B     		ldr	r3, .L119+12
 1457 0050 1B68     		ldr	r3, [r3]
 1458 0052 112B     		cmp	r3, #17
 1459 0054 F1D9     		bls	.L109
 453:.\LCD.c       **** 			}
 454:.\LCD.c       **** 			if(buffer[3]==0xFF){
 1460              		.loc 1 454 0 is_stmt 1
 1461 0056 9DF80730 		ldrb	r3, [sp, #7]	@ zero_extendqisi2
 1462 005a FF2B     		cmp	r3, #255
 1463 005c 05D1     		bne	.L110
 455:.\LCD.c       **** 				buffer[2]=0x01;
 1464              		.loc 1 455 0
 1465 005e 0123     		movs	r3, #1
 1466 0060 8DF80630 		strb	r3, [sp, #6]
 456:.\LCD.c       **** 				buffer[3]=0x00;
 1467              		.loc 1 456 0
 1468 0064 0023     		movs	r3, #0
 1469 0066 8DF80730 		strb	r3, [sp, #7]
 1470              	.L110:
 457:.\LCD.c       **** 			}			
 458:.\LCD.c       **** 			buffer[3]+=15;
 1471              		.loc 1 458 0 discriminator 2
 1472 006a 9DF80730 		ldrb	r3, [sp, #7]	@ zero_extendqisi2
 1473 006e 0F33     		adds	r3, r3, #15
 1474 0070 8DF80730 		strb	r3, [sp, #7]
 449:.\LCD.c       **** 			buffer[13]=rventa.lema2[x];			
 1475              		.loc 1 449 0 discriminator 2
 1476 0074 224A     		ldr	r2, .L119+4
 1477 0076 1368     		ldr	r3, [r2]
 1478 0078 0133     		adds	r3, r3, #1
 1479 007a 1360     		str	r3, [r2]
 1480              	.L107:
 449:.\LCD.c       **** 			buffer[13]=rventa.lema2[x];			
 1481              		.loc 1 449 0 is_stmt 0 discriminator 1
 1482 007c 214B     		ldr	r3, .L119+8
 1483 007e 93F87F20 		ldrb	r2, [r3, #127]	@ zero_extendqisi2
 1484 0082 1F4B     		ldr	r3, .L119+4
 1485 0084 1B68     		ldr	r3, [r3]
 1486 0086 9A42     		cmp	r2, r3
 1487 0088 CDD2     		bcs	.L111
 1488 008a 35E0     		b	.L105
ARM GAS  C:\Users\RECEPC~1\AppData\Local\Temp\ccohni6j.s 			page 36


 1489              	.L106:
 459:.\LCD.c       **** 		}
 460:.\LCD.c       ****     }
 461:.\LCD.c       ****     else{
 462:.\LCD.c       **** 		for(x=1;x<=rventa.lema2[0];x++){
 1490              		.loc 1 462 0 is_stmt 1
 1491 008c 0122     		movs	r2, #1
 1492 008e 1C4B     		ldr	r3, .L119+4
 1493 0090 1A60     		str	r2, [r3]
 1494 0092 2AE0     		b	.L113
 1495              	.L117:
 463:.\LCD.c       **** 			buffer[13]=rventa.lema2[x];			
 1496              		.loc 1 463 0
 1497 0094 1B4A     		ldr	r2, .L119+8
 1498 0096 1344     		add	r3, r3, r2
 1499 0098 93F87F30 		ldrb	r3, [r3, #127]	@ zero_extendqisi2
 1500 009c 8DF81130 		strb	r3, [sp, #17]
 464:.\LCD.c       **** 			for(y=0;y<=17;y++){
 1501              		.loc 1 464 0
 1502 00a0 0022     		movs	r2, #0
 1503 00a2 194B     		ldr	r3, .L119+12
 1504 00a4 1A60     		str	r2, [r3]
 1505 00a6 09E0     		b	.L114
 1506              	.L115:
 465:.\LCD.c       ****         		LCD_2_PutChar(buffer[y]);
 1507              		.loc 1 465 0 discriminator 3
 1508 00a8 06AA     		add	r2, sp, #24
 1509 00aa 1344     		add	r3, r3, r2
 1510 00ac 13F8140C 		ldrb	r0, [r3, #-20]	@ zero_extendqisi2
 1511 00b0 FFF7FEFF 		bl	LCD_2_PutChar
 1512              	.LVL97:
 464:.\LCD.c       **** 			for(y=0;y<=17;y++){
 1513              		.loc 1 464 0 discriminator 3
 1514 00b4 144A     		ldr	r2, .L119+12
 1515 00b6 1368     		ldr	r3, [r2]
 1516 00b8 0133     		adds	r3, r3, #1
 1517 00ba 1360     		str	r3, [r2]
 1518              	.L114:
 464:.\LCD.c       **** 			for(y=0;y<=17;y++){
 1519              		.loc 1 464 0 is_stmt 0 discriminator 1
 1520 00bc 124B     		ldr	r3, .L119+12
 1521 00be 1B68     		ldr	r3, [r3]
 1522 00c0 112B     		cmp	r3, #17
 1523 00c2 F1D9     		bls	.L115
 466:.\LCD.c       **** 			}
 467:.\LCD.c       **** 			if(buffer[3]==0xFF){
 1524              		.loc 1 467 0 is_stmt 1
 1525 00c4 9DF80730 		ldrb	r3, [sp, #7]	@ zero_extendqisi2
 1526 00c8 FF2B     		cmp	r3, #255
 1527 00ca 05D1     		bne	.L116
 468:.\LCD.c       **** 				buffer[2]=0x01;
 1528              		.loc 1 468 0
 1529 00cc 0123     		movs	r3, #1
 1530 00ce 8DF80630 		strb	r3, [sp, #6]
 469:.\LCD.c       **** 				buffer[3]=0x00;
 1531              		.loc 1 469 0
 1532 00d2 0023     		movs	r3, #0
ARM GAS  C:\Users\RECEPC~1\AppData\Local\Temp\ccohni6j.s 			page 37


 1533 00d4 8DF80730 		strb	r3, [sp, #7]
 1534              	.L116:
 470:.\LCD.c       **** 			}			
 471:.\LCD.c       **** 			buffer[3]+=15;
 1535              		.loc 1 471 0 discriminator 2
 1536 00d8 9DF80730 		ldrb	r3, [sp, #7]	@ zero_extendqisi2
 1537 00dc 0F33     		adds	r3, r3, #15
 1538 00de 8DF80730 		strb	r3, [sp, #7]
 462:.\LCD.c       **** 			buffer[13]=rventa.lema2[x];			
 1539              		.loc 1 462 0 discriminator 2
 1540 00e2 074A     		ldr	r2, .L119+4
 1541 00e4 1368     		ldr	r3, [r2]
 1542 00e6 0133     		adds	r3, r3, #1
 1543 00e8 1360     		str	r3, [r2]
 1544              	.L113:
 462:.\LCD.c       **** 			buffer[13]=rventa.lema2[x];			
 1545              		.loc 1 462 0 is_stmt 0 discriminator 1
 1546 00ea 064B     		ldr	r3, .L119+8
 1547 00ec 93F87F20 		ldrb	r2, [r3, #127]	@ zero_extendqisi2
 1548 00f0 034B     		ldr	r3, .L119+4
 1549 00f2 1B68     		ldr	r3, [r3]
 1550 00f4 9A42     		cmp	r2, r3
 1551 00f6 CDD2     		bcs	.L117
 1552              	.L105:
 472:.\LCD.c       **** 		}
 473:.\LCD.c       ****     }	
 474:.\LCD.c       **** }
 1553              		.loc 1 474 0 is_stmt 1
 1554 00f8 06B0     		add	sp, sp, #24
 1555              		.cfi_def_cfa_offset 16
 1556              		@ sp needed
 1557 00fa 70BD     		pop	{r4, r5, r6, pc}
 1558              	.L120:
 1559              		.align	2
 1560              	.L119:
 1561 00fc 00000000 		.word	.LANCHOR0
 1562 0100 00000000 		.word	x
 1563 0104 00000000 		.word	rventa
 1564 0108 00000000 		.word	y
 1565              		.cfi_endproc
 1566              	.LFE72:
 1567              		.size	lema2_LCD, .-lema2_LCD
 1568              		.section	.text.telefono_LCD,"ax",%progbits
 1569              		.align	2
 1570              		.global	telefono_LCD
 1571              		.thumb
 1572              		.thumb_func
 1573              		.type	telefono_LCD, %function
 1574              	telefono_LCD:
 1575              	.LFB73:
 475:.\LCD.c       **** 
 476:.\LCD.c       **** /*
 477:.\LCD.c       **** ***************************************************************************************************
 478:.\LCD.c       **** *                                 			void telefono_LCD(uint8 lcd)
 479:.\LCD.c       **** *
 480:.\LCD.c       **** * Description : 
 481:.\LCD.c       **** *               
ARM GAS  C:\Users\RECEPC~1\AppData\Local\Temp\ccohni6j.s 			page 38


 482:.\LCD.c       **** *
 483:.\LCD.c       **** * Argument(s) : none
 484:.\LCD.c       **** *
 485:.\LCD.c       **** * Return(s)   : none
 486:.\LCD.c       **** *
 487:.\LCD.c       **** * Caller(s)   : 
 488:.\LCD.c       **** *
 489:.\LCD.c       **** * Note(s)     : none.
 490:.\LCD.c       **** ***************************************************************************************************
 491:.\LCD.c       **** */
 492:.\LCD.c       **** void telefono_LCD(uint8 lcd){
 1576              		.loc 1 492 0
 1577              		.cfi_startproc
 1578              		@ args = 0, pretend = 0, frame = 24
 1579              		@ frame_needed = 0, uses_anonymous_args = 0
 1580              	.LVL98:
 1581 0000 70B5     		push	{r4, r5, r6, lr}
 1582              		.cfi_def_cfa_offset 16
 1583              		.cfi_offset 4, -16
 1584              		.cfi_offset 5, -12
 1585              		.cfi_offset 6, -8
 1586              		.cfi_offset 14, -4
 1587 0002 86B0     		sub	sp, sp, #24
 1588              		.cfi_def_cfa_offset 40
 1589 0004 0646     		mov	r6, r0
 493:.\LCD.c       **** 	uint8 buffer[18]={0xAA,0x98,0x00,0xA5,0x00,0xEE,0x23,0xC5,0x02,0x00,0x00,0xFF,0xFF,0x20,0xCC,0x33,
 1590              		.loc 1 493 0
 1591 0006 01AC     		add	r4, sp, #4
 1592 0008 3C4D     		ldr	r5, .L135
 1593 000a 55F8B00F 		ldr	r0, [r5, #176]!	@ unaligned
 1594              	.LVL99:
 1595 000e 6968     		ldr	r1, [r5, #4]	@ unaligned
 1596 0010 AA68     		ldr	r2, [r5, #8]	@ unaligned
 1597 0012 EB68     		ldr	r3, [r5, #12]	@ unaligned
 1598 0014 0FC4     		stmia	r4!, {r0, r1, r2, r3}
 1599 0016 2B8A     		ldrh	r3, [r5, #16]	@ unaligned
 1600 0018 2380     		strh	r3, [r4]	@ unaligned
 494:.\LCD.c       ****     if(lcd==1){
 1601              		.loc 1 494 0
 1602 001a 012E     		cmp	r6, #1
 1603 001c 36D1     		bne	.L122
 495:.\LCD.c       **** 		for(x=1;x<=rventa.telefono[0];x++){
 1604              		.loc 1 495 0
 1605 001e 0122     		movs	r2, #1
 1606 0020 374B     		ldr	r3, .L135+4
 1607 0022 1A60     		str	r2, [r3]
 1608 0024 2AE0     		b	.L123
 1609              	.L127:
 496:.\LCD.c       **** 			buffer[13]=rventa.telefono[x];			
 1610              		.loc 1 496 0
 1611 0026 374A     		ldr	r2, .L135+8
 1612 0028 1344     		add	r3, r3, r2
 1613 002a 93F82F30 		ldrb	r3, [r3, #47]	@ zero_extendqisi2
 1614 002e 8DF81130 		strb	r3, [sp, #17]
 497:.\LCD.c       **** 			for(y=0;y<=17;y++){
 1615              		.loc 1 497 0
 1616 0032 0022     		movs	r2, #0
ARM GAS  C:\Users\RECEPC~1\AppData\Local\Temp\ccohni6j.s 			page 39


 1617 0034 344B     		ldr	r3, .L135+12
 1618 0036 1A60     		str	r2, [r3]
 1619 0038 09E0     		b	.L124
 1620              	.L125:
 498:.\LCD.c       ****         		LCD_1_PutChar(buffer[y]);
 1621              		.loc 1 498 0 discriminator 3
 1622 003a 06AA     		add	r2, sp, #24
 1623 003c 1344     		add	r3, r3, r2
 1624 003e 13F8140C 		ldrb	r0, [r3, #-20]	@ zero_extendqisi2
 1625 0042 FFF7FEFF 		bl	LCD_1_PutChar
 1626              	.LVL100:
 497:.\LCD.c       **** 			for(y=0;y<=17;y++){
 1627              		.loc 1 497 0 discriminator 3
 1628 0046 304A     		ldr	r2, .L135+12
 1629 0048 1368     		ldr	r3, [r2]
 1630 004a 0133     		adds	r3, r3, #1
 1631 004c 1360     		str	r3, [r2]
 1632              	.L124:
 497:.\LCD.c       **** 			for(y=0;y<=17;y++){
 1633              		.loc 1 497 0 is_stmt 0 discriminator 1
 1634 004e 2E4B     		ldr	r3, .L135+12
 1635 0050 1B68     		ldr	r3, [r3]
 1636 0052 112B     		cmp	r3, #17
 1637 0054 F1D9     		bls	.L125
 499:.\LCD.c       **** 			}
 500:.\LCD.c       **** 			if(buffer[3]==0xFF){
 1638              		.loc 1 500 0 is_stmt 1
 1639 0056 9DF80730 		ldrb	r3, [sp, #7]	@ zero_extendqisi2
 1640 005a FF2B     		cmp	r3, #255
 1641 005c 05D1     		bne	.L126
 501:.\LCD.c       **** 				buffer[2]=0x01;
 1642              		.loc 1 501 0
 1643 005e 0123     		movs	r3, #1
 1644 0060 8DF80630 		strb	r3, [sp, #6]
 502:.\LCD.c       **** 				buffer[3]=0x00;
 1645              		.loc 1 502 0
 1646 0064 0023     		movs	r3, #0
 1647 0066 8DF80730 		strb	r3, [sp, #7]
 1648              	.L126:
 503:.\LCD.c       **** 			}			
 504:.\LCD.c       **** 			buffer[3]+=15;
 1649              		.loc 1 504 0 discriminator 2
 1650 006a 9DF80730 		ldrb	r3, [sp, #7]	@ zero_extendqisi2
 1651 006e 0F33     		adds	r3, r3, #15
 1652 0070 8DF80730 		strb	r3, [sp, #7]
 495:.\LCD.c       **** 			buffer[13]=rventa.telefono[x];			
 1653              		.loc 1 495 0 discriminator 2
 1654 0074 224A     		ldr	r2, .L135+4
 1655 0076 1368     		ldr	r3, [r2]
 1656 0078 0133     		adds	r3, r3, #1
 1657 007a 1360     		str	r3, [r2]
 1658              	.L123:
 495:.\LCD.c       **** 			buffer[13]=rventa.telefono[x];			
 1659              		.loc 1 495 0 is_stmt 0 discriminator 1
 1660 007c 214B     		ldr	r3, .L135+8
 1661 007e 93F82F20 		ldrb	r2, [r3, #47]	@ zero_extendqisi2
 1662 0082 1F4B     		ldr	r3, .L135+4
ARM GAS  C:\Users\RECEPC~1\AppData\Local\Temp\ccohni6j.s 			page 40


 1663 0084 1B68     		ldr	r3, [r3]
 1664 0086 9A42     		cmp	r2, r3
 1665 0088 CDD2     		bcs	.L127
 1666 008a 35E0     		b	.L121
 1667              	.L122:
 505:.\LCD.c       **** 		}
 506:.\LCD.c       ****     }
 507:.\LCD.c       ****     else{
 508:.\LCD.c       **** 		for(x=1;x<=rventa.telefono[0];x++){
 1668              		.loc 1 508 0 is_stmt 1
 1669 008c 0122     		movs	r2, #1
 1670 008e 1C4B     		ldr	r3, .L135+4
 1671 0090 1A60     		str	r2, [r3]
 1672 0092 2AE0     		b	.L129
 1673              	.L133:
 509:.\LCD.c       **** 			buffer[13]=rventa.telefono[x];			
 1674              		.loc 1 509 0
 1675 0094 1B4A     		ldr	r2, .L135+8
 1676 0096 1344     		add	r3, r3, r2
 1677 0098 93F82F30 		ldrb	r3, [r3, #47]	@ zero_extendqisi2
 1678 009c 8DF81130 		strb	r3, [sp, #17]
 510:.\LCD.c       **** 			for(y=0;y<=17;y++){
 1679              		.loc 1 510 0
 1680 00a0 0022     		movs	r2, #0
 1681 00a2 194B     		ldr	r3, .L135+12
 1682 00a4 1A60     		str	r2, [r3]
 1683 00a6 09E0     		b	.L130
 1684              	.L131:
 511:.\LCD.c       ****         		LCD_2_PutChar(buffer[y]);
 1685              		.loc 1 511 0 discriminator 3
 1686 00a8 06AA     		add	r2, sp, #24
 1687 00aa 1344     		add	r3, r3, r2
 1688 00ac 13F8140C 		ldrb	r0, [r3, #-20]	@ zero_extendqisi2
 1689 00b0 FFF7FEFF 		bl	LCD_2_PutChar
 1690              	.LVL101:
 510:.\LCD.c       **** 			for(y=0;y<=17;y++){
 1691              		.loc 1 510 0 discriminator 3
 1692 00b4 144A     		ldr	r2, .L135+12
 1693 00b6 1368     		ldr	r3, [r2]
 1694 00b8 0133     		adds	r3, r3, #1
 1695 00ba 1360     		str	r3, [r2]
 1696              	.L130:
 510:.\LCD.c       **** 			for(y=0;y<=17;y++){
 1697              		.loc 1 510 0 is_stmt 0 discriminator 1
 1698 00bc 124B     		ldr	r3, .L135+12
 1699 00be 1B68     		ldr	r3, [r3]
 1700 00c0 112B     		cmp	r3, #17
 1701 00c2 F1D9     		bls	.L131
 512:.\LCD.c       **** 			}
 513:.\LCD.c       **** 			if(buffer[3]==0xFF){
 1702              		.loc 1 513 0 is_stmt 1
 1703 00c4 9DF80730 		ldrb	r3, [sp, #7]	@ zero_extendqisi2
 1704 00c8 FF2B     		cmp	r3, #255
 1705 00ca 05D1     		bne	.L132
 514:.\LCD.c       **** 				buffer[2]=0x01;
 1706              		.loc 1 514 0
 1707 00cc 0123     		movs	r3, #1
ARM GAS  C:\Users\RECEPC~1\AppData\Local\Temp\ccohni6j.s 			page 41


 1708 00ce 8DF80630 		strb	r3, [sp, #6]
 515:.\LCD.c       **** 				buffer[3]=0x00;
 1709              		.loc 1 515 0
 1710 00d2 0023     		movs	r3, #0
 1711 00d4 8DF80730 		strb	r3, [sp, #7]
 1712              	.L132:
 516:.\LCD.c       **** 			}			
 517:.\LCD.c       **** 			buffer[3]+=15;
 1713              		.loc 1 517 0 discriminator 2
 1714 00d8 9DF80730 		ldrb	r3, [sp, #7]	@ zero_extendqisi2
 1715 00dc 0F33     		adds	r3, r3, #15
 1716 00de 8DF80730 		strb	r3, [sp, #7]
 508:.\LCD.c       **** 			buffer[13]=rventa.telefono[x];			
 1717              		.loc 1 508 0 discriminator 2
 1718 00e2 074A     		ldr	r2, .L135+4
 1719 00e4 1368     		ldr	r3, [r2]
 1720 00e6 0133     		adds	r3, r3, #1
 1721 00e8 1360     		str	r3, [r2]
 1722              	.L129:
 508:.\LCD.c       **** 			buffer[13]=rventa.telefono[x];			
 1723              		.loc 1 508 0 is_stmt 0 discriminator 1
 1724 00ea 064B     		ldr	r3, .L135+8
 1725 00ec 93F82F20 		ldrb	r2, [r3, #47]	@ zero_extendqisi2
 1726 00f0 034B     		ldr	r3, .L135+4
 1727 00f2 1B68     		ldr	r3, [r3]
 1728 00f4 9A42     		cmp	r2, r3
 1729 00f6 CDD2     		bcs	.L133
 1730              	.L121:
 518:.\LCD.c       **** 		}
 519:.\LCD.c       ****     }	
 520:.\LCD.c       **** }
 1731              		.loc 1 520 0 is_stmt 1
 1732 00f8 06B0     		add	sp, sp, #24
 1733              		.cfi_def_cfa_offset 16
 1734              		@ sp needed
 1735 00fa 70BD     		pop	{r4, r5, r6, pc}
 1736              	.L136:
 1737              		.align	2
 1738              	.L135:
 1739 00fc 00000000 		.word	.LANCHOR0
 1740 0100 00000000 		.word	x
 1741 0104 00000000 		.word	rventa
 1742 0108 00000000 		.word	y
 1743              		.cfi_endproc
 1744              	.LFE73:
 1745              		.size	telefono_LCD, .-telefono_LCD
 1746              		.section	.text.nit_LCD,"ax",%progbits
 1747              		.align	2
 1748              		.global	nit_LCD
 1749              		.thumb
 1750              		.thumb_func
 1751              		.type	nit_LCD, %function
 1752              	nit_LCD:
 1753              	.LFB74:
 521:.\LCD.c       **** 
 522:.\LCD.c       **** /*
 523:.\LCD.c       **** ***************************************************************************************************
ARM GAS  C:\Users\RECEPC~1\AppData\Local\Temp\ccohni6j.s 			page 42


 524:.\LCD.c       **** *                                 			void nit_LCD(uint8 lcd)
 525:.\LCD.c       **** *
 526:.\LCD.c       **** * Description : 
 527:.\LCD.c       **** *               
 528:.\LCD.c       **** *
 529:.\LCD.c       **** * Argument(s) : none
 530:.\LCD.c       **** *
 531:.\LCD.c       **** * Return(s)   : none
 532:.\LCD.c       **** *
 533:.\LCD.c       **** * Caller(s)   : 
 534:.\LCD.c       **** *
 535:.\LCD.c       **** * Note(s)     : none.
 536:.\LCD.c       **** ***************************************************************************************************
 537:.\LCD.c       **** */
 538:.\LCD.c       **** void nit_LCD(uint8 lcd){
 1754              		.loc 1 538 0
 1755              		.cfi_startproc
 1756              		@ args = 0, pretend = 0, frame = 24
 1757              		@ frame_needed = 0, uses_anonymous_args = 0
 1758              	.LVL102:
 1759 0000 70B5     		push	{r4, r5, r6, lr}
 1760              		.cfi_def_cfa_offset 16
 1761              		.cfi_offset 4, -16
 1762              		.cfi_offset 5, -12
 1763              		.cfi_offset 6, -8
 1764              		.cfi_offset 14, -4
 1765 0002 86B0     		sub	sp, sp, #24
 1766              		.cfi_def_cfa_offset 40
 1767 0004 0646     		mov	r6, r0
 539:.\LCD.c       **** 	uint8 buffer[18]={0xAA,0x98,0x00,0xA5,0x01,0x99,0x23,0xC5,0x02,0x00,0x00,0xFF,0xFF,0x20,0xCC,0x33,
 1768              		.loc 1 539 0
 1769 0006 01AC     		add	r4, sp, #4
 1770 0008 3C4D     		ldr	r5, .L151
 1771 000a 55F8C40F 		ldr	r0, [r5, #196]!	@ unaligned
 1772              	.LVL103:
 1773 000e 6968     		ldr	r1, [r5, #4]	@ unaligned
 1774 0010 AA68     		ldr	r2, [r5, #8]	@ unaligned
 1775 0012 EB68     		ldr	r3, [r5, #12]	@ unaligned
 1776 0014 0FC4     		stmia	r4!, {r0, r1, r2, r3}
 1777 0016 2B8A     		ldrh	r3, [r5, #16]	@ unaligned
 1778 0018 2380     		strh	r3, [r4]	@ unaligned
 540:.\LCD.c       ****     if(lcd==1){
 1779              		.loc 1 540 0
 1780 001a 012E     		cmp	r6, #1
 1781 001c 36D1     		bne	.L138
 541:.\LCD.c       **** 		for(x=1;(x<=rventa.nit[0]&&x<=19);x++){
 1782              		.loc 1 541 0
 1783 001e 0122     		movs	r2, #1
 1784 0020 374B     		ldr	r3, .L151+4
 1785 0022 1A60     		str	r2, [r3]
 1786 0024 29E0     		b	.L139
 1787              	.L144:
 542:.\LCD.c       **** 			buffer[13]=rventa.nit[x];			
 1788              		.loc 1 542 0
 1789 0026 374A     		ldr	r2, .L151+8
 1790 0028 1344     		add	r3, r3, r2
 1791 002a 9B7F     		ldrb	r3, [r3, #30]	@ zero_extendqisi2
ARM GAS  C:\Users\RECEPC~1\AppData\Local\Temp\ccohni6j.s 			page 43


 1792 002c 8DF81130 		strb	r3, [sp, #17]
 543:.\LCD.c       **** 			for(y=0;y<=17;y++){
 1793              		.loc 1 543 0
 1794 0030 0022     		movs	r2, #0
 1795 0032 354B     		ldr	r3, .L151+12
 1796 0034 1A60     		str	r2, [r3]
 1797 0036 09E0     		b	.L140
 1798              	.L141:
 544:.\LCD.c       ****         		LCD_1_PutChar(buffer[y]);
 1799              		.loc 1 544 0 discriminator 3
 1800 0038 06AA     		add	r2, sp, #24
 1801 003a 1344     		add	r3, r3, r2
 1802 003c 13F8140C 		ldrb	r0, [r3, #-20]	@ zero_extendqisi2
 1803 0040 FFF7FEFF 		bl	LCD_1_PutChar
 1804              	.LVL104:
 543:.\LCD.c       **** 			for(y=0;y<=17;y++){
 1805              		.loc 1 543 0 discriminator 3
 1806 0044 304A     		ldr	r2, .L151+12
 1807 0046 1368     		ldr	r3, [r2]
 1808 0048 0133     		adds	r3, r3, #1
 1809 004a 1360     		str	r3, [r2]
 1810              	.L140:
 543:.\LCD.c       **** 			for(y=0;y<=17;y++){
 1811              		.loc 1 543 0 is_stmt 0 discriminator 1
 1812 004c 2E4B     		ldr	r3, .L151+12
 1813 004e 1B68     		ldr	r3, [r3]
 1814 0050 112B     		cmp	r3, #17
 1815 0052 F1D9     		bls	.L141
 545:.\LCD.c       **** 			}
 546:.\LCD.c       **** 			if(buffer[3]==0xFF){
 1816              		.loc 1 546 0 is_stmt 1
 1817 0054 9DF80730 		ldrb	r3, [sp, #7]	@ zero_extendqisi2
 1818 0058 FF2B     		cmp	r3, #255
 1819 005a 05D1     		bne	.L142
 547:.\LCD.c       **** 				buffer[2]=0x01;
 1820              		.loc 1 547 0
 1821 005c 0123     		movs	r3, #1
 1822 005e 8DF80630 		strb	r3, [sp, #6]
 548:.\LCD.c       **** 				buffer[3]=0x00;
 1823              		.loc 1 548 0
 1824 0062 0023     		movs	r3, #0
 1825 0064 8DF80730 		strb	r3, [sp, #7]
 1826              	.L142:
 549:.\LCD.c       **** 			}			
 550:.\LCD.c       **** 			buffer[3]+=15;
 1827              		.loc 1 550 0 discriminator 2
 1828 0068 9DF80730 		ldrb	r3, [sp, #7]	@ zero_extendqisi2
 1829 006c 0F33     		adds	r3, r3, #15
 1830 006e 8DF80730 		strb	r3, [sp, #7]
 541:.\LCD.c       **** 			buffer[13]=rventa.nit[x];			
 1831              		.loc 1 541 0 discriminator 2
 1832 0072 234A     		ldr	r2, .L151+4
 1833 0074 1368     		ldr	r3, [r2]
 1834 0076 0133     		adds	r3, r3, #1
 1835 0078 1360     		str	r3, [r2]
 1836              	.L139:
 541:.\LCD.c       **** 			buffer[13]=rventa.nit[x];			
ARM GAS  C:\Users\RECEPC~1\AppData\Local\Temp\ccohni6j.s 			page 44


 1837              		.loc 1 541 0 is_stmt 0 discriminator 1
 1838 007a 224B     		ldr	r3, .L151+8
 1839 007c 9A7F     		ldrb	r2, [r3, #30]	@ zero_extendqisi2
 1840 007e 204B     		ldr	r3, .L151+4
 1841 0080 1B68     		ldr	r3, [r3]
 1842 0082 9A42     		cmp	r2, r3
 1843 0084 38D3     		bcc	.L137
 541:.\LCD.c       **** 			buffer[13]=rventa.nit[x];			
 1844              		.loc 1 541 0 discriminator 3
 1845 0086 132B     		cmp	r3, #19
 1846 0088 CDD9     		bls	.L144
 1847 008a 35E0     		b	.L137
 1848              	.L138:
 551:.\LCD.c       **** 		}
 552:.\LCD.c       ****     }
 553:.\LCD.c       ****     else{
 554:.\LCD.c       **** 		for(x=1;(x<=rventa.nit[0]&&x<=19);x++){
 1849              		.loc 1 554 0 is_stmt 1
 1850 008c 0122     		movs	r2, #1
 1851 008e 1C4B     		ldr	r3, .L151+4
 1852 0090 1A60     		str	r2, [r3]
 1853 0092 29E0     		b	.L145
 1854              	.L149:
 555:.\LCD.c       **** 			buffer[13]=rventa.nit[x];			
 1855              		.loc 1 555 0
 1856 0094 1B4A     		ldr	r2, .L151+8
 1857 0096 1344     		add	r3, r3, r2
 1858 0098 9B7F     		ldrb	r3, [r3, #30]	@ zero_extendqisi2
 1859 009a 8DF81130 		strb	r3, [sp, #17]
 556:.\LCD.c       **** 			for(y=0;y<=17;y++){
 1860              		.loc 1 556 0
 1861 009e 0022     		movs	r2, #0
 1862 00a0 194B     		ldr	r3, .L151+12
 1863 00a2 1A60     		str	r2, [r3]
 1864 00a4 09E0     		b	.L146
 1865              	.L147:
 557:.\LCD.c       ****         		LCD_2_PutChar(buffer[y]);
 1866              		.loc 1 557 0 discriminator 3
 1867 00a6 06AA     		add	r2, sp, #24
 1868 00a8 1344     		add	r3, r3, r2
 1869 00aa 13F8140C 		ldrb	r0, [r3, #-20]	@ zero_extendqisi2
 1870 00ae FFF7FEFF 		bl	LCD_2_PutChar
 1871              	.LVL105:
 556:.\LCD.c       **** 			for(y=0;y<=17;y++){
 1872              		.loc 1 556 0 discriminator 3
 1873 00b2 154A     		ldr	r2, .L151+12
 1874 00b4 1368     		ldr	r3, [r2]
 1875 00b6 0133     		adds	r3, r3, #1
 1876 00b8 1360     		str	r3, [r2]
 1877              	.L146:
 556:.\LCD.c       **** 			for(y=0;y<=17;y++){
 1878              		.loc 1 556 0 is_stmt 0 discriminator 1
 1879 00ba 134B     		ldr	r3, .L151+12
 1880 00bc 1B68     		ldr	r3, [r3]
 1881 00be 112B     		cmp	r3, #17
 1882 00c0 F1D9     		bls	.L147
 558:.\LCD.c       **** 			}
ARM GAS  C:\Users\RECEPC~1\AppData\Local\Temp\ccohni6j.s 			page 45


 559:.\LCD.c       **** 			if(buffer[3]==0xFF){
 1883              		.loc 1 559 0 is_stmt 1
 1884 00c2 9DF80730 		ldrb	r3, [sp, #7]	@ zero_extendqisi2
 1885 00c6 FF2B     		cmp	r3, #255
 1886 00c8 05D1     		bne	.L148
 560:.\LCD.c       **** 				buffer[2]=0x01;
 1887              		.loc 1 560 0
 1888 00ca 0123     		movs	r3, #1
 1889 00cc 8DF80630 		strb	r3, [sp, #6]
 561:.\LCD.c       **** 				buffer[3]=0x00;
 1890              		.loc 1 561 0
 1891 00d0 0023     		movs	r3, #0
 1892 00d2 8DF80730 		strb	r3, [sp, #7]
 1893              	.L148:
 562:.\LCD.c       **** 			}			
 563:.\LCD.c       **** 			buffer[3]+=15;
 1894              		.loc 1 563 0 discriminator 2
 1895 00d6 9DF80730 		ldrb	r3, [sp, #7]	@ zero_extendqisi2
 1896 00da 0F33     		adds	r3, r3, #15
 1897 00dc 8DF80730 		strb	r3, [sp, #7]
 554:.\LCD.c       **** 			buffer[13]=rventa.nit[x];			
 1898              		.loc 1 554 0 discriminator 2
 1899 00e0 074A     		ldr	r2, .L151+4
 1900 00e2 1368     		ldr	r3, [r2]
 1901 00e4 0133     		adds	r3, r3, #1
 1902 00e6 1360     		str	r3, [r2]
 1903              	.L145:
 554:.\LCD.c       **** 			buffer[13]=rventa.nit[x];			
 1904              		.loc 1 554 0 is_stmt 0 discriminator 1
 1905 00e8 064B     		ldr	r3, .L151+8
 1906 00ea 9A7F     		ldrb	r2, [r3, #30]	@ zero_extendqisi2
 1907 00ec 044B     		ldr	r3, .L151+4
 1908 00ee 1B68     		ldr	r3, [r3]
 1909 00f0 9A42     		cmp	r2, r3
 1910 00f2 01D3     		bcc	.L137
 554:.\LCD.c       **** 			buffer[13]=rventa.nit[x];			
 1911              		.loc 1 554 0 discriminator 3
 1912 00f4 132B     		cmp	r3, #19
 1913 00f6 CDD9     		bls	.L149
 1914              	.L137:
 564:.\LCD.c       **** 		}
 565:.\LCD.c       ****     }	
 566:.\LCD.c       **** }
 1915              		.loc 1 566 0 is_stmt 1
 1916 00f8 06B0     		add	sp, sp, #24
 1917              		.cfi_def_cfa_offset 16
 1918              		@ sp needed
 1919 00fa 70BD     		pop	{r4, r5, r6, pc}
 1920              	.L152:
 1921              		.align	2
 1922              	.L151:
 1923 00fc 00000000 		.word	.LANCHOR0
 1924 0100 00000000 		.word	x
 1925 0104 00000000 		.word	rventa
 1926 0108 00000000 		.word	y
 1927              		.cfi_endproc
 1928              	.LFE74:
ARM GAS  C:\Users\RECEPC~1\AppData\Local\Temp\ccohni6j.s 			page 46


 1929              		.size	nit_LCD, .-nit_LCD
 1930              		.section	.text.Cuenta_LCD,"ax",%progbits
 1931              		.align	2
 1932              		.global	Cuenta_LCD
 1933              		.thumb
 1934              		.thumb_func
 1935              		.type	Cuenta_LCD, %function
 1936              	Cuenta_LCD:
 1937              	.LFB75:
 567:.\LCD.c       **** 
 568:.\LCD.c       **** /*
 569:.\LCD.c       **** ***************************************************************************************************
 570:.\LCD.c       **** *                                 			void Cuenta_LCD(uint8 lcd)
 571:.\LCD.c       **** *
 572:.\LCD.c       **** * Description : 
 573:.\LCD.c       **** *               
 574:.\LCD.c       **** *
 575:.\LCD.c       **** * Argument(s) : none
 576:.\LCD.c       **** *
 577:.\LCD.c       **** * Return(s)   : none
 578:.\LCD.c       **** *
 579:.\LCD.c       **** * Caller(s)   : 
 580:.\LCD.c       **** *
 581:.\LCD.c       **** * Note(s)     : none.
 582:.\LCD.c       **** ***************************************************************************************************
 583:.\LCD.c       **** */
 584:.\LCD.c       **** void Cuenta_LCD(uint8 lcd){
 1938              		.loc 1 584 0
 1939              		.cfi_startproc
 1940              		@ args = 0, pretend = 0, frame = 24
 1941              		@ frame_needed = 0, uses_anonymous_args = 0
 1942              	.LVL106:
 1943 0000 70B5     		push	{r4, r5, r6, lr}
 1944              		.cfi_def_cfa_offset 16
 1945              		.cfi_offset 4, -16
 1946              		.cfi_offset 5, -12
 1947              		.cfi_offset 6, -8
 1948              		.cfi_offset 14, -4
 1949 0002 86B0     		sub	sp, sp, #24
 1950              		.cfi_def_cfa_offset 40
 1951 0004 0646     		mov	r6, r0
 585:.\LCD.c       **** 	uint8 buffer[18]={0xAA,0x98,0x00,0xA5,0x01,0x32,0x23,0xC5,0x02,0x00,0x00,0xFF,0xFF,0x20,0xCC,0x33,
 1952              		.loc 1 585 0
 1953 0006 01AC     		add	r4, sp, #4
 1954 0008 394D     		ldr	r5, .L165
 1955 000a 55F8D80F 		ldr	r0, [r5, #216]!	@ unaligned
 1956              	.LVL107:
 1957 000e 6968     		ldr	r1, [r5, #4]	@ unaligned
 1958 0010 AA68     		ldr	r2, [r5, #8]	@ unaligned
 1959 0012 EB68     		ldr	r3, [r5, #12]	@ unaligned
 1960 0014 0FC4     		stmia	r4!, {r0, r1, r2, r3}
 1961 0016 2B8A     		ldrh	r3, [r5, #16]	@ unaligned
 1962 0018 2380     		strh	r3, [r4]	@ unaligned
 586:.\LCD.c       ****     if(lcd==1){
 1963              		.loc 1 586 0
 1964 001a 012E     		cmp	r6, #1
 1965 001c 34D1     		bne	.L154
ARM GAS  C:\Users\RECEPC~1\AppData\Local\Temp\ccohni6j.s 			page 47


 587:.\LCD.c       **** 		for(x=1;(x<=Buffer_LCD1.cuenta[0]&&x<=25);x++){
 1966              		.loc 1 587 0
 1967 001e 0122     		movs	r2, #1
 1968 0020 344B     		ldr	r3, .L165+4
 1969 0022 1A60     		str	r2, [r3]
 1970 0024 26E0     		b	.L155
 1971              	.L159:
 588:.\LCD.c       **** 			buffer[3]=((0xB8)+(0x0F*x))&0xFF;
 1972              		.loc 1 588 0
 1973 0026 C3EB0312 		rsb	r2, r3, r3, lsl #4
 1974 002a 483A     		subs	r2, r2, #72
 1975 002c 8DF80720 		strb	r2, [sp, #7]
 589:.\LCD.c       **** 			buffer[2]=((0xB8)+(0x0F*x))>>8;			
 1976              		.loc 1 589 0
 1977 0030 C3EB0312 		rsb	r2, r3, r3, lsl #4
 1978 0034 B832     		adds	r2, r2, #184
 1979 0036 120A     		lsrs	r2, r2, #8
 1980 0038 8DF80620 		strb	r2, [sp, #6]
 590:.\LCD.c       **** 			buffer[13]=Buffer_LCD1.cuenta[x];			
 1981              		.loc 1 590 0
 1982 003c 2E4A     		ldr	r2, .L165+8
 1983 003e 1344     		add	r3, r3, r2
 1984 0040 93F84730 		ldrb	r3, [r3, #71]	@ zero_extendqisi2
 1985 0044 8DF81130 		strb	r3, [sp, #17]
 591:.\LCD.c       **** 			for(y=0;y<=17;y++){
 1986              		.loc 1 591 0
 1987 0048 0022     		movs	r2, #0
 1988 004a 2C4B     		ldr	r3, .L165+12
 1989 004c 1A60     		str	r2, [r3]
 1990 004e 09E0     		b	.L156
 1991              	.L157:
 592:.\LCD.c       ****         		LCD_1_PutChar(buffer[y]);
 1992              		.loc 1 592 0 discriminator 3
 1993 0050 06AA     		add	r2, sp, #24
 1994 0052 1344     		add	r3, r3, r2
 1995 0054 13F8140C 		ldrb	r0, [r3, #-20]	@ zero_extendqisi2
 1996 0058 FFF7FEFF 		bl	LCD_1_PutChar
 1997              	.LVL108:
 591:.\LCD.c       **** 			for(y=0;y<=17;y++){
 1998              		.loc 1 591 0 discriminator 3
 1999 005c 274A     		ldr	r2, .L165+12
 2000 005e 1368     		ldr	r3, [r2]
 2001 0060 0133     		adds	r3, r3, #1
 2002 0062 1360     		str	r3, [r2]
 2003              	.L156:
 591:.\LCD.c       **** 			for(y=0;y<=17;y++){
 2004              		.loc 1 591 0 is_stmt 0 discriminator 1
 2005 0064 254B     		ldr	r3, .L165+12
 2006 0066 1B68     		ldr	r3, [r3]
 2007 0068 112B     		cmp	r3, #17
 2008 006a F1D9     		bls	.L157
 587:.\LCD.c       **** 			buffer[3]=((0xB8)+(0x0F*x))&0xFF;
 2009              		.loc 1 587 0 is_stmt 1 discriminator 2
 2010 006c 214A     		ldr	r2, .L165+4
 2011 006e 1368     		ldr	r3, [r2]
 2012 0070 0133     		adds	r3, r3, #1
 2013 0072 1360     		str	r3, [r2]
ARM GAS  C:\Users\RECEPC~1\AppData\Local\Temp\ccohni6j.s 			page 48


 2014              	.L155:
 587:.\LCD.c       **** 			buffer[3]=((0xB8)+(0x0F*x))&0xFF;
 2015              		.loc 1 587 0 is_stmt 0 discriminator 1
 2016 0074 204B     		ldr	r3, .L165+8
 2017 0076 93F84720 		ldrb	r2, [r3, #71]	@ zero_extendqisi2
 2018 007a 1E4B     		ldr	r3, .L165+4
 2019 007c 1B68     		ldr	r3, [r3]
 2020 007e 9A42     		cmp	r2, r3
 2021 0080 34D3     		bcc	.L153
 587:.\LCD.c       **** 			buffer[3]=((0xB8)+(0x0F*x))&0xFF;
 2022              		.loc 1 587 0 discriminator 3
 2023 0082 192B     		cmp	r3, #25
 2024 0084 CFD9     		bls	.L159
 2025 0086 31E0     		b	.L153
 2026              	.L154:
 593:.\LCD.c       **** 			}	
 594:.\LCD.c       **** 		}
 595:.\LCD.c       ****     }
 596:.\LCD.c       ****     else{
 597:.\LCD.c       **** 		for(x=1;x<=Buffer_LCD2.cuenta[0];x++){
 2027              		.loc 1 597 0 is_stmt 1
 2028 0088 0122     		movs	r2, #1
 2029 008a 1A4B     		ldr	r3, .L165+4
 2030 008c 1A60     		str	r2, [r3]
 2031 008e 26E0     		b	.L160
 2032              	.L163:
 598:.\LCD.c       **** 			buffer[3]=((0xB8)+(0x0F*x))&0xFF;
 2033              		.loc 1 598 0
 2034 0090 C3EB0312 		rsb	r2, r3, r3, lsl #4
 2035 0094 483A     		subs	r2, r2, #72
 2036 0096 8DF80720 		strb	r2, [sp, #7]
 599:.\LCD.c       **** 			buffer[2]=((0xB8)+(0x0F*x))>>8;				
 2037              		.loc 1 599 0
 2038 009a C3EB0312 		rsb	r2, r3, r3, lsl #4
 2039 009e B832     		adds	r2, r2, #184
 2040 00a0 120A     		lsrs	r2, r2, #8
 2041 00a2 8DF80620 		strb	r2, [sp, #6]
 600:.\LCD.c       **** 			buffer[13]=Buffer_LCD2.cuenta[x];			
 2042              		.loc 1 600 0
 2043 00a6 164A     		ldr	r2, .L165+16
 2044 00a8 1344     		add	r3, r3, r2
 2045 00aa 93F84730 		ldrb	r3, [r3, #71]	@ zero_extendqisi2
 2046 00ae 8DF81130 		strb	r3, [sp, #17]
 601:.\LCD.c       **** 			for(y=0;y<=17;y++){
 2047              		.loc 1 601 0
 2048 00b2 0022     		movs	r2, #0
 2049 00b4 114B     		ldr	r3, .L165+12
 2050 00b6 1A60     		str	r2, [r3]
 2051 00b8 09E0     		b	.L161
 2052              	.L162:
 602:.\LCD.c       ****         		LCD_2_PutChar(buffer[y]);
 2053              		.loc 1 602 0 discriminator 3
 2054 00ba 06AA     		add	r2, sp, #24
 2055 00bc 1344     		add	r3, r3, r2
 2056 00be 13F8140C 		ldrb	r0, [r3, #-20]	@ zero_extendqisi2
 2057 00c2 FFF7FEFF 		bl	LCD_2_PutChar
 2058              	.LVL109:
ARM GAS  C:\Users\RECEPC~1\AppData\Local\Temp\ccohni6j.s 			page 49


 601:.\LCD.c       **** 			for(y=0;y<=17;y++){
 2059              		.loc 1 601 0 discriminator 3
 2060 00c6 0D4A     		ldr	r2, .L165+12
 2061 00c8 1368     		ldr	r3, [r2]
 2062 00ca 0133     		adds	r3, r3, #1
 2063 00cc 1360     		str	r3, [r2]
 2064              	.L161:
 601:.\LCD.c       **** 			for(y=0;y<=17;y++){
 2065              		.loc 1 601 0 is_stmt 0 discriminator 1
 2066 00ce 0B4B     		ldr	r3, .L165+12
 2067 00d0 1B68     		ldr	r3, [r3]
 2068 00d2 112B     		cmp	r3, #17
 2069 00d4 F1D9     		bls	.L162
 597:.\LCD.c       **** 			buffer[3]=((0xB8)+(0x0F*x))&0xFF;
 2070              		.loc 1 597 0 is_stmt 1 discriminator 2
 2071 00d6 074A     		ldr	r2, .L165+4
 2072 00d8 1368     		ldr	r3, [r2]
 2073 00da 0133     		adds	r3, r3, #1
 2074 00dc 1360     		str	r3, [r2]
 2075              	.L160:
 597:.\LCD.c       **** 			buffer[3]=((0xB8)+(0x0F*x))&0xFF;
 2076              		.loc 1 597 0 is_stmt 0 discriminator 1
 2077 00de 084B     		ldr	r3, .L165+16
 2078 00e0 93F84720 		ldrb	r2, [r3, #71]	@ zero_extendqisi2
 2079 00e4 034B     		ldr	r3, .L165+4
 2080 00e6 1B68     		ldr	r3, [r3]
 2081 00e8 9A42     		cmp	r2, r3
 2082 00ea D1D2     		bcs	.L163
 2083              	.L153:
 603:.\LCD.c       **** 			}	
 604:.\LCD.c       **** 		}
 605:.\LCD.c       ****     }	
 606:.\LCD.c       **** }
 2084              		.loc 1 606 0 is_stmt 1
 2085 00ec 06B0     		add	sp, sp, #24
 2086              		.cfi_def_cfa_offset 16
 2087              		@ sp needed
 2088 00ee 70BD     		pop	{r4, r5, r6, pc}
 2089              	.L166:
 2090              		.align	2
 2091              	.L165:
 2092 00f0 00000000 		.word	.LANCHOR0
 2093 00f4 00000000 		.word	x
 2094 00f8 00000000 		.word	Buffer_LCD1
 2095 00fc 00000000 		.word	y
 2096 0100 00000000 		.word	Buffer_LCD2
 2097              		.cfi_endproc
 2098              	.LFE75:
 2099              		.size	Cuenta_LCD, .-Cuenta_LCD
 2100              		.section	.text.Placa_LCD,"ax",%progbits
 2101              		.align	2
 2102              		.global	Placa_LCD
 2103              		.thumb
 2104              		.thumb_func
 2105              		.type	Placa_LCD, %function
 2106              	Placa_LCD:
 2107              	.LFB76:
ARM GAS  C:\Users\RECEPC~1\AppData\Local\Temp\ccohni6j.s 			page 50


 607:.\LCD.c       **** 
 608:.\LCD.c       **** /*
 609:.\LCD.c       **** ***************************************************************************************************
 610:.\LCD.c       **** *                                 			void Cuenta_LCD(uint8 lcd)
 611:.\LCD.c       **** *
 612:.\LCD.c       **** * Description : 
 613:.\LCD.c       **** *               
 614:.\LCD.c       **** *
 615:.\LCD.c       **** * Argument(s) : none
 616:.\LCD.c       **** *
 617:.\LCD.c       **** * Return(s)   : none
 618:.\LCD.c       **** *
 619:.\LCD.c       **** * Caller(s)   : 
 620:.\LCD.c       **** *
 621:.\LCD.c       **** * Note(s)     : none.
 622:.\LCD.c       **** ***************************************************************************************************
 623:.\LCD.c       **** */
 624:.\LCD.c       **** void Placa_LCD(uint8 lcd){
 2108              		.loc 1 624 0
 2109              		.cfi_startproc
 2110              		@ args = 0, pretend = 0, frame = 24
 2111              		@ frame_needed = 0, uses_anonymous_args = 0
 2112              	.LVL110:
 2113 0000 70B5     		push	{r4, r5, r6, lr}
 2114              		.cfi_def_cfa_offset 16
 2115              		.cfi_offset 4, -16
 2116              		.cfi_offset 5, -12
 2117              		.cfi_offset 6, -8
 2118              		.cfi_offset 14, -4
 2119 0002 86B0     		sub	sp, sp, #24
 2120              		.cfi_def_cfa_offset 40
 2121 0004 0646     		mov	r6, r0
 625:.\LCD.c       **** 	uint8 buffer[18]={0xAA,0x98,0x00,0xA5,0x00,0xC1,0x23,0xC5,0x02,0x00,0x00,0xFF,0xFF,0x20,0xCC,0x33,
 2122              		.loc 1 625 0
 2123 0006 01AC     		add	r4, sp, #4
 2124 0008 3A4D     		ldr	r5, .L179
 2125 000a 55F8EC0F 		ldr	r0, [r5, #236]!	@ unaligned
 2126              	.LVL111:
 2127 000e 6968     		ldr	r1, [r5, #4]	@ unaligned
 2128 0010 AA68     		ldr	r2, [r5, #8]	@ unaligned
 2129 0012 EB68     		ldr	r3, [r5, #12]	@ unaligned
 2130 0014 0FC4     		stmia	r4!, {r0, r1, r2, r3}
 2131 0016 2B8A     		ldrh	r3, [r5, #16]	@ unaligned
 2132 0018 2380     		strh	r3, [r4]	@ unaligned
 626:.\LCD.c       ****     if(lcd==1){
 2133              		.loc 1 626 0
 2134 001a 012E     		cmp	r6, #1
 2135 001c 34D1     		bne	.L168
 627:.\LCD.c       **** 		for(x=1;(x<=Buffer_LCD1.placa[0]&&x<=20);x++){
 2136              		.loc 1 627 0
 2137 001e 0122     		movs	r2, #1
 2138 0020 354B     		ldr	r3, .L179+4
 2139 0022 1A60     		str	r2, [r3]
 2140 0024 26E0     		b	.L169
 2141              	.L173:
 628:.\LCD.c       **** 			buffer[3]=((0xB8)+(0x0F*x))&0xFF;
 2142              		.loc 1 628 0
ARM GAS  C:\Users\RECEPC~1\AppData\Local\Temp\ccohni6j.s 			page 51


 2143 0026 C3EB0312 		rsb	r2, r3, r3, lsl #4
 2144 002a 483A     		subs	r2, r2, #72
 2145 002c 8DF80720 		strb	r2, [sp, #7]
 629:.\LCD.c       **** 			buffer[2]=((0xB8)+(0x0F*x))>>8;			
 2146              		.loc 1 629 0
 2147 0030 C3EB0312 		rsb	r2, r3, r3, lsl #4
 2148 0034 B832     		adds	r2, r2, #184
 2149 0036 120A     		lsrs	r2, r2, #8
 2150 0038 8DF80620 		strb	r2, [sp, #6]
 630:.\LCD.c       **** 			buffer[13]=Buffer_LCD1.placa[x];			
 2151              		.loc 1 630 0
 2152 003c 2F4A     		ldr	r2, .L179+8
 2153 003e 1344     		add	r3, r3, r2
 2154 0040 93F86530 		ldrb	r3, [r3, #101]	@ zero_extendqisi2
 2155 0044 8DF81130 		strb	r3, [sp, #17]
 631:.\LCD.c       **** 			for(y=0;y<=17;y++){
 2156              		.loc 1 631 0
 2157 0048 0022     		movs	r2, #0
 2158 004a 2D4B     		ldr	r3, .L179+12
 2159 004c 1A60     		str	r2, [r3]
 2160 004e 09E0     		b	.L170
 2161              	.L171:
 632:.\LCD.c       ****         		LCD_1_PutChar(buffer[y]);
 2162              		.loc 1 632 0 discriminator 3
 2163 0050 06AA     		add	r2, sp, #24
 2164 0052 1344     		add	r3, r3, r2
 2165 0054 13F8140C 		ldrb	r0, [r3, #-20]	@ zero_extendqisi2
 2166 0058 FFF7FEFF 		bl	LCD_1_PutChar
 2167              	.LVL112:
 631:.\LCD.c       **** 			for(y=0;y<=17;y++){
 2168              		.loc 1 631 0 discriminator 3
 2169 005c 284A     		ldr	r2, .L179+12
 2170 005e 1368     		ldr	r3, [r2]
 2171 0060 0133     		adds	r3, r3, #1
 2172 0062 1360     		str	r3, [r2]
 2173              	.L170:
 631:.\LCD.c       **** 			for(y=0;y<=17;y++){
 2174              		.loc 1 631 0 is_stmt 0 discriminator 1
 2175 0064 264B     		ldr	r3, .L179+12
 2176 0066 1B68     		ldr	r3, [r3]
 2177 0068 112B     		cmp	r3, #17
 2178 006a F1D9     		bls	.L171
 627:.\LCD.c       **** 			buffer[3]=((0xB8)+(0x0F*x))&0xFF;
 2179              		.loc 1 627 0 is_stmt 1 discriminator 2
 2180 006c 224A     		ldr	r2, .L179+4
 2181 006e 1368     		ldr	r3, [r2]
 2182 0070 0133     		adds	r3, r3, #1
 2183 0072 1360     		str	r3, [r2]
 2184              	.L169:
 627:.\LCD.c       **** 			buffer[3]=((0xB8)+(0x0F*x))&0xFF;
 2185              		.loc 1 627 0 is_stmt 0 discriminator 1
 2186 0074 214B     		ldr	r3, .L179+8
 2187 0076 93F86520 		ldrb	r2, [r3, #101]	@ zero_extendqisi2
 2188 007a 1F4B     		ldr	r3, .L179+4
 2189 007c 1B68     		ldr	r3, [r3]
 2190 007e 9A42     		cmp	r2, r3
 2191 0080 36D3     		bcc	.L167
ARM GAS  C:\Users\RECEPC~1\AppData\Local\Temp\ccohni6j.s 			page 52


 627:.\LCD.c       **** 			buffer[3]=((0xB8)+(0x0F*x))&0xFF;
 2192              		.loc 1 627 0 discriminator 3
 2193 0082 142B     		cmp	r3, #20
 2194 0084 CFD9     		bls	.L173
 2195 0086 33E0     		b	.L167
 2196              	.L168:
 633:.\LCD.c       **** 			}	
 634:.\LCD.c       **** 		}
 635:.\LCD.c       ****     }
 636:.\LCD.c       ****     else{
 637:.\LCD.c       **** 		for(x=1;(x<=Buffer_LCD2.placa[0]&&x<=20);x++){
 2197              		.loc 1 637 0 is_stmt 1
 2198 0088 0122     		movs	r2, #1
 2199 008a 1B4B     		ldr	r3, .L179+4
 2200 008c 1A60     		str	r2, [r3]
 2201 008e 26E0     		b	.L174
 2202              	.L177:
 638:.\LCD.c       **** 			buffer[3]=((0xB8)+(0x0F*x))&0xFF;
 2203              		.loc 1 638 0
 2204 0090 C3EB0312 		rsb	r2, r3, r3, lsl #4
 2205 0094 483A     		subs	r2, r2, #72
 2206 0096 8DF80720 		strb	r2, [sp, #7]
 639:.\LCD.c       **** 			buffer[2]=((0xB8)+(0x0F*x))>>8;				
 2207              		.loc 1 639 0
 2208 009a C3EB0312 		rsb	r2, r3, r3, lsl #4
 2209 009e B832     		adds	r2, r2, #184
 2210 00a0 120A     		lsrs	r2, r2, #8
 2211 00a2 8DF80620 		strb	r2, [sp, #6]
 640:.\LCD.c       **** 			buffer[13]=Buffer_LCD2.placa[x];			
 2212              		.loc 1 640 0
 2213 00a6 174A     		ldr	r2, .L179+16
 2214 00a8 1344     		add	r3, r3, r2
 2215 00aa 93F86530 		ldrb	r3, [r3, #101]	@ zero_extendqisi2
 2216 00ae 8DF81130 		strb	r3, [sp, #17]
 641:.\LCD.c       **** 			for(y=0;y<=17;y++){
 2217              		.loc 1 641 0
 2218 00b2 0022     		movs	r2, #0
 2219 00b4 124B     		ldr	r3, .L179+12
 2220 00b6 1A60     		str	r2, [r3]
 2221 00b8 09E0     		b	.L175
 2222              	.L176:
 642:.\LCD.c       ****         		LCD_2_PutChar(buffer[y]);
 2223              		.loc 1 642 0 discriminator 3
 2224 00ba 06AA     		add	r2, sp, #24
 2225 00bc 1344     		add	r3, r3, r2
 2226 00be 13F8140C 		ldrb	r0, [r3, #-20]	@ zero_extendqisi2
 2227 00c2 FFF7FEFF 		bl	LCD_2_PutChar
 2228              	.LVL113:
 641:.\LCD.c       **** 			for(y=0;y<=17;y++){
 2229              		.loc 1 641 0 discriminator 3
 2230 00c6 0E4A     		ldr	r2, .L179+12
 2231 00c8 1368     		ldr	r3, [r2]
 2232 00ca 0133     		adds	r3, r3, #1
 2233 00cc 1360     		str	r3, [r2]
 2234              	.L175:
 641:.\LCD.c       **** 			for(y=0;y<=17;y++){
 2235              		.loc 1 641 0 is_stmt 0 discriminator 1
ARM GAS  C:\Users\RECEPC~1\AppData\Local\Temp\ccohni6j.s 			page 53


 2236 00ce 0C4B     		ldr	r3, .L179+12
 2237 00d0 1B68     		ldr	r3, [r3]
 2238 00d2 112B     		cmp	r3, #17
 2239 00d4 F1D9     		bls	.L176
 637:.\LCD.c       **** 			buffer[3]=((0xB8)+(0x0F*x))&0xFF;
 2240              		.loc 1 637 0 is_stmt 1 discriminator 2
 2241 00d6 084A     		ldr	r2, .L179+4
 2242 00d8 1368     		ldr	r3, [r2]
 2243 00da 0133     		adds	r3, r3, #1
 2244 00dc 1360     		str	r3, [r2]
 2245              	.L174:
 637:.\LCD.c       **** 			buffer[3]=((0xB8)+(0x0F*x))&0xFF;
 2246              		.loc 1 637 0 is_stmt 0 discriminator 1
 2247 00de 094B     		ldr	r3, .L179+16
 2248 00e0 93F86520 		ldrb	r2, [r3, #101]	@ zero_extendqisi2
 2249 00e4 044B     		ldr	r3, .L179+4
 2250 00e6 1B68     		ldr	r3, [r3]
 2251 00e8 9A42     		cmp	r2, r3
 2252 00ea 01D3     		bcc	.L167
 637:.\LCD.c       **** 			buffer[3]=((0xB8)+(0x0F*x))&0xFF;
 2253              		.loc 1 637 0 discriminator 3
 2254 00ec 142B     		cmp	r3, #20
 2255 00ee CFD9     		bls	.L177
 2256              	.L167:
 643:.\LCD.c       **** 			}	
 644:.\LCD.c       **** 		}
 645:.\LCD.c       ****     }	
 646:.\LCD.c       **** }
 2257              		.loc 1 646 0 is_stmt 1
 2258 00f0 06B0     		add	sp, sp, #24
 2259              		.cfi_def_cfa_offset 16
 2260              		@ sp needed
 2261 00f2 70BD     		pop	{r4, r5, r6, pc}
 2262              	.L180:
 2263              		.align	2
 2264              	.L179:
 2265 00f4 00000000 		.word	.LANCHOR0
 2266 00f8 00000000 		.word	x
 2267 00fc 00000000 		.word	Buffer_LCD1
 2268 0100 00000000 		.word	y
 2269 0104 00000000 		.word	Buffer_LCD2
 2270              		.cfi_endproc
 2271              	.LFE76:
 2272              		.size	Placa_LCD, .-Placa_LCD
 2273              		.section	.text.writemini_LCD,"ax",%progbits
 2274              		.align	2
 2275              		.global	writemini_LCD
 2276              		.thumb
 2277              		.thumb_func
 2278              		.type	writemini_LCD, %function
 2279              	writemini_LCD:
 2280              	.LFB77:
 647:.\LCD.c       **** 
 648:.\LCD.c       **** /*
 649:.\LCD.c       **** ***************************************************************************************************
 650:.\LCD.c       **** *                             void writemini_LCD(uint8 lcd, uint8 dato, uint8 pos)
 651:.\LCD.c       **** *
ARM GAS  C:\Users\RECEPC~1\AppData\Local\Temp\ccohni6j.s 			page 54


 652:.\LCD.c       **** * Description : 
 653:.\LCD.c       **** *               
 654:.\LCD.c       **** *
 655:.\LCD.c       **** * Argument(s) : none
 656:.\LCD.c       **** *
 657:.\LCD.c       **** * Return(s)   : none
 658:.\LCD.c       **** *
 659:.\LCD.c       **** * Caller(s)   : 
 660:.\LCD.c       **** *
 661:.\LCD.c       **** * Note(s)     : none.
 662:.\LCD.c       **** ***************************************************************************************************
 663:.\LCD.c       **** */
 664:.\LCD.c       **** void writemini_LCD(uint8 lcd, uint8 dato, uint16 pos){
 2281              		.loc 1 664 0
 2282              		.cfi_startproc
 2283              		@ args = 0, pretend = 0, frame = 0
 2284              		@ frame_needed = 0, uses_anonymous_args = 0
 2285              	.LVL114:
 2286 0000 38B5     		push	{r3, r4, r5, lr}
 2287              		.cfi_def_cfa_offset 16
 2288              		.cfi_offset 3, -16
 2289              		.cfi_offset 4, -12
 2290              		.cfi_offset 5, -8
 2291              		.cfi_offset 14, -4
 2292 0002 0D46     		mov	r5, r1
 2293 0004 1446     		mov	r4, r2
 665:.\LCD.c       ****     if(lcd==1){
 2294              		.loc 1 665 0
 2295 0006 0128     		cmp	r0, #1
 2296 0008 3ED1     		bne	.L182
 666:.\LCD.c       ****         LCD_1_PutChar(0xAA);
 2297              		.loc 1 666 0
 2298 000a AA20     		movs	r0, #170
 2299              	.LVL115:
 2300 000c FFF7FEFF 		bl	LCD_1_PutChar
 2301              	.LVL116:
 667:.\LCD.c       ****         LCD_1_PutChar(0x98);
 2302              		.loc 1 667 0
 2303 0010 9820     		movs	r0, #152
 2304 0012 FFF7FEFF 		bl	LCD_1_PutChar
 2305              	.LVL117:
 668:.\LCD.c       ****         LCD_1_PutChar(((0x30)+(0x0F*pos))>>8);
 2306              		.loc 1 668 0
 2307 0016 C4EB0410 		rsb	r0, r4, r4, lsl #4
 2308 001a 3030     		adds	r0, r0, #48
 2309 001c C0F30720 		ubfx	r0, r0, #8, #8
 2310 0020 FFF7FEFF 		bl	LCD_1_PutChar
 2311              	.LVL118:
 669:.\LCD.c       ****         LCD_1_PutChar(((0x30)+(0x0F*pos))&0xFF);
 2312              		.loc 1 669 0
 2313 0024 C4EB0414 		rsb	r4, r4, r4, lsl #4
 2314 0028 04F13000 		add	r0, r4, #48
 2315 002c C0B2     		uxtb	r0, r0
 2316 002e FFF7FEFF 		bl	LCD_1_PutChar
 2317              	.LVL119:
 670:.\LCD.c       ****         LCD_1_PutChar(0x00);
 2318              		.loc 1 670 0
ARM GAS  C:\Users\RECEPC~1\AppData\Local\Temp\ccohni6j.s 			page 55


 2319 0032 0020     		movs	r0, #0
 2320 0034 FFF7FEFF 		bl	LCD_1_PutChar
 2321              	.LVL120:
 671:.\LCD.c       ****         LCD_1_PutChar(0x30);
 2322              		.loc 1 671 0
 2323 0038 3020     		movs	r0, #48
 2324 003a FFF7FEFF 		bl	LCD_1_PutChar
 2325              	.LVL121:
 672:.\LCD.c       ****         LCD_1_PutChar(0x23);
 2326              		.loc 1 672 0
 2327 003e 2320     		movs	r0, #35
 2328 0040 FFF7FEFF 		bl	LCD_1_PutChar
 2329              	.LVL122:
 673:.\LCD.c       ****         LCD_1_PutChar(0xC5);
 2330              		.loc 1 673 0
 2331 0044 C520     		movs	r0, #197
 2332 0046 FFF7FEFF 		bl	LCD_1_PutChar
 2333              	.LVL123:
 674:.\LCD.c       ****         LCD_1_PutChar(0x02);
 2334              		.loc 1 674 0
 2335 004a 0220     		movs	r0, #2
 2336 004c FFF7FEFF 		bl	LCD_1_PutChar
 2337              	.LVL124:
 675:.\LCD.c       ****         LCD_1_PutChar(0x00);
 2338              		.loc 1 675 0
 2339 0050 0020     		movs	r0, #0
 2340 0052 FFF7FEFF 		bl	LCD_1_PutChar
 2341              	.LVL125:
 676:.\LCD.c       ****         LCD_1_PutChar(0x00);
 2342              		.loc 1 676 0
 2343 0056 0020     		movs	r0, #0
 2344 0058 FFF7FEFF 		bl	LCD_1_PutChar
 2345              	.LVL126:
 677:.\LCD.c       ****         LCD_1_PutChar(0xFF);
 2346              		.loc 1 677 0
 2347 005c FF20     		movs	r0, #255
 2348 005e FFF7FEFF 		bl	LCD_1_PutChar
 2349              	.LVL127:
 678:.\LCD.c       ****         LCD_1_PutChar(0xFF);
 2350              		.loc 1 678 0
 2351 0062 FF20     		movs	r0, #255
 2352 0064 FFF7FEFF 		bl	LCD_1_PutChar
 2353              	.LVL128:
 679:.\LCD.c       ****         LCD_1_PutChar(dato);
 2354              		.loc 1 679 0
 2355 0068 2846     		mov	r0, r5
 2356 006a FFF7FEFF 		bl	LCD_1_PutChar
 2357              	.LVL129:
 680:.\LCD.c       ****         LCD_1_PutChar(0xCC);
 2358              		.loc 1 680 0
 2359 006e CC20     		movs	r0, #204
 2360 0070 FFF7FEFF 		bl	LCD_1_PutChar
 2361              	.LVL130:
 681:.\LCD.c       ****         LCD_1_PutChar(0x33);
 2362              		.loc 1 681 0
 2363 0074 3320     		movs	r0, #51
 2364 0076 FFF7FEFF 		bl	LCD_1_PutChar
ARM GAS  C:\Users\RECEPC~1\AppData\Local\Temp\ccohni6j.s 			page 56


 2365              	.LVL131:
 682:.\LCD.c       ****         LCD_1_PutChar(0xC3);
 2366              		.loc 1 682 0
 2367 007a C320     		movs	r0, #195
 2368 007c FFF7FEFF 		bl	LCD_1_PutChar
 2369              	.LVL132:
 683:.\LCD.c       ****         LCD_1_PutChar(0x3C);
 2370              		.loc 1 683 0
 2371 0080 3C20     		movs	r0, #60
 2372 0082 FFF7FEFF 		bl	LCD_1_PutChar
 2373              	.LVL133:
 2374 0086 38BD     		pop	{r3, r4, r5, pc}
 2375              	.LVL134:
 2376              	.L182:
 684:.\LCD.c       ****     }
 685:.\LCD.c       ****     else{
 686:.\LCD.c       ****         LCD_2_PutChar(0xAA);
 2377              		.loc 1 686 0
 2378 0088 AA20     		movs	r0, #170
 2379              	.LVL135:
 2380 008a FFF7FEFF 		bl	LCD_2_PutChar
 2381              	.LVL136:
 687:.\LCD.c       ****         LCD_2_PutChar(0x98);
 2382              		.loc 1 687 0
 2383 008e 9820     		movs	r0, #152
 2384 0090 FFF7FEFF 		bl	LCD_2_PutChar
 2385              	.LVL137:
 688:.\LCD.c       ****         LCD_2_PutChar(((0x30)+(0x0F*pos))>>8);
 2386              		.loc 1 688 0
 2387 0094 C4EB0410 		rsb	r0, r4, r4, lsl #4
 2388 0098 3030     		adds	r0, r0, #48
 2389 009a C0F30720 		ubfx	r0, r0, #8, #8
 2390 009e FFF7FEFF 		bl	LCD_2_PutChar
 2391              	.LVL138:
 689:.\LCD.c       ****         LCD_2_PutChar(((0x30)+(0x0F*pos))&0xFF);
 2392              		.loc 1 689 0
 2393 00a2 C4EB0414 		rsb	r4, r4, r4, lsl #4
 2394 00a6 04F13000 		add	r0, r4, #48
 2395 00aa C0B2     		uxtb	r0, r0
 2396 00ac FFF7FEFF 		bl	LCD_2_PutChar
 2397              	.LVL139:
 690:.\LCD.c       ****         LCD_2_PutChar(0x00);
 2398              		.loc 1 690 0
 2399 00b0 0020     		movs	r0, #0
 2400 00b2 FFF7FEFF 		bl	LCD_2_PutChar
 2401              	.LVL140:
 691:.\LCD.c       ****         LCD_2_PutChar(0x30);
 2402              		.loc 1 691 0
 2403 00b6 3020     		movs	r0, #48
 2404 00b8 FFF7FEFF 		bl	LCD_2_PutChar
 2405              	.LVL141:
 692:.\LCD.c       ****         LCD_2_PutChar(0x23);
 2406              		.loc 1 692 0
 2407 00bc 2320     		movs	r0, #35
 2408 00be FFF7FEFF 		bl	LCD_2_PutChar
 2409              	.LVL142:
 693:.\LCD.c       ****         LCD_2_PutChar(0xC5);
ARM GAS  C:\Users\RECEPC~1\AppData\Local\Temp\ccohni6j.s 			page 57


 2410              		.loc 1 693 0
 2411 00c2 C520     		movs	r0, #197
 2412 00c4 FFF7FEFF 		bl	LCD_2_PutChar
 2413              	.LVL143:
 694:.\LCD.c       ****         LCD_2_PutChar(0x02);
 2414              		.loc 1 694 0
 2415 00c8 0220     		movs	r0, #2
 2416 00ca FFF7FEFF 		bl	LCD_2_PutChar
 2417              	.LVL144:
 695:.\LCD.c       ****         LCD_2_PutChar(0x00);
 2418              		.loc 1 695 0
 2419 00ce 0020     		movs	r0, #0
 2420 00d0 FFF7FEFF 		bl	LCD_2_PutChar
 2421              	.LVL145:
 696:.\LCD.c       ****         LCD_2_PutChar(0x00);
 2422              		.loc 1 696 0
 2423 00d4 0020     		movs	r0, #0
 2424 00d6 FFF7FEFF 		bl	LCD_2_PutChar
 2425              	.LVL146:
 697:.\LCD.c       ****         LCD_2_PutChar(0xFF);
 2426              		.loc 1 697 0
 2427 00da FF20     		movs	r0, #255
 2428 00dc FFF7FEFF 		bl	LCD_2_PutChar
 2429              	.LVL147:
 698:.\LCD.c       ****         LCD_2_PutChar(0xFF);
 2430              		.loc 1 698 0
 2431 00e0 FF20     		movs	r0, #255
 2432 00e2 FFF7FEFF 		bl	LCD_2_PutChar
 2433              	.LVL148:
 699:.\LCD.c       ****         LCD_2_PutChar(dato);
 2434              		.loc 1 699 0
 2435 00e6 2846     		mov	r0, r5
 2436 00e8 FFF7FEFF 		bl	LCD_2_PutChar
 2437              	.LVL149:
 700:.\LCD.c       ****         LCD_2_PutChar(0xCC);
 2438              		.loc 1 700 0
 2439 00ec CC20     		movs	r0, #204
 2440 00ee FFF7FEFF 		bl	LCD_2_PutChar
 2441              	.LVL150:
 701:.\LCD.c       ****         LCD_2_PutChar(0x33);
 2442              		.loc 1 701 0
 2443 00f2 3320     		movs	r0, #51
 2444 00f4 FFF7FEFF 		bl	LCD_2_PutChar
 2445              	.LVL151:
 702:.\LCD.c       ****         LCD_2_PutChar(0xC3);
 2446              		.loc 1 702 0
 2447 00f8 C320     		movs	r0, #195
 2448 00fa FFF7FEFF 		bl	LCD_2_PutChar
 2449              	.LVL152:
 703:.\LCD.c       ****         LCD_2_PutChar(0x3C);   
 2450              		.loc 1 703 0
 2451 00fe 3C20     		movs	r0, #60
 2452 0100 FFF7FEFF 		bl	LCD_2_PutChar
 2453              	.LVL153:
 2454 0104 38BD     		pop	{r3, r4, r5, pc}
 2455              		.cfi_endproc
 2456              	.LFE77:
ARM GAS  C:\Users\RECEPC~1\AppData\Local\Temp\ccohni6j.s 			page 58


 2457              		.size	writemini_LCD, .-writemini_LCD
 2458              		.comm	rventa2,225,4
 2459              		.comm	rventa,225,4
 2460              		.comm	producto,1,1
 2461              		.comm	grado4,1,1
 2462              		.comm	grado3,1,1
 2463              		.comm	grado2,1,1
 2464              		.comm	grado1,1,1
 2465              		.comm	modulo,400,4
 2466              		.comm	w,4,4
 2467              		.comm	z,4,4
 2468              		.comm	y,4,4
 2469              		.comm	x,4,4
 2470              		.comm	d,76,4
 2471              		.comm	c,76,4
 2472              		.comm	b,76,4
 2473              		.comm	a,76,4
 2474              		.comm	estado_0,1,1
 2475              		.comm	Buffer_LCD4,152,4
 2476              		.comm	Buffer_LCD3,152,4
 2477              		.comm	Buffer_LCD2,152,4
 2478              		.comm	Buffer_LCD1,152,4
 2479              		.comm	no_venta,4,4
 2480              		.comm	no_ventacopia4,1,1
 2481              		.comm	no_ventacopia3,1,1
 2482              		.comm	no_ventacopia2,1,1
 2483              		.comm	no_ventacopia1,1,1
 2484              		.comm	placa_aux,1,1
 2485              		.comm	id_corte,2,2
 2486              		.comm	venta_activa4,1,1
 2487              		.comm	venta_activa2,1,1
 2488              		.comm	venta_activa3,1,1
 2489              		.comm	venta_activa,1,1
 2490              		.comm	seleccion_pos2,1,1
 2491              		.comm	seleccion_pos,1,1
 2492              		.comm	estado_lcd2,1,1
 2493              		.comm	estado_lcd1,1,1
 2494              		.comm	flujo_pos4,1,1
 2495              		.comm	flujo_pos3,1,1
 2496              		.comm	flujo_pos2,1,1
 2497              		.comm	flujo_pos,1,1
 2498              		.comm	imagen,1,1
 2499              		.comm	no_imprime4,1,1
 2500              		.comm	no_imprime3,1,1
 2501              		.comm	no_imprime2,1,1
 2502              		.comm	no_imprime,1,1
 2503              		.comm	n_copias,1,4
 2504              		.comm	a_copias,1,1
 2505              		.comm	producto4n,10,4
 2506              		.comm	producto3n,10,4
 2507              		.comm	producto2n,10,4
 2508              		.comm	producto1n,10,4
 2509              		.comm	nombreproducto,1,1
 2510              		.comm	id_venta,6,4
 2511              		.comm	copia_recibo2,2,4
 2512              		.comm	copia_recibo,2,4
 2513              		.comm	print2,2,4
ARM GAS  C:\Users\RECEPC~1\AppData\Local\Temp\ccohni6j.s 			page 59


 2514              		.comm	print1,2,4
 2515              		.comm	crc_total,1,1
 2516              		.comm	pos_ibutton,1,1
 2517              		.comm	fecha_corte,6,4
 2518              		.comm	decimalD,1,1
 2519              		.comm	decimalV,1,1
 2520              		.comm	tipo_imp,2,4
 2521              		.comm	bandera,2,4
 2522              		.comm	ppux10,1,1
 2523              		.comm	teclado2,1,1
 2524              		.comm	teclado,1,1
 2525              		.comm	resultado,14,4
 2526              		.comm	buffer_pos4,64,4
 2527              		.comm	buffer_pos3,64,4
 2528              		.comm	buffer_pos2,64,4
 2529              		.comm	buffer_pos1,64,4
 2530              		.comm	buffer_i2c,64,4
 2531              		.comm	producto4d,1,1
 2532              		.comm	producto3d,1,1
 2533              		.comm	producto2d,1,1
 2534              		.comm	producto1d,1,1
 2535              		.comm	producto4c,1,1
 2536              		.comm	producto3c,1,1
 2537              		.comm	producto2c,1,1
 2538              		.comm	producto1c,1,1
 2539              		.comm	producto4b,1,1
 2540              		.comm	producto3b,1,1
 2541              		.comm	producto2b,1,1
 2542              		.comm	producto1b,1,1
 2543              		.comm	producto4,1,1
 2544              		.comm	producto3,1,1
 2545              		.comm	producto2,1,1
 2546              		.comm	producto1,1,1
 2547              		.comm	versurt,1,1
 2548              		.comm	comas2,1,1
 2549              		.comm	comas1,1,1
 2550              		.comm	teclas2,1,1
 2551              		.comm	teclas1,1,1
 2552              		.comm	cont1,1,1
 2553              		.comm	flujo_LCD4,1,1
 2554              		.comm	flujo_LCD3,1,1
 2555              		.comm	flujo_LCD2,1,1
 2556              		.comm	flujo_LCD,1,1
 2557 0106 00BF     		.section	.rodata
 2558              		.align	2
 2559              		.set	.LANCHOR0,. + 0
 2560              	.LC0:
 2561 0000 AA       		.byte	-86
 2562 0001 98       		.byte	-104
 2563 0002 00       		.byte	0
 2564 0003 D0       		.byte	-48
 2565 0004 00       		.byte	0
 2566 0005 BB       		.byte	-69
 2567 0006 24       		.byte	36
 2568 0007 C5       		.byte	-59
 2569 0008 02       		.byte	2
 2570 0009 00       		.byte	0
ARM GAS  C:\Users\RECEPC~1\AppData\Local\Temp\ccohni6j.s 			page 60


 2571 000a 00       		.byte	0
 2572 000b FF       		.byte	-1
 2573 000c FF       		.byte	-1
 2574 000d 30       		.byte	48
 2575 000e 30       		.byte	48
 2576 000f 3A       		.byte	58
 2577 0010 30       		.byte	48
 2578 0011 30       		.byte	48
 2579 0012 41       		.byte	65
 2580 0013 6D       		.byte	109
 2581 0014 CC       		.byte	-52
 2582 0015 33       		.byte	51
 2583 0016 C3       		.byte	-61
 2584 0017 3C       		.byte	60
 2585              	.LC1:
 2586 0018 AA       		.byte	-86
 2587 0019 98       		.byte	-104
 2588 001a 00       		.byte	0
 2589 001b CB       		.byte	-53
 2590 001c 01       		.byte	1
 2591 001d 27       		.byte	39
 2592 001e 24       		.byte	36
 2593 001f C5       		.byte	-59
 2594 0020 02       		.byte	2
 2595 0021 00       		.byte	0
 2596 0022 00       		.byte	0
 2597 0023 FF       		.byte	-1
 2598 0024 FF       		.byte	-1
 2599 0025 30       		.byte	48
 2600 0026 30       		.byte	48
 2601 0027 2F       		.byte	47
 2602 0028 30       		.byte	48
 2603 0029 30       		.byte	48
 2604 002a 2F       		.byte	47
 2605 002b 30       		.byte	48
 2606 002c 30       		.byte	48
 2607 002d CC       		.byte	-52
 2608 002e 33       		.byte	51
 2609 002f C3       		.byte	-61
 2610 0030 3C       		.byte	60
 2611 0031 000000   		.space	3
 2612              	.LC2:
 2613 0034 AA       		.byte	-86
 2614 0035 98       		.byte	-104
 2615 0036 00       		.byte	0
 2616 0037 A5       		.byte	-91
 2617 0038 00       		.byte	0
 2618 0039 7E       		.byte	126
 2619 003a 23       		.byte	35
 2620 003b C5       		.byte	-59
 2621 003c 02       		.byte	2
 2622 003d 00       		.byte	0
 2623 003e 00       		.byte	0
 2624 003f FF       		.byte	-1
 2625 0040 FF       		.byte	-1
 2626 0041 20       		.byte	32
 2627 0042 CC       		.byte	-52
ARM GAS  C:\Users\RECEPC~1\AppData\Local\Temp\ccohni6j.s 			page 61


 2628 0043 33       		.byte	51
 2629 0044 C3       		.byte	-61
 2630 0045 3C       		.byte	60
 2631 0046 0000     		.space	2
 2632              	.LC3:
 2633 0048 AA       		.byte	-86
 2634 0049 98       		.byte	-104
 2635 004a 01       		.byte	1
 2636 004b 80       		.byte	-128
 2637 004c 01       		.byte	1
 2638 004d 60       		.byte	96
 2639 004e 24       		.byte	36
 2640 004f C5       		.byte	-59
 2641 0050 02       		.byte	2
 2642 0051 00       		.byte	0
 2643 0052 00       		.byte	0
 2644 0053 FF       		.byte	-1
 2645 0054 FF       		.byte	-1
 2646 0055 24       		.byte	36
 2647 0056 20       		.byte	32
 2648 0057 20       		.byte	32
 2649 0058 20       		.byte	32
 2650 0059 20       		.byte	32
 2651 005a 20       		.byte	32
 2652 005b CC       		.byte	-52
 2653 005c 33       		.byte	51
 2654 005d C3       		.byte	-61
 2655 005e 3C       		.byte	60
 2656 005f 00       		.space	1
 2657              	.LC4:
 2658 0060 AA       		.byte	-86
 2659 0061 98       		.byte	-104
 2660 0062 02       		.byte	2
 2661 0063 20       		.byte	32
 2662 0064 01       		.byte	1
 2663 0065 60       		.byte	96
 2664 0066 24       		.byte	36
 2665 0067 C5       		.byte	-59
 2666 0068 02       		.byte	2
 2667 0069 00       		.byte	0
 2668 006a 00       		.byte	0
 2669 006b FF       		.byte	-1
 2670 006c FF       		.byte	-1
 2671 006d 20       		.byte	32
 2672 006e CC       		.byte	-52
 2673 006f 33       		.byte	51
 2674 0070 C3       		.byte	-61
 2675 0071 3C       		.byte	60
 2676 0072 0000     		.space	2
 2677              	.LC5:
 2678 0074 AA       		.byte	-86
 2679 0075 98       		.byte	-104
 2680 0076 00       		.byte	0
 2681 0077 A5       		.byte	-91
 2682 0078 00       		.byte	0
 2683 0079 B7       		.byte	-73
 2684 007a 23       		.byte	35
ARM GAS  C:\Users\RECEPC~1\AppData\Local\Temp\ccohni6j.s 			page 62


 2685 007b C5       		.byte	-59
 2686 007c 02       		.byte	2
 2687 007d 00       		.byte	0
 2688 007e 00       		.byte	0
 2689 007f FF       		.byte	-1
 2690 0080 FF       		.byte	-1
 2691 0081 20       		.byte	32
 2692 0082 CC       		.byte	-52
 2693 0083 33       		.byte	51
 2694 0084 C3       		.byte	-61
 2695 0085 3C       		.byte	60
 2696 0086 0000     		.space	2
 2697              	.LC6:
 2698 0088 AA       		.byte	-86
 2699 0089 98       		.byte	-104
 2700 008a 00       		.byte	0
 2701 008b A5       		.byte	-91
 2702 008c 01       		.byte	1
 2703 008d 27       		.byte	39
 2704 008e 23       		.byte	35
 2705 008f C5       		.byte	-59
 2706 0090 02       		.byte	2
 2707 0091 00       		.byte	0
 2708 0092 00       		.byte	0
 2709 0093 FF       		.byte	-1
 2710 0094 FF       		.byte	-1
 2711 0095 20       		.byte	32
 2712 0096 CC       		.byte	-52
 2713 0097 33       		.byte	51
 2714 0098 C3       		.byte	-61
 2715 0099 3C       		.byte	60
 2716 009a 0000     		.space	2
 2717              	.LC7:
 2718 009c AA       		.byte	-86
 2719 009d 98       		.byte	-104
 2720 009e 00       		.byte	0
 2721 009f A5       		.byte	-91
 2722 00a0 01       		.byte	1
 2723 00a1 5F       		.byte	95
 2724 00a2 23       		.byte	35
 2725 00a3 C5       		.byte	-59
 2726 00a4 02       		.byte	2
 2727 00a5 00       		.byte	0
 2728 00a6 00       		.byte	0
 2729 00a7 FF       		.byte	-1
 2730 00a8 FF       		.byte	-1
 2731 00a9 20       		.byte	32
 2732 00aa CC       		.byte	-52
 2733 00ab 33       		.byte	51
 2734 00ac C3       		.byte	-61
 2735 00ad 3C       		.byte	60
 2736 00ae 0000     		.space	2
 2737              	.LC8:
 2738 00b0 AA       		.byte	-86
 2739 00b1 98       		.byte	-104
 2740 00b2 00       		.byte	0
 2741 00b3 A5       		.byte	-91
ARM GAS  C:\Users\RECEPC~1\AppData\Local\Temp\ccohni6j.s 			page 63


 2742 00b4 00       		.byte	0
 2743 00b5 EE       		.byte	-18
 2744 00b6 23       		.byte	35
 2745 00b7 C5       		.byte	-59
 2746 00b8 02       		.byte	2
 2747 00b9 00       		.byte	0
 2748 00ba 00       		.byte	0
 2749 00bb FF       		.byte	-1
 2750 00bc FF       		.byte	-1
 2751 00bd 20       		.byte	32
 2752 00be CC       		.byte	-52
 2753 00bf 33       		.byte	51
 2754 00c0 C3       		.byte	-61
 2755 00c1 3C       		.byte	60
 2756 00c2 0000     		.space	2
 2757              	.LC9:
 2758 00c4 AA       		.byte	-86
 2759 00c5 98       		.byte	-104
 2760 00c6 00       		.byte	0
 2761 00c7 A5       		.byte	-91
 2762 00c8 01       		.byte	1
 2763 00c9 99       		.byte	-103
 2764 00ca 23       		.byte	35
 2765 00cb C5       		.byte	-59
 2766 00cc 02       		.byte	2
 2767 00cd 00       		.byte	0
 2768 00ce 00       		.byte	0
 2769 00cf FF       		.byte	-1
 2770 00d0 FF       		.byte	-1
 2771 00d1 20       		.byte	32
 2772 00d2 CC       		.byte	-52
 2773 00d3 33       		.byte	51
 2774 00d4 C3       		.byte	-61
 2775 00d5 3C       		.byte	60
 2776 00d6 0000     		.space	2
 2777              	.LC10:
 2778 00d8 AA       		.byte	-86
 2779 00d9 98       		.byte	-104
 2780 00da 00       		.byte	0
 2781 00db A5       		.byte	-91
 2782 00dc 01       		.byte	1
 2783 00dd 32       		.byte	50
 2784 00de 23       		.byte	35
 2785 00df C5       		.byte	-59
 2786 00e0 02       		.byte	2
 2787 00e1 00       		.byte	0
 2788 00e2 00       		.byte	0
 2789 00e3 FF       		.byte	-1
 2790 00e4 FF       		.byte	-1
 2791 00e5 20       		.byte	32
 2792 00e6 CC       		.byte	-52
 2793 00e7 33       		.byte	51
 2794 00e8 C3       		.byte	-61
 2795 00e9 3C       		.byte	60
 2796 00ea 0000     		.space	2
 2797              	.LC11:
 2798 00ec AA       		.byte	-86
ARM GAS  C:\Users\RECEPC~1\AppData\Local\Temp\ccohni6j.s 			page 64


 2799 00ed 98       		.byte	-104
 2800 00ee 00       		.byte	0
 2801 00ef A5       		.byte	-91
 2802 00f0 00       		.byte	0
 2803 00f1 C1       		.byte	-63
 2804 00f2 23       		.byte	35
 2805 00f3 C5       		.byte	-59
 2806 00f4 02       		.byte	2
 2807 00f5 00       		.byte	0
 2808 00f6 00       		.byte	0
 2809 00f7 FF       		.byte	-1
 2810 00f8 FF       		.byte	-1
 2811 00f9 20       		.byte	32
 2812 00fa CC       		.byte	-52
 2813 00fb 33       		.byte	51
 2814 00fc C3       		.byte	-61
 2815 00fd 3C       		.byte	60
 2816 00fe 0000     		.text
 2817              	.Letext0:
 2818              		.file 2 "c:\\program files (x86)\\cypress\\psoc creator\\3.3\\psoc creator\\import\\gnu\\arm\\4.9.
 2819              		.file 3 "c:\\program files (x86)\\cypress\\psoc creator\\3.3\\psoc creator\\import\\gnu\\arm\\4.9.
 2820              		.file 4 "Generated_Source\\PSoC5/cytypes.h"
 2821              		.file 5 ".\\VariablesG.h"
 2822              		.file 6 "Generated_Source\\PSoC5/core_cm3.h"
 2823              		.file 7 "Generated_Source\\PSoC5/LCD_1.h"
 2824              		.file 8 "Generated_Source\\PSoC5/LCD_2.h"
 2825              		.file 9 ".\\I2C.h"
 2826              		.section	.debug_info,"",%progbits
 2827              	.Ldebug_info0:
 2828 0000 27160000 		.4byte	0x1627
 2829 0004 0400     		.2byte	0x4
 2830 0006 00000000 		.4byte	.Ldebug_abbrev0
 2831 000a 04       		.byte	0x4
 2832 000b 01       		.uleb128 0x1
 2833 000c 01060000 		.4byte	.LASF159
 2834 0010 01       		.byte	0x1
 2835 0011 3D000000 		.4byte	.LASF160
 2836 0015 38010000 		.4byte	.LASF161
 2837 0019 00000000 		.4byte	.Ldebug_ranges0+0
 2838 001d 00000000 		.4byte	0
 2839 0021 00000000 		.4byte	.Ldebug_line0
 2840 0025 02       		.uleb128 0x2
 2841 0026 01       		.byte	0x1
 2842 0027 06       		.byte	0x6
 2843 0028 A9060000 		.4byte	.LASF0
 2844 002c 02       		.uleb128 0x2
 2845 002d 01       		.byte	0x1
 2846 002e 08       		.byte	0x8
 2847 002f F3050000 		.4byte	.LASF1
 2848 0033 02       		.uleb128 0x2
 2849 0034 02       		.byte	0x2
 2850 0035 05       		.byte	0x5
 2851 0036 E2040000 		.4byte	.LASF2
 2852 003a 02       		.uleb128 0x2
 2853 003b 02       		.byte	0x2
 2854 003c 07       		.byte	0x7
 2855 003d BB060000 		.4byte	.LASF3
ARM GAS  C:\Users\RECEPC~1\AppData\Local\Temp\ccohni6j.s 			page 65


 2856 0041 03       		.uleb128 0x3
 2857 0042 67000000 		.4byte	.LASF9
 2858 0046 02       		.byte	0x2
 2859 0047 3F       		.byte	0x3f
 2860 0048 4C000000 		.4byte	0x4c
 2861 004c 02       		.uleb128 0x2
 2862 004d 04       		.byte	0x4
 2863 004e 05       		.byte	0x5
 2864 004f EC040000 		.4byte	.LASF4
 2865 0053 02       		.uleb128 0x2
 2866 0054 04       		.byte	0x4
 2867 0055 07       		.byte	0x7
 2868 0056 AE050000 		.4byte	.LASF5
 2869 005a 02       		.uleb128 0x2
 2870 005b 08       		.byte	0x8
 2871 005c 05       		.byte	0x5
 2872 005d B8030000 		.4byte	.LASF6
 2873 0061 02       		.uleb128 0x2
 2874 0062 08       		.byte	0x8
 2875 0063 07       		.byte	0x7
 2876 0064 38020000 		.4byte	.LASF7
 2877 0068 04       		.uleb128 0x4
 2878 0069 04       		.byte	0x4
 2879 006a 05       		.byte	0x5
 2880 006b 696E7400 		.ascii	"int\000"
 2881 006f 02       		.uleb128 0x2
 2882 0070 04       		.byte	0x4
 2883 0071 07       		.byte	0x7
 2884 0072 4C000000 		.4byte	.LASF8
 2885 0076 03       		.uleb128 0x3
 2886 0077 C8050000 		.4byte	.LASF10
 2887 007b 03       		.byte	0x3
 2888 007c 2C       		.byte	0x2c
 2889 007d 41000000 		.4byte	0x41
 2890 0081 05       		.uleb128 0x5
 2891 0082 E5060000 		.4byte	.LASF11
 2892 0086 04       		.byte	0x4
 2893 0087 3801     		.2byte	0x138
 2894 0089 2C000000 		.4byte	0x2c
 2895 008d 05       		.uleb128 0x5
 2896 008e 7D030000 		.4byte	.LASF12
 2897 0092 04       		.byte	0x4
 2898 0093 3901     		.2byte	0x139
 2899 0095 3A000000 		.4byte	0x3a
 2900 0099 05       		.uleb128 0x5
 2901 009a 23040000 		.4byte	.LASF13
 2902 009e 04       		.byte	0x4
 2903 009f 3A01     		.2byte	0x13a
 2904 00a1 53000000 		.4byte	0x53
 2905 00a5 02       		.uleb128 0x2
 2906 00a6 04       		.byte	0x4
 2907 00a7 04       		.byte	0x4
 2908 00a8 F1010000 		.4byte	.LASF14
 2909 00ac 02       		.uleb128 0x2
 2910 00ad 08       		.byte	0x8
 2911 00ae 04       		.byte	0x4
 2912 00af EB060000 		.4byte	.LASF15
ARM GAS  C:\Users\RECEPC~1\AppData\Local\Temp\ccohni6j.s 			page 66


 2913 00b3 02       		.uleb128 0x2
 2914 00b4 01       		.byte	0x1
 2915 00b5 08       		.byte	0x8
 2916 00b6 6E030000 		.4byte	.LASF16
 2917 00ba 02       		.uleb128 0x2
 2918 00bb 04       		.byte	0x4
 2919 00bc 07       		.byte	0x7
 2920 00bd A5050000 		.4byte	.LASF17
 2921 00c1 06       		.uleb128 0x6
 2922 00c2 45000000 		.4byte	.LASF28
 2923 00c6 98       		.byte	0x98
 2924 00c7 05       		.byte	0x5
 2925 00c8 A1       		.byte	0xa1
 2926 00c9 68010000 		.4byte	0x168
 2927 00cd 07       		.uleb128 0x7
 2928 00ce 14040000 		.4byte	.LASF18
 2929 00d2 05       		.byte	0x5
 2930 00d3 A2       		.byte	0xa2
 2931 00d4 81000000 		.4byte	0x81
 2932 00d8 00       		.byte	0
 2933 00d9 08       		.uleb128 0x8
 2934 00da 706F7300 		.ascii	"pos\000"
 2935 00de 05       		.byte	0x5
 2936 00df A3       		.byte	0xa3
 2937 00e0 81000000 		.4byte	0x81
 2938 00e4 01       		.byte	0x1
 2939 00e5 07       		.uleb128 0x7
 2940 00e6 00010000 		.4byte	.LASF19
 2941 00ea 05       		.byte	0x5
 2942 00eb A4       		.byte	0xa4
 2943 00ec 81000000 		.4byte	0x81
 2944 00f0 02       		.byte	0x2
 2945 00f1 07       		.uleb128 0x7
 2946 00f2 D4010000 		.4byte	.LASF20
 2947 00f6 05       		.byte	0x5
 2948 00f7 A5       		.byte	0xa5
 2949 00f8 81000000 		.4byte	0x81
 2950 00fc 03       		.byte	0x3
 2951 00fd 08       		.uleb128 0x8
 2952 00fe 6B6D00   		.ascii	"km\000"
 2953 0101 05       		.byte	0x5
 2954 0102 A6       		.byte	0xa6
 2955 0103 68010000 		.4byte	0x168
 2956 0107 04       		.byte	0x4
 2957 0108 07       		.uleb128 0x7
 2958 0109 B5060000 		.4byte	.LASF21
 2959 010d 05       		.byte	0x5
 2960 010e A7       		.byte	0xa7
 2961 010f 78010000 		.4byte	0x178
 2962 0113 0B       		.byte	0xb
 2963 0114 08       		.uleb128 0x8
 2964 0115 696400   		.ascii	"id\000"
 2965 0118 05       		.byte	0x5
 2966 0119 A8       		.byte	0xa8
 2967 011a 78010000 		.4byte	0x178
 2968 011e 29       		.byte	0x29
 2969 011f 07       		.uleb128 0x7
ARM GAS  C:\Users\RECEPC~1\AppData\Local\Temp\ccohni6j.s 			page 67


 2970 0120 65020000 		.4byte	.LASF22
 2971 0124 05       		.byte	0x5
 2972 0125 A9       		.byte	0xa9
 2973 0126 78010000 		.4byte	0x178
 2974 012a 47       		.byte	0x47
 2975 012b 07       		.uleb128 0x7
 2976 012c B3020000 		.4byte	.LASF23
 2977 0130 05       		.byte	0x5
 2978 0131 AA       		.byte	0xaa
 2979 0132 78010000 		.4byte	0x178
 2980 0136 65       		.byte	0x65
 2981 0137 07       		.uleb128 0x7
 2982 0138 7B000000 		.4byte	.LASF24
 2983 013c 05       		.byte	0x5
 2984 013d AB       		.byte	0xab
 2985 013e 81000000 		.4byte	0x81
 2986 0142 83       		.byte	0x83
 2987 0143 07       		.uleb128 0x7
 2988 0144 D9030000 		.4byte	.LASF25
 2989 0148 05       		.byte	0x5
 2990 0149 AC       		.byte	0xac
 2991 014a 88010000 		.4byte	0x188
 2992 014e 84       		.byte	0x84
 2993 014f 07       		.uleb128 0x7
 2994 0150 0E000000 		.4byte	.LASF26
 2995 0154 05       		.byte	0x5
 2996 0155 AD       		.byte	0xad
 2997 0156 98010000 		.4byte	0x198
 2998 015a 8E       		.byte	0x8e
 2999 015b 07       		.uleb128 0x7
 3000 015c 9E030000 		.4byte	.LASF27
 3001 0160 05       		.byte	0x5
 3002 0161 AE       		.byte	0xae
 3003 0162 81000000 		.4byte	0x81
 3004 0166 97       		.byte	0x97
 3005 0167 00       		.byte	0
 3006 0168 09       		.uleb128 0x9
 3007 0169 81000000 		.4byte	0x81
 3008 016d 78010000 		.4byte	0x178
 3009 0171 0A       		.uleb128 0xa
 3010 0172 BA000000 		.4byte	0xba
 3011 0176 06       		.byte	0x6
 3012 0177 00       		.byte	0
 3013 0178 09       		.uleb128 0x9
 3014 0179 81000000 		.4byte	0x81
 3015 017d 88010000 		.4byte	0x188
 3016 0181 0A       		.uleb128 0xa
 3017 0182 BA000000 		.4byte	0xba
 3018 0186 1D       		.byte	0x1d
 3019 0187 00       		.byte	0
 3020 0188 09       		.uleb128 0x9
 3021 0189 81000000 		.4byte	0x81
 3022 018d 98010000 		.4byte	0x198
 3023 0191 0A       		.uleb128 0xa
 3024 0192 BA000000 		.4byte	0xba
 3025 0196 09       		.byte	0x9
 3026 0197 00       		.byte	0
ARM GAS  C:\Users\RECEPC~1\AppData\Local\Temp\ccohni6j.s 			page 68


 3027 0198 09       		.uleb128 0x9
 3028 0199 81000000 		.4byte	0x81
 3029 019d A8010000 		.4byte	0x1a8
 3030 01a1 0A       		.uleb128 0xa
 3031 01a2 BA000000 		.4byte	0xba
 3032 01a6 08       		.byte	0x8
 3033 01a7 00       		.byte	0
 3034 01a8 0B       		.uleb128 0xb
 3035 01a9 706F7300 		.ascii	"pos\000"
 3036 01ad 4C       		.byte	0x4c
 3037 01ae 05       		.byte	0x5
 3038 01af B7       		.byte	0xb7
 3039 01b0 F1010000 		.4byte	0x1f1
 3040 01b4 08       		.uleb128 0x8
 3041 01b5 64697200 		.ascii	"dir\000"
 3042 01b9 05       		.byte	0x5
 3043 01ba B8       		.byte	0xb8
 3044 01bb 81000000 		.4byte	0x81
 3045 01bf 00       		.byte	0
 3046 01c0 07       		.uleb128 0x7
 3047 01c1 56040000 		.4byte	.LASF29
 3048 01c5 05       		.byte	0x5
 3049 01c6 B9       		.byte	0xb9
 3050 01c7 81000000 		.4byte	0x81
 3051 01cb 01       		.byte	0x1
 3052 01cc 07       		.uleb128 0x7
 3053 01cd 07070000 		.4byte	.LASF30
 3054 01d1 05       		.byte	0x5
 3055 01d2 BA       		.byte	0xba
 3056 01d3 81000000 		.4byte	0x81
 3057 01d7 02       		.byte	0x2
 3058 01d8 07       		.uleb128 0x7
 3059 01d9 22000000 		.4byte	.LASF31
 3060 01dd 05       		.byte	0x5
 3061 01de BB       		.byte	0xbb
 3062 01df 81000000 		.4byte	0x81
 3063 01e3 03       		.byte	0x3
 3064 01e4 07       		.uleb128 0x7
 3065 01e5 A4030000 		.4byte	.LASF32
 3066 01e9 05       		.byte	0x5
 3067 01ea BC       		.byte	0xbc
 3068 01eb 07020000 		.4byte	0x207
 3069 01ef 04       		.byte	0x4
 3070 01f0 00       		.byte	0
 3071 01f1 09       		.uleb128 0x9
 3072 01f2 81000000 		.4byte	0x81
 3073 01f6 07020000 		.4byte	0x207
 3074 01fa 0A       		.uleb128 0xa
 3075 01fb BA000000 		.4byte	0xba
 3076 01ff 02       		.byte	0x2
 3077 0200 0A       		.uleb128 0xa
 3078 0201 BA000000 		.4byte	0xba
 3079 0205 17       		.byte	0x17
 3080 0206 00       		.byte	0
 3081 0207 0C       		.uleb128 0xc
 3082 0208 F1010000 		.4byte	0x1f1
 3083 020c 06       		.uleb128 0x6
ARM GAS  C:\Users\RECEPC~1\AppData\Local\Temp\ccohni6j.s 			page 69


 3084 020d 3C040000 		.4byte	.LASF33
 3085 0211 E1       		.byte	0xe1
 3086 0212 05       		.byte	0x5
 3087 0213 C6       		.byte	0xc6
 3088 0214 F1020000 		.4byte	0x2f1
 3089 0218 07       		.uleb128 0x7
 3090 0219 B2040000 		.4byte	.LASF34
 3091 021d 05       		.byte	0x5
 3092 021e C7       		.byte	0xc7
 3093 021f 78010000 		.4byte	0x178
 3094 0223 00       		.byte	0
 3095 0224 08       		.uleb128 0x8
 3096 0225 6E697400 		.ascii	"nit\000"
 3097 0229 05       		.byte	0x5
 3098 022a C8       		.byte	0xc8
 3099 022b F1020000 		.4byte	0x2f1
 3100 022f 1E       		.byte	0x1e
 3101 0230 07       		.uleb128 0x7
 3102 0231 CF030000 		.4byte	.LASF35
 3103 0235 05       		.byte	0x5
 3104 0236 C9       		.byte	0xc9
 3105 0237 01030000 		.4byte	0x301
 3106 023b 2D       		.byte	0x2d
 3107 023c 07       		.uleb128 0x7
 3108 023d 06030000 		.4byte	.LASF36
 3109 0241 05       		.byte	0x5
 3110 0242 CA       		.byte	0xca
 3111 0243 11030000 		.4byte	0x311
 3112 0247 2F       		.byte	0x2f
 3113 0248 07       		.uleb128 0x7
 3114 0249 9E010000 		.4byte	.LASF37
 3115 024d 05       		.byte	0x5
 3116 024e CB       		.byte	0xcb
 3117 024f 78010000 		.4byte	0x178
 3118 0253 43       		.byte	0x43
 3119 0254 07       		.uleb128 0x7
 3120 0255 02020000 		.4byte	.LASF38
 3121 0259 05       		.byte	0x5
 3122 025a CC       		.byte	0xcc
 3123 025b 78010000 		.4byte	0x178
 3124 025f 61       		.byte	0x61
 3125 0260 07       		.uleb128 0x7
 3126 0261 08020000 		.4byte	.LASF39
 3127 0265 05       		.byte	0x5
 3128 0266 CD       		.byte	0xcd
 3129 0267 78010000 		.4byte	0x178
 3130 026b 7F       		.byte	0x7f
 3131 026c 07       		.uleb128 0x7
 3132 026d 99060000 		.4byte	.LASF40
 3133 0271 05       		.byte	0x5
 3134 0272 CE       		.byte	0xce
 3135 0273 21030000 		.4byte	0x321
 3136 0277 9D       		.byte	0x9d
 3137 0278 07       		.uleb128 0x7
 3138 0279 20010000 		.4byte	.LASF41
 3139 027d 05       		.byte	0x5
 3140 027e CF       		.byte	0xcf
ARM GAS  C:\Users\RECEPC~1\AppData\Local\Temp\ccohni6j.s 			page 70


 3141 027f 01030000 		.4byte	0x301
 3142 0283 A0       		.byte	0xa0
 3143 0284 07       		.uleb128 0x7
 3144 0285 84010000 		.4byte	.LASF42
 3145 0289 05       		.byte	0x5
 3146 028a D0       		.byte	0xd0
 3147 028b 81000000 		.4byte	0x81
 3148 028f A2       		.byte	0xa2
 3149 0290 07       		.uleb128 0x7
 3150 0291 C6030000 		.4byte	.LASF43
 3151 0295 05       		.byte	0x5
 3152 0296 D1       		.byte	0xd1
 3153 0297 81000000 		.4byte	0x81
 3154 029b A3       		.byte	0xa3
 3155 029c 08       		.uleb128 0x8
 3156 029d 70707500 		.ascii	"ppu\000"
 3157 02a1 05       		.byte	0x5
 3158 02a2 D2       		.byte	0xd2
 3159 02a3 68010000 		.4byte	0x168
 3160 02a7 A4       		.byte	0xa4
 3161 02a8 07       		.uleb128 0x7
 3162 02a9 43040000 		.4byte	.LASF44
 3163 02ad 05       		.byte	0x5
 3164 02ae D3       		.byte	0xd3
 3165 02af 98010000 		.4byte	0x198
 3166 02b3 AB       		.byte	0xab
 3167 02b4 07       		.uleb128 0x7
 3168 02b5 F2020000 		.4byte	.LASF45
 3169 02b9 05       		.byte	0x5
 3170 02ba D4       		.byte	0xd4
 3171 02bb 98010000 		.4byte	0x198
 3172 02bf B4       		.byte	0xb4
 3173 02c0 07       		.uleb128 0x7
 3174 02c1 51030000 		.4byte	.LASF46
 3175 02c5 05       		.byte	0x5
 3176 02c6 D5       		.byte	0xd5
 3177 02c7 31030000 		.4byte	0x331
 3178 02cb BD       		.byte	0xbd
 3179 02cc 07       		.uleb128 0x7
 3180 02cd 7C010000 		.4byte	.LASF47
 3181 02d1 05       		.byte	0x5
 3182 02d2 D6       		.byte	0xd6
 3183 02d3 31030000 		.4byte	0x331
 3184 02d7 CA       		.byte	0xca
 3185 02d8 07       		.uleb128 0x7
 3186 02d9 0E000000 		.4byte	.LASF26
 3187 02dd 05       		.byte	0x5
 3188 02de D7       		.byte	0xd7
 3189 02df 98010000 		.4byte	0x198
 3190 02e3 D7       		.byte	0xd7
 3191 02e4 07       		.uleb128 0x7
 3192 02e5 07070000 		.4byte	.LASF30
 3193 02e9 05       		.byte	0x5
 3194 02ea D8       		.byte	0xd8
 3195 02eb 81000000 		.4byte	0x81
 3196 02ef E0       		.byte	0xe0
 3197 02f0 00       		.byte	0
ARM GAS  C:\Users\RECEPC~1\AppData\Local\Temp\ccohni6j.s 			page 71


 3198 02f1 09       		.uleb128 0x9
 3199 02f2 81000000 		.4byte	0x81
 3200 02f6 01030000 		.4byte	0x301
 3201 02fa 0A       		.uleb128 0xa
 3202 02fb BA000000 		.4byte	0xba
 3203 02ff 0E       		.byte	0xe
 3204 0300 00       		.byte	0
 3205 0301 09       		.uleb128 0x9
 3206 0302 81000000 		.4byte	0x81
 3207 0306 11030000 		.4byte	0x311
 3208 030a 0A       		.uleb128 0xa
 3209 030b BA000000 		.4byte	0xba
 3210 030f 01       		.byte	0x1
 3211 0310 00       		.byte	0
 3212 0311 09       		.uleb128 0x9
 3213 0312 81000000 		.4byte	0x81
 3214 0316 21030000 		.4byte	0x321
 3215 031a 0A       		.uleb128 0xa
 3216 031b BA000000 		.4byte	0xba
 3217 031f 13       		.byte	0x13
 3218 0320 00       		.byte	0
 3219 0321 09       		.uleb128 0x9
 3220 0322 81000000 		.4byte	0x81
 3221 0326 31030000 		.4byte	0x331
 3222 032a 0A       		.uleb128 0xa
 3223 032b BA000000 		.4byte	0xba
 3224 032f 02       		.byte	0x2
 3225 0330 00       		.byte	0
 3226 0331 09       		.uleb128 0x9
 3227 0332 81000000 		.4byte	0x81
 3228 0336 41030000 		.4byte	0x341
 3229 033a 0A       		.uleb128 0xa
 3230 033b BA000000 		.4byte	0xba
 3231 033f 0C       		.byte	0xc
 3232 0340 00       		.byte	0
 3233 0341 0D       		.uleb128 0xd
 3234 0342 1D050000 		.4byte	.LASF48
 3235 0346 01       		.byte	0x1
 3236 0347 38       		.byte	0x38
 3237 0348 00000000 		.4byte	.LFB63
 3238 034c 70000000 		.4byte	.LFE63-.LFB63
 3239 0350 01       		.uleb128 0x1
 3240 0351 9C       		.byte	0x9c
 3241 0352 B4040000 		.4byte	0x4b4
 3242 0356 0E       		.uleb128 0xe
 3243 0357 6C636400 		.ascii	"lcd\000"
 3244 035b 01       		.byte	0x1
 3245 035c 38       		.byte	0x38
 3246 035d 81000000 		.4byte	0x81
 3247 0361 00000000 		.4byte	.LLST0
 3248 0365 0E       		.uleb128 0xe
 3249 0366 696400   		.ascii	"id\000"
 3250 0369 01       		.byte	0x1
 3251 036a 38       		.byte	0x38
 3252 036b 8D000000 		.4byte	0x8d
 3253 036f 21000000 		.4byte	.LLST1
 3254 0373 0F       		.uleb128 0xf
ARM GAS  C:\Users\RECEPC~1\AppData\Local\Temp\ccohni6j.s 			page 72


 3255 0374 10000000 		.4byte	.LVL2
 3256 0378 F2150000 		.4byte	0x15f2
 3257 037c 87030000 		.4byte	0x387
 3258 0380 10       		.uleb128 0x10
 3259 0381 01       		.uleb128 0x1
 3260 0382 50       		.byte	0x50
 3261 0383 02       		.uleb128 0x2
 3262 0384 09       		.byte	0x9
 3263 0385 AA       		.byte	0xaa
 3264 0386 00       		.byte	0
 3265 0387 0F       		.uleb128 0xf
 3266 0388 16000000 		.4byte	.LVL3
 3267 038c F2150000 		.4byte	0x15f2
 3268 0390 9B030000 		.4byte	0x39b
 3269 0394 10       		.uleb128 0x10
 3270 0395 01       		.uleb128 0x1
 3271 0396 50       		.byte	0x50
 3272 0397 02       		.uleb128 0x2
 3273 0398 08       		.byte	0x8
 3274 0399 70       		.byte	0x70
 3275 039a 00       		.byte	0
 3276 039b 0F       		.uleb128 0xf
 3277 039c 1C000000 		.4byte	.LVL4
 3278 03a0 F2150000 		.4byte	0x15f2
 3279 03a4 B1030000 		.4byte	0x3b1
 3280 03a8 10       		.uleb128 0x10
 3281 03a9 01       		.uleb128 0x1
 3282 03aa 50       		.byte	0x50
 3283 03ab 04       		.uleb128 0x4
 3284 03ac 75       		.byte	0x75
 3285 03ad 00       		.sleb128 0
 3286 03ae 38       		.byte	0x38
 3287 03af 25       		.byte	0x25
 3288 03b0 00       		.byte	0
 3289 03b1 0F       		.uleb128 0xf
 3290 03b2 22000000 		.4byte	.LVL5
 3291 03b6 F2150000 		.4byte	0x15f2
 3292 03ba C5030000 		.4byte	0x3c5
 3293 03be 10       		.uleb128 0x10
 3294 03bf 01       		.uleb128 0x1
 3295 03c0 50       		.byte	0x50
 3296 03c1 02       		.uleb128 0x2
 3297 03c2 75       		.byte	0x75
 3298 03c3 00       		.sleb128 0
 3299 03c4 00       		.byte	0
 3300 03c5 0F       		.uleb128 0xf
 3301 03c6 28000000 		.4byte	.LVL6
 3302 03ca F2150000 		.4byte	0x15f2
 3303 03ce D9030000 		.4byte	0x3d9
 3304 03d2 10       		.uleb128 0x10
 3305 03d3 01       		.uleb128 0x1
 3306 03d4 50       		.byte	0x50
 3307 03d5 02       		.uleb128 0x2
 3308 03d6 09       		.byte	0x9
 3309 03d7 CC       		.byte	0xcc
 3310 03d8 00       		.byte	0
 3311 03d9 0F       		.uleb128 0xf
ARM GAS  C:\Users\RECEPC~1\AppData\Local\Temp\ccohni6j.s 			page 73


 3312 03da 2E000000 		.4byte	.LVL7
 3313 03de F2150000 		.4byte	0x15f2
 3314 03e2 ED030000 		.4byte	0x3ed
 3315 03e6 10       		.uleb128 0x10
 3316 03e7 01       		.uleb128 0x1
 3317 03e8 50       		.byte	0x50
 3318 03e9 02       		.uleb128 0x2
 3319 03ea 08       		.byte	0x8
 3320 03eb 33       		.byte	0x33
 3321 03ec 00       		.byte	0
 3322 03ed 0F       		.uleb128 0xf
 3323 03ee 34000000 		.4byte	.LVL8
 3324 03f2 F2150000 		.4byte	0x15f2
 3325 03f6 01040000 		.4byte	0x401
 3326 03fa 10       		.uleb128 0x10
 3327 03fb 01       		.uleb128 0x1
 3328 03fc 50       		.byte	0x50
 3329 03fd 02       		.uleb128 0x2
 3330 03fe 09       		.byte	0x9
 3331 03ff C3       		.byte	0xc3
 3332 0400 00       		.byte	0
 3333 0401 0F       		.uleb128 0xf
 3334 0402 3A000000 		.4byte	.LVL9
 3335 0406 F2150000 		.4byte	0x15f2
 3336 040a 15040000 		.4byte	0x415
 3337 040e 10       		.uleb128 0x10
 3338 040f 01       		.uleb128 0x1
 3339 0410 50       		.byte	0x50
 3340 0411 02       		.uleb128 0x2
 3341 0412 08       		.byte	0x8
 3342 0413 3C       		.byte	0x3c
 3343 0414 00       		.byte	0
 3344 0415 0F       		.uleb128 0xf
 3345 0416 44000000 		.4byte	.LVL10
 3346 041a 03160000 		.4byte	0x1603
 3347 041e 29040000 		.4byte	0x429
 3348 0422 10       		.uleb128 0x10
 3349 0423 01       		.uleb128 0x1
 3350 0424 50       		.byte	0x50
 3351 0425 02       		.uleb128 0x2
 3352 0426 09       		.byte	0x9
 3353 0427 AA       		.byte	0xaa
 3354 0428 00       		.byte	0
 3355 0429 0F       		.uleb128 0xf
 3356 042a 4A000000 		.4byte	.LVL11
 3357 042e 03160000 		.4byte	0x1603
 3358 0432 3D040000 		.4byte	0x43d
 3359 0436 10       		.uleb128 0x10
 3360 0437 01       		.uleb128 0x1
 3361 0438 50       		.byte	0x50
 3362 0439 02       		.uleb128 0x2
 3363 043a 08       		.byte	0x8
 3364 043b 70       		.byte	0x70
 3365 043c 00       		.byte	0
 3366 043d 0F       		.uleb128 0xf
 3367 043e 50000000 		.4byte	.LVL12
 3368 0442 03160000 		.4byte	0x1603
ARM GAS  C:\Users\RECEPC~1\AppData\Local\Temp\ccohni6j.s 			page 74


 3369 0446 53040000 		.4byte	0x453
 3370 044a 10       		.uleb128 0x10
 3371 044b 01       		.uleb128 0x1
 3372 044c 50       		.byte	0x50
 3373 044d 04       		.uleb128 0x4
 3374 044e 75       		.byte	0x75
 3375 044f 00       		.sleb128 0
 3376 0450 38       		.byte	0x38
 3377 0451 25       		.byte	0x25
 3378 0452 00       		.byte	0
 3379 0453 0F       		.uleb128 0xf
 3380 0454 56000000 		.4byte	.LVL13
 3381 0458 03160000 		.4byte	0x1603
 3382 045c 67040000 		.4byte	0x467
 3383 0460 10       		.uleb128 0x10
 3384 0461 01       		.uleb128 0x1
 3385 0462 50       		.byte	0x50
 3386 0463 02       		.uleb128 0x2
 3387 0464 75       		.byte	0x75
 3388 0465 00       		.sleb128 0
 3389 0466 00       		.byte	0
 3390 0467 0F       		.uleb128 0xf
 3391 0468 5C000000 		.4byte	.LVL14
 3392 046c 03160000 		.4byte	0x1603
 3393 0470 7B040000 		.4byte	0x47b
 3394 0474 10       		.uleb128 0x10
 3395 0475 01       		.uleb128 0x1
 3396 0476 50       		.byte	0x50
 3397 0477 02       		.uleb128 0x2
 3398 0478 09       		.byte	0x9
 3399 0479 CC       		.byte	0xcc
 3400 047a 00       		.byte	0
 3401 047b 0F       		.uleb128 0xf
 3402 047c 62000000 		.4byte	.LVL15
 3403 0480 03160000 		.4byte	0x1603
 3404 0484 8F040000 		.4byte	0x48f
 3405 0488 10       		.uleb128 0x10
 3406 0489 01       		.uleb128 0x1
 3407 048a 50       		.byte	0x50
 3408 048b 02       		.uleb128 0x2
 3409 048c 08       		.byte	0x8
 3410 048d 33       		.byte	0x33
 3411 048e 00       		.byte	0
 3412 048f 0F       		.uleb128 0xf
 3413 0490 68000000 		.4byte	.LVL16
 3414 0494 03160000 		.4byte	0x1603
 3415 0498 A3040000 		.4byte	0x4a3
 3416 049c 10       		.uleb128 0x10
 3417 049d 01       		.uleb128 0x1
 3418 049e 50       		.byte	0x50
 3419 049f 02       		.uleb128 0x2
 3420 04a0 09       		.byte	0x9
 3421 04a1 C3       		.byte	0xc3
 3422 04a2 00       		.byte	0
 3423 04a3 11       		.uleb128 0x11
 3424 04a4 6E000000 		.4byte	.LVL17
 3425 04a8 03160000 		.4byte	0x1603
ARM GAS  C:\Users\RECEPC~1\AppData\Local\Temp\ccohni6j.s 			page 75


 3426 04ac 10       		.uleb128 0x10
 3427 04ad 01       		.uleb128 0x1
 3428 04ae 50       		.byte	0x50
 3429 04af 02       		.uleb128 0x2
 3430 04b0 08       		.byte	0x8
 3431 04b1 3C       		.byte	0x3c
 3432 04b2 00       		.byte	0
 3433 04b3 00       		.byte	0
 3434 04b4 0D       		.uleb128 0xd
 3435 04b5 19040000 		.4byte	.LASF49
 3436 04b9 01       		.byte	0x1
 3437 04ba 5F       		.byte	0x5f
 3438 04bb 00000000 		.4byte	.LFB64
 3439 04bf FE000000 		.4byte	.LFE64-.LFB64
 3440 04c3 01       		.uleb128 0x1
 3441 04c4 9C       		.byte	0x9c
 3442 04c5 B9070000 		.4byte	0x7b9
 3443 04c9 0E       		.uleb128 0xe
 3444 04ca 6C636400 		.ascii	"lcd\000"
 3445 04ce 01       		.byte	0x1
 3446 04cf 5F       		.byte	0x5f
 3447 04d0 81000000 		.4byte	0x81
 3448 04d4 42000000 		.4byte	.LLST2
 3449 04d8 12       		.uleb128 0x12
 3450 04d9 99030000 		.4byte	.LASF50
 3451 04dd 01       		.byte	0x1
 3452 04de 5F       		.byte	0x5f
 3453 04df 81000000 		.4byte	0x81
 3454 04e3 7C000000 		.4byte	.LLST3
 3455 04e7 0E       		.uleb128 0xe
 3456 04e8 706F7300 		.ascii	"pos\000"
 3457 04ec 01       		.byte	0x1
 3458 04ed 5F       		.byte	0x5f
 3459 04ee 81000000 		.4byte	0x81
 3460 04f2 B6000000 		.4byte	.LLST4
 3461 04f6 0F       		.uleb128 0xf
 3462 04f7 10000000 		.4byte	.LVL20
 3463 04fb F2150000 		.4byte	0x15f2
 3464 04ff 0A050000 		.4byte	0x50a
 3465 0503 10       		.uleb128 0x10
 3466 0504 01       		.uleb128 0x1
 3467 0505 50       		.byte	0x50
 3468 0506 02       		.uleb128 0x2
 3469 0507 09       		.byte	0x9
 3470 0508 AA       		.byte	0xaa
 3471 0509 00       		.byte	0
 3472 050a 0F       		.uleb128 0xf
 3473 050b 16000000 		.4byte	.LVL21
 3474 050f F2150000 		.4byte	0x15f2
 3475 0513 1E050000 		.4byte	0x51e
 3476 0517 10       		.uleb128 0x10
 3477 0518 01       		.uleb128 0x1
 3478 0519 50       		.byte	0x50
 3479 051a 02       		.uleb128 0x2
 3480 051b 09       		.byte	0x9
 3481 051c 98       		.byte	0x98
 3482 051d 00       		.byte	0
ARM GAS  C:\Users\RECEPC~1\AppData\Local\Temp\ccohni6j.s 			page 76


 3483 051e 0F       		.uleb128 0xf
 3484 051f 1C000000 		.4byte	.LVL22
 3485 0523 F2150000 		.4byte	0x15f2
 3486 0527 31050000 		.4byte	0x531
 3487 052b 10       		.uleb128 0x10
 3488 052c 01       		.uleb128 0x1
 3489 052d 50       		.byte	0x50
 3490 052e 01       		.uleb128 0x1
 3491 052f 30       		.byte	0x30
 3492 0530 00       		.byte	0
 3493 0531 0F       		.uleb128 0xf
 3494 0532 2E000000 		.4byte	.LVL23
 3495 0536 F2150000 		.4byte	0x15f2
 3496 053a 45050000 		.4byte	0x545
 3497 053e 10       		.uleb128 0x10
 3498 053f 01       		.uleb128 0x1
 3499 0540 50       		.byte	0x50
 3500 0541 02       		.uleb128 0x2
 3501 0542 74       		.byte	0x74
 3502 0543 3F       		.sleb128 63
 3503 0544 00       		.byte	0
 3504 0545 0F       		.uleb128 0xf
 3505 0546 34000000 		.4byte	.LVL24
 3506 054a F2150000 		.4byte	0x15f2
 3507 054e 58050000 		.4byte	0x558
 3508 0552 10       		.uleb128 0x10
 3509 0553 01       		.uleb128 0x1
 3510 0554 50       		.byte	0x50
 3511 0555 01       		.uleb128 0x1
 3512 0556 30       		.byte	0x30
 3513 0557 00       		.byte	0
 3514 0558 0F       		.uleb128 0xf
 3515 0559 3A000000 		.4byte	.LVL25
 3516 055d F2150000 		.4byte	0x15f2
 3517 0561 6C050000 		.4byte	0x56c
 3518 0565 10       		.uleb128 0x10
 3519 0566 01       		.uleb128 0x1
 3520 0567 50       		.byte	0x50
 3521 0568 02       		.uleb128 0x2
 3522 0569 08       		.byte	0x8
 3523 056a 23       		.byte	0x23
 3524 056b 00       		.byte	0
 3525 056c 0F       		.uleb128 0xf
 3526 056d 40000000 		.4byte	.LVL26
 3527 0571 F2150000 		.4byte	0x15f2
 3528 0575 80050000 		.4byte	0x580
 3529 0579 10       		.uleb128 0x10
 3530 057a 01       		.uleb128 0x1
 3531 057b 50       		.byte	0x50
 3532 057c 02       		.uleb128 0x2
 3533 057d 08       		.byte	0x8
 3534 057e 24       		.byte	0x24
 3535 057f 00       		.byte	0
 3536 0580 0F       		.uleb128 0xf
 3537 0581 46000000 		.4byte	.LVL27
 3538 0585 F2150000 		.4byte	0x15f2
 3539 0589 94050000 		.4byte	0x594
ARM GAS  C:\Users\RECEPC~1\AppData\Local\Temp\ccohni6j.s 			page 77


 3540 058d 10       		.uleb128 0x10
 3541 058e 01       		.uleb128 0x1
 3542 058f 50       		.byte	0x50
 3543 0590 02       		.uleb128 0x2
 3544 0591 09       		.byte	0x9
 3545 0592 C5       		.byte	0xc5
 3546 0593 00       		.byte	0
 3547 0594 0F       		.uleb128 0xf
 3548 0595 4C000000 		.4byte	.LVL28
 3549 0599 F2150000 		.4byte	0x15f2
 3550 059d A7050000 		.4byte	0x5a7
 3551 05a1 10       		.uleb128 0x10
 3552 05a2 01       		.uleb128 0x1
 3553 05a3 50       		.byte	0x50
 3554 05a4 01       		.uleb128 0x1
 3555 05a5 32       		.byte	0x32
 3556 05a6 00       		.byte	0
 3557 05a7 0F       		.uleb128 0xf
 3558 05a8 52000000 		.4byte	.LVL29
 3559 05ac F2150000 		.4byte	0x15f2
 3560 05b0 BA050000 		.4byte	0x5ba
 3561 05b4 10       		.uleb128 0x10
 3562 05b5 01       		.uleb128 0x1
 3563 05b6 50       		.byte	0x50
 3564 05b7 01       		.uleb128 0x1
 3565 05b8 30       		.byte	0x30
 3566 05b9 00       		.byte	0
 3567 05ba 0F       		.uleb128 0xf
 3568 05bb 58000000 		.4byte	.LVL30
 3569 05bf F2150000 		.4byte	0x15f2
 3570 05c3 CD050000 		.4byte	0x5cd
 3571 05c7 10       		.uleb128 0x10
 3572 05c8 01       		.uleb128 0x1
 3573 05c9 50       		.byte	0x50
 3574 05ca 01       		.uleb128 0x1
 3575 05cb 30       		.byte	0x30
 3576 05cc 00       		.byte	0
 3577 05cd 0F       		.uleb128 0xf
 3578 05ce 5E000000 		.4byte	.LVL31
 3579 05d2 F2150000 		.4byte	0x15f2
 3580 05d6 E1050000 		.4byte	0x5e1
 3581 05da 10       		.uleb128 0x10
 3582 05db 01       		.uleb128 0x1
 3583 05dc 50       		.byte	0x50
 3584 05dd 02       		.uleb128 0x2
 3585 05de 09       		.byte	0x9
 3586 05df FF       		.byte	0xff
 3587 05e0 00       		.byte	0
 3588 05e1 0F       		.uleb128 0xf
 3589 05e2 64000000 		.4byte	.LVL32
 3590 05e6 F2150000 		.4byte	0x15f2
 3591 05ea F5050000 		.4byte	0x5f5
 3592 05ee 10       		.uleb128 0x10
 3593 05ef 01       		.uleb128 0x1
 3594 05f0 50       		.byte	0x50
 3595 05f1 02       		.uleb128 0x2
 3596 05f2 09       		.byte	0x9
ARM GAS  C:\Users\RECEPC~1\AppData\Local\Temp\ccohni6j.s 			page 78


 3597 05f3 FF       		.byte	0xff
 3598 05f4 00       		.byte	0
 3599 05f5 0F       		.uleb128 0xf
 3600 05f6 6A000000 		.4byte	.LVL33
 3601 05fa F2150000 		.4byte	0x15f2
 3602 05fe 09060000 		.4byte	0x609
 3603 0602 10       		.uleb128 0x10
 3604 0603 01       		.uleb128 0x1
 3605 0604 50       		.byte	0x50
 3606 0605 02       		.uleb128 0x2
 3607 0606 75       		.byte	0x75
 3608 0607 00       		.sleb128 0
 3609 0608 00       		.byte	0
 3610 0609 0F       		.uleb128 0xf
 3611 060a 70000000 		.4byte	.LVL34
 3612 060e F2150000 		.4byte	0x15f2
 3613 0612 1D060000 		.4byte	0x61d
 3614 0616 10       		.uleb128 0x10
 3615 0617 01       		.uleb128 0x1
 3616 0618 50       		.byte	0x50
 3617 0619 02       		.uleb128 0x2
 3618 061a 09       		.byte	0x9
 3619 061b CC       		.byte	0xcc
 3620 061c 00       		.byte	0
 3621 061d 0F       		.uleb128 0xf
 3622 061e 76000000 		.4byte	.LVL35
 3623 0622 F2150000 		.4byte	0x15f2
 3624 0626 31060000 		.4byte	0x631
 3625 062a 10       		.uleb128 0x10
 3626 062b 01       		.uleb128 0x1
 3627 062c 50       		.byte	0x50
 3628 062d 02       		.uleb128 0x2
 3629 062e 08       		.byte	0x8
 3630 062f 33       		.byte	0x33
 3631 0630 00       		.byte	0
 3632 0631 0F       		.uleb128 0xf
 3633 0632 7C000000 		.4byte	.LVL36
 3634 0636 F2150000 		.4byte	0x15f2
 3635 063a 45060000 		.4byte	0x645
 3636 063e 10       		.uleb128 0x10
 3637 063f 01       		.uleb128 0x1
 3638 0640 50       		.byte	0x50
 3639 0641 02       		.uleb128 0x2
 3640 0642 09       		.byte	0x9
 3641 0643 C3       		.byte	0xc3
 3642 0644 00       		.byte	0
 3643 0645 0F       		.uleb128 0xf
 3644 0646 82000000 		.4byte	.LVL37
 3645 064a F2150000 		.4byte	0x15f2
 3646 064e 59060000 		.4byte	0x659
 3647 0652 10       		.uleb128 0x10
 3648 0653 01       		.uleb128 0x1
 3649 0654 50       		.byte	0x50
 3650 0655 02       		.uleb128 0x2
 3651 0656 08       		.byte	0x8
 3652 0657 3C       		.byte	0x3c
 3653 0658 00       		.byte	0
ARM GAS  C:\Users\RECEPC~1\AppData\Local\Temp\ccohni6j.s 			page 79


 3654 0659 0F       		.uleb128 0xf
 3655 065a 8A000000 		.4byte	.LVL40
 3656 065e 03160000 		.4byte	0x1603
 3657 0662 6D060000 		.4byte	0x66d
 3658 0666 10       		.uleb128 0x10
 3659 0667 01       		.uleb128 0x1
 3660 0668 50       		.byte	0x50
 3661 0669 02       		.uleb128 0x2
 3662 066a 09       		.byte	0x9
 3663 066b AA       		.byte	0xaa
 3664 066c 00       		.byte	0
 3665 066d 0F       		.uleb128 0xf
 3666 066e 90000000 		.4byte	.LVL41
 3667 0672 03160000 		.4byte	0x1603
 3668 0676 81060000 		.4byte	0x681
 3669 067a 10       		.uleb128 0x10
 3670 067b 01       		.uleb128 0x1
 3671 067c 50       		.byte	0x50
 3672 067d 02       		.uleb128 0x2
 3673 067e 09       		.byte	0x9
 3674 067f 98       		.byte	0x98
 3675 0680 00       		.byte	0
 3676 0681 0F       		.uleb128 0xf
 3677 0682 96000000 		.4byte	.LVL42
 3678 0686 03160000 		.4byte	0x1603
 3679 068a 94060000 		.4byte	0x694
 3680 068e 10       		.uleb128 0x10
 3681 068f 01       		.uleb128 0x1
 3682 0690 50       		.byte	0x50
 3683 0691 01       		.uleb128 0x1
 3684 0692 30       		.byte	0x30
 3685 0693 00       		.byte	0
 3686 0694 0F       		.uleb128 0xf
 3687 0695 A8000000 		.4byte	.LVL43
 3688 0699 03160000 		.4byte	0x1603
 3689 069d A8060000 		.4byte	0x6a8
 3690 06a1 10       		.uleb128 0x10
 3691 06a2 01       		.uleb128 0x1
 3692 06a3 50       		.byte	0x50
 3693 06a4 02       		.uleb128 0x2
 3694 06a5 74       		.byte	0x74
 3695 06a6 3F       		.sleb128 63
 3696 06a7 00       		.byte	0
 3697 06a8 0F       		.uleb128 0xf
 3698 06a9 AE000000 		.4byte	.LVL44
 3699 06ad 03160000 		.4byte	0x1603
 3700 06b1 BB060000 		.4byte	0x6bb
 3701 06b5 10       		.uleb128 0x10
 3702 06b6 01       		.uleb128 0x1
 3703 06b7 50       		.byte	0x50
 3704 06b8 01       		.uleb128 0x1
 3705 06b9 30       		.byte	0x30
 3706 06ba 00       		.byte	0
 3707 06bb 0F       		.uleb128 0xf
 3708 06bc B4000000 		.4byte	.LVL45
 3709 06c0 03160000 		.4byte	0x1603
 3710 06c4 CF060000 		.4byte	0x6cf
ARM GAS  C:\Users\RECEPC~1\AppData\Local\Temp\ccohni6j.s 			page 80


 3711 06c8 10       		.uleb128 0x10
 3712 06c9 01       		.uleb128 0x1
 3713 06ca 50       		.byte	0x50
 3714 06cb 02       		.uleb128 0x2
 3715 06cc 08       		.byte	0x8
 3716 06cd 23       		.byte	0x23
 3717 06ce 00       		.byte	0
 3718 06cf 0F       		.uleb128 0xf
 3719 06d0 BA000000 		.4byte	.LVL46
 3720 06d4 03160000 		.4byte	0x1603
 3721 06d8 E3060000 		.4byte	0x6e3
 3722 06dc 10       		.uleb128 0x10
 3723 06dd 01       		.uleb128 0x1
 3724 06de 50       		.byte	0x50
 3725 06df 02       		.uleb128 0x2
 3726 06e0 08       		.byte	0x8
 3727 06e1 24       		.byte	0x24
 3728 06e2 00       		.byte	0
 3729 06e3 0F       		.uleb128 0xf
 3730 06e4 C0000000 		.4byte	.LVL47
 3731 06e8 03160000 		.4byte	0x1603
 3732 06ec F7060000 		.4byte	0x6f7
 3733 06f0 10       		.uleb128 0x10
 3734 06f1 01       		.uleb128 0x1
 3735 06f2 50       		.byte	0x50
 3736 06f3 02       		.uleb128 0x2
 3737 06f4 09       		.byte	0x9
 3738 06f5 C5       		.byte	0xc5
 3739 06f6 00       		.byte	0
 3740 06f7 0F       		.uleb128 0xf
 3741 06f8 C6000000 		.4byte	.LVL48
 3742 06fc 03160000 		.4byte	0x1603
 3743 0700 0A070000 		.4byte	0x70a
 3744 0704 10       		.uleb128 0x10
 3745 0705 01       		.uleb128 0x1
 3746 0706 50       		.byte	0x50
 3747 0707 01       		.uleb128 0x1
 3748 0708 32       		.byte	0x32
 3749 0709 00       		.byte	0
 3750 070a 0F       		.uleb128 0xf
 3751 070b CC000000 		.4byte	.LVL49
 3752 070f 03160000 		.4byte	0x1603
 3753 0713 1D070000 		.4byte	0x71d
 3754 0717 10       		.uleb128 0x10
 3755 0718 01       		.uleb128 0x1
 3756 0719 50       		.byte	0x50
 3757 071a 01       		.uleb128 0x1
 3758 071b 30       		.byte	0x30
 3759 071c 00       		.byte	0
 3760 071d 0F       		.uleb128 0xf
 3761 071e D2000000 		.4byte	.LVL50
 3762 0722 03160000 		.4byte	0x1603
 3763 0726 30070000 		.4byte	0x730
 3764 072a 10       		.uleb128 0x10
 3765 072b 01       		.uleb128 0x1
 3766 072c 50       		.byte	0x50
 3767 072d 01       		.uleb128 0x1
ARM GAS  C:\Users\RECEPC~1\AppData\Local\Temp\ccohni6j.s 			page 81


 3768 072e 30       		.byte	0x30
 3769 072f 00       		.byte	0
 3770 0730 0F       		.uleb128 0xf
 3771 0731 D8000000 		.4byte	.LVL51
 3772 0735 03160000 		.4byte	0x1603
 3773 0739 44070000 		.4byte	0x744
 3774 073d 10       		.uleb128 0x10
 3775 073e 01       		.uleb128 0x1
 3776 073f 50       		.byte	0x50
 3777 0740 02       		.uleb128 0x2
 3778 0741 09       		.byte	0x9
 3779 0742 FF       		.byte	0xff
 3780 0743 00       		.byte	0
 3781 0744 0F       		.uleb128 0xf
 3782 0745 DE000000 		.4byte	.LVL52
 3783 0749 03160000 		.4byte	0x1603
 3784 074d 58070000 		.4byte	0x758
 3785 0751 10       		.uleb128 0x10
 3786 0752 01       		.uleb128 0x1
 3787 0753 50       		.byte	0x50
 3788 0754 02       		.uleb128 0x2
 3789 0755 09       		.byte	0x9
 3790 0756 FF       		.byte	0xff
 3791 0757 00       		.byte	0
 3792 0758 0F       		.uleb128 0xf
 3793 0759 E4000000 		.4byte	.LVL53
 3794 075d 03160000 		.4byte	0x1603
 3795 0761 6C070000 		.4byte	0x76c
 3796 0765 10       		.uleb128 0x10
 3797 0766 01       		.uleb128 0x1
 3798 0767 50       		.byte	0x50
 3799 0768 02       		.uleb128 0x2
 3800 0769 75       		.byte	0x75
 3801 076a 00       		.sleb128 0
 3802 076b 00       		.byte	0
 3803 076c 0F       		.uleb128 0xf
 3804 076d EA000000 		.4byte	.LVL54
 3805 0771 03160000 		.4byte	0x1603
 3806 0775 80070000 		.4byte	0x780
 3807 0779 10       		.uleb128 0x10
 3808 077a 01       		.uleb128 0x1
 3809 077b 50       		.byte	0x50
 3810 077c 02       		.uleb128 0x2
 3811 077d 09       		.byte	0x9
 3812 077e CC       		.byte	0xcc
 3813 077f 00       		.byte	0
 3814 0780 0F       		.uleb128 0xf
 3815 0781 F0000000 		.4byte	.LVL55
 3816 0785 03160000 		.4byte	0x1603
 3817 0789 94070000 		.4byte	0x794
 3818 078d 10       		.uleb128 0x10
 3819 078e 01       		.uleb128 0x1
 3820 078f 50       		.byte	0x50
 3821 0790 02       		.uleb128 0x2
 3822 0791 08       		.byte	0x8
 3823 0792 33       		.byte	0x33
 3824 0793 00       		.byte	0
ARM GAS  C:\Users\RECEPC~1\AppData\Local\Temp\ccohni6j.s 			page 82


 3825 0794 0F       		.uleb128 0xf
 3826 0795 F6000000 		.4byte	.LVL56
 3827 0799 03160000 		.4byte	0x1603
 3828 079d A8070000 		.4byte	0x7a8
 3829 07a1 10       		.uleb128 0x10
 3830 07a2 01       		.uleb128 0x1
 3831 07a3 50       		.byte	0x50
 3832 07a4 02       		.uleb128 0x2
 3833 07a5 09       		.byte	0x9
 3834 07a6 C3       		.byte	0xc3
 3835 07a7 00       		.byte	0
 3836 07a8 11       		.uleb128 0x11
 3837 07a9 FC000000 		.4byte	.LVL57
 3838 07ad 03160000 		.4byte	0x1603
 3839 07b1 10       		.uleb128 0x10
 3840 07b2 01       		.uleb128 0x1
 3841 07b3 50       		.byte	0x50
 3842 07b4 02       		.uleb128 0x2
 3843 07b5 08       		.byte	0x8
 3844 07b6 3C       		.byte	0x3c
 3845 07b7 00       		.byte	0
 3846 07b8 00       		.byte	0
 3847 07b9 0D       		.uleb128 0xd
 3848 07ba B7000000 		.4byte	.LASF51
 3849 07be 01       		.byte	0x1
 3850 07bf 9A       		.byte	0x9a
 3851 07c0 00000000 		.4byte	.LFB65
 3852 07c4 BC000000 		.4byte	.LFE65-.LFB65
 3853 07c8 01       		.uleb128 0x1
 3854 07c9 9C       		.byte	0x9c
 3855 07ca FE070000 		.4byte	0x7fe
 3856 07ce 0E       		.uleb128 0xe
 3857 07cf 6C636400 		.ascii	"lcd\000"
 3858 07d3 01       		.byte	0x1
 3859 07d4 9A       		.byte	0x9a
 3860 07d5 81000000 		.4byte	0x81
 3861 07d9 F0000000 		.4byte	.LLST5
 3862 07dd 13       		.uleb128 0x13
 3863 07de 20010000 		.4byte	.LASF41
 3864 07e2 01       		.byte	0x1
 3865 07e3 9B       		.byte	0x9b
 3866 07e4 FE070000 		.4byte	0x7fe
 3867 07e8 02       		.uleb128 0x2
 3868 07e9 91       		.byte	0x91
 3869 07ea 58       		.sleb128 -40
 3870 07eb 14       		.uleb128 0x14
 3871 07ec 76000000 		.4byte	.LVL60
 3872 07f0 F2150000 		.4byte	0x15f2
 3873 07f4 14       		.uleb128 0x14
 3874 07f5 9C000000 		.4byte	.LVL61
 3875 07f9 03160000 		.4byte	0x1603
 3876 07fd 00       		.byte	0
 3877 07fe 09       		.uleb128 0x9
 3878 07ff 81000000 		.4byte	0x81
 3879 0803 0E080000 		.4byte	0x80e
 3880 0807 0A       		.uleb128 0xa
 3881 0808 BA000000 		.4byte	0xba
ARM GAS  C:\Users\RECEPC~1\AppData\Local\Temp\ccohni6j.s 			page 83


 3882 080c 17       		.byte	0x17
 3883 080d 00       		.byte	0
 3884 080e 0D       		.uleb128 0xd
 3885 080f 81040000 		.4byte	.LASF52
 3886 0813 01       		.byte	0x1
 3887 0814 C2       		.byte	0xc2
 3888 0815 00000000 		.4byte	.LFB66
 3889 0819 C8000000 		.4byte	.LFE66-.LFB66
 3890 081d 01       		.uleb128 0x1
 3891 081e 9C       		.byte	0x9c
 3892 081f 53080000 		.4byte	0x853
 3893 0823 0E       		.uleb128 0xe
 3894 0824 6C636400 		.ascii	"lcd\000"
 3895 0828 01       		.byte	0x1
 3896 0829 C2       		.byte	0xc2
 3897 082a 81000000 		.4byte	0x81
 3898 082e 11010000 		.4byte	.LLST6
 3899 0832 13       		.uleb128 0x13
 3900 0833 99060000 		.4byte	.LASF40
 3901 0837 01       		.byte	0x1
 3902 0838 C3       		.byte	0xc3
 3903 0839 53080000 		.4byte	0x853
 3904 083d 02       		.uleb128 0x2
 3905 083e 91       		.byte	0x91
 3906 083f 54       		.sleb128 -44
 3907 0840 14       		.uleb128 0x14
 3908 0841 80000000 		.4byte	.LVL64
 3909 0845 F2150000 		.4byte	0x15f2
 3910 0849 14       		.uleb128 0x14
 3911 084a A6000000 		.4byte	.LVL65
 3912 084e 03160000 		.4byte	0x1603
 3913 0852 00       		.byte	0
 3914 0853 09       		.uleb128 0x9
 3915 0854 81000000 		.4byte	0x81
 3916 0858 63080000 		.4byte	0x863
 3917 085c 0A       		.uleb128 0xa
 3918 085d BA000000 		.4byte	0xba
 3919 0861 18       		.byte	0x18
 3920 0862 00       		.byte	0
 3921 0863 0D       		.uleb128 0xd
 3922 0864 84000000 		.4byte	.LASF53
 3923 0868 01       		.byte	0x1
 3924 0869 E6       		.byte	0xe6
 3925 086a 00000000 		.4byte	.LFB67
 3926 086e 04010000 		.4byte	.LFE67-.LFB67
 3927 0872 01       		.uleb128 0x1
 3928 0873 9C       		.byte	0x9c
 3929 0874 A8080000 		.4byte	0x8a8
 3930 0878 0E       		.uleb128 0xe
 3931 0879 6C636400 		.ascii	"lcd\000"
 3932 087d 01       		.byte	0x1
 3933 087e E6       		.byte	0xe6
 3934 087f 81000000 		.4byte	0x81
 3935 0883 32010000 		.4byte	.LLST7
 3936 0887 13       		.uleb128 0x13
 3937 0888 45000000 		.4byte	.LASF28
 3938 088c 01       		.byte	0x1
ARM GAS  C:\Users\RECEPC~1\AppData\Local\Temp\ccohni6j.s 			page 84


 3939 088d E7       		.byte	0xe7
 3940 088e A8080000 		.4byte	0x8a8
 3941 0892 02       		.uleb128 0x2
 3942 0893 91       		.byte	0x91
 3943 0894 5C       		.sleb128 -36
 3944 0895 14       		.uleb128 0x14
 3945 0896 42000000 		.4byte	.LVL68
 3946 089a F2150000 		.4byte	0x15f2
 3947 089e 14       		.uleb128 0x14
 3948 089f AE000000 		.4byte	.LVL69
 3949 08a3 03160000 		.4byte	0x1603
 3950 08a7 00       		.byte	0
 3951 08a8 09       		.uleb128 0x9
 3952 08a9 81000000 		.4byte	0x81
 3953 08ad B8080000 		.4byte	0x8b8
 3954 08b1 0A       		.uleb128 0xa
 3955 08b2 BA000000 		.4byte	0xba
 3956 08b6 11       		.byte	0x11
 3957 08b7 00       		.byte	0
 3958 08b8 15       		.uleb128 0x15
 3959 08b9 25010000 		.4byte	.LASF54
 3960 08bd 01       		.byte	0x1
 3961 08be 1401     		.2byte	0x114
 3962 08c0 00000000 		.4byte	.LFB68
 3963 08c4 C4000000 		.4byte	.LFE68-.LFB68
 3964 08c8 01       		.uleb128 0x1
 3965 08c9 9C       		.byte	0x9c
 3966 08ca 47090000 		.4byte	0x947
 3967 08ce 16       		.uleb128 0x16
 3968 08cf 6C636400 		.ascii	"lcd\000"
 3969 08d3 01       		.byte	0x1
 3970 08d4 1401     		.2byte	0x114
 3971 08d6 81000000 		.4byte	0x81
 3972 08da 53010000 		.4byte	.LLST8
 3973 08de 16       		.uleb128 0x16
 3974 08df 793100   		.ascii	"y1\000"
 3975 08e2 01       		.byte	0x1
 3976 08e3 1401     		.2byte	0x114
 3977 08e5 81000000 		.4byte	0x81
 3978 08e9 74010000 		.4byte	.LLST9
 3979 08ed 16       		.uleb128 0x16
 3980 08ee 793200   		.ascii	"y2\000"
 3981 08f1 01       		.byte	0x1
 3982 08f2 1401     		.2byte	0x114
 3983 08f4 81000000 		.4byte	0x81
 3984 08f8 95010000 		.4byte	.LLST10
 3985 08fc 17       		.uleb128 0x17
 3986 08fd 9C040000 		.4byte	.LASF55
 3987 0901 01       		.byte	0x1
 3988 0902 1401     		.2byte	0x114
 3989 0904 8D000000 		.4byte	0x8d
 3990 0908 B6010000 		.4byte	.LLST11
 3991 090c 18       		.uleb128 0x18
 3992 090d 20010000 		.4byte	.LASF41
 3993 0911 01       		.byte	0x1
 3994 0912 1501     		.2byte	0x115
 3995 0914 47090000 		.4byte	0x947
ARM GAS  C:\Users\RECEPC~1\AppData\Local\Temp\ccohni6j.s 			page 85


 3996 0918 02       		.uleb128 0x2
 3997 0919 91       		.byte	0x91
 3998 091a 50       		.sleb128 -48
 3999 091b 0F       		.uleb128 0xf
 4000 091c 38000000 		.4byte	.LVL75
 4001 0920 14160000 		.4byte	0x1614
 4002 0924 34090000 		.4byte	0x934
 4003 0928 10       		.uleb128 0x10
 4004 0929 01       		.uleb128 0x1
 4005 092a 51       		.byte	0x51
 4006 092b 01       		.uleb128 0x1
 4007 092c 36       		.byte	0x36
 4008 092d 10       		.uleb128 0x10
 4009 092e 01       		.uleb128 0x1
 4010 092f 50       		.byte	0x50
 4011 0930 02       		.uleb128 0x2
 4012 0931 77       		.byte	0x77
 4013 0932 00       		.sleb128 0
 4014 0933 00       		.byte	0
 4015 0934 14       		.uleb128 0x14
 4016 0935 7E000000 		.4byte	.LVL76
 4017 0939 F2150000 		.4byte	0x15f2
 4018 093d 14       		.uleb128 0x14
 4019 093e A4000000 		.4byte	.LVL77
 4020 0942 03160000 		.4byte	0x1603
 4021 0946 00       		.byte	0
 4022 0947 09       		.uleb128 0x9
 4023 0948 81000000 		.4byte	0x81
 4024 094c 57090000 		.4byte	0x957
 4025 0950 0A       		.uleb128 0xa
 4026 0951 BA000000 		.4byte	0xba
 4027 0955 16       		.byte	0x16
 4028 0956 00       		.byte	0
 4029 0957 15       		.uleb128 0x15
 4030 0958 71000000 		.4byte	.LASF56
 4031 095c 01       		.byte	0x1
 4032 095d 3B01     		.2byte	0x13b
 4033 095f 00000000 		.4byte	.LFB69
 4034 0963 BC000000 		.4byte	.LFE69-.LFB69
 4035 0967 01       		.uleb128 0x1
 4036 0968 9C       		.byte	0x9c
 4037 0969 E6090000 		.4byte	0x9e6
 4038 096d 16       		.uleb128 0x16
 4039 096e 6C636400 		.ascii	"lcd\000"
 4040 0972 01       		.byte	0x1
 4041 0973 3B01     		.2byte	0x13b
 4042 0975 81000000 		.4byte	0x81
 4043 0979 D7010000 		.4byte	.LLST12
 4044 097d 16       		.uleb128 0x16
 4045 097e 793100   		.ascii	"y1\000"
 4046 0981 01       		.byte	0x1
 4047 0982 3B01     		.2byte	0x13b
 4048 0984 81000000 		.4byte	0x81
 4049 0988 F8010000 		.4byte	.LLST13
 4050 098c 16       		.uleb128 0x16
 4051 098d 793200   		.ascii	"y2\000"
 4052 0990 01       		.byte	0x1
ARM GAS  C:\Users\RECEPC~1\AppData\Local\Temp\ccohni6j.s 			page 86


 4053 0991 3B01     		.2byte	0x13b
 4054 0993 81000000 		.4byte	0x81
 4055 0997 19020000 		.4byte	.LLST14
 4056 099b 17       		.uleb128 0x17
 4057 099c 9C040000 		.4byte	.LASF55
 4058 09a0 01       		.byte	0x1
 4059 09a1 3B01     		.2byte	0x13b
 4060 09a3 8D000000 		.4byte	0x8d
 4061 09a7 3A020000 		.4byte	.LLST15
 4062 09ab 18       		.uleb128 0x18
 4063 09ac 20010000 		.4byte	.LASF41
 4064 09b0 01       		.byte	0x1
 4065 09b1 3C01     		.2byte	0x13c
 4066 09b3 A8080000 		.4byte	0x8a8
 4067 09b7 02       		.uleb128 0x2
 4068 09b8 91       		.byte	0x91
 4069 09b9 54       		.sleb128 -44
 4070 09ba 0F       		.uleb128 0xf
 4071 09bb 30000000 		.4byte	.LVL83
 4072 09bf 14160000 		.4byte	0x1614
 4073 09c3 D3090000 		.4byte	0x9d3
 4074 09c7 10       		.uleb128 0x10
 4075 09c8 01       		.uleb128 0x1
 4076 09c9 51       		.byte	0x51
 4077 09ca 01       		.uleb128 0x1
 4078 09cb 32       		.byte	0x32
 4079 09cc 10       		.uleb128 0x10
 4080 09cd 01       		.uleb128 0x1
 4081 09ce 50       		.byte	0x50
 4082 09cf 02       		.uleb128 0x2
 4083 09d0 77       		.byte	0x77
 4084 09d1 00       		.sleb128 0
 4085 09d2 00       		.byte	0
 4086 09d3 14       		.uleb128 0x14
 4087 09d4 76000000 		.4byte	.LVL84
 4088 09d8 F2150000 		.4byte	0x15f2
 4089 09dc 14       		.uleb128 0x14
 4090 09dd 9C000000 		.4byte	.LVL85
 4091 09e1 03160000 		.4byte	0x1603
 4092 09e5 00       		.byte	0
 4093 09e6 15       		.uleb128 0x15
 4094 09e7 00000000 		.4byte	.LASF57
 4095 09eb 01       		.byte	0x1
 4096 09ec 6201     		.2byte	0x162
 4097 09ee 00000000 		.4byte	.LFB70
 4098 09f2 0C010000 		.4byte	.LFE70-.LFB70
 4099 09f6 01       		.uleb128 0x1
 4100 09f7 9C       		.byte	0x9c
 4101 09f8 2E0A0000 		.4byte	0xa2e
 4102 09fc 16       		.uleb128 0x16
 4103 09fd 6C636400 		.ascii	"lcd\000"
 4104 0a01 01       		.byte	0x1
 4105 0a02 6201     		.2byte	0x162
 4106 0a04 81000000 		.4byte	0x81
 4107 0a08 5B020000 		.4byte	.LLST16
 4108 0a0c 18       		.uleb128 0x18
 4109 0a0d 45000000 		.4byte	.LASF28
ARM GAS  C:\Users\RECEPC~1\AppData\Local\Temp\ccohni6j.s 			page 87


 4110 0a11 01       		.byte	0x1
 4111 0a12 6301     		.2byte	0x163
 4112 0a14 A8080000 		.4byte	0x8a8
 4113 0a18 02       		.uleb128 0x2
 4114 0a19 91       		.byte	0x91
 4115 0a1a 5C       		.sleb128 -36
 4116 0a1b 14       		.uleb128 0x14
 4117 0a1c 46000000 		.4byte	.LVL88
 4118 0a20 F2150000 		.4byte	0x15f2
 4119 0a24 14       		.uleb128 0x14
 4120 0a25 B4000000 		.4byte	.LVL89
 4121 0a29 03160000 		.4byte	0x1603
 4122 0a2d 00       		.byte	0
 4123 0a2e 15       		.uleb128 0x15
 4124 0a2f 92040000 		.4byte	.LASF58
 4125 0a33 01       		.byte	0x1
 4126 0a34 9001     		.2byte	0x190
 4127 0a36 00000000 		.4byte	.LFB71
 4128 0a3a 0C010000 		.4byte	.LFE71-.LFB71
 4129 0a3e 01       		.uleb128 0x1
 4130 0a3f 9C       		.byte	0x9c
 4131 0a40 760A0000 		.4byte	0xa76
 4132 0a44 16       		.uleb128 0x16
 4133 0a45 6C636400 		.ascii	"lcd\000"
 4134 0a49 01       		.byte	0x1
 4135 0a4a 9001     		.2byte	0x190
 4136 0a4c 81000000 		.4byte	0x81
 4137 0a50 7C020000 		.4byte	.LLST17
 4138 0a54 18       		.uleb128 0x18
 4139 0a55 45000000 		.4byte	.LASF28
 4140 0a59 01       		.byte	0x1
 4141 0a5a 9101     		.2byte	0x191
 4142 0a5c A8080000 		.4byte	0x8a8
 4143 0a60 02       		.uleb128 0x2
 4144 0a61 91       		.byte	0x91
 4145 0a62 5C       		.sleb128 -36
 4146 0a63 14       		.uleb128 0x14
 4147 0a64 46000000 		.4byte	.LVL92
 4148 0a68 F2150000 		.4byte	0x15f2
 4149 0a6c 14       		.uleb128 0x14
 4150 0a6d B4000000 		.4byte	.LVL93
 4151 0a71 03160000 		.4byte	0x1603
 4152 0a75 00       		.byte	0
 4153 0a76 15       		.uleb128 0x15
 4154 0a77 AD000000 		.4byte	.LASF59
 4155 0a7b 01       		.byte	0x1
 4156 0a7c BE01     		.2byte	0x1be
 4157 0a7e 00000000 		.4byte	.LFB72
 4158 0a82 0C010000 		.4byte	.LFE72-.LFB72
 4159 0a86 01       		.uleb128 0x1
 4160 0a87 9C       		.byte	0x9c
 4161 0a88 BE0A0000 		.4byte	0xabe
 4162 0a8c 16       		.uleb128 0x16
 4163 0a8d 6C636400 		.ascii	"lcd\000"
 4164 0a91 01       		.byte	0x1
 4165 0a92 BE01     		.2byte	0x1be
 4166 0a94 81000000 		.4byte	0x81
ARM GAS  C:\Users\RECEPC~1\AppData\Local\Temp\ccohni6j.s 			page 88


 4167 0a98 9D020000 		.4byte	.LLST18
 4168 0a9c 18       		.uleb128 0x18
 4169 0a9d 45000000 		.4byte	.LASF28
 4170 0aa1 01       		.byte	0x1
 4171 0aa2 BF01     		.2byte	0x1bf
 4172 0aa4 A8080000 		.4byte	0x8a8
 4173 0aa8 02       		.uleb128 0x2
 4174 0aa9 91       		.byte	0x91
 4175 0aaa 5C       		.sleb128 -36
 4176 0aab 14       		.uleb128 0x14
 4177 0aac 46000000 		.4byte	.LVL96
 4178 0ab0 F2150000 		.4byte	0x15f2
 4179 0ab4 14       		.uleb128 0x14
 4180 0ab5 B4000000 		.4byte	.LVL97
 4181 0ab9 03160000 		.4byte	0x1603
 4182 0abd 00       		.byte	0
 4183 0abe 15       		.uleb128 0x15
 4184 0abf F3000000 		.4byte	.LASF60
 4185 0ac3 01       		.byte	0x1
 4186 0ac4 EC01     		.2byte	0x1ec
 4187 0ac6 00000000 		.4byte	.LFB73
 4188 0aca 0C010000 		.4byte	.LFE73-.LFB73
 4189 0ace 01       		.uleb128 0x1
 4190 0acf 9C       		.byte	0x9c
 4191 0ad0 060B0000 		.4byte	0xb06
 4192 0ad4 16       		.uleb128 0x16
 4193 0ad5 6C636400 		.ascii	"lcd\000"
 4194 0ad9 01       		.byte	0x1
 4195 0ada EC01     		.2byte	0x1ec
 4196 0adc 81000000 		.4byte	0x81
 4197 0ae0 BE020000 		.4byte	.LLST19
 4198 0ae4 18       		.uleb128 0x18
 4199 0ae5 45000000 		.4byte	.LASF28
 4200 0ae9 01       		.byte	0x1
 4201 0aea ED01     		.2byte	0x1ed
 4202 0aec A8080000 		.4byte	0x8a8
 4203 0af0 02       		.uleb128 0x2
 4204 0af1 91       		.byte	0x91
 4205 0af2 5C       		.sleb128 -36
 4206 0af3 14       		.uleb128 0x14
 4207 0af4 46000000 		.4byte	.LVL100
 4208 0af8 F2150000 		.4byte	0x15f2
 4209 0afc 14       		.uleb128 0x14
 4210 0afd B4000000 		.4byte	.LVL101
 4211 0b01 03160000 		.4byte	0x1603
 4212 0b05 00       		.byte	0
 4213 0b06 15       		.uleb128 0x15
 4214 0b07 5A030000 		.4byte	.LASF61
 4215 0b0b 01       		.byte	0x1
 4216 0b0c 1A02     		.2byte	0x21a
 4217 0b0e 00000000 		.4byte	.LFB74
 4218 0b12 0C010000 		.4byte	.LFE74-.LFB74
 4219 0b16 01       		.uleb128 0x1
 4220 0b17 9C       		.byte	0x9c
 4221 0b18 4E0B0000 		.4byte	0xb4e
 4222 0b1c 16       		.uleb128 0x16
 4223 0b1d 6C636400 		.ascii	"lcd\000"
ARM GAS  C:\Users\RECEPC~1\AppData\Local\Temp\ccohni6j.s 			page 89


 4224 0b21 01       		.byte	0x1
 4225 0b22 1A02     		.2byte	0x21a
 4226 0b24 81000000 		.4byte	0x81
 4227 0b28 DF020000 		.4byte	.LLST20
 4228 0b2c 18       		.uleb128 0x18
 4229 0b2d 45000000 		.4byte	.LASF28
 4230 0b31 01       		.byte	0x1
 4231 0b32 1B02     		.2byte	0x21b
 4232 0b34 A8080000 		.4byte	0x8a8
 4233 0b38 02       		.uleb128 0x2
 4234 0b39 91       		.byte	0x91
 4235 0b3a 5C       		.sleb128 -36
 4236 0b3b 14       		.uleb128 0x14
 4237 0b3c 44000000 		.4byte	.LVL104
 4238 0b40 F2150000 		.4byte	0x15f2
 4239 0b44 14       		.uleb128 0x14
 4240 0b45 B2000000 		.4byte	.LVL105
 4241 0b49 03160000 		.4byte	0x1603
 4242 0b4d 00       		.byte	0
 4243 0b4e 15       		.uleb128 0x15
 4244 0b4f FA030000 		.4byte	.LASF62
 4245 0b53 01       		.byte	0x1
 4246 0b54 4802     		.2byte	0x248
 4247 0b56 00000000 		.4byte	.LFB75
 4248 0b5a 04010000 		.4byte	.LFE75-.LFB75
 4249 0b5e 01       		.uleb128 0x1
 4250 0b5f 9C       		.byte	0x9c
 4251 0b60 960B0000 		.4byte	0xb96
 4252 0b64 16       		.uleb128 0x16
 4253 0b65 6C636400 		.ascii	"lcd\000"
 4254 0b69 01       		.byte	0x1
 4255 0b6a 4802     		.2byte	0x248
 4256 0b6c 81000000 		.4byte	0x81
 4257 0b70 00030000 		.4byte	.LLST21
 4258 0b74 18       		.uleb128 0x18
 4259 0b75 45000000 		.4byte	.LASF28
 4260 0b79 01       		.byte	0x1
 4261 0b7a 4902     		.2byte	0x249
 4262 0b7c A8080000 		.4byte	0x8a8
 4263 0b80 02       		.uleb128 0x2
 4264 0b81 91       		.byte	0x91
 4265 0b82 5C       		.sleb128 -36
 4266 0b83 14       		.uleb128 0x14
 4267 0b84 5C000000 		.4byte	.LVL108
 4268 0b88 F2150000 		.4byte	0x15f2
 4269 0b8c 14       		.uleb128 0x14
 4270 0b8d C6000000 		.4byte	.LVL109
 4271 0b91 03160000 		.4byte	0x1603
 4272 0b95 00       		.byte	0
 4273 0b96 15       		.uleb128 0x15
 4274 0b97 9F060000 		.4byte	.LASF63
 4275 0b9b 01       		.byte	0x1
 4276 0b9c 7002     		.2byte	0x270
 4277 0b9e 00000000 		.4byte	.LFB76
 4278 0ba2 08010000 		.4byte	.LFE76-.LFB76
 4279 0ba6 01       		.uleb128 0x1
 4280 0ba7 9C       		.byte	0x9c
ARM GAS  C:\Users\RECEPC~1\AppData\Local\Temp\ccohni6j.s 			page 90


 4281 0ba8 DE0B0000 		.4byte	0xbde
 4282 0bac 16       		.uleb128 0x16
 4283 0bad 6C636400 		.ascii	"lcd\000"
 4284 0bb1 01       		.byte	0x1
 4285 0bb2 7002     		.2byte	0x270
 4286 0bb4 81000000 		.4byte	0x81
 4287 0bb8 21030000 		.4byte	.LLST22
 4288 0bbc 18       		.uleb128 0x18
 4289 0bbd 45000000 		.4byte	.LASF28
 4290 0bc1 01       		.byte	0x1
 4291 0bc2 7102     		.2byte	0x271
 4292 0bc4 A8080000 		.4byte	0x8a8
 4293 0bc8 02       		.uleb128 0x2
 4294 0bc9 91       		.byte	0x91
 4295 0bca 5C       		.sleb128 -36
 4296 0bcb 14       		.uleb128 0x14
 4297 0bcc 5C000000 		.4byte	.LVL112
 4298 0bd0 F2150000 		.4byte	0x15f2
 4299 0bd4 14       		.uleb128 0x14
 4300 0bd5 C6000000 		.4byte	.LVL113
 4301 0bd9 03160000 		.4byte	0x1603
 4302 0bdd 00       		.byte	0
 4303 0bde 15       		.uleb128 0x15
 4304 0bdf CE060000 		.4byte	.LASF64
 4305 0be3 01       		.byte	0x1
 4306 0be4 9802     		.2byte	0x298
 4307 0be6 00000000 		.4byte	.LFB77
 4308 0bea 06010000 		.4byte	.LFE77-.LFB77
 4309 0bee 01       		.uleb128 0x1
 4310 0bef 9C       		.byte	0x9c
 4311 0bf0 030F0000 		.4byte	0xf03
 4312 0bf4 16       		.uleb128 0x16
 4313 0bf5 6C636400 		.ascii	"lcd\000"
 4314 0bf9 01       		.byte	0x1
 4315 0bfa 9802     		.2byte	0x298
 4316 0bfc 81000000 		.4byte	0x81
 4317 0c00 42030000 		.4byte	.LLST23
 4318 0c04 17       		.uleb128 0x17
 4319 0c05 99030000 		.4byte	.LASF50
 4320 0c09 01       		.byte	0x1
 4321 0c0a 9802     		.2byte	0x298
 4322 0c0c 81000000 		.4byte	0x81
 4323 0c10 7C030000 		.4byte	.LLST24
 4324 0c14 16       		.uleb128 0x16
 4325 0c15 706F7300 		.ascii	"pos\000"
 4326 0c19 01       		.byte	0x1
 4327 0c1a 9802     		.2byte	0x298
 4328 0c1c 8D000000 		.4byte	0x8d
 4329 0c20 B6030000 		.4byte	.LLST25
 4330 0c24 0F       		.uleb128 0xf
 4331 0c25 10000000 		.4byte	.LVL116
 4332 0c29 F2150000 		.4byte	0x15f2
 4333 0c2d 380C0000 		.4byte	0xc38
 4334 0c31 10       		.uleb128 0x10
 4335 0c32 01       		.uleb128 0x1
 4336 0c33 50       		.byte	0x50
 4337 0c34 02       		.uleb128 0x2
ARM GAS  C:\Users\RECEPC~1\AppData\Local\Temp\ccohni6j.s 			page 91


 4338 0c35 09       		.byte	0x9
 4339 0c36 AA       		.byte	0xaa
 4340 0c37 00       		.byte	0
 4341 0c38 0F       		.uleb128 0xf
 4342 0c39 16000000 		.4byte	.LVL117
 4343 0c3d F2150000 		.4byte	0x15f2
 4344 0c41 4C0C0000 		.4byte	0xc4c
 4345 0c45 10       		.uleb128 0x10
 4346 0c46 01       		.uleb128 0x1
 4347 0c47 50       		.byte	0x50
 4348 0c48 02       		.uleb128 0x2
 4349 0c49 09       		.byte	0x9
 4350 0c4a 98       		.byte	0x98
 4351 0c4b 00       		.byte	0
 4352 0c4c 0F       		.uleb128 0xf
 4353 0c4d 24000000 		.4byte	.LVL118
 4354 0c51 F2150000 		.4byte	0x15f2
 4355 0c55 6D0C0000 		.4byte	0xc6d
 4356 0c59 10       		.uleb128 0x10
 4357 0c5a 01       		.uleb128 0x1
 4358 0c5b 50       		.byte	0x50
 4359 0c5c 0F       		.uleb128 0xf
 4360 0c5d 74       		.byte	0x74
 4361 0c5e 00       		.sleb128 0
 4362 0c5f 34       		.byte	0x34
 4363 0c60 24       		.byte	0x24
 4364 0c61 74       		.byte	0x74
 4365 0c62 00       		.sleb128 0
 4366 0c63 1C       		.byte	0x1c
 4367 0c64 23       		.byte	0x23
 4368 0c65 30       		.uleb128 0x30
 4369 0c66 09       		.byte	0x9
 4370 0c67 F4       		.byte	0xf4
 4371 0c68 24       		.byte	0x24
 4372 0c69 09       		.byte	0x9
 4373 0c6a FC       		.byte	0xfc
 4374 0c6b 25       		.byte	0x25
 4375 0c6c 00       		.byte	0
 4376 0c6d 0F       		.uleb128 0xf
 4377 0c6e 32000000 		.4byte	.LVL119
 4378 0c72 F2150000 		.4byte	0x15f2
 4379 0c76 810C0000 		.4byte	0xc81
 4380 0c7a 10       		.uleb128 0x10
 4381 0c7b 01       		.uleb128 0x1
 4382 0c7c 50       		.byte	0x50
 4383 0c7d 02       		.uleb128 0x2
 4384 0c7e 74       		.byte	0x74
 4385 0c7f 30       		.sleb128 48
 4386 0c80 00       		.byte	0
 4387 0c81 0F       		.uleb128 0xf
 4388 0c82 38000000 		.4byte	.LVL120
 4389 0c86 F2150000 		.4byte	0x15f2
 4390 0c8a 940C0000 		.4byte	0xc94
 4391 0c8e 10       		.uleb128 0x10
 4392 0c8f 01       		.uleb128 0x1
 4393 0c90 50       		.byte	0x50
 4394 0c91 01       		.uleb128 0x1
ARM GAS  C:\Users\RECEPC~1\AppData\Local\Temp\ccohni6j.s 			page 92


 4395 0c92 30       		.byte	0x30
 4396 0c93 00       		.byte	0
 4397 0c94 0F       		.uleb128 0xf
 4398 0c95 3E000000 		.4byte	.LVL121
 4399 0c99 F2150000 		.4byte	0x15f2
 4400 0c9d A80C0000 		.4byte	0xca8
 4401 0ca1 10       		.uleb128 0x10
 4402 0ca2 01       		.uleb128 0x1
 4403 0ca3 50       		.byte	0x50
 4404 0ca4 02       		.uleb128 0x2
 4405 0ca5 08       		.byte	0x8
 4406 0ca6 30       		.byte	0x30
 4407 0ca7 00       		.byte	0
 4408 0ca8 0F       		.uleb128 0xf
 4409 0ca9 44000000 		.4byte	.LVL122
 4410 0cad F2150000 		.4byte	0x15f2
 4411 0cb1 BC0C0000 		.4byte	0xcbc
 4412 0cb5 10       		.uleb128 0x10
 4413 0cb6 01       		.uleb128 0x1
 4414 0cb7 50       		.byte	0x50
 4415 0cb8 02       		.uleb128 0x2
 4416 0cb9 08       		.byte	0x8
 4417 0cba 23       		.byte	0x23
 4418 0cbb 00       		.byte	0
 4419 0cbc 0F       		.uleb128 0xf
 4420 0cbd 4A000000 		.4byte	.LVL123
 4421 0cc1 F2150000 		.4byte	0x15f2
 4422 0cc5 D00C0000 		.4byte	0xcd0
 4423 0cc9 10       		.uleb128 0x10
 4424 0cca 01       		.uleb128 0x1
 4425 0ccb 50       		.byte	0x50
 4426 0ccc 02       		.uleb128 0x2
 4427 0ccd 09       		.byte	0x9
 4428 0cce C5       		.byte	0xc5
 4429 0ccf 00       		.byte	0
 4430 0cd0 0F       		.uleb128 0xf
 4431 0cd1 50000000 		.4byte	.LVL124
 4432 0cd5 F2150000 		.4byte	0x15f2
 4433 0cd9 E30C0000 		.4byte	0xce3
 4434 0cdd 10       		.uleb128 0x10
 4435 0cde 01       		.uleb128 0x1
 4436 0cdf 50       		.byte	0x50
 4437 0ce0 01       		.uleb128 0x1
 4438 0ce1 32       		.byte	0x32
 4439 0ce2 00       		.byte	0
 4440 0ce3 0F       		.uleb128 0xf
 4441 0ce4 56000000 		.4byte	.LVL125
 4442 0ce8 F2150000 		.4byte	0x15f2
 4443 0cec F60C0000 		.4byte	0xcf6
 4444 0cf0 10       		.uleb128 0x10
 4445 0cf1 01       		.uleb128 0x1
 4446 0cf2 50       		.byte	0x50
 4447 0cf3 01       		.uleb128 0x1
 4448 0cf4 30       		.byte	0x30
 4449 0cf5 00       		.byte	0
 4450 0cf6 0F       		.uleb128 0xf
 4451 0cf7 5C000000 		.4byte	.LVL126
ARM GAS  C:\Users\RECEPC~1\AppData\Local\Temp\ccohni6j.s 			page 93


 4452 0cfb F2150000 		.4byte	0x15f2
 4453 0cff 090D0000 		.4byte	0xd09
 4454 0d03 10       		.uleb128 0x10
 4455 0d04 01       		.uleb128 0x1
 4456 0d05 50       		.byte	0x50
 4457 0d06 01       		.uleb128 0x1
 4458 0d07 30       		.byte	0x30
 4459 0d08 00       		.byte	0
 4460 0d09 0F       		.uleb128 0xf
 4461 0d0a 62000000 		.4byte	.LVL127
 4462 0d0e F2150000 		.4byte	0x15f2
 4463 0d12 1D0D0000 		.4byte	0xd1d
 4464 0d16 10       		.uleb128 0x10
 4465 0d17 01       		.uleb128 0x1
 4466 0d18 50       		.byte	0x50
 4467 0d19 02       		.uleb128 0x2
 4468 0d1a 09       		.byte	0x9
 4469 0d1b FF       		.byte	0xff
 4470 0d1c 00       		.byte	0
 4471 0d1d 0F       		.uleb128 0xf
 4472 0d1e 68000000 		.4byte	.LVL128
 4473 0d22 F2150000 		.4byte	0x15f2
 4474 0d26 310D0000 		.4byte	0xd31
 4475 0d2a 10       		.uleb128 0x10
 4476 0d2b 01       		.uleb128 0x1
 4477 0d2c 50       		.byte	0x50
 4478 0d2d 02       		.uleb128 0x2
 4479 0d2e 09       		.byte	0x9
 4480 0d2f FF       		.byte	0xff
 4481 0d30 00       		.byte	0
 4482 0d31 0F       		.uleb128 0xf
 4483 0d32 6E000000 		.4byte	.LVL129
 4484 0d36 F2150000 		.4byte	0x15f2
 4485 0d3a 450D0000 		.4byte	0xd45
 4486 0d3e 10       		.uleb128 0x10
 4487 0d3f 01       		.uleb128 0x1
 4488 0d40 50       		.byte	0x50
 4489 0d41 02       		.uleb128 0x2
 4490 0d42 75       		.byte	0x75
 4491 0d43 00       		.sleb128 0
 4492 0d44 00       		.byte	0
 4493 0d45 0F       		.uleb128 0xf
 4494 0d46 74000000 		.4byte	.LVL130
 4495 0d4a F2150000 		.4byte	0x15f2
 4496 0d4e 590D0000 		.4byte	0xd59
 4497 0d52 10       		.uleb128 0x10
 4498 0d53 01       		.uleb128 0x1
 4499 0d54 50       		.byte	0x50
 4500 0d55 02       		.uleb128 0x2
 4501 0d56 09       		.byte	0x9
 4502 0d57 CC       		.byte	0xcc
 4503 0d58 00       		.byte	0
 4504 0d59 0F       		.uleb128 0xf
 4505 0d5a 7A000000 		.4byte	.LVL131
 4506 0d5e F2150000 		.4byte	0x15f2
 4507 0d62 6D0D0000 		.4byte	0xd6d
 4508 0d66 10       		.uleb128 0x10
ARM GAS  C:\Users\RECEPC~1\AppData\Local\Temp\ccohni6j.s 			page 94


 4509 0d67 01       		.uleb128 0x1
 4510 0d68 50       		.byte	0x50
 4511 0d69 02       		.uleb128 0x2
 4512 0d6a 08       		.byte	0x8
 4513 0d6b 33       		.byte	0x33
 4514 0d6c 00       		.byte	0
 4515 0d6d 0F       		.uleb128 0xf
 4516 0d6e 80000000 		.4byte	.LVL132
 4517 0d72 F2150000 		.4byte	0x15f2
 4518 0d76 810D0000 		.4byte	0xd81
 4519 0d7a 10       		.uleb128 0x10
 4520 0d7b 01       		.uleb128 0x1
 4521 0d7c 50       		.byte	0x50
 4522 0d7d 02       		.uleb128 0x2
 4523 0d7e 09       		.byte	0x9
 4524 0d7f C3       		.byte	0xc3
 4525 0d80 00       		.byte	0
 4526 0d81 0F       		.uleb128 0xf
 4527 0d82 86000000 		.4byte	.LVL133
 4528 0d86 F2150000 		.4byte	0x15f2
 4529 0d8a 950D0000 		.4byte	0xd95
 4530 0d8e 10       		.uleb128 0x10
 4531 0d8f 01       		.uleb128 0x1
 4532 0d90 50       		.byte	0x50
 4533 0d91 02       		.uleb128 0x2
 4534 0d92 08       		.byte	0x8
 4535 0d93 3C       		.byte	0x3c
 4536 0d94 00       		.byte	0
 4537 0d95 0F       		.uleb128 0xf
 4538 0d96 8E000000 		.4byte	.LVL136
 4539 0d9a 03160000 		.4byte	0x1603
 4540 0d9e A90D0000 		.4byte	0xda9
 4541 0da2 10       		.uleb128 0x10
 4542 0da3 01       		.uleb128 0x1
 4543 0da4 50       		.byte	0x50
 4544 0da5 02       		.uleb128 0x2
 4545 0da6 09       		.byte	0x9
 4546 0da7 AA       		.byte	0xaa
 4547 0da8 00       		.byte	0
 4548 0da9 0F       		.uleb128 0xf
 4549 0daa 94000000 		.4byte	.LVL137
 4550 0dae 03160000 		.4byte	0x1603
 4551 0db2 BD0D0000 		.4byte	0xdbd
 4552 0db6 10       		.uleb128 0x10
 4553 0db7 01       		.uleb128 0x1
 4554 0db8 50       		.byte	0x50
 4555 0db9 02       		.uleb128 0x2
 4556 0dba 09       		.byte	0x9
 4557 0dbb 98       		.byte	0x98
 4558 0dbc 00       		.byte	0
 4559 0dbd 0F       		.uleb128 0xf
 4560 0dbe A2000000 		.4byte	.LVL138
 4561 0dc2 03160000 		.4byte	0x1603
 4562 0dc6 DE0D0000 		.4byte	0xdde
 4563 0dca 10       		.uleb128 0x10
 4564 0dcb 01       		.uleb128 0x1
 4565 0dcc 50       		.byte	0x50
ARM GAS  C:\Users\RECEPC~1\AppData\Local\Temp\ccohni6j.s 			page 95


 4566 0dcd 0F       		.uleb128 0xf
 4567 0dce 74       		.byte	0x74
 4568 0dcf 00       		.sleb128 0
 4569 0dd0 34       		.byte	0x34
 4570 0dd1 24       		.byte	0x24
 4571 0dd2 74       		.byte	0x74
 4572 0dd3 00       		.sleb128 0
 4573 0dd4 1C       		.byte	0x1c
 4574 0dd5 23       		.byte	0x23
 4575 0dd6 30       		.uleb128 0x30
 4576 0dd7 09       		.byte	0x9
 4577 0dd8 F4       		.byte	0xf4
 4578 0dd9 24       		.byte	0x24
 4579 0dda 09       		.byte	0x9
 4580 0ddb FC       		.byte	0xfc
 4581 0ddc 25       		.byte	0x25
 4582 0ddd 00       		.byte	0
 4583 0dde 0F       		.uleb128 0xf
 4584 0ddf B0000000 		.4byte	.LVL139
 4585 0de3 03160000 		.4byte	0x1603
 4586 0de7 F20D0000 		.4byte	0xdf2
 4587 0deb 10       		.uleb128 0x10
 4588 0dec 01       		.uleb128 0x1
 4589 0ded 50       		.byte	0x50
 4590 0dee 02       		.uleb128 0x2
 4591 0def 74       		.byte	0x74
 4592 0df0 30       		.sleb128 48
 4593 0df1 00       		.byte	0
 4594 0df2 0F       		.uleb128 0xf
 4595 0df3 B6000000 		.4byte	.LVL140
 4596 0df7 03160000 		.4byte	0x1603
 4597 0dfb 050E0000 		.4byte	0xe05
 4598 0dff 10       		.uleb128 0x10
 4599 0e00 01       		.uleb128 0x1
 4600 0e01 50       		.byte	0x50
 4601 0e02 01       		.uleb128 0x1
 4602 0e03 30       		.byte	0x30
 4603 0e04 00       		.byte	0
 4604 0e05 0F       		.uleb128 0xf
 4605 0e06 BC000000 		.4byte	.LVL141
 4606 0e0a 03160000 		.4byte	0x1603
 4607 0e0e 190E0000 		.4byte	0xe19
 4608 0e12 10       		.uleb128 0x10
 4609 0e13 01       		.uleb128 0x1
 4610 0e14 50       		.byte	0x50
 4611 0e15 02       		.uleb128 0x2
 4612 0e16 08       		.byte	0x8
 4613 0e17 30       		.byte	0x30
 4614 0e18 00       		.byte	0
 4615 0e19 0F       		.uleb128 0xf
 4616 0e1a C2000000 		.4byte	.LVL142
 4617 0e1e 03160000 		.4byte	0x1603
 4618 0e22 2D0E0000 		.4byte	0xe2d
 4619 0e26 10       		.uleb128 0x10
 4620 0e27 01       		.uleb128 0x1
 4621 0e28 50       		.byte	0x50
 4622 0e29 02       		.uleb128 0x2
ARM GAS  C:\Users\RECEPC~1\AppData\Local\Temp\ccohni6j.s 			page 96


 4623 0e2a 08       		.byte	0x8
 4624 0e2b 23       		.byte	0x23
 4625 0e2c 00       		.byte	0
 4626 0e2d 0F       		.uleb128 0xf
 4627 0e2e C8000000 		.4byte	.LVL143
 4628 0e32 03160000 		.4byte	0x1603
 4629 0e36 410E0000 		.4byte	0xe41
 4630 0e3a 10       		.uleb128 0x10
 4631 0e3b 01       		.uleb128 0x1
 4632 0e3c 50       		.byte	0x50
 4633 0e3d 02       		.uleb128 0x2
 4634 0e3e 09       		.byte	0x9
 4635 0e3f C5       		.byte	0xc5
 4636 0e40 00       		.byte	0
 4637 0e41 0F       		.uleb128 0xf
 4638 0e42 CE000000 		.4byte	.LVL144
 4639 0e46 03160000 		.4byte	0x1603
 4640 0e4a 540E0000 		.4byte	0xe54
 4641 0e4e 10       		.uleb128 0x10
 4642 0e4f 01       		.uleb128 0x1
 4643 0e50 50       		.byte	0x50
 4644 0e51 01       		.uleb128 0x1
 4645 0e52 32       		.byte	0x32
 4646 0e53 00       		.byte	0
 4647 0e54 0F       		.uleb128 0xf
 4648 0e55 D4000000 		.4byte	.LVL145
 4649 0e59 03160000 		.4byte	0x1603
 4650 0e5d 670E0000 		.4byte	0xe67
 4651 0e61 10       		.uleb128 0x10
 4652 0e62 01       		.uleb128 0x1
 4653 0e63 50       		.byte	0x50
 4654 0e64 01       		.uleb128 0x1
 4655 0e65 30       		.byte	0x30
 4656 0e66 00       		.byte	0
 4657 0e67 0F       		.uleb128 0xf
 4658 0e68 DA000000 		.4byte	.LVL146
 4659 0e6c 03160000 		.4byte	0x1603
 4660 0e70 7A0E0000 		.4byte	0xe7a
 4661 0e74 10       		.uleb128 0x10
 4662 0e75 01       		.uleb128 0x1
 4663 0e76 50       		.byte	0x50
 4664 0e77 01       		.uleb128 0x1
 4665 0e78 30       		.byte	0x30
 4666 0e79 00       		.byte	0
 4667 0e7a 0F       		.uleb128 0xf
 4668 0e7b E0000000 		.4byte	.LVL147
 4669 0e7f 03160000 		.4byte	0x1603
 4670 0e83 8E0E0000 		.4byte	0xe8e
 4671 0e87 10       		.uleb128 0x10
 4672 0e88 01       		.uleb128 0x1
 4673 0e89 50       		.byte	0x50
 4674 0e8a 02       		.uleb128 0x2
 4675 0e8b 09       		.byte	0x9
 4676 0e8c FF       		.byte	0xff
 4677 0e8d 00       		.byte	0
 4678 0e8e 0F       		.uleb128 0xf
 4679 0e8f E6000000 		.4byte	.LVL148
ARM GAS  C:\Users\RECEPC~1\AppData\Local\Temp\ccohni6j.s 			page 97


 4680 0e93 03160000 		.4byte	0x1603
 4681 0e97 A20E0000 		.4byte	0xea2
 4682 0e9b 10       		.uleb128 0x10
 4683 0e9c 01       		.uleb128 0x1
 4684 0e9d 50       		.byte	0x50
 4685 0e9e 02       		.uleb128 0x2
 4686 0e9f 09       		.byte	0x9
 4687 0ea0 FF       		.byte	0xff
 4688 0ea1 00       		.byte	0
 4689 0ea2 0F       		.uleb128 0xf
 4690 0ea3 EC000000 		.4byte	.LVL149
 4691 0ea7 03160000 		.4byte	0x1603
 4692 0eab B60E0000 		.4byte	0xeb6
 4693 0eaf 10       		.uleb128 0x10
 4694 0eb0 01       		.uleb128 0x1
 4695 0eb1 50       		.byte	0x50
 4696 0eb2 02       		.uleb128 0x2
 4697 0eb3 75       		.byte	0x75
 4698 0eb4 00       		.sleb128 0
 4699 0eb5 00       		.byte	0
 4700 0eb6 0F       		.uleb128 0xf
 4701 0eb7 F2000000 		.4byte	.LVL150
 4702 0ebb 03160000 		.4byte	0x1603
 4703 0ebf CA0E0000 		.4byte	0xeca
 4704 0ec3 10       		.uleb128 0x10
 4705 0ec4 01       		.uleb128 0x1
 4706 0ec5 50       		.byte	0x50
 4707 0ec6 02       		.uleb128 0x2
 4708 0ec7 09       		.byte	0x9
 4709 0ec8 CC       		.byte	0xcc
 4710 0ec9 00       		.byte	0
 4711 0eca 0F       		.uleb128 0xf
 4712 0ecb F8000000 		.4byte	.LVL151
 4713 0ecf 03160000 		.4byte	0x1603
 4714 0ed3 DE0E0000 		.4byte	0xede
 4715 0ed7 10       		.uleb128 0x10
 4716 0ed8 01       		.uleb128 0x1
 4717 0ed9 50       		.byte	0x50
 4718 0eda 02       		.uleb128 0x2
 4719 0edb 08       		.byte	0x8
 4720 0edc 33       		.byte	0x33
 4721 0edd 00       		.byte	0
 4722 0ede 0F       		.uleb128 0xf
 4723 0edf FE000000 		.4byte	.LVL152
 4724 0ee3 03160000 		.4byte	0x1603
 4725 0ee7 F20E0000 		.4byte	0xef2
 4726 0eeb 10       		.uleb128 0x10
 4727 0eec 01       		.uleb128 0x1
 4728 0eed 50       		.byte	0x50
 4729 0eee 02       		.uleb128 0x2
 4730 0eef 09       		.byte	0x9
 4731 0ef0 C3       		.byte	0xc3
 4732 0ef1 00       		.byte	0
 4733 0ef2 11       		.uleb128 0x11
 4734 0ef3 04010000 		.4byte	.LVL153
 4735 0ef7 03160000 		.4byte	0x1603
 4736 0efb 10       		.uleb128 0x10
ARM GAS  C:\Users\RECEPC~1\AppData\Local\Temp\ccohni6j.s 			page 98


 4737 0efc 01       		.uleb128 0x1
 4738 0efd 50       		.byte	0x50
 4739 0efe 02       		.uleb128 0x2
 4740 0eff 08       		.byte	0x8
 4741 0f00 3C       		.byte	0x3c
 4742 0f01 00       		.byte	0
 4743 0f02 00       		.byte	0
 4744 0f03 19       		.uleb128 0x19
 4745 0f04 02050000 		.4byte	.LASF65
 4746 0f08 06       		.byte	0x6
 4747 0f09 5506     		.2byte	0x655
 4748 0f0b 0F0F0000 		.4byte	0xf0f
 4749 0f0f 0C       		.uleb128 0xc
 4750 0f10 76000000 		.4byte	0x76
 4751 0f14 1A       		.uleb128 0x1a
 4752 0f15 C3040000 		.4byte	.LASF66
 4753 0f19 05       		.byte	0x5
 4754 0f1a 2F       		.byte	0x2f
 4755 0f1b 81000000 		.4byte	0x81
 4756 0f1f 05       		.uleb128 0x5
 4757 0f20 03       		.byte	0x3
 4758 0f21 00000000 		.4byte	flujo_LCD
 4759 0f25 1A       		.uleb128 0x1a
 4760 0f26 17000000 		.4byte	.LASF67
 4761 0f2a 05       		.byte	0x5
 4762 0f2b 2F       		.byte	0x2f
 4763 0f2c 81000000 		.4byte	0x81
 4764 0f30 05       		.uleb128 0x5
 4765 0f31 03       		.byte	0x3
 4766 0f32 00000000 		.4byte	flujo_LCD2
 4767 0f36 1A       		.uleb128 0x1a
 4768 0f37 C9010000 		.4byte	.LASF68
 4769 0f3b 05       		.byte	0x5
 4770 0f3c 2F       		.byte	0x2f
 4771 0f3d 81000000 		.4byte	0x81
 4772 0f41 05       		.uleb128 0x5
 4773 0f42 03       		.byte	0x3
 4774 0f43 00000000 		.4byte	flujo_LCD3
 4775 0f47 1A       		.uleb128 0x1a
 4776 0f48 2A000000 		.4byte	.LASF69
 4777 0f4c 05       		.byte	0x5
 4778 0f4d 2F       		.byte	0x2f
 4779 0f4e 81000000 		.4byte	0x81
 4780 0f52 05       		.uleb128 0x5
 4781 0f53 03       		.byte	0x3
 4782 0f54 00000000 		.4byte	flujo_LCD4
 4783 0f58 1A       		.uleb128 0x1a
 4784 0f59 9F050000 		.4byte	.LASF70
 4785 0f5d 05       		.byte	0x5
 4786 0f5e 60       		.byte	0x60
 4787 0f5f 81000000 		.4byte	0x81
 4788 0f63 05       		.uleb128 0x5
 4789 0f64 03       		.byte	0x3
 4790 0f65 00000000 		.4byte	cont1
 4791 0f69 1A       		.uleb128 0x1a
 4792 0f6a AA040000 		.4byte	.LASF71
 4793 0f6e 05       		.byte	0x5
ARM GAS  C:\Users\RECEPC~1\AppData\Local\Temp\ccohni6j.s 			page 99


 4794 0f6f 60       		.byte	0x60
 4795 0f70 81000000 		.4byte	0x81
 4796 0f74 05       		.uleb128 0x5
 4797 0f75 03       		.byte	0x3
 4798 0f76 00000000 		.4byte	teclas1
 4799 0f7a 1A       		.uleb128 0x1a
 4800 0f7b 30010000 		.4byte	.LASF72
 4801 0f7f 05       		.byte	0x5
 4802 0f80 60       		.byte	0x60
 4803 0f81 81000000 		.4byte	0x81
 4804 0f85 05       		.uleb128 0x5
 4805 0f86 03       		.byte	0x3
 4806 0f87 00000000 		.4byte	teclas2
 4807 0f8b 1A       		.uleb128 0x1a
 4808 0f8c 0F050000 		.4byte	.LASF73
 4809 0f90 05       		.byte	0x5
 4810 0f91 60       		.byte	0x60
 4811 0f92 81000000 		.4byte	0x81
 4812 0f96 05       		.uleb128 0x5
 4813 0f97 03       		.byte	0x3
 4814 0f98 00000000 		.4byte	comas1
 4815 0f9c 1A       		.uleb128 0x1a
 4816 0f9d 16050000 		.4byte	.LASF74
 4817 0fa1 05       		.byte	0x5
 4818 0fa2 60       		.byte	0x60
 4819 0fa3 81000000 		.4byte	0x81
 4820 0fa7 05       		.uleb128 0x5
 4821 0fa8 03       		.byte	0x3
 4822 0fa9 00000000 		.4byte	comas2
 4823 0fad 1A       		.uleb128 0x1a
 4824 0fae 35000000 		.4byte	.LASF75
 4825 0fb2 05       		.byte	0x5
 4826 0fb3 61       		.byte	0x61
 4827 0fb4 81000000 		.4byte	0x81
 4828 0fb8 05       		.uleb128 0x5
 4829 0fb9 03       		.byte	0x3
 4830 0fba 00000000 		.4byte	versurt
 4831 0fbe 1A       		.uleb128 0x1a
 4832 0fbf 28050000 		.4byte	.LASF76
 4833 0fc3 05       		.byte	0x5
 4834 0fc4 62       		.byte	0x62
 4835 0fc5 81000000 		.4byte	0x81
 4836 0fc9 05       		.uleb128 0x5
 4837 0fca 03       		.byte	0x3
 4838 0fcb 00000000 		.4byte	producto1
 4839 0fcf 1A       		.uleb128 0x1a
 4840 0fd0 32050000 		.4byte	.LASF77
 4841 0fd4 05       		.byte	0x5
 4842 0fd5 62       		.byte	0x62
 4843 0fd6 81000000 		.4byte	0x81
 4844 0fda 05       		.uleb128 0x5
 4845 0fdb 03       		.byte	0x3
 4846 0fdc 00000000 		.4byte	producto2
 4847 0fe0 1A       		.uleb128 0x1a
 4848 0fe1 3C050000 		.4byte	.LASF78
 4849 0fe5 05       		.byte	0x5
 4850 0fe6 62       		.byte	0x62
ARM GAS  C:\Users\RECEPC~1\AppData\Local\Temp\ccohni6j.s 			page 100


 4851 0fe7 81000000 		.4byte	0x81
 4852 0feb 05       		.uleb128 0x5
 4853 0fec 03       		.byte	0x3
 4854 0fed 00000000 		.4byte	producto3
 4855 0ff1 1A       		.uleb128 0x1a
 4856 0ff2 46050000 		.4byte	.LASF79
 4857 0ff6 05       		.byte	0x5
 4858 0ff7 62       		.byte	0x62
 4859 0ff8 81000000 		.4byte	0x81
 4860 0ffc 05       		.uleb128 0x5
 4861 0ffd 03       		.byte	0x3
 4862 0ffe 00000000 		.4byte	producto4
 4863 1002 1A       		.uleb128 0x1a
 4864 1003 C0000000 		.4byte	.LASF80
 4865 1007 05       		.byte	0x5
 4866 1008 62       		.byte	0x62
 4867 1009 81000000 		.4byte	0x81
 4868 100d 05       		.uleb128 0x5
 4869 100e 03       		.byte	0x3
 4870 100f 00000000 		.4byte	producto1b
 4871 1013 1A       		.uleb128 0x1a
 4872 1014 A8010000 		.4byte	.LASF81
 4873 1018 05       		.byte	0x5
 4874 1019 62       		.byte	0x62
 4875 101a 81000000 		.4byte	0x81
 4876 101e 05       		.uleb128 0x5
 4877 101f 03       		.byte	0x3
 4878 1020 00000000 		.4byte	producto2b
 4879 1024 1A       		.uleb128 0x1a
 4880 1025 6C020000 		.4byte	.LASF82
 4881 1029 05       		.byte	0x5
 4882 102a 62       		.byte	0x62
 4883 102b 81000000 		.4byte	0x81
 4884 102f 05       		.uleb128 0x5
 4885 1030 03       		.byte	0x3
 4886 1031 00000000 		.4byte	producto3b
 4887 1035 1A       		.uleb128 0x1a
 4888 1036 27030000 		.4byte	.LASF83
 4889 103a 05       		.byte	0x5
 4890 103b 62       		.byte	0x62
 4891 103c 81000000 		.4byte	0x81
 4892 1040 05       		.uleb128 0x5
 4893 1041 03       		.byte	0x3
 4894 1042 00000000 		.4byte	producto4b
 4895 1046 1A       		.uleb128 0x1a
 4896 1047 CB000000 		.4byte	.LASF84
 4897 104b 05       		.byte	0x5
 4898 104c 63       		.byte	0x63
 4899 104d 81000000 		.4byte	0x81
 4900 1051 05       		.uleb128 0x5
 4901 1052 03       		.byte	0x3
 4902 1053 00000000 		.4byte	producto1c
 4903 1057 1A       		.uleb128 0x1a
 4904 1058 B3010000 		.4byte	.LASF85
 4905 105c 05       		.byte	0x5
 4906 105d 63       		.byte	0x63
 4907 105e 81000000 		.4byte	0x81
ARM GAS  C:\Users\RECEPC~1\AppData\Local\Temp\ccohni6j.s 			page 101


 4908 1062 05       		.uleb128 0x5
 4909 1063 03       		.byte	0x3
 4910 1064 00000000 		.4byte	producto2c
 4911 1068 1A       		.uleb128 0x1a
 4912 1069 77020000 		.4byte	.LASF86
 4913 106d 05       		.byte	0x5
 4914 106e 63       		.byte	0x63
 4915 106f 81000000 		.4byte	0x81
 4916 1073 05       		.uleb128 0x5
 4917 1074 03       		.byte	0x3
 4918 1075 00000000 		.4byte	producto3c
 4919 1079 1A       		.uleb128 0x1a
 4920 107a 32030000 		.4byte	.LASF87
 4921 107e 05       		.byte	0x5
 4922 107f 63       		.byte	0x63
 4923 1080 81000000 		.4byte	0x81
 4924 1084 05       		.uleb128 0x5
 4925 1085 03       		.byte	0x3
 4926 1086 00000000 		.4byte	producto4c
 4927 108a 1A       		.uleb128 0x1a
 4928 108b D6000000 		.4byte	.LASF88
 4929 108f 05       		.byte	0x5
 4930 1090 63       		.byte	0x63
 4931 1091 81000000 		.4byte	0x81
 4932 1095 05       		.uleb128 0x5
 4933 1096 03       		.byte	0x3
 4934 1097 00000000 		.4byte	producto1d
 4935 109b 1A       		.uleb128 0x1a
 4936 109c BE010000 		.4byte	.LASF89
 4937 10a0 05       		.byte	0x5
 4938 10a1 63       		.byte	0x63
 4939 10a2 81000000 		.4byte	0x81
 4940 10a6 05       		.uleb128 0x5
 4941 10a7 03       		.byte	0x3
 4942 10a8 00000000 		.4byte	producto2d
 4943 10ac 1A       		.uleb128 0x1a
 4944 10ad 82020000 		.4byte	.LASF90
 4945 10b1 05       		.byte	0x5
 4946 10b2 63       		.byte	0x63
 4947 10b3 81000000 		.4byte	0x81
 4948 10b7 05       		.uleb128 0x5
 4949 10b8 03       		.byte	0x3
 4950 10b9 00000000 		.4byte	producto3d
 4951 10bd 1A       		.uleb128 0x1a
 4952 10be 3D030000 		.4byte	.LASF91
 4953 10c2 05       		.byte	0x5
 4954 10c3 63       		.byte	0x63
 4955 10c4 81000000 		.4byte	0x81
 4956 10c8 05       		.uleb128 0x5
 4957 10c9 03       		.byte	0x3
 4958 10ca 00000000 		.4byte	producto4d
 4959 10ce 09       		.uleb128 0x9
 4960 10cf 81000000 		.4byte	0x81
 4961 10d3 DE100000 		.4byte	0x10de
 4962 10d7 0A       		.uleb128 0xa
 4963 10d8 BA000000 		.4byte	0xba
 4964 10dc 3F       		.byte	0x3f
ARM GAS  C:\Users\RECEPC~1\AppData\Local\Temp\ccohni6j.s 			page 102


 4965 10dd 00       		.byte	0
 4966 10de 1A       		.uleb128 0x1a
 4967 10df F7010000 		.4byte	.LASF92
 4968 10e3 05       		.byte	0x5
 4969 10e4 64       		.byte	0x64
 4970 10e5 CE100000 		.4byte	0x10ce
 4971 10e9 05       		.uleb128 0x5
 4972 10ea 03       		.byte	0x3
 4973 10eb 00000000 		.4byte	buffer_i2c
 4974 10ef 1A       		.uleb128 0x1a
 4975 10f0 FA020000 		.4byte	.LASF93
 4976 10f4 05       		.byte	0x5
 4977 10f5 65       		.byte	0x65
 4978 10f6 CE100000 		.4byte	0x10ce
 4979 10fa 05       		.uleb128 0x5
 4980 10fb 03       		.byte	0x3
 4981 10fc 00000000 		.4byte	buffer_pos1
 4982 1100 1A       		.uleb128 0x1a
 4983 1101 EE030000 		.4byte	.LASF94
 4984 1105 05       		.byte	0x5
 4985 1106 66       		.byte	0x66
 4986 1107 CE100000 		.4byte	0x10ce
 4987 110b 05       		.uleb128 0x5
 4988 110c 03       		.byte	0x3
 4989 110d 00000000 		.4byte	buffer_pos2
 4990 1111 1A       		.uleb128 0x1a
 4991 1112 0F030000 		.4byte	.LASF95
 4992 1116 05       		.byte	0x5
 4993 1117 67       		.byte	0x67
 4994 1118 CE100000 		.4byte	0x10ce
 4995 111c 05       		.uleb128 0x5
 4996 111d 03       		.byte	0x3
 4997 111e 00000000 		.4byte	buffer_pos3
 4998 1122 1A       		.uleb128 0x1a
 4999 1123 1B030000 		.4byte	.LASF96
 5000 1127 05       		.byte	0x5
 5001 1128 68       		.byte	0x68
 5002 1129 CE100000 		.4byte	0x10ce
 5003 112d 05       		.uleb128 0x5
 5004 112e 03       		.byte	0x3
 5005 112f 00000000 		.4byte	buffer_pos4
 5006 1133 09       		.uleb128 0x9
 5007 1134 81000000 		.4byte	0x81
 5008 1138 43110000 		.4byte	0x1143
 5009 113c 0A       		.uleb128 0xa
 5010 113d BA000000 		.4byte	0xba
 5011 1141 0D       		.byte	0xd
 5012 1142 00       		.byte	0
 5013 1143 1A       		.uleb128 0x1a
 5014 1144 8F060000 		.4byte	.LASF97
 5015 1148 05       		.byte	0x5
 5016 1149 69       		.byte	0x69
 5017 114a 33110000 		.4byte	0x1133
 5018 114e 05       		.uleb128 0x5
 5019 114f 03       		.byte	0x3
 5020 1150 00000000 		.4byte	resultado
 5021 1154 1A       		.uleb128 0x1a
ARM GAS  C:\Users\RECEPC~1\AppData\Local\Temp\ccohni6j.s 			page 103


 5022 1155 5D020000 		.4byte	.LASF98
 5023 1159 05       		.byte	0x5
 5024 115a 6A       		.byte	0x6a
 5025 115b 81000000 		.4byte	0x81
 5026 115f 05       		.uleb128 0x5
 5027 1160 03       		.byte	0x3
 5028 1161 00000000 		.4byte	teclado
 5029 1165 1A       		.uleb128 0x1a
 5030 1166 8F000000 		.4byte	.LASF99
 5031 116a 05       		.byte	0x5
 5032 116b 6A       		.byte	0x6a
 5033 116c 81000000 		.4byte	0x81
 5034 1170 05       		.uleb128 0x5
 5035 1171 03       		.byte	0x3
 5036 1172 00000000 		.4byte	teclado2
 5037 1176 1A       		.uleb128 0x1a
 5038 1177 A3040000 		.4byte	.LASF100
 5039 117b 05       		.byte	0x5
 5040 117c 6B       		.byte	0x6b
 5041 117d 81000000 		.4byte	0x81
 5042 1181 05       		.uleb128 0x5
 5043 1182 03       		.byte	0x3
 5044 1183 00000000 		.4byte	ppux10
 5045 1187 1A       		.uleb128 0x1a
 5046 1188 C0050000 		.4byte	.LASF101
 5047 118c 05       		.byte	0x5
 5048 118d 6C       		.byte	0x6c
 5049 118e 01030000 		.4byte	0x301
 5050 1192 05       		.uleb128 0x5
 5051 1193 03       		.byte	0x3
 5052 1194 00000000 		.4byte	bandera
 5053 1198 1A       		.uleb128 0x1a
 5054 1199 F2060000 		.4byte	.LASF102
 5055 119d 05       		.byte	0x5
 5056 119e 6D       		.byte	0x6d
 5057 119f 01030000 		.4byte	0x301
 5058 11a3 05       		.uleb128 0x5
 5059 11a4 03       		.byte	0x3
 5060 11a5 00000000 		.4byte	tipo_imp
 5061 11a9 1A       		.uleb128 0x1a
 5062 11aa DC060000 		.4byte	.LASF103
 5063 11ae 05       		.byte	0x5
 5064 11af 6E       		.byte	0x6e
 5065 11b0 81000000 		.4byte	0x81
 5066 11b4 05       		.uleb128 0x5
 5067 11b5 03       		.byte	0x3
 5068 11b6 00000000 		.4byte	decimalV
 5069 11ba 1A       		.uleb128 0x1a
 5070 11bb 95010000 		.4byte	.LASF104
 5071 11bf 05       		.byte	0x5
 5072 11c0 6F       		.byte	0x6f
 5073 11c1 81000000 		.4byte	0x81
 5074 11c5 05       		.uleb128 0x5
 5075 11c6 03       		.byte	0x3
 5076 11c7 00000000 		.4byte	decimalD
 5077 11cb 09       		.uleb128 0x9
 5078 11cc 81000000 		.4byte	0x81
ARM GAS  C:\Users\RECEPC~1\AppData\Local\Temp\ccohni6j.s 			page 104


 5079 11d0 DB110000 		.4byte	0x11db
 5080 11d4 0A       		.uleb128 0xa
 5081 11d5 BA000000 		.4byte	0xba
 5082 11d9 05       		.byte	0x5
 5083 11da 00       		.byte	0
 5084 11db 1A       		.uleb128 0x1a
 5085 11dc 62030000 		.4byte	.LASF105
 5086 11e0 05       		.byte	0x5
 5087 11e1 70       		.byte	0x70
 5088 11e2 CB110000 		.4byte	0x11cb
 5089 11e6 05       		.uleb128 0x5
 5090 11e7 03       		.byte	0x3
 5091 11e8 00000000 		.4byte	fecha_corte
 5092 11ec 1A       		.uleb128 0x1a
 5093 11ed D6040000 		.4byte	.LASF106
 5094 11f1 05       		.byte	0x5
 5095 11f2 71       		.byte	0x71
 5096 11f3 81000000 		.4byte	0x81
 5097 11f7 05       		.uleb128 0x5
 5098 11f8 03       		.byte	0x3
 5099 11f9 00000000 		.4byte	pos_ibutton
 5100 11fd 1A       		.uleb128 0x1a
 5101 11fe B9040000 		.4byte	.LASF107
 5102 1202 05       		.byte	0x5
 5103 1203 72       		.byte	0x72
 5104 1204 81000000 		.4byte	0x81
 5105 1208 05       		.uleb128 0x5
 5106 1209 03       		.byte	0x3
 5107 120a 00000000 		.4byte	crc_total
 5108 120e 1A       		.uleb128 0x1a
 5109 120f 8B030000 		.4byte	.LASF108
 5110 1213 05       		.byte	0x5
 5111 1214 73       		.byte	0x73
 5112 1215 01030000 		.4byte	0x301
 5113 1219 05       		.uleb128 0x5
 5114 121a 03       		.byte	0x3
 5115 121b 00000000 		.4byte	print1
 5116 121f 1A       		.uleb128 0x1a
 5117 1220 92030000 		.4byte	.LASF109
 5118 1224 05       		.byte	0x5
 5119 1225 73       		.byte	0x73
 5120 1226 01030000 		.4byte	0x301
 5121 122a 05       		.uleb128 0x5
 5122 122b 03       		.byte	0x3
 5123 122c 00000000 		.4byte	print2
 5124 1230 1A       		.uleb128 0x1a
 5125 1231 F5040000 		.4byte	.LASF110
 5126 1235 05       		.byte	0x5
 5127 1236 74       		.byte	0x74
 5128 1237 01030000 		.4byte	0x301
 5129 123b 05       		.uleb128 0x5
 5130 123c 03       		.byte	0x3
 5131 123d 00000000 		.4byte	copia_recibo
 5132 1241 1A       		.uleb128 0x1a
 5133 1242 59000000 		.4byte	.LASF111
 5134 1246 05       		.byte	0x5
 5135 1247 75       		.byte	0x75
ARM GAS  C:\Users\RECEPC~1\AppData\Local\Temp\ccohni6j.s 			page 105


 5136 1248 01030000 		.4byte	0x301
 5137 124c 05       		.uleb128 0x5
 5138 124d 03       		.byte	0x3
 5139 124e 00000000 		.4byte	copia_recibo2
 5140 1252 1A       		.uleb128 0x1a
 5141 1253 48030000 		.4byte	.LASF112
 5142 1257 05       		.byte	0x5
 5143 1258 76       		.byte	0x76
 5144 1259 CB110000 		.4byte	0x11cb
 5145 125d 05       		.uleb128 0x5
 5146 125e 03       		.byte	0x3
 5147 125f 00000000 		.4byte	id_venta
 5148 1263 1A       		.uleb128 0x1a
 5149 1264 05040000 		.4byte	.LASF113
 5150 1268 05       		.byte	0x5
 5151 1269 77       		.byte	0x77
 5152 126a 81000000 		.4byte	0x81
 5153 126e 05       		.uleb128 0x5
 5154 126f 03       		.byte	0x3
 5155 1270 00000000 		.4byte	nombreproducto
 5156 1274 1A       		.uleb128 0x1a
 5157 1275 E8000000 		.4byte	.LASF114
 5158 1279 05       		.byte	0x5
 5159 127a 78       		.byte	0x78
 5160 127b 88010000 		.4byte	0x188
 5161 127f 05       		.uleb128 0x5
 5162 1280 03       		.byte	0x3
 5163 1281 00000000 		.4byte	producto1n
 5164 1285 1A       		.uleb128 0x1a
 5165 1286 DB010000 		.4byte	.LASF115
 5166 128a 05       		.byte	0x5
 5167 128b 79       		.byte	0x79
 5168 128c 88010000 		.4byte	0x188
 5169 1290 05       		.uleb128 0x5
 5170 1291 03       		.byte	0x3
 5171 1292 00000000 		.4byte	producto2n
 5172 1296 1A       		.uleb128 0x1a
 5173 1297 A8020000 		.4byte	.LASF116
 5174 129b 05       		.byte	0x5
 5175 129c 7A       		.byte	0x7a
 5176 129d 88010000 		.4byte	0x188
 5177 12a1 05       		.uleb128 0x5
 5178 12a2 03       		.byte	0x3
 5179 12a3 00000000 		.4byte	producto3n
 5180 12a7 1A       		.uleb128 0x1a
 5181 12a8 E6010000 		.4byte	.LASF117
 5182 12ac 05       		.byte	0x5
 5183 12ad 7B       		.byte	0x7b
 5184 12ae 88010000 		.4byte	0x188
 5185 12b2 05       		.uleb128 0x5
 5186 12b3 03       		.byte	0x3
 5187 12b4 00000000 		.4byte	producto4n
 5188 12b8 1A       		.uleb128 0x1a
 5189 12b9 CD040000 		.4byte	.LASF118
 5190 12bd 05       		.byte	0x5
 5191 12be 7C       		.byte	0x7c
 5192 12bf 81000000 		.4byte	0x81
ARM GAS  C:\Users\RECEPC~1\AppData\Local\Temp\ccohni6j.s 			page 106


 5193 12c3 05       		.uleb128 0x5
 5194 12c4 03       		.byte	0x3
 5195 12c5 00000000 		.4byte	a_copias
 5196 12c9 09       		.uleb128 0x9
 5197 12ca 81000000 		.4byte	0x81
 5198 12ce D9120000 		.4byte	0x12d9
 5199 12d2 0A       		.uleb128 0xa
 5200 12d3 BA000000 		.4byte	0xba
 5201 12d7 00       		.byte	0
 5202 12d8 00       		.byte	0
 5203 12d9 1A       		.uleb128 0x1a
 5204 12da C8020000 		.4byte	.LASF119
 5205 12de 05       		.byte	0x5
 5206 12df 7D       		.byte	0x7d
 5207 12e0 C9120000 		.4byte	0x12c9
 5208 12e4 05       		.uleb128 0x5
 5209 12e5 03       		.byte	0x3
 5210 12e6 00000000 		.4byte	n_copias
 5211 12ea 1A       		.uleb128 0x1a
 5212 12eb DC050000 		.4byte	.LASF120
 5213 12ef 05       		.byte	0x5
 5214 12f0 7E       		.byte	0x7e
 5215 12f1 81000000 		.4byte	0x81
 5216 12f5 05       		.uleb128 0x5
 5217 12f6 03       		.byte	0x3
 5218 12f7 00000000 		.4byte	no_imprime
 5219 12fb 1A       		.uleb128 0x1a
 5220 12fc D0050000 		.4byte	.LASF121
 5221 1300 05       		.byte	0x5
 5222 1301 7F       		.byte	0x7f
 5223 1302 81000000 		.4byte	0x81
 5224 1306 05       		.uleb128 0x5
 5225 1307 03       		.byte	0x3
 5226 1308 00000000 		.4byte	no_imprime2
 5227 130c 1A       		.uleb128 0x1a
 5228 130d FB060000 		.4byte	.LASF122
 5229 1311 05       		.byte	0x5
 5230 1312 80       		.byte	0x80
 5231 1313 81000000 		.4byte	0x81
 5232 1317 05       		.uleb128 0x5
 5233 1318 03       		.byte	0x3
 5234 1319 00000000 		.4byte	no_imprime3
 5235 131d 1A       		.uleb128 0x1a
 5236 131e E7050000 		.4byte	.LASF123
 5237 1322 05       		.byte	0x5
 5238 1323 81       		.byte	0x81
 5239 1324 81000000 		.4byte	0x81
 5240 1328 05       		.uleb128 0x5
 5241 1329 03       		.byte	0x3
 5242 132a 00000000 		.4byte	no_imprime4
 5243 132e 1A       		.uleb128 0x1a
 5244 132f 8B040000 		.4byte	.LASF124
 5245 1333 05       		.byte	0x5
 5246 1334 82       		.byte	0x82
 5247 1335 81000000 		.4byte	0x81
 5248 1339 05       		.uleb128 0x5
 5249 133a 03       		.byte	0x3
ARM GAS  C:\Users\RECEPC~1\AppData\Local\Temp\ccohni6j.s 			page 107


 5250 133b 00000000 		.4byte	imagen
 5251 133f 1A       		.uleb128 0x1a
 5252 1340 73030000 		.4byte	.LASF125
 5253 1344 05       		.byte	0x5
 5254 1345 83       		.byte	0x83
 5255 1346 81000000 		.4byte	0x81
 5256 134a 05       		.uleb128 0x5
 5257 134b 03       		.byte	0x3
 5258 134c 00000000 		.4byte	flujo_pos
 5259 1350 1A       		.uleb128 0x1a
 5260 1351 D1020000 		.4byte	.LASF126
 5261 1355 05       		.byte	0x5
 5262 1356 84       		.byte	0x84
 5263 1357 81000000 		.4byte	0x81
 5264 135b 05       		.uleb128 0x5
 5265 135c 03       		.byte	0x3
 5266 135d 00000000 		.4byte	flujo_pos2
 5267 1361 1A       		.uleb128 0x1a
 5268 1362 DC020000 		.4byte	.LASF127
 5269 1366 05       		.byte	0x5
 5270 1367 85       		.byte	0x85
 5271 1368 81000000 		.4byte	0x81
 5272 136c 05       		.uleb128 0x5
 5273 136d 03       		.byte	0x3
 5274 136e 00000000 		.4byte	flujo_pos3
 5275 1372 1A       		.uleb128 0x1a
 5276 1373 E7020000 		.4byte	.LASF128
 5277 1377 05       		.byte	0x5
 5278 1378 86       		.byte	0x86
 5279 1379 81000000 		.4byte	0x81
 5280 137d 05       		.uleb128 0x5
 5281 137e 03       		.byte	0x3
 5282 137f 00000000 		.4byte	flujo_pos4
 5283 1383 1A       		.uleb128 0x1a
 5284 1384 08010000 		.4byte	.LASF129
 5285 1388 05       		.byte	0x5
 5286 1389 87       		.byte	0x87
 5287 138a 81000000 		.4byte	0x81
 5288 138e 05       		.uleb128 0x5
 5289 138f 03       		.byte	0x3
 5290 1390 00000000 		.4byte	estado_lcd1
 5291 1394 1A       		.uleb128 0x1a
 5292 1395 14010000 		.4byte	.LASF130
 5293 1399 05       		.byte	0x5
 5294 139a 88       		.byte	0x88
 5295 139b 81000000 		.4byte	0x81
 5296 139f 05       		.uleb128 0x5
 5297 13a0 03       		.byte	0x3
 5298 13a1 00000000 		.4byte	estado_lcd2
 5299 13a5 1A       		.uleb128 0x1a
 5300 13a6 9A020000 		.4byte	.LASF131
 5301 13aa 05       		.byte	0x5
 5302 13ab 89       		.byte	0x89
 5303 13ac 81000000 		.4byte	0x81
 5304 13b0 05       		.uleb128 0x5
 5305 13b1 03       		.byte	0x3
 5306 13b2 00000000 		.4byte	seleccion_pos
ARM GAS  C:\Users\RECEPC~1\AppData\Local\Temp\ccohni6j.s 			page 108


 5307 13b6 1A       		.uleb128 0x1a
 5308 13b7 B9020000 		.4byte	.LASF132
 5309 13bb 05       		.byte	0x5
 5310 13bc 8A       		.byte	0x8a
 5311 13bd 81000000 		.4byte	0x81
 5312 13c1 05       		.uleb128 0x5
 5313 13c2 03       		.byte	0x3
 5314 13c3 00000000 		.4byte	seleccion_pos2
 5315 13c7 1A       		.uleb128 0x1a
 5316 13c8 8D020000 		.4byte	.LASF133
 5317 13cc 05       		.byte	0x5
 5318 13cd 8B       		.byte	0x8b
 5319 13ce 81000000 		.4byte	0x81
 5320 13d2 05       		.uleb128 0x5
 5321 13d3 03       		.byte	0x3
 5322 13d4 00000000 		.4byte	venta_activa
 5323 13d8 1A       		.uleb128 0x1a
 5324 13d9 1C020000 		.4byte	.LASF134
 5325 13dd 05       		.byte	0x5
 5326 13de 8B       		.byte	0x8b
 5327 13df 81000000 		.4byte	0x81
 5328 13e3 05       		.uleb128 0x5
 5329 13e4 03       		.byte	0x3
 5330 13e5 00000000 		.4byte	venta_activa3
 5331 13e9 1A       		.uleb128 0x1a
 5332 13ea 0E020000 		.4byte	.LASF135
 5333 13ee 05       		.byte	0x5
 5334 13ef 8C       		.byte	0x8c
 5335 13f0 81000000 		.4byte	0x81
 5336 13f4 05       		.uleb128 0x5
 5337 13f5 03       		.byte	0x3
 5338 13f6 00000000 		.4byte	venta_activa2
 5339 13fa 1A       		.uleb128 0x1a
 5340 13fb 2A020000 		.4byte	.LASF136
 5341 13ff 05       		.byte	0x5
 5342 1400 8C       		.byte	0x8c
 5343 1401 81000000 		.4byte	0x81
 5344 1405 05       		.uleb128 0x5
 5345 1406 03       		.byte	0x3
 5346 1407 00000000 		.4byte	venta_activa4
 5347 140b 1A       		.uleb128 0x1a
 5348 140c 2A040000 		.4byte	.LASF137
 5349 1410 05       		.byte	0x5
 5350 1411 8D       		.byte	0x8d
 5351 1412 8D000000 		.4byte	0x8d
 5352 1416 05       		.uleb128 0x5
 5353 1417 03       		.byte	0x3
 5354 1418 00000000 		.4byte	id_corte
 5355 141c 1A       		.uleb128 0x1a
 5356 141d 95050000 		.4byte	.LASF138
 5357 1421 05       		.byte	0x5
 5358 1422 8E       		.byte	0x8e
 5359 1423 81000000 		.4byte	0x81
 5360 1427 05       		.uleb128 0x5
 5361 1428 03       		.byte	0x3
 5362 1429 00000000 		.4byte	placa_aux
 5363 142d 1A       		.uleb128 0x1a
ARM GAS  C:\Users\RECEPC~1\AppData\Local\Temp\ccohni6j.s 			page 109


 5364 142e 59050000 		.4byte	.LASF139
 5365 1432 05       		.byte	0x5
 5366 1433 8F       		.byte	0x8f
 5367 1434 81000000 		.4byte	0x81
 5368 1438 05       		.uleb128 0x5
 5369 1439 03       		.byte	0x3
 5370 143a 00000000 		.4byte	no_ventacopia1
 5371 143e 1A       		.uleb128 0x1a
 5372 143f 68050000 		.4byte	.LASF140
 5373 1443 05       		.byte	0x5
 5374 1444 90       		.byte	0x90
 5375 1445 81000000 		.4byte	0x81
 5376 1449 05       		.uleb128 0x5
 5377 144a 03       		.byte	0x3
 5378 144b 00000000 		.4byte	no_ventacopia2
 5379 144f 1A       		.uleb128 0x1a
 5380 1450 77050000 		.4byte	.LASF141
 5381 1454 05       		.byte	0x5
 5382 1455 91       		.byte	0x91
 5383 1456 81000000 		.4byte	0x81
 5384 145a 05       		.uleb128 0x5
 5385 145b 03       		.byte	0x3
 5386 145c 00000000 		.4byte	no_ventacopia3
 5387 1460 1A       		.uleb128 0x1a
 5388 1461 86050000 		.4byte	.LASF142
 5389 1465 05       		.byte	0x5
 5390 1466 92       		.byte	0x92
 5391 1467 81000000 		.4byte	0x81
 5392 146b 05       		.uleb128 0x5
 5393 146c 03       		.byte	0x3
 5394 146d 00000000 		.4byte	no_ventacopia4
 5395 1471 1A       		.uleb128 0x1a
 5396 1472 33040000 		.4byte	.LASF143
 5397 1476 05       		.byte	0x5
 5398 1477 94       		.byte	0x94
 5399 1478 82140000 		.4byte	0x1482
 5400 147c 05       		.uleb128 0x5
 5401 147d 03       		.byte	0x3
 5402 147e 00000000 		.4byte	no_venta
 5403 1482 0C       		.uleb128 0xc
 5404 1483 68000000 		.4byte	0x68
 5405 1487 1A       		.uleb128 0x1a
 5406 1488 4A040000 		.4byte	.LASF144
 5407 148c 05       		.byte	0x5
 5408 148d B0       		.byte	0xb0
 5409 148e C1000000 		.4byte	0xc1
 5410 1492 05       		.uleb128 0x5
 5411 1493 03       		.byte	0x3
 5412 1494 00000000 		.4byte	Buffer_LCD1
 5413 1498 1A       		.uleb128 0x1a
 5414 1499 AC030000 		.4byte	.LASF145
 5415 149d 05       		.byte	0x5
 5416 149e B1       		.byte	0xb1
 5417 149f C1000000 		.4byte	0xc1
 5418 14a3 05       		.uleb128 0x5
 5419 14a4 03       		.byte	0x3
 5420 14a5 00000000 		.4byte	Buffer_LCD2
ARM GAS  C:\Users\RECEPC~1\AppData\Local\Temp\ccohni6j.s 			page 110


 5421 14a9 1A       		.uleb128 0x1a
 5422 14aa 5D040000 		.4byte	.LASF146
 5423 14ae 05       		.byte	0x5
 5424 14af B2       		.byte	0xb2
 5425 14b0 C1000000 		.4byte	0xc1
 5426 14b4 05       		.uleb128 0x5
 5427 14b5 03       		.byte	0x3
 5428 14b6 00000000 		.4byte	Buffer_LCD3
 5429 14ba 1A       		.uleb128 0x1a
 5430 14bb 69040000 		.4byte	.LASF147
 5431 14bf 05       		.byte	0x5
 5432 14c0 B3       		.byte	0xb3
 5433 14c1 C1000000 		.4byte	0xc1
 5434 14c5 05       		.uleb128 0x5
 5435 14c6 03       		.byte	0x3
 5436 14c7 00000000 		.4byte	Buffer_LCD4
 5437 14cb 1A       		.uleb128 0x1a
 5438 14cc 50050000 		.4byte	.LASF148
 5439 14d0 05       		.byte	0x5
 5440 14d1 B5       		.byte	0xb5
 5441 14d2 81000000 		.4byte	0x81
 5442 14d6 05       		.uleb128 0x5
 5443 14d7 03       		.byte	0x3
 5444 14d8 00000000 		.4byte	estado_0
 5445 14dc 1B       		.uleb128 0x1b
 5446 14dd 6100     		.ascii	"a\000"
 5447 14df 05       		.byte	0x5
 5448 14e0 C1       		.byte	0xc1
 5449 14e1 A8010000 		.4byte	0x1a8
 5450 14e5 05       		.uleb128 0x5
 5451 14e6 03       		.byte	0x3
 5452 14e7 00000000 		.4byte	a
 5453 14eb 1B       		.uleb128 0x1b
 5454 14ec 6200     		.ascii	"b\000"
 5455 14ee 05       		.byte	0x5
 5456 14ef C2       		.byte	0xc2
 5457 14f0 A8010000 		.4byte	0x1a8
 5458 14f4 05       		.uleb128 0x5
 5459 14f5 03       		.byte	0x3
 5460 14f6 00000000 		.4byte	b
 5461 14fa 1B       		.uleb128 0x1b
 5462 14fb 6300     		.ascii	"c\000"
 5463 14fd 05       		.byte	0x5
 5464 14fe C3       		.byte	0xc3
 5465 14ff A8010000 		.4byte	0x1a8
 5466 1503 05       		.uleb128 0x5
 5467 1504 03       		.byte	0x3
 5468 1505 00000000 		.4byte	c
 5469 1509 1B       		.uleb128 0x1b
 5470 150a 6400     		.ascii	"d\000"
 5471 150c 05       		.byte	0x5
 5472 150d C4       		.byte	0xc4
 5473 150e A8010000 		.4byte	0x1a8
 5474 1512 05       		.uleb128 0x5
 5475 1513 03       		.byte	0x3
 5476 1514 00000000 		.4byte	d
 5477 1518 1B       		.uleb128 0x1b
ARM GAS  C:\Users\RECEPC~1\AppData\Local\Temp\ccohni6j.s 			page 111


 5478 1519 7800     		.ascii	"x\000"
 5479 151b 05       		.byte	0x5
 5480 151c DA       		.byte	0xda
 5481 151d 99000000 		.4byte	0x99
 5482 1521 05       		.uleb128 0x5
 5483 1522 03       		.byte	0x3
 5484 1523 00000000 		.4byte	x
 5485 1527 1B       		.uleb128 0x1b
 5486 1528 7900     		.ascii	"y\000"
 5487 152a 05       		.byte	0x5
 5488 152b DA       		.byte	0xda
 5489 152c 99000000 		.4byte	0x99
 5490 1530 05       		.uleb128 0x5
 5491 1531 03       		.byte	0x3
 5492 1532 00000000 		.4byte	y
 5493 1536 1B       		.uleb128 0x1b
 5494 1537 7A00     		.ascii	"z\000"
 5495 1539 05       		.byte	0x5
 5496 153a DA       		.byte	0xda
 5497 153b 99000000 		.4byte	0x99
 5498 153f 05       		.uleb128 0x5
 5499 1540 03       		.byte	0x3
 5500 1541 00000000 		.4byte	z
 5501 1545 1B       		.uleb128 0x1b
 5502 1546 7700     		.ascii	"w\000"
 5503 1548 05       		.byte	0x5
 5504 1549 DA       		.byte	0xda
 5505 154a 99000000 		.4byte	0x99
 5506 154e 05       		.uleb128 0x5
 5507 154f 03       		.byte	0x3
 5508 1550 00000000 		.4byte	w
 5509 1554 09       		.uleb128 0x9
 5510 1555 81000000 		.4byte	0x81
 5511 1559 6A150000 		.4byte	0x156a
 5512 155d 0A       		.uleb128 0xa
 5513 155e BA000000 		.4byte	0xba
 5514 1562 01       		.byte	0x1
 5515 1563 0A       		.uleb128 0xa
 5516 1564 BA000000 		.4byte	0xba
 5517 1568 C7       		.byte	0xc7
 5518 1569 00       		.byte	0
 5519 156a 1A       		.uleb128 0x1a
 5520 156b 84030000 		.4byte	.LASF149
 5521 156f 05       		.byte	0x5
 5522 1570 DB       		.byte	0xdb
 5523 1571 54150000 		.4byte	0x1554
 5524 1575 05       		.uleb128 0x5
 5525 1576 03       		.byte	0x3
 5526 1577 00000000 		.4byte	modulo
 5527 157b 1A       		.uleb128 0x1a
 5528 157c E1000000 		.4byte	.LASF150
 5529 1580 05       		.byte	0x5
 5530 1581 DC       		.byte	0xdc
 5531 1582 81000000 		.4byte	0x81
 5532 1586 05       		.uleb128 0x5
 5533 1587 03       		.byte	0x3
 5534 1588 00000000 		.4byte	grado1
ARM GAS  C:\Users\RECEPC~1\AppData\Local\Temp\ccohni6j.s 			page 112


 5535 158c 1A       		.uleb128 0x1a
 5536 158d 98000000 		.4byte	.LASF151
 5537 1591 05       		.byte	0x5
 5538 1592 DC       		.byte	0xdc
 5539 1593 81000000 		.4byte	0x81
 5540 1597 05       		.uleb128 0x5
 5541 1598 03       		.byte	0x3
 5542 1599 00000000 		.4byte	grado2
 5543 159d 1A       		.uleb128 0x1a
 5544 159e 9F000000 		.4byte	.LASF152
 5545 15a2 05       		.byte	0x5
 5546 15a3 DC       		.byte	0xdc
 5547 15a4 81000000 		.4byte	0x81
 5548 15a8 05       		.uleb128 0x5
 5549 15a9 03       		.byte	0x3
 5550 15aa 00000000 		.4byte	grado3
 5551 15ae 1A       		.uleb128 0x1a
 5552 15af A6000000 		.4byte	.LASF153
 5553 15b3 05       		.byte	0x5
 5554 15b4 DC       		.byte	0xdc
 5555 15b5 81000000 		.4byte	0x81
 5556 15b9 05       		.uleb128 0x5
 5557 15ba 03       		.byte	0x3
 5558 15bb 00000000 		.4byte	grado4
 5559 15bf 1A       		.uleb128 0x1a
 5560 15c0 C6030000 		.4byte	.LASF43
 5561 15c4 05       		.byte	0x5
 5562 15c5 DC       		.byte	0xdc
 5563 15c6 81000000 		.4byte	0x81
 5564 15ca 05       		.uleb128 0x5
 5565 15cb 03       		.byte	0x3
 5566 15cc 00000000 		.4byte	producto
 5567 15d0 1A       		.uleb128 0x1a
 5568 15d1 10070000 		.4byte	.LASF154
 5569 15d5 05       		.byte	0x5
 5570 15d6 DE       		.byte	0xde
 5571 15d7 0C020000 		.4byte	0x20c
 5572 15db 05       		.uleb128 0x5
 5573 15dc 03       		.byte	0x3
 5574 15dd 00000000 		.4byte	rventa
 5575 15e1 1A       		.uleb128 0x1a
 5576 15e2 8D010000 		.4byte	.LASF155
 5577 15e6 05       		.byte	0x5
 5578 15e7 DF       		.byte	0xdf
 5579 15e8 0C020000 		.4byte	0x20c
 5580 15ec 05       		.uleb128 0x5
 5581 15ed 03       		.byte	0x3
 5582 15ee 00000000 		.4byte	rventa2
 5583 15f2 1C       		.uleb128 0x1c
 5584 15f3 4F020000 		.4byte	.LASF156
 5585 15f7 07       		.byte	0x7
 5586 15f8 9F       		.byte	0x9f
 5587 15f9 03160000 		.4byte	0x1603
 5588 15fd 1D       		.uleb128 0x1d
 5589 15fe 81000000 		.4byte	0x81
 5590 1602 00       		.byte	0
 5591 1603 1C       		.uleb128 0x1c
ARM GAS  C:\Users\RECEPC~1\AppData\Local\Temp\ccohni6j.s 			page 113


 5592 1604 E0030000 		.4byte	.LASF157
 5593 1608 08       		.byte	0x8
 5594 1609 9F       		.byte	0x9f
 5595 160a 14160000 		.4byte	0x1614
 5596 160e 1D       		.uleb128 0x1d
 5597 160f 81000000 		.4byte	0x81
 5598 1613 00       		.byte	0
 5599 1614 1E       		.uleb128 0x1e
 5600 1615 75040000 		.4byte	.LASF158
 5601 1619 09       		.byte	0x9
 5602 161a 26       		.byte	0x26
 5603 161b 81000000 		.4byte	0x81
 5604 161f 1D       		.uleb128 0x1d
 5605 1620 8D000000 		.4byte	0x8d
 5606 1624 1D       		.uleb128 0x1d
 5607 1625 81000000 		.4byte	0x81
 5608 1629 00       		.byte	0
 5609 162a 00       		.byte	0
 5610              		.section	.debug_abbrev,"",%progbits
 5611              	.Ldebug_abbrev0:
 5612 0000 01       		.uleb128 0x1
 5613 0001 11       		.uleb128 0x11
 5614 0002 01       		.byte	0x1
 5615 0003 25       		.uleb128 0x25
 5616 0004 0E       		.uleb128 0xe
 5617 0005 13       		.uleb128 0x13
 5618 0006 0B       		.uleb128 0xb
 5619 0007 03       		.uleb128 0x3
 5620 0008 0E       		.uleb128 0xe
 5621 0009 1B       		.uleb128 0x1b
 5622 000a 0E       		.uleb128 0xe
 5623 000b 55       		.uleb128 0x55
 5624 000c 17       		.uleb128 0x17
 5625 000d 11       		.uleb128 0x11
 5626 000e 01       		.uleb128 0x1
 5627 000f 10       		.uleb128 0x10
 5628 0010 17       		.uleb128 0x17
 5629 0011 00       		.byte	0
 5630 0012 00       		.byte	0
 5631 0013 02       		.uleb128 0x2
 5632 0014 24       		.uleb128 0x24
 5633 0015 00       		.byte	0
 5634 0016 0B       		.uleb128 0xb
 5635 0017 0B       		.uleb128 0xb
 5636 0018 3E       		.uleb128 0x3e
 5637 0019 0B       		.uleb128 0xb
 5638 001a 03       		.uleb128 0x3
 5639 001b 0E       		.uleb128 0xe
 5640 001c 00       		.byte	0
 5641 001d 00       		.byte	0
 5642 001e 03       		.uleb128 0x3
 5643 001f 16       		.uleb128 0x16
 5644 0020 00       		.byte	0
 5645 0021 03       		.uleb128 0x3
 5646 0022 0E       		.uleb128 0xe
 5647 0023 3A       		.uleb128 0x3a
 5648 0024 0B       		.uleb128 0xb
ARM GAS  C:\Users\RECEPC~1\AppData\Local\Temp\ccohni6j.s 			page 114


 5649 0025 3B       		.uleb128 0x3b
 5650 0026 0B       		.uleb128 0xb
 5651 0027 49       		.uleb128 0x49
 5652 0028 13       		.uleb128 0x13
 5653 0029 00       		.byte	0
 5654 002a 00       		.byte	0
 5655 002b 04       		.uleb128 0x4
 5656 002c 24       		.uleb128 0x24
 5657 002d 00       		.byte	0
 5658 002e 0B       		.uleb128 0xb
 5659 002f 0B       		.uleb128 0xb
 5660 0030 3E       		.uleb128 0x3e
 5661 0031 0B       		.uleb128 0xb
 5662 0032 03       		.uleb128 0x3
 5663 0033 08       		.uleb128 0x8
 5664 0034 00       		.byte	0
 5665 0035 00       		.byte	0
 5666 0036 05       		.uleb128 0x5
 5667 0037 16       		.uleb128 0x16
 5668 0038 00       		.byte	0
 5669 0039 03       		.uleb128 0x3
 5670 003a 0E       		.uleb128 0xe
 5671 003b 3A       		.uleb128 0x3a
 5672 003c 0B       		.uleb128 0xb
 5673 003d 3B       		.uleb128 0x3b
 5674 003e 05       		.uleb128 0x5
 5675 003f 49       		.uleb128 0x49
 5676 0040 13       		.uleb128 0x13
 5677 0041 00       		.byte	0
 5678 0042 00       		.byte	0
 5679 0043 06       		.uleb128 0x6
 5680 0044 13       		.uleb128 0x13
 5681 0045 01       		.byte	0x1
 5682 0046 03       		.uleb128 0x3
 5683 0047 0E       		.uleb128 0xe
 5684 0048 0B       		.uleb128 0xb
 5685 0049 0B       		.uleb128 0xb
 5686 004a 3A       		.uleb128 0x3a
 5687 004b 0B       		.uleb128 0xb
 5688 004c 3B       		.uleb128 0x3b
 5689 004d 0B       		.uleb128 0xb
 5690 004e 01       		.uleb128 0x1
 5691 004f 13       		.uleb128 0x13
 5692 0050 00       		.byte	0
 5693 0051 00       		.byte	0
 5694 0052 07       		.uleb128 0x7
 5695 0053 0D       		.uleb128 0xd
 5696 0054 00       		.byte	0
 5697 0055 03       		.uleb128 0x3
 5698 0056 0E       		.uleb128 0xe
 5699 0057 3A       		.uleb128 0x3a
 5700 0058 0B       		.uleb128 0xb
 5701 0059 3B       		.uleb128 0x3b
 5702 005a 0B       		.uleb128 0xb
 5703 005b 49       		.uleb128 0x49
 5704 005c 13       		.uleb128 0x13
 5705 005d 38       		.uleb128 0x38
ARM GAS  C:\Users\RECEPC~1\AppData\Local\Temp\ccohni6j.s 			page 115


 5706 005e 0B       		.uleb128 0xb
 5707 005f 00       		.byte	0
 5708 0060 00       		.byte	0
 5709 0061 08       		.uleb128 0x8
 5710 0062 0D       		.uleb128 0xd
 5711 0063 00       		.byte	0
 5712 0064 03       		.uleb128 0x3
 5713 0065 08       		.uleb128 0x8
 5714 0066 3A       		.uleb128 0x3a
 5715 0067 0B       		.uleb128 0xb
 5716 0068 3B       		.uleb128 0x3b
 5717 0069 0B       		.uleb128 0xb
 5718 006a 49       		.uleb128 0x49
 5719 006b 13       		.uleb128 0x13
 5720 006c 38       		.uleb128 0x38
 5721 006d 0B       		.uleb128 0xb
 5722 006e 00       		.byte	0
 5723 006f 00       		.byte	0
 5724 0070 09       		.uleb128 0x9
 5725 0071 01       		.uleb128 0x1
 5726 0072 01       		.byte	0x1
 5727 0073 49       		.uleb128 0x49
 5728 0074 13       		.uleb128 0x13
 5729 0075 01       		.uleb128 0x1
 5730 0076 13       		.uleb128 0x13
 5731 0077 00       		.byte	0
 5732 0078 00       		.byte	0
 5733 0079 0A       		.uleb128 0xa
 5734 007a 21       		.uleb128 0x21
 5735 007b 00       		.byte	0
 5736 007c 49       		.uleb128 0x49
 5737 007d 13       		.uleb128 0x13
 5738 007e 2F       		.uleb128 0x2f
 5739 007f 0B       		.uleb128 0xb
 5740 0080 00       		.byte	0
 5741 0081 00       		.byte	0
 5742 0082 0B       		.uleb128 0xb
 5743 0083 13       		.uleb128 0x13
 5744 0084 01       		.byte	0x1
 5745 0085 03       		.uleb128 0x3
 5746 0086 08       		.uleb128 0x8
 5747 0087 0B       		.uleb128 0xb
 5748 0088 0B       		.uleb128 0xb
 5749 0089 3A       		.uleb128 0x3a
 5750 008a 0B       		.uleb128 0xb
 5751 008b 3B       		.uleb128 0x3b
 5752 008c 0B       		.uleb128 0xb
 5753 008d 01       		.uleb128 0x1
 5754 008e 13       		.uleb128 0x13
 5755 008f 00       		.byte	0
 5756 0090 00       		.byte	0
 5757 0091 0C       		.uleb128 0xc
 5758 0092 35       		.uleb128 0x35
 5759 0093 00       		.byte	0
 5760 0094 49       		.uleb128 0x49
 5761 0095 13       		.uleb128 0x13
 5762 0096 00       		.byte	0
ARM GAS  C:\Users\RECEPC~1\AppData\Local\Temp\ccohni6j.s 			page 116


 5763 0097 00       		.byte	0
 5764 0098 0D       		.uleb128 0xd
 5765 0099 2E       		.uleb128 0x2e
 5766 009a 01       		.byte	0x1
 5767 009b 3F       		.uleb128 0x3f
 5768 009c 19       		.uleb128 0x19
 5769 009d 03       		.uleb128 0x3
 5770 009e 0E       		.uleb128 0xe
 5771 009f 3A       		.uleb128 0x3a
 5772 00a0 0B       		.uleb128 0xb
 5773 00a1 3B       		.uleb128 0x3b
 5774 00a2 0B       		.uleb128 0xb
 5775 00a3 27       		.uleb128 0x27
 5776 00a4 19       		.uleb128 0x19
 5777 00a5 11       		.uleb128 0x11
 5778 00a6 01       		.uleb128 0x1
 5779 00a7 12       		.uleb128 0x12
 5780 00a8 06       		.uleb128 0x6
 5781 00a9 40       		.uleb128 0x40
 5782 00aa 18       		.uleb128 0x18
 5783 00ab 9742     		.uleb128 0x2117
 5784 00ad 19       		.uleb128 0x19
 5785 00ae 01       		.uleb128 0x1
 5786 00af 13       		.uleb128 0x13
 5787 00b0 00       		.byte	0
 5788 00b1 00       		.byte	0
 5789 00b2 0E       		.uleb128 0xe
 5790 00b3 05       		.uleb128 0x5
 5791 00b4 00       		.byte	0
 5792 00b5 03       		.uleb128 0x3
 5793 00b6 08       		.uleb128 0x8
 5794 00b7 3A       		.uleb128 0x3a
 5795 00b8 0B       		.uleb128 0xb
 5796 00b9 3B       		.uleb128 0x3b
 5797 00ba 0B       		.uleb128 0xb
 5798 00bb 49       		.uleb128 0x49
 5799 00bc 13       		.uleb128 0x13
 5800 00bd 02       		.uleb128 0x2
 5801 00be 17       		.uleb128 0x17
 5802 00bf 00       		.byte	0
 5803 00c0 00       		.byte	0
 5804 00c1 0F       		.uleb128 0xf
 5805 00c2 898201   		.uleb128 0x4109
 5806 00c5 01       		.byte	0x1
 5807 00c6 11       		.uleb128 0x11
 5808 00c7 01       		.uleb128 0x1
 5809 00c8 31       		.uleb128 0x31
 5810 00c9 13       		.uleb128 0x13
 5811 00ca 01       		.uleb128 0x1
 5812 00cb 13       		.uleb128 0x13
 5813 00cc 00       		.byte	0
 5814 00cd 00       		.byte	0
 5815 00ce 10       		.uleb128 0x10
 5816 00cf 8A8201   		.uleb128 0x410a
 5817 00d2 00       		.byte	0
 5818 00d3 02       		.uleb128 0x2
 5819 00d4 18       		.uleb128 0x18
ARM GAS  C:\Users\RECEPC~1\AppData\Local\Temp\ccohni6j.s 			page 117


 5820 00d5 9142     		.uleb128 0x2111
 5821 00d7 18       		.uleb128 0x18
 5822 00d8 00       		.byte	0
 5823 00d9 00       		.byte	0
 5824 00da 11       		.uleb128 0x11
 5825 00db 898201   		.uleb128 0x4109
 5826 00de 01       		.byte	0x1
 5827 00df 11       		.uleb128 0x11
 5828 00e0 01       		.uleb128 0x1
 5829 00e1 31       		.uleb128 0x31
 5830 00e2 13       		.uleb128 0x13
 5831 00e3 00       		.byte	0
 5832 00e4 00       		.byte	0
 5833 00e5 12       		.uleb128 0x12
 5834 00e6 05       		.uleb128 0x5
 5835 00e7 00       		.byte	0
 5836 00e8 03       		.uleb128 0x3
 5837 00e9 0E       		.uleb128 0xe
 5838 00ea 3A       		.uleb128 0x3a
 5839 00eb 0B       		.uleb128 0xb
 5840 00ec 3B       		.uleb128 0x3b
 5841 00ed 0B       		.uleb128 0xb
 5842 00ee 49       		.uleb128 0x49
 5843 00ef 13       		.uleb128 0x13
 5844 00f0 02       		.uleb128 0x2
 5845 00f1 17       		.uleb128 0x17
 5846 00f2 00       		.byte	0
 5847 00f3 00       		.byte	0
 5848 00f4 13       		.uleb128 0x13
 5849 00f5 34       		.uleb128 0x34
 5850 00f6 00       		.byte	0
 5851 00f7 03       		.uleb128 0x3
 5852 00f8 0E       		.uleb128 0xe
 5853 00f9 3A       		.uleb128 0x3a
 5854 00fa 0B       		.uleb128 0xb
 5855 00fb 3B       		.uleb128 0x3b
 5856 00fc 0B       		.uleb128 0xb
 5857 00fd 49       		.uleb128 0x49
 5858 00fe 13       		.uleb128 0x13
 5859 00ff 02       		.uleb128 0x2
 5860 0100 18       		.uleb128 0x18
 5861 0101 00       		.byte	0
 5862 0102 00       		.byte	0
 5863 0103 14       		.uleb128 0x14
 5864 0104 898201   		.uleb128 0x4109
 5865 0107 00       		.byte	0
 5866 0108 11       		.uleb128 0x11
 5867 0109 01       		.uleb128 0x1
 5868 010a 31       		.uleb128 0x31
 5869 010b 13       		.uleb128 0x13
 5870 010c 00       		.byte	0
 5871 010d 00       		.byte	0
 5872 010e 15       		.uleb128 0x15
 5873 010f 2E       		.uleb128 0x2e
 5874 0110 01       		.byte	0x1
 5875 0111 3F       		.uleb128 0x3f
 5876 0112 19       		.uleb128 0x19
ARM GAS  C:\Users\RECEPC~1\AppData\Local\Temp\ccohni6j.s 			page 118


 5877 0113 03       		.uleb128 0x3
 5878 0114 0E       		.uleb128 0xe
 5879 0115 3A       		.uleb128 0x3a
 5880 0116 0B       		.uleb128 0xb
 5881 0117 3B       		.uleb128 0x3b
 5882 0118 05       		.uleb128 0x5
 5883 0119 27       		.uleb128 0x27
 5884 011a 19       		.uleb128 0x19
 5885 011b 11       		.uleb128 0x11
 5886 011c 01       		.uleb128 0x1
 5887 011d 12       		.uleb128 0x12
 5888 011e 06       		.uleb128 0x6
 5889 011f 40       		.uleb128 0x40
 5890 0120 18       		.uleb128 0x18
 5891 0121 9742     		.uleb128 0x2117
 5892 0123 19       		.uleb128 0x19
 5893 0124 01       		.uleb128 0x1
 5894 0125 13       		.uleb128 0x13
 5895 0126 00       		.byte	0
 5896 0127 00       		.byte	0
 5897 0128 16       		.uleb128 0x16
 5898 0129 05       		.uleb128 0x5
 5899 012a 00       		.byte	0
 5900 012b 03       		.uleb128 0x3
 5901 012c 08       		.uleb128 0x8
 5902 012d 3A       		.uleb128 0x3a
 5903 012e 0B       		.uleb128 0xb
 5904 012f 3B       		.uleb128 0x3b
 5905 0130 05       		.uleb128 0x5
 5906 0131 49       		.uleb128 0x49
 5907 0132 13       		.uleb128 0x13
 5908 0133 02       		.uleb128 0x2
 5909 0134 17       		.uleb128 0x17
 5910 0135 00       		.byte	0
 5911 0136 00       		.byte	0
 5912 0137 17       		.uleb128 0x17
 5913 0138 05       		.uleb128 0x5
 5914 0139 00       		.byte	0
 5915 013a 03       		.uleb128 0x3
 5916 013b 0E       		.uleb128 0xe
 5917 013c 3A       		.uleb128 0x3a
 5918 013d 0B       		.uleb128 0xb
 5919 013e 3B       		.uleb128 0x3b
 5920 013f 05       		.uleb128 0x5
 5921 0140 49       		.uleb128 0x49
 5922 0141 13       		.uleb128 0x13
 5923 0142 02       		.uleb128 0x2
 5924 0143 17       		.uleb128 0x17
 5925 0144 00       		.byte	0
 5926 0145 00       		.byte	0
 5927 0146 18       		.uleb128 0x18
 5928 0147 34       		.uleb128 0x34
 5929 0148 00       		.byte	0
 5930 0149 03       		.uleb128 0x3
 5931 014a 0E       		.uleb128 0xe
 5932 014b 3A       		.uleb128 0x3a
 5933 014c 0B       		.uleb128 0xb
ARM GAS  C:\Users\RECEPC~1\AppData\Local\Temp\ccohni6j.s 			page 119


 5934 014d 3B       		.uleb128 0x3b
 5935 014e 05       		.uleb128 0x5
 5936 014f 49       		.uleb128 0x49
 5937 0150 13       		.uleb128 0x13
 5938 0151 02       		.uleb128 0x2
 5939 0152 18       		.uleb128 0x18
 5940 0153 00       		.byte	0
 5941 0154 00       		.byte	0
 5942 0155 19       		.uleb128 0x19
 5943 0156 34       		.uleb128 0x34
 5944 0157 00       		.byte	0
 5945 0158 03       		.uleb128 0x3
 5946 0159 0E       		.uleb128 0xe
 5947 015a 3A       		.uleb128 0x3a
 5948 015b 0B       		.uleb128 0xb
 5949 015c 3B       		.uleb128 0x3b
 5950 015d 05       		.uleb128 0x5
 5951 015e 49       		.uleb128 0x49
 5952 015f 13       		.uleb128 0x13
 5953 0160 3F       		.uleb128 0x3f
 5954 0161 19       		.uleb128 0x19
 5955 0162 3C       		.uleb128 0x3c
 5956 0163 19       		.uleb128 0x19
 5957 0164 00       		.byte	0
 5958 0165 00       		.byte	0
 5959 0166 1A       		.uleb128 0x1a
 5960 0167 34       		.uleb128 0x34
 5961 0168 00       		.byte	0
 5962 0169 03       		.uleb128 0x3
 5963 016a 0E       		.uleb128 0xe
 5964 016b 3A       		.uleb128 0x3a
 5965 016c 0B       		.uleb128 0xb
 5966 016d 3B       		.uleb128 0x3b
 5967 016e 0B       		.uleb128 0xb
 5968 016f 49       		.uleb128 0x49
 5969 0170 13       		.uleb128 0x13
 5970 0171 3F       		.uleb128 0x3f
 5971 0172 19       		.uleb128 0x19
 5972 0173 02       		.uleb128 0x2
 5973 0174 18       		.uleb128 0x18
 5974 0175 00       		.byte	0
 5975 0176 00       		.byte	0
 5976 0177 1B       		.uleb128 0x1b
 5977 0178 34       		.uleb128 0x34
 5978 0179 00       		.byte	0
 5979 017a 03       		.uleb128 0x3
 5980 017b 08       		.uleb128 0x8
 5981 017c 3A       		.uleb128 0x3a
 5982 017d 0B       		.uleb128 0xb
 5983 017e 3B       		.uleb128 0x3b
 5984 017f 0B       		.uleb128 0xb
 5985 0180 49       		.uleb128 0x49
 5986 0181 13       		.uleb128 0x13
 5987 0182 3F       		.uleb128 0x3f
 5988 0183 19       		.uleb128 0x19
 5989 0184 02       		.uleb128 0x2
 5990 0185 18       		.uleb128 0x18
ARM GAS  C:\Users\RECEPC~1\AppData\Local\Temp\ccohni6j.s 			page 120


 5991 0186 00       		.byte	0
 5992 0187 00       		.byte	0
 5993 0188 1C       		.uleb128 0x1c
 5994 0189 2E       		.uleb128 0x2e
 5995 018a 01       		.byte	0x1
 5996 018b 3F       		.uleb128 0x3f
 5997 018c 19       		.uleb128 0x19
 5998 018d 03       		.uleb128 0x3
 5999 018e 0E       		.uleb128 0xe
 6000 018f 3A       		.uleb128 0x3a
 6001 0190 0B       		.uleb128 0xb
 6002 0191 3B       		.uleb128 0x3b
 6003 0192 0B       		.uleb128 0xb
 6004 0193 27       		.uleb128 0x27
 6005 0194 19       		.uleb128 0x19
 6006 0195 3C       		.uleb128 0x3c
 6007 0196 19       		.uleb128 0x19
 6008 0197 01       		.uleb128 0x1
 6009 0198 13       		.uleb128 0x13
 6010 0199 00       		.byte	0
 6011 019a 00       		.byte	0
 6012 019b 1D       		.uleb128 0x1d
 6013 019c 05       		.uleb128 0x5
 6014 019d 00       		.byte	0
 6015 019e 49       		.uleb128 0x49
 6016 019f 13       		.uleb128 0x13
 6017 01a0 00       		.byte	0
 6018 01a1 00       		.byte	0
 6019 01a2 1E       		.uleb128 0x1e
 6020 01a3 2E       		.uleb128 0x2e
 6021 01a4 01       		.byte	0x1
 6022 01a5 3F       		.uleb128 0x3f
 6023 01a6 19       		.uleb128 0x19
 6024 01a7 03       		.uleb128 0x3
 6025 01a8 0E       		.uleb128 0xe
 6026 01a9 3A       		.uleb128 0x3a
 6027 01aa 0B       		.uleb128 0xb
 6028 01ab 3B       		.uleb128 0x3b
 6029 01ac 0B       		.uleb128 0xb
 6030 01ad 27       		.uleb128 0x27
 6031 01ae 19       		.uleb128 0x19
 6032 01af 49       		.uleb128 0x49
 6033 01b0 13       		.uleb128 0x13
 6034 01b1 3C       		.uleb128 0x3c
 6035 01b2 19       		.uleb128 0x19
 6036 01b3 00       		.byte	0
 6037 01b4 00       		.byte	0
 6038 01b5 00       		.byte	0
 6039              		.section	.debug_loc,"",%progbits
 6040              	.Ldebug_loc0:
 6041              	.LLST0:
 6042 0000 00000000 		.4byte	.LVL0
 6043 0004 0C000000 		.4byte	.LVL1
 6044 0008 0100     		.2byte	0x1
 6045 000a 50       		.byte	0x50
 6046 000b 0C000000 		.4byte	.LVL1
 6047 000f 70000000 		.4byte	.LFE63
ARM GAS  C:\Users\RECEPC~1\AppData\Local\Temp\ccohni6j.s 			page 121


 6048 0013 0400     		.2byte	0x4
 6049 0015 F3       		.byte	0xf3
 6050 0016 01       		.uleb128 0x1
 6051 0017 50       		.byte	0x50
 6052 0018 9F       		.byte	0x9f
 6053 0019 00000000 		.4byte	0
 6054 001d 00000000 		.4byte	0
 6055              	.LLST1:
 6056 0021 00000000 		.4byte	.LVL0
 6057 0025 0F000000 		.4byte	.LVL2-1
 6058 0029 0100     		.2byte	0x1
 6059 002b 51       		.byte	0x51
 6060 002c 0F000000 		.4byte	.LVL2-1
 6061 0030 70000000 		.4byte	.LFE63
 6062 0034 0400     		.2byte	0x4
 6063 0036 F3       		.byte	0xf3
 6064 0037 01       		.uleb128 0x1
 6065 0038 51       		.byte	0x51
 6066 0039 9F       		.byte	0x9f
 6067 003a 00000000 		.4byte	0
 6068 003e 00000000 		.4byte	0
 6069              	.LLST2:
 6070 0042 00000000 		.4byte	.LVL18
 6071 0046 0C000000 		.4byte	.LVL19
 6072 004a 0100     		.2byte	0x1
 6073 004c 50       		.byte	0x50
 6074 004d 0C000000 		.4byte	.LVL19
 6075 0051 84000000 		.4byte	.LVL38
 6076 0055 0400     		.2byte	0x4
 6077 0057 F3       		.byte	0xf3
 6078 0058 01       		.uleb128 0x1
 6079 0059 50       		.byte	0x50
 6080 005a 9F       		.byte	0x9f
 6081 005b 84000000 		.4byte	.LVL38
 6082 005f 86000000 		.4byte	.LVL39
 6083 0063 0100     		.2byte	0x1
 6084 0065 50       		.byte	0x50
 6085 0066 86000000 		.4byte	.LVL39
 6086 006a FE000000 		.4byte	.LFE64
 6087 006e 0400     		.2byte	0x4
 6088 0070 F3       		.byte	0xf3
 6089 0071 01       		.uleb128 0x1
 6090 0072 50       		.byte	0x50
 6091 0073 9F       		.byte	0x9f
 6092 0074 00000000 		.4byte	0
 6093 0078 00000000 		.4byte	0
 6094              	.LLST3:
 6095 007c 00000000 		.4byte	.LVL18
 6096 0080 0F000000 		.4byte	.LVL20-1
 6097 0084 0100     		.2byte	0x1
 6098 0086 51       		.byte	0x51
 6099 0087 0F000000 		.4byte	.LVL20-1
 6100 008b 84000000 		.4byte	.LVL38
 6101 008f 0400     		.2byte	0x4
 6102 0091 F3       		.byte	0xf3
 6103 0092 01       		.uleb128 0x1
 6104 0093 51       		.byte	0x51
ARM GAS  C:\Users\RECEPC~1\AppData\Local\Temp\ccohni6j.s 			page 122


 6105 0094 9F       		.byte	0x9f
 6106 0095 84000000 		.4byte	.LVL38
 6107 0099 89000000 		.4byte	.LVL40-1
 6108 009d 0100     		.2byte	0x1
 6109 009f 51       		.byte	0x51
 6110 00a0 89000000 		.4byte	.LVL40-1
 6111 00a4 FE000000 		.4byte	.LFE64
 6112 00a8 0400     		.2byte	0x4
 6113 00aa F3       		.byte	0xf3
 6114 00ab 01       		.uleb128 0x1
 6115 00ac 51       		.byte	0x51
 6116 00ad 9F       		.byte	0x9f
 6117 00ae 00000000 		.4byte	0
 6118 00b2 00000000 		.4byte	0
 6119              	.LLST4:
 6120 00b6 00000000 		.4byte	.LVL18
 6121 00ba 0F000000 		.4byte	.LVL20-1
 6122 00be 0100     		.2byte	0x1
 6123 00c0 52       		.byte	0x52
 6124 00c1 0F000000 		.4byte	.LVL20-1
 6125 00c5 84000000 		.4byte	.LVL38
 6126 00c9 0400     		.2byte	0x4
 6127 00cb F3       		.byte	0xf3
 6128 00cc 01       		.uleb128 0x1
 6129 00cd 52       		.byte	0x52
 6130 00ce 9F       		.byte	0x9f
 6131 00cf 84000000 		.4byte	.LVL38
 6132 00d3 89000000 		.4byte	.LVL40-1
 6133 00d7 0100     		.2byte	0x1
 6134 00d9 52       		.byte	0x52
 6135 00da 89000000 		.4byte	.LVL40-1
 6136 00de FE000000 		.4byte	.LFE64
 6137 00e2 0400     		.2byte	0x4
 6138 00e4 F3       		.byte	0xf3
 6139 00e5 01       		.uleb128 0x1
 6140 00e6 52       		.byte	0x52
 6141 00e7 9F       		.byte	0x9f
 6142 00e8 00000000 		.4byte	0
 6143 00ec 00000000 		.4byte	0
 6144              	.LLST5:
 6145 00f0 00000000 		.4byte	.LVL58
 6146 00f4 0C000000 		.4byte	.LVL59
 6147 00f8 0100     		.2byte	0x1
 6148 00fa 50       		.byte	0x50
 6149 00fb 0C000000 		.4byte	.LVL59
 6150 00ff BC000000 		.4byte	.LFE65
 6151 0103 0400     		.2byte	0x4
 6152 0105 F3       		.byte	0xf3
 6153 0106 01       		.uleb128 0x1
 6154 0107 50       		.byte	0x50
 6155 0108 9F       		.byte	0x9f
 6156 0109 00000000 		.4byte	0
 6157 010d 00000000 		.4byte	0
 6158              	.LLST6:
 6159 0111 00000000 		.4byte	.LVL62
 6160 0115 0E000000 		.4byte	.LVL63
 6161 0119 0100     		.2byte	0x1
ARM GAS  C:\Users\RECEPC~1\AppData\Local\Temp\ccohni6j.s 			page 123


 6162 011b 50       		.byte	0x50
 6163 011c 0E000000 		.4byte	.LVL63
 6164 0120 C8000000 		.4byte	.LFE66
 6165 0124 0400     		.2byte	0x4
 6166 0126 F3       		.byte	0xf3
 6167 0127 01       		.uleb128 0x1
 6168 0128 50       		.byte	0x50
 6169 0129 9F       		.byte	0x9f
 6170 012a 00000000 		.4byte	0
 6171 012e 00000000 		.4byte	0
 6172              	.LLST7:
 6173 0132 00000000 		.4byte	.LVL66
 6174 0136 0E000000 		.4byte	.LVL67
 6175 013a 0100     		.2byte	0x1
 6176 013c 50       		.byte	0x50
 6177 013d 0E000000 		.4byte	.LVL67
 6178 0141 04010000 		.4byte	.LFE67
 6179 0145 0400     		.2byte	0x4
 6180 0147 F3       		.byte	0xf3
 6181 0148 01       		.uleb128 0x1
 6182 0149 50       		.byte	0x50
 6183 014a 9F       		.byte	0x9f
 6184 014b 00000000 		.4byte	0
 6185 014f 00000000 		.4byte	0
 6186              	.LLST8:
 6187 0153 00000000 		.4byte	.LVL70
 6188 0157 14000000 		.4byte	.LVL71
 6189 015b 0100     		.2byte	0x1
 6190 015d 50       		.byte	0x50
 6191 015e 14000000 		.4byte	.LVL71
 6192 0162 C4000000 		.4byte	.LFE68
 6193 0166 0400     		.2byte	0x4
 6194 0168 F3       		.byte	0xf3
 6195 0169 01       		.uleb128 0x1
 6196 016a 50       		.byte	0x50
 6197 016b 9F       		.byte	0x9f
 6198 016c 00000000 		.4byte	0
 6199 0170 00000000 		.4byte	0
 6200              	.LLST9:
 6201 0174 00000000 		.4byte	.LVL70
 6202 0178 16000000 		.4byte	.LVL72
 6203 017c 0100     		.2byte	0x1
 6204 017e 51       		.byte	0x51
 6205 017f 16000000 		.4byte	.LVL72
 6206 0183 C4000000 		.4byte	.LFE68
 6207 0187 0400     		.2byte	0x4
 6208 0189 F3       		.byte	0xf3
 6209 018a 01       		.uleb128 0x1
 6210 018b 51       		.byte	0x51
 6211 018c 9F       		.byte	0x9f
 6212 018d 00000000 		.4byte	0
 6213 0191 00000000 		.4byte	0
 6214              	.LLST10:
 6215 0195 00000000 		.4byte	.LVL70
 6216 0199 18000000 		.4byte	.LVL73
 6217 019d 0100     		.2byte	0x1
 6218 019f 52       		.byte	0x52
ARM GAS  C:\Users\RECEPC~1\AppData\Local\Temp\ccohni6j.s 			page 124


 6219 01a0 18000000 		.4byte	.LVL73
 6220 01a4 C4000000 		.4byte	.LFE68
 6221 01a8 0400     		.2byte	0x4
 6222 01aa F3       		.byte	0xf3
 6223 01ab 01       		.uleb128 0x1
 6224 01ac 52       		.byte	0x52
 6225 01ad 9F       		.byte	0x9f
 6226 01ae 00000000 		.4byte	0
 6227 01b2 00000000 		.4byte	0
 6228              	.LLST11:
 6229 01b6 00000000 		.4byte	.LVL70
 6230 01ba 1A000000 		.4byte	.LVL74
 6231 01be 0100     		.2byte	0x1
 6232 01c0 53       		.byte	0x53
 6233 01c1 1A000000 		.4byte	.LVL74
 6234 01c5 C4000000 		.4byte	.LFE68
 6235 01c9 0400     		.2byte	0x4
 6236 01cb F3       		.byte	0xf3
 6237 01cc 01       		.uleb128 0x1
 6238 01cd 53       		.byte	0x53
 6239 01ce 9F       		.byte	0x9f
 6240 01cf 00000000 		.4byte	0
 6241 01d3 00000000 		.4byte	0
 6242              	.LLST12:
 6243 01d7 00000000 		.4byte	.LVL78
 6244 01db 14000000 		.4byte	.LVL79
 6245 01df 0100     		.2byte	0x1
 6246 01e1 50       		.byte	0x50
 6247 01e2 14000000 		.4byte	.LVL79
 6248 01e6 BC000000 		.4byte	.LFE69
 6249 01ea 0400     		.2byte	0x4
 6250 01ec F3       		.byte	0xf3
 6251 01ed 01       		.uleb128 0x1
 6252 01ee 50       		.byte	0x50
 6253 01ef 9F       		.byte	0x9f
 6254 01f0 00000000 		.4byte	0
 6255 01f4 00000000 		.4byte	0
 6256              	.LLST13:
 6257 01f8 00000000 		.4byte	.LVL78
 6258 01fc 16000000 		.4byte	.LVL80
 6259 0200 0100     		.2byte	0x1
 6260 0202 51       		.byte	0x51
 6261 0203 16000000 		.4byte	.LVL80
 6262 0207 BC000000 		.4byte	.LFE69
 6263 020b 0400     		.2byte	0x4
 6264 020d F3       		.byte	0xf3
 6265 020e 01       		.uleb128 0x1
 6266 020f 51       		.byte	0x51
 6267 0210 9F       		.byte	0x9f
 6268 0211 00000000 		.4byte	0
 6269 0215 00000000 		.4byte	0
 6270              	.LLST14:
 6271 0219 00000000 		.4byte	.LVL78
 6272 021d 18000000 		.4byte	.LVL81
 6273 0221 0100     		.2byte	0x1
 6274 0223 52       		.byte	0x52
 6275 0224 18000000 		.4byte	.LVL81
ARM GAS  C:\Users\RECEPC~1\AppData\Local\Temp\ccohni6j.s 			page 125


 6276 0228 BC000000 		.4byte	.LFE69
 6277 022c 0400     		.2byte	0x4
 6278 022e F3       		.byte	0xf3
 6279 022f 01       		.uleb128 0x1
 6280 0230 52       		.byte	0x52
 6281 0231 9F       		.byte	0x9f
 6282 0232 00000000 		.4byte	0
 6283 0236 00000000 		.4byte	0
 6284              	.LLST15:
 6285 023a 00000000 		.4byte	.LVL78
 6286 023e 1A000000 		.4byte	.LVL82
 6287 0242 0100     		.2byte	0x1
 6288 0244 53       		.byte	0x53
 6289 0245 1A000000 		.4byte	.LVL82
 6290 0249 BC000000 		.4byte	.LFE69
 6291 024d 0400     		.2byte	0x4
 6292 024f F3       		.byte	0xf3
 6293 0250 01       		.uleb128 0x1
 6294 0251 53       		.byte	0x53
 6295 0252 9F       		.byte	0x9f
 6296 0253 00000000 		.4byte	0
 6297 0257 00000000 		.4byte	0
 6298              	.LLST16:
 6299 025b 00000000 		.4byte	.LVL86
 6300 025f 0E000000 		.4byte	.LVL87
 6301 0263 0100     		.2byte	0x1
 6302 0265 50       		.byte	0x50
 6303 0266 0E000000 		.4byte	.LVL87
 6304 026a 0C010000 		.4byte	.LFE70
 6305 026e 0400     		.2byte	0x4
 6306 0270 F3       		.byte	0xf3
 6307 0271 01       		.uleb128 0x1
 6308 0272 50       		.byte	0x50
 6309 0273 9F       		.byte	0x9f
 6310 0274 00000000 		.4byte	0
 6311 0278 00000000 		.4byte	0
 6312              	.LLST17:
 6313 027c 00000000 		.4byte	.LVL90
 6314 0280 0E000000 		.4byte	.LVL91
 6315 0284 0100     		.2byte	0x1
 6316 0286 50       		.byte	0x50
 6317 0287 0E000000 		.4byte	.LVL91
 6318 028b 0C010000 		.4byte	.LFE71
 6319 028f 0400     		.2byte	0x4
 6320 0291 F3       		.byte	0xf3
 6321 0292 01       		.uleb128 0x1
 6322 0293 50       		.byte	0x50
 6323 0294 9F       		.byte	0x9f
 6324 0295 00000000 		.4byte	0
 6325 0299 00000000 		.4byte	0
 6326              	.LLST18:
 6327 029d 00000000 		.4byte	.LVL94
 6328 02a1 0E000000 		.4byte	.LVL95
 6329 02a5 0100     		.2byte	0x1
 6330 02a7 50       		.byte	0x50
 6331 02a8 0E000000 		.4byte	.LVL95
 6332 02ac 0C010000 		.4byte	.LFE72
ARM GAS  C:\Users\RECEPC~1\AppData\Local\Temp\ccohni6j.s 			page 126


 6333 02b0 0400     		.2byte	0x4
 6334 02b2 F3       		.byte	0xf3
 6335 02b3 01       		.uleb128 0x1
 6336 02b4 50       		.byte	0x50
 6337 02b5 9F       		.byte	0x9f
 6338 02b6 00000000 		.4byte	0
 6339 02ba 00000000 		.4byte	0
 6340              	.LLST19:
 6341 02be 00000000 		.4byte	.LVL98
 6342 02c2 0E000000 		.4byte	.LVL99
 6343 02c6 0100     		.2byte	0x1
 6344 02c8 50       		.byte	0x50
 6345 02c9 0E000000 		.4byte	.LVL99
 6346 02cd 0C010000 		.4byte	.LFE73
 6347 02d1 0400     		.2byte	0x4
 6348 02d3 F3       		.byte	0xf3
 6349 02d4 01       		.uleb128 0x1
 6350 02d5 50       		.byte	0x50
 6351 02d6 9F       		.byte	0x9f
 6352 02d7 00000000 		.4byte	0
 6353 02db 00000000 		.4byte	0
 6354              	.LLST20:
 6355 02df 00000000 		.4byte	.LVL102
 6356 02e3 0E000000 		.4byte	.LVL103
 6357 02e7 0100     		.2byte	0x1
 6358 02e9 50       		.byte	0x50
 6359 02ea 0E000000 		.4byte	.LVL103
 6360 02ee 0C010000 		.4byte	.LFE74
 6361 02f2 0400     		.2byte	0x4
 6362 02f4 F3       		.byte	0xf3
 6363 02f5 01       		.uleb128 0x1
 6364 02f6 50       		.byte	0x50
 6365 02f7 9F       		.byte	0x9f
 6366 02f8 00000000 		.4byte	0
 6367 02fc 00000000 		.4byte	0
 6368              	.LLST21:
 6369 0300 00000000 		.4byte	.LVL106
 6370 0304 0E000000 		.4byte	.LVL107
 6371 0308 0100     		.2byte	0x1
 6372 030a 50       		.byte	0x50
 6373 030b 0E000000 		.4byte	.LVL107
 6374 030f 04010000 		.4byte	.LFE75
 6375 0313 0400     		.2byte	0x4
 6376 0315 F3       		.byte	0xf3
 6377 0316 01       		.uleb128 0x1
 6378 0317 50       		.byte	0x50
 6379 0318 9F       		.byte	0x9f
 6380 0319 00000000 		.4byte	0
 6381 031d 00000000 		.4byte	0
 6382              	.LLST22:
 6383 0321 00000000 		.4byte	.LVL110
 6384 0325 0E000000 		.4byte	.LVL111
 6385 0329 0100     		.2byte	0x1
 6386 032b 50       		.byte	0x50
 6387 032c 0E000000 		.4byte	.LVL111
 6388 0330 08010000 		.4byte	.LFE76
 6389 0334 0400     		.2byte	0x4
ARM GAS  C:\Users\RECEPC~1\AppData\Local\Temp\ccohni6j.s 			page 127


 6390 0336 F3       		.byte	0xf3
 6391 0337 01       		.uleb128 0x1
 6392 0338 50       		.byte	0x50
 6393 0339 9F       		.byte	0x9f
 6394 033a 00000000 		.4byte	0
 6395 033e 00000000 		.4byte	0
 6396              	.LLST23:
 6397 0342 00000000 		.4byte	.LVL114
 6398 0346 0C000000 		.4byte	.LVL115
 6399 034a 0100     		.2byte	0x1
 6400 034c 50       		.byte	0x50
 6401 034d 0C000000 		.4byte	.LVL115
 6402 0351 88000000 		.4byte	.LVL134
 6403 0355 0400     		.2byte	0x4
 6404 0357 F3       		.byte	0xf3
 6405 0358 01       		.uleb128 0x1
 6406 0359 50       		.byte	0x50
 6407 035a 9F       		.byte	0x9f
 6408 035b 88000000 		.4byte	.LVL134
 6409 035f 8A000000 		.4byte	.LVL135
 6410 0363 0100     		.2byte	0x1
 6411 0365 50       		.byte	0x50
 6412 0366 8A000000 		.4byte	.LVL135
 6413 036a 06010000 		.4byte	.LFE77
 6414 036e 0400     		.2byte	0x4
 6415 0370 F3       		.byte	0xf3
 6416 0371 01       		.uleb128 0x1
 6417 0372 50       		.byte	0x50
 6418 0373 9F       		.byte	0x9f
 6419 0374 00000000 		.4byte	0
 6420 0378 00000000 		.4byte	0
 6421              	.LLST24:
 6422 037c 00000000 		.4byte	.LVL114
 6423 0380 0F000000 		.4byte	.LVL116-1
 6424 0384 0100     		.2byte	0x1
 6425 0386 51       		.byte	0x51
 6426 0387 0F000000 		.4byte	.LVL116-1
 6427 038b 88000000 		.4byte	.LVL134
 6428 038f 0400     		.2byte	0x4
 6429 0391 F3       		.byte	0xf3
 6430 0392 01       		.uleb128 0x1
 6431 0393 51       		.byte	0x51
 6432 0394 9F       		.byte	0x9f
 6433 0395 88000000 		.4byte	.LVL134
 6434 0399 8D000000 		.4byte	.LVL136-1
 6435 039d 0100     		.2byte	0x1
 6436 039f 51       		.byte	0x51
 6437 03a0 8D000000 		.4byte	.LVL136-1
 6438 03a4 06010000 		.4byte	.LFE77
 6439 03a8 0400     		.2byte	0x4
 6440 03aa F3       		.byte	0xf3
 6441 03ab 01       		.uleb128 0x1
 6442 03ac 51       		.byte	0x51
 6443 03ad 9F       		.byte	0x9f
 6444 03ae 00000000 		.4byte	0
 6445 03b2 00000000 		.4byte	0
 6446              	.LLST25:
ARM GAS  C:\Users\RECEPC~1\AppData\Local\Temp\ccohni6j.s 			page 128


 6447 03b6 00000000 		.4byte	.LVL114
 6448 03ba 0F000000 		.4byte	.LVL116-1
 6449 03be 0100     		.2byte	0x1
 6450 03c0 52       		.byte	0x52
 6451 03c1 0F000000 		.4byte	.LVL116-1
 6452 03c5 88000000 		.4byte	.LVL134
 6453 03c9 0400     		.2byte	0x4
 6454 03cb F3       		.byte	0xf3
 6455 03cc 01       		.uleb128 0x1
 6456 03cd 52       		.byte	0x52
 6457 03ce 9F       		.byte	0x9f
 6458 03cf 88000000 		.4byte	.LVL134
 6459 03d3 8D000000 		.4byte	.LVL136-1
 6460 03d7 0100     		.2byte	0x1
 6461 03d9 52       		.byte	0x52
 6462 03da 8D000000 		.4byte	.LVL136-1
 6463 03de 06010000 		.4byte	.LFE77
 6464 03e2 0400     		.2byte	0x4
 6465 03e4 F3       		.byte	0xf3
 6466 03e5 01       		.uleb128 0x1
 6467 03e6 52       		.byte	0x52
 6468 03e7 9F       		.byte	0x9f
 6469 03e8 00000000 		.4byte	0
 6470 03ec 00000000 		.4byte	0
 6471              		.section	.debug_aranges,"",%progbits
 6472 0000 8C000000 		.4byte	0x8c
 6473 0004 0200     		.2byte	0x2
 6474 0006 00000000 		.4byte	.Ldebug_info0
 6475 000a 04       		.byte	0x4
 6476 000b 00       		.byte	0
 6477 000c 0000     		.2byte	0
 6478 000e 0000     		.2byte	0
 6479 0010 00000000 		.4byte	.LFB63
 6480 0014 70000000 		.4byte	.LFE63-.LFB63
 6481 0018 00000000 		.4byte	.LFB64
 6482 001c FE000000 		.4byte	.LFE64-.LFB64
 6483 0020 00000000 		.4byte	.LFB65
 6484 0024 BC000000 		.4byte	.LFE65-.LFB65
 6485 0028 00000000 		.4byte	.LFB66
 6486 002c C8000000 		.4byte	.LFE66-.LFB66
 6487 0030 00000000 		.4byte	.LFB67
 6488 0034 04010000 		.4byte	.LFE67-.LFB67
 6489 0038 00000000 		.4byte	.LFB68
 6490 003c C4000000 		.4byte	.LFE68-.LFB68
 6491 0040 00000000 		.4byte	.LFB69
 6492 0044 BC000000 		.4byte	.LFE69-.LFB69
 6493 0048 00000000 		.4byte	.LFB70
 6494 004c 0C010000 		.4byte	.LFE70-.LFB70
 6495 0050 00000000 		.4byte	.LFB71
 6496 0054 0C010000 		.4byte	.LFE71-.LFB71
 6497 0058 00000000 		.4byte	.LFB72
 6498 005c 0C010000 		.4byte	.LFE72-.LFB72
 6499 0060 00000000 		.4byte	.LFB73
 6500 0064 0C010000 		.4byte	.LFE73-.LFB73
 6501 0068 00000000 		.4byte	.LFB74
 6502 006c 0C010000 		.4byte	.LFE74-.LFB74
 6503 0070 00000000 		.4byte	.LFB75
ARM GAS  C:\Users\RECEPC~1\AppData\Local\Temp\ccohni6j.s 			page 129


 6504 0074 04010000 		.4byte	.LFE75-.LFB75
 6505 0078 00000000 		.4byte	.LFB76
 6506 007c 08010000 		.4byte	.LFE76-.LFB76
 6507 0080 00000000 		.4byte	.LFB77
 6508 0084 06010000 		.4byte	.LFE77-.LFB77
 6509 0088 00000000 		.4byte	0
 6510 008c 00000000 		.4byte	0
 6511              		.section	.debug_ranges,"",%progbits
 6512              	.Ldebug_ranges0:
 6513 0000 00000000 		.4byte	.LFB63
 6514 0004 70000000 		.4byte	.LFE63
 6515 0008 00000000 		.4byte	.LFB64
 6516 000c FE000000 		.4byte	.LFE64
 6517 0010 00000000 		.4byte	.LFB65
 6518 0014 BC000000 		.4byte	.LFE65
 6519 0018 00000000 		.4byte	.LFB66
 6520 001c C8000000 		.4byte	.LFE66
 6521 0020 00000000 		.4byte	.LFB67
 6522 0024 04010000 		.4byte	.LFE67
 6523 0028 00000000 		.4byte	.LFB68
 6524 002c C4000000 		.4byte	.LFE68
 6525 0030 00000000 		.4byte	.LFB69
 6526 0034 BC000000 		.4byte	.LFE69
 6527 0038 00000000 		.4byte	.LFB70
 6528 003c 0C010000 		.4byte	.LFE70
 6529 0040 00000000 		.4byte	.LFB71
 6530 0044 0C010000 		.4byte	.LFE71
 6531 0048 00000000 		.4byte	.LFB72
 6532 004c 0C010000 		.4byte	.LFE72
 6533 0050 00000000 		.4byte	.LFB73
 6534 0054 0C010000 		.4byte	.LFE73
 6535 0058 00000000 		.4byte	.LFB74
 6536 005c 0C010000 		.4byte	.LFE74
 6537 0060 00000000 		.4byte	.LFB75
 6538 0064 04010000 		.4byte	.LFE75
 6539 0068 00000000 		.4byte	.LFB76
 6540 006c 08010000 		.4byte	.LFE76
 6541 0070 00000000 		.4byte	.LFB77
 6542 0074 06010000 		.4byte	.LFE77
 6543 0078 00000000 		.4byte	0
 6544 007c 00000000 		.4byte	0
 6545              		.section	.debug_line,"",%progbits
 6546              	.Ldebug_line0:
 6547 0000 77060000 		.section	.debug_str,"MS",%progbits,1
 6547      02007B01 
 6547      00000201 
 6547      FB0E0D00 
 6547      01010101 
 6548              	.LASF57:
 6549 0000 64697265 		.ascii	"direccion_LCD\000"
 6549      6363696F 
 6549      6E5F4C43 
 6549      4400
 6550              	.LASF26:
 6551 000e 70617373 		.ascii	"password\000"
 6551      776F7264 
 6551      00
ARM GAS  C:\Users\RECEPC~1\AppData\Local\Temp\ccohni6j.s 			page 130


 6552              	.LASF67:
 6553 0017 666C756A 		.ascii	"flujo_LCD2\000"
 6553      6F5F4C43 
 6553      443200
 6554              	.LASF31:
 6555 0022 66756E63 		.ascii	"funcion\000"
 6555      696F6E00 
 6556              	.LASF69:
 6557 002a 666C756A 		.ascii	"flujo_LCD4\000"
 6557      6F5F4C43 
 6557      443400
 6558              	.LASF75:
 6559 0035 76657273 		.ascii	"versurt\000"
 6559      75727400 
 6560              	.LASF160:
 6561 003d 2E5C4C43 		.ascii	".\\LCD.c\000"
 6561      442E6300 
 6562              	.LASF28:
 6563 0045 62756666 		.ascii	"buffer\000"
 6563      657200
 6564              	.LASF8:
 6565 004c 756E7369 		.ascii	"unsigned int\000"
 6565      676E6564 
 6565      20696E74 
 6565      00
 6566              	.LASF111:
 6567 0059 636F7069 		.ascii	"copia_recibo2\000"
 6567      615F7265 
 6567      6369626F 
 6567      3200
 6568              	.LASF9:
 6569 0067 5F5F696E 		.ascii	"__int32_t\000"
 6569      7433325F 
 6569      7400
 6570              	.LASF56:
 6571 0071 47726164 		.ascii	"Grado_LCD\000"
 6571      6F5F4C43 
 6571      4400
 6572              	.LASF24:
 6573 007b 706F7376 		.ascii	"posventa\000"
 6573      656E7461 
 6573      00
 6574              	.LASF53:
 6575 0084 4E6F6D62 		.ascii	"Nombre_LCD\000"
 6575      72655F4C 
 6575      434400
 6576              	.LASF99:
 6577 008f 7465636C 		.ascii	"teclado2\000"
 6577      61646F32 
 6577      00
 6578              	.LASF151:
 6579 0098 67726164 		.ascii	"grado2\000"
 6579      6F3200
 6580              	.LASF152:
 6581 009f 67726164 		.ascii	"grado3\000"
 6581      6F3300
 6582              	.LASF153:
ARM GAS  C:\Users\RECEPC~1\AppData\Local\Temp\ccohni6j.s 			page 131


 6583 00a6 67726164 		.ascii	"grado4\000"
 6583      6F3400
 6584              	.LASF59:
 6585 00ad 6C656D61 		.ascii	"lema2_LCD\000"
 6585      325F4C43 
 6585      4400
 6586              	.LASF51:
 6587 00b7 486F7261 		.ascii	"Hora_LCD\000"
 6587      5F4C4344 
 6587      00
 6588              	.LASF80:
 6589 00c0 70726F64 		.ascii	"producto1b\000"
 6589      7563746F 
 6589      316200
 6590              	.LASF84:
 6591 00cb 70726F64 		.ascii	"producto1c\000"
 6591      7563746F 
 6591      316300
 6592              	.LASF88:
 6593 00d6 70726F64 		.ascii	"producto1d\000"
 6593      7563746F 
 6593      316400
 6594              	.LASF150:
 6595 00e1 67726164 		.ascii	"grado1\000"
 6595      6F3100
 6596              	.LASF114:
 6597 00e8 70726F64 		.ascii	"producto1n\000"
 6597      7563746F 
 6597      316E00
 6598              	.LASF60:
 6599 00f3 74656C65 		.ascii	"telefono_LCD\000"
 6599      666F6E6F 
 6599      5F4C4344 
 6599      00
 6600              	.LASF19:
 6601 0100 636F6D61 		.ascii	"comando\000"
 6601      6E646F00 
 6602              	.LASF129:
 6603 0108 65737461 		.ascii	"estado_lcd1\000"
 6603      646F5F6C 
 6603      63643100 
 6604              	.LASF130:
 6605 0114 65737461 		.ascii	"estado_lcd2\000"
 6605      646F5F6C 
 6605      63643200 
 6606              	.LASF41:
 6607 0120 686F7261 		.ascii	"hora\000"
 6607      00
 6608              	.LASF54:
 6609 0125 50726563 		.ascii	"Precio_LCD\000"
 6609      696F5F4C 
 6609      434400
 6610              	.LASF72:
 6611 0130 7465636C 		.ascii	"teclas2\000"
 6611      61733200 
 6612              	.LASF161:
 6613 0138 433A5C55 		.ascii	"C:\\Users\\Recepcion\\Documents\\Prime GRP700\\Work"
ARM GAS  C:\Users\RECEPC~1\AppData\Local\Temp\ccohni6j.s 			page 132


 6613      73657273 
 6613      5C526563 
 6613      65706369 
 6613      6F6E5C44 
 6614 0166 73706163 		.ascii	"space01\\PGRP700.cydsn\000"
 6614      6530315C 
 6614      50475250 
 6614      3730302E 
 6614      63796473 
 6615              	.LASF47:
 6616 017c 7464696E 		.ascii	"tdinero\000"
 6616      65726F00 
 6617              	.LASF42:
 6618 0184 706F7369 		.ascii	"posicion\000"
 6618      63696F6E 
 6618      00
 6619              	.LASF155:
 6620 018d 7276656E 		.ascii	"rventa2\000"
 6620      74613200 
 6621              	.LASF104:
 6622 0195 64656369 		.ascii	"decimalD\000"
 6622      6D616C44 
 6622      00
 6623              	.LASF37:
 6624 019e 64697265 		.ascii	"direccion\000"
 6624      6363696F 
 6624      6E00
 6625              	.LASF81:
 6626 01a8 70726F64 		.ascii	"producto2b\000"
 6626      7563746F 
 6626      326200
 6627              	.LASF85:
 6628 01b3 70726F64 		.ascii	"producto2c\000"
 6628      7563746F 
 6628      326300
 6629              	.LASF89:
 6630 01be 70726F64 		.ascii	"producto2d\000"
 6630      7563746F 
 6630      326400
 6631              	.LASF68:
 6632 01c9 666C756A 		.ascii	"flujo_LCD3\000"
 6632      6F5F4C43 
 6632      443300
 6633              	.LASF20:
 6634 01d4 70726573 		.ascii	"preset\000"
 6634      657400
 6635              	.LASF115:
 6636 01db 70726F64 		.ascii	"producto2n\000"
 6636      7563746F 
 6636      326E00
 6637              	.LASF117:
 6638 01e6 70726F64 		.ascii	"producto4n\000"
 6638      7563746F 
 6638      346E00
 6639              	.LASF14:
 6640 01f1 666C6F61 		.ascii	"float\000"
 6640      7400
ARM GAS  C:\Users\RECEPC~1\AppData\Local\Temp\ccohni6j.s 			page 133


 6641              	.LASF92:
 6642 01f7 62756666 		.ascii	"buffer_i2c\000"
 6642      65725F69 
 6642      326300
 6643              	.LASF38:
 6644 0202 6C656D61 		.ascii	"lema1\000"
 6644      3100
 6645              	.LASF39:
 6646 0208 6C656D61 		.ascii	"lema2\000"
 6646      3200
 6647              	.LASF135:
 6648 020e 76656E74 		.ascii	"venta_activa2\000"
 6648      615F6163 
 6648      74697661 
 6648      3200
 6649              	.LASF134:
 6650 021c 76656E74 		.ascii	"venta_activa3\000"
 6650      615F6163 
 6650      74697661 
 6650      3300
 6651              	.LASF136:
 6652 022a 76656E74 		.ascii	"venta_activa4\000"
 6652      615F6163 
 6652      74697661 
 6652      3400
 6653              	.LASF7:
 6654 0238 6C6F6E67 		.ascii	"long long unsigned int\000"
 6654      206C6F6E 
 6654      6720756E 
 6654      7369676E 
 6654      65642069 
 6655              	.LASF156:
 6656 024f 4C43445F 		.ascii	"LCD_1_PutChar\000"
 6656      315F5075 
 6656      74436861 
 6656      7200
 6657              	.LASF98:
 6658 025d 7465636C 		.ascii	"teclado\000"
 6658      61646F00 
 6659              	.LASF22:
 6660 0265 6375656E 		.ascii	"cuenta\000"
 6660      746100
 6661              	.LASF82:
 6662 026c 70726F64 		.ascii	"producto3b\000"
 6662      7563746F 
 6662      336200
 6663              	.LASF86:
 6664 0277 70726F64 		.ascii	"producto3c\000"
 6664      7563746F 
 6664      336300
 6665              	.LASF90:
 6666 0282 70726F64 		.ascii	"producto3d\000"
 6666      7563746F 
 6666      336400
 6667              	.LASF133:
 6668 028d 76656E74 		.ascii	"venta_activa\000"
 6668      615F6163 
ARM GAS  C:\Users\RECEPC~1\AppData\Local\Temp\ccohni6j.s 			page 134


 6668      74697661 
 6668      00
 6669              	.LASF131:
 6670 029a 73656C65 		.ascii	"seleccion_pos\000"
 6670      6363696F 
 6670      6E5F706F 
 6670      7300
 6671              	.LASF116:
 6672 02a8 70726F64 		.ascii	"producto3n\000"
 6672      7563746F 
 6672      336E00
 6673              	.LASF23:
 6674 02b3 706C6163 		.ascii	"placa\000"
 6674      6100
 6675              	.LASF132:
 6676 02b9 73656C65 		.ascii	"seleccion_pos2\000"
 6676      6363696F 
 6676      6E5F706F 
 6676      733200
 6677              	.LASF119:
 6678 02c8 6E5F636F 		.ascii	"n_copias\000"
 6678      70696173 
 6678      00
 6679              	.LASF126:
 6680 02d1 666C756A 		.ascii	"flujo_pos2\000"
 6680      6F5F706F 
 6680      733200
 6681              	.LASF127:
 6682 02dc 666C756A 		.ascii	"flujo_pos3\000"
 6682      6F5F706F 
 6682      733300
 6683              	.LASF128:
 6684 02e7 666C756A 		.ascii	"flujo_pos4\000"
 6684      6F5F706F 
 6684      733400
 6685              	.LASF45:
 6686 02f2 766F6C75 		.ascii	"volumen\000"
 6686      6D656E00 
 6687              	.LASF93:
 6688 02fa 62756666 		.ascii	"buffer_pos1\000"
 6688      65725F70 
 6688      6F733100 
 6689              	.LASF36:
 6690 0306 74656C65 		.ascii	"telefono\000"
 6690      666F6E6F 
 6690      00
 6691              	.LASF95:
 6692 030f 62756666 		.ascii	"buffer_pos3\000"
 6692      65725F70 
 6692      6F733300 
 6693              	.LASF96:
 6694 031b 62756666 		.ascii	"buffer_pos4\000"
 6694      65725F70 
 6694      6F733400 
 6695              	.LASF83:
 6696 0327 70726F64 		.ascii	"producto4b\000"
 6696      7563746F 
ARM GAS  C:\Users\RECEPC~1\AppData\Local\Temp\ccohni6j.s 			page 135


 6696      346200
 6697              	.LASF87:
 6698 0332 70726F64 		.ascii	"producto4c\000"
 6698      7563746F 
 6698      346300
 6699              	.LASF91:
 6700 033d 70726F64 		.ascii	"producto4d\000"
 6700      7563746F 
 6700      346400
 6701              	.LASF112:
 6702 0348 69645F76 		.ascii	"id_venta\000"
 6702      656E7461 
 6702      00
 6703              	.LASF46:
 6704 0351 74766F6C 		.ascii	"tvolumen\000"
 6704      756D656E 
 6704      00
 6705              	.LASF61:
 6706 035a 6E69745F 		.ascii	"nit_LCD\000"
 6706      4C434400 
 6707              	.LASF105:
 6708 0362 66656368 		.ascii	"fecha_corte\000"
 6708      615F636F 
 6708      72746500 
 6709              	.LASF16:
 6710 036e 63686172 		.ascii	"char\000"
 6710      00
 6711              	.LASF125:
 6712 0373 666C756A 		.ascii	"flujo_pos\000"
 6712      6F5F706F 
 6712      7300
 6713              	.LASF12:
 6714 037d 75696E74 		.ascii	"uint16\000"
 6714      313600
 6715              	.LASF149:
 6716 0384 6D6F6475 		.ascii	"modulo\000"
 6716      6C6F00
 6717              	.LASF108:
 6718 038b 7072696E 		.ascii	"print1\000"
 6718      743100
 6719              	.LASF109:
 6720 0392 7072696E 		.ascii	"print2\000"
 6720      743200
 6721              	.LASF50:
 6722 0399 6461746F 		.ascii	"dato\000"
 6722      00
 6723              	.LASF27:
 6724 039e 7475726E 		.ascii	"turno\000"
 6724      6F00
 6725              	.LASF32:
 6726 03a4 746F7461 		.ascii	"totales\000"
 6726      6C657300 
 6727              	.LASF145:
 6728 03ac 42756666 		.ascii	"Buffer_LCD2\000"
 6728      65725F4C 
 6728      43443200 
 6729              	.LASF6:
ARM GAS  C:\Users\RECEPC~1\AppData\Local\Temp\ccohni6j.s 			page 136


 6730 03b8 6C6F6E67 		.ascii	"long long int\000"
 6730      206C6F6E 
 6730      6720696E 
 6730      7400
 6731              	.LASF43:
 6732 03c6 70726F64 		.ascii	"producto\000"
 6732      7563746F 
 6732      00
 6733              	.LASF35:
 6734 03cf 636F6E66 		.ascii	"configppu\000"
 6734      69677070 
 6734      7500
 6735              	.LASF25:
 6736 03d9 63656475 		.ascii	"cedula\000"
 6736      6C6100
 6737              	.LASF157:
 6738 03e0 4C43445F 		.ascii	"LCD_2_PutChar\000"
 6738      325F5075 
 6738      74436861 
 6738      7200
 6739              	.LASF94:
 6740 03ee 62756666 		.ascii	"buffer_pos2\000"
 6740      65725F70 
 6740      6F733200 
 6741              	.LASF62:
 6742 03fa 4375656E 		.ascii	"Cuenta_LCD\000"
 6742      74615F4C 
 6742      434400
 6743              	.LASF113:
 6744 0405 6E6F6D62 		.ascii	"nombreproducto\000"
 6744      72657072 
 6744      6F647563 
 6744      746F00
 6745              	.LASF18:
 6746 0414 73697A65 		.ascii	"size\000"
 6746      00
 6747              	.LASF49:
 6748 0419 77726974 		.ascii	"write_LCD\000"
 6748      655F4C43 
 6748      4400
 6749              	.LASF13:
 6750 0423 75696E74 		.ascii	"uint32\000"
 6750      333200
 6751              	.LASF137:
 6752 042a 69645F63 		.ascii	"id_corte\000"
 6752      6F727465 
 6752      00
 6753              	.LASF143:
 6754 0433 6E6F5F76 		.ascii	"no_venta\000"
 6754      656E7461 
 6754      00
 6755              	.LASF33:
 6756 043c 72656369 		.ascii	"recibo\000"
 6756      626F00
 6757              	.LASF44:
 6758 0443 64696E65 		.ascii	"dinero\000"
 6758      726F00
ARM GAS  C:\Users\RECEPC~1\AppData\Local\Temp\ccohni6j.s 			page 137


 6759              	.LASF144:
 6760 044a 42756666 		.ascii	"Buffer_LCD1\000"
 6760      65725F4C 
 6760      43443100 
 6761              	.LASF29:
 6762 0456 65737461 		.ascii	"estado\000"
 6762      646F00
 6763              	.LASF146:
 6764 045d 42756666 		.ascii	"Buffer_LCD3\000"
 6764      65725F4C 
 6764      43443300 
 6765              	.LASF147:
 6766 0469 42756666 		.ascii	"Buffer_LCD4\000"
 6766      65725F4C 
 6766      43443400 
 6767              	.LASF158:
 6768 0475 6C656572 		.ascii	"leer_eeprom\000"
 6768      5F656570 
 6768      726F6D00 
 6769              	.LASF52:
 6770 0481 46656368 		.ascii	"Fecha_LCD\000"
 6770      615F4C43 
 6770      4400
 6771              	.LASF124:
 6772 048b 696D6167 		.ascii	"imagen\000"
 6772      656E00
 6773              	.LASF58:
 6774 0492 6C656D61 		.ascii	"lema1_LCD\000"
 6774      315F4C43 
 6774      4400
 6775              	.LASF55:
 6776 049c 65657072 		.ascii	"eeprom\000"
 6776      6F6D00
 6777              	.LASF100:
 6778 04a3 70707578 		.ascii	"ppux10\000"
 6778      313000
 6779              	.LASF71:
 6780 04aa 7465636C 		.ascii	"teclas1\000"
 6780      61733100 
 6781              	.LASF34:
 6782 04b2 6E6F6D62 		.ascii	"nombre\000"
 6782      726500
 6783              	.LASF107:
 6784 04b9 6372635F 		.ascii	"crc_total\000"
 6784      746F7461 
 6784      6C00
 6785              	.LASF66:
 6786 04c3 666C756A 		.ascii	"flujo_LCD\000"
 6786      6F5F4C43 
 6786      4400
 6787              	.LASF118:
 6788 04cd 615F636F 		.ascii	"a_copias\000"
 6788      70696173 
 6788      00
 6789              	.LASF106:
 6790 04d6 706F735F 		.ascii	"pos_ibutton\000"
 6790      69627574 
ARM GAS  C:\Users\RECEPC~1\AppData\Local\Temp\ccohni6j.s 			page 138


 6790      746F6E00 
 6791              	.LASF2:
 6792 04e2 73686F72 		.ascii	"short int\000"
 6792      7420696E 
 6792      7400
 6793              	.LASF4:
 6794 04ec 6C6F6E67 		.ascii	"long int\000"
 6794      20696E74 
 6794      00
 6795              	.LASF110:
 6796 04f5 636F7069 		.ascii	"copia_recibo\000"
 6796      615F7265 
 6796      6369626F 
 6796      00
 6797              	.LASF65:
 6798 0502 49544D5F 		.ascii	"ITM_RxBuffer\000"
 6798      52784275 
 6798      66666572 
 6798      00
 6799              	.LASF73:
 6800 050f 636F6D61 		.ascii	"comas1\000"
 6800      733100
 6801              	.LASF74:
 6802 0516 636F6D61 		.ascii	"comas2\000"
 6802      733200
 6803              	.LASF48:
 6804 051d 7365745F 		.ascii	"set_imagen\000"
 6804      696D6167 
 6804      656E00
 6805              	.LASF76:
 6806 0528 70726F64 		.ascii	"producto1\000"
 6806      7563746F 
 6806      3100
 6807              	.LASF77:
 6808 0532 70726F64 		.ascii	"producto2\000"
 6808      7563746F 
 6808      3200
 6809              	.LASF78:
 6810 053c 70726F64 		.ascii	"producto3\000"
 6810      7563746F 
 6810      3300
 6811              	.LASF79:
 6812 0546 70726F64 		.ascii	"producto4\000"
 6812      7563746F 
 6812      3400
 6813              	.LASF148:
 6814 0550 65737461 		.ascii	"estado_0\000"
 6814      646F5F30 
 6814      00
 6815              	.LASF139:
 6816 0559 6E6F5F76 		.ascii	"no_ventacopia1\000"
 6816      656E7461 
 6816      636F7069 
 6816      613100
 6817              	.LASF140:
 6818 0568 6E6F5F76 		.ascii	"no_ventacopia2\000"
 6818      656E7461 
ARM GAS  C:\Users\RECEPC~1\AppData\Local\Temp\ccohni6j.s 			page 139


 6818      636F7069 
 6818      613200
 6819              	.LASF141:
 6820 0577 6E6F5F76 		.ascii	"no_ventacopia3\000"
 6820      656E7461 
 6820      636F7069 
 6820      613300
 6821              	.LASF142:
 6822 0586 6E6F5F76 		.ascii	"no_ventacopia4\000"
 6822      656E7461 
 6822      636F7069 
 6822      613400
 6823              	.LASF138:
 6824 0595 706C6163 		.ascii	"placa_aux\000"
 6824      615F6175 
 6824      7800
 6825              	.LASF70:
 6826 059f 636F6E74 		.ascii	"cont1\000"
 6826      3100
 6827              	.LASF17:
 6828 05a5 73697A65 		.ascii	"sizetype\000"
 6828      74797065 
 6828      00
 6829              	.LASF5:
 6830 05ae 6C6F6E67 		.ascii	"long unsigned int\000"
 6830      20756E73 
 6830      69676E65 
 6830      6420696E 
 6830      7400
 6831              	.LASF101:
 6832 05c0 62616E64 		.ascii	"bandera\000"
 6832      65726100 
 6833              	.LASF10:
 6834 05c8 696E7433 		.ascii	"int32_t\000"
 6834      325F7400 
 6835              	.LASF121:
 6836 05d0 6E6F5F69 		.ascii	"no_imprime2\000"
 6836      6D707269 
 6836      6D653200 
 6837              	.LASF120:
 6838 05dc 6E6F5F69 		.ascii	"no_imprime\000"
 6838      6D707269 
 6838      6D6500
 6839              	.LASF123:
 6840 05e7 6E6F5F69 		.ascii	"no_imprime4\000"
 6840      6D707269 
 6840      6D653400 
 6841              	.LASF1:
 6842 05f3 756E7369 		.ascii	"unsigned char\000"
 6842      676E6564 
 6842      20636861 
 6842      7200
 6843              	.LASF159:
 6844 0601 474E5520 		.ascii	"GNU C 4.9.3 20150303 (release) [ARM/embedded-4_9-br"
 6844      4320342E 
 6844      392E3320 
 6844      32303135 
ARM GAS  C:\Users\RECEPC~1\AppData\Local\Temp\ccohni6j.s 			page 140


 6844      30333033 
 6845 0634 616E6368 		.ascii	"anch revision 221220] -mcpu=cortex-m3 -mthumb -g -O"
 6845      20726576 
 6845      6973696F 
 6845      6E203232 
 6845      31323230 
 6846 0667 67202D66 		.ascii	"g -ffunction-sections -ffat-lto-objects\000"
 6846      66756E63 
 6846      74696F6E 
 6846      2D736563 
 6846      74696F6E 
 6847              	.LASF97:
 6848 068f 72657375 		.ascii	"resultado\000"
 6848      6C746164 
 6848      6F00
 6849              	.LASF40:
 6850 0699 66656368 		.ascii	"fecha\000"
 6850      6100
 6851              	.LASF63:
 6852 069f 506C6163 		.ascii	"Placa_LCD\000"
 6852      615F4C43 
 6852      4400
 6853              	.LASF0:
 6854 06a9 7369676E 		.ascii	"signed char\000"
 6854      65642063 
 6854      68617200 
 6855              	.LASF21:
 6856 06b5 76616C6F 		.ascii	"valor\000"
 6856      7200
 6857              	.LASF3:
 6858 06bb 73686F72 		.ascii	"short unsigned int\000"
 6858      7420756E 
 6858      7369676E 
 6858      65642069 
 6858      6E7400
 6859              	.LASF64:
 6860 06ce 77726974 		.ascii	"writemini_LCD\000"
 6860      656D696E 
 6860      695F4C43 
 6860      4400
 6861              	.LASF103:
 6862 06dc 64656369 		.ascii	"decimalV\000"
 6862      6D616C56 
 6862      00
 6863              	.LASF11:
 6864 06e5 75696E74 		.ascii	"uint8\000"
 6864      3800
 6865              	.LASF15:
 6866 06eb 646F7562 		.ascii	"double\000"
 6866      6C6500
 6867              	.LASF102:
 6868 06f2 7469706F 		.ascii	"tipo_imp\000"
 6868      5F696D70 
 6868      00
 6869              	.LASF122:
 6870 06fb 6E6F5F69 		.ascii	"no_imprime3\000"
 6870      6D707269 
ARM GAS  C:\Users\RECEPC~1\AppData\Local\Temp\ccohni6j.s 			page 141


 6870      6D653300 
 6871              	.LASF30:
 6872 0707 6D616E67 		.ascii	"manguera\000"
 6872      75657261 
 6872      00
 6873              	.LASF154:
 6874 0710 7276656E 		.ascii	"rventa\000"
 6874      746100
 6875              		.ident	"GCC: (GNU Tools for ARM Embedded Processors) 4.9.3 20150303 (release) [ARM/embedded-4_9-br
