ARM GAS  C:\Users\diego\AppData\Local\Temp\ccI2l3me.s 			page 1


   1              		.syntax unified
   2              		.cpu cortex-m3
   3              		.fpu softvfp
   4              		.eabi_attribute 20, 1
   5              		.eabi_attribute 21, 1
   6              		.eabi_attribute 23, 3
   7              		.eabi_attribute 24, 1
   8              		.eabi_attribute 25, 1
   9              		.eabi_attribute 26, 1
  10              		.eabi_attribute 30, 1
  11              		.eabi_attribute 34, 1
  12              		.eabi_attribute 18, 4
  13              		.thumb
  14              		.file	"LCD.c"
  15              		.text
  16              	.Ltext0:
  17              		.cfi_sections	.debug_frame
  18              		.section	.text.set_imagen,"ax",%progbits
  19              		.align	2
  20              		.global	set_imagen
  21              		.thumb
  22              		.thumb_func
  23              		.type	set_imagen, %function
  24              	set_imagen:
  25              	.LFB63:
  26              		.file 1 ".\\LCD.c"
   1:.\LCD.c       **** /*
   2:.\LCD.c       **** ***************************************************************************************************
   3:.\LCD.c       **** *                                           GRP550M CODE
   4:.\LCD.c       **** *
   5:.\LCD.c       **** *                             (c) Copyright 2013; Sistemas Insepet LTDA
   6:.\LCD.c       **** *
   7:.\LCD.c       **** *               All rights reserved.  Protected by international copyright laws.
   8:.\LCD.c       **** *               Knowledge of the source code may NOT be used to develop a similar product.
   9:.\LCD.c       **** *               Please help us continue to provide the Embedded community with the finest
  10:.\LCD.c       **** *               software available.  Your honesty is greatly appreciated.
  11:.\LCD.c       **** ***************************************************************************************************
  12:.\LCD.c       **** */
  13:.\LCD.c       **** 
  14:.\LCD.c       **** /*
  15:.\LCD.c       **** ***************************************************************************************************
  16:.\LCD.c       **** *
  17:.\LCD.c       **** *                                               GRP550M CODE
  18:.\LCD.c       **** *
  19:.\LCD.c       **** *                                             CYPRESS PSoC5LP
  20:.\LCD.c       **** *                                                with the
  21:.\LCD.c       **** *                                            CY8C5969AXI-LP035
  22:.\LCD.c       **** *
  23:.\LCD.c       **** * Filename      : LCD.c
  24:.\LCD.c       **** * Version       : V1.00
  25:.\LCD.c       **** * Programmer(s) : 
  26:.\LCD.c       ****                   
  27:.\LCD.c       **** ***************************************************************************************************
  28:.\LCD.c       **** */
  29:.\LCD.c       **** 
  30:.\LCD.c       **** /*
  31:.\LCD.c       **** ***************************************************************************************************
ARM GAS  C:\Users\diego\AppData\Local\Temp\ccI2l3me.s 			page 2


  32:.\LCD.c       **** *                                             INCLUDE FILES
  33:.\LCD.c       **** ***************************************************************************************************
  34:.\LCD.c       **** */
  35:.\LCD.c       **** 
  36:.\LCD.c       **** //#include <device.h>
  37:.\LCD.c       **** #include "VariablesG.h"
  38:.\LCD.c       **** #include "I2C.h"
  39:.\LCD.c       **** 
  40:.\LCD.c       **** /*
  41:.\LCD.c       **** ***************************************************************************************************
  42:.\LCD.c       **** *                                        void set_imagen(uint8 lcd, uint16 id)
  43:.\LCD.c       **** *
  44:.\LCD.c       **** * Description : 
  45:.\LCD.c       **** *               
  46:.\LCD.c       **** *
  47:.\LCD.c       **** * Argument(s) : none
  48:.\LCD.c       **** *
  49:.\LCD.c       **** * Return(s)   : none
  50:.\LCD.c       **** *
  51:.\LCD.c       **** * Caller(s)   : 
  52:.\LCD.c       **** *
  53:.\LCD.c       **** * Note(s)     : none.
  54:.\LCD.c       **** ***************************************************************************************************
  55:.\LCD.c       **** */
  56:.\LCD.c       **** void set_imagen(uint8 lcd, uint16 id){
  27              		.loc 1 56 0
  28              		.cfi_startproc
  29              		@ args = 0, pretend = 0, frame = 0
  30              		@ frame_needed = 0, uses_anonymous_args = 0
  31              	.LVL0:
  32 0000 38B5     		push	{r3, r4, r5, lr}
  33              		.cfi_def_cfa_offset 16
  34              		.cfi_offset 3, -16
  35              		.cfi_offset 4, -12
  36              		.cfi_offset 5, -8
  37              		.cfi_offset 14, -4
  38 0002 0446     		mov	r4, r0
  39 0004 0D46     		mov	r5, r1
  57:.\LCD.c       ****     if(lcd == 1){
  40              		.loc 1 57 0
  41 0006 0128     		cmp	r0, #1
  42 0008 17D1     		bne	.L2
  58:.\LCD.c       ****         LCD_1_PutChar(0xAA);
  43              		.loc 1 58 0
  44 000a AA20     		movs	r0, #170
  45              	.LVL1:
  46 000c FFF7FEFF 		bl	LCD_1_PutChar
  47              	.LVL2:
  59:.\LCD.c       ****         LCD_1_PutChar(0x70);
  48              		.loc 1 59 0
  49 0010 7020     		movs	r0, #112
  50 0012 FFF7FEFF 		bl	LCD_1_PutChar
  51              	.LVL3:
  60:.\LCD.c       ****         LCD_1_PutChar(((id>>8)&0xFF));
  52              		.loc 1 60 0
  53 0016 280A     		lsrs	r0, r5, #8
  54 0018 FFF7FEFF 		bl	LCD_1_PutChar
ARM GAS  C:\Users\diego\AppData\Local\Temp\ccI2l3me.s 			page 3


  55              	.LVL4:
  61:.\LCD.c       ****         LCD_1_PutChar((id&0xFF));
  56              		.loc 1 61 0
  57 001c E8B2     		uxtb	r0, r5
  58 001e FFF7FEFF 		bl	LCD_1_PutChar
  59              	.LVL5:
  62:.\LCD.c       ****         LCD_1_PutChar(0xCC);
  60              		.loc 1 62 0
  61 0022 CC20     		movs	r0, #204
  62 0024 FFF7FEFF 		bl	LCD_1_PutChar
  63              	.LVL6:
  63:.\LCD.c       ****         LCD_1_PutChar(0x33);
  64              		.loc 1 63 0
  65 0028 3320     		movs	r0, #51
  66 002a FFF7FEFF 		bl	LCD_1_PutChar
  67              	.LVL7:
  64:.\LCD.c       ****         LCD_1_PutChar(0xC3);
  68              		.loc 1 64 0
  69 002e C320     		movs	r0, #195
  70 0030 FFF7FEFF 		bl	LCD_1_PutChar
  71              	.LVL8:
  65:.\LCD.c       ****         LCD_1_PutChar(0x3C);
  72              		.loc 1 65 0
  73 0034 3C20     		movs	r0, #60
  74 0036 FFF7FEFF 		bl	LCD_1_PutChar
  75              	.LVL9:
  76              	.L2:
  66:.\LCD.c       ****     }
  67:.\LCD.c       ****     if(lcd == 2){
  77              		.loc 1 67 0
  78 003a 022C     		cmp	r4, #2
  79 003c 17D1     		bne	.L1
  68:.\LCD.c       ****        	LCD_2_PutChar(0xAA);
  80              		.loc 1 68 0
  81 003e AA20     		movs	r0, #170
  82 0040 FFF7FEFF 		bl	LCD_2_PutChar
  83              	.LVL10:
  69:.\LCD.c       ****         LCD_2_PutChar(0x70);
  84              		.loc 1 69 0
  85 0044 7020     		movs	r0, #112
  86 0046 FFF7FEFF 		bl	LCD_2_PutChar
  87              	.LVL11:
  70:.\LCD.c       ****         LCD_2_PutChar(((id>>8)&0xFF));
  88              		.loc 1 70 0
  89 004a 280A     		lsrs	r0, r5, #8
  90 004c FFF7FEFF 		bl	LCD_2_PutChar
  91              	.LVL12:
  71:.\LCD.c       ****         LCD_2_PutChar((id&0xFF));
  92              		.loc 1 71 0
  93 0050 E8B2     		uxtb	r0, r5
  94 0052 FFF7FEFF 		bl	LCD_2_PutChar
  95              	.LVL13:
  72:.\LCD.c       ****         LCD_2_PutChar(0xCC);
  96              		.loc 1 72 0
  97 0056 CC20     		movs	r0, #204
  98 0058 FFF7FEFF 		bl	LCD_2_PutChar
  99              	.LVL14:
ARM GAS  C:\Users\diego\AppData\Local\Temp\ccI2l3me.s 			page 4


  73:.\LCD.c       ****         LCD_2_PutChar(0x33);
 100              		.loc 1 73 0
 101 005c 3320     		movs	r0, #51
 102 005e FFF7FEFF 		bl	LCD_2_PutChar
 103              	.LVL15:
  74:.\LCD.c       ****         LCD_2_PutChar(0xC3);
 104              		.loc 1 74 0
 105 0062 C320     		movs	r0, #195
 106 0064 FFF7FEFF 		bl	LCD_2_PutChar
 107              	.LVL16:
  75:.\LCD.c       ****         LCD_2_PutChar(0x3C);   		 
 108              		.loc 1 75 0
 109 0068 3C20     		movs	r0, #60
 110 006a FFF7FEFF 		bl	LCD_2_PutChar
 111              	.LVL17:
 112              	.L1:
 113 006e 38BD     		pop	{r3, r4, r5, pc}
 114              		.cfi_endproc
 115              	.LFE63:
 116              		.size	set_imagen, .-set_imagen
 117              		.section	.text.write_LCD,"ax",%progbits
 118              		.align	2
 119              		.global	write_LCD
 120              		.thumb
 121              		.thumb_func
 122              		.type	write_LCD, %function
 123              	write_LCD:
 124              	.LFB64:
  76:.\LCD.c       ****     }
  77:.\LCD.c       **** }
  78:.\LCD.c       **** 
  79:.\LCD.c       **** /*
  80:.\LCD.c       **** ***************************************************************************************************
  81:.\LCD.c       **** *                                 void write_LCD(uint8 lcd, uint8 dato, uint8 pos)
  82:.\LCD.c       **** *
  83:.\LCD.c       **** * Description : 
  84:.\LCD.c       **** *               
  85:.\LCD.c       **** *
  86:.\LCD.c       **** * Argument(s) : none
  87:.\LCD.c       **** *
  88:.\LCD.c       **** * Return(s)   : none
  89:.\LCD.c       **** *
  90:.\LCD.c       **** * Caller(s)   : 
  91:.\LCD.c       **** *
  92:.\LCD.c       **** * Note(s)     : none.
  93:.\LCD.c       **** ***************************************************************************************************
  94:.\LCD.c       **** */
  95:.\LCD.c       **** void write_LCD(uint8 lcd, uint8 dato, uint8 pos){
 125              		.loc 1 95 0
 126              		.cfi_startproc
 127              		@ args = 0, pretend = 0, frame = 0
 128              		@ frame_needed = 0, uses_anonymous_args = 0
 129              	.LVL18:
 130 0000 38B5     		push	{r3, r4, r5, lr}
 131              		.cfi_def_cfa_offset 16
 132              		.cfi_offset 3, -16
 133              		.cfi_offset 4, -12
ARM GAS  C:\Users\diego\AppData\Local\Temp\ccI2l3me.s 			page 5


 134              		.cfi_offset 5, -8
 135              		.cfi_offset 14, -4
 136 0002 0D46     		mov	r5, r1
 137 0004 1446     		mov	r4, r2
  96:.\LCD.c       ****     if(lcd==1){
 138              		.loc 1 96 0
 139 0006 0128     		cmp	r0, #1
 140 0008 3CD1     		bne	.L6
  97:.\LCD.c       ****         LCD_1_PutChar(0xAA);
 141              		.loc 1 97 0
 142 000a AA20     		movs	r0, #170
 143              	.LVL19:
 144 000c FFF7FEFF 		bl	LCD_1_PutChar
 145              	.LVL20:
  98:.\LCD.c       ****         LCD_1_PutChar(0x98);
 146              		.loc 1 98 0
 147 0010 9820     		movs	r0, #152
 148 0012 FFF7FEFF 		bl	LCD_1_PutChar
 149              	.LVL21:
  99:.\LCD.c       ****         LCD_1_PutChar(0x00);
 150              		.loc 1 99 0
 151 0016 0020     		movs	r0, #0
 152 0018 FFF7FEFF 		bl	LCD_1_PutChar
 153              	.LVL22:
 100:.\LCD.c       ****         LCD_1_PutChar((0x3F)+(0x19*pos));
 154              		.loc 1 100 0
 155 001c 04EB8404 		add	r4, r4, r4, lsl #2
 156 0020 04EB8404 		add	r4, r4, r4, lsl #2
 157 0024 04F13F00 		add	r0, r4, #63
 158 0028 C0B2     		uxtb	r0, r0
 159 002a FFF7FEFF 		bl	LCD_1_PutChar
 160              	.LVL23:
 101:.\LCD.c       ****         LCD_1_PutChar(0x00);
 161              		.loc 1 101 0
 162 002e 0020     		movs	r0, #0
 163 0030 FFF7FEFF 		bl	LCD_1_PutChar
 164              	.LVL24:
 102:.\LCD.c       ****         LCD_1_PutChar(0x23);
 165              		.loc 1 102 0
 166 0034 2320     		movs	r0, #35
 167 0036 FFF7FEFF 		bl	LCD_1_PutChar
 168              	.LVL25:
 103:.\LCD.c       ****         LCD_1_PutChar(0x24);
 169              		.loc 1 103 0
 170 003a 2420     		movs	r0, #36
 171 003c FFF7FEFF 		bl	LCD_1_PutChar
 172              	.LVL26:
 104:.\LCD.c       ****         LCD_1_PutChar(0xC5);
 173              		.loc 1 104 0
 174 0040 C520     		movs	r0, #197
 175 0042 FFF7FEFF 		bl	LCD_1_PutChar
 176              	.LVL27:
 105:.\LCD.c       ****         LCD_1_PutChar(0x02);
 177              		.loc 1 105 0
 178 0046 0220     		movs	r0, #2
 179 0048 FFF7FEFF 		bl	LCD_1_PutChar
 180              	.LVL28:
ARM GAS  C:\Users\diego\AppData\Local\Temp\ccI2l3me.s 			page 6


 106:.\LCD.c       ****         LCD_1_PutChar(0x00);
 181              		.loc 1 106 0
 182 004c 0020     		movs	r0, #0
 183 004e FFF7FEFF 		bl	LCD_1_PutChar
 184              	.LVL29:
 107:.\LCD.c       ****         LCD_1_PutChar(0x00);
 185              		.loc 1 107 0
 186 0052 0020     		movs	r0, #0
 187 0054 FFF7FEFF 		bl	LCD_1_PutChar
 188              	.LVL30:
 108:.\LCD.c       ****         LCD_1_PutChar(0xFF);
 189              		.loc 1 108 0
 190 0058 FF20     		movs	r0, #255
 191 005a FFF7FEFF 		bl	LCD_1_PutChar
 192              	.LVL31:
 109:.\LCD.c       ****         LCD_1_PutChar(0xFF);
 193              		.loc 1 109 0
 194 005e FF20     		movs	r0, #255
 195 0060 FFF7FEFF 		bl	LCD_1_PutChar
 196              	.LVL32:
 110:.\LCD.c       ****         LCD_1_PutChar(dato);
 197              		.loc 1 110 0
 198 0064 2846     		mov	r0, r5
 199 0066 FFF7FEFF 		bl	LCD_1_PutChar
 200              	.LVL33:
 111:.\LCD.c       ****         LCD_1_PutChar(0xCC);
 201              		.loc 1 111 0
 202 006a CC20     		movs	r0, #204
 203 006c FFF7FEFF 		bl	LCD_1_PutChar
 204              	.LVL34:
 112:.\LCD.c       ****         LCD_1_PutChar(0x33);
 205              		.loc 1 112 0
 206 0070 3320     		movs	r0, #51
 207 0072 FFF7FEFF 		bl	LCD_1_PutChar
 208              	.LVL35:
 113:.\LCD.c       ****         LCD_1_PutChar(0xC3);
 209              		.loc 1 113 0
 210 0076 C320     		movs	r0, #195
 211 0078 FFF7FEFF 		bl	LCD_1_PutChar
 212              	.LVL36:
 114:.\LCD.c       ****         LCD_1_PutChar(0x3C);
 213              		.loc 1 114 0
 214 007c 3C20     		movs	r0, #60
 215 007e FFF7FEFF 		bl	LCD_1_PutChar
 216              	.LVL37:
 217 0082 38BD     		pop	{r3, r4, r5, pc}
 218              	.LVL38:
 219              	.L6:
 115:.\LCD.c       ****     }
 116:.\LCD.c       ****     else{
 117:.\LCD.c       ****         LCD_2_PutChar(0xAA);
 220              		.loc 1 117 0
 221 0084 AA20     		movs	r0, #170
 222              	.LVL39:
 223 0086 FFF7FEFF 		bl	LCD_2_PutChar
 224              	.LVL40:
 118:.\LCD.c       ****         LCD_2_PutChar(0x98);
ARM GAS  C:\Users\diego\AppData\Local\Temp\ccI2l3me.s 			page 7


 225              		.loc 1 118 0
 226 008a 9820     		movs	r0, #152
 227 008c FFF7FEFF 		bl	LCD_2_PutChar
 228              	.LVL41:
 119:.\LCD.c       ****         LCD_2_PutChar(0x00);
 229              		.loc 1 119 0
 230 0090 0020     		movs	r0, #0
 231 0092 FFF7FEFF 		bl	LCD_2_PutChar
 232              	.LVL42:
 120:.\LCD.c       ****         LCD_2_PutChar((0x3F)+(0x19*pos));
 233              		.loc 1 120 0
 234 0096 04EB8404 		add	r4, r4, r4, lsl #2
 235 009a 04EB8404 		add	r4, r4, r4, lsl #2
 236 009e 04F13F00 		add	r0, r4, #63
 237 00a2 C0B2     		uxtb	r0, r0
 238 00a4 FFF7FEFF 		bl	LCD_2_PutChar
 239              	.LVL43:
 121:.\LCD.c       ****         LCD_2_PutChar(0x00);
 240              		.loc 1 121 0
 241 00a8 0020     		movs	r0, #0
 242 00aa FFF7FEFF 		bl	LCD_2_PutChar
 243              	.LVL44:
 122:.\LCD.c       ****         LCD_2_PutChar(0x23);
 244              		.loc 1 122 0
 245 00ae 2320     		movs	r0, #35
 246 00b0 FFF7FEFF 		bl	LCD_2_PutChar
 247              	.LVL45:
 123:.\LCD.c       ****         LCD_2_PutChar(0x24);
 248              		.loc 1 123 0
 249 00b4 2420     		movs	r0, #36
 250 00b6 FFF7FEFF 		bl	LCD_2_PutChar
 251              	.LVL46:
 124:.\LCD.c       ****         LCD_2_PutChar(0xC5);
 252              		.loc 1 124 0
 253 00ba C520     		movs	r0, #197
 254 00bc FFF7FEFF 		bl	LCD_2_PutChar
 255              	.LVL47:
 125:.\LCD.c       ****         LCD_2_PutChar(0x02);
 256              		.loc 1 125 0
 257 00c0 0220     		movs	r0, #2
 258 00c2 FFF7FEFF 		bl	LCD_2_PutChar
 259              	.LVL48:
 126:.\LCD.c       ****         LCD_2_PutChar(0x00);
 260              		.loc 1 126 0
 261 00c6 0020     		movs	r0, #0
 262 00c8 FFF7FEFF 		bl	LCD_2_PutChar
 263              	.LVL49:
 127:.\LCD.c       ****         LCD_2_PutChar(0x00);
 264              		.loc 1 127 0
 265 00cc 0020     		movs	r0, #0
 266 00ce FFF7FEFF 		bl	LCD_2_PutChar
 267              	.LVL50:
 128:.\LCD.c       ****         LCD_2_PutChar(0xFF);
 268              		.loc 1 128 0
 269 00d2 FF20     		movs	r0, #255
 270 00d4 FFF7FEFF 		bl	LCD_2_PutChar
 271              	.LVL51:
ARM GAS  C:\Users\diego\AppData\Local\Temp\ccI2l3me.s 			page 8


 129:.\LCD.c       ****         LCD_2_PutChar(0xFF);
 272              		.loc 1 129 0
 273 00d8 FF20     		movs	r0, #255
 274 00da FFF7FEFF 		bl	LCD_2_PutChar
 275              	.LVL52:
 130:.\LCD.c       ****         LCD_2_PutChar(dato);
 276              		.loc 1 130 0
 277 00de 2846     		mov	r0, r5
 278 00e0 FFF7FEFF 		bl	LCD_2_PutChar
 279              	.LVL53:
 131:.\LCD.c       ****         LCD_2_PutChar(0xCC);
 280              		.loc 1 131 0
 281 00e4 CC20     		movs	r0, #204
 282 00e6 FFF7FEFF 		bl	LCD_2_PutChar
 283              	.LVL54:
 132:.\LCD.c       ****         LCD_2_PutChar(0x33);
 284              		.loc 1 132 0
 285 00ea 3320     		movs	r0, #51
 286 00ec FFF7FEFF 		bl	LCD_2_PutChar
 287              	.LVL55:
 133:.\LCD.c       ****         LCD_2_PutChar(0xC3);
 288              		.loc 1 133 0
 289 00f0 C320     		movs	r0, #195
 290 00f2 FFF7FEFF 		bl	LCD_2_PutChar
 291              	.LVL56:
 134:.\LCD.c       ****         LCD_2_PutChar(0x3C);    
 292              		.loc 1 134 0
 293 00f6 3C20     		movs	r0, #60
 294 00f8 FFF7FEFF 		bl	LCD_2_PutChar
 295              	.LVL57:
 296 00fc 38BD     		pop	{r3, r4, r5, pc}
 297              		.cfi_endproc
 298              	.LFE64:
 299              		.size	write_LCD, .-write_LCD
 300 00fe 00BF     		.section	.text.Hora_LCD,"ax",%progbits
 301              		.align	2
 302              		.global	Hora_LCD
 303              		.thumb
 304              		.thumb_func
 305              		.type	Hora_LCD, %function
 306              	Hora_LCD:
 307              	.LFB65:
 135:.\LCD.c       ****     }
 136:.\LCD.c       **** }
 137:.\LCD.c       **** 
 138:.\LCD.c       **** /*
 139:.\LCD.c       **** ***************************************************************************************************
 140:.\LCD.c       **** *                                 			void Hora_LCD(uint8 lcd)
 141:.\LCD.c       **** *
 142:.\LCD.c       **** * Description : 
 143:.\LCD.c       **** *               
 144:.\LCD.c       **** *
 145:.\LCD.c       **** * Argument(s) : none
 146:.\LCD.c       **** *
 147:.\LCD.c       **** * Return(s)   : none
 148:.\LCD.c       **** *
 149:.\LCD.c       **** * Caller(s)   : 
ARM GAS  C:\Users\diego\AppData\Local\Temp\ccI2l3me.s 			page 9


 150:.\LCD.c       **** *
 151:.\LCD.c       **** * Note(s)     : none.
 152:.\LCD.c       **** ***************************************************************************************************
 153:.\LCD.c       **** */
 154:.\LCD.c       **** void Hora_LCD(uint8 lcd){
 308              		.loc 1 154 0
 309              		.cfi_startproc
 310              		@ args = 0, pretend = 0, frame = 24
 311              		@ frame_needed = 0, uses_anonymous_args = 0
 312              	.LVL58:
 313 0000 70B5     		push	{r4, r5, r6, lr}
 314              		.cfi_def_cfa_offset 16
 315              		.cfi_offset 4, -16
 316              		.cfi_offset 5, -12
 317              		.cfi_offset 6, -8
 318              		.cfi_offset 14, -4
 319 0002 86B0     		sub	sp, sp, #24
 320              		.cfi_def_cfa_offset 40
 321 0004 0646     		mov	r6, r0
 155:.\LCD.c       **** 	uint8 hora[24]={0xAA,0x98,0x00,0xd0,0x00,0xbb,0x24,0xC5,0x02,0x00,0x00,0xFF,0xFF,0X30,0x30,':',0x3
 322              		.loc 1 155 0
 323 0006 2A4D     		ldr	r5, .L19
 324 0008 6C46     		mov	r4, sp
 325 000a 2868     		ldr	r0, [r5]	@ unaligned
 326              	.LVL59:
 327 000c 6968     		ldr	r1, [r5, #4]	@ unaligned
 328 000e AA68     		ldr	r2, [r5, #8]	@ unaligned
 329 0010 EB68     		ldr	r3, [r5, #12]	@ unaligned
 330 0012 0FC4     		stmia	r4!, {r0, r1, r2, r3}
 331 0014 2869     		ldr	r0, [r5, #16]	@ unaligned
 332 0016 6969     		ldr	r1, [r5, #20]	@ unaligned
 333 0018 03C4     		stmia	r4!, {r0, r1}
 156:.\LCD.c       **** 	hora[13]=(((rventa.hora[1]&0x10)>>4)+48);
 334              		.loc 1 156 0
 335 001a 2649     		ldr	r1, .L19+4
 336 001c 91F8A120 		ldrb	r2, [r1, #161]	@ zero_extendqisi2
 337 0020 C2F30013 		ubfx	r3, r2, #4, #1
 338 0024 3033     		adds	r3, r3, #48
 339 0026 8DF80D30 		strb	r3, [sp, #13]
 157:.\LCD.c       **** 	hora[14]=((rventa.hora[1]&0x0F)+48);
 340              		.loc 1 157 0
 341 002a 02F00F03 		and	r3, r2, #15
 342 002e 3033     		adds	r3, r3, #48
 343 0030 8DF80E30 		strb	r3, [sp, #14]
 158:.\LCD.c       **** 	hora[16]=(((rventa.hora[0]&0xF0)>>4)+48);
 344              		.loc 1 158 0
 345 0034 91F8A030 		ldrb	r3, [r1, #160]	@ zero_extendqisi2
 346 0038 1909     		lsrs	r1, r3, #4
 347 003a 3031     		adds	r1, r1, #48
 348 003c 8DF81010 		strb	r1, [sp, #16]
 159:.\LCD.c       **** 	hora[17]=((rventa.hora[0]&0x0F)+48);
 349              		.loc 1 159 0
 350 0040 03F00F03 		and	r3, r3, #15
 351 0044 3033     		adds	r3, r3, #48
 352 0046 8DF81130 		strb	r3, [sp, #17]
 160:.\LCD.c       **** 	if((rventa.hora[1]&0x20)==0x20){
 353              		.loc 1 160 0
ARM GAS  C:\Users\diego\AppData\Local\Temp\ccI2l3me.s 			page 10


 354 004a 12F0200F 		tst	r2, #32
 355 004e 03D0     		beq	.L10
 161:.\LCD.c       **** 		hora[18]='p';
 356              		.loc 1 161 0
 357 0050 7023     		movs	r3, #112
 358 0052 8DF81230 		strb	r3, [sp, #18]
 359 0056 02E0     		b	.L11
 360              	.L10:
 162:.\LCD.c       **** 	}
 163:.\LCD.c       **** 	else{
 164:.\LCD.c       **** 		hora[18]='a';						
 361              		.loc 1 164 0
 362 0058 6123     		movs	r3, #97
 363 005a 8DF81230 		strb	r3, [sp, #18]
 364              	.L11:
 165:.\LCD.c       **** 	}	
 166:.\LCD.c       ****     if(lcd==1){
 365              		.loc 1 166 0
 366 005e 012E     		cmp	r6, #1
 367 0060 12D1     		bne	.L12
 167:.\LCD.c       **** 		for(x=0;x<=23;x++){
 368              		.loc 1 167 0
 369 0062 0022     		movs	r2, #0
 370 0064 144B     		ldr	r3, .L19+8
 371 0066 1A60     		str	r2, [r3]
 372 0068 09E0     		b	.L13
 373              	.L14:
 168:.\LCD.c       ****         	LCD_1_PutChar(hora[x]);
 374              		.loc 1 168 0 discriminator 3
 375 006a 06AA     		add	r2, sp, #24
 376 006c 1344     		add	r3, r3, r2
 377 006e 13F8180C 		ldrb	r0, [r3, #-24]	@ zero_extendqisi2
 378 0072 FFF7FEFF 		bl	LCD_1_PutChar
 379              	.LVL60:
 167:.\LCD.c       **** 		for(x=0;x<=23;x++){
 380              		.loc 1 167 0 discriminator 3
 381 0076 104A     		ldr	r2, .L19+8
 382 0078 1368     		ldr	r3, [r2]
 383 007a 0133     		adds	r3, r3, #1
 384 007c 1360     		str	r3, [r2]
 385              	.L13:
 167:.\LCD.c       **** 		for(x=0;x<=23;x++){
 386              		.loc 1 167 0 is_stmt 0 discriminator 1
 387 007e 0E4B     		ldr	r3, .L19+8
 388 0080 1B68     		ldr	r3, [r3]
 389 0082 172B     		cmp	r3, #23
 390 0084 F1D9     		bls	.L14
 391 0086 11E0     		b	.L9
 392              	.L12:
 169:.\LCD.c       **** 		}
 170:.\LCD.c       ****     }
 171:.\LCD.c       ****     else{
 172:.\LCD.c       **** 		for(x=0;x<=23;x++){
 393              		.loc 1 172 0 is_stmt 1
 394 0088 0022     		movs	r2, #0
 395 008a 0B4B     		ldr	r3, .L19+8
 396 008c 1A60     		str	r2, [r3]
ARM GAS  C:\Users\diego\AppData\Local\Temp\ccI2l3me.s 			page 11


 397 008e 09E0     		b	.L16
 398              	.L17:
 173:.\LCD.c       **** 	        LCD_2_PutChar(hora[x]);
 399              		.loc 1 173 0 discriminator 3
 400 0090 06AA     		add	r2, sp, #24
 401 0092 1344     		add	r3, r3, r2
 402 0094 13F8180C 		ldrb	r0, [r3, #-24]	@ zero_extendqisi2
 403 0098 FFF7FEFF 		bl	LCD_2_PutChar
 404              	.LVL61:
 172:.\LCD.c       **** 	        LCD_2_PutChar(hora[x]);
 405              		.loc 1 172 0 discriminator 3
 406 009c 064A     		ldr	r2, .L19+8
 407 009e 1368     		ldr	r3, [r2]
 408 00a0 0133     		adds	r3, r3, #1
 409 00a2 1360     		str	r3, [r2]
 410              	.L16:
 172:.\LCD.c       **** 	        LCD_2_PutChar(hora[x]);
 411              		.loc 1 172 0 is_stmt 0 discriminator 1
 412 00a4 044B     		ldr	r3, .L19+8
 413 00a6 1B68     		ldr	r3, [r3]
 414 00a8 172B     		cmp	r3, #23
 415 00aa F1D9     		bls	.L17
 416              	.L9:
 174:.\LCD.c       **** 		}
 175:.\LCD.c       ****     }
 176:.\LCD.c       **** }
 417              		.loc 1 176 0 is_stmt 1
 418 00ac 06B0     		add	sp, sp, #24
 419              		.cfi_def_cfa_offset 16
 420              		@ sp needed
 421 00ae 70BD     		pop	{r4, r5, r6, pc}
 422              	.L20:
 423              		.align	2
 424              	.L19:
 425 00b0 00000000 		.word	.LANCHOR0
 426 00b4 00000000 		.word	rventa
 427 00b8 00000000 		.word	x
 428              		.cfi_endproc
 429              	.LFE65:
 430              		.size	Hora_LCD, .-Hora_LCD
 431              		.section	.text.Fecha_LCD,"ax",%progbits
 432              		.align	2
 433              		.global	Fecha_LCD
 434              		.thumb
 435              		.thumb_func
 436              		.type	Fecha_LCD, %function
 437              	Fecha_LCD:
 438              	.LFB66:
 177:.\LCD.c       **** 
 178:.\LCD.c       **** /*
 179:.\LCD.c       **** ***************************************************************************************************
 180:.\LCD.c       **** *                                 			void Fecha_LCD(uint8 lcd)
 181:.\LCD.c       **** *
 182:.\LCD.c       **** * Description : 
 183:.\LCD.c       **** *               
 184:.\LCD.c       **** *
 185:.\LCD.c       **** * Argument(s) : none
ARM GAS  C:\Users\diego\AppData\Local\Temp\ccI2l3me.s 			page 12


 186:.\LCD.c       **** *
 187:.\LCD.c       **** * Return(s)   : none
 188:.\LCD.c       **** *
 189:.\LCD.c       **** * Caller(s)   : 
 190:.\LCD.c       **** *
 191:.\LCD.c       **** * Note(s)     : none.
 192:.\LCD.c       **** ***************************************************************************************************
 193:.\LCD.c       **** */
 194:.\LCD.c       **** void Fecha_LCD(uint8 lcd){
 439              		.loc 1 194 0
 440              		.cfi_startproc
 441              		@ args = 0, pretend = 0, frame = 32
 442              		@ frame_needed = 0, uses_anonymous_args = 0
 443              	.LVL62:
 444 0000 70B5     		push	{r4, r5, r6, lr}
 445              		.cfi_def_cfa_offset 16
 446              		.cfi_offset 4, -16
 447              		.cfi_offset 5, -12
 448              		.cfi_offset 6, -8
 449              		.cfi_offset 14, -4
 450 0002 88B0     		sub	sp, sp, #32
 451              		.cfi_def_cfa_offset 48
 452 0004 0646     		mov	r6, r0
 195:.\LCD.c       **** 	uint8 fecha[25]={0xAA,0x98,0x00,0xcb,0x01,0x27,0x24,0xC5,0x02,0x00,0x00,0xFF,0xFF,0x30,0x30,0x2f,0
 453              		.loc 1 195 0
 454 0006 01AC     		add	r4, sp, #4
 455 0008 2C4D     		ldr	r5, .L29
 456 000a 55F8180F 		ldr	r0, [r5, #24]!	@ unaligned
 457              	.LVL63:
 458 000e 6968     		ldr	r1, [r5, #4]	@ unaligned
 459 0010 AA68     		ldr	r2, [r5, #8]	@ unaligned
 460 0012 EB68     		ldr	r3, [r5, #12]	@ unaligned
 461 0014 0FC4     		stmia	r4!, {r0, r1, r2, r3}
 462 0016 2869     		ldr	r0, [r5, #16]	@ unaligned
 463 0018 6969     		ldr	r1, [r5, #20]	@ unaligned
 464 001a 03C4     		stmia	r4!, {r0, r1}
 465 001c 2B7E     		ldrb	r3, [r5, #24]	@ zero_extendqisi2
 466 001e 2370     		strb	r3, [r4]
 196:.\LCD.c       **** 	fecha[13]=(((rventa.fecha[0]&0x30)>>4)+48);
 467              		.loc 1 196 0
 468 0020 274A     		ldr	r2, .L29+4
 469 0022 92F89D30 		ldrb	r3, [r2, #157]	@ zero_extendqisi2
 470 0026 C3F30111 		ubfx	r1, r3, #4, #2
 471 002a 3031     		adds	r1, r1, #48
 472 002c 8DF81110 		strb	r1, [sp, #17]
 197:.\LCD.c       **** 	fecha[14]=((rventa.fecha[0]&0x0F)+48);
 473              		.loc 1 197 0
 474 0030 03F00F03 		and	r3, r3, #15
 475 0034 3033     		adds	r3, r3, #48
 476 0036 8DF81230 		strb	r3, [sp, #18]
 198:.\LCD.c       **** 	fecha[16]=(((rventa.fecha[1]&0x10)>>4)+48);
 477              		.loc 1 198 0
 478 003a 92F89E30 		ldrb	r3, [r2, #158]	@ zero_extendqisi2
 479 003e C3F30011 		ubfx	r1, r3, #4, #1
 480 0042 3031     		adds	r1, r1, #48
 481 0044 8DF81410 		strb	r1, [sp, #20]
 199:.\LCD.c       **** 	fecha[17]=((rventa.fecha[1]&0x0F)+48);
ARM GAS  C:\Users\diego\AppData\Local\Temp\ccI2l3me.s 			page 13


 482              		.loc 1 199 0
 483 0048 03F00F03 		and	r3, r3, #15
 484 004c 3033     		adds	r3, r3, #48
 485 004e 8DF81530 		strb	r3, [sp, #21]
 200:.\LCD.c       **** 	fecha[19]=(((rventa.fecha[2]&0xF0)>>4)+48);
 486              		.loc 1 200 0
 487 0052 92F89F30 		ldrb	r3, [r2, #159]	@ zero_extendqisi2
 488 0056 1A09     		lsrs	r2, r3, #4
 489 0058 3032     		adds	r2, r2, #48
 490 005a 8DF81720 		strb	r2, [sp, #23]
 201:.\LCD.c       **** 	fecha[20]=((rventa.fecha[2]&0x0F)+48);	
 491              		.loc 1 201 0
 492 005e 03F00F03 		and	r3, r3, #15
 493 0062 3033     		adds	r3, r3, #48
 494 0064 8DF81830 		strb	r3, [sp, #24]
 202:.\LCD.c       ****     if(lcd==1){
 495              		.loc 1 202 0
 496 0068 012E     		cmp	r6, #1
 497 006a 12D1     		bne	.L22
 203:.\LCD.c       **** 		for(x=0;x<=24;x++){
 498              		.loc 1 203 0
 499 006c 0022     		movs	r2, #0
 500 006e 154B     		ldr	r3, .L29+8
 501 0070 1A60     		str	r2, [r3]
 502 0072 09E0     		b	.L23
 503              	.L24:
 204:.\LCD.c       ****         	LCD_1_PutChar(fecha[x]);
 504              		.loc 1 204 0 discriminator 3
 505 0074 08AA     		add	r2, sp, #32
 506 0076 1344     		add	r3, r3, r2
 507 0078 13F81C0C 		ldrb	r0, [r3, #-28]	@ zero_extendqisi2
 508 007c FFF7FEFF 		bl	LCD_1_PutChar
 509              	.LVL64:
 203:.\LCD.c       **** 		for(x=0;x<=24;x++){
 510              		.loc 1 203 0 discriminator 3
 511 0080 104A     		ldr	r2, .L29+8
 512 0082 1368     		ldr	r3, [r2]
 513 0084 0133     		adds	r3, r3, #1
 514 0086 1360     		str	r3, [r2]
 515              	.L23:
 203:.\LCD.c       **** 		for(x=0;x<=24;x++){
 516              		.loc 1 203 0 is_stmt 0 discriminator 1
 517 0088 0E4B     		ldr	r3, .L29+8
 518 008a 1B68     		ldr	r3, [r3]
 519 008c 182B     		cmp	r3, #24
 520 008e F1D9     		bls	.L24
 521 0090 11E0     		b	.L21
 522              	.L22:
 205:.\LCD.c       **** 		}
 206:.\LCD.c       ****     }
 207:.\LCD.c       ****     else{
 208:.\LCD.c       **** 		for(x=0;x<=24;x++){
 523              		.loc 1 208 0 is_stmt 1
 524 0092 0022     		movs	r2, #0
 525 0094 0B4B     		ldr	r3, .L29+8
 526 0096 1A60     		str	r2, [r3]
 527 0098 09E0     		b	.L26
ARM GAS  C:\Users\diego\AppData\Local\Temp\ccI2l3me.s 			page 14


 528              	.L27:
 209:.\LCD.c       **** 	        LCD_2_PutChar(fecha[x]);
 529              		.loc 1 209 0 discriminator 3
 530 009a 08AA     		add	r2, sp, #32
 531 009c 1344     		add	r3, r3, r2
 532 009e 13F81C0C 		ldrb	r0, [r3, #-28]	@ zero_extendqisi2
 533 00a2 FFF7FEFF 		bl	LCD_2_PutChar
 534              	.LVL65:
 208:.\LCD.c       **** 	        LCD_2_PutChar(fecha[x]);
 535              		.loc 1 208 0 discriminator 3
 536 00a6 074A     		ldr	r2, .L29+8
 537 00a8 1368     		ldr	r3, [r2]
 538 00aa 0133     		adds	r3, r3, #1
 539 00ac 1360     		str	r3, [r2]
 540              	.L26:
 208:.\LCD.c       **** 	        LCD_2_PutChar(fecha[x]);
 541              		.loc 1 208 0 is_stmt 0 discriminator 1
 542 00ae 054B     		ldr	r3, .L29+8
 543 00b0 1B68     		ldr	r3, [r3]
 544 00b2 182B     		cmp	r3, #24
 545 00b4 F1D9     		bls	.L27
 546              	.L21:
 210:.\LCD.c       **** 		}
 211:.\LCD.c       ****     }
 212:.\LCD.c       **** }
 547              		.loc 1 212 0 is_stmt 1
 548 00b6 08B0     		add	sp, sp, #32
 549              		.cfi_def_cfa_offset 16
 550              		@ sp needed
 551 00b8 70BD     		pop	{r4, r5, r6, pc}
 552              	.L30:
 553 00ba 00BF     		.align	2
 554              	.L29:
 555 00bc 00000000 		.word	.LANCHOR0
 556 00c0 00000000 		.word	rventa
 557 00c4 00000000 		.word	x
 558              		.cfi_endproc
 559              	.LFE66:
 560              		.size	Fecha_LCD, .-Fecha_LCD
 561              		.section	.text.Nombre_LCD,"ax",%progbits
 562              		.align	2
 563              		.global	Nombre_LCD
 564              		.thumb
 565              		.thumb_func
 566              		.type	Nombre_LCD, %function
 567              	Nombre_LCD:
 568              	.LFB67:
 213:.\LCD.c       **** 
 214:.\LCD.c       **** /*
 215:.\LCD.c       **** ***************************************************************************************************
 216:.\LCD.c       **** *                                 			void Nombre_LCD(uint8 lcd)
 217:.\LCD.c       **** *
 218:.\LCD.c       **** * Description : 
 219:.\LCD.c       **** *               
 220:.\LCD.c       **** *
 221:.\LCD.c       **** * Argument(s) : none
 222:.\LCD.c       **** *
ARM GAS  C:\Users\diego\AppData\Local\Temp\ccI2l3me.s 			page 15


 223:.\LCD.c       **** * Return(s)   : none
 224:.\LCD.c       **** *
 225:.\LCD.c       **** * Caller(s)   : 
 226:.\LCD.c       **** *
 227:.\LCD.c       **** * Note(s)     : none.
 228:.\LCD.c       **** ***************************************************************************************************
 229:.\LCD.c       **** */
 230:.\LCD.c       **** void Nombre_LCD(uint8 lcd){
 569              		.loc 1 230 0
 570              		.cfi_startproc
 571              		@ args = 0, pretend = 0, frame = 24
 572              		@ frame_needed = 0, uses_anonymous_args = 0
 573              	.LVL66:
 574 0000 70B5     		push	{r4, r5, r6, lr}
 575              		.cfi_def_cfa_offset 16
 576              		.cfi_offset 4, -16
 577              		.cfi_offset 5, -12
 578              		.cfi_offset 6, -8
 579              		.cfi_offset 14, -4
 580 0002 86B0     		sub	sp, sp, #24
 581              		.cfi_def_cfa_offset 40
 582 0004 0646     		mov	r6, r0
 231:.\LCD.c       **** 	uint8 buffer[18]={0xAA,0x98,0x00,0xA5,0x00,0x7E,0x23,0xC5,0x02,0x00,0x00,0xFF,0xFF,0x20,0xCC,0x33,
 583              		.loc 1 231 0
 584 0006 01AC     		add	r4, sp, #4
 585 0008 3A4D     		ldr	r5, .L45
 586 000a 55F8340F 		ldr	r0, [r5, #52]!	@ unaligned
 587              	.LVL67:
 588 000e 6968     		ldr	r1, [r5, #4]	@ unaligned
 589 0010 AA68     		ldr	r2, [r5, #8]	@ unaligned
 590 0012 EB68     		ldr	r3, [r5, #12]	@ unaligned
 591 0014 0FC4     		stmia	r4!, {r0, r1, r2, r3}
 592 0016 2B8A     		ldrh	r3, [r5, #16]	@ unaligned
 593 0018 2380     		strh	r3, [r4]	@ unaligned
 232:.\LCD.c       ****     if(lcd==1){
 594              		.loc 1 232 0
 595 001a 012E     		cmp	r6, #1
 596 001c 35D1     		bne	.L32
 233:.\LCD.c       **** 		for(x=1;(x<=rventa.nombre[0]&&x<=25);x++){
 597              		.loc 1 233 0
 598 001e 0122     		movs	r2, #1
 599 0020 354B     		ldr	r3, .L45+4
 600 0022 1A60     		str	r2, [r3]
 601 0024 28E0     		b	.L33
 602              	.L38:
 234:.\LCD.c       **** 			buffer[13]=rventa.nombre[x];			
 603              		.loc 1 234 0
 604 0026 354A     		ldr	r2, .L45+8
 605 0028 D35C     		ldrb	r3, [r2, r3]	@ zero_extendqisi2
 606 002a 8DF81130 		strb	r3, [sp, #17]
 235:.\LCD.c       **** 			for(y=0;y<=17;y++){
 607              		.loc 1 235 0
 608 002e 0022     		movs	r2, #0
 609 0030 334B     		ldr	r3, .L45+12
 610 0032 1A60     		str	r2, [r3]
 611 0034 09E0     		b	.L34
 612              	.L35:
ARM GAS  C:\Users\diego\AppData\Local\Temp\ccI2l3me.s 			page 16


 236:.\LCD.c       ****         		LCD_1_PutChar(buffer[y]);
 613              		.loc 1 236 0 discriminator 3
 614 0036 06AA     		add	r2, sp, #24
 615 0038 1344     		add	r3, r3, r2
 616 003a 13F8140C 		ldrb	r0, [r3, #-20]	@ zero_extendqisi2
 617 003e FFF7FEFF 		bl	LCD_1_PutChar
 618              	.LVL68:
 235:.\LCD.c       **** 			for(y=0;y<=17;y++){
 619              		.loc 1 235 0 discriminator 3
 620 0042 2F4A     		ldr	r2, .L45+12
 621 0044 1368     		ldr	r3, [r2]
 622 0046 0133     		adds	r3, r3, #1
 623 0048 1360     		str	r3, [r2]
 624              	.L34:
 235:.\LCD.c       **** 			for(y=0;y<=17;y++){
 625              		.loc 1 235 0 is_stmt 0 discriminator 1
 626 004a 2D4B     		ldr	r3, .L45+12
 627 004c 1B68     		ldr	r3, [r3]
 628 004e 112B     		cmp	r3, #17
 629 0050 F1D9     		bls	.L35
 237:.\LCD.c       **** 			}
 238:.\LCD.c       **** 			if(buffer[3]==0xFF){
 630              		.loc 1 238 0 is_stmt 1
 631 0052 9DF80730 		ldrb	r3, [sp, #7]	@ zero_extendqisi2
 632 0056 FF2B     		cmp	r3, #255
 633 0058 05D1     		bne	.L36
 239:.\LCD.c       **** 				buffer[2]=0x01;
 634              		.loc 1 239 0
 635 005a 0123     		movs	r3, #1
 636 005c 8DF80630 		strb	r3, [sp, #6]
 240:.\LCD.c       **** 				buffer[3]=0x00;
 637              		.loc 1 240 0
 638 0060 0023     		movs	r3, #0
 639 0062 8DF80730 		strb	r3, [sp, #7]
 640              	.L36:
 241:.\LCD.c       **** 			}			
 242:.\LCD.c       **** 			buffer[3]+=15;
 641              		.loc 1 242 0 discriminator 2
 642 0066 9DF80730 		ldrb	r3, [sp, #7]	@ zero_extendqisi2
 643 006a 0F33     		adds	r3, r3, #15
 644 006c 8DF80730 		strb	r3, [sp, #7]
 233:.\LCD.c       **** 			buffer[13]=rventa.nombre[x];			
 645              		.loc 1 233 0 discriminator 2
 646 0070 214A     		ldr	r2, .L45+4
 647 0072 1368     		ldr	r3, [r2]
 648 0074 0133     		adds	r3, r3, #1
 649 0076 1360     		str	r3, [r2]
 650              	.L33:
 233:.\LCD.c       **** 			buffer[13]=rventa.nombre[x];			
 651              		.loc 1 233 0 is_stmt 0 discriminator 1
 652 0078 204B     		ldr	r3, .L45+8
 653 007a 1A78     		ldrb	r2, [r3]	@ zero_extendqisi2
 654 007c 1E4B     		ldr	r3, .L45+4
 655 007e 1B68     		ldr	r3, [r3]
 656 0080 9A42     		cmp	r2, r3
 657 0082 35D3     		bcc	.L31
 233:.\LCD.c       **** 			buffer[13]=rventa.nombre[x];			
ARM GAS  C:\Users\diego\AppData\Local\Temp\ccI2l3me.s 			page 17


 658              		.loc 1 233 0 discriminator 3
 659 0084 192B     		cmp	r3, #25
 660 0086 CED9     		bls	.L38
 661 0088 32E0     		b	.L31
 662              	.L32:
 243:.\LCD.c       **** 		}
 244:.\LCD.c       ****     }
 245:.\LCD.c       ****     else{
 246:.\LCD.c       **** 		for(x=1;x<=rventa.nombre[0];x++){
 663              		.loc 1 246 0 is_stmt 1
 664 008a 0122     		movs	r2, #1
 665 008c 1A4B     		ldr	r3, .L45+4
 666 008e 1A60     		str	r2, [r3]
 667 0090 28E0     		b	.L39
 668              	.L43:
 247:.\LCD.c       **** 			buffer[13]=rventa.nombre[x];			
 669              		.loc 1 247 0
 670 0092 1A4A     		ldr	r2, .L45+8
 671 0094 D35C     		ldrb	r3, [r2, r3]	@ zero_extendqisi2
 672 0096 8DF81130 		strb	r3, [sp, #17]
 248:.\LCD.c       **** 			for(y=0;y<=17;y++){
 673              		.loc 1 248 0
 674 009a 0022     		movs	r2, #0
 675 009c 184B     		ldr	r3, .L45+12
 676 009e 1A60     		str	r2, [r3]
 677 00a0 09E0     		b	.L40
 678              	.L41:
 249:.\LCD.c       ****         		LCD_2_PutChar(buffer[y]);
 679              		.loc 1 249 0 discriminator 3
 680 00a2 06AA     		add	r2, sp, #24
 681 00a4 1344     		add	r3, r3, r2
 682 00a6 13F8140C 		ldrb	r0, [r3, #-20]	@ zero_extendqisi2
 683 00aa FFF7FEFF 		bl	LCD_2_PutChar
 684              	.LVL69:
 248:.\LCD.c       **** 			for(y=0;y<=17;y++){
 685              		.loc 1 248 0 discriminator 3
 686 00ae 144A     		ldr	r2, .L45+12
 687 00b0 1368     		ldr	r3, [r2]
 688 00b2 0133     		adds	r3, r3, #1
 689 00b4 1360     		str	r3, [r2]
 690              	.L40:
 248:.\LCD.c       **** 			for(y=0;y<=17;y++){
 691              		.loc 1 248 0 is_stmt 0 discriminator 1
 692 00b6 124B     		ldr	r3, .L45+12
 693 00b8 1B68     		ldr	r3, [r3]
 694 00ba 112B     		cmp	r3, #17
 695 00bc F1D9     		bls	.L41
 250:.\LCD.c       **** 			}
 251:.\LCD.c       **** 			if(buffer[3]==0xFF){
 696              		.loc 1 251 0 is_stmt 1
 697 00be 9DF80730 		ldrb	r3, [sp, #7]	@ zero_extendqisi2
 698 00c2 FF2B     		cmp	r3, #255
 699 00c4 05D1     		bne	.L42
 252:.\LCD.c       **** 				buffer[2]=0x01;
 700              		.loc 1 252 0
 701 00c6 0123     		movs	r3, #1
 702 00c8 8DF80630 		strb	r3, [sp, #6]
ARM GAS  C:\Users\diego\AppData\Local\Temp\ccI2l3me.s 			page 18


 253:.\LCD.c       **** 				buffer[3]=0x00;
 703              		.loc 1 253 0
 704 00cc 0023     		movs	r3, #0
 705 00ce 8DF80730 		strb	r3, [sp, #7]
 706              	.L42:
 254:.\LCD.c       **** 			}			
 255:.\LCD.c       **** 			buffer[3]+=15;
 707              		.loc 1 255 0 discriminator 2
 708 00d2 9DF80730 		ldrb	r3, [sp, #7]	@ zero_extendqisi2
 709 00d6 0F33     		adds	r3, r3, #15
 710 00d8 8DF80730 		strb	r3, [sp, #7]
 246:.\LCD.c       **** 			buffer[13]=rventa.nombre[x];			
 711              		.loc 1 246 0 discriminator 2
 712 00dc 064A     		ldr	r2, .L45+4
 713 00de 1368     		ldr	r3, [r2]
 714 00e0 0133     		adds	r3, r3, #1
 715 00e2 1360     		str	r3, [r2]
 716              	.L39:
 246:.\LCD.c       **** 			buffer[13]=rventa.nombre[x];			
 717              		.loc 1 246 0 is_stmt 0 discriminator 1
 718 00e4 054B     		ldr	r3, .L45+8
 719 00e6 1A78     		ldrb	r2, [r3]	@ zero_extendqisi2
 720 00e8 034B     		ldr	r3, .L45+4
 721 00ea 1B68     		ldr	r3, [r3]
 722 00ec 9A42     		cmp	r2, r3
 723 00ee D0D2     		bcs	.L43
 724              	.L31:
 256:.\LCD.c       **** 		}
 257:.\LCD.c       ****     }	
 258:.\LCD.c       **** }
 725              		.loc 1 258 0 is_stmt 1
 726 00f0 06B0     		add	sp, sp, #24
 727              		.cfi_def_cfa_offset 16
 728              		@ sp needed
 729 00f2 70BD     		pop	{r4, r5, r6, pc}
 730              	.L46:
 731              		.align	2
 732              	.L45:
 733 00f4 00000000 		.word	.LANCHOR0
 734 00f8 00000000 		.word	x
 735 00fc 00000000 		.word	rventa
 736 0100 00000000 		.word	y
 737              		.cfi_endproc
 738              	.LFE67:
 739              		.size	Nombre_LCD, .-Nombre_LCD
 740              		.section	.text.Precio_LCD,"ax",%progbits
 741              		.align	2
 742              		.global	Precio_LCD
 743              		.thumb
 744              		.thumb_func
 745              		.type	Precio_LCD, %function
 746              	Precio_LCD:
 747              	.LFB68:
 259:.\LCD.c       **** 
 260:.\LCD.c       **** /*
 261:.\LCD.c       **** ***************************************************************************************************
 262:.\LCD.c       **** *                          void Precio_LCD(uint8 lcd, uint8 y1, uint8 y2, uint8 eeprom)
ARM GAS  C:\Users\diego\AppData\Local\Temp\ccI2l3me.s 			page 19


 263:.\LCD.c       **** *
 264:.\LCD.c       **** * Description : 
 265:.\LCD.c       **** *               
 266:.\LCD.c       **** *
 267:.\LCD.c       **** * Argument(s) : none
 268:.\LCD.c       **** *
 269:.\LCD.c       **** * Return(s)   : none
 270:.\LCD.c       **** *
 271:.\LCD.c       **** * Caller(s)   : 
 272:.\LCD.c       **** *
 273:.\LCD.c       **** * Note(s)     : none.
 274:.\LCD.c       **** ***************************************************************************************************
 275:.\LCD.c       **** */
 276:.\LCD.c       **** void Precio_LCD(uint8 lcd, uint8 y1, uint8 y2, uint16 eeprom){
 748              		.loc 1 276 0
 749              		.cfi_startproc
 750              		@ args = 0, pretend = 0, frame = 24
 751              		@ frame_needed = 0, uses_anonymous_args = 0
 752              	.LVL70:
 753 0000 F0B5     		push	{r4, r5, r6, r7, lr}
 754              		.cfi_def_cfa_offset 20
 755              		.cfi_offset 4, -20
 756              		.cfi_offset 5, -16
 757              		.cfi_offset 6, -12
 758              		.cfi_offset 7, -8
 759              		.cfi_offset 14, -4
 760 0002 87B0     		sub	sp, sp, #28
 761              		.cfi_def_cfa_offset 48
 762 0004 0646     		mov	r6, r0
 763 0006 8C46     		mov	ip, r1
 764 0008 9646     		mov	lr, r2
 765 000a 1F46     		mov	r7, r3
 277:.\LCD.c       **** 	uint8 hora[23]={0xAA,0x98,0x01,0x80,0x01,0x60,0x24,0xC5,0x02,0x00,0x00,0xFF,0xFF,'$',0X20,0x20,0X2
 766              		.loc 1 277 0
 767 000c 6C46     		mov	r4, sp
 768 000e 2A4D     		ldr	r5, .L58
 769 0010 55F8480F 		ldr	r0, [r5, #72]!	@ unaligned
 770              	.LVL71:
 771 0014 6968     		ldr	r1, [r5, #4]	@ unaligned
 772              	.LVL72:
 773 0016 AA68     		ldr	r2, [r5, #8]	@ unaligned
 774              	.LVL73:
 775 0018 EB68     		ldr	r3, [r5, #12]	@ unaligned
 776              	.LVL74:
 777 001a 0FC4     		stmia	r4!, {r0, r1, r2, r3}
 778 001c 2869     		ldr	r0, [r5, #16]	@ unaligned
 779 001e 2060     		str	r0, [r4]	@ unaligned
 780 0020 AA8A     		ldrh	r2, [r5, #20]	@ unaligned
 781 0022 AB7D     		ldrb	r3, [r5, #22]	@ zero_extendqisi2
 782 0024 A280     		strh	r2, [r4, #4]	@ unaligned
 783 0026 A371     		strb	r3, [r4, #6]
 278:.\LCD.c       **** 	hora[4]=y1;
 784              		.loc 1 278 0
 785 0028 8DF804C0 		strb	ip, [sp, #4]
 279:.\LCD.c       **** 	hora[5]=y2;
 786              		.loc 1 279 0
 787 002c 8DF805E0 		strb	lr, [sp, #5]
ARM GAS  C:\Users\diego\AppData\Local\Temp\ccI2l3me.s 			page 20


 280:.\LCD.c       **** 	if(leer_eeprom(eeprom,6)==1){
 788              		.loc 1 280 0
 789 0030 3846     		mov	r0, r7
 790 0032 0621     		movs	r1, #6
 791 0034 FFF7FEFF 		bl	leer_eeprom
 792              	.LVL75:
 793 0038 0128     		cmp	r0, #1
 794 003a 3BD1     		bne	.L47
 281:.\LCD.c       **** 		if((buffer_i2c[0]<=0x05)&&(buffer_i2c[0]>=0x00)){
 795              		.loc 1 281 0
 796 003c 1F4B     		ldr	r3, .L58+4
 797 003e 1878     		ldrb	r0, [r3]	@ zero_extendqisi2
 798 0040 0528     		cmp	r0, #5
 799 0042 10D8     		bhi	.L49
 282:.\LCD.c       **** 			for(x=1;x<=buffer_i2c[0];x++){
 800              		.loc 1 282 0
 801 0044 0122     		movs	r2, #1
 802 0046 1E4B     		ldr	r3, .L58+8
 803 0048 1A60     		str	r2, [r3]
 804 004a 08E0     		b	.L50
 805              	.L51:
 283:.\LCD.c       **** 				hora[x+13]=buffer_i2c[x];
 806              		.loc 1 283 0 discriminator 3
 807 004c 1B4A     		ldr	r2, .L58+4
 808 004e D15C     		ldrb	r1, [r2, r3]	@ zero_extendqisi2
 809 0050 06AA     		add	r2, sp, #24
 810 0052 1A44     		add	r2, r2, r3
 811 0054 02F80B1C 		strb	r1, [r2, #-11]
 282:.\LCD.c       **** 			for(x=1;x<=buffer_i2c[0];x++){
 812              		.loc 1 282 0 discriminator 3
 813 0058 0133     		adds	r3, r3, #1
 814 005a 194A     		ldr	r2, .L58+8
 815 005c 1360     		str	r3, [r2]
 816              	.L50:
 282:.\LCD.c       **** 			for(x=1;x<=buffer_i2c[0];x++){
 817              		.loc 1 282 0 is_stmt 0 discriminator 1
 818 005e 184B     		ldr	r3, .L58+8
 819 0060 1B68     		ldr	r3, [r3]
 820 0062 9842     		cmp	r0, r3
 821 0064 F2D2     		bcs	.L51
 822              	.L49:
 284:.\LCD.c       **** 			}
 285:.\LCD.c       **** 		}
 286:.\LCD.c       **** 	    if(lcd==1){
 823              		.loc 1 286 0 is_stmt 1
 824 0066 012E     		cmp	r6, #1
 825 0068 12D1     		bne	.L52
 287:.\LCD.c       **** 			for(x=0;x<=22;x++){
 826              		.loc 1 287 0
 827 006a 0022     		movs	r2, #0
 828 006c 144B     		ldr	r3, .L58+8
 829 006e 1A60     		str	r2, [r3]
 830 0070 09E0     		b	.L53
 831              	.L54:
 288:.\LCD.c       **** 	        	LCD_1_PutChar(hora[x]);
 832              		.loc 1 288 0 discriminator 3
 833 0072 06AA     		add	r2, sp, #24
ARM GAS  C:\Users\diego\AppData\Local\Temp\ccI2l3me.s 			page 21


 834 0074 1344     		add	r3, r3, r2
 835 0076 13F8180C 		ldrb	r0, [r3, #-24]	@ zero_extendqisi2
 836 007a FFF7FEFF 		bl	LCD_1_PutChar
 837              	.LVL76:
 287:.\LCD.c       **** 			for(x=0;x<=22;x++){
 838              		.loc 1 287 0 discriminator 3
 839 007e 104A     		ldr	r2, .L58+8
 840 0080 1368     		ldr	r3, [r2]
 841 0082 0133     		adds	r3, r3, #1
 842 0084 1360     		str	r3, [r2]
 843              	.L53:
 287:.\LCD.c       **** 			for(x=0;x<=22;x++){
 844              		.loc 1 287 0 is_stmt 0 discriminator 1
 845 0086 0E4B     		ldr	r3, .L58+8
 846 0088 1B68     		ldr	r3, [r3]
 847 008a 162B     		cmp	r3, #22
 848 008c F1D9     		bls	.L54
 849 008e 11E0     		b	.L47
 850              	.L52:
 289:.\LCD.c       **** 			}
 290:.\LCD.c       **** 	    }
 291:.\LCD.c       **** 	    else{
 292:.\LCD.c       **** 			for(x=0;x<=22;x++){
 851              		.loc 1 292 0 is_stmt 1
 852 0090 0022     		movs	r2, #0
 853 0092 0B4B     		ldr	r3, .L58+8
 854 0094 1A60     		str	r2, [r3]
 855 0096 09E0     		b	.L55
 856              	.L56:
 293:.\LCD.c       **** 		        LCD_2_PutChar(hora[x]);
 857              		.loc 1 293 0 discriminator 3
 858 0098 06AA     		add	r2, sp, #24
 859 009a 1344     		add	r3, r3, r2
 860 009c 13F8180C 		ldrb	r0, [r3, #-24]	@ zero_extendqisi2
 861 00a0 FFF7FEFF 		bl	LCD_2_PutChar
 862              	.LVL77:
 292:.\LCD.c       **** 		        LCD_2_PutChar(hora[x]);
 863              		.loc 1 292 0 discriminator 3
 864 00a4 064A     		ldr	r2, .L58+8
 865 00a6 1368     		ldr	r3, [r2]
 866 00a8 0133     		adds	r3, r3, #1
 867 00aa 1360     		str	r3, [r2]
 868              	.L55:
 292:.\LCD.c       **** 		        LCD_2_PutChar(hora[x]);
 869              		.loc 1 292 0 is_stmt 0 discriminator 1
 870 00ac 044B     		ldr	r3, .L58+8
 871 00ae 1B68     		ldr	r3, [r3]
 872 00b0 162B     		cmp	r3, #22
 873 00b2 F1D9     		bls	.L56
 874              	.L47:
 294:.\LCD.c       **** 			}
 295:.\LCD.c       **** 	    }
 296:.\LCD.c       **** 	}
 297:.\LCD.c       **** }
 875              		.loc 1 297 0 is_stmt 1
 876 00b4 07B0     		add	sp, sp, #28
 877              		.cfi_def_cfa_offset 20
ARM GAS  C:\Users\diego\AppData\Local\Temp\ccI2l3me.s 			page 22


 878              		@ sp needed
 879 00b6 F0BD     		pop	{r4, r5, r6, r7, pc}
 880              	.L59:
 881              		.align	2
 882              	.L58:
 883 00b8 00000000 		.word	.LANCHOR0
 884 00bc 00000000 		.word	buffer_i2c
 885 00c0 00000000 		.word	x
 886              		.cfi_endproc
 887              	.LFE68:
 888              		.size	Precio_LCD, .-Precio_LCD
 889              		.section	.text.Grado_LCD,"ax",%progbits
 890              		.align	2
 891              		.global	Grado_LCD
 892              		.thumb
 893              		.thumb_func
 894              		.type	Grado_LCD, %function
 895              	Grado_LCD:
 896              	.LFB69:
 298:.\LCD.c       **** 
 299:.\LCD.c       **** /*
 300:.\LCD.c       **** ***************************************************************************************************
 301:.\LCD.c       **** *                          void Grado_LCD(uint8 lcd, uint8 y1, uint8 y2, uint8 eeprom)
 302:.\LCD.c       **** *
 303:.\LCD.c       **** * Description : 
 304:.\LCD.c       **** *               
 305:.\LCD.c       **** *
 306:.\LCD.c       **** * Argument(s) : none
 307:.\LCD.c       **** *
 308:.\LCD.c       **** * Return(s)   : none
 309:.\LCD.c       **** *
 310:.\LCD.c       **** * Caller(s)   : 
 311:.\LCD.c       **** *
 312:.\LCD.c       **** * Note(s)     : none.
 313:.\LCD.c       **** ***************************************************************************************************
 314:.\LCD.c       **** */
 315:.\LCD.c       **** void Grado_LCD(uint8 lcd, uint8 y1, uint8 y2, uint16 eeprom){
 897              		.loc 1 315 0
 898              		.cfi_startproc
 899              		@ args = 0, pretend = 0, frame = 24
 900              		@ frame_needed = 0, uses_anonymous_args = 0
 901              	.LVL78:
 902 0000 F0B5     		push	{r4, r5, r6, r7, lr}
 903              		.cfi_def_cfa_offset 20
 904              		.cfi_offset 4, -20
 905              		.cfi_offset 5, -16
 906              		.cfi_offset 6, -12
 907              		.cfi_offset 7, -8
 908              		.cfi_offset 14, -4
 909 0002 87B0     		sub	sp, sp, #28
 910              		.cfi_def_cfa_offset 48
 911 0004 0646     		mov	r6, r0
 912 0006 8C46     		mov	ip, r1
 913 0008 9646     		mov	lr, r2
 914 000a 1F46     		mov	r7, r3
 316:.\LCD.c       **** 	uint8 hora[18]={0xAA,0x98,0x02,0x20,0x01,0x60,0x24,0xC5,0x02,0x00,0x00,0xFF,0xFF,0x20,0xCC,0x33,0x
 915              		.loc 1 316 0
ARM GAS  C:\Users\diego\AppData\Local\Temp\ccI2l3me.s 			page 23


 916 000c 01AC     		add	r4, sp, #4
 917 000e 284D     		ldr	r5, .L71
 918 0010 55F8600F 		ldr	r0, [r5, #96]!	@ unaligned
 919              	.LVL79:
 920 0014 6968     		ldr	r1, [r5, #4]	@ unaligned
 921              	.LVL80:
 922 0016 AA68     		ldr	r2, [r5, #8]	@ unaligned
 923              	.LVL81:
 924 0018 EB68     		ldr	r3, [r5, #12]	@ unaligned
 925              	.LVL82:
 926 001a 0FC4     		stmia	r4!, {r0, r1, r2, r3}
 927 001c 2B8A     		ldrh	r3, [r5, #16]	@ unaligned
 928 001e 2380     		strh	r3, [r4]	@ unaligned
 317:.\LCD.c       **** 	hora[4]=y1;
 929              		.loc 1 317 0
 930 0020 8DF808C0 		strb	ip, [sp, #8]
 318:.\LCD.c       **** 	hora[5]=y2;
 931              		.loc 1 318 0
 932 0024 8DF809E0 		strb	lr, [sp, #9]
 319:.\LCD.c       **** 	if(leer_eeprom(eeprom,2)==1){
 933              		.loc 1 319 0
 934 0028 3846     		mov	r0, r7
 935 002a 0221     		movs	r1, #2
 936 002c FFF7FEFF 		bl	leer_eeprom
 937              	.LVL83:
 938 0030 0128     		cmp	r0, #1
 939 0032 3BD1     		bne	.L60
 320:.\LCD.c       **** 		if(buffer_i2c[0]==0x01){
 940              		.loc 1 320 0
 941 0034 1F4B     		ldr	r3, .L71+4
 942 0036 1878     		ldrb	r0, [r3]	@ zero_extendqisi2
 943 0038 0128     		cmp	r0, #1
 944 003a 10D1     		bne	.L62
 321:.\LCD.c       **** 			for(x=1;x<=buffer_i2c[0];x++){
 945              		.loc 1 321 0
 946 003c 0122     		movs	r2, #1
 947 003e 1E4B     		ldr	r3, .L71+8
 948 0040 1A60     		str	r2, [r3]
 949 0042 08E0     		b	.L63
 950              	.L64:
 322:.\LCD.c       **** 				hora[x+12]=buffer_i2c[x];
 951              		.loc 1 322 0 discriminator 3
 952 0044 1B4A     		ldr	r2, .L71+4
 953 0046 D15C     		ldrb	r1, [r2, r3]	@ zero_extendqisi2
 954 0048 06AA     		add	r2, sp, #24
 955 004a 1A44     		add	r2, r2, r3
 956 004c 02F8081C 		strb	r1, [r2, #-8]
 321:.\LCD.c       **** 			for(x=1;x<=buffer_i2c[0];x++){
 957              		.loc 1 321 0 discriminator 3
 958 0050 0133     		adds	r3, r3, #1
 959 0052 194A     		ldr	r2, .L71+8
 960 0054 1360     		str	r3, [r2]
 961              	.L63:
 321:.\LCD.c       **** 			for(x=1;x<=buffer_i2c[0];x++){
 962              		.loc 1 321 0 is_stmt 0 discriminator 1
 963 0056 184B     		ldr	r3, .L71+8
 964 0058 1B68     		ldr	r3, [r3]
ARM GAS  C:\Users\diego\AppData\Local\Temp\ccI2l3me.s 			page 24


 965 005a 9842     		cmp	r0, r3
 966 005c F2D2     		bcs	.L64
 967              	.L62:
 323:.\LCD.c       **** 			}
 324:.\LCD.c       **** 		}
 325:.\LCD.c       **** 	    if(lcd==1){
 968              		.loc 1 325 0 is_stmt 1
 969 005e 012E     		cmp	r6, #1
 970 0060 12D1     		bne	.L65
 326:.\LCD.c       **** 			for(x=0;x<=22;x++){
 971              		.loc 1 326 0
 972 0062 0022     		movs	r2, #0
 973 0064 144B     		ldr	r3, .L71+8
 974 0066 1A60     		str	r2, [r3]
 975 0068 09E0     		b	.L66
 976              	.L67:
 327:.\LCD.c       **** 	        	LCD_1_PutChar(hora[x]);
 977              		.loc 1 327 0 discriminator 3
 978 006a 06AA     		add	r2, sp, #24
 979 006c 1344     		add	r3, r3, r2
 980 006e 13F8140C 		ldrb	r0, [r3, #-20]	@ zero_extendqisi2
 981 0072 FFF7FEFF 		bl	LCD_1_PutChar
 982              	.LVL84:
 326:.\LCD.c       **** 			for(x=0;x<=22;x++){
 983              		.loc 1 326 0 discriminator 3
 984 0076 104A     		ldr	r2, .L71+8
 985 0078 1368     		ldr	r3, [r2]
 986 007a 0133     		adds	r3, r3, #1
 987 007c 1360     		str	r3, [r2]
 988              	.L66:
 326:.\LCD.c       **** 			for(x=0;x<=22;x++){
 989              		.loc 1 326 0 is_stmt 0 discriminator 1
 990 007e 0E4B     		ldr	r3, .L71+8
 991 0080 1B68     		ldr	r3, [r3]
 992 0082 162B     		cmp	r3, #22
 993 0084 F1D9     		bls	.L67
 994 0086 11E0     		b	.L60
 995              	.L65:
 328:.\LCD.c       **** 			}
 329:.\LCD.c       **** 	    }
 330:.\LCD.c       **** 	    else{
 331:.\LCD.c       **** 			for(x=0;x<=22;x++){
 996              		.loc 1 331 0 is_stmt 1
 997 0088 0022     		movs	r2, #0
 998 008a 0B4B     		ldr	r3, .L71+8
 999 008c 1A60     		str	r2, [r3]
 1000 008e 09E0     		b	.L68
 1001              	.L69:
 332:.\LCD.c       **** 		        LCD_2_PutChar(hora[x]);
 1002              		.loc 1 332 0 discriminator 3
 1003 0090 06AA     		add	r2, sp, #24
 1004 0092 1344     		add	r3, r3, r2
 1005 0094 13F8140C 		ldrb	r0, [r3, #-20]	@ zero_extendqisi2
 1006 0098 FFF7FEFF 		bl	LCD_2_PutChar
 1007              	.LVL85:
 331:.\LCD.c       **** 		        LCD_2_PutChar(hora[x]);
 1008              		.loc 1 331 0 discriminator 3
ARM GAS  C:\Users\diego\AppData\Local\Temp\ccI2l3me.s 			page 25


 1009 009c 064A     		ldr	r2, .L71+8
 1010 009e 1368     		ldr	r3, [r2]
 1011 00a0 0133     		adds	r3, r3, #1
 1012 00a2 1360     		str	r3, [r2]
 1013              	.L68:
 331:.\LCD.c       **** 		        LCD_2_PutChar(hora[x]);
 1014              		.loc 1 331 0 is_stmt 0 discriminator 1
 1015 00a4 044B     		ldr	r3, .L71+8
 1016 00a6 1B68     		ldr	r3, [r3]
 1017 00a8 162B     		cmp	r3, #22
 1018 00aa F1D9     		bls	.L69
 1019              	.L60:
 333:.\LCD.c       **** 			}
 334:.\LCD.c       **** 	    }
 335:.\LCD.c       **** 	}
 336:.\LCD.c       **** }
 1020              		.loc 1 336 0 is_stmt 1
 1021 00ac 07B0     		add	sp, sp, #28
 1022              		.cfi_def_cfa_offset 20
 1023              		@ sp needed
 1024 00ae F0BD     		pop	{r4, r5, r6, r7, pc}
 1025              	.L72:
 1026              		.align	2
 1027              	.L71:
 1028 00b0 00000000 		.word	.LANCHOR0
 1029 00b4 00000000 		.word	buffer_i2c
 1030 00b8 00000000 		.word	x
 1031              		.cfi_endproc
 1032              	.LFE69:
 1033              		.size	Grado_LCD, .-Grado_LCD
 1034              		.section	.text.direccion_LCD,"ax",%progbits
 1035              		.align	2
 1036              		.global	direccion_LCD
 1037              		.thumb
 1038              		.thumb_func
 1039              		.type	direccion_LCD, %function
 1040              	direccion_LCD:
 1041              	.LFB70:
 337:.\LCD.c       **** 
 338:.\LCD.c       **** /*
 339:.\LCD.c       **** ***************************************************************************************************
 340:.\LCD.c       **** *                                 			void direccion_LCD(uint8 lcd)
 341:.\LCD.c       **** *
 342:.\LCD.c       **** * Description : 
 343:.\LCD.c       **** *               
 344:.\LCD.c       **** *
 345:.\LCD.c       **** * Argument(s) : none
 346:.\LCD.c       **** *
 347:.\LCD.c       **** * Return(s)   : none
 348:.\LCD.c       **** *
 349:.\LCD.c       **** * Caller(s)   : 
 350:.\LCD.c       **** *
 351:.\LCD.c       **** * Note(s)     : none.
 352:.\LCD.c       **** ***************************************************************************************************
 353:.\LCD.c       **** */
 354:.\LCD.c       **** void direccion_LCD(uint8 lcd){
 1042              		.loc 1 354 0
ARM GAS  C:\Users\diego\AppData\Local\Temp\ccI2l3me.s 			page 26


 1043              		.cfi_startproc
 1044              		@ args = 0, pretend = 0, frame = 24
 1045              		@ frame_needed = 0, uses_anonymous_args = 0
 1046              	.LVL86:
 1047 0000 70B5     		push	{r4, r5, r6, lr}
 1048              		.cfi_def_cfa_offset 16
 1049              		.cfi_offset 4, -16
 1050              		.cfi_offset 5, -12
 1051              		.cfi_offset 6, -8
 1052              		.cfi_offset 14, -4
 1053 0002 86B0     		sub	sp, sp, #24
 1054              		.cfi_def_cfa_offset 40
 1055 0004 0646     		mov	r6, r0
 355:.\LCD.c       **** 	uint8 buffer[18]={0xAA,0x98,0x00,0xA5,0x00,0xB7,0x23,0xC5,0x02,0x00,0x00,0xFF,0xFF,0x20,0xCC,0x33,
 1056              		.loc 1 355 0
 1057 0006 01AC     		add	r4, sp, #4
 1058 0008 3C4D     		ldr	r5, .L87
 1059 000a 55F8740F 		ldr	r0, [r5, #116]!	@ unaligned
 1060              	.LVL87:
 1061 000e 6968     		ldr	r1, [r5, #4]	@ unaligned
 1062 0010 AA68     		ldr	r2, [r5, #8]	@ unaligned
 1063 0012 EB68     		ldr	r3, [r5, #12]	@ unaligned
 1064 0014 0FC4     		stmia	r4!, {r0, r1, r2, r3}
 1065 0016 2B8A     		ldrh	r3, [r5, #16]	@ unaligned
 1066 0018 2380     		strh	r3, [r4]	@ unaligned
 356:.\LCD.c       ****     if(lcd==1){
 1067              		.loc 1 356 0
 1068 001a 012E     		cmp	r6, #1
 1069 001c 36D1     		bne	.L74
 357:.\LCD.c       **** 		for(x=1;x<=rventa.direccion[0];x++){
 1070              		.loc 1 357 0
 1071 001e 0122     		movs	r2, #1
 1072 0020 374B     		ldr	r3, .L87+4
 1073 0022 1A60     		str	r2, [r3]
 1074 0024 2AE0     		b	.L75
 1075              	.L79:
 358:.\LCD.c       **** 			buffer[13]=rventa.direccion[x];			
 1076              		.loc 1 358 0
 1077 0026 374A     		ldr	r2, .L87+8
 1078 0028 1344     		add	r3, r3, r2
 1079 002a 93F84330 		ldrb	r3, [r3, #67]	@ zero_extendqisi2
 1080 002e 8DF81130 		strb	r3, [sp, #17]
 359:.\LCD.c       **** 			for(y=0;y<=17;y++){
 1081              		.loc 1 359 0
 1082 0032 0022     		movs	r2, #0
 1083 0034 344B     		ldr	r3, .L87+12
 1084 0036 1A60     		str	r2, [r3]
 1085 0038 09E0     		b	.L76
 1086              	.L77:
 360:.\LCD.c       ****         		LCD_1_PutChar(buffer[y]);
 1087              		.loc 1 360 0 discriminator 3
 1088 003a 06AA     		add	r2, sp, #24
 1089 003c 1344     		add	r3, r3, r2
 1090 003e 13F8140C 		ldrb	r0, [r3, #-20]	@ zero_extendqisi2
 1091 0042 FFF7FEFF 		bl	LCD_1_PutChar
 1092              	.LVL88:
 359:.\LCD.c       **** 			for(y=0;y<=17;y++){
ARM GAS  C:\Users\diego\AppData\Local\Temp\ccI2l3me.s 			page 27


 1093              		.loc 1 359 0 discriminator 3
 1094 0046 304A     		ldr	r2, .L87+12
 1095 0048 1368     		ldr	r3, [r2]
 1096 004a 0133     		adds	r3, r3, #1
 1097 004c 1360     		str	r3, [r2]
 1098              	.L76:
 359:.\LCD.c       **** 			for(y=0;y<=17;y++){
 1099              		.loc 1 359 0 is_stmt 0 discriminator 1
 1100 004e 2E4B     		ldr	r3, .L87+12
 1101 0050 1B68     		ldr	r3, [r3]
 1102 0052 112B     		cmp	r3, #17
 1103 0054 F1D9     		bls	.L77
 361:.\LCD.c       **** 			}
 362:.\LCD.c       **** 			if(buffer[3]==0xFF){
 1104              		.loc 1 362 0 is_stmt 1
 1105 0056 9DF80730 		ldrb	r3, [sp, #7]	@ zero_extendqisi2
 1106 005a FF2B     		cmp	r3, #255
 1107 005c 05D1     		bne	.L78
 363:.\LCD.c       **** 				buffer[2]=0x01;
 1108              		.loc 1 363 0
 1109 005e 0123     		movs	r3, #1
 1110 0060 8DF80630 		strb	r3, [sp, #6]
 364:.\LCD.c       **** 				buffer[3]=0x00;
 1111              		.loc 1 364 0
 1112 0064 0023     		movs	r3, #0
 1113 0066 8DF80730 		strb	r3, [sp, #7]
 1114              	.L78:
 365:.\LCD.c       **** 			}			
 366:.\LCD.c       **** 			buffer[3]+=15;
 1115              		.loc 1 366 0 discriminator 2
 1116 006a 9DF80730 		ldrb	r3, [sp, #7]	@ zero_extendqisi2
 1117 006e 0F33     		adds	r3, r3, #15
 1118 0070 8DF80730 		strb	r3, [sp, #7]
 357:.\LCD.c       **** 			buffer[13]=rventa.direccion[x];			
 1119              		.loc 1 357 0 discriminator 2
 1120 0074 224A     		ldr	r2, .L87+4
 1121 0076 1368     		ldr	r3, [r2]
 1122 0078 0133     		adds	r3, r3, #1
 1123 007a 1360     		str	r3, [r2]
 1124              	.L75:
 357:.\LCD.c       **** 			buffer[13]=rventa.direccion[x];			
 1125              		.loc 1 357 0 is_stmt 0 discriminator 1
 1126 007c 214B     		ldr	r3, .L87+8
 1127 007e 93F84320 		ldrb	r2, [r3, #67]	@ zero_extendqisi2
 1128 0082 1F4B     		ldr	r3, .L87+4
 1129 0084 1B68     		ldr	r3, [r3]
 1130 0086 9A42     		cmp	r2, r3
 1131 0088 CDD2     		bcs	.L79
 1132 008a 35E0     		b	.L73
 1133              	.L74:
 367:.\LCD.c       **** 		}
 368:.\LCD.c       ****     }
 369:.\LCD.c       ****     else{
 370:.\LCD.c       **** 		for(x=1;x<=rventa.direccion[0];x++){
 1134              		.loc 1 370 0 is_stmt 1
 1135 008c 0122     		movs	r2, #1
 1136 008e 1C4B     		ldr	r3, .L87+4
ARM GAS  C:\Users\diego\AppData\Local\Temp\ccI2l3me.s 			page 28


 1137 0090 1A60     		str	r2, [r3]
 1138 0092 2AE0     		b	.L81
 1139              	.L85:
 371:.\LCD.c       **** 			buffer[13]=rventa.direccion[x];			
 1140              		.loc 1 371 0
 1141 0094 1B4A     		ldr	r2, .L87+8
 1142 0096 1344     		add	r3, r3, r2
 1143 0098 93F84330 		ldrb	r3, [r3, #67]	@ zero_extendqisi2
 1144 009c 8DF81130 		strb	r3, [sp, #17]
 372:.\LCD.c       **** 			for(y=0;y<=17;y++){
 1145              		.loc 1 372 0
 1146 00a0 0022     		movs	r2, #0
 1147 00a2 194B     		ldr	r3, .L87+12
 1148 00a4 1A60     		str	r2, [r3]
 1149 00a6 09E0     		b	.L82
 1150              	.L83:
 373:.\LCD.c       ****         		LCD_2_PutChar(buffer[y]);
 1151              		.loc 1 373 0 discriminator 3
 1152 00a8 06AA     		add	r2, sp, #24
 1153 00aa 1344     		add	r3, r3, r2
 1154 00ac 13F8140C 		ldrb	r0, [r3, #-20]	@ zero_extendqisi2
 1155 00b0 FFF7FEFF 		bl	LCD_2_PutChar
 1156              	.LVL89:
 372:.\LCD.c       **** 			for(y=0;y<=17;y++){
 1157              		.loc 1 372 0 discriminator 3
 1158 00b4 144A     		ldr	r2, .L87+12
 1159 00b6 1368     		ldr	r3, [r2]
 1160 00b8 0133     		adds	r3, r3, #1
 1161 00ba 1360     		str	r3, [r2]
 1162              	.L82:
 372:.\LCD.c       **** 			for(y=0;y<=17;y++){
 1163              		.loc 1 372 0 is_stmt 0 discriminator 1
 1164 00bc 124B     		ldr	r3, .L87+12
 1165 00be 1B68     		ldr	r3, [r3]
 1166 00c0 112B     		cmp	r3, #17
 1167 00c2 F1D9     		bls	.L83
 374:.\LCD.c       **** 			}
 375:.\LCD.c       **** 			if(buffer[3]==0xFF){
 1168              		.loc 1 375 0 is_stmt 1
 1169 00c4 9DF80730 		ldrb	r3, [sp, #7]	@ zero_extendqisi2
 1170 00c8 FF2B     		cmp	r3, #255
 1171 00ca 05D1     		bne	.L84
 376:.\LCD.c       **** 				buffer[2]=0x01;
 1172              		.loc 1 376 0
 1173 00cc 0123     		movs	r3, #1
 1174 00ce 8DF80630 		strb	r3, [sp, #6]
 377:.\LCD.c       **** 				buffer[3]=0x00;
 1175              		.loc 1 377 0
 1176 00d2 0023     		movs	r3, #0
 1177 00d4 8DF80730 		strb	r3, [sp, #7]
 1178              	.L84:
 378:.\LCD.c       **** 			}			
 379:.\LCD.c       **** 			buffer[3]+=15;
 1179              		.loc 1 379 0 discriminator 2
 1180 00d8 9DF80730 		ldrb	r3, [sp, #7]	@ zero_extendqisi2
 1181 00dc 0F33     		adds	r3, r3, #15
 1182 00de 8DF80730 		strb	r3, [sp, #7]
ARM GAS  C:\Users\diego\AppData\Local\Temp\ccI2l3me.s 			page 29


 370:.\LCD.c       **** 			buffer[13]=rventa.direccion[x];			
 1183              		.loc 1 370 0 discriminator 2
 1184 00e2 074A     		ldr	r2, .L87+4
 1185 00e4 1368     		ldr	r3, [r2]
 1186 00e6 0133     		adds	r3, r3, #1
 1187 00e8 1360     		str	r3, [r2]
 1188              	.L81:
 370:.\LCD.c       **** 			buffer[13]=rventa.direccion[x];			
 1189              		.loc 1 370 0 is_stmt 0 discriminator 1
 1190 00ea 064B     		ldr	r3, .L87+8
 1191 00ec 93F84320 		ldrb	r2, [r3, #67]	@ zero_extendqisi2
 1192 00f0 034B     		ldr	r3, .L87+4
 1193 00f2 1B68     		ldr	r3, [r3]
 1194 00f4 9A42     		cmp	r2, r3
 1195 00f6 CDD2     		bcs	.L85
 1196              	.L73:
 380:.\LCD.c       **** 		}
 381:.\LCD.c       ****     }	
 382:.\LCD.c       **** }
 1197              		.loc 1 382 0 is_stmt 1
 1198 00f8 06B0     		add	sp, sp, #24
 1199              		.cfi_def_cfa_offset 16
 1200              		@ sp needed
 1201 00fa 70BD     		pop	{r4, r5, r6, pc}
 1202              	.L88:
 1203              		.align	2
 1204              	.L87:
 1205 00fc 00000000 		.word	.LANCHOR0
 1206 0100 00000000 		.word	x
 1207 0104 00000000 		.word	rventa
 1208 0108 00000000 		.word	y
 1209              		.cfi_endproc
 1210              	.LFE70:
 1211              		.size	direccion_LCD, .-direccion_LCD
 1212              		.section	.text.lema1_LCD,"ax",%progbits
 1213              		.align	2
 1214              		.global	lema1_LCD
 1215              		.thumb
 1216              		.thumb_func
 1217              		.type	lema1_LCD, %function
 1218              	lema1_LCD:
 1219              	.LFB71:
 383:.\LCD.c       **** 
 384:.\LCD.c       **** /*
 385:.\LCD.c       **** ***************************************************************************************************
 386:.\LCD.c       **** *                                 		void lema1_LCD(uint8 lcd)
 387:.\LCD.c       **** *
 388:.\LCD.c       **** * Description : 
 389:.\LCD.c       **** *               
 390:.\LCD.c       **** *
 391:.\LCD.c       **** * Argument(s) : none
 392:.\LCD.c       **** *
 393:.\LCD.c       **** * Return(s)   : none
 394:.\LCD.c       **** *
 395:.\LCD.c       **** * Caller(s)   : 
 396:.\LCD.c       **** *
 397:.\LCD.c       **** * Note(s)     : none.
ARM GAS  C:\Users\diego\AppData\Local\Temp\ccI2l3me.s 			page 30


 398:.\LCD.c       **** ***************************************************************************************************
 399:.\LCD.c       **** */
 400:.\LCD.c       **** void lema1_LCD(uint8 lcd){
 1220              		.loc 1 400 0
 1221              		.cfi_startproc
 1222              		@ args = 0, pretend = 0, frame = 24
 1223              		@ frame_needed = 0, uses_anonymous_args = 0
 1224              	.LVL90:
 1225 0000 70B5     		push	{r4, r5, r6, lr}
 1226              		.cfi_def_cfa_offset 16
 1227              		.cfi_offset 4, -16
 1228              		.cfi_offset 5, -12
 1229              		.cfi_offset 6, -8
 1230              		.cfi_offset 14, -4
 1231 0002 86B0     		sub	sp, sp, #24
 1232              		.cfi_def_cfa_offset 40
 1233 0004 0646     		mov	r6, r0
 401:.\LCD.c       **** 	uint8 buffer[18]={0xAA,0x98,0x00,0xA5,0x01,0x27,0x23,0xC5,0x02,0x00,0x00,0xFF,0xFF,0x20,0xCC,0x33,
 1234              		.loc 1 401 0
 1235 0006 01AC     		add	r4, sp, #4
 1236 0008 3C4D     		ldr	r5, .L103
 1237 000a 55F8880F 		ldr	r0, [r5, #136]!	@ unaligned
 1238              	.LVL91:
 1239 000e 6968     		ldr	r1, [r5, #4]	@ unaligned
 1240 0010 AA68     		ldr	r2, [r5, #8]	@ unaligned
 1241 0012 EB68     		ldr	r3, [r5, #12]	@ unaligned
 1242 0014 0FC4     		stmia	r4!, {r0, r1, r2, r3}
 1243 0016 2B8A     		ldrh	r3, [r5, #16]	@ unaligned
 1244 0018 2380     		strh	r3, [r4]	@ unaligned
 402:.\LCD.c       ****     if(lcd==1){
 1245              		.loc 1 402 0
 1246 001a 012E     		cmp	r6, #1
 1247 001c 36D1     		bne	.L90
 403:.\LCD.c       **** 		for(x=1;x<=rventa.lema1[0];x++){
 1248              		.loc 1 403 0
 1249 001e 0122     		movs	r2, #1
 1250 0020 374B     		ldr	r3, .L103+4
 1251 0022 1A60     		str	r2, [r3]
 1252 0024 2AE0     		b	.L91
 1253              	.L95:
 404:.\LCD.c       **** 			buffer[13]=rventa.lema1[x];			
 1254              		.loc 1 404 0
 1255 0026 374A     		ldr	r2, .L103+8
 1256 0028 1344     		add	r3, r3, r2
 1257 002a 93F86130 		ldrb	r3, [r3, #97]	@ zero_extendqisi2
 1258 002e 8DF81130 		strb	r3, [sp, #17]
 405:.\LCD.c       **** 			for(y=0;y<=17;y++){
 1259              		.loc 1 405 0
 1260 0032 0022     		movs	r2, #0
 1261 0034 344B     		ldr	r3, .L103+12
 1262 0036 1A60     		str	r2, [r3]
 1263 0038 09E0     		b	.L92
 1264              	.L93:
 406:.\LCD.c       ****         		LCD_1_PutChar(buffer[y]);
 1265              		.loc 1 406 0 discriminator 3
 1266 003a 06AA     		add	r2, sp, #24
 1267 003c 1344     		add	r3, r3, r2
ARM GAS  C:\Users\diego\AppData\Local\Temp\ccI2l3me.s 			page 31


 1268 003e 13F8140C 		ldrb	r0, [r3, #-20]	@ zero_extendqisi2
 1269 0042 FFF7FEFF 		bl	LCD_1_PutChar
 1270              	.LVL92:
 405:.\LCD.c       **** 			for(y=0;y<=17;y++){
 1271              		.loc 1 405 0 discriminator 3
 1272 0046 304A     		ldr	r2, .L103+12
 1273 0048 1368     		ldr	r3, [r2]
 1274 004a 0133     		adds	r3, r3, #1
 1275 004c 1360     		str	r3, [r2]
 1276              	.L92:
 405:.\LCD.c       **** 			for(y=0;y<=17;y++){
 1277              		.loc 1 405 0 is_stmt 0 discriminator 1
 1278 004e 2E4B     		ldr	r3, .L103+12
 1279 0050 1B68     		ldr	r3, [r3]
 1280 0052 112B     		cmp	r3, #17
 1281 0054 F1D9     		bls	.L93
 407:.\LCD.c       **** 			}
 408:.\LCD.c       **** 			if(buffer[3]==0xFF){
 1282              		.loc 1 408 0 is_stmt 1
 1283 0056 9DF80730 		ldrb	r3, [sp, #7]	@ zero_extendqisi2
 1284 005a FF2B     		cmp	r3, #255
 1285 005c 05D1     		bne	.L94
 409:.\LCD.c       **** 				buffer[2]=0x01;
 1286              		.loc 1 409 0
 1287 005e 0123     		movs	r3, #1
 1288 0060 8DF80630 		strb	r3, [sp, #6]
 410:.\LCD.c       **** 				buffer[3]=0x00;
 1289              		.loc 1 410 0
 1290 0064 0023     		movs	r3, #0
 1291 0066 8DF80730 		strb	r3, [sp, #7]
 1292              	.L94:
 411:.\LCD.c       **** 			}			
 412:.\LCD.c       **** 			buffer[3]+=15;
 1293              		.loc 1 412 0 discriminator 2
 1294 006a 9DF80730 		ldrb	r3, [sp, #7]	@ zero_extendqisi2
 1295 006e 0F33     		adds	r3, r3, #15
 1296 0070 8DF80730 		strb	r3, [sp, #7]
 403:.\LCD.c       **** 			buffer[13]=rventa.lema1[x];			
 1297              		.loc 1 403 0 discriminator 2
 1298 0074 224A     		ldr	r2, .L103+4
 1299 0076 1368     		ldr	r3, [r2]
 1300 0078 0133     		adds	r3, r3, #1
 1301 007a 1360     		str	r3, [r2]
 1302              	.L91:
 403:.\LCD.c       **** 			buffer[13]=rventa.lema1[x];			
 1303              		.loc 1 403 0 is_stmt 0 discriminator 1
 1304 007c 214B     		ldr	r3, .L103+8
 1305 007e 93F86120 		ldrb	r2, [r3, #97]	@ zero_extendqisi2
 1306 0082 1F4B     		ldr	r3, .L103+4
 1307 0084 1B68     		ldr	r3, [r3]
 1308 0086 9A42     		cmp	r2, r3
 1309 0088 CDD2     		bcs	.L95
 1310 008a 35E0     		b	.L89
 1311              	.L90:
 413:.\LCD.c       **** 		}
 414:.\LCD.c       ****     }
 415:.\LCD.c       ****     else{
ARM GAS  C:\Users\diego\AppData\Local\Temp\ccI2l3me.s 			page 32


 416:.\LCD.c       **** 		for(x=1;x<=rventa.lema1[0];x++){
 1312              		.loc 1 416 0 is_stmt 1
 1313 008c 0122     		movs	r2, #1
 1314 008e 1C4B     		ldr	r3, .L103+4
 1315 0090 1A60     		str	r2, [r3]
 1316 0092 2AE0     		b	.L97
 1317              	.L101:
 417:.\LCD.c       **** 			buffer[13]=rventa.lema1[x];			
 1318              		.loc 1 417 0
 1319 0094 1B4A     		ldr	r2, .L103+8
 1320 0096 1344     		add	r3, r3, r2
 1321 0098 93F86130 		ldrb	r3, [r3, #97]	@ zero_extendqisi2
 1322 009c 8DF81130 		strb	r3, [sp, #17]
 418:.\LCD.c       **** 			for(y=0;y<=17;y++){
 1323              		.loc 1 418 0
 1324 00a0 0022     		movs	r2, #0
 1325 00a2 194B     		ldr	r3, .L103+12
 1326 00a4 1A60     		str	r2, [r3]
 1327 00a6 09E0     		b	.L98
 1328              	.L99:
 419:.\LCD.c       ****         		LCD_2_PutChar(buffer[y]);
 1329              		.loc 1 419 0 discriminator 3
 1330 00a8 06AA     		add	r2, sp, #24
 1331 00aa 1344     		add	r3, r3, r2
 1332 00ac 13F8140C 		ldrb	r0, [r3, #-20]	@ zero_extendqisi2
 1333 00b0 FFF7FEFF 		bl	LCD_2_PutChar
 1334              	.LVL93:
 418:.\LCD.c       **** 			for(y=0;y<=17;y++){
 1335              		.loc 1 418 0 discriminator 3
 1336 00b4 144A     		ldr	r2, .L103+12
 1337 00b6 1368     		ldr	r3, [r2]
 1338 00b8 0133     		adds	r3, r3, #1
 1339 00ba 1360     		str	r3, [r2]
 1340              	.L98:
 418:.\LCD.c       **** 			for(y=0;y<=17;y++){
 1341              		.loc 1 418 0 is_stmt 0 discriminator 1
 1342 00bc 124B     		ldr	r3, .L103+12
 1343 00be 1B68     		ldr	r3, [r3]
 1344 00c0 112B     		cmp	r3, #17
 1345 00c2 F1D9     		bls	.L99
 420:.\LCD.c       **** 			}
 421:.\LCD.c       **** 			if(buffer[3]==0xFF){
 1346              		.loc 1 421 0 is_stmt 1
 1347 00c4 9DF80730 		ldrb	r3, [sp, #7]	@ zero_extendqisi2
 1348 00c8 FF2B     		cmp	r3, #255
 1349 00ca 05D1     		bne	.L100
 422:.\LCD.c       **** 				buffer[2]=0x01;
 1350              		.loc 1 422 0
 1351 00cc 0123     		movs	r3, #1
 1352 00ce 8DF80630 		strb	r3, [sp, #6]
 423:.\LCD.c       **** 				buffer[3]=0x00;
 1353              		.loc 1 423 0
 1354 00d2 0023     		movs	r3, #0
 1355 00d4 8DF80730 		strb	r3, [sp, #7]
 1356              	.L100:
 424:.\LCD.c       **** 			}			
 425:.\LCD.c       **** 			buffer[3]+=15;
ARM GAS  C:\Users\diego\AppData\Local\Temp\ccI2l3me.s 			page 33


 1357              		.loc 1 425 0 discriminator 2
 1358 00d8 9DF80730 		ldrb	r3, [sp, #7]	@ zero_extendqisi2
 1359 00dc 0F33     		adds	r3, r3, #15
 1360 00de 8DF80730 		strb	r3, [sp, #7]
 416:.\LCD.c       **** 			buffer[13]=rventa.lema1[x];			
 1361              		.loc 1 416 0 discriminator 2
 1362 00e2 074A     		ldr	r2, .L103+4
 1363 00e4 1368     		ldr	r3, [r2]
 1364 00e6 0133     		adds	r3, r3, #1
 1365 00e8 1360     		str	r3, [r2]
 1366              	.L97:
 416:.\LCD.c       **** 			buffer[13]=rventa.lema1[x];			
 1367              		.loc 1 416 0 is_stmt 0 discriminator 1
 1368 00ea 064B     		ldr	r3, .L103+8
 1369 00ec 93F86120 		ldrb	r2, [r3, #97]	@ zero_extendqisi2
 1370 00f0 034B     		ldr	r3, .L103+4
 1371 00f2 1B68     		ldr	r3, [r3]
 1372 00f4 9A42     		cmp	r2, r3
 1373 00f6 CDD2     		bcs	.L101
 1374              	.L89:
 426:.\LCD.c       **** 		}
 427:.\LCD.c       ****     }	
 428:.\LCD.c       **** }
 1375              		.loc 1 428 0 is_stmt 1
 1376 00f8 06B0     		add	sp, sp, #24
 1377              		.cfi_def_cfa_offset 16
 1378              		@ sp needed
 1379 00fa 70BD     		pop	{r4, r5, r6, pc}
 1380              	.L104:
 1381              		.align	2
 1382              	.L103:
 1383 00fc 00000000 		.word	.LANCHOR0
 1384 0100 00000000 		.word	x
 1385 0104 00000000 		.word	rventa
 1386 0108 00000000 		.word	y
 1387              		.cfi_endproc
 1388              	.LFE71:
 1389              		.size	lema1_LCD, .-lema1_LCD
 1390              		.section	.text.lema2_LCD,"ax",%progbits
 1391              		.align	2
 1392              		.global	lema2_LCD
 1393              		.thumb
 1394              		.thumb_func
 1395              		.type	lema2_LCD, %function
 1396              	lema2_LCD:
 1397              	.LFB72:
 429:.\LCD.c       **** 
 430:.\LCD.c       **** /*
 431:.\LCD.c       **** ***************************************************************************************************
 432:.\LCD.c       **** *                                 		void lema2_LCD(uint8 lcd)
 433:.\LCD.c       **** *
 434:.\LCD.c       **** * Description : 
 435:.\LCD.c       **** *               
 436:.\LCD.c       **** *
 437:.\LCD.c       **** * Argument(s) : none
 438:.\LCD.c       **** *
 439:.\LCD.c       **** * Return(s)   : none
ARM GAS  C:\Users\diego\AppData\Local\Temp\ccI2l3me.s 			page 34


 440:.\LCD.c       **** *
 441:.\LCD.c       **** * Caller(s)   : 
 442:.\LCD.c       **** *
 443:.\LCD.c       **** * Note(s)     : none.
 444:.\LCD.c       **** ***************************************************************************************************
 445:.\LCD.c       **** */
 446:.\LCD.c       **** void lema2_LCD(uint8 lcd){
 1398              		.loc 1 446 0
 1399              		.cfi_startproc
 1400              		@ args = 0, pretend = 0, frame = 24
 1401              		@ frame_needed = 0, uses_anonymous_args = 0
 1402              	.LVL94:
 1403 0000 70B5     		push	{r4, r5, r6, lr}
 1404              		.cfi_def_cfa_offset 16
 1405              		.cfi_offset 4, -16
 1406              		.cfi_offset 5, -12
 1407              		.cfi_offset 6, -8
 1408              		.cfi_offset 14, -4
 1409 0002 86B0     		sub	sp, sp, #24
 1410              		.cfi_def_cfa_offset 40
 1411 0004 0646     		mov	r6, r0
 447:.\LCD.c       **** 	uint8 buffer[18]={0xAA,0x98,0x00,0xA5,0x01,0x5F,0x23,0xC5,0x02,0x00,0x00,0xFF,0xFF,0x20,0xCC,0x33,
 1412              		.loc 1 447 0
 1413 0006 01AC     		add	r4, sp, #4
 1414 0008 3C4D     		ldr	r5, .L119
 1415 000a 55F89C0F 		ldr	r0, [r5, #156]!	@ unaligned
 1416              	.LVL95:
 1417 000e 6968     		ldr	r1, [r5, #4]	@ unaligned
 1418 0010 AA68     		ldr	r2, [r5, #8]	@ unaligned
 1419 0012 EB68     		ldr	r3, [r5, #12]	@ unaligned
 1420 0014 0FC4     		stmia	r4!, {r0, r1, r2, r3}
 1421 0016 2B8A     		ldrh	r3, [r5, #16]	@ unaligned
 1422 0018 2380     		strh	r3, [r4]	@ unaligned
 448:.\LCD.c       ****     if(lcd==1){
 1423              		.loc 1 448 0
 1424 001a 012E     		cmp	r6, #1
 1425 001c 36D1     		bne	.L106
 449:.\LCD.c       **** 		for(x=1;x<=rventa.lema2[0];x++){
 1426              		.loc 1 449 0
 1427 001e 0122     		movs	r2, #1
 1428 0020 374B     		ldr	r3, .L119+4
 1429 0022 1A60     		str	r2, [r3]
 1430 0024 2AE0     		b	.L107
 1431              	.L111:
 450:.\LCD.c       **** 			buffer[13]=rventa.lema2[x];			
 1432              		.loc 1 450 0
 1433 0026 374A     		ldr	r2, .L119+8
 1434 0028 1344     		add	r3, r3, r2
 1435 002a 93F87F30 		ldrb	r3, [r3, #127]	@ zero_extendqisi2
 1436 002e 8DF81130 		strb	r3, [sp, #17]
 451:.\LCD.c       **** 			for(y=0;y<=17;y++){
 1437              		.loc 1 451 0
 1438 0032 0022     		movs	r2, #0
 1439 0034 344B     		ldr	r3, .L119+12
 1440 0036 1A60     		str	r2, [r3]
 1441 0038 09E0     		b	.L108
 1442              	.L109:
ARM GAS  C:\Users\diego\AppData\Local\Temp\ccI2l3me.s 			page 35


 452:.\LCD.c       ****         		LCD_1_PutChar(buffer[y]);
 1443              		.loc 1 452 0 discriminator 3
 1444 003a 06AA     		add	r2, sp, #24
 1445 003c 1344     		add	r3, r3, r2
 1446 003e 13F8140C 		ldrb	r0, [r3, #-20]	@ zero_extendqisi2
 1447 0042 FFF7FEFF 		bl	LCD_1_PutChar
 1448              	.LVL96:
 451:.\LCD.c       **** 			for(y=0;y<=17;y++){
 1449              		.loc 1 451 0 discriminator 3
 1450 0046 304A     		ldr	r2, .L119+12
 1451 0048 1368     		ldr	r3, [r2]
 1452 004a 0133     		adds	r3, r3, #1
 1453 004c 1360     		str	r3, [r2]
 1454              	.L108:
 451:.\LCD.c       **** 			for(y=0;y<=17;y++){
 1455              		.loc 1 451 0 is_stmt 0 discriminator 1
 1456 004e 2E4B     		ldr	r3, .L119+12
 1457 0050 1B68     		ldr	r3, [r3]
 1458 0052 112B     		cmp	r3, #17
 1459 0054 F1D9     		bls	.L109
 453:.\LCD.c       **** 			}
 454:.\LCD.c       **** 			if(buffer[3]==0xFF){
 1460              		.loc 1 454 0 is_stmt 1
 1461 0056 9DF80730 		ldrb	r3, [sp, #7]	@ zero_extendqisi2
 1462 005a FF2B     		cmp	r3, #255
 1463 005c 05D1     		bne	.L110
 455:.\LCD.c       **** 				buffer[2]=0x01;
 1464              		.loc 1 455 0
 1465 005e 0123     		movs	r3, #1
 1466 0060 8DF80630 		strb	r3, [sp, #6]
 456:.\LCD.c       **** 				buffer[3]=0x00;
 1467              		.loc 1 456 0
 1468 0064 0023     		movs	r3, #0
 1469 0066 8DF80730 		strb	r3, [sp, #7]
 1470              	.L110:
 457:.\LCD.c       **** 			}			
 458:.\LCD.c       **** 			buffer[3]+=15;
 1471              		.loc 1 458 0 discriminator 2
 1472 006a 9DF80730 		ldrb	r3, [sp, #7]	@ zero_extendqisi2
 1473 006e 0F33     		adds	r3, r3, #15
 1474 0070 8DF80730 		strb	r3, [sp, #7]
 449:.\LCD.c       **** 			buffer[13]=rventa.lema2[x];			
 1475              		.loc 1 449 0 discriminator 2
 1476 0074 224A     		ldr	r2, .L119+4
 1477 0076 1368     		ldr	r3, [r2]
 1478 0078 0133     		adds	r3, r3, #1
 1479 007a 1360     		str	r3, [r2]
 1480              	.L107:
 449:.\LCD.c       **** 			buffer[13]=rventa.lema2[x];			
 1481              		.loc 1 449 0 is_stmt 0 discriminator 1
 1482 007c 214B     		ldr	r3, .L119+8
 1483 007e 93F87F20 		ldrb	r2, [r3, #127]	@ zero_extendqisi2
 1484 0082 1F4B     		ldr	r3, .L119+4
 1485 0084 1B68     		ldr	r3, [r3]
 1486 0086 9A42     		cmp	r2, r3
 1487 0088 CDD2     		bcs	.L111
 1488 008a 35E0     		b	.L105
ARM GAS  C:\Users\diego\AppData\Local\Temp\ccI2l3me.s 			page 36


 1489              	.L106:
 459:.\LCD.c       **** 		}
 460:.\LCD.c       ****     }
 461:.\LCD.c       ****     else{
 462:.\LCD.c       **** 		for(x=1;x<=rventa.lema2[0];x++){
 1490              		.loc 1 462 0 is_stmt 1
 1491 008c 0122     		movs	r2, #1
 1492 008e 1C4B     		ldr	r3, .L119+4
 1493 0090 1A60     		str	r2, [r3]
 1494 0092 2AE0     		b	.L113
 1495              	.L117:
 463:.\LCD.c       **** 			buffer[13]=rventa.lema2[x];			
 1496              		.loc 1 463 0
 1497 0094 1B4A     		ldr	r2, .L119+8
 1498 0096 1344     		add	r3, r3, r2
 1499 0098 93F87F30 		ldrb	r3, [r3, #127]	@ zero_extendqisi2
 1500 009c 8DF81130 		strb	r3, [sp, #17]
 464:.\LCD.c       **** 			for(y=0;y<=17;y++){
 1501              		.loc 1 464 0
 1502 00a0 0022     		movs	r2, #0
 1503 00a2 194B     		ldr	r3, .L119+12
 1504 00a4 1A60     		str	r2, [r3]
 1505 00a6 09E0     		b	.L114
 1506              	.L115:
 465:.\LCD.c       ****         		LCD_2_PutChar(buffer[y]);
 1507              		.loc 1 465 0 discriminator 3
 1508 00a8 06AA     		add	r2, sp, #24
 1509 00aa 1344     		add	r3, r3, r2
 1510 00ac 13F8140C 		ldrb	r0, [r3, #-20]	@ zero_extendqisi2
 1511 00b0 FFF7FEFF 		bl	LCD_2_PutChar
 1512              	.LVL97:
 464:.\LCD.c       **** 			for(y=0;y<=17;y++){
 1513              		.loc 1 464 0 discriminator 3
 1514 00b4 144A     		ldr	r2, .L119+12
 1515 00b6 1368     		ldr	r3, [r2]
 1516 00b8 0133     		adds	r3, r3, #1
 1517 00ba 1360     		str	r3, [r2]
 1518              	.L114:
 464:.\LCD.c       **** 			for(y=0;y<=17;y++){
 1519              		.loc 1 464 0 is_stmt 0 discriminator 1
 1520 00bc 124B     		ldr	r3, .L119+12
 1521 00be 1B68     		ldr	r3, [r3]
 1522 00c0 112B     		cmp	r3, #17
 1523 00c2 F1D9     		bls	.L115
 466:.\LCD.c       **** 			}
 467:.\LCD.c       **** 			if(buffer[3]==0xFF){
 1524              		.loc 1 467 0 is_stmt 1
 1525 00c4 9DF80730 		ldrb	r3, [sp, #7]	@ zero_extendqisi2
 1526 00c8 FF2B     		cmp	r3, #255
 1527 00ca 05D1     		bne	.L116
 468:.\LCD.c       **** 				buffer[2]=0x01;
 1528              		.loc 1 468 0
 1529 00cc 0123     		movs	r3, #1
 1530 00ce 8DF80630 		strb	r3, [sp, #6]
 469:.\LCD.c       **** 				buffer[3]=0x00;
 1531              		.loc 1 469 0
 1532 00d2 0023     		movs	r3, #0
ARM GAS  C:\Users\diego\AppData\Local\Temp\ccI2l3me.s 			page 37


 1533 00d4 8DF80730 		strb	r3, [sp, #7]
 1534              	.L116:
 470:.\LCD.c       **** 			}			
 471:.\LCD.c       **** 			buffer[3]+=15;
 1535              		.loc 1 471 0 discriminator 2
 1536 00d8 9DF80730 		ldrb	r3, [sp, #7]	@ zero_extendqisi2
 1537 00dc 0F33     		adds	r3, r3, #15
 1538 00de 8DF80730 		strb	r3, [sp, #7]
 462:.\LCD.c       **** 			buffer[13]=rventa.lema2[x];			
 1539              		.loc 1 462 0 discriminator 2
 1540 00e2 074A     		ldr	r2, .L119+4
 1541 00e4 1368     		ldr	r3, [r2]
 1542 00e6 0133     		adds	r3, r3, #1
 1543 00e8 1360     		str	r3, [r2]
 1544              	.L113:
 462:.\LCD.c       **** 			buffer[13]=rventa.lema2[x];			
 1545              		.loc 1 462 0 is_stmt 0 discriminator 1
 1546 00ea 064B     		ldr	r3, .L119+8
 1547 00ec 93F87F20 		ldrb	r2, [r3, #127]	@ zero_extendqisi2
 1548 00f0 034B     		ldr	r3, .L119+4
 1549 00f2 1B68     		ldr	r3, [r3]
 1550 00f4 9A42     		cmp	r2, r3
 1551 00f6 CDD2     		bcs	.L117
 1552              	.L105:
 472:.\LCD.c       **** 		}
 473:.\LCD.c       ****     }	
 474:.\LCD.c       **** }
 1553              		.loc 1 474 0 is_stmt 1
 1554 00f8 06B0     		add	sp, sp, #24
 1555              		.cfi_def_cfa_offset 16
 1556              		@ sp needed
 1557 00fa 70BD     		pop	{r4, r5, r6, pc}
 1558              	.L120:
 1559              		.align	2
 1560              	.L119:
 1561 00fc 00000000 		.word	.LANCHOR0
 1562 0100 00000000 		.word	x
 1563 0104 00000000 		.word	rventa
 1564 0108 00000000 		.word	y
 1565              		.cfi_endproc
 1566              	.LFE72:
 1567              		.size	lema2_LCD, .-lema2_LCD
 1568              		.section	.text.telefono_LCD,"ax",%progbits
 1569              		.align	2
 1570              		.global	telefono_LCD
 1571              		.thumb
 1572              		.thumb_func
 1573              		.type	telefono_LCD, %function
 1574              	telefono_LCD:
 1575              	.LFB73:
 475:.\LCD.c       **** 
 476:.\LCD.c       **** /*
 477:.\LCD.c       **** ***************************************************************************************************
 478:.\LCD.c       **** *                                 			void telefono_LCD(uint8 lcd)
 479:.\LCD.c       **** *
 480:.\LCD.c       **** * Description : 
 481:.\LCD.c       **** *               
ARM GAS  C:\Users\diego\AppData\Local\Temp\ccI2l3me.s 			page 38


 482:.\LCD.c       **** *
 483:.\LCD.c       **** * Argument(s) : none
 484:.\LCD.c       **** *
 485:.\LCD.c       **** * Return(s)   : none
 486:.\LCD.c       **** *
 487:.\LCD.c       **** * Caller(s)   : 
 488:.\LCD.c       **** *
 489:.\LCD.c       **** * Note(s)     : none.
 490:.\LCD.c       **** ***************************************************************************************************
 491:.\LCD.c       **** */
 492:.\LCD.c       **** void telefono_LCD(uint8 lcd){
 1576              		.loc 1 492 0
 1577              		.cfi_startproc
 1578              		@ args = 0, pretend = 0, frame = 24
 1579              		@ frame_needed = 0, uses_anonymous_args = 0
 1580              	.LVL98:
 1581 0000 70B5     		push	{r4, r5, r6, lr}
 1582              		.cfi_def_cfa_offset 16
 1583              		.cfi_offset 4, -16
 1584              		.cfi_offset 5, -12
 1585              		.cfi_offset 6, -8
 1586              		.cfi_offset 14, -4
 1587 0002 86B0     		sub	sp, sp, #24
 1588              		.cfi_def_cfa_offset 40
 1589 0004 0646     		mov	r6, r0
 493:.\LCD.c       **** 	uint8 buffer[18]={0xAA,0x98,0x00,0xA5,0x00,0xEE,0x23,0xC5,0x02,0x00,0x00,0xFF,0xFF,0x20,0xCC,0x33,
 1590              		.loc 1 493 0
 1591 0006 01AC     		add	r4, sp, #4
 1592 0008 3C4D     		ldr	r5, .L135
 1593 000a 55F8B00F 		ldr	r0, [r5, #176]!	@ unaligned
 1594              	.LVL99:
 1595 000e 6968     		ldr	r1, [r5, #4]	@ unaligned
 1596 0010 AA68     		ldr	r2, [r5, #8]	@ unaligned
 1597 0012 EB68     		ldr	r3, [r5, #12]	@ unaligned
 1598 0014 0FC4     		stmia	r4!, {r0, r1, r2, r3}
 1599 0016 2B8A     		ldrh	r3, [r5, #16]	@ unaligned
 1600 0018 2380     		strh	r3, [r4]	@ unaligned
 494:.\LCD.c       ****     if(lcd==1){
 1601              		.loc 1 494 0
 1602 001a 012E     		cmp	r6, #1
 1603 001c 36D1     		bne	.L122
 495:.\LCD.c       **** 		for(x=1;x<=rventa.telefono[0];x++){
 1604              		.loc 1 495 0
 1605 001e 0122     		movs	r2, #1
 1606 0020 374B     		ldr	r3, .L135+4
 1607 0022 1A60     		str	r2, [r3]
 1608 0024 2AE0     		b	.L123
 1609              	.L127:
 496:.\LCD.c       **** 			buffer[13]=rventa.telefono[x];			
 1610              		.loc 1 496 0
 1611 0026 374A     		ldr	r2, .L135+8
 1612 0028 1344     		add	r3, r3, r2
 1613 002a 93F82F30 		ldrb	r3, [r3, #47]	@ zero_extendqisi2
 1614 002e 8DF81130 		strb	r3, [sp, #17]
 497:.\LCD.c       **** 			for(y=0;y<=17;y++){
 1615              		.loc 1 497 0
 1616 0032 0022     		movs	r2, #0
ARM GAS  C:\Users\diego\AppData\Local\Temp\ccI2l3me.s 			page 39


 1617 0034 344B     		ldr	r3, .L135+12
 1618 0036 1A60     		str	r2, [r3]
 1619 0038 09E0     		b	.L124
 1620              	.L125:
 498:.\LCD.c       ****         		LCD_1_PutChar(buffer[y]);
 1621              		.loc 1 498 0 discriminator 3
 1622 003a 06AA     		add	r2, sp, #24
 1623 003c 1344     		add	r3, r3, r2
 1624 003e 13F8140C 		ldrb	r0, [r3, #-20]	@ zero_extendqisi2
 1625 0042 FFF7FEFF 		bl	LCD_1_PutChar
 1626              	.LVL100:
 497:.\LCD.c       **** 			for(y=0;y<=17;y++){
 1627              		.loc 1 497 0 discriminator 3
 1628 0046 304A     		ldr	r2, .L135+12
 1629 0048 1368     		ldr	r3, [r2]
 1630 004a 0133     		adds	r3, r3, #1
 1631 004c 1360     		str	r3, [r2]
 1632              	.L124:
 497:.\LCD.c       **** 			for(y=0;y<=17;y++){
 1633              		.loc 1 497 0 is_stmt 0 discriminator 1
 1634 004e 2E4B     		ldr	r3, .L135+12
 1635 0050 1B68     		ldr	r3, [r3]
 1636 0052 112B     		cmp	r3, #17
 1637 0054 F1D9     		bls	.L125
 499:.\LCD.c       **** 			}
 500:.\LCD.c       **** 			if(buffer[3]==0xFF){
 1638              		.loc 1 500 0 is_stmt 1
 1639 0056 9DF80730 		ldrb	r3, [sp, #7]	@ zero_extendqisi2
 1640 005a FF2B     		cmp	r3, #255
 1641 005c 05D1     		bne	.L126
 501:.\LCD.c       **** 				buffer[2]=0x01;
 1642              		.loc 1 501 0
 1643 005e 0123     		movs	r3, #1
 1644 0060 8DF80630 		strb	r3, [sp, #6]
 502:.\LCD.c       **** 				buffer[3]=0x00;
 1645              		.loc 1 502 0
 1646 0064 0023     		movs	r3, #0
 1647 0066 8DF80730 		strb	r3, [sp, #7]
 1648              	.L126:
 503:.\LCD.c       **** 			}			
 504:.\LCD.c       **** 			buffer[3]+=15;
 1649              		.loc 1 504 0 discriminator 2
 1650 006a 9DF80730 		ldrb	r3, [sp, #7]	@ zero_extendqisi2
 1651 006e 0F33     		adds	r3, r3, #15
 1652 0070 8DF80730 		strb	r3, [sp, #7]
 495:.\LCD.c       **** 			buffer[13]=rventa.telefono[x];			
 1653              		.loc 1 495 0 discriminator 2
 1654 0074 224A     		ldr	r2, .L135+4
 1655 0076 1368     		ldr	r3, [r2]
 1656 0078 0133     		adds	r3, r3, #1
 1657 007a 1360     		str	r3, [r2]
 1658              	.L123:
 495:.\LCD.c       **** 			buffer[13]=rventa.telefono[x];			
 1659              		.loc 1 495 0 is_stmt 0 discriminator 1
 1660 007c 214B     		ldr	r3, .L135+8
 1661 007e 93F82F20 		ldrb	r2, [r3, #47]	@ zero_extendqisi2
 1662 0082 1F4B     		ldr	r3, .L135+4
ARM GAS  C:\Users\diego\AppData\Local\Temp\ccI2l3me.s 			page 40


 1663 0084 1B68     		ldr	r3, [r3]
 1664 0086 9A42     		cmp	r2, r3
 1665 0088 CDD2     		bcs	.L127
 1666 008a 35E0     		b	.L121
 1667              	.L122:
 505:.\LCD.c       **** 		}
 506:.\LCD.c       ****     }
 507:.\LCD.c       ****     else{
 508:.\LCD.c       **** 		for(x=1;x<=rventa.telefono[0];x++){
 1668              		.loc 1 508 0 is_stmt 1
 1669 008c 0122     		movs	r2, #1
 1670 008e 1C4B     		ldr	r3, .L135+4
 1671 0090 1A60     		str	r2, [r3]
 1672 0092 2AE0     		b	.L129
 1673              	.L133:
 509:.\LCD.c       **** 			buffer[13]=rventa.telefono[x];			
 1674              		.loc 1 509 0
 1675 0094 1B4A     		ldr	r2, .L135+8
 1676 0096 1344     		add	r3, r3, r2
 1677 0098 93F82F30 		ldrb	r3, [r3, #47]	@ zero_extendqisi2
 1678 009c 8DF81130 		strb	r3, [sp, #17]
 510:.\LCD.c       **** 			for(y=0;y<=17;y++){
 1679              		.loc 1 510 0
 1680 00a0 0022     		movs	r2, #0
 1681 00a2 194B     		ldr	r3, .L135+12
 1682 00a4 1A60     		str	r2, [r3]
 1683 00a6 09E0     		b	.L130
 1684              	.L131:
 511:.\LCD.c       ****         		LCD_2_PutChar(buffer[y]);
 1685              		.loc 1 511 0 discriminator 3
 1686 00a8 06AA     		add	r2, sp, #24
 1687 00aa 1344     		add	r3, r3, r2
 1688 00ac 13F8140C 		ldrb	r0, [r3, #-20]	@ zero_extendqisi2
 1689 00b0 FFF7FEFF 		bl	LCD_2_PutChar
 1690              	.LVL101:
 510:.\LCD.c       **** 			for(y=0;y<=17;y++){
 1691              		.loc 1 510 0 discriminator 3
 1692 00b4 144A     		ldr	r2, .L135+12
 1693 00b6 1368     		ldr	r3, [r2]
 1694 00b8 0133     		adds	r3, r3, #1
 1695 00ba 1360     		str	r3, [r2]
 1696              	.L130:
 510:.\LCD.c       **** 			for(y=0;y<=17;y++){
 1697              		.loc 1 510 0 is_stmt 0 discriminator 1
 1698 00bc 124B     		ldr	r3, .L135+12
 1699 00be 1B68     		ldr	r3, [r3]
 1700 00c0 112B     		cmp	r3, #17
 1701 00c2 F1D9     		bls	.L131
 512:.\LCD.c       **** 			}
 513:.\LCD.c       **** 			if(buffer[3]==0xFF){
 1702              		.loc 1 513 0 is_stmt 1
 1703 00c4 9DF80730 		ldrb	r3, [sp, #7]	@ zero_extendqisi2
 1704 00c8 FF2B     		cmp	r3, #255
 1705 00ca 05D1     		bne	.L132
 514:.\LCD.c       **** 				buffer[2]=0x01;
 1706              		.loc 1 514 0
 1707 00cc 0123     		movs	r3, #1
ARM GAS  C:\Users\diego\AppData\Local\Temp\ccI2l3me.s 			page 41


 1708 00ce 8DF80630 		strb	r3, [sp, #6]
 515:.\LCD.c       **** 				buffer[3]=0x00;
 1709              		.loc 1 515 0
 1710 00d2 0023     		movs	r3, #0
 1711 00d4 8DF80730 		strb	r3, [sp, #7]
 1712              	.L132:
 516:.\LCD.c       **** 			}			
 517:.\LCD.c       **** 			buffer[3]+=15;
 1713              		.loc 1 517 0 discriminator 2
 1714 00d8 9DF80730 		ldrb	r3, [sp, #7]	@ zero_extendqisi2
 1715 00dc 0F33     		adds	r3, r3, #15
 1716 00de 8DF80730 		strb	r3, [sp, #7]
 508:.\LCD.c       **** 			buffer[13]=rventa.telefono[x];			
 1717              		.loc 1 508 0 discriminator 2
 1718 00e2 074A     		ldr	r2, .L135+4
 1719 00e4 1368     		ldr	r3, [r2]
 1720 00e6 0133     		adds	r3, r3, #1
 1721 00e8 1360     		str	r3, [r2]
 1722              	.L129:
 508:.\LCD.c       **** 			buffer[13]=rventa.telefono[x];			
 1723              		.loc 1 508 0 is_stmt 0 discriminator 1
 1724 00ea 064B     		ldr	r3, .L135+8
 1725 00ec 93F82F20 		ldrb	r2, [r3, #47]	@ zero_extendqisi2
 1726 00f0 034B     		ldr	r3, .L135+4
 1727 00f2 1B68     		ldr	r3, [r3]
 1728 00f4 9A42     		cmp	r2, r3
 1729 00f6 CDD2     		bcs	.L133
 1730              	.L121:
 518:.\LCD.c       **** 		}
 519:.\LCD.c       ****     }	
 520:.\LCD.c       **** }
 1731              		.loc 1 520 0 is_stmt 1
 1732 00f8 06B0     		add	sp, sp, #24
 1733              		.cfi_def_cfa_offset 16
 1734              		@ sp needed
 1735 00fa 70BD     		pop	{r4, r5, r6, pc}
 1736              	.L136:
 1737              		.align	2
 1738              	.L135:
 1739 00fc 00000000 		.word	.LANCHOR0
 1740 0100 00000000 		.word	x
 1741 0104 00000000 		.word	rventa
 1742 0108 00000000 		.word	y
 1743              		.cfi_endproc
 1744              	.LFE73:
 1745              		.size	telefono_LCD, .-telefono_LCD
 1746              		.section	.text.nit_LCD,"ax",%progbits
 1747              		.align	2
 1748              		.global	nit_LCD
 1749              		.thumb
 1750              		.thumb_func
 1751              		.type	nit_LCD, %function
 1752              	nit_LCD:
 1753              	.LFB74:
 521:.\LCD.c       **** 
 522:.\LCD.c       **** /*
 523:.\LCD.c       **** ***************************************************************************************************
ARM GAS  C:\Users\diego\AppData\Local\Temp\ccI2l3me.s 			page 42


 524:.\LCD.c       **** *                                 			void nit_LCD(uint8 lcd)
 525:.\LCD.c       **** *
 526:.\LCD.c       **** * Description : 
 527:.\LCD.c       **** *               
 528:.\LCD.c       **** *
 529:.\LCD.c       **** * Argument(s) : none
 530:.\LCD.c       **** *
 531:.\LCD.c       **** * Return(s)   : none
 532:.\LCD.c       **** *
 533:.\LCD.c       **** * Caller(s)   : 
 534:.\LCD.c       **** *
 535:.\LCD.c       **** * Note(s)     : none.
 536:.\LCD.c       **** ***************************************************************************************************
 537:.\LCD.c       **** */
 538:.\LCD.c       **** void nit_LCD(uint8 lcd){
 1754              		.loc 1 538 0
 1755              		.cfi_startproc
 1756              		@ args = 0, pretend = 0, frame = 24
 1757              		@ frame_needed = 0, uses_anonymous_args = 0
 1758              	.LVL102:
 1759 0000 70B5     		push	{r4, r5, r6, lr}
 1760              		.cfi_def_cfa_offset 16
 1761              		.cfi_offset 4, -16
 1762              		.cfi_offset 5, -12
 1763              		.cfi_offset 6, -8
 1764              		.cfi_offset 14, -4
 1765 0002 86B0     		sub	sp, sp, #24
 1766              		.cfi_def_cfa_offset 40
 1767 0004 0646     		mov	r6, r0
 539:.\LCD.c       **** 	uint8 buffer[18]={0xAA,0x98,0x00,0xA5,0x01,0x99,0x23,0xC5,0x02,0x00,0x00,0xFF,0xFF,0x20,0xCC,0x33,
 1768              		.loc 1 539 0
 1769 0006 01AC     		add	r4, sp, #4
 1770 0008 3C4D     		ldr	r5, .L151
 1771 000a 55F8C40F 		ldr	r0, [r5, #196]!	@ unaligned
 1772              	.LVL103:
 1773 000e 6968     		ldr	r1, [r5, #4]	@ unaligned
 1774 0010 AA68     		ldr	r2, [r5, #8]	@ unaligned
 1775 0012 EB68     		ldr	r3, [r5, #12]	@ unaligned
 1776 0014 0FC4     		stmia	r4!, {r0, r1, r2, r3}
 1777 0016 2B8A     		ldrh	r3, [r5, #16]	@ unaligned
 1778 0018 2380     		strh	r3, [r4]	@ unaligned
 540:.\LCD.c       ****     if(lcd==1){
 1779              		.loc 1 540 0
 1780 001a 012E     		cmp	r6, #1
 1781 001c 36D1     		bne	.L138
 541:.\LCD.c       **** 		for(x=1;(x<=rventa.nit[0]&&x<=19);x++){
 1782              		.loc 1 541 0
 1783 001e 0122     		movs	r2, #1
 1784 0020 374B     		ldr	r3, .L151+4
 1785 0022 1A60     		str	r2, [r3]
 1786 0024 29E0     		b	.L139
 1787              	.L144:
 542:.\LCD.c       **** 			buffer[13]=rventa.nit[x];			
 1788              		.loc 1 542 0
 1789 0026 374A     		ldr	r2, .L151+8
 1790 0028 1344     		add	r3, r3, r2
 1791 002a 9B7F     		ldrb	r3, [r3, #30]	@ zero_extendqisi2
ARM GAS  C:\Users\diego\AppData\Local\Temp\ccI2l3me.s 			page 43


 1792 002c 8DF81130 		strb	r3, [sp, #17]
 543:.\LCD.c       **** 			for(y=0;y<=17;y++){
 1793              		.loc 1 543 0
 1794 0030 0022     		movs	r2, #0
 1795 0032 354B     		ldr	r3, .L151+12
 1796 0034 1A60     		str	r2, [r3]
 1797 0036 09E0     		b	.L140
 1798              	.L141:
 544:.\LCD.c       ****         		LCD_1_PutChar(buffer[y]);
 1799              		.loc 1 544 0 discriminator 3
 1800 0038 06AA     		add	r2, sp, #24
 1801 003a 1344     		add	r3, r3, r2
 1802 003c 13F8140C 		ldrb	r0, [r3, #-20]	@ zero_extendqisi2
 1803 0040 FFF7FEFF 		bl	LCD_1_PutChar
 1804              	.LVL104:
 543:.\LCD.c       **** 			for(y=0;y<=17;y++){
 1805              		.loc 1 543 0 discriminator 3
 1806 0044 304A     		ldr	r2, .L151+12
 1807 0046 1368     		ldr	r3, [r2]
 1808 0048 0133     		adds	r3, r3, #1
 1809 004a 1360     		str	r3, [r2]
 1810              	.L140:
 543:.\LCD.c       **** 			for(y=0;y<=17;y++){
 1811              		.loc 1 543 0 is_stmt 0 discriminator 1
 1812 004c 2E4B     		ldr	r3, .L151+12
 1813 004e 1B68     		ldr	r3, [r3]
 1814 0050 112B     		cmp	r3, #17
 1815 0052 F1D9     		bls	.L141
 545:.\LCD.c       **** 			}
 546:.\LCD.c       **** 			if(buffer[3]==0xFF){
 1816              		.loc 1 546 0 is_stmt 1
 1817 0054 9DF80730 		ldrb	r3, [sp, #7]	@ zero_extendqisi2
 1818 0058 FF2B     		cmp	r3, #255
 1819 005a 05D1     		bne	.L142
 547:.\LCD.c       **** 				buffer[2]=0x01;
 1820              		.loc 1 547 0
 1821 005c 0123     		movs	r3, #1
 1822 005e 8DF80630 		strb	r3, [sp, #6]
 548:.\LCD.c       **** 				buffer[3]=0x00;
 1823              		.loc 1 548 0
 1824 0062 0023     		movs	r3, #0
 1825 0064 8DF80730 		strb	r3, [sp, #7]
 1826              	.L142:
 549:.\LCD.c       **** 			}			
 550:.\LCD.c       **** 			buffer[3]+=15;
 1827              		.loc 1 550 0 discriminator 2
 1828 0068 9DF80730 		ldrb	r3, [sp, #7]	@ zero_extendqisi2
 1829 006c 0F33     		adds	r3, r3, #15
 1830 006e 8DF80730 		strb	r3, [sp, #7]
 541:.\LCD.c       **** 			buffer[13]=rventa.nit[x];			
 1831              		.loc 1 541 0 discriminator 2
 1832 0072 234A     		ldr	r2, .L151+4
 1833 0074 1368     		ldr	r3, [r2]
 1834 0076 0133     		adds	r3, r3, #1
 1835 0078 1360     		str	r3, [r2]
 1836              	.L139:
 541:.\LCD.c       **** 			buffer[13]=rventa.nit[x];			
ARM GAS  C:\Users\diego\AppData\Local\Temp\ccI2l3me.s 			page 44


 1837              		.loc 1 541 0 is_stmt 0 discriminator 1
 1838 007a 224B     		ldr	r3, .L151+8
 1839 007c 9A7F     		ldrb	r2, [r3, #30]	@ zero_extendqisi2
 1840 007e 204B     		ldr	r3, .L151+4
 1841 0080 1B68     		ldr	r3, [r3]
 1842 0082 9A42     		cmp	r2, r3
 1843 0084 38D3     		bcc	.L137
 541:.\LCD.c       **** 			buffer[13]=rventa.nit[x];			
 1844              		.loc 1 541 0 discriminator 3
 1845 0086 132B     		cmp	r3, #19
 1846 0088 CDD9     		bls	.L144
 1847 008a 35E0     		b	.L137
 1848              	.L138:
 551:.\LCD.c       **** 		}
 552:.\LCD.c       ****     }
 553:.\LCD.c       ****     else{
 554:.\LCD.c       **** 		for(x=1;(x<=rventa.nit[0]&&x<=19);x++){
 1849              		.loc 1 554 0 is_stmt 1
 1850 008c 0122     		movs	r2, #1
 1851 008e 1C4B     		ldr	r3, .L151+4
 1852 0090 1A60     		str	r2, [r3]
 1853 0092 29E0     		b	.L145
 1854              	.L149:
 555:.\LCD.c       **** 			buffer[13]=rventa.nit[x];			
 1855              		.loc 1 555 0
 1856 0094 1B4A     		ldr	r2, .L151+8
 1857 0096 1344     		add	r3, r3, r2
 1858 0098 9B7F     		ldrb	r3, [r3, #30]	@ zero_extendqisi2
 1859 009a 8DF81130 		strb	r3, [sp, #17]
 556:.\LCD.c       **** 			for(y=0;y<=17;y++){
 1860              		.loc 1 556 0
 1861 009e 0022     		movs	r2, #0
 1862 00a0 194B     		ldr	r3, .L151+12
 1863 00a2 1A60     		str	r2, [r3]
 1864 00a4 09E0     		b	.L146
 1865              	.L147:
 557:.\LCD.c       ****         		LCD_2_PutChar(buffer[y]);
 1866              		.loc 1 557 0 discriminator 3
 1867 00a6 06AA     		add	r2, sp, #24
 1868 00a8 1344     		add	r3, r3, r2
 1869 00aa 13F8140C 		ldrb	r0, [r3, #-20]	@ zero_extendqisi2
 1870 00ae FFF7FEFF 		bl	LCD_2_PutChar
 1871              	.LVL105:
 556:.\LCD.c       **** 			for(y=0;y<=17;y++){
 1872              		.loc 1 556 0 discriminator 3
 1873 00b2 154A     		ldr	r2, .L151+12
 1874 00b4 1368     		ldr	r3, [r2]
 1875 00b6 0133     		adds	r3, r3, #1
 1876 00b8 1360     		str	r3, [r2]
 1877              	.L146:
 556:.\LCD.c       **** 			for(y=0;y<=17;y++){
 1878              		.loc 1 556 0 is_stmt 0 discriminator 1
 1879 00ba 134B     		ldr	r3, .L151+12
 1880 00bc 1B68     		ldr	r3, [r3]
 1881 00be 112B     		cmp	r3, #17
 1882 00c0 F1D9     		bls	.L147
 558:.\LCD.c       **** 			}
ARM GAS  C:\Users\diego\AppData\Local\Temp\ccI2l3me.s 			page 45


 559:.\LCD.c       **** 			if(buffer[3]==0xFF){
 1883              		.loc 1 559 0 is_stmt 1
 1884 00c2 9DF80730 		ldrb	r3, [sp, #7]	@ zero_extendqisi2
 1885 00c6 FF2B     		cmp	r3, #255
 1886 00c8 05D1     		bne	.L148
 560:.\LCD.c       **** 				buffer[2]=0x01;
 1887              		.loc 1 560 0
 1888 00ca 0123     		movs	r3, #1
 1889 00cc 8DF80630 		strb	r3, [sp, #6]
 561:.\LCD.c       **** 				buffer[3]=0x00;
 1890              		.loc 1 561 0
 1891 00d0 0023     		movs	r3, #0
 1892 00d2 8DF80730 		strb	r3, [sp, #7]
 1893              	.L148:
 562:.\LCD.c       **** 			}			
 563:.\LCD.c       **** 			buffer[3]+=15;
 1894              		.loc 1 563 0 discriminator 2
 1895 00d6 9DF80730 		ldrb	r3, [sp, #7]	@ zero_extendqisi2
 1896 00da 0F33     		adds	r3, r3, #15
 1897 00dc 8DF80730 		strb	r3, [sp, #7]
 554:.\LCD.c       **** 			buffer[13]=rventa.nit[x];			
 1898              		.loc 1 554 0 discriminator 2
 1899 00e0 074A     		ldr	r2, .L151+4
 1900 00e2 1368     		ldr	r3, [r2]
 1901 00e4 0133     		adds	r3, r3, #1
 1902 00e6 1360     		str	r3, [r2]
 1903              	.L145:
 554:.\LCD.c       **** 			buffer[13]=rventa.nit[x];			
 1904              		.loc 1 554 0 is_stmt 0 discriminator 1
 1905 00e8 064B     		ldr	r3, .L151+8
 1906 00ea 9A7F     		ldrb	r2, [r3, #30]	@ zero_extendqisi2
 1907 00ec 044B     		ldr	r3, .L151+4
 1908 00ee 1B68     		ldr	r3, [r3]
 1909 00f0 9A42     		cmp	r2, r3
 1910 00f2 01D3     		bcc	.L137
 554:.\LCD.c       **** 			buffer[13]=rventa.nit[x];			
 1911              		.loc 1 554 0 discriminator 3
 1912 00f4 132B     		cmp	r3, #19
 1913 00f6 CDD9     		bls	.L149
 1914              	.L137:
 564:.\LCD.c       **** 		}
 565:.\LCD.c       ****     }	
 566:.\LCD.c       **** }
 1915              		.loc 1 566 0 is_stmt 1
 1916 00f8 06B0     		add	sp, sp, #24
 1917              		.cfi_def_cfa_offset 16
 1918              		@ sp needed
 1919 00fa 70BD     		pop	{r4, r5, r6, pc}
 1920              	.L152:
 1921              		.align	2
 1922              	.L151:
 1923 00fc 00000000 		.word	.LANCHOR0
 1924 0100 00000000 		.word	x
 1925 0104 00000000 		.word	rventa
 1926 0108 00000000 		.word	y
 1927              		.cfi_endproc
 1928              	.LFE74:
ARM GAS  C:\Users\diego\AppData\Local\Temp\ccI2l3me.s 			page 46


 1929              		.size	nit_LCD, .-nit_LCD
 1930              		.section	.text.Cuenta_LCD,"ax",%progbits
 1931              		.align	2
 1932              		.global	Cuenta_LCD
 1933              		.thumb
 1934              		.thumb_func
 1935              		.type	Cuenta_LCD, %function
 1936              	Cuenta_LCD:
 1937              	.LFB75:
 567:.\LCD.c       **** 
 568:.\LCD.c       **** /*
 569:.\LCD.c       **** ***************************************************************************************************
 570:.\LCD.c       **** *                                 			void Cuenta_LCD(uint8 lcd)
 571:.\LCD.c       **** *
 572:.\LCD.c       **** * Description : 
 573:.\LCD.c       **** *               
 574:.\LCD.c       **** *
 575:.\LCD.c       **** * Argument(s) : none
 576:.\LCD.c       **** *
 577:.\LCD.c       **** * Return(s)   : none
 578:.\LCD.c       **** *
 579:.\LCD.c       **** * Caller(s)   : 
 580:.\LCD.c       **** *
 581:.\LCD.c       **** * Note(s)     : none.
 582:.\LCD.c       **** ***************************************************************************************************
 583:.\LCD.c       **** */
 584:.\LCD.c       **** void Cuenta_LCD(uint8 lcd){
 1938              		.loc 1 584 0
 1939              		.cfi_startproc
 1940              		@ args = 0, pretend = 0, frame = 24
 1941              		@ frame_needed = 0, uses_anonymous_args = 0
 1942              	.LVL106:
 1943 0000 70B5     		push	{r4, r5, r6, lr}
 1944              		.cfi_def_cfa_offset 16
 1945              		.cfi_offset 4, -16
 1946              		.cfi_offset 5, -12
 1947              		.cfi_offset 6, -8
 1948              		.cfi_offset 14, -4
 1949 0002 86B0     		sub	sp, sp, #24
 1950              		.cfi_def_cfa_offset 40
 1951 0004 0646     		mov	r6, r0
 585:.\LCD.c       **** 	uint8 buffer[18]={0xAA,0x98,0x00,0xA5,0x01,0x32,0x23,0xC5,0x02,0x00,0x00,0xFF,0xFF,0x20,0xCC,0x33,
 1952              		.loc 1 585 0
 1953 0006 01AC     		add	r4, sp, #4
 1954 0008 394D     		ldr	r5, .L165
 1955 000a 55F8D80F 		ldr	r0, [r5, #216]!	@ unaligned
 1956              	.LVL107:
 1957 000e 6968     		ldr	r1, [r5, #4]	@ unaligned
 1958 0010 AA68     		ldr	r2, [r5, #8]	@ unaligned
 1959 0012 EB68     		ldr	r3, [r5, #12]	@ unaligned
 1960 0014 0FC4     		stmia	r4!, {r0, r1, r2, r3}
 1961 0016 2B8A     		ldrh	r3, [r5, #16]	@ unaligned
 1962 0018 2380     		strh	r3, [r4]	@ unaligned
 586:.\LCD.c       ****     if(lcd==1){
 1963              		.loc 1 586 0
 1964 001a 012E     		cmp	r6, #1
 1965 001c 34D1     		bne	.L154
ARM GAS  C:\Users\diego\AppData\Local\Temp\ccI2l3me.s 			page 47


 587:.\LCD.c       **** 		for(x=1;(x<=Buffer_LCD1.cuenta[0]&&x<=25);x++){
 1966              		.loc 1 587 0
 1967 001e 0122     		movs	r2, #1
 1968 0020 344B     		ldr	r3, .L165+4
 1969 0022 1A60     		str	r2, [r3]
 1970 0024 26E0     		b	.L155
 1971              	.L159:
 588:.\LCD.c       **** 			buffer[3]=((0xB8)+(0x0F*x))&0xFF;
 1972              		.loc 1 588 0
 1973 0026 C3EB0312 		rsb	r2, r3, r3, lsl #4
 1974 002a 483A     		subs	r2, r2, #72
 1975 002c 8DF80720 		strb	r2, [sp, #7]
 589:.\LCD.c       **** 			buffer[2]=((0xB8)+(0x0F*x))>>8;			
 1976              		.loc 1 589 0
 1977 0030 C3EB0312 		rsb	r2, r3, r3, lsl #4
 1978 0034 B832     		adds	r2, r2, #184
 1979 0036 120A     		lsrs	r2, r2, #8
 1980 0038 8DF80620 		strb	r2, [sp, #6]
 590:.\LCD.c       **** 			buffer[13]=Buffer_LCD1.cuenta[x];			
 1981              		.loc 1 590 0
 1982 003c 2E4A     		ldr	r2, .L165+8
 1983 003e 1344     		add	r3, r3, r2
 1984 0040 93F84730 		ldrb	r3, [r3, #71]	@ zero_extendqisi2
 1985 0044 8DF81130 		strb	r3, [sp, #17]
 591:.\LCD.c       **** 			for(y=0;y<=17;y++){
 1986              		.loc 1 591 0
 1987 0048 0022     		movs	r2, #0
 1988 004a 2C4B     		ldr	r3, .L165+12
 1989 004c 1A60     		str	r2, [r3]
 1990 004e 09E0     		b	.L156
 1991              	.L157:
 592:.\LCD.c       ****         		LCD_1_PutChar(buffer[y]);
 1992              		.loc 1 592 0 discriminator 3
 1993 0050 06AA     		add	r2, sp, #24
 1994 0052 1344     		add	r3, r3, r2
 1995 0054 13F8140C 		ldrb	r0, [r3, #-20]	@ zero_extendqisi2
 1996 0058 FFF7FEFF 		bl	LCD_1_PutChar
 1997              	.LVL108:
 591:.\LCD.c       **** 			for(y=0;y<=17;y++){
 1998              		.loc 1 591 0 discriminator 3
 1999 005c 274A     		ldr	r2, .L165+12
 2000 005e 1368     		ldr	r3, [r2]
 2001 0060 0133     		adds	r3, r3, #1
 2002 0062 1360     		str	r3, [r2]
 2003              	.L156:
 591:.\LCD.c       **** 			for(y=0;y<=17;y++){
 2004              		.loc 1 591 0 is_stmt 0 discriminator 1
 2005 0064 254B     		ldr	r3, .L165+12
 2006 0066 1B68     		ldr	r3, [r3]
 2007 0068 112B     		cmp	r3, #17
 2008 006a F1D9     		bls	.L157
 587:.\LCD.c       **** 			buffer[3]=((0xB8)+(0x0F*x))&0xFF;
 2009              		.loc 1 587 0 is_stmt 1 discriminator 2
 2010 006c 214A     		ldr	r2, .L165+4
 2011 006e 1368     		ldr	r3, [r2]
 2012 0070 0133     		adds	r3, r3, #1
 2013 0072 1360     		str	r3, [r2]
ARM GAS  C:\Users\diego\AppData\Local\Temp\ccI2l3me.s 			page 48


 2014              	.L155:
 587:.\LCD.c       **** 			buffer[3]=((0xB8)+(0x0F*x))&0xFF;
 2015              		.loc 1 587 0 is_stmt 0 discriminator 1
 2016 0074 204B     		ldr	r3, .L165+8
 2017 0076 93F84720 		ldrb	r2, [r3, #71]	@ zero_extendqisi2
 2018 007a 1E4B     		ldr	r3, .L165+4
 2019 007c 1B68     		ldr	r3, [r3]
 2020 007e 9A42     		cmp	r2, r3
 2021 0080 34D3     		bcc	.L153
 587:.\LCD.c       **** 			buffer[3]=((0xB8)+(0x0F*x))&0xFF;
 2022              		.loc 1 587 0 discriminator 3
 2023 0082 192B     		cmp	r3, #25
 2024 0084 CFD9     		bls	.L159
 2025 0086 31E0     		b	.L153
 2026              	.L154:
 593:.\LCD.c       **** 			}	
 594:.\LCD.c       **** 		}
 595:.\LCD.c       ****     }
 596:.\LCD.c       ****     else{
 597:.\LCD.c       **** 		for(x=1;x<=Buffer_LCD2.cuenta[0];x++){
 2027              		.loc 1 597 0 is_stmt 1
 2028 0088 0122     		movs	r2, #1
 2029 008a 1A4B     		ldr	r3, .L165+4
 2030 008c 1A60     		str	r2, [r3]
 2031 008e 26E0     		b	.L160
 2032              	.L163:
 598:.\LCD.c       **** 			buffer[3]=((0xB8)+(0x0F*x))&0xFF;
 2033              		.loc 1 598 0
 2034 0090 C3EB0312 		rsb	r2, r3, r3, lsl #4
 2035 0094 483A     		subs	r2, r2, #72
 2036 0096 8DF80720 		strb	r2, [sp, #7]
 599:.\LCD.c       **** 			buffer[2]=((0xB8)+(0x0F*x))>>8;				
 2037              		.loc 1 599 0
 2038 009a C3EB0312 		rsb	r2, r3, r3, lsl #4
 2039 009e B832     		adds	r2, r2, #184
 2040 00a0 120A     		lsrs	r2, r2, #8
 2041 00a2 8DF80620 		strb	r2, [sp, #6]
 600:.\LCD.c       **** 			buffer[13]=Buffer_LCD2.cuenta[x];			
 2042              		.loc 1 600 0
 2043 00a6 164A     		ldr	r2, .L165+16
 2044 00a8 1344     		add	r3, r3, r2
 2045 00aa 93F84730 		ldrb	r3, [r3, #71]	@ zero_extendqisi2
 2046 00ae 8DF81130 		strb	r3, [sp, #17]
 601:.\LCD.c       **** 			for(y=0;y<=17;y++){
 2047              		.loc 1 601 0
 2048 00b2 0022     		movs	r2, #0
 2049 00b4 114B     		ldr	r3, .L165+12
 2050 00b6 1A60     		str	r2, [r3]
 2051 00b8 09E0     		b	.L161
 2052              	.L162:
 602:.\LCD.c       ****         		LCD_2_PutChar(buffer[y]);
 2053              		.loc 1 602 0 discriminator 3
 2054 00ba 06AA     		add	r2, sp, #24
 2055 00bc 1344     		add	r3, r3, r2
 2056 00be 13F8140C 		ldrb	r0, [r3, #-20]	@ zero_extendqisi2
 2057 00c2 FFF7FEFF 		bl	LCD_2_PutChar
 2058              	.LVL109:
ARM GAS  C:\Users\diego\AppData\Local\Temp\ccI2l3me.s 			page 49


 601:.\LCD.c       **** 			for(y=0;y<=17;y++){
 2059              		.loc 1 601 0 discriminator 3
 2060 00c6 0D4A     		ldr	r2, .L165+12
 2061 00c8 1368     		ldr	r3, [r2]
 2062 00ca 0133     		adds	r3, r3, #1
 2063 00cc 1360     		str	r3, [r2]
 2064              	.L161:
 601:.\LCD.c       **** 			for(y=0;y<=17;y++){
 2065              		.loc 1 601 0 is_stmt 0 discriminator 1
 2066 00ce 0B4B     		ldr	r3, .L165+12
 2067 00d0 1B68     		ldr	r3, [r3]
 2068 00d2 112B     		cmp	r3, #17
 2069 00d4 F1D9     		bls	.L162
 597:.\LCD.c       **** 			buffer[3]=((0xB8)+(0x0F*x))&0xFF;
 2070              		.loc 1 597 0 is_stmt 1 discriminator 2
 2071 00d6 074A     		ldr	r2, .L165+4
 2072 00d8 1368     		ldr	r3, [r2]
 2073 00da 0133     		adds	r3, r3, #1
 2074 00dc 1360     		str	r3, [r2]
 2075              	.L160:
 597:.\LCD.c       **** 			buffer[3]=((0xB8)+(0x0F*x))&0xFF;
 2076              		.loc 1 597 0 is_stmt 0 discriminator 1
 2077 00de 084B     		ldr	r3, .L165+16
 2078 00e0 93F84720 		ldrb	r2, [r3, #71]	@ zero_extendqisi2
 2079 00e4 034B     		ldr	r3, .L165+4
 2080 00e6 1B68     		ldr	r3, [r3]
 2081 00e8 9A42     		cmp	r2, r3
 2082 00ea D1D2     		bcs	.L163
 2083              	.L153:
 603:.\LCD.c       **** 			}	
 604:.\LCD.c       **** 		}
 605:.\LCD.c       ****     }	
 606:.\LCD.c       **** }
 2084              		.loc 1 606 0 is_stmt 1
 2085 00ec 06B0     		add	sp, sp, #24
 2086              		.cfi_def_cfa_offset 16
 2087              		@ sp needed
 2088 00ee 70BD     		pop	{r4, r5, r6, pc}
 2089              	.L166:
 2090              		.align	2
 2091              	.L165:
 2092 00f0 00000000 		.word	.LANCHOR0
 2093 00f4 00000000 		.word	x
 2094 00f8 00000000 		.word	Buffer_LCD1
 2095 00fc 00000000 		.word	y
 2096 0100 00000000 		.word	Buffer_LCD2
 2097              		.cfi_endproc
 2098              	.LFE75:
 2099              		.size	Cuenta_LCD, .-Cuenta_LCD
 2100              		.section	.text.Placa_LCD,"ax",%progbits
 2101              		.align	2
 2102              		.global	Placa_LCD
 2103              		.thumb
 2104              		.thumb_func
 2105              		.type	Placa_LCD, %function
 2106              	Placa_LCD:
 2107              	.LFB76:
ARM GAS  C:\Users\diego\AppData\Local\Temp\ccI2l3me.s 			page 50


 607:.\LCD.c       **** 
 608:.\LCD.c       **** /*
 609:.\LCD.c       **** ***************************************************************************************************
 610:.\LCD.c       **** *                                 			void Cuenta_LCD(uint8 lcd)
 611:.\LCD.c       **** *
 612:.\LCD.c       **** * Description : 
 613:.\LCD.c       **** *               
 614:.\LCD.c       **** *
 615:.\LCD.c       **** * Argument(s) : none
 616:.\LCD.c       **** *
 617:.\LCD.c       **** * Return(s)   : none
 618:.\LCD.c       **** *
 619:.\LCD.c       **** * Caller(s)   : 
 620:.\LCD.c       **** *
 621:.\LCD.c       **** * Note(s)     : none.
 622:.\LCD.c       **** ***************************************************************************************************
 623:.\LCD.c       **** */
 624:.\LCD.c       **** void Placa_LCD(uint8 lcd){
 2108              		.loc 1 624 0
 2109              		.cfi_startproc
 2110              		@ args = 0, pretend = 0, frame = 24
 2111              		@ frame_needed = 0, uses_anonymous_args = 0
 2112              	.LVL110:
 2113 0000 70B5     		push	{r4, r5, r6, lr}
 2114              		.cfi_def_cfa_offset 16
 2115              		.cfi_offset 4, -16
 2116              		.cfi_offset 5, -12
 2117              		.cfi_offset 6, -8
 2118              		.cfi_offset 14, -4
 2119 0002 86B0     		sub	sp, sp, #24
 2120              		.cfi_def_cfa_offset 40
 2121 0004 0646     		mov	r6, r0
 625:.\LCD.c       **** 	uint8 buffer[18]={0xAA,0x98,0x00,0xA5,0x00,0xC1,0x23,0xC5,0x02,0x00,0x00,0xFF,0xFF,0x20,0xCC,0x33,
 2122              		.loc 1 625 0
 2123 0006 01AC     		add	r4, sp, #4
 2124 0008 3A4D     		ldr	r5, .L179
 2125 000a 55F8EC0F 		ldr	r0, [r5, #236]!	@ unaligned
 2126              	.LVL111:
 2127 000e 6968     		ldr	r1, [r5, #4]	@ unaligned
 2128 0010 AA68     		ldr	r2, [r5, #8]	@ unaligned
 2129 0012 EB68     		ldr	r3, [r5, #12]	@ unaligned
 2130 0014 0FC4     		stmia	r4!, {r0, r1, r2, r3}
 2131 0016 2B8A     		ldrh	r3, [r5, #16]	@ unaligned
 2132 0018 2380     		strh	r3, [r4]	@ unaligned
 626:.\LCD.c       ****     if(lcd==1){
 2133              		.loc 1 626 0
 2134 001a 012E     		cmp	r6, #1
 2135 001c 34D1     		bne	.L168
 627:.\LCD.c       **** 		for(x=1;(x<=Buffer_LCD1.placa[0]&&x<=20);x++){
 2136              		.loc 1 627 0
 2137 001e 0122     		movs	r2, #1
 2138 0020 354B     		ldr	r3, .L179+4
 2139 0022 1A60     		str	r2, [r3]
 2140 0024 26E0     		b	.L169
 2141              	.L173:
 628:.\LCD.c       **** 			buffer[3]=((0xB8)+(0x0F*x))&0xFF;
 2142              		.loc 1 628 0
ARM GAS  C:\Users\diego\AppData\Local\Temp\ccI2l3me.s 			page 51


 2143 0026 C3EB0312 		rsb	r2, r3, r3, lsl #4
 2144 002a 483A     		subs	r2, r2, #72
 2145 002c 8DF80720 		strb	r2, [sp, #7]
 629:.\LCD.c       **** 			buffer[2]=((0xB8)+(0x0F*x))>>8;			
 2146              		.loc 1 629 0
 2147 0030 C3EB0312 		rsb	r2, r3, r3, lsl #4
 2148 0034 B832     		adds	r2, r2, #184
 2149 0036 120A     		lsrs	r2, r2, #8
 2150 0038 8DF80620 		strb	r2, [sp, #6]
 630:.\LCD.c       **** 			buffer[13]=Buffer_LCD1.placa[x];			
 2151              		.loc 1 630 0
 2152 003c 2F4A     		ldr	r2, .L179+8
 2153 003e 1344     		add	r3, r3, r2
 2154 0040 93F86530 		ldrb	r3, [r3, #101]	@ zero_extendqisi2
 2155 0044 8DF81130 		strb	r3, [sp, #17]
 631:.\LCD.c       **** 			for(y=0;y<=17;y++){
 2156              		.loc 1 631 0
 2157 0048 0022     		movs	r2, #0
 2158 004a 2D4B     		ldr	r3, .L179+12
 2159 004c 1A60     		str	r2, [r3]
 2160 004e 09E0     		b	.L170
 2161              	.L171:
 632:.\LCD.c       ****         		LCD_1_PutChar(buffer[y]);
 2162              		.loc 1 632 0 discriminator 3
 2163 0050 06AA     		add	r2, sp, #24
 2164 0052 1344     		add	r3, r3, r2
 2165 0054 13F8140C 		ldrb	r0, [r3, #-20]	@ zero_extendqisi2
 2166 0058 FFF7FEFF 		bl	LCD_1_PutChar
 2167              	.LVL112:
 631:.\LCD.c       **** 			for(y=0;y<=17;y++){
 2168              		.loc 1 631 0 discriminator 3
 2169 005c 284A     		ldr	r2, .L179+12
 2170 005e 1368     		ldr	r3, [r2]
 2171 0060 0133     		adds	r3, r3, #1
 2172 0062 1360     		str	r3, [r2]
 2173              	.L170:
 631:.\LCD.c       **** 			for(y=0;y<=17;y++){
 2174              		.loc 1 631 0 is_stmt 0 discriminator 1
 2175 0064 264B     		ldr	r3, .L179+12
 2176 0066 1B68     		ldr	r3, [r3]
 2177 0068 112B     		cmp	r3, #17
 2178 006a F1D9     		bls	.L171
 627:.\LCD.c       **** 			buffer[3]=((0xB8)+(0x0F*x))&0xFF;
 2179              		.loc 1 627 0 is_stmt 1 discriminator 2
 2180 006c 224A     		ldr	r2, .L179+4
 2181 006e 1368     		ldr	r3, [r2]
 2182 0070 0133     		adds	r3, r3, #1
 2183 0072 1360     		str	r3, [r2]
 2184              	.L169:
 627:.\LCD.c       **** 			buffer[3]=((0xB8)+(0x0F*x))&0xFF;
 2185              		.loc 1 627 0 is_stmt 0 discriminator 1
 2186 0074 214B     		ldr	r3, .L179+8
 2187 0076 93F86520 		ldrb	r2, [r3, #101]	@ zero_extendqisi2
 2188 007a 1F4B     		ldr	r3, .L179+4
 2189 007c 1B68     		ldr	r3, [r3]
 2190 007e 9A42     		cmp	r2, r3
 2191 0080 36D3     		bcc	.L167
ARM GAS  C:\Users\diego\AppData\Local\Temp\ccI2l3me.s 			page 52


 627:.\LCD.c       **** 			buffer[3]=((0xB8)+(0x0F*x))&0xFF;
 2192              		.loc 1 627 0 discriminator 3
 2193 0082 142B     		cmp	r3, #20
 2194 0084 CFD9     		bls	.L173
 2195 0086 33E0     		b	.L167
 2196              	.L168:
 633:.\LCD.c       **** 			}	
 634:.\LCD.c       **** 		}
 635:.\LCD.c       ****     }
 636:.\LCD.c       ****     else{
 637:.\LCD.c       **** 		for(x=1;(x<=Buffer_LCD2.placa[0]&&x<=20);x++){
 2197              		.loc 1 637 0 is_stmt 1
 2198 0088 0122     		movs	r2, #1
 2199 008a 1B4B     		ldr	r3, .L179+4
 2200 008c 1A60     		str	r2, [r3]
 2201 008e 26E0     		b	.L174
 2202              	.L177:
 638:.\LCD.c       **** 			buffer[3]=((0xB8)+(0x0F*x))&0xFF;
 2203              		.loc 1 638 0
 2204 0090 C3EB0312 		rsb	r2, r3, r3, lsl #4
 2205 0094 483A     		subs	r2, r2, #72
 2206 0096 8DF80720 		strb	r2, [sp, #7]
 639:.\LCD.c       **** 			buffer[2]=((0xB8)+(0x0F*x))>>8;				
 2207              		.loc 1 639 0
 2208 009a C3EB0312 		rsb	r2, r3, r3, lsl #4
 2209 009e B832     		adds	r2, r2, #184
 2210 00a0 120A     		lsrs	r2, r2, #8
 2211 00a2 8DF80620 		strb	r2, [sp, #6]
 640:.\LCD.c       **** 			buffer[13]=Buffer_LCD2.placa[x];			
 2212              		.loc 1 640 0
 2213 00a6 174A     		ldr	r2, .L179+16
 2214 00a8 1344     		add	r3, r3, r2
 2215 00aa 93F86530 		ldrb	r3, [r3, #101]	@ zero_extendqisi2
 2216 00ae 8DF81130 		strb	r3, [sp, #17]
 641:.\LCD.c       **** 			for(y=0;y<=17;y++){
 2217              		.loc 1 641 0
 2218 00b2 0022     		movs	r2, #0
 2219 00b4 124B     		ldr	r3, .L179+12
 2220 00b6 1A60     		str	r2, [r3]
 2221 00b8 09E0     		b	.L175
 2222              	.L176:
 642:.\LCD.c       ****         		LCD_2_PutChar(buffer[y]);
 2223              		.loc 1 642 0 discriminator 3
 2224 00ba 06AA     		add	r2, sp, #24
 2225 00bc 1344     		add	r3, r3, r2
 2226 00be 13F8140C 		ldrb	r0, [r3, #-20]	@ zero_extendqisi2
 2227 00c2 FFF7FEFF 		bl	LCD_2_PutChar
 2228              	.LVL113:
 641:.\LCD.c       **** 			for(y=0;y<=17;y++){
 2229              		.loc 1 641 0 discriminator 3
 2230 00c6 0E4A     		ldr	r2, .L179+12
 2231 00c8 1368     		ldr	r3, [r2]
 2232 00ca 0133     		adds	r3, r3, #1
 2233 00cc 1360     		str	r3, [r2]
 2234              	.L175:
 641:.\LCD.c       **** 			for(y=0;y<=17;y++){
 2235              		.loc 1 641 0 is_stmt 0 discriminator 1
ARM GAS  C:\Users\diego\AppData\Local\Temp\ccI2l3me.s 			page 53


 2236 00ce 0C4B     		ldr	r3, .L179+12
 2237 00d0 1B68     		ldr	r3, [r3]
 2238 00d2 112B     		cmp	r3, #17
 2239 00d4 F1D9     		bls	.L176
 637:.\LCD.c       **** 			buffer[3]=((0xB8)+(0x0F*x))&0xFF;
 2240              		.loc 1 637 0 is_stmt 1 discriminator 2
 2241 00d6 084A     		ldr	r2, .L179+4
 2242 00d8 1368     		ldr	r3, [r2]
 2243 00da 0133     		adds	r3, r3, #1
 2244 00dc 1360     		str	r3, [r2]
 2245              	.L174:
 637:.\LCD.c       **** 			buffer[3]=((0xB8)+(0x0F*x))&0xFF;
 2246              		.loc 1 637 0 is_stmt 0 discriminator 1
 2247 00de 094B     		ldr	r3, .L179+16
 2248 00e0 93F86520 		ldrb	r2, [r3, #101]	@ zero_extendqisi2
 2249 00e4 044B     		ldr	r3, .L179+4
 2250 00e6 1B68     		ldr	r3, [r3]
 2251 00e8 9A42     		cmp	r2, r3
 2252 00ea 01D3     		bcc	.L167
 637:.\LCD.c       **** 			buffer[3]=((0xB8)+(0x0F*x))&0xFF;
 2253              		.loc 1 637 0 discriminator 3
 2254 00ec 142B     		cmp	r3, #20
 2255 00ee CFD9     		bls	.L177
 2256              	.L167:
 643:.\LCD.c       **** 			}	
 644:.\LCD.c       **** 		}
 645:.\LCD.c       ****     }	
 646:.\LCD.c       **** }
 2257              		.loc 1 646 0 is_stmt 1
 2258 00f0 06B0     		add	sp, sp, #24
 2259              		.cfi_def_cfa_offset 16
 2260              		@ sp needed
 2261 00f2 70BD     		pop	{r4, r5, r6, pc}
 2262              	.L180:
 2263              		.align	2
 2264              	.L179:
 2265 00f4 00000000 		.word	.LANCHOR0
 2266 00f8 00000000 		.word	x
 2267 00fc 00000000 		.word	Buffer_LCD1
 2268 0100 00000000 		.word	y
 2269 0104 00000000 		.word	Buffer_LCD2
 2270              		.cfi_endproc
 2271              	.LFE76:
 2272              		.size	Placa_LCD, .-Placa_LCD
 2273              		.section	.text.writemini_LCD,"ax",%progbits
 2274              		.align	2
 2275              		.global	writemini_LCD
 2276              		.thumb
 2277              		.thumb_func
 2278              		.type	writemini_LCD, %function
 2279              	writemini_LCD:
 2280              	.LFB77:
 647:.\LCD.c       **** 
 648:.\LCD.c       **** /*
 649:.\LCD.c       **** ***************************************************************************************************
 650:.\LCD.c       **** *                             void writemini_LCD(uint8 lcd, uint8 dato, uint8 pos)
 651:.\LCD.c       **** *
ARM GAS  C:\Users\diego\AppData\Local\Temp\ccI2l3me.s 			page 54


 652:.\LCD.c       **** * Description : 
 653:.\LCD.c       **** *               
 654:.\LCD.c       **** *
 655:.\LCD.c       **** * Argument(s) : none
 656:.\LCD.c       **** *
 657:.\LCD.c       **** * Return(s)   : none
 658:.\LCD.c       **** *
 659:.\LCD.c       **** * Caller(s)   : 
 660:.\LCD.c       **** *
 661:.\LCD.c       **** * Note(s)     : none.
 662:.\LCD.c       **** ***************************************************************************************************
 663:.\LCD.c       **** */
 664:.\LCD.c       **** void writemini_LCD(uint8 lcd, uint8 dato, uint16 pos){
 2281              		.loc 1 664 0
 2282              		.cfi_startproc
 2283              		@ args = 0, pretend = 0, frame = 0
 2284              		@ frame_needed = 0, uses_anonymous_args = 0
 2285              	.LVL114:
 2286 0000 38B5     		push	{r3, r4, r5, lr}
 2287              		.cfi_def_cfa_offset 16
 2288              		.cfi_offset 3, -16
 2289              		.cfi_offset 4, -12
 2290              		.cfi_offset 5, -8
 2291              		.cfi_offset 14, -4
 2292 0002 0D46     		mov	r5, r1
 2293 0004 1446     		mov	r4, r2
 665:.\LCD.c       ****     if(lcd==1){
 2294              		.loc 1 665 0
 2295 0006 0128     		cmp	r0, #1
 2296 0008 3ED1     		bne	.L182
 666:.\LCD.c       ****         LCD_1_PutChar(0xAA);
 2297              		.loc 1 666 0
 2298 000a AA20     		movs	r0, #170
 2299              	.LVL115:
 2300 000c FFF7FEFF 		bl	LCD_1_PutChar
 2301              	.LVL116:
 667:.\LCD.c       ****         LCD_1_PutChar(0x98);
 2302              		.loc 1 667 0
 2303 0010 9820     		movs	r0, #152
 2304 0012 FFF7FEFF 		bl	LCD_1_PutChar
 2305              	.LVL117:
 668:.\LCD.c       ****         LCD_1_PutChar(((0x30)+(0x0F*pos))>>8);
 2306              		.loc 1 668 0
 2307 0016 C4EB0410 		rsb	r0, r4, r4, lsl #4
 2308 001a 3030     		adds	r0, r0, #48
 2309 001c C0F30720 		ubfx	r0, r0, #8, #8
 2310 0020 FFF7FEFF 		bl	LCD_1_PutChar
 2311              	.LVL118:
 669:.\LCD.c       ****         LCD_1_PutChar(((0x30)+(0x0F*pos))&0xFF);
 2312              		.loc 1 669 0
 2313 0024 C4EB0414 		rsb	r4, r4, r4, lsl #4
 2314 0028 04F13000 		add	r0, r4, #48
 2315 002c C0B2     		uxtb	r0, r0
 2316 002e FFF7FEFF 		bl	LCD_1_PutChar
 2317              	.LVL119:
 670:.\LCD.c       ****         LCD_1_PutChar(0x00);
 2318              		.loc 1 670 0
ARM GAS  C:\Users\diego\AppData\Local\Temp\ccI2l3me.s 			page 55


 2319 0032 0020     		movs	r0, #0
 2320 0034 FFF7FEFF 		bl	LCD_1_PutChar
 2321              	.LVL120:
 671:.\LCD.c       ****         LCD_1_PutChar(0x30);
 2322              		.loc 1 671 0
 2323 0038 3020     		movs	r0, #48
 2324 003a FFF7FEFF 		bl	LCD_1_PutChar
 2325              	.LVL121:
 672:.\LCD.c       ****         LCD_1_PutChar(0x23);
 2326              		.loc 1 672 0
 2327 003e 2320     		movs	r0, #35
 2328 0040 FFF7FEFF 		bl	LCD_1_PutChar
 2329              	.LVL122:
 673:.\LCD.c       ****         LCD_1_PutChar(0xC5);
 2330              		.loc 1 673 0
 2331 0044 C520     		movs	r0, #197
 2332 0046 FFF7FEFF 		bl	LCD_1_PutChar
 2333              	.LVL123:
 674:.\LCD.c       ****         LCD_1_PutChar(0x02);
 2334              		.loc 1 674 0
 2335 004a 0220     		movs	r0, #2
 2336 004c FFF7FEFF 		bl	LCD_1_PutChar
 2337              	.LVL124:
 675:.\LCD.c       ****         LCD_1_PutChar(0x00);
 2338              		.loc 1 675 0
 2339 0050 0020     		movs	r0, #0
 2340 0052 FFF7FEFF 		bl	LCD_1_PutChar
 2341              	.LVL125:
 676:.\LCD.c       ****         LCD_1_PutChar(0x00);
 2342              		.loc 1 676 0
 2343 0056 0020     		movs	r0, #0
 2344 0058 FFF7FEFF 		bl	LCD_1_PutChar
 2345              	.LVL126:
 677:.\LCD.c       ****         LCD_1_PutChar(0xFF);
 2346              		.loc 1 677 0
 2347 005c FF20     		movs	r0, #255
 2348 005e FFF7FEFF 		bl	LCD_1_PutChar
 2349              	.LVL127:
 678:.\LCD.c       ****         LCD_1_PutChar(0xFF);
 2350              		.loc 1 678 0
 2351 0062 FF20     		movs	r0, #255
 2352 0064 FFF7FEFF 		bl	LCD_1_PutChar
 2353              	.LVL128:
 679:.\LCD.c       ****         LCD_1_PutChar(dato);
 2354              		.loc 1 679 0
 2355 0068 2846     		mov	r0, r5
 2356 006a FFF7FEFF 		bl	LCD_1_PutChar
 2357              	.LVL129:
 680:.\LCD.c       ****         LCD_1_PutChar(0xCC);
 2358              		.loc 1 680 0
 2359 006e CC20     		movs	r0, #204
 2360 0070 FFF7FEFF 		bl	LCD_1_PutChar
 2361              	.LVL130:
 681:.\LCD.c       ****         LCD_1_PutChar(0x33);
 2362              		.loc 1 681 0
 2363 0074 3320     		movs	r0, #51
 2364 0076 FFF7FEFF 		bl	LCD_1_PutChar
ARM GAS  C:\Users\diego\AppData\Local\Temp\ccI2l3me.s 			page 56


 2365              	.LVL131:
 682:.\LCD.c       ****         LCD_1_PutChar(0xC3);
 2366              		.loc 1 682 0
 2367 007a C320     		movs	r0, #195
 2368 007c FFF7FEFF 		bl	LCD_1_PutChar
 2369              	.LVL132:
 683:.\LCD.c       ****         LCD_1_PutChar(0x3C);
 2370              		.loc 1 683 0
 2371 0080 3C20     		movs	r0, #60
 2372 0082 FFF7FEFF 		bl	LCD_1_PutChar
 2373              	.LVL133:
 2374 0086 38BD     		pop	{r3, r4, r5, pc}
 2375              	.LVL134:
 2376              	.L182:
 684:.\LCD.c       ****     }
 685:.\LCD.c       ****     else{
 686:.\LCD.c       ****         LCD_2_PutChar(0xAA);
 2377              		.loc 1 686 0
 2378 0088 AA20     		movs	r0, #170
 2379              	.LVL135:
 2380 008a FFF7FEFF 		bl	LCD_2_PutChar
 2381              	.LVL136:
 687:.\LCD.c       ****         LCD_2_PutChar(0x98);
 2382              		.loc 1 687 0
 2383 008e 9820     		movs	r0, #152
 2384 0090 FFF7FEFF 		bl	LCD_2_PutChar
 2385              	.LVL137:
 688:.\LCD.c       ****         LCD_2_PutChar(((0x30)+(0x0F*pos))>>8);
 2386              		.loc 1 688 0
 2387 0094 C4EB0410 		rsb	r0, r4, r4, lsl #4
 2388 0098 3030     		adds	r0, r0, #48
 2389 009a C0F30720 		ubfx	r0, r0, #8, #8
 2390 009e FFF7FEFF 		bl	LCD_2_PutChar
 2391              	.LVL138:
 689:.\LCD.c       ****         LCD_2_PutChar(((0x30)+(0x0F*pos))&0xFF);
 2392              		.loc 1 689 0
 2393 00a2 C4EB0414 		rsb	r4, r4, r4, lsl #4
 2394 00a6 04F13000 		add	r0, r4, #48
 2395 00aa C0B2     		uxtb	r0, r0
 2396 00ac FFF7FEFF 		bl	LCD_2_PutChar
 2397              	.LVL139:
 690:.\LCD.c       ****         LCD_2_PutChar(0x00);
 2398              		.loc 1 690 0
 2399 00b0 0020     		movs	r0, #0
 2400 00b2 FFF7FEFF 		bl	LCD_2_PutChar
 2401              	.LVL140:
 691:.\LCD.c       ****         LCD_2_PutChar(0x30);
 2402              		.loc 1 691 0
 2403 00b6 3020     		movs	r0, #48
 2404 00b8 FFF7FEFF 		bl	LCD_2_PutChar
 2405              	.LVL141:
 692:.\LCD.c       ****         LCD_2_PutChar(0x23);
 2406              		.loc 1 692 0
 2407 00bc 2320     		movs	r0, #35
 2408 00be FFF7FEFF 		bl	LCD_2_PutChar
 2409              	.LVL142:
 693:.\LCD.c       ****         LCD_2_PutChar(0xC5);
ARM GAS  C:\Users\diego\AppData\Local\Temp\ccI2l3me.s 			page 57


 2410              		.loc 1 693 0
 2411 00c2 C520     		movs	r0, #197
 2412 00c4 FFF7FEFF 		bl	LCD_2_PutChar
 2413              	.LVL143:
 694:.\LCD.c       ****         LCD_2_PutChar(0x02);
 2414              		.loc 1 694 0
 2415 00c8 0220     		movs	r0, #2
 2416 00ca FFF7FEFF 		bl	LCD_2_PutChar
 2417              	.LVL144:
 695:.\LCD.c       ****         LCD_2_PutChar(0x00);
 2418              		.loc 1 695 0
 2419 00ce 0020     		movs	r0, #0
 2420 00d0 FFF7FEFF 		bl	LCD_2_PutChar
 2421              	.LVL145:
 696:.\LCD.c       ****         LCD_2_PutChar(0x00);
 2422              		.loc 1 696 0
 2423 00d4 0020     		movs	r0, #0
 2424 00d6 FFF7FEFF 		bl	LCD_2_PutChar
 2425              	.LVL146:
 697:.\LCD.c       ****         LCD_2_PutChar(0xFF);
 2426              		.loc 1 697 0
 2427 00da FF20     		movs	r0, #255
 2428 00dc FFF7FEFF 		bl	LCD_2_PutChar
 2429              	.LVL147:
 698:.\LCD.c       ****         LCD_2_PutChar(0xFF);
 2430              		.loc 1 698 0
 2431 00e0 FF20     		movs	r0, #255
 2432 00e2 FFF7FEFF 		bl	LCD_2_PutChar
 2433              	.LVL148:
 699:.\LCD.c       ****         LCD_2_PutChar(dato);
 2434              		.loc 1 699 0
 2435 00e6 2846     		mov	r0, r5
 2436 00e8 FFF7FEFF 		bl	LCD_2_PutChar
 2437              	.LVL149:
 700:.\LCD.c       ****         LCD_2_PutChar(0xCC);
 2438              		.loc 1 700 0
 2439 00ec CC20     		movs	r0, #204
 2440 00ee FFF7FEFF 		bl	LCD_2_PutChar
 2441              	.LVL150:
 701:.\LCD.c       ****         LCD_2_PutChar(0x33);
 2442              		.loc 1 701 0
 2443 00f2 3320     		movs	r0, #51
 2444 00f4 FFF7FEFF 		bl	LCD_2_PutChar
 2445              	.LVL151:
 702:.\LCD.c       ****         LCD_2_PutChar(0xC3);
 2446              		.loc 1 702 0
 2447 00f8 C320     		movs	r0, #195
 2448 00fa FFF7FEFF 		bl	LCD_2_PutChar
 2449              	.LVL152:
 703:.\LCD.c       ****         LCD_2_PutChar(0x3C);   
 2450              		.loc 1 703 0
 2451 00fe 3C20     		movs	r0, #60
 2452 0100 FFF7FEFF 		bl	LCD_2_PutChar
 2453              	.LVL153:
 2454 0104 38BD     		pop	{r3, r4, r5, pc}
 2455              		.cfi_endproc
 2456              	.LFE77:
ARM GAS  C:\Users\diego\AppData\Local\Temp\ccI2l3me.s 			page 58


 2457              		.size	writemini_LCD, .-writemini_LCD
 2458              		.comm	rventa2,225,4
 2459              		.comm	rventa,225,4
 2460              		.comm	producto,1,1
 2461              		.comm	grado4,1,1
 2462              		.comm	grado3,1,1
 2463              		.comm	grado2,1,1
 2464              		.comm	grado1,1,1
 2465              		.comm	modulo,400,4
 2466              		.comm	w,4,4
 2467              		.comm	z,4,4
 2468              		.comm	y,4,4
 2469              		.comm	x,4,4
 2470              		.comm	d,76,4
 2471              		.comm	c,76,4
 2472              		.comm	b,76,4
 2473              		.comm	a,76,4
 2474              		.comm	estado_0,1,1
 2475              		.comm	Buffer_LCD4,152,4
 2476              		.comm	Buffer_LCD3,152,4
 2477              		.comm	Buffer_LCD2,152,4
 2478              		.comm	Buffer_LCD1,152,4
 2479              		.comm	no_venta,4,4
 2480              		.comm	id_corte,2,2
 2481              		.comm	venta_activa4,1,1
 2482              		.comm	venta_activa2,1,1
 2483              		.comm	venta_activa3,1,1
 2484              		.comm	venta_activa,1,1
 2485              		.comm	seleccion_pos2,1,1
 2486              		.comm	seleccion_pos,1,1
 2487              		.comm	estado_lcd2,1,1
 2488              		.comm	estado_lcd1,1,1
 2489              		.comm	flujo_pos4,1,1
 2490              		.comm	flujo_pos3,1,1
 2491              		.comm	flujo_pos2,1,1
 2492              		.comm	flujo_pos,1,1
 2493              		.comm	imagen,1,1
 2494              		.comm	no_imprime2,1,1
 2495              		.comm	no_imprime,1,1
 2496              		.comm	n_copias,1,4
 2497              		.comm	a_copias,1,1
 2498              		.comm	producto4n,11,4
 2499              		.comm	producto3n,11,4
 2500              		.comm	producto2n,11,4
 2501              		.comm	producto1n,11,4
 2502              		.comm	nombreproducto,1,1
 2503              		.comm	id_venta,6,4
 2504              		.comm	copia_recibo2,2,4
 2505              		.comm	copia_recibo,2,4
 2506              		.comm	print2,2,4
 2507              		.comm	print1,2,4
 2508              		.comm	crc_total,1,1
 2509              		.comm	pos_ibutton,1,1
 2510              		.comm	fecha_corte,6,4
 2511              		.comm	decimalD,1,1
 2512              		.comm	decimalV,1,1
 2513              		.comm	tipo_imp,2,4
ARM GAS  C:\Users\diego\AppData\Local\Temp\ccI2l3me.s 			page 59


 2514              		.comm	bandera,2,4
 2515              		.comm	ppux10,1,1
 2516              		.comm	teclado2,1,1
 2517              		.comm	teclado,1,1
 2518              		.comm	resultado,14,4
 2519              		.comm	buffer_i2c,64,4
 2520              		.comm	productod2,1,1
 2521              		.comm	productod1,1,1
 2522              		.comm	productob2,1,1
 2523              		.comm	productob1,1,1
 2524              		.comm	producto4b,1,1
 2525              		.comm	producto3b,1,1
 2526              		.comm	producto2b,1,1
 2527              		.comm	producto1b,1,1
 2528              		.comm	producto4,1,1
 2529              		.comm	producto3,1,1
 2530              		.comm	producto2,1,1
 2531              		.comm	producto1,1,1
 2532              		.comm	versurt,1,1
 2533              		.comm	comas2,1,1
 2534              		.comm	comas1,1,1
 2535              		.comm	teclas2,1,1
 2536              		.comm	teclas1,1,1
 2537              		.comm	cont1,1,1
 2538              		.comm	flujo_LCD4,1,1
 2539              		.comm	flujo_LCD3,1,1
 2540              		.comm	flujo_LCD2,1,1
 2541              		.comm	flujo_LCD,1,1
 2542 0106 00BF     		.section	.rodata
 2543              		.align	2
 2544              		.set	.LANCHOR0,. + 0
 2545              	.LC0:
 2546 0000 AA       		.byte	-86
 2547 0001 98       		.byte	-104
 2548 0002 00       		.byte	0
 2549 0003 D0       		.byte	-48
 2550 0004 00       		.byte	0
 2551 0005 BB       		.byte	-69
 2552 0006 24       		.byte	36
 2553 0007 C5       		.byte	-59
 2554 0008 02       		.byte	2
 2555 0009 00       		.byte	0
 2556 000a 00       		.byte	0
 2557 000b FF       		.byte	-1
 2558 000c FF       		.byte	-1
 2559 000d 30       		.byte	48
 2560 000e 30       		.byte	48
 2561 000f 3A       		.byte	58
 2562 0010 30       		.byte	48
 2563 0011 30       		.byte	48
 2564 0012 41       		.byte	65
 2565 0013 6D       		.byte	109
 2566 0014 CC       		.byte	-52
 2567 0015 33       		.byte	51
 2568 0016 C3       		.byte	-61
 2569 0017 3C       		.byte	60
 2570              	.LC1:
ARM GAS  C:\Users\diego\AppData\Local\Temp\ccI2l3me.s 			page 60


 2571 0018 AA       		.byte	-86
 2572 0019 98       		.byte	-104
 2573 001a 00       		.byte	0
 2574 001b CB       		.byte	-53
 2575 001c 01       		.byte	1
 2576 001d 27       		.byte	39
 2577 001e 24       		.byte	36
 2578 001f C5       		.byte	-59
 2579 0020 02       		.byte	2
 2580 0021 00       		.byte	0
 2581 0022 00       		.byte	0
 2582 0023 FF       		.byte	-1
 2583 0024 FF       		.byte	-1
 2584 0025 30       		.byte	48
 2585 0026 30       		.byte	48
 2586 0027 2F       		.byte	47
 2587 0028 30       		.byte	48
 2588 0029 30       		.byte	48
 2589 002a 2F       		.byte	47
 2590 002b 30       		.byte	48
 2591 002c 30       		.byte	48
 2592 002d CC       		.byte	-52
 2593 002e 33       		.byte	51
 2594 002f C3       		.byte	-61
 2595 0030 3C       		.byte	60
 2596 0031 000000   		.space	3
 2597              	.LC2:
 2598 0034 AA       		.byte	-86
 2599 0035 98       		.byte	-104
 2600 0036 00       		.byte	0
 2601 0037 A5       		.byte	-91
 2602 0038 00       		.byte	0
 2603 0039 7E       		.byte	126
 2604 003a 23       		.byte	35
 2605 003b C5       		.byte	-59
 2606 003c 02       		.byte	2
 2607 003d 00       		.byte	0
 2608 003e 00       		.byte	0
 2609 003f FF       		.byte	-1
 2610 0040 FF       		.byte	-1
 2611 0041 20       		.byte	32
 2612 0042 CC       		.byte	-52
 2613 0043 33       		.byte	51
 2614 0044 C3       		.byte	-61
 2615 0045 3C       		.byte	60
 2616 0046 0000     		.space	2
 2617              	.LC3:
 2618 0048 AA       		.byte	-86
 2619 0049 98       		.byte	-104
 2620 004a 01       		.byte	1
 2621 004b 80       		.byte	-128
 2622 004c 01       		.byte	1
 2623 004d 60       		.byte	96
 2624 004e 24       		.byte	36
 2625 004f C5       		.byte	-59
 2626 0050 02       		.byte	2
 2627 0051 00       		.byte	0
ARM GAS  C:\Users\diego\AppData\Local\Temp\ccI2l3me.s 			page 61


 2628 0052 00       		.byte	0
 2629 0053 FF       		.byte	-1
 2630 0054 FF       		.byte	-1
 2631 0055 24       		.byte	36
 2632 0056 20       		.byte	32
 2633 0057 20       		.byte	32
 2634 0058 20       		.byte	32
 2635 0059 20       		.byte	32
 2636 005a 20       		.byte	32
 2637 005b CC       		.byte	-52
 2638 005c 33       		.byte	51
 2639 005d C3       		.byte	-61
 2640 005e 3C       		.byte	60
 2641 005f 00       		.space	1
 2642              	.LC4:
 2643 0060 AA       		.byte	-86
 2644 0061 98       		.byte	-104
 2645 0062 02       		.byte	2
 2646 0063 20       		.byte	32
 2647 0064 01       		.byte	1
 2648 0065 60       		.byte	96
 2649 0066 24       		.byte	36
 2650 0067 C5       		.byte	-59
 2651 0068 02       		.byte	2
 2652 0069 00       		.byte	0
 2653 006a 00       		.byte	0
 2654 006b FF       		.byte	-1
 2655 006c FF       		.byte	-1
 2656 006d 20       		.byte	32
 2657 006e CC       		.byte	-52
 2658 006f 33       		.byte	51
 2659 0070 C3       		.byte	-61
 2660 0071 3C       		.byte	60
 2661 0072 0000     		.space	2
 2662              	.LC5:
 2663 0074 AA       		.byte	-86
 2664 0075 98       		.byte	-104
 2665 0076 00       		.byte	0
 2666 0077 A5       		.byte	-91
 2667 0078 00       		.byte	0
 2668 0079 B7       		.byte	-73
 2669 007a 23       		.byte	35
 2670 007b C5       		.byte	-59
 2671 007c 02       		.byte	2
 2672 007d 00       		.byte	0
 2673 007e 00       		.byte	0
 2674 007f FF       		.byte	-1
 2675 0080 FF       		.byte	-1
 2676 0081 20       		.byte	32
 2677 0082 CC       		.byte	-52
 2678 0083 33       		.byte	51
 2679 0084 C3       		.byte	-61
 2680 0085 3C       		.byte	60
 2681 0086 0000     		.space	2
 2682              	.LC6:
 2683 0088 AA       		.byte	-86
 2684 0089 98       		.byte	-104
ARM GAS  C:\Users\diego\AppData\Local\Temp\ccI2l3me.s 			page 62


 2685 008a 00       		.byte	0
 2686 008b A5       		.byte	-91
 2687 008c 01       		.byte	1
 2688 008d 27       		.byte	39
 2689 008e 23       		.byte	35
 2690 008f C5       		.byte	-59
 2691 0090 02       		.byte	2
 2692 0091 00       		.byte	0
 2693 0092 00       		.byte	0
 2694 0093 FF       		.byte	-1
 2695 0094 FF       		.byte	-1
 2696 0095 20       		.byte	32
 2697 0096 CC       		.byte	-52
 2698 0097 33       		.byte	51
 2699 0098 C3       		.byte	-61
 2700 0099 3C       		.byte	60
 2701 009a 0000     		.space	2
 2702              	.LC7:
 2703 009c AA       		.byte	-86
 2704 009d 98       		.byte	-104
 2705 009e 00       		.byte	0
 2706 009f A5       		.byte	-91
 2707 00a0 01       		.byte	1
 2708 00a1 5F       		.byte	95
 2709 00a2 23       		.byte	35
 2710 00a3 C5       		.byte	-59
 2711 00a4 02       		.byte	2
 2712 00a5 00       		.byte	0
 2713 00a6 00       		.byte	0
 2714 00a7 FF       		.byte	-1
 2715 00a8 FF       		.byte	-1
 2716 00a9 20       		.byte	32
 2717 00aa CC       		.byte	-52
 2718 00ab 33       		.byte	51
 2719 00ac C3       		.byte	-61
 2720 00ad 3C       		.byte	60
 2721 00ae 0000     		.space	2
 2722              	.LC8:
 2723 00b0 AA       		.byte	-86
 2724 00b1 98       		.byte	-104
 2725 00b2 00       		.byte	0
 2726 00b3 A5       		.byte	-91
 2727 00b4 00       		.byte	0
 2728 00b5 EE       		.byte	-18
 2729 00b6 23       		.byte	35
 2730 00b7 C5       		.byte	-59
 2731 00b8 02       		.byte	2
 2732 00b9 00       		.byte	0
 2733 00ba 00       		.byte	0
 2734 00bb FF       		.byte	-1
 2735 00bc FF       		.byte	-1
 2736 00bd 20       		.byte	32
 2737 00be CC       		.byte	-52
 2738 00bf 33       		.byte	51
 2739 00c0 C3       		.byte	-61
 2740 00c1 3C       		.byte	60
 2741 00c2 0000     		.space	2
ARM GAS  C:\Users\diego\AppData\Local\Temp\ccI2l3me.s 			page 63


 2742              	.LC9:
 2743 00c4 AA       		.byte	-86
 2744 00c5 98       		.byte	-104
 2745 00c6 00       		.byte	0
 2746 00c7 A5       		.byte	-91
 2747 00c8 01       		.byte	1
 2748 00c9 99       		.byte	-103
 2749 00ca 23       		.byte	35
 2750 00cb C5       		.byte	-59
 2751 00cc 02       		.byte	2
 2752 00cd 00       		.byte	0
 2753 00ce 00       		.byte	0
 2754 00cf FF       		.byte	-1
 2755 00d0 FF       		.byte	-1
 2756 00d1 20       		.byte	32
 2757 00d2 CC       		.byte	-52
 2758 00d3 33       		.byte	51
 2759 00d4 C3       		.byte	-61
 2760 00d5 3C       		.byte	60
 2761 00d6 0000     		.space	2
 2762              	.LC10:
 2763 00d8 AA       		.byte	-86
 2764 00d9 98       		.byte	-104
 2765 00da 00       		.byte	0
 2766 00db A5       		.byte	-91
 2767 00dc 01       		.byte	1
 2768 00dd 32       		.byte	50
 2769 00de 23       		.byte	35
 2770 00df C5       		.byte	-59
 2771 00e0 02       		.byte	2
 2772 00e1 00       		.byte	0
 2773 00e2 00       		.byte	0
 2774 00e3 FF       		.byte	-1
 2775 00e4 FF       		.byte	-1
 2776 00e5 20       		.byte	32
 2777 00e6 CC       		.byte	-52
 2778 00e7 33       		.byte	51
 2779 00e8 C3       		.byte	-61
 2780 00e9 3C       		.byte	60
 2781 00ea 0000     		.space	2
 2782              	.LC11:
 2783 00ec AA       		.byte	-86
 2784 00ed 98       		.byte	-104
 2785 00ee 00       		.byte	0
 2786 00ef A5       		.byte	-91
 2787 00f0 00       		.byte	0
 2788 00f1 C1       		.byte	-63
 2789 00f2 23       		.byte	35
 2790 00f3 C5       		.byte	-59
 2791 00f4 02       		.byte	2
 2792 00f5 00       		.byte	0
 2793 00f6 00       		.byte	0
 2794 00f7 FF       		.byte	-1
 2795 00f8 FF       		.byte	-1
 2796 00f9 20       		.byte	32
 2797 00fa CC       		.byte	-52
 2798 00fb 33       		.byte	51
ARM GAS  C:\Users\diego\AppData\Local\Temp\ccI2l3me.s 			page 64


 2799 00fc C3       		.byte	-61
 2800 00fd 3C       		.byte	60
 2801 00fe 0000     		.text
 2802              	.Letext0:
 2803              		.file 2 "c:\\program files (x86)\\cypress\\psoc creator\\3.3\\psoc creator\\import\\gnu\\arm\\4.9.
 2804              		.file 3 "c:\\program files (x86)\\cypress\\psoc creator\\3.3\\psoc creator\\import\\gnu\\arm\\4.9.
 2805              		.file 4 "Generated_Source\\PSoC5/cytypes.h"
 2806              		.file 5 ".\\VariablesG.h"
 2807              		.file 6 "Generated_Source\\PSoC5/core_cm3.h"
 2808              		.file 7 "Generated_Source\\PSoC5/LCD_1.h"
 2809              		.file 8 "Generated_Source\\PSoC5/LCD_2.h"
 2810              		.file 9 ".\\I2C.h"