ARM GAS  C:\Users\RECEPC~1\AppData\Local\Temp\cckZkqXS.s 			page 1


   1              		.syntax unified
   2              		.cpu cortex-m3
   3              		.fpu softvfp
   4              		.eabi_attribute 20, 1
   5              		.eabi_attribute 21, 1
   6              		.eabi_attribute 23, 3
   7              		.eabi_attribute 24, 1
   8              		.eabi_attribute 25, 1
   9              		.eabi_attribute 26, 1
  10              		.eabi_attribute 30, 1
  11              		.eabi_attribute 34, 1
  12              		.eabi_attribute 18, 4
  13              		.thumb
  14              		.file	"LCD_1.c"
  15              		.text
  16              	.Ltext0:
  17              		.cfi_sections	.debug_frame
  18              		.section	.text.LCD_1_Init,"ax",%progbits
  19              		.align	2
  20              		.global	LCD_1_Init
  21              		.thumb
  22              		.thumb_func
  23              		.type	LCD_1_Init, %function
  24              	LCD_1_Init:
  25              	.LFB1:
  26              		.file 1 ".\\Generated_Source\\PSoC5\\LCD_1.c"
   1:.\Generated_Source\PSoC5/LCD_1.c **** /*******************************************************************************
   2:.\Generated_Source\PSoC5/LCD_1.c **** * File Name: LCD_1.c
   3:.\Generated_Source\PSoC5/LCD_1.c **** * Version 2.30
   4:.\Generated_Source\PSoC5/LCD_1.c **** *
   5:.\Generated_Source\PSoC5/LCD_1.c **** * Description:
   6:.\Generated_Source\PSoC5/LCD_1.c **** *  This file provides all API functionality of the UART component
   7:.\Generated_Source\PSoC5/LCD_1.c **** *
   8:.\Generated_Source\PSoC5/LCD_1.c **** * Note:
   9:.\Generated_Source\PSoC5/LCD_1.c **** *
  10:.\Generated_Source\PSoC5/LCD_1.c **** ********************************************************************************
  11:.\Generated_Source\PSoC5/LCD_1.c **** * Copyright 2008-2012, Cypress Semiconductor Corporation.  All rights reserved.
  12:.\Generated_Source\PSoC5/LCD_1.c **** * You may use this file only in accordance with the license, terms, conditions,
  13:.\Generated_Source\PSoC5/LCD_1.c **** * disclaimers, and limitations in the end user license agreement accompanying
  14:.\Generated_Source\PSoC5/LCD_1.c **** * the software package with which this file was provided.
  15:.\Generated_Source\PSoC5/LCD_1.c **** *******************************************************************************/
  16:.\Generated_Source\PSoC5/LCD_1.c **** 
  17:.\Generated_Source\PSoC5/LCD_1.c **** #include "LCD_1.h"
  18:.\Generated_Source\PSoC5/LCD_1.c **** #include "CyLib.h"
  19:.\Generated_Source\PSoC5/LCD_1.c **** #if(LCD_1_INTERNAL_CLOCK_USED)
  20:.\Generated_Source\PSoC5/LCD_1.c ****     #include "LCD_1_IntClock.h"
  21:.\Generated_Source\PSoC5/LCD_1.c **** #endif /* End LCD_1_INTERNAL_CLOCK_USED */
  22:.\Generated_Source\PSoC5/LCD_1.c **** 
  23:.\Generated_Source\PSoC5/LCD_1.c **** 
  24:.\Generated_Source\PSoC5/LCD_1.c **** /***************************************
  25:.\Generated_Source\PSoC5/LCD_1.c **** * Global data allocation
  26:.\Generated_Source\PSoC5/LCD_1.c **** ***************************************/
  27:.\Generated_Source\PSoC5/LCD_1.c **** 
  28:.\Generated_Source\PSoC5/LCD_1.c **** uint8 LCD_1_initVar = 0u;
  29:.\Generated_Source\PSoC5/LCD_1.c **** #if( LCD_1_TX_ENABLED && (LCD_1_TXBUFFERSIZE > LCD_1_FIFO_LENGTH))
  30:.\Generated_Source\PSoC5/LCD_1.c ****     volatile uint8 LCD_1_txBuffer[LCD_1_TXBUFFERSIZE];
  31:.\Generated_Source\PSoC5/LCD_1.c ****     volatile uint8 LCD_1_txBufferRead = 0u;
ARM GAS  C:\Users\RECEPC~1\AppData\Local\Temp\cckZkqXS.s 			page 2


  32:.\Generated_Source\PSoC5/LCD_1.c ****     uint8 LCD_1_txBufferWrite = 0u;
  33:.\Generated_Source\PSoC5/LCD_1.c **** #endif /* End LCD_1_TX_ENABLED */
  34:.\Generated_Source\PSoC5/LCD_1.c **** #if( ( LCD_1_RX_ENABLED || LCD_1_HD_ENABLED ) && \
  35:.\Generated_Source\PSoC5/LCD_1.c ****      (LCD_1_RXBUFFERSIZE > LCD_1_FIFO_LENGTH) )
  36:.\Generated_Source\PSoC5/LCD_1.c ****     volatile uint8 LCD_1_rxBuffer[LCD_1_RXBUFFERSIZE];
  37:.\Generated_Source\PSoC5/LCD_1.c ****     volatile uint8 LCD_1_rxBufferRead = 0u;
  38:.\Generated_Source\PSoC5/LCD_1.c ****     volatile uint8 LCD_1_rxBufferWrite = 0u;
  39:.\Generated_Source\PSoC5/LCD_1.c ****     volatile uint8 LCD_1_rxBufferLoopDetect = 0u;
  40:.\Generated_Source\PSoC5/LCD_1.c ****     volatile uint8 LCD_1_rxBufferOverflow = 0u;
  41:.\Generated_Source\PSoC5/LCD_1.c ****     #if (LCD_1_RXHW_ADDRESS_ENABLED)
  42:.\Generated_Source\PSoC5/LCD_1.c ****         volatile uint8 LCD_1_rxAddressMode = LCD_1_RXADDRESSMODE;
  43:.\Generated_Source\PSoC5/LCD_1.c ****         volatile uint8 LCD_1_rxAddressDetected = 0u;
  44:.\Generated_Source\PSoC5/LCD_1.c ****     #endif /* End EnableHWAddress */
  45:.\Generated_Source\PSoC5/LCD_1.c **** #endif /* End LCD_1_RX_ENABLED */
  46:.\Generated_Source\PSoC5/LCD_1.c **** 
  47:.\Generated_Source\PSoC5/LCD_1.c **** 
  48:.\Generated_Source\PSoC5/LCD_1.c **** /*******************************************************************************
  49:.\Generated_Source\PSoC5/LCD_1.c **** * Function Name: LCD_1_Start
  50:.\Generated_Source\PSoC5/LCD_1.c **** ********************************************************************************
  51:.\Generated_Source\PSoC5/LCD_1.c **** *
  52:.\Generated_Source\PSoC5/LCD_1.c **** * Summary:
  53:.\Generated_Source\PSoC5/LCD_1.c **** *  Initialize and Enable the UART component.
  54:.\Generated_Source\PSoC5/LCD_1.c **** *  Enable the clock input to enable operation.
  55:.\Generated_Source\PSoC5/LCD_1.c **** *
  56:.\Generated_Source\PSoC5/LCD_1.c **** * Parameters:
  57:.\Generated_Source\PSoC5/LCD_1.c **** *  None.
  58:.\Generated_Source\PSoC5/LCD_1.c **** *
  59:.\Generated_Source\PSoC5/LCD_1.c **** * Return:
  60:.\Generated_Source\PSoC5/LCD_1.c **** *  None.
  61:.\Generated_Source\PSoC5/LCD_1.c **** *
  62:.\Generated_Source\PSoC5/LCD_1.c **** * Global variables:
  63:.\Generated_Source\PSoC5/LCD_1.c **** *  The LCD_1_intiVar variable is used to indicate initial
  64:.\Generated_Source\PSoC5/LCD_1.c **** *  configuration of this component. The variable is initialized to zero (0u)
  65:.\Generated_Source\PSoC5/LCD_1.c **** *  and set to one (1u) the first time UART_Start() is called. This allows for
  66:.\Generated_Source\PSoC5/LCD_1.c **** *  component initialization without re-initialization in all subsequent calls
  67:.\Generated_Source\PSoC5/LCD_1.c **** *  to the LCD_1_Start() routine.
  68:.\Generated_Source\PSoC5/LCD_1.c **** *
  69:.\Generated_Source\PSoC5/LCD_1.c **** * Reentrant:
  70:.\Generated_Source\PSoC5/LCD_1.c **** *  No.
  71:.\Generated_Source\PSoC5/LCD_1.c **** *
  72:.\Generated_Source\PSoC5/LCD_1.c **** *******************************************************************************/
  73:.\Generated_Source\PSoC5/LCD_1.c **** void LCD_1_Start(void) 
  74:.\Generated_Source\PSoC5/LCD_1.c **** {
  75:.\Generated_Source\PSoC5/LCD_1.c ****     /* If not Initialized then initialize all required hardware and software */
  76:.\Generated_Source\PSoC5/LCD_1.c ****     if(LCD_1_initVar == 0u)
  77:.\Generated_Source\PSoC5/LCD_1.c ****     {
  78:.\Generated_Source\PSoC5/LCD_1.c ****         LCD_1_Init();
  79:.\Generated_Source\PSoC5/LCD_1.c ****         LCD_1_initVar = 1u;
  80:.\Generated_Source\PSoC5/LCD_1.c ****     }
  81:.\Generated_Source\PSoC5/LCD_1.c ****     LCD_1_Enable();
  82:.\Generated_Source\PSoC5/LCD_1.c **** }
  83:.\Generated_Source\PSoC5/LCD_1.c **** 
  84:.\Generated_Source\PSoC5/LCD_1.c **** 
  85:.\Generated_Source\PSoC5/LCD_1.c **** /*******************************************************************************
  86:.\Generated_Source\PSoC5/LCD_1.c **** * Function Name: LCD_1_Init
  87:.\Generated_Source\PSoC5/LCD_1.c **** ********************************************************************************
  88:.\Generated_Source\PSoC5/LCD_1.c **** *
ARM GAS  C:\Users\RECEPC~1\AppData\Local\Temp\cckZkqXS.s 			page 3


  89:.\Generated_Source\PSoC5/LCD_1.c **** * Summary:
  90:.\Generated_Source\PSoC5/LCD_1.c **** *  Initialize component's parameters to the parameters set by user in the
  91:.\Generated_Source\PSoC5/LCD_1.c **** *  customizer of the component placed onto schematic. Usually called in
  92:.\Generated_Source\PSoC5/LCD_1.c **** *  LCD_1_Start().
  93:.\Generated_Source\PSoC5/LCD_1.c **** *
  94:.\Generated_Source\PSoC5/LCD_1.c **** * Parameters:
  95:.\Generated_Source\PSoC5/LCD_1.c **** *  None.
  96:.\Generated_Source\PSoC5/LCD_1.c **** *
  97:.\Generated_Source\PSoC5/LCD_1.c **** * Return:
  98:.\Generated_Source\PSoC5/LCD_1.c **** *  None.
  99:.\Generated_Source\PSoC5/LCD_1.c **** *
 100:.\Generated_Source\PSoC5/LCD_1.c **** *******************************************************************************/
 101:.\Generated_Source\PSoC5/LCD_1.c **** void LCD_1_Init(void) 
 102:.\Generated_Source\PSoC5/LCD_1.c **** {
  27              		.loc 1 102 0
  28              		.cfi_startproc
  29              		@ args = 0, pretend = 0, frame = 0
  30              		@ frame_needed = 0, uses_anonymous_args = 0
  31 0000 08B5     		push	{r3, lr}
  32              		.cfi_def_cfa_offset 8
  33              		.cfi_offset 3, -8
  34              		.cfi_offset 14, -4
 103:.\Generated_Source\PSoC5/LCD_1.c ****     #if(LCD_1_RX_ENABLED || LCD_1_HD_ENABLED)
 104:.\Generated_Source\PSoC5/LCD_1.c **** 
 105:.\Generated_Source\PSoC5/LCD_1.c ****         #if(LCD_1_RX_INTERRUPT_ENABLED && (LCD_1_RXBUFFERSIZE > LCD_1_FIFO_LENGTH))
 106:.\Generated_Source\PSoC5/LCD_1.c ****             /* Set the RX Interrupt. */
 107:.\Generated_Source\PSoC5/LCD_1.c ****             (void)CyIntSetVector(LCD_1_RX_VECT_NUM, &LCD_1_RXISR);
  35              		.loc 1 107 0
  36 0002 0120     		movs	r0, #1
  37 0004 0B49     		ldr	r1, .L3
  38 0006 FFF7FEFF 		bl	CyIntSetVector
  39              	.LVL0:
 108:.\Generated_Source\PSoC5/LCD_1.c ****             CyIntSetPriority(LCD_1_RX_VECT_NUM, LCD_1_RX_PRIOR_NUM);
  40              		.loc 1 108 0
  41 000a 0120     		movs	r0, #1
  42 000c 0721     		movs	r1, #7
  43 000e FFF7FEFF 		bl	CyIntSetPriority
  44              	.LVL1:
 109:.\Generated_Source\PSoC5/LCD_1.c ****         #endif /* End LCD_1_RX_INTERRUPT_ENABLED */
 110:.\Generated_Source\PSoC5/LCD_1.c **** 
 111:.\Generated_Source\PSoC5/LCD_1.c ****         #if (LCD_1_RXHW_ADDRESS_ENABLED)
 112:.\Generated_Source\PSoC5/LCD_1.c ****             LCD_1_SetRxAddressMode(LCD_1_RXAddressMode);
 113:.\Generated_Source\PSoC5/LCD_1.c ****             LCD_1_SetRxAddress1(LCD_1_RXHWADDRESS1);
 114:.\Generated_Source\PSoC5/LCD_1.c ****             LCD_1_SetRxAddress2(LCD_1_RXHWADDRESS2);
 115:.\Generated_Source\PSoC5/LCD_1.c ****         #endif /* End LCD_1_RXHW_ADDRESS_ENABLED */
 116:.\Generated_Source\PSoC5/LCD_1.c **** 
 117:.\Generated_Source\PSoC5/LCD_1.c ****         /* Init Count7 period */
 118:.\Generated_Source\PSoC5/LCD_1.c ****         LCD_1_RXBITCTR_PERIOD_REG = LCD_1_RXBITCTR_INIT;
  45              		.loc 1 118 0
  46 0012 7222     		movs	r2, #114
  47 0014 084B     		ldr	r3, .L3+4
  48 0016 1A70     		strb	r2, [r3]
 119:.\Generated_Source\PSoC5/LCD_1.c ****         /* Configure the Initial RX interrupt mask */
 120:.\Generated_Source\PSoC5/LCD_1.c ****         LCD_1_RXSTATUS_MASK_REG  = LCD_1_INIT_RX_INTERRUPTS_MASK;
  49              		.loc 1 120 0
  50 0018 2022     		movs	r2, #32
  51 001a 0233     		adds	r3, r3, #2
ARM GAS  C:\Users\RECEPC~1\AppData\Local\Temp\cckZkqXS.s 			page 4


  52 001c 1A70     		strb	r2, [r3]
 121:.\Generated_Source\PSoC5/LCD_1.c ****     #endif /* End LCD_1_RX_ENABLED || LCD_1_HD_ENABLED*/
 122:.\Generated_Source\PSoC5/LCD_1.c **** 
 123:.\Generated_Source\PSoC5/LCD_1.c ****     #if(LCD_1_TX_ENABLED)
 124:.\Generated_Source\PSoC5/LCD_1.c ****         #if(LCD_1_TX_INTERRUPT_ENABLED && (LCD_1_TXBUFFERSIZE > LCD_1_FIFO_LENGTH))
 125:.\Generated_Source\PSoC5/LCD_1.c ****             /* Set the TX Interrupt. */
 126:.\Generated_Source\PSoC5/LCD_1.c ****             (void)CyIntSetVector(LCD_1_TX_VECT_NUM, &LCD_1_TXISR);
 127:.\Generated_Source\PSoC5/LCD_1.c ****             CyIntSetPriority(LCD_1_TX_VECT_NUM, LCD_1_TX_PRIOR_NUM);
 128:.\Generated_Source\PSoC5/LCD_1.c ****         #endif /* End LCD_1_TX_INTERRUPT_ENABLED */
 129:.\Generated_Source\PSoC5/LCD_1.c **** 
 130:.\Generated_Source\PSoC5/LCD_1.c ****         /* Write Counter Value for TX Bit Clk Generator*/
 131:.\Generated_Source\PSoC5/LCD_1.c ****         #if(LCD_1_TXCLKGEN_DP)
 132:.\Generated_Source\PSoC5/LCD_1.c ****             LCD_1_TXBITCLKGEN_CTR_REG = LCD_1_BIT_CENTER;
  53              		.loc 1 132 0
  54 001e 0722     		movs	r2, #7
  55 0020 9A33     		adds	r3, r3, #154
  56 0022 1A70     		strb	r2, [r3]
 133:.\Generated_Source\PSoC5/LCD_1.c ****             LCD_1_TXBITCLKTX_COMPLETE_REG = (LCD_1_NUMBER_OF_DATA_BITS +
  57              		.loc 1 133 0
  58 0024 4822     		movs	r2, #72
  59 0026 1033     		adds	r3, r3, #16
  60 0028 1A70     		strb	r2, [r3]
 134:.\Generated_Source\PSoC5/LCD_1.c ****                         LCD_1_NUMBER_OF_START_BIT) * LCD_1_OVER_SAMPLE_COUNT;
 135:.\Generated_Source\PSoC5/LCD_1.c ****         #else
 136:.\Generated_Source\PSoC5/LCD_1.c ****             LCD_1_TXBITCTR_PERIOD_REG = ((LCD_1_NUMBER_OF_DATA_BITS +
 137:.\Generated_Source\PSoC5/LCD_1.c ****                         LCD_1_NUMBER_OF_START_BIT) * LCD_1_OVER_SAMPLE_8) - 1u;
 138:.\Generated_Source\PSoC5/LCD_1.c ****         #endif /* End LCD_1_TXCLKGEN_DP */
 139:.\Generated_Source\PSoC5/LCD_1.c **** 
 140:.\Generated_Source\PSoC5/LCD_1.c ****         /* Configure the Initial TX interrupt mask */
 141:.\Generated_Source\PSoC5/LCD_1.c ****         #if(LCD_1_TX_INTERRUPT_ENABLED && (LCD_1_TXBUFFERSIZE > LCD_1_FIFO_LENGTH))
 142:.\Generated_Source\PSoC5/LCD_1.c ****             LCD_1_TXSTATUS_MASK_REG = LCD_1_TX_STS_FIFO_EMPTY;
 143:.\Generated_Source\PSoC5/LCD_1.c ****         #else
 144:.\Generated_Source\PSoC5/LCD_1.c ****             LCD_1_TXSTATUS_MASK_REG = LCD_1_INIT_TX_INTERRUPTS_MASK;
  61              		.loc 1 144 0
  62 002a 0022     		movs	r2, #0
  63 002c 5133     		adds	r3, r3, #81
  64 002e 1A70     		strb	r2, [r3]
  65 0030 08BD     		pop	{r3, pc}
  66              	.L4:
  67 0032 00BF     		.align	2
  68              	.L3:
  69 0034 00000000 		.word	LCD_1_RXISR
  70 0038 88640040 		.word	1073767560
  71              		.cfi_endproc
  72              	.LFE1:
  73              		.size	LCD_1_Init, .-LCD_1_Init
  74              		.section	.text.LCD_1_Enable,"ax",%progbits
  75              		.align	2
  76              		.global	LCD_1_Enable
  77              		.thumb
  78              		.thumb_func
  79              		.type	LCD_1_Enable, %function
  80              	LCD_1_Enable:
  81              	.LFB2:
 145:.\Generated_Source\PSoC5/LCD_1.c ****         #endif /*End LCD_1_TX_INTERRUPT_ENABLED*/
 146:.\Generated_Source\PSoC5/LCD_1.c **** 
 147:.\Generated_Source\PSoC5/LCD_1.c ****     #endif /* End LCD_1_TX_ENABLED */
ARM GAS  C:\Users\RECEPC~1\AppData\Local\Temp\cckZkqXS.s 			page 5


 148:.\Generated_Source\PSoC5/LCD_1.c **** 
 149:.\Generated_Source\PSoC5/LCD_1.c ****     #if(LCD_1_PARITY_TYPE_SW)  /* Write Parity to Control Register */
 150:.\Generated_Source\PSoC5/LCD_1.c ****         LCD_1_WriteControlRegister( \
 151:.\Generated_Source\PSoC5/LCD_1.c ****             (LCD_1_ReadControlRegister() & (uint8)~LCD_1_CTRL_PARITY_TYPE_MASK) | \
 152:.\Generated_Source\PSoC5/LCD_1.c ****             (uint8)(LCD_1_PARITY_TYPE << LCD_1_CTRL_PARITY_TYPE0_SHIFT) );
 153:.\Generated_Source\PSoC5/LCD_1.c ****     #endif /* End LCD_1_PARITY_TYPE_SW */
 154:.\Generated_Source\PSoC5/LCD_1.c **** }
 155:.\Generated_Source\PSoC5/LCD_1.c **** 
 156:.\Generated_Source\PSoC5/LCD_1.c **** 
 157:.\Generated_Source\PSoC5/LCD_1.c **** /*******************************************************************************
 158:.\Generated_Source\PSoC5/LCD_1.c **** * Function Name: LCD_1_Enable
 159:.\Generated_Source\PSoC5/LCD_1.c **** ********************************************************************************
 160:.\Generated_Source\PSoC5/LCD_1.c **** *
 161:.\Generated_Source\PSoC5/LCD_1.c **** * Summary:
 162:.\Generated_Source\PSoC5/LCD_1.c **** *  Enables the UART block operation
 163:.\Generated_Source\PSoC5/LCD_1.c **** *
 164:.\Generated_Source\PSoC5/LCD_1.c **** * Parameters:
 165:.\Generated_Source\PSoC5/LCD_1.c **** *  None.
 166:.\Generated_Source\PSoC5/LCD_1.c **** *
 167:.\Generated_Source\PSoC5/LCD_1.c **** * Return:
 168:.\Generated_Source\PSoC5/LCD_1.c **** *  None.
 169:.\Generated_Source\PSoC5/LCD_1.c **** *
 170:.\Generated_Source\PSoC5/LCD_1.c **** * Global Variables:
 171:.\Generated_Source\PSoC5/LCD_1.c **** *  LCD_1_rxAddressDetected - set to initial state (0).
 172:.\Generated_Source\PSoC5/LCD_1.c **** *
 173:.\Generated_Source\PSoC5/LCD_1.c **** *******************************************************************************/
 174:.\Generated_Source\PSoC5/LCD_1.c **** void LCD_1_Enable(void) 
 175:.\Generated_Source\PSoC5/LCD_1.c **** {
  82              		.loc 1 175 0
  83              		.cfi_startproc
  84              		@ args = 0, pretend = 0, frame = 0
  85              		@ frame_needed = 0, uses_anonymous_args = 0
  86 0000 10B5     		push	{r4, lr}
  87              		.cfi_def_cfa_offset 8
  88              		.cfi_offset 4, -8
  89              		.cfi_offset 14, -4
 176:.\Generated_Source\PSoC5/LCD_1.c ****     uint8 enableInterrupts;
 177:.\Generated_Source\PSoC5/LCD_1.c ****     enableInterrupts = CyEnterCriticalSection();
  90              		.loc 1 177 0
  91 0002 FFF7FEFF 		bl	CyEnterCriticalSection
  92              	.LVL2:
  93 0006 0446     		mov	r4, r0
  94              	.LVL3:
 178:.\Generated_Source\PSoC5/LCD_1.c **** 
 179:.\Generated_Source\PSoC5/LCD_1.c ****     #if(LCD_1_RX_ENABLED || LCD_1_HD_ENABLED)
 180:.\Generated_Source\PSoC5/LCD_1.c ****         /*RX Counter (Count7) Enable */
 181:.\Generated_Source\PSoC5/LCD_1.c ****         LCD_1_RXBITCTR_CONTROL_REG |= LCD_1_CNTR_ENABLE;
  95              		.loc 1 181 0
  96 0008 0B4A     		ldr	r2, .L7
  97 000a 1378     		ldrb	r3, [r2]	@ zero_extendqisi2
  98 000c 43F02003 		orr	r3, r3, #32
  99 0010 1370     		strb	r3, [r2]
 182:.\Generated_Source\PSoC5/LCD_1.c ****         /* Enable the RX Interrupt. */
 183:.\Generated_Source\PSoC5/LCD_1.c ****         LCD_1_RXSTATUS_ACTL_REG  |= LCD_1_INT_ENABLE;
 100              		.loc 1 183 0
 101 0012 0232     		adds	r2, r2, #2
 102 0014 1378     		ldrb	r3, [r2]	@ zero_extendqisi2
ARM GAS  C:\Users\RECEPC~1\AppData\Local\Temp\cckZkqXS.s 			page 6


 103 0016 43F01003 		orr	r3, r3, #16
 104 001a 1370     		strb	r3, [r2]
 184:.\Generated_Source\PSoC5/LCD_1.c ****         #if(LCD_1_RX_INTERRUPT_ENABLED && (LCD_1_RXBUFFERSIZE > LCD_1_FIFO_LENGTH))
 185:.\Generated_Source\PSoC5/LCD_1.c ****             CyIntEnable(LCD_1_RX_VECT_NUM);
 105              		.loc 1 185 0
 106 001c 0222     		movs	r2, #2
 107 001e 074B     		ldr	r3, .L7+4
 108 0020 1A60     		str	r2, [r3]
 186:.\Generated_Source\PSoC5/LCD_1.c ****             #if (LCD_1_RXHW_ADDRESS_ENABLED)
 187:.\Generated_Source\PSoC5/LCD_1.c ****                 LCD_1_rxAddressDetected = 0u;
 188:.\Generated_Source\PSoC5/LCD_1.c ****             #endif /* End LCD_1_RXHW_ADDRESS_ENABLED */
 189:.\Generated_Source\PSoC5/LCD_1.c ****         #endif /* End LCD_1_RX_INTERRUPT_ENABLED */
 190:.\Generated_Source\PSoC5/LCD_1.c ****     #endif /* End LCD_1_RX_ENABLED || LCD_1_HD_ENABLED*/
 191:.\Generated_Source\PSoC5/LCD_1.c **** 
 192:.\Generated_Source\PSoC5/LCD_1.c ****     #if(LCD_1_TX_ENABLED)
 193:.\Generated_Source\PSoC5/LCD_1.c ****         /*TX Counter (DP/Count7) Enable */
 194:.\Generated_Source\PSoC5/LCD_1.c ****         #if(!LCD_1_TXCLKGEN_DP)
 195:.\Generated_Source\PSoC5/LCD_1.c ****             LCD_1_TXBITCTR_CONTROL_REG |= LCD_1_CNTR_ENABLE;
 196:.\Generated_Source\PSoC5/LCD_1.c ****         #endif /* End LCD_1_TXCLKGEN_DP */
 197:.\Generated_Source\PSoC5/LCD_1.c ****         /* Enable the TX Interrupt. */
 198:.\Generated_Source\PSoC5/LCD_1.c ****         LCD_1_TXSTATUS_ACTL_REG |= LCD_1_INT_ENABLE;
 109              		.loc 1 198 0
 110 0022 074A     		ldr	r2, .L7+8
 111 0024 1378     		ldrb	r3, [r2]	@ zero_extendqisi2
 112 0026 43F01003 		orr	r3, r3, #16
 113 002a 1370     		strb	r3, [r2]
 199:.\Generated_Source\PSoC5/LCD_1.c ****         #if(LCD_1_TX_INTERRUPT_ENABLED && (LCD_1_TXBUFFERSIZE > LCD_1_FIFO_LENGTH))
 200:.\Generated_Source\PSoC5/LCD_1.c ****             CyIntEnable(LCD_1_TX_VECT_NUM);
 201:.\Generated_Source\PSoC5/LCD_1.c ****         #endif /* End LCD_1_TX_INTERRUPT_ENABLED*/
 202:.\Generated_Source\PSoC5/LCD_1.c ****      #endif /* End LCD_1_TX_ENABLED */
 203:.\Generated_Source\PSoC5/LCD_1.c **** 
 204:.\Generated_Source\PSoC5/LCD_1.c ****     #if(LCD_1_INTERNAL_CLOCK_USED)
 205:.\Generated_Source\PSoC5/LCD_1.c ****         /* Enable the clock. */
 206:.\Generated_Source\PSoC5/LCD_1.c ****         LCD_1_IntClock_Start();
 114              		.loc 1 206 0
 115 002c FFF7FEFF 		bl	LCD_1_IntClock_Start
 116              	.LVL4:
 207:.\Generated_Source\PSoC5/LCD_1.c ****     #endif /* End LCD_1_INTERNAL_CLOCK_USED */
 208:.\Generated_Source\PSoC5/LCD_1.c **** 
 209:.\Generated_Source\PSoC5/LCD_1.c ****     CyExitCriticalSection(enableInterrupts);
 117              		.loc 1 209 0
 118 0030 2046     		mov	r0, r4
 119 0032 FFF7FEFF 		bl	CyExitCriticalSection
 120              	.LVL5:
 121 0036 10BD     		pop	{r4, pc}
 122              	.LVL6:
 123              	.L8:
 124              		.align	2
 125              	.L7:
 126 0038 98640040 		.word	1073767576
 127 003c 00E100E0 		.word	-536813312
 128 0040 95650040 		.word	1073767829
 129              		.cfi_endproc
 130              	.LFE2:
 131              		.size	LCD_1_Enable, .-LCD_1_Enable
 132              		.section	.text.LCD_1_Start,"ax",%progbits
 133              		.align	2
ARM GAS  C:\Users\RECEPC~1\AppData\Local\Temp\cckZkqXS.s 			page 7


 134              		.global	LCD_1_Start
 135              		.thumb
 136              		.thumb_func
 137              		.type	LCD_1_Start, %function
 138              	LCD_1_Start:
 139              	.LFB0:
  74:.\Generated_Source\PSoC5/LCD_1.c ****     /* If not Initialized then initialize all required hardware and software */
 140              		.loc 1 74 0
 141              		.cfi_startproc
 142              		@ args = 0, pretend = 0, frame = 0
 143              		@ frame_needed = 0, uses_anonymous_args = 0
 144 0000 08B5     		push	{r3, lr}
 145              		.cfi_def_cfa_offset 8
 146              		.cfi_offset 3, -8
 147              		.cfi_offset 14, -4
  76:.\Generated_Source\PSoC5/LCD_1.c ****     {
 148              		.loc 1 76 0
 149 0002 054B     		ldr	r3, .L12
 150 0004 1B78     		ldrb	r3, [r3]	@ zero_extendqisi2
 151 0006 23B9     		cbnz	r3, .L10
  78:.\Generated_Source\PSoC5/LCD_1.c ****         LCD_1_initVar = 1u;
 152              		.loc 1 78 0
 153 0008 FFF7FEFF 		bl	LCD_1_Init
 154              	.LVL7:
  79:.\Generated_Source\PSoC5/LCD_1.c ****     }
 155              		.loc 1 79 0
 156 000c 0122     		movs	r2, #1
 157 000e 024B     		ldr	r3, .L12
 158 0010 1A70     		strb	r2, [r3]
 159              	.L10:
  81:.\Generated_Source\PSoC5/LCD_1.c **** }
 160              		.loc 1 81 0
 161 0012 FFF7FEFF 		bl	LCD_1_Enable
 162              	.LVL8:
 163 0016 08BD     		pop	{r3, pc}
 164              	.L13:
 165              		.align	2
 166              	.L12:
 167 0018 00000000 		.word	.LANCHOR0
 168              		.cfi_endproc
 169              	.LFE0:
 170              		.size	LCD_1_Start, .-LCD_1_Start
 171              		.section	.text.LCD_1_ReadControlRegister,"ax",%progbits
 172              		.align	2
 173              		.global	LCD_1_ReadControlRegister
 174              		.thumb
 175              		.thumb_func
 176              		.type	LCD_1_ReadControlRegister, %function
 177              	LCD_1_ReadControlRegister:
 178              	.LFB4:
 210:.\Generated_Source\PSoC5/LCD_1.c **** }
 211:.\Generated_Source\PSoC5/LCD_1.c **** 
 212:.\Generated_Source\PSoC5/LCD_1.c **** 
 213:.\Generated_Source\PSoC5/LCD_1.c **** /*******************************************************************************
 214:.\Generated_Source\PSoC5/LCD_1.c **** * Function Name: LCD_1_Stop
 215:.\Generated_Source\PSoC5/LCD_1.c **** ********************************************************************************
 216:.\Generated_Source\PSoC5/LCD_1.c **** *
ARM GAS  C:\Users\RECEPC~1\AppData\Local\Temp\cckZkqXS.s 			page 8


 217:.\Generated_Source\PSoC5/LCD_1.c **** * Summary:
 218:.\Generated_Source\PSoC5/LCD_1.c **** *  Disable the UART component
 219:.\Generated_Source\PSoC5/LCD_1.c **** *
 220:.\Generated_Source\PSoC5/LCD_1.c **** * Parameters:
 221:.\Generated_Source\PSoC5/LCD_1.c **** *  None.
 222:.\Generated_Source\PSoC5/LCD_1.c **** *
 223:.\Generated_Source\PSoC5/LCD_1.c **** * Return:
 224:.\Generated_Source\PSoC5/LCD_1.c **** *  None.
 225:.\Generated_Source\PSoC5/LCD_1.c **** *
 226:.\Generated_Source\PSoC5/LCD_1.c **** *******************************************************************************/
 227:.\Generated_Source\PSoC5/LCD_1.c **** void LCD_1_Stop(void) 
 228:.\Generated_Source\PSoC5/LCD_1.c **** {
 229:.\Generated_Source\PSoC5/LCD_1.c ****     uint8 enableInterrupts;
 230:.\Generated_Source\PSoC5/LCD_1.c ****     enableInterrupts = CyEnterCriticalSection();
 231:.\Generated_Source\PSoC5/LCD_1.c **** 
 232:.\Generated_Source\PSoC5/LCD_1.c ****     /* Write Bit Counter Disable */
 233:.\Generated_Source\PSoC5/LCD_1.c ****     #if(LCD_1_RX_ENABLED || LCD_1_HD_ENABLED)
 234:.\Generated_Source\PSoC5/LCD_1.c ****         LCD_1_RXBITCTR_CONTROL_REG &= (uint8)~LCD_1_CNTR_ENABLE;
 235:.\Generated_Source\PSoC5/LCD_1.c ****     #endif /* End LCD_1_RX_ENABLED */
 236:.\Generated_Source\PSoC5/LCD_1.c **** 
 237:.\Generated_Source\PSoC5/LCD_1.c ****     #if(LCD_1_TX_ENABLED)
 238:.\Generated_Source\PSoC5/LCD_1.c ****         #if(!LCD_1_TXCLKGEN_DP)
 239:.\Generated_Source\PSoC5/LCD_1.c ****             LCD_1_TXBITCTR_CONTROL_REG &= (uint8)~LCD_1_CNTR_ENABLE;
 240:.\Generated_Source\PSoC5/LCD_1.c ****         #endif /* End LCD_1_TXCLKGEN_DP */
 241:.\Generated_Source\PSoC5/LCD_1.c ****     #endif /* LCD_1_TX_ENABLED */
 242:.\Generated_Source\PSoC5/LCD_1.c **** 
 243:.\Generated_Source\PSoC5/LCD_1.c ****     #if(LCD_1_INTERNAL_CLOCK_USED)
 244:.\Generated_Source\PSoC5/LCD_1.c ****         /* Disable the clock. */
 245:.\Generated_Source\PSoC5/LCD_1.c ****         LCD_1_IntClock_Stop();
 246:.\Generated_Source\PSoC5/LCD_1.c ****     #endif /* End LCD_1_INTERNAL_CLOCK_USED */
 247:.\Generated_Source\PSoC5/LCD_1.c **** 
 248:.\Generated_Source\PSoC5/LCD_1.c ****     /* Disable internal interrupt component */
 249:.\Generated_Source\PSoC5/LCD_1.c ****     #if(LCD_1_RX_ENABLED || LCD_1_HD_ENABLED)
 250:.\Generated_Source\PSoC5/LCD_1.c ****         LCD_1_RXSTATUS_ACTL_REG  &= (uint8)~LCD_1_INT_ENABLE;
 251:.\Generated_Source\PSoC5/LCD_1.c ****         #if(LCD_1_RX_INTERRUPT_ENABLED && (LCD_1_RXBUFFERSIZE > LCD_1_FIFO_LENGTH))
 252:.\Generated_Source\PSoC5/LCD_1.c ****             LCD_1_DisableRxInt();
 253:.\Generated_Source\PSoC5/LCD_1.c ****         #endif /* End LCD_1_RX_INTERRUPT_ENABLED */
 254:.\Generated_Source\PSoC5/LCD_1.c ****     #endif /* End LCD_1_RX_ENABLED */
 255:.\Generated_Source\PSoC5/LCD_1.c **** 
 256:.\Generated_Source\PSoC5/LCD_1.c ****     #if(LCD_1_TX_ENABLED)
 257:.\Generated_Source\PSoC5/LCD_1.c ****         LCD_1_TXSTATUS_ACTL_REG &= (uint8)~LCD_1_INT_ENABLE;
 258:.\Generated_Source\PSoC5/LCD_1.c ****         #if(LCD_1_TX_INTERRUPT_ENABLED && (LCD_1_TXBUFFERSIZE > LCD_1_FIFO_LENGTH))
 259:.\Generated_Source\PSoC5/LCD_1.c ****             LCD_1_DisableTxInt();
 260:.\Generated_Source\PSoC5/LCD_1.c ****         #endif /* End LCD_1_TX_INTERRUPT_ENABLED */
 261:.\Generated_Source\PSoC5/LCD_1.c ****     #endif /* End LCD_1_TX_ENABLED */
 262:.\Generated_Source\PSoC5/LCD_1.c **** 
 263:.\Generated_Source\PSoC5/LCD_1.c ****     CyExitCriticalSection(enableInterrupts);
 264:.\Generated_Source\PSoC5/LCD_1.c **** }
 265:.\Generated_Source\PSoC5/LCD_1.c **** 
 266:.\Generated_Source\PSoC5/LCD_1.c **** 
 267:.\Generated_Source\PSoC5/LCD_1.c **** /*******************************************************************************
 268:.\Generated_Source\PSoC5/LCD_1.c **** * Function Name: LCD_1_ReadControlRegister
 269:.\Generated_Source\PSoC5/LCD_1.c **** ********************************************************************************
 270:.\Generated_Source\PSoC5/LCD_1.c **** *
 271:.\Generated_Source\PSoC5/LCD_1.c **** * Summary:
 272:.\Generated_Source\PSoC5/LCD_1.c **** *  Read the current state of the control register
 273:.\Generated_Source\PSoC5/LCD_1.c **** *
ARM GAS  C:\Users\RECEPC~1\AppData\Local\Temp\cckZkqXS.s 			page 9


 274:.\Generated_Source\PSoC5/LCD_1.c **** * Parameters:
 275:.\Generated_Source\PSoC5/LCD_1.c **** *  None.
 276:.\Generated_Source\PSoC5/LCD_1.c **** *
 277:.\Generated_Source\PSoC5/LCD_1.c **** * Return:
 278:.\Generated_Source\PSoC5/LCD_1.c **** *  Current state of the control register.
 279:.\Generated_Source\PSoC5/LCD_1.c **** *
 280:.\Generated_Source\PSoC5/LCD_1.c **** *******************************************************************************/
 281:.\Generated_Source\PSoC5/LCD_1.c **** uint8 LCD_1_ReadControlRegister(void) 
 282:.\Generated_Source\PSoC5/LCD_1.c **** {
 179              		.loc 1 282 0
 180              		.cfi_startproc
 181              		@ args = 0, pretend = 0, frame = 0
 182              		@ frame_needed = 0, uses_anonymous_args = 0
 183              		@ link register save eliminated.
 283:.\Generated_Source\PSoC5/LCD_1.c ****     #if( LCD_1_CONTROL_REG_REMOVED )
 284:.\Generated_Source\PSoC5/LCD_1.c ****         return(0u);
 285:.\Generated_Source\PSoC5/LCD_1.c ****     #else
 286:.\Generated_Source\PSoC5/LCD_1.c ****         return(LCD_1_CONTROL_REG);
 287:.\Generated_Source\PSoC5/LCD_1.c ****     #endif /* End LCD_1_CONTROL_REG_REMOVED */
 288:.\Generated_Source\PSoC5/LCD_1.c **** }
 184              		.loc 1 288 0
 185 0000 0020     		movs	r0, #0
 186 0002 7047     		bx	lr
 187              		.cfi_endproc
 188              	.LFE4:
 189              		.size	LCD_1_ReadControlRegister, .-LCD_1_ReadControlRegister
 190              		.section	.text.LCD_1_WriteControlRegister,"ax",%progbits
 191              		.align	2
 192              		.global	LCD_1_WriteControlRegister
 193              		.thumb
 194              		.thumb_func
 195              		.type	LCD_1_WriteControlRegister, %function
 196              	LCD_1_WriteControlRegister:
 197              	.LFB5:
 289:.\Generated_Source\PSoC5/LCD_1.c **** 
 290:.\Generated_Source\PSoC5/LCD_1.c **** 
 291:.\Generated_Source\PSoC5/LCD_1.c **** /*******************************************************************************
 292:.\Generated_Source\PSoC5/LCD_1.c **** * Function Name: LCD_1_WriteControlRegister
 293:.\Generated_Source\PSoC5/LCD_1.c **** ********************************************************************************
 294:.\Generated_Source\PSoC5/LCD_1.c **** *
 295:.\Generated_Source\PSoC5/LCD_1.c **** * Summary:
 296:.\Generated_Source\PSoC5/LCD_1.c **** *  Writes an 8-bit value into the control register
 297:.\Generated_Source\PSoC5/LCD_1.c **** *
 298:.\Generated_Source\PSoC5/LCD_1.c **** * Parameters:
 299:.\Generated_Source\PSoC5/LCD_1.c **** *  control:  control register value
 300:.\Generated_Source\PSoC5/LCD_1.c **** *
 301:.\Generated_Source\PSoC5/LCD_1.c **** * Return:
 302:.\Generated_Source\PSoC5/LCD_1.c **** *  None.
 303:.\Generated_Source\PSoC5/LCD_1.c **** *
 304:.\Generated_Source\PSoC5/LCD_1.c **** *******************************************************************************/
 305:.\Generated_Source\PSoC5/LCD_1.c **** void  LCD_1_WriteControlRegister(uint8 control) 
 306:.\Generated_Source\PSoC5/LCD_1.c **** {
 198              		.loc 1 306 0
 199              		.cfi_startproc
 200              		@ args = 0, pretend = 0, frame = 0
 201              		@ frame_needed = 0, uses_anonymous_args = 0
 202              		@ link register save eliminated.
ARM GAS  C:\Users\RECEPC~1\AppData\Local\Temp\cckZkqXS.s 			page 10


 203              	.LVL9:
 204 0000 7047     		bx	lr
 205              		.cfi_endproc
 206              	.LFE5:
 207              		.size	LCD_1_WriteControlRegister, .-LCD_1_WriteControlRegister
 208 0002 00BF     		.section	.text.LCD_1_EnableRxInt,"ax",%progbits
 209              		.align	2
 210              		.global	LCD_1_EnableRxInt
 211              		.thumb
 212              		.thumb_func
 213              		.type	LCD_1_EnableRxInt, %function
 214              	LCD_1_EnableRxInt:
 215              	.LFB6:
 307:.\Generated_Source\PSoC5/LCD_1.c ****     #if( LCD_1_CONTROL_REG_REMOVED )
 308:.\Generated_Source\PSoC5/LCD_1.c ****         if(control != 0u) { }      /* release compiler warning */
 309:.\Generated_Source\PSoC5/LCD_1.c ****     #else
 310:.\Generated_Source\PSoC5/LCD_1.c ****        LCD_1_CONTROL_REG = control;
 311:.\Generated_Source\PSoC5/LCD_1.c ****     #endif /* End LCD_1_CONTROL_REG_REMOVED */
 312:.\Generated_Source\PSoC5/LCD_1.c **** }
 313:.\Generated_Source\PSoC5/LCD_1.c **** 
 314:.\Generated_Source\PSoC5/LCD_1.c **** 
 315:.\Generated_Source\PSoC5/LCD_1.c **** #if(LCD_1_RX_ENABLED || LCD_1_HD_ENABLED)
 316:.\Generated_Source\PSoC5/LCD_1.c **** 
 317:.\Generated_Source\PSoC5/LCD_1.c ****     #if(LCD_1_RX_INTERRUPT_ENABLED)
 318:.\Generated_Source\PSoC5/LCD_1.c **** 
 319:.\Generated_Source\PSoC5/LCD_1.c ****         /*******************************************************************************
 320:.\Generated_Source\PSoC5/LCD_1.c ****         * Function Name: LCD_1_EnableRxInt
 321:.\Generated_Source\PSoC5/LCD_1.c ****         ********************************************************************************
 322:.\Generated_Source\PSoC5/LCD_1.c ****         *
 323:.\Generated_Source\PSoC5/LCD_1.c ****         * Summary:
 324:.\Generated_Source\PSoC5/LCD_1.c ****         *  Enable RX interrupt generation
 325:.\Generated_Source\PSoC5/LCD_1.c ****         *
 326:.\Generated_Source\PSoC5/LCD_1.c ****         * Parameters:
 327:.\Generated_Source\PSoC5/LCD_1.c ****         *  None.
 328:.\Generated_Source\PSoC5/LCD_1.c ****         *
 329:.\Generated_Source\PSoC5/LCD_1.c ****         * Return:
 330:.\Generated_Source\PSoC5/LCD_1.c ****         *  None.
 331:.\Generated_Source\PSoC5/LCD_1.c ****         *
 332:.\Generated_Source\PSoC5/LCD_1.c ****         * Theory:
 333:.\Generated_Source\PSoC5/LCD_1.c ****         *  Enable the interrupt output -or- the interrupt component itself
 334:.\Generated_Source\PSoC5/LCD_1.c ****         *
 335:.\Generated_Source\PSoC5/LCD_1.c ****         *******************************************************************************/
 336:.\Generated_Source\PSoC5/LCD_1.c ****         void LCD_1_EnableRxInt(void) 
 337:.\Generated_Source\PSoC5/LCD_1.c ****         {
 216              		.loc 1 337 0
 217              		.cfi_startproc
 218              		@ args = 0, pretend = 0, frame = 0
 219              		@ frame_needed = 0, uses_anonymous_args = 0
 220              		@ link register save eliminated.
 338:.\Generated_Source\PSoC5/LCD_1.c ****             CyIntEnable(LCD_1_RX_VECT_NUM);
 221              		.loc 1 338 0
 222 0000 0222     		movs	r2, #2
 223 0002 014B     		ldr	r3, .L17
 224 0004 1A60     		str	r2, [r3]
 225 0006 7047     		bx	lr
 226              	.L18:
 227              		.align	2
ARM GAS  C:\Users\RECEPC~1\AppData\Local\Temp\cckZkqXS.s 			page 11


 228              	.L17:
 229 0008 00E100E0 		.word	-536813312
 230              		.cfi_endproc
 231              	.LFE6:
 232              		.size	LCD_1_EnableRxInt, .-LCD_1_EnableRxInt
 233              		.section	.text.LCD_1_DisableRxInt,"ax",%progbits
 234              		.align	2
 235              		.global	LCD_1_DisableRxInt
 236              		.thumb
 237              		.thumb_func
 238              		.type	LCD_1_DisableRxInt, %function
 239              	LCD_1_DisableRxInt:
 240              	.LFB7:
 339:.\Generated_Source\PSoC5/LCD_1.c ****         }
 340:.\Generated_Source\PSoC5/LCD_1.c **** 
 341:.\Generated_Source\PSoC5/LCD_1.c **** 
 342:.\Generated_Source\PSoC5/LCD_1.c ****         /*******************************************************************************
 343:.\Generated_Source\PSoC5/LCD_1.c ****         * Function Name: LCD_1_DisableRxInt
 344:.\Generated_Source\PSoC5/LCD_1.c ****         ********************************************************************************
 345:.\Generated_Source\PSoC5/LCD_1.c ****         *
 346:.\Generated_Source\PSoC5/LCD_1.c ****         * Summary:
 347:.\Generated_Source\PSoC5/LCD_1.c ****         *  Disable RX interrupt generation
 348:.\Generated_Source\PSoC5/LCD_1.c ****         *
 349:.\Generated_Source\PSoC5/LCD_1.c ****         * Parameters:
 350:.\Generated_Source\PSoC5/LCD_1.c ****         *  None.
 351:.\Generated_Source\PSoC5/LCD_1.c ****         *
 352:.\Generated_Source\PSoC5/LCD_1.c ****         * Return:
 353:.\Generated_Source\PSoC5/LCD_1.c ****         *  None.
 354:.\Generated_Source\PSoC5/LCD_1.c ****         *
 355:.\Generated_Source\PSoC5/LCD_1.c ****         * Theory:
 356:.\Generated_Source\PSoC5/LCD_1.c ****         *  Disable the interrupt output -or- the interrupt component itself
 357:.\Generated_Source\PSoC5/LCD_1.c ****         *
 358:.\Generated_Source\PSoC5/LCD_1.c ****         *******************************************************************************/
 359:.\Generated_Source\PSoC5/LCD_1.c ****         void LCD_1_DisableRxInt(void) 
 360:.\Generated_Source\PSoC5/LCD_1.c ****         {
 241              		.loc 1 360 0
 242              		.cfi_startproc
 243              		@ args = 0, pretend = 0, frame = 0
 244              		@ frame_needed = 0, uses_anonymous_args = 0
 245              		@ link register save eliminated.
 361:.\Generated_Source\PSoC5/LCD_1.c ****             CyIntDisable(LCD_1_RX_VECT_NUM);
 246              		.loc 1 361 0
 247 0000 0222     		movs	r2, #2
 248 0002 014B     		ldr	r3, .L20
 249 0004 1A60     		str	r2, [r3]
 250 0006 7047     		bx	lr
 251              	.L21:
 252              		.align	2
 253              	.L20:
 254 0008 80E100E0 		.word	-536813184
 255              		.cfi_endproc
 256              	.LFE7:
 257              		.size	LCD_1_DisableRxInt, .-LCD_1_DisableRxInt
 258              		.section	.text.LCD_1_Stop,"ax",%progbits
 259              		.align	2
 260              		.global	LCD_1_Stop
 261              		.thumb
ARM GAS  C:\Users\RECEPC~1\AppData\Local\Temp\cckZkqXS.s 			page 12


 262              		.thumb_func
 263              		.type	LCD_1_Stop, %function
 264              	LCD_1_Stop:
 265              	.LFB3:
 228:.\Generated_Source\PSoC5/LCD_1.c ****     uint8 enableInterrupts;
 266              		.loc 1 228 0
 267              		.cfi_startproc
 268              		@ args = 0, pretend = 0, frame = 0
 269              		@ frame_needed = 0, uses_anonymous_args = 0
 270 0000 10B5     		push	{r4, lr}
 271              		.cfi_def_cfa_offset 8
 272              		.cfi_offset 4, -8
 273              		.cfi_offset 14, -4
 230:.\Generated_Source\PSoC5/LCD_1.c **** 
 274              		.loc 1 230 0
 275 0002 FFF7FEFF 		bl	CyEnterCriticalSection
 276              	.LVL10:
 277 0006 0446     		mov	r4, r0
 278              	.LVL11:
 234:.\Generated_Source\PSoC5/LCD_1.c ****     #endif /* End LCD_1_RX_ENABLED */
 279              		.loc 1 234 0
 280 0008 0B4A     		ldr	r2, .L24
 281 000a 1378     		ldrb	r3, [r2]	@ zero_extendqisi2
 282 000c 03F0DF03 		and	r3, r3, #223
 283 0010 1370     		strb	r3, [r2]
 245:.\Generated_Source\PSoC5/LCD_1.c ****     #endif /* End LCD_1_INTERNAL_CLOCK_USED */
 284              		.loc 1 245 0
 285 0012 FFF7FEFF 		bl	LCD_1_IntClock_Stop
 286              	.LVL12:
 250:.\Generated_Source\PSoC5/LCD_1.c ****         #if(LCD_1_RX_INTERRUPT_ENABLED && (LCD_1_RXBUFFERSIZE > LCD_1_FIFO_LENGTH))
 287              		.loc 1 250 0
 288 0016 094A     		ldr	r2, .L24+4
 289 0018 1378     		ldrb	r3, [r2]	@ zero_extendqisi2
 290 001a 03F0EF03 		and	r3, r3, #239
 291 001e 1370     		strb	r3, [r2]
 252:.\Generated_Source\PSoC5/LCD_1.c ****         #endif /* End LCD_1_RX_INTERRUPT_ENABLED */
 292              		.loc 1 252 0
 293 0020 FFF7FEFF 		bl	LCD_1_DisableRxInt
 294              	.LVL13:
 257:.\Generated_Source\PSoC5/LCD_1.c ****         #if(LCD_1_TX_INTERRUPT_ENABLED && (LCD_1_TXBUFFERSIZE > LCD_1_FIFO_LENGTH))
 295              		.loc 1 257 0
 296 0024 064A     		ldr	r2, .L24+8
 297 0026 1378     		ldrb	r3, [r2]	@ zero_extendqisi2
 298 0028 03F0EF03 		and	r3, r3, #239
 299 002c 1370     		strb	r3, [r2]
 263:.\Generated_Source\PSoC5/LCD_1.c **** }
 300              		.loc 1 263 0
 301 002e 2046     		mov	r0, r4
 302 0030 FFF7FEFF 		bl	CyExitCriticalSection
 303              	.LVL14:
 304 0034 10BD     		pop	{r4, pc}
 305              	.LVL15:
 306              	.L25:
 307 0036 00BF     		.align	2
 308              	.L24:
 309 0038 98640040 		.word	1073767576
 310 003c 9A640040 		.word	1073767578
ARM GAS  C:\Users\RECEPC~1\AppData\Local\Temp\cckZkqXS.s 			page 13


 311 0040 95650040 		.word	1073767829
 312              		.cfi_endproc
 313              	.LFE3:
 314              		.size	LCD_1_Stop, .-LCD_1_Stop
 315              		.section	.text.LCD_1_SetRxInterruptMode,"ax",%progbits
 316              		.align	2
 317              		.global	LCD_1_SetRxInterruptMode
 318              		.thumb
 319              		.thumb_func
 320              		.type	LCD_1_SetRxInterruptMode, %function
 321              	LCD_1_SetRxInterruptMode:
 322              	.LFB8:
 362:.\Generated_Source\PSoC5/LCD_1.c ****         }
 363:.\Generated_Source\PSoC5/LCD_1.c **** 
 364:.\Generated_Source\PSoC5/LCD_1.c ****     #endif /* LCD_1_RX_INTERRUPT_ENABLED */
 365:.\Generated_Source\PSoC5/LCD_1.c **** 
 366:.\Generated_Source\PSoC5/LCD_1.c **** 
 367:.\Generated_Source\PSoC5/LCD_1.c ****     /*******************************************************************************
 368:.\Generated_Source\PSoC5/LCD_1.c ****     * Function Name: LCD_1_SetRxInterruptMode
 369:.\Generated_Source\PSoC5/LCD_1.c ****     ********************************************************************************
 370:.\Generated_Source\PSoC5/LCD_1.c ****     *
 371:.\Generated_Source\PSoC5/LCD_1.c ****     * Summary:
 372:.\Generated_Source\PSoC5/LCD_1.c ****     *  Configure which status bits trigger an interrupt event
 373:.\Generated_Source\PSoC5/LCD_1.c ****     *
 374:.\Generated_Source\PSoC5/LCD_1.c ****     * Parameters:
 375:.\Generated_Source\PSoC5/LCD_1.c ****     *  IntSrc:  An or'd combination of the desired status bit masks (defined in
 376:.\Generated_Source\PSoC5/LCD_1.c ****     *           the header file)
 377:.\Generated_Source\PSoC5/LCD_1.c ****     *
 378:.\Generated_Source\PSoC5/LCD_1.c ****     * Return:
 379:.\Generated_Source\PSoC5/LCD_1.c ****     *  None.
 380:.\Generated_Source\PSoC5/LCD_1.c ****     *
 381:.\Generated_Source\PSoC5/LCD_1.c ****     * Theory:
 382:.\Generated_Source\PSoC5/LCD_1.c ****     *  Enables the output of specific status bits to the interrupt controller
 383:.\Generated_Source\PSoC5/LCD_1.c ****     *
 384:.\Generated_Source\PSoC5/LCD_1.c ****     *******************************************************************************/
 385:.\Generated_Source\PSoC5/LCD_1.c ****     void LCD_1_SetRxInterruptMode(uint8 intSrc) 
 386:.\Generated_Source\PSoC5/LCD_1.c ****     {
 323              		.loc 1 386 0
 324              		.cfi_startproc
 325              		@ args = 0, pretend = 0, frame = 0
 326              		@ frame_needed = 0, uses_anonymous_args = 0
 327              		@ link register save eliminated.
 328              	.LVL16:
 387:.\Generated_Source\PSoC5/LCD_1.c ****         LCD_1_RXSTATUS_MASK_REG  = intSrc;
 329              		.loc 1 387 0
 330 0000 014B     		ldr	r3, .L27
 331 0002 1870     		strb	r0, [r3]
 332 0004 7047     		bx	lr
 333              	.L28:
 334 0006 00BF     		.align	2
 335              	.L27:
 336 0008 8A640040 		.word	1073767562
 337              		.cfi_endproc
 338              	.LFE8:
 339              		.size	LCD_1_SetRxInterruptMode, .-LCD_1_SetRxInterruptMode
 340              		.section	.text.LCD_1_ReadRxData,"ax",%progbits
 341              		.align	2
ARM GAS  C:\Users\RECEPC~1\AppData\Local\Temp\cckZkqXS.s 			page 14


 342              		.global	LCD_1_ReadRxData
 343              		.thumb
 344              		.thumb_func
 345              		.type	LCD_1_ReadRxData, %function
 346              	LCD_1_ReadRxData:
 347              	.LFB9:
 388:.\Generated_Source\PSoC5/LCD_1.c ****     }
 389:.\Generated_Source\PSoC5/LCD_1.c **** 
 390:.\Generated_Source\PSoC5/LCD_1.c **** 
 391:.\Generated_Source\PSoC5/LCD_1.c ****     /*******************************************************************************
 392:.\Generated_Source\PSoC5/LCD_1.c ****     * Function Name: LCD_1_ReadRxData
 393:.\Generated_Source\PSoC5/LCD_1.c ****     ********************************************************************************
 394:.\Generated_Source\PSoC5/LCD_1.c ****     *
 395:.\Generated_Source\PSoC5/LCD_1.c ****     * Summary:
 396:.\Generated_Source\PSoC5/LCD_1.c ****     *  Returns data in RX Data register without checking status register to
 397:.\Generated_Source\PSoC5/LCD_1.c ****     *  determine if data is valid
 398:.\Generated_Source\PSoC5/LCD_1.c ****     *
 399:.\Generated_Source\PSoC5/LCD_1.c ****     * Parameters:
 400:.\Generated_Source\PSoC5/LCD_1.c ****     *  None.
 401:.\Generated_Source\PSoC5/LCD_1.c ****     *
 402:.\Generated_Source\PSoC5/LCD_1.c ****     * Return:
 403:.\Generated_Source\PSoC5/LCD_1.c ****     *  Received data from RX register
 404:.\Generated_Source\PSoC5/LCD_1.c ****     *
 405:.\Generated_Source\PSoC5/LCD_1.c ****     * Global Variables:
 406:.\Generated_Source\PSoC5/LCD_1.c ****     *  LCD_1_rxBuffer - RAM buffer pointer for save received data.
 407:.\Generated_Source\PSoC5/LCD_1.c ****     *  LCD_1_rxBufferWrite - cyclic index for write to rxBuffer,
 408:.\Generated_Source\PSoC5/LCD_1.c ****     *     checked to identify new data.
 409:.\Generated_Source\PSoC5/LCD_1.c ****     *  LCD_1_rxBufferRead - cyclic index for read from rxBuffer,
 410:.\Generated_Source\PSoC5/LCD_1.c ****     *     incremented after each byte has been read from buffer.
 411:.\Generated_Source\PSoC5/LCD_1.c ****     *  LCD_1_rxBufferLoopDetect - creared if loop condition was detected
 412:.\Generated_Source\PSoC5/LCD_1.c ****     *     in RX ISR.
 413:.\Generated_Source\PSoC5/LCD_1.c ****     *
 414:.\Generated_Source\PSoC5/LCD_1.c ****     * Reentrant:
 415:.\Generated_Source\PSoC5/LCD_1.c ****     *  No.
 416:.\Generated_Source\PSoC5/LCD_1.c ****     *
 417:.\Generated_Source\PSoC5/LCD_1.c ****     *******************************************************************************/
 418:.\Generated_Source\PSoC5/LCD_1.c ****     uint8 LCD_1_ReadRxData(void) 
 419:.\Generated_Source\PSoC5/LCD_1.c ****     {
 348              		.loc 1 419 0
 349              		.cfi_startproc
 350              		@ args = 0, pretend = 0, frame = 0
 351              		@ frame_needed = 0, uses_anonymous_args = 0
 352 0000 10B5     		push	{r4, lr}
 353              		.cfi_def_cfa_offset 8
 354              		.cfi_offset 4, -8
 355              		.cfi_offset 14, -4
 420:.\Generated_Source\PSoC5/LCD_1.c ****         uint8 rxData;
 421:.\Generated_Source\PSoC5/LCD_1.c **** 
 422:.\Generated_Source\PSoC5/LCD_1.c ****         #if(LCD_1_RXBUFFERSIZE > LCD_1_FIFO_LENGTH)
 423:.\Generated_Source\PSoC5/LCD_1.c ****             uint8 loc_rxBufferRead;
 424:.\Generated_Source\PSoC5/LCD_1.c ****             uint8 loc_rxBufferWrite;
 425:.\Generated_Source\PSoC5/LCD_1.c ****             /* Protect variables that could change on interrupt. */
 426:.\Generated_Source\PSoC5/LCD_1.c ****             /* Disable Rx interrupt. */
 427:.\Generated_Source\PSoC5/LCD_1.c ****             #if(LCD_1_RX_INTERRUPT_ENABLED)
 428:.\Generated_Source\PSoC5/LCD_1.c ****                 LCD_1_DisableRxInt();
 356              		.loc 1 428 0
 357 0002 FFF7FEFF 		bl	LCD_1_DisableRxInt
ARM GAS  C:\Users\RECEPC~1\AppData\Local\Temp\cckZkqXS.s 			page 15


 358              	.LVL17:
 429:.\Generated_Source\PSoC5/LCD_1.c ****             #endif /* LCD_1_RX_INTERRUPT_ENABLED */
 430:.\Generated_Source\PSoC5/LCD_1.c ****             loc_rxBufferRead = LCD_1_rxBufferRead;
 359              		.loc 1 430 0
 360 0006 124A     		ldr	r2, .L36
 361 0008 5378     		ldrb	r3, [r2, #1]	@ zero_extendqisi2
 362 000a DBB2     		uxtb	r3, r3
 363              	.LVL18:
 431:.\Generated_Source\PSoC5/LCD_1.c ****             loc_rxBufferWrite = LCD_1_rxBufferWrite;
 364              		.loc 1 431 0
 365 000c 9178     		ldrb	r1, [r2, #2]	@ zero_extendqisi2
 366 000e C9B2     		uxtb	r1, r1
 367              	.LVL19:
 432:.\Generated_Source\PSoC5/LCD_1.c **** 
 433:.\Generated_Source\PSoC5/LCD_1.c ****             if( (LCD_1_rxBufferLoopDetect != 0u) || (loc_rxBufferRead != loc_rxBufferWrite) )
 368              		.loc 1 433 0
 369 0010 D278     		ldrb	r2, [r2, #3]	@ zero_extendqisi2
 370 0012 12F0FF0F 		tst	r2, #255
 371 0016 01D1     		bne	.L30
 372              		.loc 1 433 0 is_stmt 0 discriminator 1
 373 0018 8B42     		cmp	r3, r1
 374 001a 11D0     		beq	.L31
 375              	.L30:
 434:.\Generated_Source\PSoC5/LCD_1.c ****             {
 435:.\Generated_Source\PSoC5/LCD_1.c ****                 rxData = LCD_1_rxBuffer[loc_rxBufferRead];
 376              		.loc 1 435 0 is_stmt 1
 377 001c 0D4A     		ldr	r2, .L36+4
 378 001e D45C     		ldrb	r4, [r2, r3]	@ zero_extendqisi2
 379 0020 E4B2     		uxtb	r4, r4
 380              	.LVL20:
 436:.\Generated_Source\PSoC5/LCD_1.c ****                 loc_rxBufferRead++;
 381              		.loc 1 436 0
 382 0022 0133     		adds	r3, r3, #1
 383              	.LVL21:
 384 0024 DBB2     		uxtb	r3, r3
 385              	.LVL22:
 437:.\Generated_Source\PSoC5/LCD_1.c **** 
 438:.\Generated_Source\PSoC5/LCD_1.c ****                 if(loc_rxBufferRead >= LCD_1_RXBUFFERSIZE)
 386              		.loc 1 438 0
 387 0026 132B     		cmp	r3, #19
 388 0028 00D9     		bls	.L32
 439:.\Generated_Source\PSoC5/LCD_1.c ****                 {
 440:.\Generated_Source\PSoC5/LCD_1.c ****                     loc_rxBufferRead = 0u;
 389              		.loc 1 440 0
 390 002a 0023     		movs	r3, #0
 391              	.LVL23:
 392              	.L32:
 441:.\Generated_Source\PSoC5/LCD_1.c ****                 }
 442:.\Generated_Source\PSoC5/LCD_1.c ****                 /* Update the real pointer */
 443:.\Generated_Source\PSoC5/LCD_1.c ****                 LCD_1_rxBufferRead = loc_rxBufferRead;
 393              		.loc 1 443 0
 394 002c 084A     		ldr	r2, .L36
 395 002e 5370     		strb	r3, [r2, #1]
 444:.\Generated_Source\PSoC5/LCD_1.c **** 
 445:.\Generated_Source\PSoC5/LCD_1.c ****                 if(LCD_1_rxBufferLoopDetect != 0u )
 396              		.loc 1 445 0
 397 0030 D378     		ldrb	r3, [r2, #3]	@ zero_extendqisi2
ARM GAS  C:\Users\RECEPC~1\AppData\Local\Temp\cckZkqXS.s 			page 16


 398              	.LVL24:
 399 0032 13F0FF0F 		tst	r3, #255
 400 0036 06D0     		beq	.L33
 446:.\Generated_Source\PSoC5/LCD_1.c ****                 {
 447:.\Generated_Source\PSoC5/LCD_1.c ****                     LCD_1_rxBufferLoopDetect = 0u;
 401              		.loc 1 447 0
 402 0038 0022     		movs	r2, #0
 403 003a 054B     		ldr	r3, .L36
 404 003c DA70     		strb	r2, [r3, #3]
 405              	.LVL25:
 406 003e 02E0     		b	.L33
 407              	.LVL26:
 408              	.L31:
 448:.\Generated_Source\PSoC5/LCD_1.c ****                     #if( (LCD_1_RX_INTERRUPT_ENABLED) && (LCD_1_FLOW_CONTROL != 0u) && \
 449:.\Generated_Source\PSoC5/LCD_1.c ****                          (LCD_1_RXBUFFERSIZE > LCD_1_FIFO_LENGTH) )
 450:.\Generated_Source\PSoC5/LCD_1.c ****                         /* When Hardware Flow Control selected - return RX mask */
 451:.\Generated_Source\PSoC5/LCD_1.c ****                         #if( LCD_1_HD_ENABLED )
 452:.\Generated_Source\PSoC5/LCD_1.c ****                             if((LCD_1_CONTROL_REG & LCD_1_CTRL_HD_SEND) == 0u)
 453:.\Generated_Source\PSoC5/LCD_1.c ****                             {   /* In Half duplex mode return RX mask only in RX
 454:.\Generated_Source\PSoC5/LCD_1.c ****                                 *  configuration set, otherwise
 455:.\Generated_Source\PSoC5/LCD_1.c ****                                 *  mask will be returned in LoadRxConfig() API.
 456:.\Generated_Source\PSoC5/LCD_1.c ****                                 */
 457:.\Generated_Source\PSoC5/LCD_1.c ****                                 LCD_1_RXSTATUS_MASK_REG  |= LCD_1_RX_STS_FIFO_NOTEMPTY;
 458:.\Generated_Source\PSoC5/LCD_1.c ****                             }
 459:.\Generated_Source\PSoC5/LCD_1.c ****                         #else
 460:.\Generated_Source\PSoC5/LCD_1.c ****                             LCD_1_RXSTATUS_MASK_REG  |= LCD_1_RX_STS_FIFO_NOTEMPTY;
 461:.\Generated_Source\PSoC5/LCD_1.c ****                         #endif /* end LCD_1_HD_ENABLED */
 462:.\Generated_Source\PSoC5/LCD_1.c ****                     #endif /* LCD_1_RX_INTERRUPT_ENABLED and Hardware flow control*/
 463:.\Generated_Source\PSoC5/LCD_1.c ****                 }
 464:.\Generated_Source\PSoC5/LCD_1.c ****             }
 465:.\Generated_Source\PSoC5/LCD_1.c ****             else
 466:.\Generated_Source\PSoC5/LCD_1.c ****             {   /* Needs to check status for RX_STS_FIFO_NOTEMPTY bit*/
 467:.\Generated_Source\PSoC5/LCD_1.c ****                 rxData = LCD_1_RXDATA_REG;
 409              		.loc 1 467 0
 410 0040 054B     		ldr	r3, .L36+8
 411              	.LVL27:
 412 0042 1C78     		ldrb	r4, [r3]	@ zero_extendqisi2
 413 0044 E4B2     		uxtb	r4, r4
 414              	.LVL28:
 415              	.L33:
 468:.\Generated_Source\PSoC5/LCD_1.c ****             }
 469:.\Generated_Source\PSoC5/LCD_1.c **** 
 470:.\Generated_Source\PSoC5/LCD_1.c ****             /* Enable Rx interrupt. */
 471:.\Generated_Source\PSoC5/LCD_1.c ****             #if(LCD_1_RX_INTERRUPT_ENABLED)
 472:.\Generated_Source\PSoC5/LCD_1.c ****                 LCD_1_EnableRxInt();
 416              		.loc 1 472 0
 417 0046 FFF7FEFF 		bl	LCD_1_EnableRxInt
 418              	.LVL29:
 473:.\Generated_Source\PSoC5/LCD_1.c ****             #endif /* End LCD_1_RX_INTERRUPT_ENABLED */
 474:.\Generated_Source\PSoC5/LCD_1.c **** 
 475:.\Generated_Source\PSoC5/LCD_1.c ****         #else /* LCD_1_RXBUFFERSIZE > LCD_1_FIFO_LENGTH */
 476:.\Generated_Source\PSoC5/LCD_1.c **** 
 477:.\Generated_Source\PSoC5/LCD_1.c ****             /* Needs to check status for RX_STS_FIFO_NOTEMPTY bit*/
 478:.\Generated_Source\PSoC5/LCD_1.c ****             rxData = LCD_1_RXDATA_REG;
 479:.\Generated_Source\PSoC5/LCD_1.c **** 
 480:.\Generated_Source\PSoC5/LCD_1.c ****         #endif /* LCD_1_RXBUFFERSIZE > LCD_1_FIFO_LENGTH */
 481:.\Generated_Source\PSoC5/LCD_1.c **** 
ARM GAS  C:\Users\RECEPC~1\AppData\Local\Temp\cckZkqXS.s 			page 17


 482:.\Generated_Source\PSoC5/LCD_1.c ****         return(rxData);
 483:.\Generated_Source\PSoC5/LCD_1.c ****     }
 419              		.loc 1 483 0
 420 004a 2046     		mov	r0, r4
 421 004c 10BD     		pop	{r4, pc}
 422              	.LVL30:
 423              	.L37:
 424 004e 00BF     		.align	2
 425              	.L36:
 426 0050 00000000 		.word	.LANCHOR0
 427 0054 00000000 		.word	LCD_1_rxBuffer
 428 0058 48650040 		.word	1073767752
 429              		.cfi_endproc
 430              	.LFE9:
 431              		.size	LCD_1_ReadRxData, .-LCD_1_ReadRxData
 432              		.section	.text.LCD_1_ReadRxStatus,"ax",%progbits
 433              		.align	2
 434              		.global	LCD_1_ReadRxStatus
 435              		.thumb
 436              		.thumb_func
 437              		.type	LCD_1_ReadRxStatus, %function
 438              	LCD_1_ReadRxStatus:
 439              	.LFB10:
 484:.\Generated_Source\PSoC5/LCD_1.c **** 
 485:.\Generated_Source\PSoC5/LCD_1.c **** 
 486:.\Generated_Source\PSoC5/LCD_1.c ****     /*******************************************************************************
 487:.\Generated_Source\PSoC5/LCD_1.c ****     * Function Name: LCD_1_ReadRxStatus
 488:.\Generated_Source\PSoC5/LCD_1.c ****     ********************************************************************************
 489:.\Generated_Source\PSoC5/LCD_1.c ****     *
 490:.\Generated_Source\PSoC5/LCD_1.c ****     * Summary:
 491:.\Generated_Source\PSoC5/LCD_1.c ****     *  Read the current state of the status register
 492:.\Generated_Source\PSoC5/LCD_1.c ****     *  And detect software buffer overflow.
 493:.\Generated_Source\PSoC5/LCD_1.c ****     *
 494:.\Generated_Source\PSoC5/LCD_1.c ****     * Parameters:
 495:.\Generated_Source\PSoC5/LCD_1.c ****     *  None.
 496:.\Generated_Source\PSoC5/LCD_1.c ****     *
 497:.\Generated_Source\PSoC5/LCD_1.c ****     * Return:
 498:.\Generated_Source\PSoC5/LCD_1.c ****     *  Current state of the status register.
 499:.\Generated_Source\PSoC5/LCD_1.c ****     *
 500:.\Generated_Source\PSoC5/LCD_1.c ****     * Global Variables:
 501:.\Generated_Source\PSoC5/LCD_1.c ****     *  LCD_1_rxBufferOverflow - used to indicate overload condition.
 502:.\Generated_Source\PSoC5/LCD_1.c ****     *   It set to one in RX interrupt when there isn?t free space in
 503:.\Generated_Source\PSoC5/LCD_1.c ****     *   LCD_1_rxBufferRead to write new data. This condition returned
 504:.\Generated_Source\PSoC5/LCD_1.c ****     *   and cleared to zero by this API as an
 505:.\Generated_Source\PSoC5/LCD_1.c ****     *   LCD_1_RX_STS_SOFT_BUFF_OVER bit along with RX Status register
 506:.\Generated_Source\PSoC5/LCD_1.c ****     *   bits.
 507:.\Generated_Source\PSoC5/LCD_1.c ****     *
 508:.\Generated_Source\PSoC5/LCD_1.c ****     *******************************************************************************/
 509:.\Generated_Source\PSoC5/LCD_1.c ****     uint8 LCD_1_ReadRxStatus(void) 
 510:.\Generated_Source\PSoC5/LCD_1.c ****     {
 440              		.loc 1 510 0
 441              		.cfi_startproc
 442              		@ args = 0, pretend = 0, frame = 0
 443              		@ frame_needed = 0, uses_anonymous_args = 0
 444              		@ link register save eliminated.
 511:.\Generated_Source\PSoC5/LCD_1.c ****         uint8 status;
 512:.\Generated_Source\PSoC5/LCD_1.c **** 
ARM GAS  C:\Users\RECEPC~1\AppData\Local\Temp\cckZkqXS.s 			page 18


 513:.\Generated_Source\PSoC5/LCD_1.c ****         status = LCD_1_RXSTATUS_REG & LCD_1_RX_HW_MASK;
 445              		.loc 1 513 0
 446 0000 074B     		ldr	r3, .L40
 447 0002 1878     		ldrb	r0, [r3]	@ zero_extendqisi2
 448 0004 00F07F00 		and	r0, r0, #127
 449              	.LVL31:
 514:.\Generated_Source\PSoC5/LCD_1.c **** 
 515:.\Generated_Source\PSoC5/LCD_1.c ****         #if(LCD_1_RXBUFFERSIZE > LCD_1_FIFO_LENGTH)
 516:.\Generated_Source\PSoC5/LCD_1.c ****             if( LCD_1_rxBufferOverflow != 0u )
 450              		.loc 1 516 0
 451 0008 064B     		ldr	r3, .L40+4
 452 000a 1B79     		ldrb	r3, [r3, #4]	@ zero_extendqisi2
 453 000c 13F0FF0F 		tst	r3, #255
 454 0010 04D0     		beq	.L39
 517:.\Generated_Source\PSoC5/LCD_1.c ****             {
 518:.\Generated_Source\PSoC5/LCD_1.c ****                 status |= LCD_1_RX_STS_SOFT_BUFF_OVER;
 455              		.loc 1 518 0
 456 0012 40F08000 		orr	r0, r0, #128
 457              	.LVL32:
 519:.\Generated_Source\PSoC5/LCD_1.c ****                 LCD_1_rxBufferOverflow = 0u;
 458              		.loc 1 519 0
 459 0016 0022     		movs	r2, #0
 460 0018 024B     		ldr	r3, .L40+4
 461 001a 1A71     		strb	r2, [r3, #4]
 462              	.L39:
 520:.\Generated_Source\PSoC5/LCD_1.c ****             }
 521:.\Generated_Source\PSoC5/LCD_1.c ****         #endif /* LCD_1_RXBUFFERSIZE */
 522:.\Generated_Source\PSoC5/LCD_1.c **** 
 523:.\Generated_Source\PSoC5/LCD_1.c ****         return(status);
 524:.\Generated_Source\PSoC5/LCD_1.c ****     }
 463              		.loc 1 524 0
 464 001c 7047     		bx	lr
 465              	.L41:
 466 001e 00BF     		.align	2
 467              	.L40:
 468 0020 6A640040 		.word	1073767530
 469 0024 00000000 		.word	.LANCHOR0
 470              		.cfi_endproc
 471              	.LFE10:
 472              		.size	LCD_1_ReadRxStatus, .-LCD_1_ReadRxStatus
 473              		.section	.text.LCD_1_GetChar,"ax",%progbits
 474              		.align	2
 475              		.global	LCD_1_GetChar
 476              		.thumb
 477              		.thumb_func
 478              		.type	LCD_1_GetChar, %function
 479              	LCD_1_GetChar:
 480              	.LFB11:
 525:.\Generated_Source\PSoC5/LCD_1.c **** 
 526:.\Generated_Source\PSoC5/LCD_1.c **** 
 527:.\Generated_Source\PSoC5/LCD_1.c ****     /*******************************************************************************
 528:.\Generated_Source\PSoC5/LCD_1.c ****     * Function Name: LCD_1_GetChar
 529:.\Generated_Source\PSoC5/LCD_1.c ****     ********************************************************************************
 530:.\Generated_Source\PSoC5/LCD_1.c ****     *
 531:.\Generated_Source\PSoC5/LCD_1.c ****     * Summary:
 532:.\Generated_Source\PSoC5/LCD_1.c ****     *  Reads UART RX buffer immediately, if data is not available or an error
 533:.\Generated_Source\PSoC5/LCD_1.c ****     *  condition exists, zero is returned; otherwise, character is read and
ARM GAS  C:\Users\RECEPC~1\AppData\Local\Temp\cckZkqXS.s 			page 19


 534:.\Generated_Source\PSoC5/LCD_1.c ****     *  returned.
 535:.\Generated_Source\PSoC5/LCD_1.c ****     *
 536:.\Generated_Source\PSoC5/LCD_1.c ****     * Parameters:
 537:.\Generated_Source\PSoC5/LCD_1.c ****     *  None.
 538:.\Generated_Source\PSoC5/LCD_1.c ****     *
 539:.\Generated_Source\PSoC5/LCD_1.c ****     * Return:
 540:.\Generated_Source\PSoC5/LCD_1.c ****     *  Character read from UART RX buffer. ASCII characters from 1 to 255 are valid.
 541:.\Generated_Source\PSoC5/LCD_1.c ****     *  A returned zero signifies an error condition or no data available.
 542:.\Generated_Source\PSoC5/LCD_1.c ****     *
 543:.\Generated_Source\PSoC5/LCD_1.c ****     * Global Variables:
 544:.\Generated_Source\PSoC5/LCD_1.c ****     *  LCD_1_rxBuffer - RAM buffer pointer for save received data.
 545:.\Generated_Source\PSoC5/LCD_1.c ****     *  LCD_1_rxBufferWrite - cyclic index for write to rxBuffer,
 546:.\Generated_Source\PSoC5/LCD_1.c ****     *     checked to identify new data.
 547:.\Generated_Source\PSoC5/LCD_1.c ****     *  LCD_1_rxBufferRead - cyclic index for read from rxBuffer,
 548:.\Generated_Source\PSoC5/LCD_1.c ****     *     incremented after each byte has been read from buffer.
 549:.\Generated_Source\PSoC5/LCD_1.c ****     *  LCD_1_rxBufferLoopDetect - creared if loop condition was detected
 550:.\Generated_Source\PSoC5/LCD_1.c ****     *     in RX ISR.
 551:.\Generated_Source\PSoC5/LCD_1.c ****     *
 552:.\Generated_Source\PSoC5/LCD_1.c ****     * Reentrant:
 553:.\Generated_Source\PSoC5/LCD_1.c ****     *  No.
 554:.\Generated_Source\PSoC5/LCD_1.c ****     *
 555:.\Generated_Source\PSoC5/LCD_1.c ****     *******************************************************************************/
 556:.\Generated_Source\PSoC5/LCD_1.c ****     uint8 LCD_1_GetChar(void) 
 557:.\Generated_Source\PSoC5/LCD_1.c ****     {
 481              		.loc 1 557 0
 482              		.cfi_startproc
 483              		@ args = 0, pretend = 0, frame = 0
 484              		@ frame_needed = 0, uses_anonymous_args = 0
 485 0000 10B5     		push	{r4, lr}
 486              		.cfi_def_cfa_offset 8
 487              		.cfi_offset 4, -8
 488              		.cfi_offset 14, -4
 489              	.LVL33:
 558:.\Generated_Source\PSoC5/LCD_1.c ****         uint8 rxData = 0u;
 559:.\Generated_Source\PSoC5/LCD_1.c ****         uint8 rxStatus;
 560:.\Generated_Source\PSoC5/LCD_1.c **** 
 561:.\Generated_Source\PSoC5/LCD_1.c ****         #if(LCD_1_RXBUFFERSIZE > LCD_1_FIFO_LENGTH)
 562:.\Generated_Source\PSoC5/LCD_1.c ****             uint8 loc_rxBufferRead;
 563:.\Generated_Source\PSoC5/LCD_1.c ****             uint8 loc_rxBufferWrite;
 564:.\Generated_Source\PSoC5/LCD_1.c ****             /* Protect variables that could change on interrupt. */
 565:.\Generated_Source\PSoC5/LCD_1.c ****             /* Disable Rx interrupt. */
 566:.\Generated_Source\PSoC5/LCD_1.c ****             #if(LCD_1_RX_INTERRUPT_ENABLED)
 567:.\Generated_Source\PSoC5/LCD_1.c ****                 LCD_1_DisableRxInt();
 490              		.loc 1 567 0
 491 0002 FFF7FEFF 		bl	LCD_1_DisableRxInt
 492              	.LVL34:
 568:.\Generated_Source\PSoC5/LCD_1.c ****             #endif /* LCD_1_RX_INTERRUPT_ENABLED */
 569:.\Generated_Source\PSoC5/LCD_1.c ****             loc_rxBufferRead = LCD_1_rxBufferRead;
 493              		.loc 1 569 0
 494 0006 184A     		ldr	r2, .L51
 495 0008 5378     		ldrb	r3, [r2, #1]	@ zero_extendqisi2
 496 000a DBB2     		uxtb	r3, r3
 497              	.LVL35:
 570:.\Generated_Source\PSoC5/LCD_1.c ****             loc_rxBufferWrite = LCD_1_rxBufferWrite;
 498              		.loc 1 570 0
 499 000c 9178     		ldrb	r1, [r2, #2]	@ zero_extendqisi2
 500 000e C9B2     		uxtb	r1, r1
ARM GAS  C:\Users\RECEPC~1\AppData\Local\Temp\cckZkqXS.s 			page 20


 501              	.LVL36:
 571:.\Generated_Source\PSoC5/LCD_1.c **** 
 572:.\Generated_Source\PSoC5/LCD_1.c ****             if( (LCD_1_rxBufferLoopDetect != 0u) || (loc_rxBufferRead != loc_rxBufferWrite) )
 502              		.loc 1 572 0
 503 0010 D278     		ldrb	r2, [r2, #3]	@ zero_extendqisi2
 504 0012 12F0FF0F 		tst	r2, #255
 505 0016 01D1     		bne	.L43
 506              		.loc 1 572 0 is_stmt 0 discriminator 1
 507 0018 8B42     		cmp	r3, r1
 508 001a 11D0     		beq	.L44
 509              	.L43:
 573:.\Generated_Source\PSoC5/LCD_1.c ****             {
 574:.\Generated_Source\PSoC5/LCD_1.c ****                 rxData = LCD_1_rxBuffer[loc_rxBufferRead];
 510              		.loc 1 574 0 is_stmt 1
 511 001c 134A     		ldr	r2, .L51+4
 512 001e D45C     		ldrb	r4, [r2, r3]	@ zero_extendqisi2
 513 0020 E4B2     		uxtb	r4, r4
 514              	.LVL37:
 575:.\Generated_Source\PSoC5/LCD_1.c ****                 loc_rxBufferRead++;
 515              		.loc 1 575 0
 516 0022 0133     		adds	r3, r3, #1
 517              	.LVL38:
 518 0024 DBB2     		uxtb	r3, r3
 519              	.LVL39:
 576:.\Generated_Source\PSoC5/LCD_1.c ****                 if(loc_rxBufferRead >= LCD_1_RXBUFFERSIZE)
 520              		.loc 1 576 0
 521 0026 132B     		cmp	r3, #19
 522 0028 00D9     		bls	.L45
 577:.\Generated_Source\PSoC5/LCD_1.c ****                 {
 578:.\Generated_Source\PSoC5/LCD_1.c ****                     loc_rxBufferRead = 0u;
 523              		.loc 1 578 0
 524 002a 0023     		movs	r3, #0
 525              	.LVL40:
 526              	.L45:
 579:.\Generated_Source\PSoC5/LCD_1.c ****                 }
 580:.\Generated_Source\PSoC5/LCD_1.c ****                 /* Update the real pointer */
 581:.\Generated_Source\PSoC5/LCD_1.c ****                 LCD_1_rxBufferRead = loc_rxBufferRead;
 527              		.loc 1 581 0
 528 002c 0E4A     		ldr	r2, .L51
 529 002e 5370     		strb	r3, [r2, #1]
 582:.\Generated_Source\PSoC5/LCD_1.c **** 
 583:.\Generated_Source\PSoC5/LCD_1.c ****                 if(LCD_1_rxBufferLoopDetect > 0u )
 530              		.loc 1 583 0
 531 0030 D378     		ldrb	r3, [r2, #3]	@ zero_extendqisi2
 532              	.LVL41:
 533 0032 13F0FF0F 		tst	r3, #255
 534 0036 13D0     		beq	.L46
 584:.\Generated_Source\PSoC5/LCD_1.c ****                 {
 585:.\Generated_Source\PSoC5/LCD_1.c ****                     LCD_1_rxBufferLoopDetect = 0u;
 535              		.loc 1 585 0
 536 0038 0022     		movs	r2, #0
 537 003a 0B4B     		ldr	r3, .L51
 538 003c DA70     		strb	r2, [r3, #3]
 539              	.LVL42:
 540 003e 0FE0     		b	.L46
 541              	.LVL43:
 542              	.L44:
ARM GAS  C:\Users\RECEPC~1\AppData\Local\Temp\cckZkqXS.s 			page 21


 586:.\Generated_Source\PSoC5/LCD_1.c ****                     #if( (LCD_1_RX_INTERRUPT_ENABLED) && (LCD_1_FLOW_CONTROL != 0u) )
 587:.\Generated_Source\PSoC5/LCD_1.c ****                         /* When Hardware Flow Control selected - return RX mask */
 588:.\Generated_Source\PSoC5/LCD_1.c ****                         #if( LCD_1_HD_ENABLED )
 589:.\Generated_Source\PSoC5/LCD_1.c ****                             if((LCD_1_CONTROL_REG & LCD_1_CTRL_HD_SEND) == 0u)
 590:.\Generated_Source\PSoC5/LCD_1.c ****                             {   /* In Half duplex mode return RX mask only if
 591:.\Generated_Source\PSoC5/LCD_1.c ****                                 *  RX configuration set, otherwise
 592:.\Generated_Source\PSoC5/LCD_1.c ****                                 *  mask will be returned in LoadRxConfig() API.
 593:.\Generated_Source\PSoC5/LCD_1.c ****                                 */
 594:.\Generated_Source\PSoC5/LCD_1.c ****                                 LCD_1_RXSTATUS_MASK_REG  |= LCD_1_RX_STS_FIFO_NOTEMPTY;
 595:.\Generated_Source\PSoC5/LCD_1.c ****                             }
 596:.\Generated_Source\PSoC5/LCD_1.c ****                         #else
 597:.\Generated_Source\PSoC5/LCD_1.c ****                             LCD_1_RXSTATUS_MASK_REG  |= LCD_1_RX_STS_FIFO_NOTEMPTY;
 598:.\Generated_Source\PSoC5/LCD_1.c ****                         #endif /* end LCD_1_HD_ENABLED */
 599:.\Generated_Source\PSoC5/LCD_1.c ****                     #endif /* LCD_1_RX_INTERRUPT_ENABLED and Hardware flow control*/
 600:.\Generated_Source\PSoC5/LCD_1.c ****                 }
 601:.\Generated_Source\PSoC5/LCD_1.c **** 
 602:.\Generated_Source\PSoC5/LCD_1.c ****             }
 603:.\Generated_Source\PSoC5/LCD_1.c ****             else
 604:.\Generated_Source\PSoC5/LCD_1.c ****             {   rxStatus = LCD_1_RXSTATUS_REG;
 543              		.loc 1 604 0
 544 0040 0B4B     		ldr	r3, .L51+8
 545              	.LVL44:
 546 0042 1B78     		ldrb	r3, [r3]	@ zero_extendqisi2
 547 0044 DBB2     		uxtb	r3, r3
 548              	.LVL45:
 605:.\Generated_Source\PSoC5/LCD_1.c ****                 if((rxStatus & LCD_1_RX_STS_FIFO_NOTEMPTY) != 0u)
 549              		.loc 1 605 0
 550 0046 13F0200F 		tst	r3, #32
 551 004a 06D0     		beq	.L48
 606:.\Generated_Source\PSoC5/LCD_1.c ****                 {   /* Read received data from FIFO*/
 607:.\Generated_Source\PSoC5/LCD_1.c ****                     rxData = LCD_1_RXDATA_REG;
 552              		.loc 1 607 0
 553 004c 094A     		ldr	r2, .L51+12
 554 004e 1478     		ldrb	r4, [r2]	@ zero_extendqisi2
 555 0050 E4B2     		uxtb	r4, r4
 556              	.LVL46:
 608:.\Generated_Source\PSoC5/LCD_1.c ****                     /*Check status on error*/
 609:.\Generated_Source\PSoC5/LCD_1.c ****                     if((rxStatus & (LCD_1_RX_STS_BREAK | LCD_1_RX_STS_PAR_ERROR |
 557              		.loc 1 609 0
 558 0052 13F01E0F 		tst	r3, #30
 559 0056 02D1     		bne	.L49
 560 0058 02E0     		b	.L46
 561              	.LVL47:
 562              	.L48:
 558:.\Generated_Source\PSoC5/LCD_1.c ****         uint8 rxStatus;
 563              		.loc 1 558 0
 564 005a 0024     		movs	r4, #0
 565 005c 00E0     		b	.L46
 566              	.LVL48:
 567              	.L49:
 610:.\Generated_Source\PSoC5/LCD_1.c ****                                    LCD_1_RX_STS_STOP_ERROR | LCD_1_RX_STS_OVERRUN)) != 0u)
 611:.\Generated_Source\PSoC5/LCD_1.c ****                     {
 612:.\Generated_Source\PSoC5/LCD_1.c ****                         rxData = 0u;
 568              		.loc 1 612 0
 569 005e 0024     		movs	r4, #0
 570              	.LVL49:
 571              	.L46:
ARM GAS  C:\Users\RECEPC~1\AppData\Local\Temp\cckZkqXS.s 			page 22


 613:.\Generated_Source\PSoC5/LCD_1.c ****                     }
 614:.\Generated_Source\PSoC5/LCD_1.c ****                 }
 615:.\Generated_Source\PSoC5/LCD_1.c ****             }
 616:.\Generated_Source\PSoC5/LCD_1.c **** 
 617:.\Generated_Source\PSoC5/LCD_1.c ****             /* Enable Rx interrupt. */
 618:.\Generated_Source\PSoC5/LCD_1.c ****             #if(LCD_1_RX_INTERRUPT_ENABLED)
 619:.\Generated_Source\PSoC5/LCD_1.c ****                 LCD_1_EnableRxInt();
 572              		.loc 1 619 0
 573 0060 FFF7FEFF 		bl	LCD_1_EnableRxInt
 574              	.LVL50:
 620:.\Generated_Source\PSoC5/LCD_1.c ****             #endif /* LCD_1_RX_INTERRUPT_ENABLED */
 621:.\Generated_Source\PSoC5/LCD_1.c **** 
 622:.\Generated_Source\PSoC5/LCD_1.c ****         #else /* LCD_1_RXBUFFERSIZE > LCD_1_FIFO_LENGTH */
 623:.\Generated_Source\PSoC5/LCD_1.c **** 
 624:.\Generated_Source\PSoC5/LCD_1.c ****             rxStatus =LCD_1_RXSTATUS_REG;
 625:.\Generated_Source\PSoC5/LCD_1.c ****             if((rxStatus & LCD_1_RX_STS_FIFO_NOTEMPTY) != 0u)
 626:.\Generated_Source\PSoC5/LCD_1.c ****             {   /* Read received data from FIFO*/
 627:.\Generated_Source\PSoC5/LCD_1.c ****                 rxData = LCD_1_RXDATA_REG;
 628:.\Generated_Source\PSoC5/LCD_1.c ****                 /*Check status on error*/
 629:.\Generated_Source\PSoC5/LCD_1.c ****                 if((rxStatus & (LCD_1_RX_STS_BREAK | LCD_1_RX_STS_PAR_ERROR |
 630:.\Generated_Source\PSoC5/LCD_1.c ****                                LCD_1_RX_STS_STOP_ERROR | LCD_1_RX_STS_OVERRUN)) != 0u)
 631:.\Generated_Source\PSoC5/LCD_1.c ****                 {
 632:.\Generated_Source\PSoC5/LCD_1.c ****                     rxData = 0u;
 633:.\Generated_Source\PSoC5/LCD_1.c ****                 }
 634:.\Generated_Source\PSoC5/LCD_1.c ****             }
 635:.\Generated_Source\PSoC5/LCD_1.c ****         #endif /* LCD_1_RXBUFFERSIZE > LCD_1_FIFO_LENGTH */
 636:.\Generated_Source\PSoC5/LCD_1.c **** 
 637:.\Generated_Source\PSoC5/LCD_1.c ****         return(rxData);
 638:.\Generated_Source\PSoC5/LCD_1.c ****     }
 575              		.loc 1 638 0
 576 0064 2046     		mov	r0, r4
 577 0066 10BD     		pop	{r4, pc}
 578              	.LVL51:
 579              	.L52:
 580              		.align	2
 581              	.L51:
 582 0068 00000000 		.word	.LANCHOR0
 583 006c 00000000 		.word	LCD_1_rxBuffer
 584 0070 6A640040 		.word	1073767530
 585 0074 48650040 		.word	1073767752
 586              		.cfi_endproc
 587              	.LFE11:
 588              		.size	LCD_1_GetChar, .-LCD_1_GetChar
 589              		.section	.text.LCD_1_GetByte,"ax",%progbits
 590              		.align	2
 591              		.global	LCD_1_GetByte
 592              		.thumb
 593              		.thumb_func
 594              		.type	LCD_1_GetByte, %function
 595              	LCD_1_GetByte:
 596              	.LFB12:
 639:.\Generated_Source\PSoC5/LCD_1.c **** 
 640:.\Generated_Source\PSoC5/LCD_1.c **** 
 641:.\Generated_Source\PSoC5/LCD_1.c ****     /*******************************************************************************
 642:.\Generated_Source\PSoC5/LCD_1.c ****     * Function Name: LCD_1_GetByte
 643:.\Generated_Source\PSoC5/LCD_1.c ****     ********************************************************************************
 644:.\Generated_Source\PSoC5/LCD_1.c ****     *
ARM GAS  C:\Users\RECEPC~1\AppData\Local\Temp\cckZkqXS.s 			page 23


 645:.\Generated_Source\PSoC5/LCD_1.c ****     * Summary:
 646:.\Generated_Source\PSoC5/LCD_1.c ****     *  Grab the next available byte of data from the recieve FIFO
 647:.\Generated_Source\PSoC5/LCD_1.c ****     *
 648:.\Generated_Source\PSoC5/LCD_1.c ****     * Parameters:
 649:.\Generated_Source\PSoC5/LCD_1.c ****     *  None.
 650:.\Generated_Source\PSoC5/LCD_1.c ****     *
 651:.\Generated_Source\PSoC5/LCD_1.c ****     * Return:
 652:.\Generated_Source\PSoC5/LCD_1.c ****     *  MSB contains Status Register and LSB contains UART RX data
 653:.\Generated_Source\PSoC5/LCD_1.c ****     *
 654:.\Generated_Source\PSoC5/LCD_1.c ****     * Reentrant:
 655:.\Generated_Source\PSoC5/LCD_1.c ****     *  No.
 656:.\Generated_Source\PSoC5/LCD_1.c ****     *
 657:.\Generated_Source\PSoC5/LCD_1.c ****     *******************************************************************************/
 658:.\Generated_Source\PSoC5/LCD_1.c ****     uint16 LCD_1_GetByte(void) 
 659:.\Generated_Source\PSoC5/LCD_1.c ****     {
 597              		.loc 1 659 0
 598              		.cfi_startproc
 599              		@ args = 0, pretend = 0, frame = 0
 600              		@ frame_needed = 0, uses_anonymous_args = 0
 601 0000 10B5     		push	{r4, lr}
 602              		.cfi_def_cfa_offset 8
 603              		.cfi_offset 4, -8
 604              		.cfi_offset 14, -4
 660:.\Generated_Source\PSoC5/LCD_1.c ****         return ( ((uint16)LCD_1_ReadRxStatus() << 8u) | LCD_1_ReadRxData() );
 605              		.loc 1 660 0
 606 0002 FFF7FEFF 		bl	LCD_1_ReadRxStatus
 607              	.LVL52:
 608 0006 0402     		lsls	r4, r0, #8
 609 0008 FFF7FEFF 		bl	LCD_1_ReadRxData
 610              	.LVL53:
 611 000c 2043     		orrs	r0, r0, r4
 661:.\Generated_Source\PSoC5/LCD_1.c ****     }
 612              		.loc 1 661 0
 613 000e 80B2     		uxth	r0, r0
 614 0010 10BD     		pop	{r4, pc}
 615              		.cfi_endproc
 616              	.LFE12:
 617              		.size	LCD_1_GetByte, .-LCD_1_GetByte
 618 0012 00BF     		.section	.text.LCD_1_GetRxBufferSize,"ax",%progbits
 619              		.align	2
 620              		.global	LCD_1_GetRxBufferSize
 621              		.thumb
 622              		.thumb_func
 623              		.type	LCD_1_GetRxBufferSize, %function
 624              	LCD_1_GetRxBufferSize:
 625              	.LFB13:
 662:.\Generated_Source\PSoC5/LCD_1.c **** 
 663:.\Generated_Source\PSoC5/LCD_1.c **** 
 664:.\Generated_Source\PSoC5/LCD_1.c ****     /*******************************************************************************
 665:.\Generated_Source\PSoC5/LCD_1.c ****     * Function Name: LCD_1_GetRxBufferSize
 666:.\Generated_Source\PSoC5/LCD_1.c ****     ********************************************************************************
 667:.\Generated_Source\PSoC5/LCD_1.c ****     *
 668:.\Generated_Source\PSoC5/LCD_1.c ****     * Summary:
 669:.\Generated_Source\PSoC5/LCD_1.c ****     *  Determine the amount of bytes left in the RX buffer and return the count in
 670:.\Generated_Source\PSoC5/LCD_1.c ****     *  bytes
 671:.\Generated_Source\PSoC5/LCD_1.c ****     *
 672:.\Generated_Source\PSoC5/LCD_1.c ****     * Parameters:
ARM GAS  C:\Users\RECEPC~1\AppData\Local\Temp\cckZkqXS.s 			page 24


 673:.\Generated_Source\PSoC5/LCD_1.c ****     *  None.
 674:.\Generated_Source\PSoC5/LCD_1.c ****     *
 675:.\Generated_Source\PSoC5/LCD_1.c ****     * Return:
 676:.\Generated_Source\PSoC5/LCD_1.c ****     *  uint8: Integer count of the number of bytes left
 677:.\Generated_Source\PSoC5/LCD_1.c ****     *  in the RX buffer
 678:.\Generated_Source\PSoC5/LCD_1.c ****     *
 679:.\Generated_Source\PSoC5/LCD_1.c ****     * Global Variables:
 680:.\Generated_Source\PSoC5/LCD_1.c ****     *  LCD_1_rxBufferWrite - used to calculate left bytes.
 681:.\Generated_Source\PSoC5/LCD_1.c ****     *  LCD_1_rxBufferRead - used to calculate left bytes.
 682:.\Generated_Source\PSoC5/LCD_1.c ****     *  LCD_1_rxBufferLoopDetect - checked to decide left bytes amount.
 683:.\Generated_Source\PSoC5/LCD_1.c ****     *
 684:.\Generated_Source\PSoC5/LCD_1.c ****     * Reentrant:
 685:.\Generated_Source\PSoC5/LCD_1.c ****     *  No.
 686:.\Generated_Source\PSoC5/LCD_1.c ****     *
 687:.\Generated_Source\PSoC5/LCD_1.c ****     * Theory:
 688:.\Generated_Source\PSoC5/LCD_1.c ****     *  Allows the user to find out how full the RX Buffer is.
 689:.\Generated_Source\PSoC5/LCD_1.c ****     *
 690:.\Generated_Source\PSoC5/LCD_1.c ****     *******************************************************************************/
 691:.\Generated_Source\PSoC5/LCD_1.c ****     uint8 LCD_1_GetRxBufferSize(void)
 692:.\Generated_Source\PSoC5/LCD_1.c ****                                                             
 693:.\Generated_Source\PSoC5/LCD_1.c ****     {
 626              		.loc 1 693 0
 627              		.cfi_startproc
 628              		@ args = 0, pretend = 0, frame = 0
 629              		@ frame_needed = 0, uses_anonymous_args = 0
 630 0000 10B5     		push	{r4, lr}
 631              		.cfi_def_cfa_offset 8
 632              		.cfi_offset 4, -8
 633              		.cfi_offset 14, -4
 694:.\Generated_Source\PSoC5/LCD_1.c ****         uint8 size;
 695:.\Generated_Source\PSoC5/LCD_1.c **** 
 696:.\Generated_Source\PSoC5/LCD_1.c ****         #if(LCD_1_RXBUFFERSIZE > LCD_1_FIFO_LENGTH)
 697:.\Generated_Source\PSoC5/LCD_1.c **** 
 698:.\Generated_Source\PSoC5/LCD_1.c ****             /* Disable Rx interrupt. */
 699:.\Generated_Source\PSoC5/LCD_1.c ****             /* Protect variables that could change on interrupt. */
 700:.\Generated_Source\PSoC5/LCD_1.c ****             #if(LCD_1_RX_INTERRUPT_ENABLED)
 701:.\Generated_Source\PSoC5/LCD_1.c ****                 LCD_1_DisableRxInt();
 634              		.loc 1 701 0
 635 0002 FFF7FEFF 		bl	LCD_1_DisableRxInt
 636              	.LVL54:
 702:.\Generated_Source\PSoC5/LCD_1.c ****             #endif /* LCD_1_RX_INTERRUPT_ENABLED */
 703:.\Generated_Source\PSoC5/LCD_1.c **** 
 704:.\Generated_Source\PSoC5/LCD_1.c ****             if(LCD_1_rxBufferRead == LCD_1_rxBufferWrite)
 637              		.loc 1 704 0
 638 0006 124A     		ldr	r2, .L61
 639 0008 5378     		ldrb	r3, [r2, #1]	@ zero_extendqisi2
 640 000a 9278     		ldrb	r2, [r2, #2]	@ zero_extendqisi2
 641 000c DBB2     		uxtb	r3, r3
 642 000e 9342     		cmp	r3, r2
 643 0010 06D1     		bne	.L56
 705:.\Generated_Source\PSoC5/LCD_1.c ****             {
 706:.\Generated_Source\PSoC5/LCD_1.c ****                 if(LCD_1_rxBufferLoopDetect > 0u)
 644              		.loc 1 706 0
 645 0012 0F4B     		ldr	r3, .L61
 646 0014 DB78     		ldrb	r3, [r3, #3]	@ zero_extendqisi2
 647 0016 13F0FF0F 		tst	r3, #255
 648 001a 14D0     		beq	.L59
ARM GAS  C:\Users\RECEPC~1\AppData\Local\Temp\cckZkqXS.s 			page 25


 707:.\Generated_Source\PSoC5/LCD_1.c ****                 {
 708:.\Generated_Source\PSoC5/LCD_1.c ****                     size = LCD_1_RXBUFFERSIZE;
 649              		.loc 1 708 0
 650 001c 1424     		movs	r4, #20
 651 001e 13E0     		b	.L57
 652              	.L56:
 709:.\Generated_Source\PSoC5/LCD_1.c ****                 }
 710:.\Generated_Source\PSoC5/LCD_1.c ****                 else
 711:.\Generated_Source\PSoC5/LCD_1.c ****                 {
 712:.\Generated_Source\PSoC5/LCD_1.c ****                     size = 0u;
 713:.\Generated_Source\PSoC5/LCD_1.c ****                 }
 714:.\Generated_Source\PSoC5/LCD_1.c ****             }
 715:.\Generated_Source\PSoC5/LCD_1.c ****             else if(LCD_1_rxBufferRead < LCD_1_rxBufferWrite)
 653              		.loc 1 715 0
 654 0020 0B4A     		ldr	r2, .L61
 655 0022 5378     		ldrb	r3, [r2, #1]	@ zero_extendqisi2
 656 0024 9278     		ldrb	r2, [r2, #2]	@ zero_extendqisi2
 657 0026 DBB2     		uxtb	r3, r3
 658 0028 9342     		cmp	r3, r2
 659 002a 05D2     		bcs	.L58
 716:.\Generated_Source\PSoC5/LCD_1.c ****             {
 717:.\Generated_Source\PSoC5/LCD_1.c ****                 size = (LCD_1_rxBufferWrite - LCD_1_rxBufferRead);
 660              		.loc 1 717 0
 661 002c 084A     		ldr	r2, .L61
 662 002e 9378     		ldrb	r3, [r2, #2]	@ zero_extendqisi2
 663 0030 5478     		ldrb	r4, [r2, #1]	@ zero_extendqisi2
 664 0032 1C1B     		subs	r4, r3, r4
 665 0034 E4B2     		uxtb	r4, r4
 666              	.LVL55:
 667 0036 07E0     		b	.L57
 668              	.LVL56:
 669              	.L58:
 718:.\Generated_Source\PSoC5/LCD_1.c ****             }
 719:.\Generated_Source\PSoC5/LCD_1.c ****             else
 720:.\Generated_Source\PSoC5/LCD_1.c ****             {
 721:.\Generated_Source\PSoC5/LCD_1.c ****                 size = (LCD_1_RXBUFFERSIZE - LCD_1_rxBufferRead) + LCD_1_rxBufferWrite;
 670              		.loc 1 721 0
 671 0038 054A     		ldr	r2, .L61
 672 003a 9378     		ldrb	r3, [r2, #2]	@ zero_extendqisi2
 673 003c 5478     		ldrb	r4, [r2, #1]	@ zero_extendqisi2
 674 003e 1C1B     		subs	r4, r3, r4
 675 0040 1434     		adds	r4, r4, #20
 676 0042 E4B2     		uxtb	r4, r4
 677              	.LVL57:
 678 0044 00E0     		b	.L57
 679              	.LVL58:
 680              	.L59:
 712:.\Generated_Source\PSoC5/LCD_1.c ****                 }
 681              		.loc 1 712 0
 682 0046 0024     		movs	r4, #0
 683              	.L57:
 684              	.LVL59:
 722:.\Generated_Source\PSoC5/LCD_1.c ****             }
 723:.\Generated_Source\PSoC5/LCD_1.c **** 
 724:.\Generated_Source\PSoC5/LCD_1.c ****             /* Enable Rx interrupt. */
 725:.\Generated_Source\PSoC5/LCD_1.c ****             #if(LCD_1_RX_INTERRUPT_ENABLED)
 726:.\Generated_Source\PSoC5/LCD_1.c ****                 LCD_1_EnableRxInt();
ARM GAS  C:\Users\RECEPC~1\AppData\Local\Temp\cckZkqXS.s 			page 26


 685              		.loc 1 726 0
 686 0048 FFF7FEFF 		bl	LCD_1_EnableRxInt
 687              	.LVL60:
 727:.\Generated_Source\PSoC5/LCD_1.c ****             #endif /* End LCD_1_RX_INTERRUPT_ENABLED */
 728:.\Generated_Source\PSoC5/LCD_1.c **** 
 729:.\Generated_Source\PSoC5/LCD_1.c ****         #else /* LCD_1_RXBUFFERSIZE > LCD_1_FIFO_LENGTH */
 730:.\Generated_Source\PSoC5/LCD_1.c **** 
 731:.\Generated_Source\PSoC5/LCD_1.c ****             /* We can only know if there is data in the fifo. */
 732:.\Generated_Source\PSoC5/LCD_1.c ****             size = ((LCD_1_RXSTATUS_REG & LCD_1_RX_STS_FIFO_NOTEMPTY) != 0u) ? 1u : 0u;
 733:.\Generated_Source\PSoC5/LCD_1.c **** 
 734:.\Generated_Source\PSoC5/LCD_1.c ****         #endif /* End LCD_1_RXBUFFERSIZE > LCD_1_FIFO_LENGTH */
 735:.\Generated_Source\PSoC5/LCD_1.c **** 
 736:.\Generated_Source\PSoC5/LCD_1.c ****         return(size);
 737:.\Generated_Source\PSoC5/LCD_1.c ****     }
 688              		.loc 1 737 0
 689 004c 2046     		mov	r0, r4
 690 004e 10BD     		pop	{r4, pc}
 691              	.LVL61:
 692              	.L62:
 693              		.align	2
 694              	.L61:
 695 0050 00000000 		.word	.LANCHOR0
 696              		.cfi_endproc
 697              	.LFE13:
 698              		.size	LCD_1_GetRxBufferSize, .-LCD_1_GetRxBufferSize
 699              		.section	.text.LCD_1_ClearRxBuffer,"ax",%progbits
 700              		.align	2
 701              		.global	LCD_1_ClearRxBuffer
 702              		.thumb
 703              		.thumb_func
 704              		.type	LCD_1_ClearRxBuffer, %function
 705              	LCD_1_ClearRxBuffer:
 706              	.LFB14:
 738:.\Generated_Source\PSoC5/LCD_1.c **** 
 739:.\Generated_Source\PSoC5/LCD_1.c **** 
 740:.\Generated_Source\PSoC5/LCD_1.c ****     /*******************************************************************************
 741:.\Generated_Source\PSoC5/LCD_1.c ****     * Function Name: LCD_1_ClearRxBuffer
 742:.\Generated_Source\PSoC5/LCD_1.c ****     ********************************************************************************
 743:.\Generated_Source\PSoC5/LCD_1.c ****     *
 744:.\Generated_Source\PSoC5/LCD_1.c ****     * Summary:
 745:.\Generated_Source\PSoC5/LCD_1.c ****     *  Clears the RX RAM buffer by setting the read and write pointers both to zero.
 746:.\Generated_Source\PSoC5/LCD_1.c ****     *  Clears hardware RX FIFO.
 747:.\Generated_Source\PSoC5/LCD_1.c ****     *
 748:.\Generated_Source\PSoC5/LCD_1.c ****     * Parameters:
 749:.\Generated_Source\PSoC5/LCD_1.c ****     *  None.
 750:.\Generated_Source\PSoC5/LCD_1.c ****     *
 751:.\Generated_Source\PSoC5/LCD_1.c ****     * Return:
 752:.\Generated_Source\PSoC5/LCD_1.c ****     *  None.
 753:.\Generated_Source\PSoC5/LCD_1.c ****     *
 754:.\Generated_Source\PSoC5/LCD_1.c ****     * Global Variables:
 755:.\Generated_Source\PSoC5/LCD_1.c ****     *  LCD_1_rxBufferWrite - cleared to zero.
 756:.\Generated_Source\PSoC5/LCD_1.c ****     *  LCD_1_rxBufferRead - cleared to zero.
 757:.\Generated_Source\PSoC5/LCD_1.c ****     *  LCD_1_rxBufferLoopDetect - cleared to zero.
 758:.\Generated_Source\PSoC5/LCD_1.c ****     *  LCD_1_rxBufferOverflow - cleared to zero.
 759:.\Generated_Source\PSoC5/LCD_1.c ****     *
 760:.\Generated_Source\PSoC5/LCD_1.c ****     * Reentrant:
 761:.\Generated_Source\PSoC5/LCD_1.c ****     *  No.
ARM GAS  C:\Users\RECEPC~1\AppData\Local\Temp\cckZkqXS.s 			page 27


 762:.\Generated_Source\PSoC5/LCD_1.c ****     *
 763:.\Generated_Source\PSoC5/LCD_1.c ****     * Theory:
 764:.\Generated_Source\PSoC5/LCD_1.c ****     *  Setting the pointers to zero makes the system believe there is no data to
 765:.\Generated_Source\PSoC5/LCD_1.c ****     *  read and writing will resume at address 0 overwriting any data that may
 766:.\Generated_Source\PSoC5/LCD_1.c ****     *  have remained in the RAM.
 767:.\Generated_Source\PSoC5/LCD_1.c ****     *
 768:.\Generated_Source\PSoC5/LCD_1.c ****     * Side Effects:
 769:.\Generated_Source\PSoC5/LCD_1.c ****     *  Any received data not read from the RAM or FIFO buffer will be lost.
 770:.\Generated_Source\PSoC5/LCD_1.c ****     *******************************************************************************/
 771:.\Generated_Source\PSoC5/LCD_1.c ****     void LCD_1_ClearRxBuffer(void) 
 772:.\Generated_Source\PSoC5/LCD_1.c ****     {
 707              		.loc 1 772 0
 708              		.cfi_startproc
 709              		@ args = 0, pretend = 0, frame = 0
 710              		@ frame_needed = 0, uses_anonymous_args = 0
 711 0000 08B5     		push	{r3, lr}
 712              		.cfi_def_cfa_offset 8
 713              		.cfi_offset 3, -8
 714              		.cfi_offset 14, -4
 773:.\Generated_Source\PSoC5/LCD_1.c ****         uint8 enableInterrupts;
 774:.\Generated_Source\PSoC5/LCD_1.c **** 
 775:.\Generated_Source\PSoC5/LCD_1.c ****         /* clear the HW FIFO */
 776:.\Generated_Source\PSoC5/LCD_1.c ****         /* Enter critical section */
 777:.\Generated_Source\PSoC5/LCD_1.c ****         enableInterrupts = CyEnterCriticalSection();
 715              		.loc 1 777 0
 716 0002 FFF7FEFF 		bl	CyEnterCriticalSection
 717              	.LVL62:
 778:.\Generated_Source\PSoC5/LCD_1.c ****         LCD_1_RXDATA_AUX_CTL_REG |=  LCD_1_RX_FIFO_CLR;
 718              		.loc 1 778 0
 719 0006 0B4B     		ldr	r3, .L65
 720 0008 1A78     		ldrb	r2, [r3]	@ zero_extendqisi2
 721 000a 42F00102 		orr	r2, r2, #1
 722 000e 1A70     		strb	r2, [r3]
 779:.\Generated_Source\PSoC5/LCD_1.c ****         LCD_1_RXDATA_AUX_CTL_REG &= (uint8)~LCD_1_RX_FIFO_CLR;
 723              		.loc 1 779 0
 724 0010 1A78     		ldrb	r2, [r3]	@ zero_extendqisi2
 725 0012 02F0FE02 		and	r2, r2, #254
 726 0016 1A70     		strb	r2, [r3]
 780:.\Generated_Source\PSoC5/LCD_1.c ****         /* Exit critical section */
 781:.\Generated_Source\PSoC5/LCD_1.c ****         CyExitCriticalSection(enableInterrupts);
 727              		.loc 1 781 0
 728 0018 FFF7FEFF 		bl	CyExitCriticalSection
 729              	.LVL63:
 782:.\Generated_Source\PSoC5/LCD_1.c **** 
 783:.\Generated_Source\PSoC5/LCD_1.c ****         #if(LCD_1_RXBUFFERSIZE > LCD_1_FIFO_LENGTH)
 784:.\Generated_Source\PSoC5/LCD_1.c ****             /* Disable Rx interrupt. */
 785:.\Generated_Source\PSoC5/LCD_1.c ****             /* Protect variables that could change on interrupt. */
 786:.\Generated_Source\PSoC5/LCD_1.c ****             #if(LCD_1_RX_INTERRUPT_ENABLED)
 787:.\Generated_Source\PSoC5/LCD_1.c ****                 LCD_1_DisableRxInt();
 730              		.loc 1 787 0
 731 001c FFF7FEFF 		bl	LCD_1_DisableRxInt
 732              	.LVL64:
 788:.\Generated_Source\PSoC5/LCD_1.c ****             #endif /* End LCD_1_RX_INTERRUPT_ENABLED */
 789:.\Generated_Source\PSoC5/LCD_1.c **** 
 790:.\Generated_Source\PSoC5/LCD_1.c ****             LCD_1_rxBufferRead = 0u;
 733              		.loc 1 790 0
 734 0020 054B     		ldr	r3, .L65+4
ARM GAS  C:\Users\RECEPC~1\AppData\Local\Temp\cckZkqXS.s 			page 28


 735 0022 0022     		movs	r2, #0
 736 0024 5A70     		strb	r2, [r3, #1]
 791:.\Generated_Source\PSoC5/LCD_1.c ****             LCD_1_rxBufferWrite = 0u;
 737              		.loc 1 791 0
 738 0026 9A70     		strb	r2, [r3, #2]
 792:.\Generated_Source\PSoC5/LCD_1.c ****             LCD_1_rxBufferLoopDetect = 0u;
 739              		.loc 1 792 0
 740 0028 DA70     		strb	r2, [r3, #3]
 793:.\Generated_Source\PSoC5/LCD_1.c ****             LCD_1_rxBufferOverflow = 0u;
 741              		.loc 1 793 0
 742 002a 1A71     		strb	r2, [r3, #4]
 794:.\Generated_Source\PSoC5/LCD_1.c **** 
 795:.\Generated_Source\PSoC5/LCD_1.c ****             /* Enable Rx interrupt. */
 796:.\Generated_Source\PSoC5/LCD_1.c ****             #if(LCD_1_RX_INTERRUPT_ENABLED)
 797:.\Generated_Source\PSoC5/LCD_1.c ****                 LCD_1_EnableRxInt();
 743              		.loc 1 797 0
 744 002c FFF7FEFF 		bl	LCD_1_EnableRxInt
 745              	.LVL65:
 746 0030 08BD     		pop	{r3, pc}
 747              	.L66:
 748 0032 00BF     		.align	2
 749              	.L65:
 750 0034 98650040 		.word	1073767832
 751 0038 00000000 		.word	.LANCHOR0
 752              		.cfi_endproc
 753              	.LFE14:
 754              		.size	LCD_1_ClearRxBuffer, .-LCD_1_ClearRxBuffer
 755              		.section	.text.LCD_1_SetRxAddressMode,"ax",%progbits
 756              		.align	2
 757              		.global	LCD_1_SetRxAddressMode
 758              		.thumb
 759              		.thumb_func
 760              		.type	LCD_1_SetRxAddressMode, %function
 761              	LCD_1_SetRxAddressMode:
 762              	.LFB15:
 798:.\Generated_Source\PSoC5/LCD_1.c ****             #endif /* End LCD_1_RX_INTERRUPT_ENABLED */
 799:.\Generated_Source\PSoC5/LCD_1.c ****         #endif /* End LCD_1_RXBUFFERSIZE > LCD_1_FIFO_LENGTH */
 800:.\Generated_Source\PSoC5/LCD_1.c **** 
 801:.\Generated_Source\PSoC5/LCD_1.c ****     }
 802:.\Generated_Source\PSoC5/LCD_1.c **** 
 803:.\Generated_Source\PSoC5/LCD_1.c **** 
 804:.\Generated_Source\PSoC5/LCD_1.c ****     /*******************************************************************************
 805:.\Generated_Source\PSoC5/LCD_1.c ****     * Function Name: LCD_1_SetRxAddressMode
 806:.\Generated_Source\PSoC5/LCD_1.c ****     ********************************************************************************
 807:.\Generated_Source\PSoC5/LCD_1.c ****     *
 808:.\Generated_Source\PSoC5/LCD_1.c ****     * Summary:
 809:.\Generated_Source\PSoC5/LCD_1.c ****     *  Set the receive addressing mode
 810:.\Generated_Source\PSoC5/LCD_1.c ****     *
 811:.\Generated_Source\PSoC5/LCD_1.c ****     * Parameters:
 812:.\Generated_Source\PSoC5/LCD_1.c ****     *  addressMode: Enumerated value indicating the mode of RX addressing
 813:.\Generated_Source\PSoC5/LCD_1.c ****     *  LCD_1__B_UART__AM_SW_BYTE_BYTE -  Software Byte-by-Byte address
 814:.\Generated_Source\PSoC5/LCD_1.c ****     *                                               detection
 815:.\Generated_Source\PSoC5/LCD_1.c ****     *  LCD_1__B_UART__AM_SW_DETECT_TO_BUFFER - Software Detect to Buffer
 816:.\Generated_Source\PSoC5/LCD_1.c ****     *                                               address detection
 817:.\Generated_Source\PSoC5/LCD_1.c ****     *  LCD_1__B_UART__AM_HW_BYTE_BY_BYTE - Hardware Byte-by-Byte address
 818:.\Generated_Source\PSoC5/LCD_1.c ****     *                                               detection
 819:.\Generated_Source\PSoC5/LCD_1.c ****     *  LCD_1__B_UART__AM_HW_DETECT_TO_BUFFER - Hardware Detect to Buffer
ARM GAS  C:\Users\RECEPC~1\AppData\Local\Temp\cckZkqXS.s 			page 29


 820:.\Generated_Source\PSoC5/LCD_1.c ****     *                                               address detection
 821:.\Generated_Source\PSoC5/LCD_1.c ****     *  LCD_1__B_UART__AM_NONE - No address detection
 822:.\Generated_Source\PSoC5/LCD_1.c ****     *
 823:.\Generated_Source\PSoC5/LCD_1.c ****     * Return:
 824:.\Generated_Source\PSoC5/LCD_1.c ****     *  None.
 825:.\Generated_Source\PSoC5/LCD_1.c ****     *
 826:.\Generated_Source\PSoC5/LCD_1.c ****     * Global Variables:
 827:.\Generated_Source\PSoC5/LCD_1.c ****     *  LCD_1_rxAddressMode - the parameter stored in this variable for
 828:.\Generated_Source\PSoC5/LCD_1.c ****     *   the farther usage in RX ISR.
 829:.\Generated_Source\PSoC5/LCD_1.c ****     *  LCD_1_rxAddressDetected - set to initial state (0).
 830:.\Generated_Source\PSoC5/LCD_1.c ****     *
 831:.\Generated_Source\PSoC5/LCD_1.c ****     *******************************************************************************/
 832:.\Generated_Source\PSoC5/LCD_1.c ****     void LCD_1_SetRxAddressMode(uint8 addressMode)
 833:.\Generated_Source\PSoC5/LCD_1.c ****                                                         
 834:.\Generated_Source\PSoC5/LCD_1.c ****     {
 763              		.loc 1 834 0
 764              		.cfi_startproc
 765              		@ args = 0, pretend = 0, frame = 0
 766              		@ frame_needed = 0, uses_anonymous_args = 0
 767              		@ link register save eliminated.
 768              	.LVL66:
 769 0000 7047     		bx	lr
 770              		.cfi_endproc
 771              	.LFE15:
 772              		.size	LCD_1_SetRxAddressMode, .-LCD_1_SetRxAddressMode
 773 0002 00BF     		.section	.text.LCD_1_SetRxAddress1,"ax",%progbits
 774              		.align	2
 775              		.global	LCD_1_SetRxAddress1
 776              		.thumb
 777              		.thumb_func
 778              		.type	LCD_1_SetRxAddress1, %function
 779              	LCD_1_SetRxAddress1:
 780              	.LFB16:
 835:.\Generated_Source\PSoC5/LCD_1.c ****         #if(LCD_1_RXHW_ADDRESS_ENABLED)
 836:.\Generated_Source\PSoC5/LCD_1.c ****             #if(LCD_1_CONTROL_REG_REMOVED)
 837:.\Generated_Source\PSoC5/LCD_1.c ****                 if(addressMode != 0u) { }     /* release compiler warning */
 838:.\Generated_Source\PSoC5/LCD_1.c ****             #else /* LCD_1_CONTROL_REG_REMOVED */
 839:.\Generated_Source\PSoC5/LCD_1.c ****                 uint8 tmpCtrl;
 840:.\Generated_Source\PSoC5/LCD_1.c ****                 tmpCtrl = LCD_1_CONTROL_REG & (uint8)~LCD_1_CTRL_RXADDR_MODE_MASK;
 841:.\Generated_Source\PSoC5/LCD_1.c ****                 tmpCtrl |= (uint8)(addressMode << LCD_1_CTRL_RXADDR_MODE0_SHIFT);
 842:.\Generated_Source\PSoC5/LCD_1.c ****                 LCD_1_CONTROL_REG = tmpCtrl;
 843:.\Generated_Source\PSoC5/LCD_1.c ****                 #if(LCD_1_RX_INTERRUPT_ENABLED && \
 844:.\Generated_Source\PSoC5/LCD_1.c ****                    (LCD_1_RXBUFFERSIZE > LCD_1_FIFO_LENGTH) )
 845:.\Generated_Source\PSoC5/LCD_1.c ****                     LCD_1_rxAddressMode = addressMode;
 846:.\Generated_Source\PSoC5/LCD_1.c ****                     LCD_1_rxAddressDetected = 0u;
 847:.\Generated_Source\PSoC5/LCD_1.c ****                 #endif /* End LCD_1_RXBUFFERSIZE > LCD_1_FIFO_LENGTH*/
 848:.\Generated_Source\PSoC5/LCD_1.c ****             #endif /* End LCD_1_CONTROL_REG_REMOVED */
 849:.\Generated_Source\PSoC5/LCD_1.c ****         #else /* LCD_1_RXHW_ADDRESS_ENABLED */
 850:.\Generated_Source\PSoC5/LCD_1.c ****             if(addressMode != 0u) { }     /* release compiler warning */
 851:.\Generated_Source\PSoC5/LCD_1.c ****         #endif /* End LCD_1_RXHW_ADDRESS_ENABLED */
 852:.\Generated_Source\PSoC5/LCD_1.c ****     }
 853:.\Generated_Source\PSoC5/LCD_1.c **** 
 854:.\Generated_Source\PSoC5/LCD_1.c **** 
 855:.\Generated_Source\PSoC5/LCD_1.c ****     /*******************************************************************************
 856:.\Generated_Source\PSoC5/LCD_1.c ****     * Function Name: LCD_1_SetRxAddress1
 857:.\Generated_Source\PSoC5/LCD_1.c ****     ********************************************************************************
 858:.\Generated_Source\PSoC5/LCD_1.c ****     *
ARM GAS  C:\Users\RECEPC~1\AppData\Local\Temp\cckZkqXS.s 			page 30


 859:.\Generated_Source\PSoC5/LCD_1.c ****     * Summary:
 860:.\Generated_Source\PSoC5/LCD_1.c ****     *  Set the first hardware address compare value
 861:.\Generated_Source\PSoC5/LCD_1.c ****     *
 862:.\Generated_Source\PSoC5/LCD_1.c ****     * Parameters:
 863:.\Generated_Source\PSoC5/LCD_1.c ****     *  address
 864:.\Generated_Source\PSoC5/LCD_1.c ****     *
 865:.\Generated_Source\PSoC5/LCD_1.c ****     * Return:
 866:.\Generated_Source\PSoC5/LCD_1.c ****     *  None.
 867:.\Generated_Source\PSoC5/LCD_1.c ****     *
 868:.\Generated_Source\PSoC5/LCD_1.c ****     *******************************************************************************/
 869:.\Generated_Source\PSoC5/LCD_1.c ****     void LCD_1_SetRxAddress1(uint8 address) 
 870:.\Generated_Source\PSoC5/LCD_1.c **** 
 871:.\Generated_Source\PSoC5/LCD_1.c ****     {
 781              		.loc 1 871 0
 782              		.cfi_startproc
 783              		@ args = 0, pretend = 0, frame = 0
 784              		@ frame_needed = 0, uses_anonymous_args = 0
 785              		@ link register save eliminated.
 786              	.LVL67:
 872:.\Generated_Source\PSoC5/LCD_1.c ****         LCD_1_RXADDRESS1_REG = address;
 787              		.loc 1 872 0
 788 0000 014B     		ldr	r3, .L69
 789 0002 1870     		strb	r0, [r3]
 790 0004 7047     		bx	lr
 791              	.L70:
 792 0006 00BF     		.align	2
 793              	.L69:
 794 0008 28650040 		.word	1073767720
 795              		.cfi_endproc
 796              	.LFE16:
 797              		.size	LCD_1_SetRxAddress1, .-LCD_1_SetRxAddress1
 798              		.section	.text.LCD_1_SetRxAddress2,"ax",%progbits
 799              		.align	2
 800              		.global	LCD_1_SetRxAddress2
 801              		.thumb
 802              		.thumb_func
 803              		.type	LCD_1_SetRxAddress2, %function
 804              	LCD_1_SetRxAddress2:
 805              	.LFB17:
 873:.\Generated_Source\PSoC5/LCD_1.c ****     }
 874:.\Generated_Source\PSoC5/LCD_1.c **** 
 875:.\Generated_Source\PSoC5/LCD_1.c **** 
 876:.\Generated_Source\PSoC5/LCD_1.c ****     /*******************************************************************************
 877:.\Generated_Source\PSoC5/LCD_1.c ****     * Function Name: LCD_1_SetRxAddress2
 878:.\Generated_Source\PSoC5/LCD_1.c ****     ********************************************************************************
 879:.\Generated_Source\PSoC5/LCD_1.c ****     *
 880:.\Generated_Source\PSoC5/LCD_1.c ****     * Summary:
 881:.\Generated_Source\PSoC5/LCD_1.c ****     *  Set the second hardware address compare value
 882:.\Generated_Source\PSoC5/LCD_1.c ****     *
 883:.\Generated_Source\PSoC5/LCD_1.c ****     * Parameters:
 884:.\Generated_Source\PSoC5/LCD_1.c ****     *  address
 885:.\Generated_Source\PSoC5/LCD_1.c ****     *
 886:.\Generated_Source\PSoC5/LCD_1.c ****     * Return:
 887:.\Generated_Source\PSoC5/LCD_1.c ****     *  None.
 888:.\Generated_Source\PSoC5/LCD_1.c ****     *
 889:.\Generated_Source\PSoC5/LCD_1.c ****     *******************************************************************************/
 890:.\Generated_Source\PSoC5/LCD_1.c ****     void LCD_1_SetRxAddress2(uint8 address) 
ARM GAS  C:\Users\RECEPC~1\AppData\Local\Temp\cckZkqXS.s 			page 31


 891:.\Generated_Source\PSoC5/LCD_1.c ****     {
 806              		.loc 1 891 0
 807              		.cfi_startproc
 808              		@ args = 0, pretend = 0, frame = 0
 809              		@ frame_needed = 0, uses_anonymous_args = 0
 810              		@ link register save eliminated.
 811              	.LVL68:
 892:.\Generated_Source\PSoC5/LCD_1.c ****         LCD_1_RXADDRESS2_REG = address;
 812              		.loc 1 892 0
 813 0000 014B     		ldr	r3, .L72
 814 0002 1870     		strb	r0, [r3]
 815 0004 7047     		bx	lr
 816              	.L73:
 817 0006 00BF     		.align	2
 818              	.L72:
 819 0008 38650040 		.word	1073767736
 820              		.cfi_endproc
 821              	.LFE17:
 822              		.size	LCD_1_SetRxAddress2, .-LCD_1_SetRxAddress2
 823              		.section	.text.LCD_1_SetTxInterruptMode,"ax",%progbits
 824              		.align	2
 825              		.global	LCD_1_SetTxInterruptMode
 826              		.thumb
 827              		.thumb_func
 828              		.type	LCD_1_SetTxInterruptMode, %function
 829              	LCD_1_SetTxInterruptMode:
 830              	.LFB18:
 893:.\Generated_Source\PSoC5/LCD_1.c ****     }
 894:.\Generated_Source\PSoC5/LCD_1.c **** 
 895:.\Generated_Source\PSoC5/LCD_1.c **** #endif  /* LCD_1_RX_ENABLED || LCD_1_HD_ENABLED*/
 896:.\Generated_Source\PSoC5/LCD_1.c **** 
 897:.\Generated_Source\PSoC5/LCD_1.c **** 
 898:.\Generated_Source\PSoC5/LCD_1.c **** #if( (LCD_1_TX_ENABLED) || (LCD_1_HD_ENABLED) )
 899:.\Generated_Source\PSoC5/LCD_1.c **** 
 900:.\Generated_Source\PSoC5/LCD_1.c ****     #if(LCD_1_TX_INTERRUPT_ENABLED)
 901:.\Generated_Source\PSoC5/LCD_1.c **** 
 902:.\Generated_Source\PSoC5/LCD_1.c ****         /*******************************************************************************
 903:.\Generated_Source\PSoC5/LCD_1.c ****         * Function Name: LCD_1_EnableTxInt
 904:.\Generated_Source\PSoC5/LCD_1.c ****         ********************************************************************************
 905:.\Generated_Source\PSoC5/LCD_1.c ****         *
 906:.\Generated_Source\PSoC5/LCD_1.c ****         * Summary:
 907:.\Generated_Source\PSoC5/LCD_1.c ****         *  Enable TX interrupt generation
 908:.\Generated_Source\PSoC5/LCD_1.c ****         *
 909:.\Generated_Source\PSoC5/LCD_1.c ****         * Parameters:
 910:.\Generated_Source\PSoC5/LCD_1.c ****         *  None.
 911:.\Generated_Source\PSoC5/LCD_1.c ****         *
 912:.\Generated_Source\PSoC5/LCD_1.c ****         * Return:
 913:.\Generated_Source\PSoC5/LCD_1.c ****         *  None.
 914:.\Generated_Source\PSoC5/LCD_1.c ****         *
 915:.\Generated_Source\PSoC5/LCD_1.c ****         * Theory:
 916:.\Generated_Source\PSoC5/LCD_1.c ****         *  Enable the interrupt output -or- the interrupt component itself
 917:.\Generated_Source\PSoC5/LCD_1.c ****         *
 918:.\Generated_Source\PSoC5/LCD_1.c ****         *******************************************************************************/
 919:.\Generated_Source\PSoC5/LCD_1.c ****         void LCD_1_EnableTxInt(void) 
 920:.\Generated_Source\PSoC5/LCD_1.c ****         {
 921:.\Generated_Source\PSoC5/LCD_1.c ****             CyIntEnable(LCD_1_TX_VECT_NUM);
 922:.\Generated_Source\PSoC5/LCD_1.c ****         }
ARM GAS  C:\Users\RECEPC~1\AppData\Local\Temp\cckZkqXS.s 			page 32


 923:.\Generated_Source\PSoC5/LCD_1.c **** 
 924:.\Generated_Source\PSoC5/LCD_1.c **** 
 925:.\Generated_Source\PSoC5/LCD_1.c ****         /*******************************************************************************
 926:.\Generated_Source\PSoC5/LCD_1.c ****         * Function Name: LCD_1_DisableTxInt
 927:.\Generated_Source\PSoC5/LCD_1.c ****         ********************************************************************************
 928:.\Generated_Source\PSoC5/LCD_1.c ****         *
 929:.\Generated_Source\PSoC5/LCD_1.c ****         * Summary:
 930:.\Generated_Source\PSoC5/LCD_1.c ****         *  Disable TX interrupt generation
 931:.\Generated_Source\PSoC5/LCD_1.c ****         *
 932:.\Generated_Source\PSoC5/LCD_1.c ****         * Parameters:
 933:.\Generated_Source\PSoC5/LCD_1.c ****         *  None.
 934:.\Generated_Source\PSoC5/LCD_1.c ****         *
 935:.\Generated_Source\PSoC5/LCD_1.c ****         * Return:
 936:.\Generated_Source\PSoC5/LCD_1.c ****         *  None.
 937:.\Generated_Source\PSoC5/LCD_1.c ****         *
 938:.\Generated_Source\PSoC5/LCD_1.c ****         * Theory:
 939:.\Generated_Source\PSoC5/LCD_1.c ****         *  Disable the interrupt output -or- the interrupt component itself
 940:.\Generated_Source\PSoC5/LCD_1.c ****         *
 941:.\Generated_Source\PSoC5/LCD_1.c ****         *******************************************************************************/
 942:.\Generated_Source\PSoC5/LCD_1.c ****         void LCD_1_DisableTxInt(void) 
 943:.\Generated_Source\PSoC5/LCD_1.c ****         {
 944:.\Generated_Source\PSoC5/LCD_1.c ****             CyIntDisable(LCD_1_TX_VECT_NUM);
 945:.\Generated_Source\PSoC5/LCD_1.c ****         }
 946:.\Generated_Source\PSoC5/LCD_1.c **** 
 947:.\Generated_Source\PSoC5/LCD_1.c ****     #endif /* LCD_1_TX_INTERRUPT_ENABLED */
 948:.\Generated_Source\PSoC5/LCD_1.c **** 
 949:.\Generated_Source\PSoC5/LCD_1.c **** 
 950:.\Generated_Source\PSoC5/LCD_1.c ****     /*******************************************************************************
 951:.\Generated_Source\PSoC5/LCD_1.c ****     * Function Name: LCD_1_SetTxInterruptMode
 952:.\Generated_Source\PSoC5/LCD_1.c ****     ********************************************************************************
 953:.\Generated_Source\PSoC5/LCD_1.c ****     *
 954:.\Generated_Source\PSoC5/LCD_1.c ****     * Summary:
 955:.\Generated_Source\PSoC5/LCD_1.c ****     *  Configure which status bits trigger an interrupt event
 956:.\Generated_Source\PSoC5/LCD_1.c ****     *
 957:.\Generated_Source\PSoC5/LCD_1.c ****     * Parameters:
 958:.\Generated_Source\PSoC5/LCD_1.c ****     *  intSrc: An or'd combination of the desired status bit masks (defined in
 959:.\Generated_Source\PSoC5/LCD_1.c ****     *          the header file)
 960:.\Generated_Source\PSoC5/LCD_1.c ****     *
 961:.\Generated_Source\PSoC5/LCD_1.c ****     * Return:
 962:.\Generated_Source\PSoC5/LCD_1.c ****     *  None.
 963:.\Generated_Source\PSoC5/LCD_1.c ****     *
 964:.\Generated_Source\PSoC5/LCD_1.c ****     * Theory:
 965:.\Generated_Source\PSoC5/LCD_1.c ****     *  Enables the output of specific status bits to the interrupt controller
 966:.\Generated_Source\PSoC5/LCD_1.c ****     *
 967:.\Generated_Source\PSoC5/LCD_1.c ****     *******************************************************************************/
 968:.\Generated_Source\PSoC5/LCD_1.c ****     void LCD_1_SetTxInterruptMode(uint8 intSrc) 
 969:.\Generated_Source\PSoC5/LCD_1.c ****     {
 831              		.loc 1 969 0
 832              		.cfi_startproc
 833              		@ args = 0, pretend = 0, frame = 0
 834              		@ frame_needed = 0, uses_anonymous_args = 0
 835              		@ link register save eliminated.
 836              	.LVL69:
 970:.\Generated_Source\PSoC5/LCD_1.c ****         LCD_1_TXSTATUS_MASK_REG = intSrc;
 837              		.loc 1 970 0
 838 0000 014B     		ldr	r3, .L75
 839 0002 1870     		strb	r0, [r3]
ARM GAS  C:\Users\RECEPC~1\AppData\Local\Temp\cckZkqXS.s 			page 33


 840 0004 7047     		bx	lr
 841              	.L76:
 842 0006 00BF     		.align	2
 843              	.L75:
 844 0008 85650040 		.word	1073767813
 845              		.cfi_endproc
 846              	.LFE18:
 847              		.size	LCD_1_SetTxInterruptMode, .-LCD_1_SetTxInterruptMode
 848              		.section	.text.LCD_1_WriteTxData,"ax",%progbits
 849              		.align	2
 850              		.global	LCD_1_WriteTxData
 851              		.thumb
 852              		.thumb_func
 853              		.type	LCD_1_WriteTxData, %function
 854              	LCD_1_WriteTxData:
 855              	.LFB19:
 971:.\Generated_Source\PSoC5/LCD_1.c ****     }
 972:.\Generated_Source\PSoC5/LCD_1.c **** 
 973:.\Generated_Source\PSoC5/LCD_1.c **** 
 974:.\Generated_Source\PSoC5/LCD_1.c ****     /*******************************************************************************
 975:.\Generated_Source\PSoC5/LCD_1.c ****     * Function Name: LCD_1_WriteTxData
 976:.\Generated_Source\PSoC5/LCD_1.c ****     ********************************************************************************
 977:.\Generated_Source\PSoC5/LCD_1.c ****     *
 978:.\Generated_Source\PSoC5/LCD_1.c ****     * Summary:
 979:.\Generated_Source\PSoC5/LCD_1.c ****     *  Write a byte of data to the Transmit FIFO or TX buffer to be sent when the
 980:.\Generated_Source\PSoC5/LCD_1.c ****     *  bus is available. WriteTxData sends a byte without checking for buffer room
 981:.\Generated_Source\PSoC5/LCD_1.c ****     *  or status. It is up to the user to separately check status.
 982:.\Generated_Source\PSoC5/LCD_1.c ****     *
 983:.\Generated_Source\PSoC5/LCD_1.c ****     * Parameters:
 984:.\Generated_Source\PSoC5/LCD_1.c ****     *  TXDataByte: byte of data to place in the transmit FIFO
 985:.\Generated_Source\PSoC5/LCD_1.c ****     *
 986:.\Generated_Source\PSoC5/LCD_1.c ****     * Return:
 987:.\Generated_Source\PSoC5/LCD_1.c ****     * void
 988:.\Generated_Source\PSoC5/LCD_1.c ****     *
 989:.\Generated_Source\PSoC5/LCD_1.c ****     * Global Variables:
 990:.\Generated_Source\PSoC5/LCD_1.c ****     *  LCD_1_txBuffer - RAM buffer pointer for save data for transmission
 991:.\Generated_Source\PSoC5/LCD_1.c ****     *  LCD_1_txBufferWrite - cyclic index for write to txBuffer,
 992:.\Generated_Source\PSoC5/LCD_1.c ****     *    incremented after each byte saved to buffer.
 993:.\Generated_Source\PSoC5/LCD_1.c ****     *  LCD_1_txBufferRead - cyclic index for read from txBuffer,
 994:.\Generated_Source\PSoC5/LCD_1.c ****     *    checked to identify the condition to write to FIFO directly or to TX buffer
 995:.\Generated_Source\PSoC5/LCD_1.c ****     *  LCD_1_initVar - checked to identify that the component has been
 996:.\Generated_Source\PSoC5/LCD_1.c ****     *    initialized.
 997:.\Generated_Source\PSoC5/LCD_1.c ****     *
 998:.\Generated_Source\PSoC5/LCD_1.c ****     * Reentrant:
 999:.\Generated_Source\PSoC5/LCD_1.c ****     *  No.
1000:.\Generated_Source\PSoC5/LCD_1.c ****     *
1001:.\Generated_Source\PSoC5/LCD_1.c ****     *******************************************************************************/
1002:.\Generated_Source\PSoC5/LCD_1.c ****     void LCD_1_WriteTxData(uint8 txDataByte) 
1003:.\Generated_Source\PSoC5/LCD_1.c ****     {
 856              		.loc 1 1003 0
 857              		.cfi_startproc
 858              		@ args = 0, pretend = 0, frame = 0
 859              		@ frame_needed = 0, uses_anonymous_args = 0
 860              		@ link register save eliminated.
 861              	.LVL70:
1004:.\Generated_Source\PSoC5/LCD_1.c ****         /* If not Initialized then skip this function*/
1005:.\Generated_Source\PSoC5/LCD_1.c ****         if(LCD_1_initVar != 0u)
ARM GAS  C:\Users\RECEPC~1\AppData\Local\Temp\cckZkqXS.s 			page 34


 862              		.loc 1 1005 0
 863 0000 024B     		ldr	r3, .L79
 864 0002 1B78     		ldrb	r3, [r3]	@ zero_extendqisi2
 865 0004 0BB1     		cbz	r3, .L77
1006:.\Generated_Source\PSoC5/LCD_1.c ****         {
1007:.\Generated_Source\PSoC5/LCD_1.c ****             #if(LCD_1_TXBUFFERSIZE > LCD_1_FIFO_LENGTH)
1008:.\Generated_Source\PSoC5/LCD_1.c **** 
1009:.\Generated_Source\PSoC5/LCD_1.c ****                 /* Disable Tx interrupt. */
1010:.\Generated_Source\PSoC5/LCD_1.c ****                 /* Protect variables that could change on interrupt. */
1011:.\Generated_Source\PSoC5/LCD_1.c ****                 #if(LCD_1_TX_INTERRUPT_ENABLED)
1012:.\Generated_Source\PSoC5/LCD_1.c ****                     LCD_1_DisableTxInt();
1013:.\Generated_Source\PSoC5/LCD_1.c ****                 #endif /* End LCD_1_TX_INTERRUPT_ENABLED */
1014:.\Generated_Source\PSoC5/LCD_1.c **** 
1015:.\Generated_Source\PSoC5/LCD_1.c ****                 if( (LCD_1_txBufferRead == LCD_1_txBufferWrite) &&
1016:.\Generated_Source\PSoC5/LCD_1.c ****                     ((LCD_1_TXSTATUS_REG & LCD_1_TX_STS_FIFO_FULL) == 0u) )
1017:.\Generated_Source\PSoC5/LCD_1.c ****                 {
1018:.\Generated_Source\PSoC5/LCD_1.c ****                     /* Add directly to the FIFO. */
1019:.\Generated_Source\PSoC5/LCD_1.c ****                     LCD_1_TXDATA_REG = txDataByte;
1020:.\Generated_Source\PSoC5/LCD_1.c ****                 }
1021:.\Generated_Source\PSoC5/LCD_1.c ****                 else
1022:.\Generated_Source\PSoC5/LCD_1.c ****                 {
1023:.\Generated_Source\PSoC5/LCD_1.c ****                     if(LCD_1_txBufferWrite >= LCD_1_TXBUFFERSIZE)
1024:.\Generated_Source\PSoC5/LCD_1.c ****                     {
1025:.\Generated_Source\PSoC5/LCD_1.c ****                         LCD_1_txBufferWrite = 0u;
1026:.\Generated_Source\PSoC5/LCD_1.c ****                     }
1027:.\Generated_Source\PSoC5/LCD_1.c **** 
1028:.\Generated_Source\PSoC5/LCD_1.c ****                     LCD_1_txBuffer[LCD_1_txBufferWrite] = txDataByte;
1029:.\Generated_Source\PSoC5/LCD_1.c **** 
1030:.\Generated_Source\PSoC5/LCD_1.c ****                     /* Add to the software buffer. */
1031:.\Generated_Source\PSoC5/LCD_1.c ****                     LCD_1_txBufferWrite++;
1032:.\Generated_Source\PSoC5/LCD_1.c **** 
1033:.\Generated_Source\PSoC5/LCD_1.c ****                 }
1034:.\Generated_Source\PSoC5/LCD_1.c **** 
1035:.\Generated_Source\PSoC5/LCD_1.c ****                 /* Enable Tx interrupt. */
1036:.\Generated_Source\PSoC5/LCD_1.c ****                 #if(LCD_1_TX_INTERRUPT_ENABLED)
1037:.\Generated_Source\PSoC5/LCD_1.c ****                     LCD_1_EnableTxInt();
1038:.\Generated_Source\PSoC5/LCD_1.c ****                 #endif /* End LCD_1_TX_INTERRUPT_ENABLED */
1039:.\Generated_Source\PSoC5/LCD_1.c **** 
1040:.\Generated_Source\PSoC5/LCD_1.c ****             #else /* LCD_1_TXBUFFERSIZE > LCD_1_FIFO_LENGTH */
1041:.\Generated_Source\PSoC5/LCD_1.c **** 
1042:.\Generated_Source\PSoC5/LCD_1.c ****                 /* Add directly to the FIFO. */
1043:.\Generated_Source\PSoC5/LCD_1.c ****                 LCD_1_TXDATA_REG = txDataByte;
 866              		.loc 1 1043 0
 867 0006 024B     		ldr	r3, .L79+4
 868 0008 1870     		strb	r0, [r3]
 869              	.L77:
 870 000a 7047     		bx	lr
 871              	.L80:
 872              		.align	2
 873              	.L79:
 874 000c 00000000 		.word	.LANCHOR0
 875 0010 45650040 		.word	1073767749
 876              		.cfi_endproc
 877              	.LFE19:
 878              		.size	LCD_1_WriteTxData, .-LCD_1_WriteTxData
 879              		.section	.text.LCD_1_ReadTxStatus,"ax",%progbits
 880              		.align	2
ARM GAS  C:\Users\RECEPC~1\AppData\Local\Temp\cckZkqXS.s 			page 35


 881              		.global	LCD_1_ReadTxStatus
 882              		.thumb
 883              		.thumb_func
 884              		.type	LCD_1_ReadTxStatus, %function
 885              	LCD_1_ReadTxStatus:
 886              	.LFB20:
1044:.\Generated_Source\PSoC5/LCD_1.c **** 
1045:.\Generated_Source\PSoC5/LCD_1.c ****             #endif /* End LCD_1_TXBUFFERSIZE > LCD_1_FIFO_LENGTH */
1046:.\Generated_Source\PSoC5/LCD_1.c ****         }
1047:.\Generated_Source\PSoC5/LCD_1.c ****     }
1048:.\Generated_Source\PSoC5/LCD_1.c **** 
1049:.\Generated_Source\PSoC5/LCD_1.c **** 
1050:.\Generated_Source\PSoC5/LCD_1.c ****     /*******************************************************************************
1051:.\Generated_Source\PSoC5/LCD_1.c ****     * Function Name: LCD_1_ReadTxStatus
1052:.\Generated_Source\PSoC5/LCD_1.c ****     ********************************************************************************
1053:.\Generated_Source\PSoC5/LCD_1.c ****     *
1054:.\Generated_Source\PSoC5/LCD_1.c ****     * Summary:
1055:.\Generated_Source\PSoC5/LCD_1.c ****     *  Read the status register for the component
1056:.\Generated_Source\PSoC5/LCD_1.c ****     *
1057:.\Generated_Source\PSoC5/LCD_1.c ****     * Parameters:
1058:.\Generated_Source\PSoC5/LCD_1.c ****     *  None.
1059:.\Generated_Source\PSoC5/LCD_1.c ****     *
1060:.\Generated_Source\PSoC5/LCD_1.c ****     * Return:
1061:.\Generated_Source\PSoC5/LCD_1.c ****     *  Contents of the status register
1062:.\Generated_Source\PSoC5/LCD_1.c ****     *
1063:.\Generated_Source\PSoC5/LCD_1.c ****     * Theory:
1064:.\Generated_Source\PSoC5/LCD_1.c ****     *  This function reads the status register which is clear on read. It is up to
1065:.\Generated_Source\PSoC5/LCD_1.c ****     *  the user to handle all bits in this return value accordingly, even if the bit
1066:.\Generated_Source\PSoC5/LCD_1.c ****     *  was not enabled as an interrupt source the event happened and must be handled
1067:.\Generated_Source\PSoC5/LCD_1.c ****     *  accordingly.
1068:.\Generated_Source\PSoC5/LCD_1.c ****     *
1069:.\Generated_Source\PSoC5/LCD_1.c ****     *******************************************************************************/
1070:.\Generated_Source\PSoC5/LCD_1.c ****     uint8 LCD_1_ReadTxStatus(void) 
1071:.\Generated_Source\PSoC5/LCD_1.c ****     {
 887              		.loc 1 1071 0
 888              		.cfi_startproc
 889              		@ args = 0, pretend = 0, frame = 0
 890              		@ frame_needed = 0, uses_anonymous_args = 0
 891              		@ link register save eliminated.
1072:.\Generated_Source\PSoC5/LCD_1.c ****         return(LCD_1_TXSTATUS_REG);
 892              		.loc 1 1072 0
 893 0000 014B     		ldr	r3, .L82
 894 0002 1878     		ldrb	r0, [r3]	@ zero_extendqisi2
1073:.\Generated_Source\PSoC5/LCD_1.c ****     }
 895              		.loc 1 1073 0
 896 0004 7047     		bx	lr
 897              	.L83:
 898 0006 00BF     		.align	2
 899              	.L82:
 900 0008 65650040 		.word	1073767781
 901              		.cfi_endproc
 902              	.LFE20:
 903              		.size	LCD_1_ReadTxStatus, .-LCD_1_ReadTxStatus
 904              		.section	.text.LCD_1_PutChar,"ax",%progbits
 905              		.align	2
 906              		.global	LCD_1_PutChar
 907              		.thumb
ARM GAS  C:\Users\RECEPC~1\AppData\Local\Temp\cckZkqXS.s 			page 36


 908              		.thumb_func
 909              		.type	LCD_1_PutChar, %function
 910              	LCD_1_PutChar:
 911              	.LFB21:
1074:.\Generated_Source\PSoC5/LCD_1.c **** 
1075:.\Generated_Source\PSoC5/LCD_1.c **** 
1076:.\Generated_Source\PSoC5/LCD_1.c ****     /*******************************************************************************
1077:.\Generated_Source\PSoC5/LCD_1.c ****     * Function Name: LCD_1_PutChar
1078:.\Generated_Source\PSoC5/LCD_1.c ****     ********************************************************************************
1079:.\Generated_Source\PSoC5/LCD_1.c ****     *
1080:.\Generated_Source\PSoC5/LCD_1.c ****     * Summary:
1081:.\Generated_Source\PSoC5/LCD_1.c ****     *  Wait to send byte until TX register or buffer has room.
1082:.\Generated_Source\PSoC5/LCD_1.c ****     *
1083:.\Generated_Source\PSoC5/LCD_1.c ****     * Parameters:
1084:.\Generated_Source\PSoC5/LCD_1.c ****     *  txDataByte: The 8-bit data value to send across the UART.
1085:.\Generated_Source\PSoC5/LCD_1.c ****     *
1086:.\Generated_Source\PSoC5/LCD_1.c ****     * Return:
1087:.\Generated_Source\PSoC5/LCD_1.c ****     *  None.
1088:.\Generated_Source\PSoC5/LCD_1.c ****     *
1089:.\Generated_Source\PSoC5/LCD_1.c ****     * Global Variables:
1090:.\Generated_Source\PSoC5/LCD_1.c ****     *  LCD_1_txBuffer - RAM buffer pointer for save data for transmission
1091:.\Generated_Source\PSoC5/LCD_1.c ****     *  LCD_1_txBufferWrite - cyclic index for write to txBuffer,
1092:.\Generated_Source\PSoC5/LCD_1.c ****     *     checked to identify free space in txBuffer and incremented after each byte
1093:.\Generated_Source\PSoC5/LCD_1.c ****     *     saved to buffer.
1094:.\Generated_Source\PSoC5/LCD_1.c ****     *  LCD_1_txBufferRead - cyclic index for read from txBuffer,
1095:.\Generated_Source\PSoC5/LCD_1.c ****     *     checked to identify free space in txBuffer.
1096:.\Generated_Source\PSoC5/LCD_1.c ****     *  LCD_1_initVar - checked to identify that the component has been
1097:.\Generated_Source\PSoC5/LCD_1.c ****     *     initialized.
1098:.\Generated_Source\PSoC5/LCD_1.c ****     *
1099:.\Generated_Source\PSoC5/LCD_1.c ****     * Reentrant:
1100:.\Generated_Source\PSoC5/LCD_1.c ****     *  No.
1101:.\Generated_Source\PSoC5/LCD_1.c ****     *
1102:.\Generated_Source\PSoC5/LCD_1.c ****     * Theory:
1103:.\Generated_Source\PSoC5/LCD_1.c ****     *  Allows the user to transmit any byte of data in a single transfer
1104:.\Generated_Source\PSoC5/LCD_1.c ****     *
1105:.\Generated_Source\PSoC5/LCD_1.c ****     *******************************************************************************/
1106:.\Generated_Source\PSoC5/LCD_1.c ****     void LCD_1_PutChar(uint8 txDataByte) 
1107:.\Generated_Source\PSoC5/LCD_1.c ****     {
 912              		.loc 1 1107 0
 913              		.cfi_startproc
 914              		@ args = 0, pretend = 0, frame = 0
 915              		@ frame_needed = 0, uses_anonymous_args = 0
 916              		@ link register save eliminated.
 917              	.LVL71:
 918              	.L85:
1108:.\Generated_Source\PSoC5/LCD_1.c ****             #if(LCD_1_TXBUFFERSIZE > LCD_1_FIFO_LENGTH)
1109:.\Generated_Source\PSoC5/LCD_1.c ****                 /* The temporary output pointer is used since it takes two instructions
1110:.\Generated_Source\PSoC5/LCD_1.c ****                 *  to increment with a wrap, and we can't risk doing that with the real
1111:.\Generated_Source\PSoC5/LCD_1.c ****                 *  pointer and getting an interrupt in between instructions.
1112:.\Generated_Source\PSoC5/LCD_1.c ****                 */
1113:.\Generated_Source\PSoC5/LCD_1.c ****                 uint8 loc_txBufferWrite;
1114:.\Generated_Source\PSoC5/LCD_1.c ****                 uint8 loc_txBufferRead;
1115:.\Generated_Source\PSoC5/LCD_1.c **** 
1116:.\Generated_Source\PSoC5/LCD_1.c ****                 do{
1117:.\Generated_Source\PSoC5/LCD_1.c ****                     /* Block if software buffer is full, so we don't overwrite. */
1118:.\Generated_Source\PSoC5/LCD_1.c ****                     #if ((LCD_1_TXBUFFERSIZE > LCD_1_MAX_BYTE_VALUE) && (CY_PSOC3))
1119:.\Generated_Source\PSoC5/LCD_1.c ****                         /* Disable TX interrupt to protect variables that could change on interrupt
ARM GAS  C:\Users\RECEPC~1\AppData\Local\Temp\cckZkqXS.s 			page 37


1120:.\Generated_Source\PSoC5/LCD_1.c ****                         CyIntDisable(LCD_1_TX_VECT_NUM);
1121:.\Generated_Source\PSoC5/LCD_1.c ****                     #endif /* End TXBUFFERSIZE > 255 */
1122:.\Generated_Source\PSoC5/LCD_1.c ****                     loc_txBufferWrite = LCD_1_txBufferWrite;
1123:.\Generated_Source\PSoC5/LCD_1.c ****                     loc_txBufferRead = LCD_1_txBufferRead;
1124:.\Generated_Source\PSoC5/LCD_1.c ****                     #if ((LCD_1_TXBUFFERSIZE > LCD_1_MAX_BYTE_VALUE) && (CY_PSOC3))
1125:.\Generated_Source\PSoC5/LCD_1.c ****                         /* Enable interrupt to continue transmission */
1126:.\Generated_Source\PSoC5/LCD_1.c ****                         CyIntEnable(LCD_1_TX_VECT_NUM);
1127:.\Generated_Source\PSoC5/LCD_1.c ****                     #endif /* End TXBUFFERSIZE > 255 */
1128:.\Generated_Source\PSoC5/LCD_1.c ****                 }while( (loc_txBufferWrite < loc_txBufferRead) ? (loc_txBufferWrite == (loc_txBuffe
1129:.\Generated_Source\PSoC5/LCD_1.c ****                                         ((loc_txBufferWrite - loc_txBufferRead) ==
1130:.\Generated_Source\PSoC5/LCD_1.c ****                                         (uint8)(LCD_1_TXBUFFERSIZE - 1u)) );
1131:.\Generated_Source\PSoC5/LCD_1.c **** 
1132:.\Generated_Source\PSoC5/LCD_1.c ****                 if( (loc_txBufferRead == loc_txBufferWrite) &&
1133:.\Generated_Source\PSoC5/LCD_1.c ****                     ((LCD_1_TXSTATUS_REG & LCD_1_TX_STS_FIFO_FULL) == 0u) )
1134:.\Generated_Source\PSoC5/LCD_1.c ****                 {
1135:.\Generated_Source\PSoC5/LCD_1.c ****                     /* Add directly to the FIFO. */
1136:.\Generated_Source\PSoC5/LCD_1.c ****                     LCD_1_TXDATA_REG = txDataByte;
1137:.\Generated_Source\PSoC5/LCD_1.c ****                 }
1138:.\Generated_Source\PSoC5/LCD_1.c ****                 else
1139:.\Generated_Source\PSoC5/LCD_1.c ****                 {
1140:.\Generated_Source\PSoC5/LCD_1.c ****                     if(loc_txBufferWrite >= LCD_1_TXBUFFERSIZE)
1141:.\Generated_Source\PSoC5/LCD_1.c ****                     {
1142:.\Generated_Source\PSoC5/LCD_1.c ****                         loc_txBufferWrite = 0u;
1143:.\Generated_Source\PSoC5/LCD_1.c ****                     }
1144:.\Generated_Source\PSoC5/LCD_1.c ****                     /* Add to the software buffer. */
1145:.\Generated_Source\PSoC5/LCD_1.c ****                     LCD_1_txBuffer[loc_txBufferWrite] = txDataByte;
1146:.\Generated_Source\PSoC5/LCD_1.c ****                     loc_txBufferWrite++;
1147:.\Generated_Source\PSoC5/LCD_1.c **** 
1148:.\Generated_Source\PSoC5/LCD_1.c ****                     /* Finally, update the real output pointer */
1149:.\Generated_Source\PSoC5/LCD_1.c ****                     #if ((LCD_1_TXBUFFERSIZE > LCD_1_MAX_BYTE_VALUE) && (CY_PSOC3))
1150:.\Generated_Source\PSoC5/LCD_1.c ****                         CyIntDisable(LCD_1_TX_VECT_NUM);
1151:.\Generated_Source\PSoC5/LCD_1.c ****                     #endif /* End TXBUFFERSIZE > 255 */
1152:.\Generated_Source\PSoC5/LCD_1.c ****                     LCD_1_txBufferWrite = loc_txBufferWrite;
1153:.\Generated_Source\PSoC5/LCD_1.c ****                     #if ((LCD_1_TXBUFFERSIZE > LCD_1_MAX_BYTE_VALUE) && (CY_PSOC3))
1154:.\Generated_Source\PSoC5/LCD_1.c ****                         CyIntEnable(LCD_1_TX_VECT_NUM);
1155:.\Generated_Source\PSoC5/LCD_1.c ****                     #endif /* End TXBUFFERSIZE > 255 */
1156:.\Generated_Source\PSoC5/LCD_1.c ****                 }
1157:.\Generated_Source\PSoC5/LCD_1.c **** 
1158:.\Generated_Source\PSoC5/LCD_1.c ****             #else /* LCD_1_TXBUFFERSIZE > LCD_1_FIFO_LENGTH */
1159:.\Generated_Source\PSoC5/LCD_1.c **** 
1160:.\Generated_Source\PSoC5/LCD_1.c ****                 while((LCD_1_TXSTATUS_REG & LCD_1_TX_STS_FIFO_FULL) != 0u)
 919              		.loc 1 1160 0 discriminator 1
 920 0000 034B     		ldr	r3, .L86
 921 0002 1B78     		ldrb	r3, [r3]	@ zero_extendqisi2
 922 0004 13F0040F 		tst	r3, #4
 923 0008 FAD1     		bne	.L85
1161:.\Generated_Source\PSoC5/LCD_1.c ****                 {
1162:.\Generated_Source\PSoC5/LCD_1.c ****                     ; /* Wait for room in the FIFO. */
1163:.\Generated_Source\PSoC5/LCD_1.c ****                 }
1164:.\Generated_Source\PSoC5/LCD_1.c **** 
1165:.\Generated_Source\PSoC5/LCD_1.c ****                 /* Add directly to the FIFO. */
1166:.\Generated_Source\PSoC5/LCD_1.c ****                 LCD_1_TXDATA_REG = txDataByte;
 924              		.loc 1 1166 0
 925 000a 024B     		ldr	r3, .L86+4
 926 000c 1870     		strb	r0, [r3]
 927 000e 7047     		bx	lr
 928              	.L87:
ARM GAS  C:\Users\RECEPC~1\AppData\Local\Temp\cckZkqXS.s 			page 38


 929              		.align	2
 930              	.L86:
 931 0010 65650040 		.word	1073767781
 932 0014 45650040 		.word	1073767749
 933              		.cfi_endproc
 934              	.LFE21:
 935              		.size	LCD_1_PutChar, .-LCD_1_PutChar
 936              		.section	.text.LCD_1_PutString,"ax",%progbits
 937              		.align	2
 938              		.global	LCD_1_PutString
 939              		.thumb
 940              		.thumb_func
 941              		.type	LCD_1_PutString, %function
 942              	LCD_1_PutString:
 943              	.LFB22:
1167:.\Generated_Source\PSoC5/LCD_1.c **** 
1168:.\Generated_Source\PSoC5/LCD_1.c ****             #endif /* End LCD_1_TXBUFFERSIZE > LCD_1_FIFO_LENGTH */
1169:.\Generated_Source\PSoC5/LCD_1.c ****     }
1170:.\Generated_Source\PSoC5/LCD_1.c **** 
1171:.\Generated_Source\PSoC5/LCD_1.c **** 
1172:.\Generated_Source\PSoC5/LCD_1.c ****     /*******************************************************************************
1173:.\Generated_Source\PSoC5/LCD_1.c ****     * Function Name: LCD_1_PutString
1174:.\Generated_Source\PSoC5/LCD_1.c ****     ********************************************************************************
1175:.\Generated_Source\PSoC5/LCD_1.c ****     *
1176:.\Generated_Source\PSoC5/LCD_1.c ****     * Summary:
1177:.\Generated_Source\PSoC5/LCD_1.c ****     *  Write a Sequence of bytes on the Transmit line. Data comes from RAM or ROM.
1178:.\Generated_Source\PSoC5/LCD_1.c ****     *
1179:.\Generated_Source\PSoC5/LCD_1.c ****     * Parameters:
1180:.\Generated_Source\PSoC5/LCD_1.c ****     *  string: char pointer to character string of Data to Send.
1181:.\Generated_Source\PSoC5/LCD_1.c ****     *
1182:.\Generated_Source\PSoC5/LCD_1.c ****     * Return:
1183:.\Generated_Source\PSoC5/LCD_1.c ****     *  None.
1184:.\Generated_Source\PSoC5/LCD_1.c ****     *
1185:.\Generated_Source\PSoC5/LCD_1.c ****     * Global Variables:
1186:.\Generated_Source\PSoC5/LCD_1.c ****     *  LCD_1_initVar - checked to identify that the component has been
1187:.\Generated_Source\PSoC5/LCD_1.c ****     *     initialized.
1188:.\Generated_Source\PSoC5/LCD_1.c ****     *
1189:.\Generated_Source\PSoC5/LCD_1.c ****     * Reentrant:
1190:.\Generated_Source\PSoC5/LCD_1.c ****     *  No.
1191:.\Generated_Source\PSoC5/LCD_1.c ****     *
1192:.\Generated_Source\PSoC5/LCD_1.c ****     * Theory:
1193:.\Generated_Source\PSoC5/LCD_1.c ****     *  This function will block if there is not enough memory to place the whole
1194:.\Generated_Source\PSoC5/LCD_1.c ****     *  string, it will block until the entire string has been written to the
1195:.\Generated_Source\PSoC5/LCD_1.c ****     *  transmit buffer.
1196:.\Generated_Source\PSoC5/LCD_1.c ****     *
1197:.\Generated_Source\PSoC5/LCD_1.c ****     *******************************************************************************/
1198:.\Generated_Source\PSoC5/LCD_1.c ****     void LCD_1_PutString(const char8 string[]) 
1199:.\Generated_Source\PSoC5/LCD_1.c ****     {
 944              		.loc 1 1199 0
 945              		.cfi_startproc
 946              		@ args = 0, pretend = 0, frame = 0
 947              		@ frame_needed = 0, uses_anonymous_args = 0
 948              	.LVL72:
 949 0000 38B5     		push	{r3, r4, r5, lr}
 950              		.cfi_def_cfa_offset 16
 951              		.cfi_offset 3, -16
 952              		.cfi_offset 4, -12
ARM GAS  C:\Users\RECEPC~1\AppData\Local\Temp\cckZkqXS.s 			page 39


 953              		.cfi_offset 5, -8
 954              		.cfi_offset 14, -4
 955              	.LVL73:
1200:.\Generated_Source\PSoC5/LCD_1.c ****         uint16 buf_index = 0u;
1201:.\Generated_Source\PSoC5/LCD_1.c ****         /* If not Initialized then skip this function*/
1202:.\Generated_Source\PSoC5/LCD_1.c ****         if(LCD_1_initVar != 0u)
 956              		.loc 1 1202 0
 957 0002 074B     		ldr	r3, .L94
 958 0004 1B78     		ldrb	r3, [r3]	@ zero_extendqisi2
 959 0006 2BB9     		cbnz	r3, .L92
 960 0008 38BD     		pop	{r3, r4, r5, pc}
 961              	.LVL74:
 962              	.L91:
1203:.\Generated_Source\PSoC5/LCD_1.c ****         {
1204:.\Generated_Source\PSoC5/LCD_1.c ****             /* This is a blocking function, it will not exit until all data is sent*/
1205:.\Generated_Source\PSoC5/LCD_1.c ****             while(string[buf_index] != (char8)0)
1206:.\Generated_Source\PSoC5/LCD_1.c ****             {
1207:.\Generated_Source\PSoC5/LCD_1.c ****                 LCD_1_PutChar((uint8)string[buf_index]);
 963              		.loc 1 1207 0
 964 000a FFF7FEFF 		bl	LCD_1_PutChar
 965              	.LVL75:
1208:.\Generated_Source\PSoC5/LCD_1.c ****                 buf_index++;
 966              		.loc 1 1208 0
 967 000e 0134     		adds	r4, r4, #1
 968              	.LVL76:
 969 0010 A4B2     		uxth	r4, r4
 970              	.LVL77:
 971 0012 01E0     		b	.L89
 972              	.LVL78:
 973              	.L92:
 974 0014 0546     		mov	r5, r0
 975 0016 0024     		movs	r4, #0
 976              	.LVL79:
 977              	.L89:
1205:.\Generated_Source\PSoC5/LCD_1.c ****             {
 978              		.loc 1 1205 0
 979 0018 285D     		ldrb	r0, [r5, r4]	@ zero_extendqisi2
 980 001a 0028     		cmp	r0, #0
 981 001c F5D1     		bne	.L91
 982 001e 38BD     		pop	{r3, r4, r5, pc}
 983              	.LVL80:
 984              	.L95:
 985              		.align	2
 986              	.L94:
 987 0020 00000000 		.word	.LANCHOR0
 988              		.cfi_endproc
 989              	.LFE22:
 990              		.size	LCD_1_PutString, .-LCD_1_PutString
 991              		.section	.text.LCD_1_PutArray,"ax",%progbits
 992              		.align	2
 993              		.global	LCD_1_PutArray
 994              		.thumb
 995              		.thumb_func
 996              		.type	LCD_1_PutArray, %function
 997              	LCD_1_PutArray:
 998              	.LFB23:
1209:.\Generated_Source\PSoC5/LCD_1.c ****             }
ARM GAS  C:\Users\RECEPC~1\AppData\Local\Temp\cckZkqXS.s 			page 40


1210:.\Generated_Source\PSoC5/LCD_1.c ****         }
1211:.\Generated_Source\PSoC5/LCD_1.c ****     }
1212:.\Generated_Source\PSoC5/LCD_1.c **** 
1213:.\Generated_Source\PSoC5/LCD_1.c **** 
1214:.\Generated_Source\PSoC5/LCD_1.c ****     /*******************************************************************************
1215:.\Generated_Source\PSoC5/LCD_1.c ****     * Function Name: LCD_1_PutArray
1216:.\Generated_Source\PSoC5/LCD_1.c ****     ********************************************************************************
1217:.\Generated_Source\PSoC5/LCD_1.c ****     *
1218:.\Generated_Source\PSoC5/LCD_1.c ****     * Summary:
1219:.\Generated_Source\PSoC5/LCD_1.c ****     *  Write a Sequence of bytes on the Transmit line. Data comes from RAM or ROM.
1220:.\Generated_Source\PSoC5/LCD_1.c ****     *
1221:.\Generated_Source\PSoC5/LCD_1.c ****     * Parameters:
1222:.\Generated_Source\PSoC5/LCD_1.c ****     *  string: Address of the memory array residing in RAM or ROM.
1223:.\Generated_Source\PSoC5/LCD_1.c ****     *  byteCount: Number of Bytes to be transmitted.
1224:.\Generated_Source\PSoC5/LCD_1.c ****     *
1225:.\Generated_Source\PSoC5/LCD_1.c ****     * Return:
1226:.\Generated_Source\PSoC5/LCD_1.c ****     *  None.
1227:.\Generated_Source\PSoC5/LCD_1.c ****     *
1228:.\Generated_Source\PSoC5/LCD_1.c ****     * Global Variables:
1229:.\Generated_Source\PSoC5/LCD_1.c ****     *  LCD_1_initVar - checked to identify that the component has been
1230:.\Generated_Source\PSoC5/LCD_1.c ****     *     initialized.
1231:.\Generated_Source\PSoC5/LCD_1.c ****     *
1232:.\Generated_Source\PSoC5/LCD_1.c ****     * Reentrant:
1233:.\Generated_Source\PSoC5/LCD_1.c ****     *  No.
1234:.\Generated_Source\PSoC5/LCD_1.c ****     *
1235:.\Generated_Source\PSoC5/LCD_1.c ****     *******************************************************************************/
1236:.\Generated_Source\PSoC5/LCD_1.c ****     void LCD_1_PutArray(const uint8 string[], uint8 byteCount)
1237:.\Generated_Source\PSoC5/LCD_1.c ****                                                                     
1238:.\Generated_Source\PSoC5/LCD_1.c ****     {
 999              		.loc 1 1238 0
 1000              		.cfi_startproc
 1001              		@ args = 0, pretend = 0, frame = 0
 1002              		@ frame_needed = 0, uses_anonymous_args = 0
 1003              	.LVL81:
1239:.\Generated_Source\PSoC5/LCD_1.c ****         uint8 buf_index = 0u;
1240:.\Generated_Source\PSoC5/LCD_1.c ****         /* If not Initialized then skip this function*/
1241:.\Generated_Source\PSoC5/LCD_1.c ****         if(LCD_1_initVar != 0u)
 1004              		.loc 1 1241 0
 1005 0000 074B     		ldr	r3, .L101
 1006 0002 1B78     		ldrb	r3, [r3]	@ zero_extendqisi2
 1007 0004 5BB1     		cbz	r3, .L100
1238:.\Generated_Source\PSoC5/LCD_1.c ****         uint8 buf_index = 0u;
 1008              		.loc 1 1238 0
 1009 0006 70B5     		push	{r4, r5, r6, lr}
 1010              		.cfi_def_cfa_offset 16
 1011              		.cfi_offset 4, -16
 1012              		.cfi_offset 5, -12
 1013              		.cfi_offset 6, -8
 1014              		.cfi_offset 14, -4
 1015 0008 0E46     		mov	r6, r1
 1016 000a 0546     		mov	r5, r0
 1017 000c 0024     		movs	r4, #0
 1018              	.LVL82:
 1019              	.L98:
1242:.\Generated_Source\PSoC5/LCD_1.c ****         {
1243:.\Generated_Source\PSoC5/LCD_1.c ****             do
1244:.\Generated_Source\PSoC5/LCD_1.c ****             {
ARM GAS  C:\Users\RECEPC~1\AppData\Local\Temp\cckZkqXS.s 			page 41


1245:.\Generated_Source\PSoC5/LCD_1.c ****                 LCD_1_PutChar(string[buf_index]);
 1020              		.loc 1 1245 0 discriminator 1
 1021 000e 285D     		ldrb	r0, [r5, r4]	@ zero_extendqisi2
 1022 0010 FFF7FEFF 		bl	LCD_1_PutChar
 1023              	.LVL83:
1246:.\Generated_Source\PSoC5/LCD_1.c ****                 buf_index++;
 1024              		.loc 1 1246 0 discriminator 1
 1025 0014 0134     		adds	r4, r4, #1
 1026              	.LVL84:
 1027 0016 E4B2     		uxtb	r4, r4
 1028              	.LVL85:
1247:.\Generated_Source\PSoC5/LCD_1.c ****             }while(buf_index < byteCount);
 1029              		.loc 1 1247 0 discriminator 1
 1030 0018 B442     		cmp	r4, r6
 1031 001a F8D3     		bcc	.L98
 1032 001c 70BD     		pop	{r4, r5, r6, pc}
 1033              	.LVL86:
 1034              	.L100:
 1035              		.cfi_def_cfa_offset 0
 1036              		.cfi_restore 4
 1037              		.cfi_restore 5
 1038              		.cfi_restore 6
 1039              		.cfi_restore 14
 1040 001e 7047     		bx	lr
 1041              	.L102:
 1042              		.align	2
 1043              	.L101:
 1044 0020 00000000 		.word	.LANCHOR0
 1045              		.cfi_endproc
 1046              	.LFE23:
 1047              		.size	LCD_1_PutArray, .-LCD_1_PutArray
 1048              		.section	.text.LCD_1_PutCRLF,"ax",%progbits
 1049              		.align	2
 1050              		.global	LCD_1_PutCRLF
 1051              		.thumb
 1052              		.thumb_func
 1053              		.type	LCD_1_PutCRLF, %function
 1054              	LCD_1_PutCRLF:
 1055              	.LFB24:
1248:.\Generated_Source\PSoC5/LCD_1.c ****         }
1249:.\Generated_Source\PSoC5/LCD_1.c ****     }
1250:.\Generated_Source\PSoC5/LCD_1.c **** 
1251:.\Generated_Source\PSoC5/LCD_1.c **** 
1252:.\Generated_Source\PSoC5/LCD_1.c ****     /*******************************************************************************
1253:.\Generated_Source\PSoC5/LCD_1.c ****     * Function Name: LCD_1_PutCRLF
1254:.\Generated_Source\PSoC5/LCD_1.c ****     ********************************************************************************
1255:.\Generated_Source\PSoC5/LCD_1.c ****     *
1256:.\Generated_Source\PSoC5/LCD_1.c ****     * Summary:
1257:.\Generated_Source\PSoC5/LCD_1.c ****     *  Write a character and then carriage return and line feed.
1258:.\Generated_Source\PSoC5/LCD_1.c ****     *
1259:.\Generated_Source\PSoC5/LCD_1.c ****     * Parameters:
1260:.\Generated_Source\PSoC5/LCD_1.c ****     *  txDataByte: uint8 Character to send.
1261:.\Generated_Source\PSoC5/LCD_1.c ****     *
1262:.\Generated_Source\PSoC5/LCD_1.c ****     * Return:
1263:.\Generated_Source\PSoC5/LCD_1.c ****     *  None.
1264:.\Generated_Source\PSoC5/LCD_1.c ****     *
1265:.\Generated_Source\PSoC5/LCD_1.c ****     * Global Variables:
ARM GAS  C:\Users\RECEPC~1\AppData\Local\Temp\cckZkqXS.s 			page 42


1266:.\Generated_Source\PSoC5/LCD_1.c ****     *  LCD_1_initVar - checked to identify that the component has been
1267:.\Generated_Source\PSoC5/LCD_1.c ****     *     initialized.
1268:.\Generated_Source\PSoC5/LCD_1.c ****     *
1269:.\Generated_Source\PSoC5/LCD_1.c ****     * Reentrant:
1270:.\Generated_Source\PSoC5/LCD_1.c ****     *  No.
1271:.\Generated_Source\PSoC5/LCD_1.c ****     *
1272:.\Generated_Source\PSoC5/LCD_1.c ****     *******************************************************************************/
1273:.\Generated_Source\PSoC5/LCD_1.c ****     void LCD_1_PutCRLF(uint8 txDataByte) 
1274:.\Generated_Source\PSoC5/LCD_1.c ****     {
 1056              		.loc 1 1274 0
 1057              		.cfi_startproc
 1058              		@ args = 0, pretend = 0, frame = 0
 1059              		@ frame_needed = 0, uses_anonymous_args = 0
 1060              	.LVL87:
 1061 0000 08B5     		push	{r3, lr}
 1062              		.cfi_def_cfa_offset 8
 1063              		.cfi_offset 3, -8
 1064              		.cfi_offset 14, -4
1275:.\Generated_Source\PSoC5/LCD_1.c ****         /* If not Initialized then skip this function*/
1276:.\Generated_Source\PSoC5/LCD_1.c ****         if(LCD_1_initVar != 0u)
 1065              		.loc 1 1276 0
 1066 0002 064B     		ldr	r3, .L106
 1067 0004 1B78     		ldrb	r3, [r3]	@ zero_extendqisi2
 1068 0006 3BB1     		cbz	r3, .L103
1277:.\Generated_Source\PSoC5/LCD_1.c ****         {
1278:.\Generated_Source\PSoC5/LCD_1.c ****             LCD_1_PutChar(txDataByte);
 1069              		.loc 1 1278 0
 1070 0008 FFF7FEFF 		bl	LCD_1_PutChar
 1071              	.LVL88:
1279:.\Generated_Source\PSoC5/LCD_1.c ****             LCD_1_PutChar(0x0Du);
 1072              		.loc 1 1279 0
 1073 000c 0D20     		movs	r0, #13
 1074 000e FFF7FEFF 		bl	LCD_1_PutChar
 1075              	.LVL89:
1280:.\Generated_Source\PSoC5/LCD_1.c ****             LCD_1_PutChar(0x0Au);
 1076              		.loc 1 1280 0
 1077 0012 0A20     		movs	r0, #10
 1078 0014 FFF7FEFF 		bl	LCD_1_PutChar
 1079              	.LVL90:
 1080              	.L103:
 1081 0018 08BD     		pop	{r3, pc}
 1082              	.L107:
 1083 001a 00BF     		.align	2
 1084              	.L106:
 1085 001c 00000000 		.word	.LANCHOR0
 1086              		.cfi_endproc
 1087              	.LFE24:
 1088              		.size	LCD_1_PutCRLF, .-LCD_1_PutCRLF
 1089              		.section	.text.LCD_1_GetTxBufferSize,"ax",%progbits
 1090              		.align	2
 1091              		.global	LCD_1_GetTxBufferSize
 1092              		.thumb
 1093              		.thumb_func
 1094              		.type	LCD_1_GetTxBufferSize, %function
 1095              	LCD_1_GetTxBufferSize:
 1096              	.LFB25:
1281:.\Generated_Source\PSoC5/LCD_1.c ****         }
ARM GAS  C:\Users\RECEPC~1\AppData\Local\Temp\cckZkqXS.s 			page 43


1282:.\Generated_Source\PSoC5/LCD_1.c ****     }
1283:.\Generated_Source\PSoC5/LCD_1.c **** 
1284:.\Generated_Source\PSoC5/LCD_1.c **** 
1285:.\Generated_Source\PSoC5/LCD_1.c ****     /*******************************************************************************
1286:.\Generated_Source\PSoC5/LCD_1.c ****     * Function Name: LCD_1_GetTxBufferSize
1287:.\Generated_Source\PSoC5/LCD_1.c ****     ********************************************************************************
1288:.\Generated_Source\PSoC5/LCD_1.c ****     *
1289:.\Generated_Source\PSoC5/LCD_1.c ****     * Summary:
1290:.\Generated_Source\PSoC5/LCD_1.c ****     *  Determine the amount of space left in the TX buffer and return the count in
1291:.\Generated_Source\PSoC5/LCD_1.c ****     *  bytes
1292:.\Generated_Source\PSoC5/LCD_1.c ****     *
1293:.\Generated_Source\PSoC5/LCD_1.c ****     * Parameters:
1294:.\Generated_Source\PSoC5/LCD_1.c ****     *  None.
1295:.\Generated_Source\PSoC5/LCD_1.c ****     *
1296:.\Generated_Source\PSoC5/LCD_1.c ****     * Return:
1297:.\Generated_Source\PSoC5/LCD_1.c ****     *  Integer count of the number of bytes left in the TX buffer
1298:.\Generated_Source\PSoC5/LCD_1.c ****     *
1299:.\Generated_Source\PSoC5/LCD_1.c ****     * Global Variables:
1300:.\Generated_Source\PSoC5/LCD_1.c ****     *  LCD_1_txBufferWrite - used to calculate left space.
1301:.\Generated_Source\PSoC5/LCD_1.c ****     *  LCD_1_txBufferRead - used to calculate left space.
1302:.\Generated_Source\PSoC5/LCD_1.c ****     *
1303:.\Generated_Source\PSoC5/LCD_1.c ****     * Reentrant:
1304:.\Generated_Source\PSoC5/LCD_1.c ****     *  No.
1305:.\Generated_Source\PSoC5/LCD_1.c ****     *
1306:.\Generated_Source\PSoC5/LCD_1.c ****     * Theory:
1307:.\Generated_Source\PSoC5/LCD_1.c ****     *  Allows the user to find out how full the TX Buffer is.
1308:.\Generated_Source\PSoC5/LCD_1.c ****     *
1309:.\Generated_Source\PSoC5/LCD_1.c ****     *******************************************************************************/
1310:.\Generated_Source\PSoC5/LCD_1.c ****     uint8 LCD_1_GetTxBufferSize(void)
1311:.\Generated_Source\PSoC5/LCD_1.c ****                                                             
1312:.\Generated_Source\PSoC5/LCD_1.c ****     {
 1097              		.loc 1 1312 0
 1098              		.cfi_startproc
 1099              		@ args = 0, pretend = 0, frame = 0
 1100              		@ frame_needed = 0, uses_anonymous_args = 0
 1101              		@ link register save eliminated.
1313:.\Generated_Source\PSoC5/LCD_1.c ****         uint8 size;
1314:.\Generated_Source\PSoC5/LCD_1.c **** 
1315:.\Generated_Source\PSoC5/LCD_1.c ****         #if(LCD_1_TXBUFFERSIZE > LCD_1_FIFO_LENGTH)
1316:.\Generated_Source\PSoC5/LCD_1.c **** 
1317:.\Generated_Source\PSoC5/LCD_1.c ****             /* Disable Tx interrupt. */
1318:.\Generated_Source\PSoC5/LCD_1.c ****             /* Protect variables that could change on interrupt. */
1319:.\Generated_Source\PSoC5/LCD_1.c ****             #if(LCD_1_TX_INTERRUPT_ENABLED)
1320:.\Generated_Source\PSoC5/LCD_1.c ****                 LCD_1_DisableTxInt();
1321:.\Generated_Source\PSoC5/LCD_1.c ****             #endif /* End LCD_1_TX_INTERRUPT_ENABLED */
1322:.\Generated_Source\PSoC5/LCD_1.c **** 
1323:.\Generated_Source\PSoC5/LCD_1.c ****             if(LCD_1_txBufferRead == LCD_1_txBufferWrite)
1324:.\Generated_Source\PSoC5/LCD_1.c ****             {
1325:.\Generated_Source\PSoC5/LCD_1.c ****                 size = 0u;
1326:.\Generated_Source\PSoC5/LCD_1.c ****             }
1327:.\Generated_Source\PSoC5/LCD_1.c ****             else if(LCD_1_txBufferRead < LCD_1_txBufferWrite)
1328:.\Generated_Source\PSoC5/LCD_1.c ****             {
1329:.\Generated_Source\PSoC5/LCD_1.c ****                 size = (LCD_1_txBufferWrite - LCD_1_txBufferRead);
1330:.\Generated_Source\PSoC5/LCD_1.c ****             }
1331:.\Generated_Source\PSoC5/LCD_1.c ****             else
1332:.\Generated_Source\PSoC5/LCD_1.c ****             {
1333:.\Generated_Source\PSoC5/LCD_1.c ****                 size = (LCD_1_TXBUFFERSIZE - LCD_1_txBufferRead) + LCD_1_txBufferWrite;
ARM GAS  C:\Users\RECEPC~1\AppData\Local\Temp\cckZkqXS.s 			page 44


1334:.\Generated_Source\PSoC5/LCD_1.c ****             }
1335:.\Generated_Source\PSoC5/LCD_1.c **** 
1336:.\Generated_Source\PSoC5/LCD_1.c ****             /* Enable Tx interrupt. */
1337:.\Generated_Source\PSoC5/LCD_1.c ****             #if(LCD_1_TX_INTERRUPT_ENABLED)
1338:.\Generated_Source\PSoC5/LCD_1.c ****                 LCD_1_EnableTxInt();
1339:.\Generated_Source\PSoC5/LCD_1.c ****             #endif /* End LCD_1_TX_INTERRUPT_ENABLED */
1340:.\Generated_Source\PSoC5/LCD_1.c **** 
1341:.\Generated_Source\PSoC5/LCD_1.c ****         #else /* LCD_1_TXBUFFERSIZE > LCD_1_FIFO_LENGTH */
1342:.\Generated_Source\PSoC5/LCD_1.c **** 
1343:.\Generated_Source\PSoC5/LCD_1.c ****             size = LCD_1_TXSTATUS_REG;
 1102              		.loc 1 1343 0
 1103 0000 074B     		ldr	r3, .L112
 1104 0002 1B78     		ldrb	r3, [r3]	@ zero_extendqisi2
 1105 0004 DBB2     		uxtb	r3, r3
 1106              	.LVL91:
1344:.\Generated_Source\PSoC5/LCD_1.c **** 
1345:.\Generated_Source\PSoC5/LCD_1.c ****             /* Is the fifo is full. */
1346:.\Generated_Source\PSoC5/LCD_1.c ****             if((size & LCD_1_TX_STS_FIFO_FULL) != 0u)
 1107              		.loc 1 1346 0
 1108 0006 13F0040F 		tst	r3, #4
 1109 000a 04D1     		bne	.L110
1347:.\Generated_Source\PSoC5/LCD_1.c ****             {
1348:.\Generated_Source\PSoC5/LCD_1.c ****                 size = LCD_1_FIFO_LENGTH;
1349:.\Generated_Source\PSoC5/LCD_1.c ****             }
1350:.\Generated_Source\PSoC5/LCD_1.c ****             else if((size & LCD_1_TX_STS_FIFO_EMPTY) != 0u)
 1110              		.loc 1 1350 0
 1111 000c 13F0020F 		tst	r3, #2
 1112 0010 03D0     		beq	.L111
1351:.\Generated_Source\PSoC5/LCD_1.c ****             {
1352:.\Generated_Source\PSoC5/LCD_1.c ****                 size = 0u;
 1113              		.loc 1 1352 0
 1114 0012 0020     		movs	r0, #0
 1115 0014 7047     		bx	lr
 1116              	.L110:
1348:.\Generated_Source\PSoC5/LCD_1.c ****             }
 1117              		.loc 1 1348 0
 1118 0016 0420     		movs	r0, #4
 1119 0018 7047     		bx	lr
 1120              	.L111:
1353:.\Generated_Source\PSoC5/LCD_1.c ****             }
1354:.\Generated_Source\PSoC5/LCD_1.c ****             else
1355:.\Generated_Source\PSoC5/LCD_1.c ****             {
1356:.\Generated_Source\PSoC5/LCD_1.c ****                 /* We only know there is data in the fifo. */
1357:.\Generated_Source\PSoC5/LCD_1.c ****                 size = 1u;
 1121              		.loc 1 1357 0
 1122 001a 0120     		movs	r0, #1
 1123              	.LVL92:
1358:.\Generated_Source\PSoC5/LCD_1.c ****             }
1359:.\Generated_Source\PSoC5/LCD_1.c **** 
1360:.\Generated_Source\PSoC5/LCD_1.c ****         #endif /* End LCD_1_TXBUFFERSIZE > LCD_1_FIFO_LENGTH */
1361:.\Generated_Source\PSoC5/LCD_1.c **** 
1362:.\Generated_Source\PSoC5/LCD_1.c ****         return(size);
1363:.\Generated_Source\PSoC5/LCD_1.c ****     }
 1124              		.loc 1 1363 0
 1125 001c 7047     		bx	lr
 1126              	.L113:
 1127 001e 00BF     		.align	2
ARM GAS  C:\Users\RECEPC~1\AppData\Local\Temp\cckZkqXS.s 			page 45


 1128              	.L112:
 1129 0020 65650040 		.word	1073767781
 1130              		.cfi_endproc
 1131              	.LFE25:
 1132              		.size	LCD_1_GetTxBufferSize, .-LCD_1_GetTxBufferSize
 1133              		.section	.text.LCD_1_ClearTxBuffer,"ax",%progbits
 1134              		.align	2
 1135              		.global	LCD_1_ClearTxBuffer
 1136              		.thumb
 1137              		.thumb_func
 1138              		.type	LCD_1_ClearTxBuffer, %function
 1139              	LCD_1_ClearTxBuffer:
 1140              	.LFB26:
1364:.\Generated_Source\PSoC5/LCD_1.c **** 
1365:.\Generated_Source\PSoC5/LCD_1.c **** 
1366:.\Generated_Source\PSoC5/LCD_1.c ****     /*******************************************************************************
1367:.\Generated_Source\PSoC5/LCD_1.c ****     * Function Name: LCD_1_ClearTxBuffer
1368:.\Generated_Source\PSoC5/LCD_1.c ****     ********************************************************************************
1369:.\Generated_Source\PSoC5/LCD_1.c ****     *
1370:.\Generated_Source\PSoC5/LCD_1.c ****     * Summary:
1371:.\Generated_Source\PSoC5/LCD_1.c ****     *  Clears the TX RAM buffer by setting the read and write pointers both to zero.
1372:.\Generated_Source\PSoC5/LCD_1.c ****     *  Clears the hardware TX FIFO.  Any data present in the FIFO will not be sent.
1373:.\Generated_Source\PSoC5/LCD_1.c ****     *
1374:.\Generated_Source\PSoC5/LCD_1.c ****     * Parameters:
1375:.\Generated_Source\PSoC5/LCD_1.c ****     *  None.
1376:.\Generated_Source\PSoC5/LCD_1.c ****     *
1377:.\Generated_Source\PSoC5/LCD_1.c ****     * Return:
1378:.\Generated_Source\PSoC5/LCD_1.c ****     *  None.
1379:.\Generated_Source\PSoC5/LCD_1.c ****     *
1380:.\Generated_Source\PSoC5/LCD_1.c ****     * Global Variables:
1381:.\Generated_Source\PSoC5/LCD_1.c ****     *  LCD_1_txBufferWrite - cleared to zero.
1382:.\Generated_Source\PSoC5/LCD_1.c ****     *  LCD_1_txBufferRead - cleared to zero.
1383:.\Generated_Source\PSoC5/LCD_1.c ****     *
1384:.\Generated_Source\PSoC5/LCD_1.c ****     * Reentrant:
1385:.\Generated_Source\PSoC5/LCD_1.c ****     *  No.
1386:.\Generated_Source\PSoC5/LCD_1.c ****     *
1387:.\Generated_Source\PSoC5/LCD_1.c ****     * Theory:
1388:.\Generated_Source\PSoC5/LCD_1.c ****     *  Setting the pointers to zero makes the system believe there is no data to
1389:.\Generated_Source\PSoC5/LCD_1.c ****     *  read and writing will resume at address 0 overwriting any data that may have
1390:.\Generated_Source\PSoC5/LCD_1.c ****     *  remained in the RAM.
1391:.\Generated_Source\PSoC5/LCD_1.c ****     *
1392:.\Generated_Source\PSoC5/LCD_1.c ****     * Side Effects:
1393:.\Generated_Source\PSoC5/LCD_1.c ****     *  Any received data not read from the RAM buffer will be lost when overwritten.
1394:.\Generated_Source\PSoC5/LCD_1.c ****     *
1395:.\Generated_Source\PSoC5/LCD_1.c ****     *******************************************************************************/
1396:.\Generated_Source\PSoC5/LCD_1.c ****     void LCD_1_ClearTxBuffer(void) 
1397:.\Generated_Source\PSoC5/LCD_1.c ****     {
 1141              		.loc 1 1397 0
 1142              		.cfi_startproc
 1143              		@ args = 0, pretend = 0, frame = 0
 1144              		@ frame_needed = 0, uses_anonymous_args = 0
 1145 0000 08B5     		push	{r3, lr}
 1146              		.cfi_def_cfa_offset 8
 1147              		.cfi_offset 3, -8
 1148              		.cfi_offset 14, -4
1398:.\Generated_Source\PSoC5/LCD_1.c ****         uint8 enableInterrupts;
1399:.\Generated_Source\PSoC5/LCD_1.c **** 
ARM GAS  C:\Users\RECEPC~1\AppData\Local\Temp\cckZkqXS.s 			page 46


1400:.\Generated_Source\PSoC5/LCD_1.c ****         /* Enter critical section */
1401:.\Generated_Source\PSoC5/LCD_1.c ****         enableInterrupts = CyEnterCriticalSection();
 1149              		.loc 1 1401 0
 1150 0002 FFF7FEFF 		bl	CyEnterCriticalSection
 1151              	.LVL93:
1402:.\Generated_Source\PSoC5/LCD_1.c ****         /* clear the HW FIFO */
1403:.\Generated_Source\PSoC5/LCD_1.c ****         LCD_1_TXDATA_AUX_CTL_REG |=  LCD_1_TX_FIFO_CLR;
 1152              		.loc 1 1403 0
 1153 0006 064B     		ldr	r3, .L116
 1154 0008 1A78     		ldrb	r2, [r3]	@ zero_extendqisi2
 1155 000a 42F00102 		orr	r2, r2, #1
 1156 000e 1A70     		strb	r2, [r3]
1404:.\Generated_Source\PSoC5/LCD_1.c ****         LCD_1_TXDATA_AUX_CTL_REG &= (uint8)~LCD_1_TX_FIFO_CLR;
 1157              		.loc 1 1404 0
 1158 0010 1A78     		ldrb	r2, [r3]	@ zero_extendqisi2
 1159 0012 02F0FE02 		and	r2, r2, #254
 1160 0016 1A70     		strb	r2, [r3]
1405:.\Generated_Source\PSoC5/LCD_1.c ****         /* Exit critical section */
1406:.\Generated_Source\PSoC5/LCD_1.c ****         CyExitCriticalSection(enableInterrupts);
 1161              		.loc 1 1406 0
 1162 0018 FFF7FEFF 		bl	CyExitCriticalSection
 1163              	.LVL94:
 1164 001c 08BD     		pop	{r3, pc}
 1165              	.L117:
 1166 001e 00BF     		.align	2
 1167              	.L116:
 1168 0020 95650040 		.word	1073767829
 1169              		.cfi_endproc
 1170              	.LFE26:
 1171              		.size	LCD_1_ClearTxBuffer, .-LCD_1_ClearTxBuffer
 1172              		.section	.text.LCD_1_SendBreak,"ax",%progbits
 1173              		.align	2
 1174              		.global	LCD_1_SendBreak
 1175              		.thumb
 1176              		.thumb_func
 1177              		.type	LCD_1_SendBreak, %function
 1178              	LCD_1_SendBreak:
 1179              	.LFB27:
1407:.\Generated_Source\PSoC5/LCD_1.c **** 
1408:.\Generated_Source\PSoC5/LCD_1.c ****         #if(LCD_1_TXBUFFERSIZE > LCD_1_FIFO_LENGTH)
1409:.\Generated_Source\PSoC5/LCD_1.c **** 
1410:.\Generated_Source\PSoC5/LCD_1.c ****             /* Disable Tx interrupt. */
1411:.\Generated_Source\PSoC5/LCD_1.c ****             /* Protect variables that could change on interrupt. */
1412:.\Generated_Source\PSoC5/LCD_1.c ****             #if(LCD_1_TX_INTERRUPT_ENABLED)
1413:.\Generated_Source\PSoC5/LCD_1.c ****                 LCD_1_DisableTxInt();
1414:.\Generated_Source\PSoC5/LCD_1.c ****             #endif /* End LCD_1_TX_INTERRUPT_ENABLED */
1415:.\Generated_Source\PSoC5/LCD_1.c **** 
1416:.\Generated_Source\PSoC5/LCD_1.c ****             LCD_1_txBufferRead = 0u;
1417:.\Generated_Source\PSoC5/LCD_1.c ****             LCD_1_txBufferWrite = 0u;
1418:.\Generated_Source\PSoC5/LCD_1.c **** 
1419:.\Generated_Source\PSoC5/LCD_1.c ****             /* Enable Tx interrupt. */
1420:.\Generated_Source\PSoC5/LCD_1.c ****             #if(LCD_1_TX_INTERRUPT_ENABLED)
1421:.\Generated_Source\PSoC5/LCD_1.c ****                 LCD_1_EnableTxInt();
1422:.\Generated_Source\PSoC5/LCD_1.c ****             #endif /* End LCD_1_TX_INTERRUPT_ENABLED */
1423:.\Generated_Source\PSoC5/LCD_1.c **** 
1424:.\Generated_Source\PSoC5/LCD_1.c ****         #endif /* End LCD_1_TXBUFFERSIZE > LCD_1_FIFO_LENGTH */
1425:.\Generated_Source\PSoC5/LCD_1.c ****     }
ARM GAS  C:\Users\RECEPC~1\AppData\Local\Temp\cckZkqXS.s 			page 47


1426:.\Generated_Source\PSoC5/LCD_1.c **** 
1427:.\Generated_Source\PSoC5/LCD_1.c **** 
1428:.\Generated_Source\PSoC5/LCD_1.c ****     /*******************************************************************************
1429:.\Generated_Source\PSoC5/LCD_1.c ****     * Function Name: LCD_1_SendBreak
1430:.\Generated_Source\PSoC5/LCD_1.c ****     ********************************************************************************
1431:.\Generated_Source\PSoC5/LCD_1.c ****     *
1432:.\Generated_Source\PSoC5/LCD_1.c ****     * Summary:
1433:.\Generated_Source\PSoC5/LCD_1.c ****     *  Write a Break command to the UART
1434:.\Generated_Source\PSoC5/LCD_1.c ****     *
1435:.\Generated_Source\PSoC5/LCD_1.c ****     * Parameters:
1436:.\Generated_Source\PSoC5/LCD_1.c ****     *  uint8 retMode:  Wait mode,
1437:.\Generated_Source\PSoC5/LCD_1.c ****     *   0 - Initialize registers for Break, sends the Break signal and return
1438:.\Generated_Source\PSoC5/LCD_1.c ****     *       imediately.
1439:.\Generated_Source\PSoC5/LCD_1.c ****     *   1 - Wait until Break sending is complete, reinitialize registers to normal
1440:.\Generated_Source\PSoC5/LCD_1.c ****     *       transmission mode then return.
1441:.\Generated_Source\PSoC5/LCD_1.c ****     *   2 - Reinitialize registers to normal transmission mode then return.
1442:.\Generated_Source\PSoC5/LCD_1.c ****     *   3 - both steps: 0 and 1
1443:.\Generated_Source\PSoC5/LCD_1.c ****     *       init registers for Break, send Break signal
1444:.\Generated_Source\PSoC5/LCD_1.c ****     *       wait until Break sending is complete, reinit registers to normal
1445:.\Generated_Source\PSoC5/LCD_1.c ****     *       transmission mode then return.
1446:.\Generated_Source\PSoC5/LCD_1.c ****     *
1447:.\Generated_Source\PSoC5/LCD_1.c ****     * Return:
1448:.\Generated_Source\PSoC5/LCD_1.c ****     *  None.
1449:.\Generated_Source\PSoC5/LCD_1.c ****     *
1450:.\Generated_Source\PSoC5/LCD_1.c ****     * Global Variables:
1451:.\Generated_Source\PSoC5/LCD_1.c ****     *  LCD_1_initVar - checked to identify that the component has been
1452:.\Generated_Source\PSoC5/LCD_1.c ****     *     initialized.
1453:.\Generated_Source\PSoC5/LCD_1.c ****     *  tx_period - static variable, used for keeping TX period configuration.
1454:.\Generated_Source\PSoC5/LCD_1.c ****     *
1455:.\Generated_Source\PSoC5/LCD_1.c ****     * Reentrant:
1456:.\Generated_Source\PSoC5/LCD_1.c ****     *  No.
1457:.\Generated_Source\PSoC5/LCD_1.c ****     *
1458:.\Generated_Source\PSoC5/LCD_1.c ****     * Theory:
1459:.\Generated_Source\PSoC5/LCD_1.c ****     *  SendBreak function initializes registers to send 13-bit break signal. It is
1460:.\Generated_Source\PSoC5/LCD_1.c ****     *  important to return the registers configuration to normal for continue 8-bit
1461:.\Generated_Source\PSoC5/LCD_1.c ****     *  operation.
1462:.\Generated_Source\PSoC5/LCD_1.c ****     *  Trere are 3 variants for this API usage:
1463:.\Generated_Source\PSoC5/LCD_1.c ****     *  1) SendBreak(3) - function will send the Break signal and take care on the
1464:.\Generated_Source\PSoC5/LCD_1.c ****     *     configuration returning. Funcition will block CPU untill transmition
1465:.\Generated_Source\PSoC5/LCD_1.c ****     *     complete.
1466:.\Generated_Source\PSoC5/LCD_1.c ****     *  2) User may want to use bloking time if UART configured to the low speed
1467:.\Generated_Source\PSoC5/LCD_1.c ****     *     operation
1468:.\Generated_Source\PSoC5/LCD_1.c ****     *     Emample for this case:
1469:.\Generated_Source\PSoC5/LCD_1.c ****     *     SendBreak(0);     - init Break signal transmition
1470:.\Generated_Source\PSoC5/LCD_1.c ****     *         Add your code here to use CPU time
1471:.\Generated_Source\PSoC5/LCD_1.c ****     *     SendBreak(1);     - complete Break operation
1472:.\Generated_Source\PSoC5/LCD_1.c ****     *  3) Same to 2) but user may want to init and use the interrupt for complete
1473:.\Generated_Source\PSoC5/LCD_1.c ****     *     break operation.
1474:.\Generated_Source\PSoC5/LCD_1.c ****     *     Example for this case:
1475:.\Generated_Source\PSoC5/LCD_1.c ****     *     Init TX interrupt whith "TX - On TX Complete" parameter
1476:.\Generated_Source\PSoC5/LCD_1.c ****     *     SendBreak(0);     - init Break signal transmition
1477:.\Generated_Source\PSoC5/LCD_1.c ****     *         Add your code here to use CPU time
1478:.\Generated_Source\PSoC5/LCD_1.c ****     *     When interrupt appear with UART_TX_STS_COMPLETE status:
1479:.\Generated_Source\PSoC5/LCD_1.c ****     *     SendBreak(2);     - complete Break operation
1480:.\Generated_Source\PSoC5/LCD_1.c ****     *
1481:.\Generated_Source\PSoC5/LCD_1.c ****     * Side Effects:
1482:.\Generated_Source\PSoC5/LCD_1.c ****     *   Uses static variable to keep registers configuration.
ARM GAS  C:\Users\RECEPC~1\AppData\Local\Temp\cckZkqXS.s 			page 48


1483:.\Generated_Source\PSoC5/LCD_1.c ****     *
1484:.\Generated_Source\PSoC5/LCD_1.c ****     *******************************************************************************/
1485:.\Generated_Source\PSoC5/LCD_1.c ****     void LCD_1_SendBreak(uint8 retMode) 
1486:.\Generated_Source\PSoC5/LCD_1.c ****     {
 1180              		.loc 1 1486 0
 1181              		.cfi_startproc
 1182              		@ args = 0, pretend = 0, frame = 0
 1183              		@ frame_needed = 0, uses_anonymous_args = 0
 1184              		@ link register save eliminated.
 1185              	.LVL95:
1487:.\Generated_Source\PSoC5/LCD_1.c **** 
1488:.\Generated_Source\PSoC5/LCD_1.c ****         /* If not Initialized then skip this function*/
1489:.\Generated_Source\PSoC5/LCD_1.c ****         if(LCD_1_initVar != 0u)
 1186              		.loc 1 1489 0
 1187 0000 124B     		ldr	r3, .L125
 1188 0002 1B78     		ldrb	r3, [r3]	@ zero_extendqisi2
 1189 0004 0BB3     		cbz	r3, .L118
 1190              	.LBB2:
1490:.\Generated_Source\PSoC5/LCD_1.c ****         {
1491:.\Generated_Source\PSoC5/LCD_1.c ****             /*Set the Counter to 13-bits and transmit a 00 byte*/
1492:.\Generated_Source\PSoC5/LCD_1.c ****             /*When that is done then reset the counter value back*/
1493:.\Generated_Source\PSoC5/LCD_1.c ****             uint8 tmpStat;
1494:.\Generated_Source\PSoC5/LCD_1.c **** 
1495:.\Generated_Source\PSoC5/LCD_1.c ****             #if(LCD_1_HD_ENABLED) /* Half Duplex mode*/
1496:.\Generated_Source\PSoC5/LCD_1.c **** 
1497:.\Generated_Source\PSoC5/LCD_1.c ****                 if( (retMode == LCD_1_SEND_BREAK) ||
1498:.\Generated_Source\PSoC5/LCD_1.c ****                     (retMode == LCD_1_SEND_WAIT_REINIT ) )
1499:.\Generated_Source\PSoC5/LCD_1.c ****                 {
1500:.\Generated_Source\PSoC5/LCD_1.c ****                     /* CTRL_HD_SEND_BREAK - sends break bits in HD mode*/
1501:.\Generated_Source\PSoC5/LCD_1.c ****                     LCD_1_WriteControlRegister(LCD_1_ReadControlRegister() |
1502:.\Generated_Source\PSoC5/LCD_1.c ****                                                           LCD_1_CTRL_HD_SEND_BREAK);
1503:.\Generated_Source\PSoC5/LCD_1.c ****                     /* Send zeros*/
1504:.\Generated_Source\PSoC5/LCD_1.c ****                     LCD_1_TXDATA_REG = 0u;
1505:.\Generated_Source\PSoC5/LCD_1.c **** 
1506:.\Generated_Source\PSoC5/LCD_1.c ****                     do /*wait until transmit starts*/
1507:.\Generated_Source\PSoC5/LCD_1.c ****                     {
1508:.\Generated_Source\PSoC5/LCD_1.c ****                         tmpStat = LCD_1_TXSTATUS_REG;
1509:.\Generated_Source\PSoC5/LCD_1.c ****                     }while((tmpStat & LCD_1_TX_STS_FIFO_EMPTY) != 0u);
1510:.\Generated_Source\PSoC5/LCD_1.c ****                 }
1511:.\Generated_Source\PSoC5/LCD_1.c **** 
1512:.\Generated_Source\PSoC5/LCD_1.c ****                 if( (retMode == LCD_1_WAIT_FOR_COMPLETE_REINIT) ||
1513:.\Generated_Source\PSoC5/LCD_1.c ****                     (retMode == LCD_1_SEND_WAIT_REINIT) )
1514:.\Generated_Source\PSoC5/LCD_1.c ****                 {
1515:.\Generated_Source\PSoC5/LCD_1.c ****                     do /*wait until transmit complete*/
1516:.\Generated_Source\PSoC5/LCD_1.c ****                     {
1517:.\Generated_Source\PSoC5/LCD_1.c ****                         tmpStat = LCD_1_TXSTATUS_REG;
1518:.\Generated_Source\PSoC5/LCD_1.c ****                     }while(((uint8)~tmpStat & LCD_1_TX_STS_COMPLETE) != 0u);
1519:.\Generated_Source\PSoC5/LCD_1.c ****                 }
1520:.\Generated_Source\PSoC5/LCD_1.c **** 
1521:.\Generated_Source\PSoC5/LCD_1.c ****                 if( (retMode == LCD_1_WAIT_FOR_COMPLETE_REINIT) ||
1522:.\Generated_Source\PSoC5/LCD_1.c ****                     (retMode == LCD_1_REINIT) ||
1523:.\Generated_Source\PSoC5/LCD_1.c ****                     (retMode == LCD_1_SEND_WAIT_REINIT) )
1524:.\Generated_Source\PSoC5/LCD_1.c ****                 {
1525:.\Generated_Source\PSoC5/LCD_1.c ****                     LCD_1_WriteControlRegister(LCD_1_ReadControlRegister() &
1526:.\Generated_Source\PSoC5/LCD_1.c ****                                                   (uint8)~LCD_1_CTRL_HD_SEND_BREAK);
1527:.\Generated_Source\PSoC5/LCD_1.c ****                 }
1528:.\Generated_Source\PSoC5/LCD_1.c **** 
ARM GAS  C:\Users\RECEPC~1\AppData\Local\Temp\cckZkqXS.s 			page 49


1529:.\Generated_Source\PSoC5/LCD_1.c ****             #else /* LCD_1_HD_ENABLED Full Duplex mode */
1530:.\Generated_Source\PSoC5/LCD_1.c **** 
1531:.\Generated_Source\PSoC5/LCD_1.c ****                 static uint8 tx_period;
1532:.\Generated_Source\PSoC5/LCD_1.c **** 
1533:.\Generated_Source\PSoC5/LCD_1.c ****                 if( (retMode == LCD_1_SEND_BREAK) ||
 1191              		.loc 1 1533 0
 1192 0006 08B1     		cbz	r0, .L120
 1193              		.loc 1 1533 0 is_stmt 0 discriminator 1
 1194 0008 0328     		cmp	r0, #3
 1195 000a 0DD1     		bne	.L121
 1196              	.L120:
1534:.\Generated_Source\PSoC5/LCD_1.c ****                     (retMode == LCD_1_SEND_WAIT_REINIT) )
1535:.\Generated_Source\PSoC5/LCD_1.c ****                 {
1536:.\Generated_Source\PSoC5/LCD_1.c ****                     /* CTRL_HD_SEND_BREAK - skip to send parity bit at Break signal in Full Duplex 
1537:.\Generated_Source\PSoC5/LCD_1.c ****                     #if( (LCD_1_PARITY_TYPE != LCD_1__B_UART__NONE_REVB) || \
1538:.\Generated_Source\PSoC5/LCD_1.c ****                                         (LCD_1_PARITY_TYPE_SW != 0u) )
1539:.\Generated_Source\PSoC5/LCD_1.c ****                         LCD_1_WriteControlRegister(LCD_1_ReadControlRegister() |
1540:.\Generated_Source\PSoC5/LCD_1.c ****                                                               LCD_1_CTRL_HD_SEND_BREAK);
1541:.\Generated_Source\PSoC5/LCD_1.c ****                     #endif /* End LCD_1_PARITY_TYPE != LCD_1__B_UART__NONE_REVB  */
1542:.\Generated_Source\PSoC5/LCD_1.c **** 
1543:.\Generated_Source\PSoC5/LCD_1.c ****                     #if(LCD_1_TXCLKGEN_DP)
1544:.\Generated_Source\PSoC5/LCD_1.c ****                         tx_period = LCD_1_TXBITCLKTX_COMPLETE_REG;
 1197              		.loc 1 1544 0 is_stmt 1
 1198 000c 104B     		ldr	r3, .L125+4
 1199 000e 1978     		ldrb	r1, [r3]	@ zero_extendqisi2
 1200 0010 0E4A     		ldr	r2, .L125
 1201 0012 5171     		strb	r1, [r2, #5]
1545:.\Generated_Source\PSoC5/LCD_1.c ****                         LCD_1_TXBITCLKTX_COMPLETE_REG = LCD_1_TXBITCTR_BREAKBITS;
 1202              		.loc 1 1545 0
 1203 0014 6722     		movs	r2, #103
 1204 0016 1A70     		strb	r2, [r3]
1546:.\Generated_Source\PSoC5/LCD_1.c ****                     #else
1547:.\Generated_Source\PSoC5/LCD_1.c ****                         tx_period = LCD_1_TXBITCTR_PERIOD_REG;
1548:.\Generated_Source\PSoC5/LCD_1.c ****                         LCD_1_TXBITCTR_PERIOD_REG = LCD_1_TXBITCTR_BREAKBITS8X;
1549:.\Generated_Source\PSoC5/LCD_1.c ****                     #endif /* End LCD_1_TXCLKGEN_DP */
1550:.\Generated_Source\PSoC5/LCD_1.c **** 
1551:.\Generated_Source\PSoC5/LCD_1.c ****                     /* Send zeros*/
1552:.\Generated_Source\PSoC5/LCD_1.c ****                     LCD_1_TXDATA_REG = 0u;
 1205              		.loc 1 1552 0
 1206 0018 0022     		movs	r2, #0
 1207 001a 1133     		adds	r3, r3, #17
 1208 001c 1A70     		strb	r2, [r3]
 1209              	.L122:
1553:.\Generated_Source\PSoC5/LCD_1.c **** 
1554:.\Generated_Source\PSoC5/LCD_1.c ****                     do /* wait until transmit starts */
1555:.\Generated_Source\PSoC5/LCD_1.c ****                     {
1556:.\Generated_Source\PSoC5/LCD_1.c ****                         tmpStat = LCD_1_TXSTATUS_REG;
 1210              		.loc 1 1556 0 discriminator 1
 1211 001e 0D4B     		ldr	r3, .L125+8
 1212 0020 1B78     		ldrb	r3, [r3]	@ zero_extendqisi2
 1213              	.LVL96:
1557:.\Generated_Source\PSoC5/LCD_1.c ****                     }while((tmpStat & LCD_1_TX_STS_FIFO_EMPTY) != 0u);
 1214              		.loc 1 1557 0 discriminator 1
 1215 0022 13F0020F 		tst	r3, #2
 1216 0026 FAD1     		bne	.L122
 1217              	.LVL97:
 1218              	.L121:
ARM GAS  C:\Users\RECEPC~1\AppData\Local\Temp\cckZkqXS.s 			page 50


1558:.\Generated_Source\PSoC5/LCD_1.c ****                 }
1559:.\Generated_Source\PSoC5/LCD_1.c **** 
1560:.\Generated_Source\PSoC5/LCD_1.c ****                 if( (retMode == LCD_1_WAIT_FOR_COMPLETE_REINIT) ||
 1219              		.loc 1 1560 0
 1220 0028 0128     		cmp	r0, #1
 1221 002a 01D0     		beq	.L123
 1222              		.loc 1 1560 0 is_stmt 0 discriminator 1
 1223 002c 0328     		cmp	r0, #3
 1224 002e 04D1     		bne	.L124
 1225              	.L123:
1561:.\Generated_Source\PSoC5/LCD_1.c ****                     (retMode == LCD_1_SEND_WAIT_REINIT) )
1562:.\Generated_Source\PSoC5/LCD_1.c ****                 {
1563:.\Generated_Source\PSoC5/LCD_1.c ****                     do /*wait until transmit complete*/
1564:.\Generated_Source\PSoC5/LCD_1.c ****                     {
1565:.\Generated_Source\PSoC5/LCD_1.c ****                         tmpStat = LCD_1_TXSTATUS_REG;
 1226              		.loc 1 1565 0 is_stmt 1 discriminator 1
 1227 0030 084B     		ldr	r3, .L125+8
 1228 0032 1B78     		ldrb	r3, [r3]	@ zero_extendqisi2
 1229              	.LVL98:
1566:.\Generated_Source\PSoC5/LCD_1.c ****                     }while(((uint8)~tmpStat & LCD_1_TX_STS_COMPLETE) != 0u);
 1230              		.loc 1 1566 0 discriminator 1
 1231 0034 13F0010F 		tst	r3, #1
 1232 0038 FAD0     		beq	.L123
 1233              	.LVL99:
 1234              	.L124:
1567:.\Generated_Source\PSoC5/LCD_1.c ****                 }
1568:.\Generated_Source\PSoC5/LCD_1.c **** 
1569:.\Generated_Source\PSoC5/LCD_1.c ****                 if( (retMode == LCD_1_WAIT_FOR_COMPLETE_REINIT) ||
1570:.\Generated_Source\PSoC5/LCD_1.c ****                     (retMode == LCD_1_REINIT) ||
 1235              		.loc 1 1570 0
 1236 003a 0138     		subs	r0, r0, #1
 1237              	.LVL100:
 1238 003c C0B2     		uxtb	r0, r0
1569:.\Generated_Source\PSoC5/LCD_1.c ****                     (retMode == LCD_1_REINIT) ||
 1239              		.loc 1 1569 0
 1240 003e 0228     		cmp	r0, #2
 1241 0040 03D8     		bhi	.L118
1571:.\Generated_Source\PSoC5/LCD_1.c ****                     (retMode == LCD_1_SEND_WAIT_REINIT) )
1572:.\Generated_Source\PSoC5/LCD_1.c ****                 {
1573:.\Generated_Source\PSoC5/LCD_1.c **** 
1574:.\Generated_Source\PSoC5/LCD_1.c ****                     #if(LCD_1_TXCLKGEN_DP)
1575:.\Generated_Source\PSoC5/LCD_1.c ****                         LCD_1_TXBITCLKTX_COMPLETE_REG = tx_period;
 1242              		.loc 1 1575 0
 1243 0042 024B     		ldr	r3, .L125
 1244 0044 5A79     		ldrb	r2, [r3, #5]	@ zero_extendqisi2
 1245 0046 024B     		ldr	r3, .L125+4
 1246 0048 1A70     		strb	r2, [r3]
 1247              	.L118:
 1248 004a 7047     		bx	lr
 1249              	.L126:
 1250              		.align	2
 1251              	.L125:
 1252 004c 00000000 		.word	.LANCHOR0
 1253 0050 34650040 		.word	1073767732
 1254 0054 65650040 		.word	1073767781
 1255              	.LBE2:
 1256              		.cfi_endproc
ARM GAS  C:\Users\RECEPC~1\AppData\Local\Temp\cckZkqXS.s 			page 51


 1257              	.LFE27:
 1258              		.size	LCD_1_SendBreak, .-LCD_1_SendBreak
 1259              		.section	.text.LCD_1_SetTxAddressMode,"ax",%progbits
 1260              		.align	2
 1261              		.global	LCD_1_SetTxAddressMode
 1262              		.thumb
 1263              		.thumb_func
 1264              		.type	LCD_1_SetTxAddressMode, %function
 1265              	LCD_1_SetTxAddressMode:
 1266              	.LFB28:
1576:.\Generated_Source\PSoC5/LCD_1.c ****                     #else
1577:.\Generated_Source\PSoC5/LCD_1.c ****                         LCD_1_TXBITCTR_PERIOD_REG = tx_period;
1578:.\Generated_Source\PSoC5/LCD_1.c ****                     #endif /* End LCD_1_TXCLKGEN_DP */
1579:.\Generated_Source\PSoC5/LCD_1.c **** 
1580:.\Generated_Source\PSoC5/LCD_1.c ****                     #if( (LCD_1_PARITY_TYPE != LCD_1__B_UART__NONE_REVB) || \
1581:.\Generated_Source\PSoC5/LCD_1.c ****                          (LCD_1_PARITY_TYPE_SW != 0u) )
1582:.\Generated_Source\PSoC5/LCD_1.c ****                         LCD_1_WriteControlRegister(LCD_1_ReadControlRegister() &
1583:.\Generated_Source\PSoC5/LCD_1.c ****                                                       (uint8)~LCD_1_CTRL_HD_SEND_BREAK);
1584:.\Generated_Source\PSoC5/LCD_1.c ****                     #endif /* End LCD_1_PARITY_TYPE != NONE */
1585:.\Generated_Source\PSoC5/LCD_1.c ****                 }
1586:.\Generated_Source\PSoC5/LCD_1.c ****             #endif    /* End LCD_1_HD_ENABLED */
1587:.\Generated_Source\PSoC5/LCD_1.c ****         }
1588:.\Generated_Source\PSoC5/LCD_1.c ****     }
1589:.\Generated_Source\PSoC5/LCD_1.c **** 
1590:.\Generated_Source\PSoC5/LCD_1.c **** 
1591:.\Generated_Source\PSoC5/LCD_1.c ****     /*******************************************************************************
1592:.\Generated_Source\PSoC5/LCD_1.c ****     * Function Name: LCD_1_SetTxAddressMode
1593:.\Generated_Source\PSoC5/LCD_1.c ****     ********************************************************************************
1594:.\Generated_Source\PSoC5/LCD_1.c ****     *
1595:.\Generated_Source\PSoC5/LCD_1.c ****     * Summary:
1596:.\Generated_Source\PSoC5/LCD_1.c ****     *  Set the transmit addressing mode
1597:.\Generated_Source\PSoC5/LCD_1.c ****     *
1598:.\Generated_Source\PSoC5/LCD_1.c ****     * Parameters:
1599:.\Generated_Source\PSoC5/LCD_1.c ****     *  addressMode: 0 -> Space
1600:.\Generated_Source\PSoC5/LCD_1.c ****     *               1 -> Mark
1601:.\Generated_Source\PSoC5/LCD_1.c ****     *
1602:.\Generated_Source\PSoC5/LCD_1.c ****     * Return:
1603:.\Generated_Source\PSoC5/LCD_1.c ****     *  None.
1604:.\Generated_Source\PSoC5/LCD_1.c ****     *
1605:.\Generated_Source\PSoC5/LCD_1.c ****     *******************************************************************************/
1606:.\Generated_Source\PSoC5/LCD_1.c ****     void LCD_1_SetTxAddressMode(uint8 addressMode) 
1607:.\Generated_Source\PSoC5/LCD_1.c ****     {
 1267              		.loc 1 1607 0
 1268              		.cfi_startproc
 1269              		@ args = 0, pretend = 0, frame = 0
 1270              		@ frame_needed = 0, uses_anonymous_args = 0
 1271              		@ link register save eliminated.
 1272              	.LVL101:
 1273 0000 7047     		bx	lr
 1274              		.cfi_endproc
 1275              	.LFE28:
 1276              		.size	LCD_1_SetTxAddressMode, .-LCD_1_SetTxAddressMode
 1277              		.global	LCD_1_rxBufferOverflow
 1278              		.global	LCD_1_rxBufferLoopDetect
 1279              		.global	LCD_1_rxBufferWrite
 1280              		.global	LCD_1_rxBufferRead
 1281              		.comm	LCD_1_rxBuffer,20,4
ARM GAS  C:\Users\RECEPC~1\AppData\Local\Temp\cckZkqXS.s 			page 52


 1282              		.global	LCD_1_initVar
 1283 0002 00BF     		.bss
 1284              		.set	.LANCHOR0,. + 0
 1285              		.type	LCD_1_initVar, %object
 1286              		.size	LCD_1_initVar, 1
 1287              	LCD_1_initVar:
 1288 0000 00       		.space	1
 1289              		.type	LCD_1_rxBufferRead, %object
 1290              		.size	LCD_1_rxBufferRead, 1
 1291              	LCD_1_rxBufferRead:
 1292 0001 00       		.space	1
 1293              		.type	LCD_1_rxBufferWrite, %object
 1294              		.size	LCD_1_rxBufferWrite, 1
 1295              	LCD_1_rxBufferWrite:
 1296 0002 00       		.space	1
 1297              		.type	LCD_1_rxBufferLoopDetect, %object
 1298              		.size	LCD_1_rxBufferLoopDetect, 1
 1299              	LCD_1_rxBufferLoopDetect:
 1300 0003 00       		.space	1
 1301              		.type	LCD_1_rxBufferOverflow, %object
 1302              		.size	LCD_1_rxBufferOverflow, 1
 1303              	LCD_1_rxBufferOverflow:
 1304 0004 00       		.space	1
 1305              		.type	tx_period.5016, %object
 1306              		.size	tx_period.5016, 1
 1307              	tx_period.5016:
 1308 0005 00       		.space	1
 1309              		.text
 1310              	.Letext0:
 1311              		.file 2 ".\\Generated_Source\\PSoC5\\cytypes.h"
 1312              		.file 3 ".\\Generated_Source\\PSoC5\\CyLib.h"
 1313              		.file 4 ".\\Generated_Source\\PSoC5\\LCD_1_IntClock.h"
 1314              		.section	.debug_info,"",%progbits
 1315              	.Ldebug_info0:
 1316 0000 AE070000 		.4byte	0x7ae
 1317 0004 0400     		.2byte	0x4
 1318 0006 00000000 		.4byte	.Ldebug_abbrev0
 1319 000a 04       		.byte	0x4
 1320 000b 01       		.uleb128 0x1
 1321 000c 9D040000 		.4byte	.LASF77
 1322 0010 01       		.byte	0x1
 1323 0011 98030000 		.4byte	.LASF78
 1324 0015 73020000 		.4byte	.LASF79
 1325 0019 00000000 		.4byte	.Ldebug_ranges0+0
 1326 001d 00000000 		.4byte	0
 1327 0021 00000000 		.4byte	.Ldebug_line0
 1328 0025 02       		.uleb128 0x2
 1329 0026 01       		.byte	0x1
 1330 0027 06       		.byte	0x6
 1331 0028 B6000000 		.4byte	.LASF0
 1332 002c 02       		.uleb128 0x2
 1333 002d 01       		.byte	0x1
 1334 002e 08       		.byte	0x8
 1335 002f 4B030000 		.4byte	.LASF1
 1336 0033 02       		.uleb128 0x2
 1337 0034 02       		.byte	0x2
 1338 0035 05       		.byte	0x5
ARM GAS  C:\Users\RECEPC~1\AppData\Local\Temp\cckZkqXS.s 			page 53


 1339 0036 72030000 		.4byte	.LASF2
 1340 003a 02       		.uleb128 0x2
 1341 003b 02       		.byte	0x2
 1342 003c 07       		.byte	0x7
 1343 003d F6010000 		.4byte	.LASF3
 1344 0041 02       		.uleb128 0x2
 1345 0042 04       		.byte	0x4
 1346 0043 05       		.byte	0x5
 1347 0044 EA000000 		.4byte	.LASF4
 1348 0048 02       		.uleb128 0x2
 1349 0049 04       		.byte	0x4
 1350 004a 07       		.byte	0x7
 1351 004b B5010000 		.4byte	.LASF5
 1352 004f 02       		.uleb128 0x2
 1353 0050 08       		.byte	0x8
 1354 0051 05       		.byte	0x5
 1355 0052 A8000000 		.4byte	.LASF6
 1356 0056 02       		.uleb128 0x2
 1357 0057 08       		.byte	0x8
 1358 0058 07       		.byte	0x7
 1359 0059 78000000 		.4byte	.LASF7
 1360 005d 03       		.uleb128 0x3
 1361 005e 04       		.byte	0x4
 1362 005f 05       		.byte	0x5
 1363 0060 696E7400 		.ascii	"int\000"
 1364 0064 02       		.uleb128 0x2
 1365 0065 04       		.byte	0x4
 1366 0066 07       		.byte	0x7
 1367 0067 93010000 		.4byte	.LASF8
 1368 006b 04       		.uleb128 0x4
 1369 006c 07010000 		.4byte	.LASF9
 1370 0070 02       		.byte	0x2
 1371 0071 3801     		.2byte	0x138
 1372 0073 2C000000 		.4byte	0x2c
 1373 0077 04       		.uleb128 0x4
 1374 0078 00000000 		.4byte	.LASF10
 1375 007c 02       		.byte	0x2
 1376 007d 3901     		.2byte	0x139
 1377 007f 3A000000 		.4byte	0x3a
 1378 0083 04       		.uleb128 0x4
 1379 0084 61010000 		.4byte	.LASF11
 1380 0088 02       		.byte	0x2
 1381 0089 3A01     		.2byte	0x13a
 1382 008b 48000000 		.4byte	0x48
 1383 008f 02       		.uleb128 0x2
 1384 0090 04       		.byte	0x4
 1385 0091 04       		.byte	0x4
 1386 0092 EA020000 		.4byte	.LASF12
 1387 0096 02       		.uleb128 0x2
 1388 0097 08       		.byte	0x8
 1389 0098 04       		.byte	0x4
 1390 0099 20010000 		.4byte	.LASF13
 1391 009d 04       		.uleb128 0x4
 1392 009e 13040000 		.4byte	.LASF14
 1393 00a2 02       		.byte	0x2
 1394 00a3 4901     		.2byte	0x149
 1395 00a5 A9000000 		.4byte	0xa9
ARM GAS  C:\Users\RECEPC~1\AppData\Local\Temp\cckZkqXS.s 			page 54


 1396 00a9 02       		.uleb128 0x2
 1397 00aa 01       		.byte	0x1
 1398 00ab 08       		.byte	0x8
 1399 00ac E5030000 		.4byte	.LASF15
 1400 00b0 04       		.uleb128 0x4
 1401 00b1 46030000 		.4byte	.LASF16
 1402 00b5 02       		.byte	0x2
 1403 00b6 E201     		.2byte	0x1e2
 1404 00b8 BC000000 		.4byte	0xbc
 1405 00bc 05       		.uleb128 0x5
 1406 00bd 6B000000 		.4byte	0x6b
 1407 00c1 04       		.uleb128 0x4
 1408 00c2 45020000 		.4byte	.LASF17
 1409 00c6 02       		.byte	0x2
 1410 00c7 E401     		.2byte	0x1e4
 1411 00c9 CD000000 		.4byte	0xcd
 1412 00cd 05       		.uleb128 0x5
 1413 00ce 83000000 		.4byte	0x83
 1414 00d2 04       		.uleb128 0x4
 1415 00d3 EA030000 		.4byte	.LASF18
 1416 00d7 02       		.byte	0x2
 1417 00d8 F401     		.2byte	0x1f4
 1418 00da DE000000 		.4byte	0xde
 1419 00de 06       		.uleb128 0x6
 1420 00df 04       		.byte	0x4
 1421 00e0 E4000000 		.4byte	0xe4
 1422 00e4 07       		.uleb128 0x7
 1423 00e5 02       		.uleb128 0x2
 1424 00e6 04       		.byte	0x4
 1425 00e7 07       		.byte	0x7
 1426 00e8 53020000 		.4byte	.LASF19
 1427 00ec 08       		.uleb128 0x8
 1428 00ed 7A040000 		.4byte	.LASF20
 1429 00f1 01       		.byte	0x1
 1430 00f2 65       		.byte	0x65
 1431 00f3 00000000 		.4byte	.LFB1
 1432 00f7 3C000000 		.4byte	.LFE1-.LFB1
 1433 00fb 01       		.uleb128 0x1
 1434 00fc 9C       		.byte	0x9c
 1435 00fd 29010000 		.4byte	0x129
 1436 0101 09       		.uleb128 0x9
 1437 0102 0A000000 		.4byte	.LVL0
 1438 0106 57070000 		.4byte	0x757
 1439 010a 14010000 		.4byte	0x114
 1440 010e 0A       		.uleb128 0xa
 1441 010f 01       		.uleb128 0x1
 1442 0110 50       		.byte	0x50
 1443 0111 01       		.uleb128 0x1
 1444 0112 31       		.byte	0x31
 1445 0113 00       		.byte	0
 1446 0114 0B       		.uleb128 0xb
 1447 0115 12000000 		.4byte	.LVL1
 1448 0119 71070000 		.4byte	0x771
 1449 011d 0A       		.uleb128 0xa
 1450 011e 01       		.uleb128 0x1
 1451 011f 51       		.byte	0x51
 1452 0120 01       		.uleb128 0x1
ARM GAS  C:\Users\RECEPC~1\AppData\Local\Temp\cckZkqXS.s 			page 55


 1453 0121 37       		.byte	0x37
 1454 0122 0A       		.uleb128 0xa
 1455 0123 01       		.uleb128 0x1
 1456 0124 50       		.byte	0x50
 1457 0125 01       		.uleb128 0x1
 1458 0126 31       		.byte	0x31
 1459 0127 00       		.byte	0
 1460 0128 00       		.byte	0
 1461 0129 08       		.uleb128 0x8
 1462 012a 06040000 		.4byte	.LASF21
 1463 012e 01       		.byte	0x1
 1464 012f AE       		.byte	0xae
 1465 0130 00000000 		.4byte	.LFB2
 1466 0134 44000000 		.4byte	.LFE2-.LFB2
 1467 0138 01       		.uleb128 0x1
 1468 0139 9C       		.byte	0x9c
 1469 013a 70010000 		.4byte	0x170
 1470 013e 0C       		.uleb128 0xc
 1471 013f 85040000 		.4byte	.LASF27
 1472 0143 01       		.byte	0x1
 1473 0144 B0       		.byte	0xb0
 1474 0145 6B000000 		.4byte	0x6b
 1475 0149 00000000 		.4byte	.LLST0
 1476 014d 0D       		.uleb128 0xd
 1477 014e 06000000 		.4byte	.LVL2
 1478 0152 87070000 		.4byte	0x787
 1479 0156 0D       		.uleb128 0xd
 1480 0157 30000000 		.4byte	.LVL4
 1481 015b 92070000 		.4byte	0x792
 1482 015f 0B       		.uleb128 0xb
 1483 0160 36000000 		.4byte	.LVL5
 1484 0164 99070000 		.4byte	0x799
 1485 0168 0A       		.uleb128 0xa
 1486 0169 01       		.uleb128 0x1
 1487 016a 50       		.byte	0x50
 1488 016b 02       		.uleb128 0x2
 1489 016c 74       		.byte	0x74
 1490 016d 00       		.sleb128 0
 1491 016e 00       		.byte	0
 1492 016f 00       		.byte	0
 1493 0170 08       		.uleb128 0x8
 1494 0171 3A030000 		.4byte	.LASF22
 1495 0175 01       		.byte	0x1
 1496 0176 49       		.byte	0x49
 1497 0177 00000000 		.4byte	.LFB0
 1498 017b 1C000000 		.4byte	.LFE0-.LFB0
 1499 017f 01       		.uleb128 0x1
 1500 0180 9C       		.byte	0x9c
 1501 0181 98010000 		.4byte	0x198
 1502 0185 0D       		.uleb128 0xd
 1503 0186 0C000000 		.4byte	.LVL7
 1504 018a EC000000 		.4byte	0xec
 1505 018e 0D       		.uleb128 0xd
 1506 018f 16000000 		.4byte	.LVL8
 1507 0193 29010000 		.4byte	0x129
 1508 0197 00       		.byte	0
 1509 0198 0E       		.uleb128 0xe
ARM GAS  C:\Users\RECEPC~1\AppData\Local\Temp\cckZkqXS.s 			page 56


 1510 0199 49000000 		.4byte	.LASF51
 1511 019d 01       		.byte	0x1
 1512 019e 1901     		.2byte	0x119
 1513 01a0 6B000000 		.4byte	0x6b
 1514 01a4 00000000 		.4byte	.LFB4
 1515 01a8 04000000 		.4byte	.LFE4-.LFB4
 1516 01ac 01       		.uleb128 0x1
 1517 01ad 9C       		.byte	0x9c
 1518 01ae 0F       		.uleb128 0xf
 1519 01af 70010000 		.4byte	.LASF23
 1520 01b3 01       		.byte	0x1
 1521 01b4 3101     		.2byte	0x131
 1522 01b6 00000000 		.4byte	.LFB5
 1523 01ba 02000000 		.4byte	.LFE5-.LFB5
 1524 01be 01       		.uleb128 0x1
 1525 01bf 9C       		.byte	0x9c
 1526 01c0 D3010000 		.4byte	0x1d3
 1527 01c4 10       		.uleb128 0x10
 1528 01c5 68010000 		.4byte	.LASF29
 1529 01c9 01       		.byte	0x1
 1530 01ca 3101     		.2byte	0x131
 1531 01cc 6B000000 		.4byte	0x6b
 1532 01d0 01       		.uleb128 0x1
 1533 01d1 50       		.byte	0x50
 1534 01d2 00       		.byte	0
 1535 01d3 11       		.uleb128 0x11
 1536 01d4 3F050000 		.4byte	.LASF24
 1537 01d8 01       		.byte	0x1
 1538 01d9 5001     		.2byte	0x150
 1539 01db 00000000 		.4byte	.LFB6
 1540 01df 0C000000 		.4byte	.LFE6-.LFB6
 1541 01e3 01       		.uleb128 0x1
 1542 01e4 9C       		.byte	0x9c
 1543 01e5 11       		.uleb128 0x11
 1544 01e6 DE010000 		.4byte	.LASF25
 1545 01ea 01       		.byte	0x1
 1546 01eb 6701     		.2byte	0x167
 1547 01ed 00000000 		.4byte	.LFB7
 1548 01f1 0C000000 		.4byte	.LFE7-.LFB7
 1549 01f5 01       		.uleb128 0x1
 1550 01f6 9C       		.byte	0x9c
 1551 01f7 08       		.uleb128 0x8
 1552 01f8 3A020000 		.4byte	.LASF26
 1553 01fc 01       		.byte	0x1
 1554 01fd E3       		.byte	0xe3
 1555 01fe 00000000 		.4byte	.LFB3
 1556 0202 44000000 		.4byte	.LFE3-.LFB3
 1557 0206 01       		.uleb128 0x1
 1558 0207 9C       		.byte	0x9c
 1559 0208 47020000 		.4byte	0x247
 1560 020c 0C       		.uleb128 0xc
 1561 020d 85040000 		.4byte	.LASF27
 1562 0211 01       		.byte	0x1
 1563 0212 E5       		.byte	0xe5
 1564 0213 6B000000 		.4byte	0x6b
 1565 0217 13000000 		.4byte	.LLST1
 1566 021b 0D       		.uleb128 0xd
ARM GAS  C:\Users\RECEPC~1\AppData\Local\Temp\cckZkqXS.s 			page 57


 1567 021c 06000000 		.4byte	.LVL10
 1568 0220 87070000 		.4byte	0x787
 1569 0224 0D       		.uleb128 0xd
 1570 0225 16000000 		.4byte	.LVL12
 1571 0229 AA070000 		.4byte	0x7aa
 1572 022d 0D       		.uleb128 0xd
 1573 022e 24000000 		.4byte	.LVL13
 1574 0232 E5010000 		.4byte	0x1e5
 1575 0236 0B       		.uleb128 0xb
 1576 0237 34000000 		.4byte	.LVL14
 1577 023b 99070000 		.4byte	0x799
 1578 023f 0A       		.uleb128 0xa
 1579 0240 01       		.uleb128 0x1
 1580 0241 50       		.byte	0x50
 1581 0242 02       		.uleb128 0x2
 1582 0243 74       		.byte	0x74
 1583 0244 00       		.sleb128 0
 1584 0245 00       		.byte	0
 1585 0246 00       		.byte	0
 1586 0247 0F       		.uleb128 0xf
 1587 0248 8F000000 		.4byte	.LASF28
 1588 024c 01       		.byte	0x1
 1589 024d 8101     		.2byte	0x181
 1590 024f 00000000 		.4byte	.LFB8
 1591 0253 0C000000 		.4byte	.LFE8-.LFB8
 1592 0257 01       		.uleb128 0x1
 1593 0258 9C       		.byte	0x9c
 1594 0259 6C020000 		.4byte	0x26c
 1595 025d 10       		.uleb128 0x10
 1596 025e 33020000 		.4byte	.LASF30
 1597 0262 01       		.byte	0x1
 1598 0263 8101     		.2byte	0x181
 1599 0265 6B000000 		.4byte	0x6b
 1600 0269 01       		.uleb128 0x1
 1601 026a 50       		.byte	0x50
 1602 026b 00       		.byte	0
 1603 026c 12       		.uleb128 0x12
 1604 026d 69040000 		.4byte	.LASF34
 1605 0271 01       		.byte	0x1
 1606 0272 A201     		.2byte	0x1a2
 1607 0274 6B000000 		.4byte	0x6b
 1608 0278 00000000 		.4byte	.LFB9
 1609 027c 5C000000 		.4byte	.LFE9-.LFB9
 1610 0280 01       		.uleb128 0x1
 1611 0281 9C       		.byte	0x9c
 1612 0282 C9020000 		.4byte	0x2c9
 1613 0286 13       		.uleb128 0x13
 1614 0287 B9030000 		.4byte	.LASF31
 1615 028b 01       		.byte	0x1
 1616 028c A401     		.2byte	0x1a4
 1617 028e 6B000000 		.4byte	0x6b
 1618 0292 26000000 		.4byte	.LLST2
 1619 0296 13       		.uleb128 0x13
 1620 0297 18020000 		.4byte	.LASF32
 1621 029b 01       		.byte	0x1
 1622 029c A701     		.2byte	0x1a7
 1623 029e 6B000000 		.4byte	0x6b
ARM GAS  C:\Users\RECEPC~1\AppData\Local\Temp\cckZkqXS.s 			page 58


 1624 02a2 44000000 		.4byte	.LLST3
 1625 02a6 13       		.uleb128 0x13
 1626 02a7 16000000 		.4byte	.LASF33
 1627 02ab 01       		.byte	0x1
 1628 02ac A801     		.2byte	0x1a8
 1629 02ae 6B000000 		.4byte	0x6b
 1630 02b2 89000000 		.4byte	.LLST4
 1631 02b6 0D       		.uleb128 0xd
 1632 02b7 06000000 		.4byte	.LVL17
 1633 02bb E5010000 		.4byte	0x1e5
 1634 02bf 0D       		.uleb128 0xd
 1635 02c0 4A000000 		.4byte	.LVL29
 1636 02c4 D3010000 		.4byte	0x1d3
 1637 02c8 00       		.byte	0
 1638 02c9 12       		.uleb128 0x12
 1639 02ca 0D010000 		.4byte	.LASF35
 1640 02ce 01       		.byte	0x1
 1641 02cf FD01     		.2byte	0x1fd
 1642 02d1 6B000000 		.4byte	0x6b
 1643 02d5 00000000 		.4byte	.LFB10
 1644 02d9 28000000 		.4byte	.LFE10-.LFB10
 1645 02dd 01       		.uleb128 0x1
 1646 02de 9C       		.byte	0x9c
 1647 02df F2020000 		.4byte	0x2f2
 1648 02e3 14       		.uleb128 0x14
 1649 02e4 96040000 		.4byte	.LASF36
 1650 02e8 01       		.byte	0x1
 1651 02e9 FF01     		.2byte	0x1ff
 1652 02eb 6B000000 		.4byte	0x6b
 1653 02ef 01       		.uleb128 0x1
 1654 02f0 50       		.byte	0x50
 1655 02f1 00       		.byte	0
 1656 02f2 12       		.uleb128 0x12
 1657 02f3 5C020000 		.4byte	.LASF37
 1658 02f7 01       		.byte	0x1
 1659 02f8 2C02     		.2byte	0x22c
 1660 02fa 6B000000 		.4byte	0x6b
 1661 02fe 00000000 		.4byte	.LFB11
 1662 0302 78000000 		.4byte	.LFE11-.LFB11
 1663 0306 01       		.uleb128 0x1
 1664 0307 9C       		.byte	0x9c
 1665 0308 5F030000 		.4byte	0x35f
 1666 030c 13       		.uleb128 0x13
 1667 030d B9030000 		.4byte	.LASF31
 1668 0311 01       		.byte	0x1
 1669 0312 2E02     		.2byte	0x22e
 1670 0314 6B000000 		.4byte	0x6b
 1671 0318 9C000000 		.4byte	.LLST5
 1672 031c 13       		.uleb128 0x13
 1673 031d 6A020000 		.4byte	.LASF38
 1674 0321 01       		.byte	0x1
 1675 0322 2F02     		.2byte	0x22f
 1676 0324 6B000000 		.4byte	0x6b
 1677 0328 E9000000 		.4byte	.LLST6
 1678 032c 13       		.uleb128 0x13
 1679 032d 18020000 		.4byte	.LASF32
 1680 0331 01       		.byte	0x1
ARM GAS  C:\Users\RECEPC~1\AppData\Local\Temp\cckZkqXS.s 			page 59


 1681 0332 3202     		.2byte	0x232
 1682 0334 6B000000 		.4byte	0x6b
 1683 0338 FC000000 		.4byte	.LLST7
 1684 033c 13       		.uleb128 0x13
 1685 033d 16000000 		.4byte	.LASF33
 1686 0341 01       		.byte	0x1
 1687 0342 3302     		.2byte	0x233
 1688 0344 6B000000 		.4byte	0x6b
 1689 0348 41010000 		.4byte	.LLST8
 1690 034c 0D       		.uleb128 0xd
 1691 034d 06000000 		.4byte	.LVL34
 1692 0351 E5010000 		.4byte	0x1e5
 1693 0355 0D       		.uleb128 0xd
 1694 0356 64000000 		.4byte	.LVL50
 1695 035a D3010000 		.4byte	0x1d3
 1696 035e 00       		.byte	0
 1697 035f 12       		.uleb128 0x12
 1698 0360 63000000 		.4byte	.LASF39
 1699 0364 01       		.byte	0x1
 1700 0365 9202     		.2byte	0x292
 1701 0367 77000000 		.4byte	0x77
 1702 036b 00000000 		.4byte	.LFB12
 1703 036f 12000000 		.4byte	.LFE12-.LFB12
 1704 0373 01       		.uleb128 0x1
 1705 0374 9C       		.byte	0x9c
 1706 0375 8C030000 		.4byte	0x38c
 1707 0379 0D       		.uleb128 0xd
 1708 037a 06000000 		.4byte	.LVL52
 1709 037e C9020000 		.4byte	0x2c9
 1710 0382 0D       		.uleb128 0xd
 1711 0383 0C000000 		.4byte	.LVL53
 1712 0387 6C020000 		.4byte	0x26c
 1713 038b 00       		.byte	0
 1714 038c 12       		.uleb128 0x12
 1715 038d 43040000 		.4byte	.LASF40
 1716 0391 01       		.byte	0x1
 1717 0392 B302     		.2byte	0x2b3
 1718 0394 6B000000 		.4byte	0x6b
 1719 0398 00000000 		.4byte	.LFB13
 1720 039c 54000000 		.4byte	.LFE13-.LFB13
 1721 03a0 01       		.uleb128 0x1
 1722 03a1 9C       		.byte	0x9c
 1723 03a2 C9030000 		.4byte	0x3c9
 1724 03a6 13       		.uleb128 0x13
 1725 03a7 F1010000 		.4byte	.LASF41
 1726 03ab 01       		.byte	0x1
 1727 03ac B602     		.2byte	0x2b6
 1728 03ae 6B000000 		.4byte	0x6b
 1729 03b2 54010000 		.4byte	.LLST9
 1730 03b6 0D       		.uleb128 0xd
 1731 03b7 06000000 		.4byte	.LVL54
 1732 03bb E5010000 		.4byte	0x1e5
 1733 03bf 0D       		.uleb128 0xd
 1734 03c0 4C000000 		.4byte	.LVL60
 1735 03c4 D3010000 		.4byte	0x1d3
 1736 03c8 00       		.byte	0
 1737 03c9 0F       		.uleb128 0xf
ARM GAS  C:\Users\RECEPC~1\AppData\Local\Temp\cckZkqXS.s 			page 60


 1738 03ca B7020000 		.4byte	.LASF42
 1739 03ce 01       		.byte	0x1
 1740 03cf 0303     		.2byte	0x303
 1741 03d1 00000000 		.4byte	.LFB14
 1742 03d5 3C000000 		.4byte	.LFE14-.LFB14
 1743 03d9 01       		.uleb128 0x1
 1744 03da 9C       		.byte	0x9c
 1745 03db 14040000 		.4byte	0x414
 1746 03df 13       		.uleb128 0x13
 1747 03e0 85040000 		.4byte	.LASF27
 1748 03e4 01       		.byte	0x1
 1749 03e5 0503     		.2byte	0x305
 1750 03e7 6B000000 		.4byte	0x6b
 1751 03eb 7D010000 		.4byte	.LLST10
 1752 03ef 0D       		.uleb128 0xd
 1753 03f0 06000000 		.4byte	.LVL62
 1754 03f4 87070000 		.4byte	0x787
 1755 03f8 0D       		.uleb128 0xd
 1756 03f9 1C000000 		.4byte	.LVL63
 1757 03fd 99070000 		.4byte	0x799
 1758 0401 0D       		.uleb128 0xd
 1759 0402 20000000 		.4byte	.LVL64
 1760 0406 E5010000 		.4byte	0x1e5
 1761 040a 0D       		.uleb128 0xd
 1762 040b 30000000 		.4byte	.LVL65
 1763 040f D3010000 		.4byte	0x1d3
 1764 0413 00       		.byte	0
 1765 0414 0F       		.uleb128 0xf
 1766 0415 CE030000 		.4byte	.LASF43
 1767 0419 01       		.byte	0x1
 1768 041a 4003     		.2byte	0x340
 1769 041c 00000000 		.4byte	.LFB15
 1770 0420 02000000 		.4byte	.LFE15-.LFB15
 1771 0424 01       		.uleb128 0x1
 1772 0425 9C       		.byte	0x9c
 1773 0426 39040000 		.4byte	0x439
 1774 042a 10       		.uleb128 0x10
 1775 042b 27010000 		.4byte	.LASF44
 1776 042f 01       		.byte	0x1
 1777 0430 4003     		.2byte	0x340
 1778 0432 6B000000 		.4byte	0x6b
 1779 0436 01       		.uleb128 0x1
 1780 0437 50       		.byte	0x50
 1781 0438 00       		.byte	0
 1782 0439 0F       		.uleb128 0xf
 1783 043a C2000000 		.4byte	.LASF45
 1784 043e 01       		.byte	0x1
 1785 043f 6503     		.2byte	0x365
 1786 0441 00000000 		.4byte	.LFB16
 1787 0445 0C000000 		.4byte	.LFE16-.LFB16
 1788 0449 01       		.uleb128 0x1
 1789 044a 9C       		.byte	0x9c
 1790 044b 5E040000 		.4byte	0x45e
 1791 044f 10       		.uleb128 0x10
 1792 0450 51050000 		.4byte	.LASF46
 1793 0454 01       		.byte	0x1
 1794 0455 6503     		.2byte	0x365
ARM GAS  C:\Users\RECEPC~1\AppData\Local\Temp\cckZkqXS.s 			page 61


 1795 0457 6B000000 		.4byte	0x6b
 1796 045b 01       		.uleb128 0x1
 1797 045c 50       		.byte	0x50
 1798 045d 00       		.byte	0
 1799 045e 0F       		.uleb128 0xf
 1800 045f D6000000 		.4byte	.LASF47
 1801 0463 01       		.byte	0x1
 1802 0464 7A03     		.2byte	0x37a
 1803 0466 00000000 		.4byte	.LFB17
 1804 046a 0C000000 		.4byte	.LFE17-.LFB17
 1805 046e 01       		.uleb128 0x1
 1806 046f 9C       		.byte	0x9c
 1807 0470 83040000 		.4byte	0x483
 1808 0474 10       		.uleb128 0x10
 1809 0475 51050000 		.4byte	.LASF46
 1810 0479 01       		.byte	0x1
 1811 047a 7A03     		.2byte	0x37a
 1812 047c 6B000000 		.4byte	0x6b
 1813 0480 01       		.uleb128 0x1
 1814 0481 50       		.byte	0x50
 1815 0482 00       		.byte	0
 1816 0483 0F       		.uleb128 0xf
 1817 0484 59030000 		.4byte	.LASF48
 1818 0488 01       		.byte	0x1
 1819 0489 C803     		.2byte	0x3c8
 1820 048b 00000000 		.4byte	.LFB18
 1821 048f 0C000000 		.4byte	.LFE18-.LFB18
 1822 0493 01       		.uleb128 0x1
 1823 0494 9C       		.byte	0x9c
 1824 0495 A8040000 		.4byte	0x4a8
 1825 0499 10       		.uleb128 0x10
 1826 049a 33020000 		.4byte	.LASF30
 1827 049e 01       		.byte	0x1
 1828 049f C803     		.2byte	0x3c8
 1829 04a1 6B000000 		.4byte	0x6b
 1830 04a5 01       		.uleb128 0x1
 1831 04a6 50       		.byte	0x50
 1832 04a7 00       		.byte	0
 1833 04a8 0F       		.uleb128 0xf
 1834 04a9 7C030000 		.4byte	.LASF49
 1835 04ad 01       		.byte	0x1
 1836 04ae EA03     		.2byte	0x3ea
 1837 04b0 00000000 		.4byte	.LFB19
 1838 04b4 14000000 		.4byte	.LFE19-.LFB19
 1839 04b8 01       		.uleb128 0x1
 1840 04b9 9C       		.byte	0x9c
 1841 04ba CD040000 		.4byte	0x4cd
 1842 04be 10       		.uleb128 0x10
 1843 04bf 3E000000 		.4byte	.LASF50
 1844 04c3 01       		.byte	0x1
 1845 04c4 EA03     		.2byte	0x3ea
 1846 04c6 6B000000 		.4byte	0x6b
 1847 04ca 01       		.uleb128 0x1
 1848 04cb 50       		.byte	0x50
 1849 04cc 00       		.byte	0
 1850 04cd 0E       		.uleb128 0xe
 1851 04ce 27030000 		.4byte	.LASF52
ARM GAS  C:\Users\RECEPC~1\AppData\Local\Temp\cckZkqXS.s 			page 62


 1852 04d2 01       		.byte	0x1
 1853 04d3 2E04     		.2byte	0x42e
 1854 04d5 6B000000 		.4byte	0x6b
 1855 04d9 00000000 		.4byte	.LFB20
 1856 04dd 0C000000 		.4byte	.LFE20-.LFB20
 1857 04e1 01       		.uleb128 0x1
 1858 04e2 9C       		.byte	0x9c
 1859 04e3 0F       		.uleb128 0xf
 1860 04e4 00030000 		.4byte	.LASF53
 1861 04e8 01       		.byte	0x1
 1862 04e9 5204     		.2byte	0x452
 1863 04eb 00000000 		.4byte	.LFB21
 1864 04ef 18000000 		.4byte	.LFE21-.LFB21
 1865 04f3 01       		.uleb128 0x1
 1866 04f4 9C       		.byte	0x9c
 1867 04f5 08050000 		.4byte	0x508
 1868 04f9 10       		.uleb128 0x10
 1869 04fa 3E000000 		.4byte	.LASF50
 1870 04fe 01       		.byte	0x1
 1871 04ff 5204     		.2byte	0x452
 1872 0501 6B000000 		.4byte	0x6b
 1873 0505 01       		.uleb128 0x1
 1874 0506 50       		.byte	0x50
 1875 0507 00       		.byte	0
 1876 0508 0F       		.uleb128 0xf
 1877 0509 59040000 		.4byte	.LASF54
 1878 050d 01       		.byte	0x1
 1879 050e AE04     		.2byte	0x4ae
 1880 0510 00000000 		.4byte	.LFB22
 1881 0514 24000000 		.4byte	.LFE22-.LFB22
 1882 0518 01       		.uleb128 0x1
 1883 0519 9C       		.byte	0x9c
 1884 051a 48050000 		.4byte	0x548
 1885 051e 15       		.uleb128 0x15
 1886 051f 71000000 		.4byte	.LASF55
 1887 0523 01       		.byte	0x1
 1888 0524 AE04     		.2byte	0x4ae
 1889 0526 48050000 		.4byte	0x548
 1890 052a 90010000 		.4byte	.LLST11
 1891 052e 13       		.uleb128 0x13
 1892 052f 59050000 		.4byte	.LASF56
 1893 0533 01       		.byte	0x1
 1894 0534 B004     		.2byte	0x4b0
 1895 0536 77000000 		.4byte	0x77
 1896 053a D2010000 		.4byte	.LLST12
 1897 053e 0D       		.uleb128 0xd
 1898 053f 0E000000 		.4byte	.LVL75
 1899 0543 E3040000 		.4byte	0x4e3
 1900 0547 00       		.byte	0
 1901 0548 06       		.uleb128 0x6
 1902 0549 04       		.byte	0x4
 1903 054a 4E050000 		.4byte	0x54e
 1904 054e 16       		.uleb128 0x16
 1905 054f 9D000000 		.4byte	0x9d
 1906 0553 0F       		.uleb128 0xf
 1907 0554 F7030000 		.4byte	.LASF57
 1908 0558 01       		.byte	0x1
ARM GAS  C:\Users\RECEPC~1\AppData\Local\Temp\cckZkqXS.s 			page 63


 1909 0559 D404     		.2byte	0x4d4
 1910 055b 00000000 		.4byte	.LFB23
 1911 055f 24000000 		.4byte	.LFE23-.LFB23
 1912 0563 01       		.uleb128 0x1
 1913 0564 9C       		.byte	0x9c
 1914 0565 A3050000 		.4byte	0x5a3
 1915 0569 15       		.uleb128 0x15
 1916 056a 71000000 		.4byte	.LASF55
 1917 056e 01       		.byte	0x1
 1918 056f D404     		.2byte	0x4d4
 1919 0571 A3050000 		.4byte	0x5a3
 1920 0575 13020000 		.4byte	.LLST13
 1921 0579 15       		.uleb128 0x15
 1922 057a 8E030000 		.4byte	.LASF58
 1923 057e 01       		.byte	0x1
 1924 057f D404     		.2byte	0x4d4
 1925 0581 6B000000 		.4byte	0x6b
 1926 0585 3C020000 		.4byte	.LLST14
 1927 0589 13       		.uleb128 0x13
 1928 058a 59050000 		.4byte	.LASF56
 1929 058e 01       		.byte	0x1
 1930 058f D704     		.2byte	0x4d7
 1931 0591 6B000000 		.4byte	0x6b
 1932 0595 68020000 		.4byte	.LLST15
 1933 0599 0D       		.uleb128 0xd
 1934 059a 14000000 		.4byte	.LVL83
 1935 059e E3040000 		.4byte	0x4e3
 1936 05a2 00       		.byte	0
 1937 05a3 06       		.uleb128 0x6
 1938 05a4 04       		.byte	0x4
 1939 05a5 A9050000 		.4byte	0x5a9
 1940 05a9 16       		.uleb128 0x16
 1941 05aa 6B000000 		.4byte	0x6b
 1942 05ae 0F       		.uleb128 0xf
 1943 05af C0030000 		.4byte	.LASF59
 1944 05b3 01       		.byte	0x1
 1945 05b4 F904     		.2byte	0x4f9
 1946 05b6 00000000 		.4byte	.LFB24
 1947 05ba 20000000 		.4byte	.LFE24-.LFB24
 1948 05be 01       		.uleb128 0x1
 1949 05bf 9C       		.byte	0x9c
 1950 05c0 00060000 		.4byte	0x600
 1951 05c4 15       		.uleb128 0x15
 1952 05c5 3E000000 		.4byte	.LASF50
 1953 05c9 01       		.byte	0x1
 1954 05ca F904     		.2byte	0x4f9
 1955 05cc 6B000000 		.4byte	0x6b
 1956 05d0 9E020000 		.4byte	.LLST16
 1957 05d4 0D       		.uleb128 0xd
 1958 05d5 0C000000 		.4byte	.LVL88
 1959 05d9 E3040000 		.4byte	0x4e3
 1960 05dd 09       		.uleb128 0x9
 1961 05de 12000000 		.4byte	.LVL89
 1962 05e2 E3040000 		.4byte	0x4e3
 1963 05e6 F0050000 		.4byte	0x5f0
 1964 05ea 0A       		.uleb128 0xa
 1965 05eb 01       		.uleb128 0x1
ARM GAS  C:\Users\RECEPC~1\AppData\Local\Temp\cckZkqXS.s 			page 64


 1966 05ec 50       		.byte	0x50
 1967 05ed 01       		.uleb128 0x1
 1968 05ee 3D       		.byte	0x3d
 1969 05ef 00       		.byte	0
 1970 05f0 0B       		.uleb128 0xb
 1971 05f1 18000000 		.4byte	.LVL90
 1972 05f5 E3040000 		.4byte	0x4e3
 1973 05f9 0A       		.uleb128 0xa
 1974 05fa 01       		.uleb128 0x1
 1975 05fb 50       		.byte	0x50
 1976 05fc 01       		.uleb128 0x1
 1977 05fd 3A       		.byte	0x3a
 1978 05fe 00       		.byte	0
 1979 05ff 00       		.byte	0
 1980 0600 12       		.uleb128 0x12
 1981 0601 19040000 		.4byte	.LASF60
 1982 0605 01       		.byte	0x1
 1983 0606 1E05     		.2byte	0x51e
 1984 0608 6B000000 		.4byte	0x6b
 1985 060c 00000000 		.4byte	.LFB25
 1986 0610 24000000 		.4byte	.LFE25-.LFB25
 1987 0614 01       		.uleb128 0x1
 1988 0615 9C       		.byte	0x9c
 1989 0616 2B060000 		.4byte	0x62b
 1990 061a 13       		.uleb128 0x13
 1991 061b F1010000 		.4byte	.LASF41
 1992 061f 01       		.byte	0x1
 1993 0620 2105     		.2byte	0x521
 1994 0622 6B000000 		.4byte	0x6b
 1995 0626 BF020000 		.4byte	.LLST17
 1996 062a 00       		.byte	0
 1997 062b 0F       		.uleb128 0xf
 1998 062c 2F040000 		.4byte	.LASF61
 1999 0630 01       		.byte	0x1
 2000 0631 7405     		.2byte	0x574
 2001 0633 00000000 		.4byte	.LFB26
 2002 0637 24000000 		.4byte	.LFE26-.LFB26
 2003 063b 01       		.uleb128 0x1
 2004 063c 9C       		.byte	0x9c
 2005 063d 64060000 		.4byte	0x664
 2006 0641 13       		.uleb128 0x13
 2007 0642 85040000 		.4byte	.LASF27
 2008 0646 01       		.byte	0x1
 2009 0647 7605     		.2byte	0x576
 2010 0649 6B000000 		.4byte	0x6b
 2011 064d DD020000 		.4byte	.LLST18
 2012 0651 0D       		.uleb128 0xd
 2013 0652 06000000 		.4byte	.LVL93
 2014 0656 87070000 		.4byte	0x787
 2015 065a 0D       		.uleb128 0xd
 2016 065b 1C000000 		.4byte	.LVL94
 2017 065f 99070000 		.4byte	0x799
 2018 0663 00       		.byte	0
 2019 0664 0F       		.uleb128 0xf
 2020 0665 F0020000 		.4byte	.LASF62
 2021 0669 01       		.byte	0x1
 2022 066a CD05     		.2byte	0x5cd
ARM GAS  C:\Users\RECEPC~1\AppData\Local\Temp\cckZkqXS.s 			page 65


 2023 066c 00000000 		.4byte	.LFB27
 2024 0670 58000000 		.4byte	.LFE27-.LFB27
 2025 0674 01       		.uleb128 0x1
 2026 0675 9C       		.byte	0x9c
 2027 0676 B7060000 		.4byte	0x6b7
 2028 067a 15       		.uleb128 0x15
 2029 067b 8B010000 		.4byte	.LASF63
 2030 067f 01       		.byte	0x1
 2031 0680 CD05     		.2byte	0x5cd
 2032 0682 6B000000 		.4byte	0x6b
 2033 0686 F0020000 		.4byte	.LLST19
 2034 068a 17       		.uleb128 0x17
 2035 068b 06000000 		.4byte	.LBB2
 2036 068f 52000000 		.4byte	.LBE2-.LBB2
 2037 0693 13       		.uleb128 0x13
 2038 0694 4B020000 		.4byte	.LASF64
 2039 0698 01       		.byte	0x1
 2040 0699 D505     		.2byte	0x5d5
 2041 069b 6B000000 		.4byte	0x6b
 2042 069f 11030000 		.4byte	.LLST20
 2043 06a3 14       		.uleb128 0x14
 2044 06a4 29020000 		.4byte	.LASF65
 2045 06a8 01       		.byte	0x1
 2046 06a9 FB05     		.2byte	0x5fb
 2047 06ab 6B000000 		.4byte	0x6b
 2048 06af 05       		.uleb128 0x5
 2049 06b0 03       		.byte	0x3
 2050 06b1 05000000 		.4byte	tx_period.5016
 2051 06b5 00       		.byte	0
 2052 06b6 00       		.byte	0
 2053 06b7 0F       		.uleb128 0xf
 2054 06b8 4A010000 		.4byte	.LASF66
 2055 06bc 01       		.byte	0x1
 2056 06bd 4606     		.2byte	0x646
 2057 06bf 00000000 		.4byte	.LFB28
 2058 06c3 02000000 		.4byte	.LFE28-.LFB28
 2059 06c7 01       		.uleb128 0x1
 2060 06c8 9C       		.byte	0x9c
 2061 06c9 DC060000 		.4byte	0x6dc
 2062 06cd 10       		.uleb128 0x10
 2063 06ce 27010000 		.4byte	.LASF44
 2064 06d2 01       		.byte	0x1
 2065 06d3 4606     		.2byte	0x646
 2066 06d5 6B000000 		.4byte	0x6b
 2067 06d9 01       		.uleb128 0x1
 2068 06da 50       		.byte	0x50
 2069 06db 00       		.byte	0
 2070 06dc 18       		.uleb128 0x18
 2071 06dd CB020000 		.4byte	.LASF67
 2072 06e1 01       		.byte	0x1
 2073 06e2 1C       		.byte	0x1c
 2074 06e3 6B000000 		.4byte	0x6b
 2075 06e7 05       		.uleb128 0x5
 2076 06e8 03       		.byte	0x3
 2077 06e9 00000000 		.4byte	LCD_1_initVar
 2078 06ed 19       		.uleb128 0x19
 2079 06ee 6B000000 		.4byte	0x6b
ARM GAS  C:\Users\RECEPC~1\AppData\Local\Temp\cckZkqXS.s 			page 66


 2080 06f2 FD060000 		.4byte	0x6fd
 2081 06f6 1A       		.uleb128 0x1a
 2082 06f7 E5000000 		.4byte	0xe5
 2083 06fb 13       		.byte	0x13
 2084 06fc 00       		.byte	0
 2085 06fd 18       		.uleb128 0x18
 2086 06fe 07000000 		.4byte	.LASF68
 2087 0702 01       		.byte	0x1
 2088 0703 24       		.byte	0x24
 2089 0704 0E070000 		.4byte	0x70e
 2090 0708 05       		.uleb128 0x5
 2091 0709 03       		.byte	0x3
 2092 070a 00000000 		.4byte	LCD_1_rxBuffer
 2093 070e 05       		.uleb128 0x5
 2094 070f ED060000 		.4byte	0x6ed
 2095 0713 18       		.uleb128 0x18
 2096 0714 63050000 		.4byte	.LASF69
 2097 0718 01       		.byte	0x1
 2098 0719 25       		.byte	0x25
 2099 071a BC000000 		.4byte	0xbc
 2100 071e 05       		.uleb128 0x5
 2101 071f 03       		.byte	0x3
 2102 0720 00000000 		.4byte	LCD_1_rxBufferRead
 2103 0724 18       		.uleb128 0x18
 2104 0725 2B050000 		.4byte	.LASF70
 2105 0729 01       		.byte	0x1
 2106 072a 26       		.byte	0x26
 2107 072b BC000000 		.4byte	0xbc
 2108 072f 05       		.uleb128 0x5
 2109 0730 03       		.byte	0x3
 2110 0731 00000000 		.4byte	LCD_1_rxBufferWrite
 2111 0735 18       		.uleb128 0x18
 2112 0736 0E030000 		.4byte	.LASF71
 2113 073a 01       		.byte	0x1
 2114 073b 27       		.byte	0x27
 2115 073c BC000000 		.4byte	0xbc
 2116 0740 05       		.uleb128 0x5
 2117 0741 03       		.byte	0x3
 2118 0742 00000000 		.4byte	LCD_1_rxBufferLoopDetect
 2119 0746 18       		.uleb128 0x18
 2120 0747 33010000 		.4byte	.LASF72
 2121 074b 01       		.byte	0x1
 2122 074c 28       		.byte	0x28
 2123 074d BC000000 		.4byte	0xbc
 2124 0751 05       		.uleb128 0x5
 2125 0752 03       		.byte	0x3
 2126 0753 00000000 		.4byte	LCD_1_rxBufferOverflow
 2127 0757 1B       		.uleb128 0x1b
 2128 0758 09020000 		.4byte	.LASF80
 2129 075c 03       		.byte	0x3
 2130 075d 89       		.byte	0x89
 2131 075e D2000000 		.4byte	0xd2
 2132 0762 71070000 		.4byte	0x771
 2133 0766 1C       		.uleb128 0x1c
 2134 0767 6B000000 		.4byte	0x6b
 2135 076b 1C       		.uleb128 0x1c
 2136 076c D2000000 		.4byte	0xd2
ARM GAS  C:\Users\RECEPC~1\AppData\Local\Temp\cckZkqXS.s 			page 67


 2137 0770 00       		.byte	0
 2138 0771 1D       		.uleb128 0x1d
 2139 0772 D9020000 		.4byte	.LASF73
 2140 0776 03       		.byte	0x3
 2141 0777 8C       		.byte	0x8c
 2142 0778 87070000 		.4byte	0x787
 2143 077c 1C       		.uleb128 0x1c
 2144 077d 6B000000 		.4byte	0x6b
 2145 0781 1C       		.uleb128 0x1c
 2146 0782 6B000000 		.4byte	0x6b
 2147 0786 00       		.byte	0
 2148 0787 1E       		.uleb128 0x1e
 2149 0788 C7010000 		.4byte	.LASF81
 2150 078c 03       		.byte	0x3
 2151 078d 7E       		.byte	0x7e
 2152 078e 6B000000 		.4byte	0x6b
 2153 0792 1F       		.uleb128 0x1f
 2154 0793 A0010000 		.4byte	.LASF75
 2155 0797 04       		.byte	0x4
 2156 0798 27       		.byte	0x27
 2157 0799 1D       		.uleb128 0x1d
 2158 079a 28000000 		.4byte	.LASF74
 2159 079e 03       		.byte	0x3
 2160 079f 7F       		.byte	0x7f
 2161 07a0 AA070000 		.4byte	0x7aa
 2162 07a4 1C       		.uleb128 0x1c
 2163 07a5 6B000000 		.4byte	0x6b
 2164 07a9 00       		.byte	0
 2165 07aa 1F       		.uleb128 0x1f
 2166 07ab F3000000 		.4byte	.LASF76
 2167 07af 04       		.byte	0x4
 2168 07b0 28       		.byte	0x28
 2169 07b1 00       		.byte	0
 2170              		.section	.debug_abbrev,"",%progbits
 2171              	.Ldebug_abbrev0:
 2172 0000 01       		.uleb128 0x1
 2173 0001 11       		.uleb128 0x11
 2174 0002 01       		.byte	0x1
 2175 0003 25       		.uleb128 0x25
 2176 0004 0E       		.uleb128 0xe
 2177 0005 13       		.uleb128 0x13
 2178 0006 0B       		.uleb128 0xb
 2179 0007 03       		.uleb128 0x3
 2180 0008 0E       		.uleb128 0xe
 2181 0009 1B       		.uleb128 0x1b
 2182 000a 0E       		.uleb128 0xe
 2183 000b 55       		.uleb128 0x55
 2184 000c 17       		.uleb128 0x17
 2185 000d 11       		.uleb128 0x11
 2186 000e 01       		.uleb128 0x1
 2187 000f 10       		.uleb128 0x10
 2188 0010 17       		.uleb128 0x17
 2189 0011 00       		.byte	0
 2190 0012 00       		.byte	0
 2191 0013 02       		.uleb128 0x2
 2192 0014 24       		.uleb128 0x24
 2193 0015 00       		.byte	0
ARM GAS  C:\Users\RECEPC~1\AppData\Local\Temp\cckZkqXS.s 			page 68


 2194 0016 0B       		.uleb128 0xb
 2195 0017 0B       		.uleb128 0xb
 2196 0018 3E       		.uleb128 0x3e
 2197 0019 0B       		.uleb128 0xb
 2198 001a 03       		.uleb128 0x3
 2199 001b 0E       		.uleb128 0xe
 2200 001c 00       		.byte	0
 2201 001d 00       		.byte	0
 2202 001e 03       		.uleb128 0x3
 2203 001f 24       		.uleb128 0x24
 2204 0020 00       		.byte	0
 2205 0021 0B       		.uleb128 0xb
 2206 0022 0B       		.uleb128 0xb
 2207 0023 3E       		.uleb128 0x3e
 2208 0024 0B       		.uleb128 0xb
 2209 0025 03       		.uleb128 0x3
 2210 0026 08       		.uleb128 0x8
 2211 0027 00       		.byte	0
 2212 0028 00       		.byte	0
 2213 0029 04       		.uleb128 0x4
 2214 002a 16       		.uleb128 0x16
 2215 002b 00       		.byte	0
 2216 002c 03       		.uleb128 0x3
 2217 002d 0E       		.uleb128 0xe
 2218 002e 3A       		.uleb128 0x3a
 2219 002f 0B       		.uleb128 0xb
 2220 0030 3B       		.uleb128 0x3b
 2221 0031 05       		.uleb128 0x5
 2222 0032 49       		.uleb128 0x49
 2223 0033 13       		.uleb128 0x13
 2224 0034 00       		.byte	0
 2225 0035 00       		.byte	0
 2226 0036 05       		.uleb128 0x5
 2227 0037 35       		.uleb128 0x35
 2228 0038 00       		.byte	0
 2229 0039 49       		.uleb128 0x49
 2230 003a 13       		.uleb128 0x13
 2231 003b 00       		.byte	0
 2232 003c 00       		.byte	0
 2233 003d 06       		.uleb128 0x6
 2234 003e 0F       		.uleb128 0xf
 2235 003f 00       		.byte	0
 2236 0040 0B       		.uleb128 0xb
 2237 0041 0B       		.uleb128 0xb
 2238 0042 49       		.uleb128 0x49
 2239 0043 13       		.uleb128 0x13
 2240 0044 00       		.byte	0
 2241 0045 00       		.byte	0
 2242 0046 07       		.uleb128 0x7
 2243 0047 15       		.uleb128 0x15
 2244 0048 00       		.byte	0
 2245 0049 27       		.uleb128 0x27
 2246 004a 19       		.uleb128 0x19
 2247 004b 00       		.byte	0
 2248 004c 00       		.byte	0
 2249 004d 08       		.uleb128 0x8
 2250 004e 2E       		.uleb128 0x2e
ARM GAS  C:\Users\RECEPC~1\AppData\Local\Temp\cckZkqXS.s 			page 69


 2251 004f 01       		.byte	0x1
 2252 0050 3F       		.uleb128 0x3f
 2253 0051 19       		.uleb128 0x19
 2254 0052 03       		.uleb128 0x3
 2255 0053 0E       		.uleb128 0xe
 2256 0054 3A       		.uleb128 0x3a
 2257 0055 0B       		.uleb128 0xb
 2258 0056 3B       		.uleb128 0x3b
 2259 0057 0B       		.uleb128 0xb
 2260 0058 27       		.uleb128 0x27
 2261 0059 19       		.uleb128 0x19
 2262 005a 11       		.uleb128 0x11
 2263 005b 01       		.uleb128 0x1
 2264 005c 12       		.uleb128 0x12
 2265 005d 06       		.uleb128 0x6
 2266 005e 40       		.uleb128 0x40
 2267 005f 18       		.uleb128 0x18
 2268 0060 9742     		.uleb128 0x2117
 2269 0062 19       		.uleb128 0x19
 2270 0063 01       		.uleb128 0x1
 2271 0064 13       		.uleb128 0x13
 2272 0065 00       		.byte	0
 2273 0066 00       		.byte	0
 2274 0067 09       		.uleb128 0x9
 2275 0068 898201   		.uleb128 0x4109
 2276 006b 01       		.byte	0x1
 2277 006c 11       		.uleb128 0x11
 2278 006d 01       		.uleb128 0x1
 2279 006e 31       		.uleb128 0x31
 2280 006f 13       		.uleb128 0x13
 2281 0070 01       		.uleb128 0x1
 2282 0071 13       		.uleb128 0x13
 2283 0072 00       		.byte	0
 2284 0073 00       		.byte	0
 2285 0074 0A       		.uleb128 0xa
 2286 0075 8A8201   		.uleb128 0x410a
 2287 0078 00       		.byte	0
 2288 0079 02       		.uleb128 0x2
 2289 007a 18       		.uleb128 0x18
 2290 007b 9142     		.uleb128 0x2111
 2291 007d 18       		.uleb128 0x18
 2292 007e 00       		.byte	0
 2293 007f 00       		.byte	0
 2294 0080 0B       		.uleb128 0xb
 2295 0081 898201   		.uleb128 0x4109
 2296 0084 01       		.byte	0x1
 2297 0085 11       		.uleb128 0x11
 2298 0086 01       		.uleb128 0x1
 2299 0087 31       		.uleb128 0x31
 2300 0088 13       		.uleb128 0x13
 2301 0089 00       		.byte	0
 2302 008a 00       		.byte	0
 2303 008b 0C       		.uleb128 0xc
 2304 008c 34       		.uleb128 0x34
 2305 008d 00       		.byte	0
 2306 008e 03       		.uleb128 0x3
 2307 008f 0E       		.uleb128 0xe
ARM GAS  C:\Users\RECEPC~1\AppData\Local\Temp\cckZkqXS.s 			page 70


 2308 0090 3A       		.uleb128 0x3a
 2309 0091 0B       		.uleb128 0xb
 2310 0092 3B       		.uleb128 0x3b
 2311 0093 0B       		.uleb128 0xb
 2312 0094 49       		.uleb128 0x49
 2313 0095 13       		.uleb128 0x13
 2314 0096 02       		.uleb128 0x2
 2315 0097 17       		.uleb128 0x17
 2316 0098 00       		.byte	0
 2317 0099 00       		.byte	0
 2318 009a 0D       		.uleb128 0xd
 2319 009b 898201   		.uleb128 0x4109
 2320 009e 00       		.byte	0
 2321 009f 11       		.uleb128 0x11
 2322 00a0 01       		.uleb128 0x1
 2323 00a1 31       		.uleb128 0x31
 2324 00a2 13       		.uleb128 0x13
 2325 00a3 00       		.byte	0
 2326 00a4 00       		.byte	0
 2327 00a5 0E       		.uleb128 0xe
 2328 00a6 2E       		.uleb128 0x2e
 2329 00a7 00       		.byte	0
 2330 00a8 3F       		.uleb128 0x3f
 2331 00a9 19       		.uleb128 0x19
 2332 00aa 03       		.uleb128 0x3
 2333 00ab 0E       		.uleb128 0xe
 2334 00ac 3A       		.uleb128 0x3a
 2335 00ad 0B       		.uleb128 0xb
 2336 00ae 3B       		.uleb128 0x3b
 2337 00af 05       		.uleb128 0x5
 2338 00b0 27       		.uleb128 0x27
 2339 00b1 19       		.uleb128 0x19
 2340 00b2 49       		.uleb128 0x49
 2341 00b3 13       		.uleb128 0x13
 2342 00b4 11       		.uleb128 0x11
 2343 00b5 01       		.uleb128 0x1
 2344 00b6 12       		.uleb128 0x12
 2345 00b7 06       		.uleb128 0x6
 2346 00b8 40       		.uleb128 0x40
 2347 00b9 18       		.uleb128 0x18
 2348 00ba 9742     		.uleb128 0x2117
 2349 00bc 19       		.uleb128 0x19
 2350 00bd 00       		.byte	0
 2351 00be 00       		.byte	0
 2352 00bf 0F       		.uleb128 0xf
 2353 00c0 2E       		.uleb128 0x2e
 2354 00c1 01       		.byte	0x1
 2355 00c2 3F       		.uleb128 0x3f
 2356 00c3 19       		.uleb128 0x19
 2357 00c4 03       		.uleb128 0x3
 2358 00c5 0E       		.uleb128 0xe
 2359 00c6 3A       		.uleb128 0x3a
 2360 00c7 0B       		.uleb128 0xb
 2361 00c8 3B       		.uleb128 0x3b
 2362 00c9 05       		.uleb128 0x5
 2363 00ca 27       		.uleb128 0x27
 2364 00cb 19       		.uleb128 0x19
ARM GAS  C:\Users\RECEPC~1\AppData\Local\Temp\cckZkqXS.s 			page 71


 2365 00cc 11       		.uleb128 0x11
 2366 00cd 01       		.uleb128 0x1
 2367 00ce 12       		.uleb128 0x12
 2368 00cf 06       		.uleb128 0x6
 2369 00d0 40       		.uleb128 0x40
 2370 00d1 18       		.uleb128 0x18
 2371 00d2 9742     		.uleb128 0x2117
 2372 00d4 19       		.uleb128 0x19
 2373 00d5 01       		.uleb128 0x1
 2374 00d6 13       		.uleb128 0x13
 2375 00d7 00       		.byte	0
 2376 00d8 00       		.byte	0
 2377 00d9 10       		.uleb128 0x10
 2378 00da 05       		.uleb128 0x5
 2379 00db 00       		.byte	0
 2380 00dc 03       		.uleb128 0x3
 2381 00dd 0E       		.uleb128 0xe
 2382 00de 3A       		.uleb128 0x3a
 2383 00df 0B       		.uleb128 0xb
 2384 00e0 3B       		.uleb128 0x3b
 2385 00e1 05       		.uleb128 0x5
 2386 00e2 49       		.uleb128 0x49
 2387 00e3 13       		.uleb128 0x13
 2388 00e4 02       		.uleb128 0x2
 2389 00e5 18       		.uleb128 0x18
 2390 00e6 00       		.byte	0
 2391 00e7 00       		.byte	0
 2392 00e8 11       		.uleb128 0x11
 2393 00e9 2E       		.uleb128 0x2e
 2394 00ea 00       		.byte	0
 2395 00eb 3F       		.uleb128 0x3f
 2396 00ec 19       		.uleb128 0x19
 2397 00ed 03       		.uleb128 0x3
 2398 00ee 0E       		.uleb128 0xe
 2399 00ef 3A       		.uleb128 0x3a
 2400 00f0 0B       		.uleb128 0xb
 2401 00f1 3B       		.uleb128 0x3b
 2402 00f2 05       		.uleb128 0x5
 2403 00f3 27       		.uleb128 0x27
 2404 00f4 19       		.uleb128 0x19
 2405 00f5 11       		.uleb128 0x11
 2406 00f6 01       		.uleb128 0x1
 2407 00f7 12       		.uleb128 0x12
 2408 00f8 06       		.uleb128 0x6
 2409 00f9 40       		.uleb128 0x40
 2410 00fa 18       		.uleb128 0x18
 2411 00fb 9742     		.uleb128 0x2117
 2412 00fd 19       		.uleb128 0x19
 2413 00fe 00       		.byte	0
 2414 00ff 00       		.byte	0
 2415 0100 12       		.uleb128 0x12
 2416 0101 2E       		.uleb128 0x2e
 2417 0102 01       		.byte	0x1
 2418 0103 3F       		.uleb128 0x3f
 2419 0104 19       		.uleb128 0x19
 2420 0105 03       		.uleb128 0x3
 2421 0106 0E       		.uleb128 0xe
ARM GAS  C:\Users\RECEPC~1\AppData\Local\Temp\cckZkqXS.s 			page 72


 2422 0107 3A       		.uleb128 0x3a
 2423 0108 0B       		.uleb128 0xb
 2424 0109 3B       		.uleb128 0x3b
 2425 010a 05       		.uleb128 0x5
 2426 010b 27       		.uleb128 0x27
 2427 010c 19       		.uleb128 0x19
 2428 010d 49       		.uleb128 0x49
 2429 010e 13       		.uleb128 0x13
 2430 010f 11       		.uleb128 0x11
 2431 0110 01       		.uleb128 0x1
 2432 0111 12       		.uleb128 0x12
 2433 0112 06       		.uleb128 0x6
 2434 0113 40       		.uleb128 0x40
 2435 0114 18       		.uleb128 0x18
 2436 0115 9742     		.uleb128 0x2117
 2437 0117 19       		.uleb128 0x19
 2438 0118 01       		.uleb128 0x1
 2439 0119 13       		.uleb128 0x13
 2440 011a 00       		.byte	0
 2441 011b 00       		.byte	0
 2442 011c 13       		.uleb128 0x13
 2443 011d 34       		.uleb128 0x34
 2444 011e 00       		.byte	0
 2445 011f 03       		.uleb128 0x3
 2446 0120 0E       		.uleb128 0xe
 2447 0121 3A       		.uleb128 0x3a
 2448 0122 0B       		.uleb128 0xb
 2449 0123 3B       		.uleb128 0x3b
 2450 0124 05       		.uleb128 0x5
 2451 0125 49       		.uleb128 0x49
 2452 0126 13       		.uleb128 0x13
 2453 0127 02       		.uleb128 0x2
 2454 0128 17       		.uleb128 0x17
 2455 0129 00       		.byte	0
 2456 012a 00       		.byte	0
 2457 012b 14       		.uleb128 0x14
 2458 012c 34       		.uleb128 0x34
 2459 012d 00       		.byte	0
 2460 012e 03       		.uleb128 0x3
 2461 012f 0E       		.uleb128 0xe
 2462 0130 3A       		.uleb128 0x3a
 2463 0131 0B       		.uleb128 0xb
 2464 0132 3B       		.uleb128 0x3b
 2465 0133 05       		.uleb128 0x5
 2466 0134 49       		.uleb128 0x49
 2467 0135 13       		.uleb128 0x13
 2468 0136 02       		.uleb128 0x2
 2469 0137 18       		.uleb128 0x18
 2470 0138 00       		.byte	0
 2471 0139 00       		.byte	0
 2472 013a 15       		.uleb128 0x15
 2473 013b 05       		.uleb128 0x5
 2474 013c 00       		.byte	0
 2475 013d 03       		.uleb128 0x3
 2476 013e 0E       		.uleb128 0xe
 2477 013f 3A       		.uleb128 0x3a
 2478 0140 0B       		.uleb128 0xb
ARM GAS  C:\Users\RECEPC~1\AppData\Local\Temp\cckZkqXS.s 			page 73


 2479 0141 3B       		.uleb128 0x3b
 2480 0142 05       		.uleb128 0x5
 2481 0143 49       		.uleb128 0x49
 2482 0144 13       		.uleb128 0x13
 2483 0145 02       		.uleb128 0x2
 2484 0146 17       		.uleb128 0x17
 2485 0147 00       		.byte	0
 2486 0148 00       		.byte	0
 2487 0149 16       		.uleb128 0x16
 2488 014a 26       		.uleb128 0x26
 2489 014b 00       		.byte	0
 2490 014c 49       		.uleb128 0x49
 2491 014d 13       		.uleb128 0x13
 2492 014e 00       		.byte	0
 2493 014f 00       		.byte	0
 2494 0150 17       		.uleb128 0x17
 2495 0151 0B       		.uleb128 0xb
 2496 0152 01       		.byte	0x1
 2497 0153 11       		.uleb128 0x11
 2498 0154 01       		.uleb128 0x1
 2499 0155 12       		.uleb128 0x12
 2500 0156 06       		.uleb128 0x6
 2501 0157 00       		.byte	0
 2502 0158 00       		.byte	0
 2503 0159 18       		.uleb128 0x18
 2504 015a 34       		.uleb128 0x34
 2505 015b 00       		.byte	0
 2506 015c 03       		.uleb128 0x3
 2507 015d 0E       		.uleb128 0xe
 2508 015e 3A       		.uleb128 0x3a
 2509 015f 0B       		.uleb128 0xb
 2510 0160 3B       		.uleb128 0x3b
 2511 0161 0B       		.uleb128 0xb
 2512 0162 49       		.uleb128 0x49
 2513 0163 13       		.uleb128 0x13
 2514 0164 3F       		.uleb128 0x3f
 2515 0165 19       		.uleb128 0x19
 2516 0166 02       		.uleb128 0x2
 2517 0167 18       		.uleb128 0x18
 2518 0168 00       		.byte	0
 2519 0169 00       		.byte	0
 2520 016a 19       		.uleb128 0x19
 2521 016b 01       		.uleb128 0x1
 2522 016c 01       		.byte	0x1
 2523 016d 49       		.uleb128 0x49
 2524 016e 13       		.uleb128 0x13
 2525 016f 01       		.uleb128 0x1
 2526 0170 13       		.uleb128 0x13
 2527 0171 00       		.byte	0
 2528 0172 00       		.byte	0
 2529 0173 1A       		.uleb128 0x1a
 2530 0174 21       		.uleb128 0x21
 2531 0175 00       		.byte	0
 2532 0176 49       		.uleb128 0x49
 2533 0177 13       		.uleb128 0x13
 2534 0178 2F       		.uleb128 0x2f
 2535 0179 0B       		.uleb128 0xb
ARM GAS  C:\Users\RECEPC~1\AppData\Local\Temp\cckZkqXS.s 			page 74


 2536 017a 00       		.byte	0
 2537 017b 00       		.byte	0
 2538 017c 1B       		.uleb128 0x1b
 2539 017d 2E       		.uleb128 0x2e
 2540 017e 01       		.byte	0x1
 2541 017f 3F       		.uleb128 0x3f
 2542 0180 19       		.uleb128 0x19
 2543 0181 03       		.uleb128 0x3
 2544 0182 0E       		.uleb128 0xe
 2545 0183 3A       		.uleb128 0x3a
 2546 0184 0B       		.uleb128 0xb
 2547 0185 3B       		.uleb128 0x3b
 2548 0186 0B       		.uleb128 0xb
 2549 0187 27       		.uleb128 0x27
 2550 0188 19       		.uleb128 0x19
 2551 0189 49       		.uleb128 0x49
 2552 018a 13       		.uleb128 0x13
 2553 018b 3C       		.uleb128 0x3c
 2554 018c 19       		.uleb128 0x19
 2555 018d 01       		.uleb128 0x1
 2556 018e 13       		.uleb128 0x13
 2557 018f 00       		.byte	0
 2558 0190 00       		.byte	0
 2559 0191 1C       		.uleb128 0x1c
 2560 0192 05       		.uleb128 0x5
 2561 0193 00       		.byte	0
 2562 0194 49       		.uleb128 0x49
 2563 0195 13       		.uleb128 0x13
 2564 0196 00       		.byte	0
 2565 0197 00       		.byte	0
 2566 0198 1D       		.uleb128 0x1d
 2567 0199 2E       		.uleb128 0x2e
 2568 019a 01       		.byte	0x1
 2569 019b 3F       		.uleb128 0x3f
 2570 019c 19       		.uleb128 0x19
 2571 019d 03       		.uleb128 0x3
 2572 019e 0E       		.uleb128 0xe
 2573 019f 3A       		.uleb128 0x3a
 2574 01a0 0B       		.uleb128 0xb
 2575 01a1 3B       		.uleb128 0x3b
 2576 01a2 0B       		.uleb128 0xb
 2577 01a3 27       		.uleb128 0x27
 2578 01a4 19       		.uleb128 0x19
 2579 01a5 3C       		.uleb128 0x3c
 2580 01a6 19       		.uleb128 0x19
 2581 01a7 01       		.uleb128 0x1
 2582 01a8 13       		.uleb128 0x13
 2583 01a9 00       		.byte	0
 2584 01aa 00       		.byte	0
 2585 01ab 1E       		.uleb128 0x1e
 2586 01ac 2E       		.uleb128 0x2e
 2587 01ad 00       		.byte	0
 2588 01ae 3F       		.uleb128 0x3f
 2589 01af 19       		.uleb128 0x19
 2590 01b0 03       		.uleb128 0x3
 2591 01b1 0E       		.uleb128 0xe
 2592 01b2 3A       		.uleb128 0x3a
ARM GAS  C:\Users\RECEPC~1\AppData\Local\Temp\cckZkqXS.s 			page 75


 2593 01b3 0B       		.uleb128 0xb
 2594 01b4 3B       		.uleb128 0x3b
 2595 01b5 0B       		.uleb128 0xb
 2596 01b6 27       		.uleb128 0x27
 2597 01b7 19       		.uleb128 0x19
 2598 01b8 49       		.uleb128 0x49
 2599 01b9 13       		.uleb128 0x13
 2600 01ba 3C       		.uleb128 0x3c
 2601 01bb 19       		.uleb128 0x19
 2602 01bc 00       		.byte	0
 2603 01bd 00       		.byte	0
 2604 01be 1F       		.uleb128 0x1f
 2605 01bf 2E       		.uleb128 0x2e
 2606 01c0 00       		.byte	0
 2607 01c1 3F       		.uleb128 0x3f
 2608 01c2 19       		.uleb128 0x19
 2609 01c3 03       		.uleb128 0x3
 2610 01c4 0E       		.uleb128 0xe
 2611 01c5 3A       		.uleb128 0x3a
 2612 01c6 0B       		.uleb128 0xb
 2613 01c7 3B       		.uleb128 0x3b
 2614 01c8 0B       		.uleb128 0xb
 2615 01c9 27       		.uleb128 0x27
 2616 01ca 19       		.uleb128 0x19
 2617 01cb 3C       		.uleb128 0x3c
 2618 01cc 19       		.uleb128 0x19
 2619 01cd 00       		.byte	0
 2620 01ce 00       		.byte	0
 2621 01cf 00       		.byte	0
 2622              		.section	.debug_loc,"",%progbits
 2623              	.Ldebug_loc0:
 2624              	.LLST0:
 2625 0000 08000000 		.4byte	.LVL3
 2626 0004 38000000 		.4byte	.LVL6
 2627 0008 0100     		.2byte	0x1
 2628 000a 54       		.byte	0x54
 2629 000b 00000000 		.4byte	0
 2630 000f 00000000 		.4byte	0
 2631              	.LLST1:
 2632 0013 08000000 		.4byte	.LVL11
 2633 0017 36000000 		.4byte	.LVL15
 2634 001b 0100     		.2byte	0x1
 2635 001d 54       		.byte	0x54
 2636 001e 00000000 		.4byte	0
 2637 0022 00000000 		.4byte	0
 2638              	.LLST2:
 2639 0026 22000000 		.4byte	.LVL20
 2640 002a 40000000 		.4byte	.LVL26
 2641 002e 0100     		.2byte	0x1
 2642 0030 54       		.byte	0x54
 2643 0031 46000000 		.4byte	.LVL28
 2644 0035 4E000000 		.4byte	.LVL30
 2645 0039 0100     		.2byte	0x1
 2646 003b 54       		.byte	0x54
 2647 003c 00000000 		.4byte	0
 2648 0040 00000000 		.4byte	0
 2649              	.LLST3:
ARM GAS  C:\Users\RECEPC~1\AppData\Local\Temp\cckZkqXS.s 			page 76


 2650 0044 0C000000 		.4byte	.LVL18
 2651 0048 24000000 		.4byte	.LVL21
 2652 004c 0100     		.2byte	0x1
 2653 004e 53       		.byte	0x53
 2654 004f 24000000 		.4byte	.LVL21
 2655 0053 26000000 		.4byte	.LVL22
 2656 0057 0300     		.2byte	0x3
 2657 0059 73       		.byte	0x73
 2658 005a 7F       		.sleb128 -1
 2659 005b 9F       		.byte	0x9f
 2660 005c 26000000 		.4byte	.LVL22
 2661 0060 32000000 		.4byte	.LVL24
 2662 0064 0100     		.2byte	0x1
 2663 0066 53       		.byte	0x53
 2664 0067 32000000 		.4byte	.LVL24
 2665 006b 3E000000 		.4byte	.LVL25
 2666 006f 0500     		.2byte	0x5
 2667 0071 03       		.byte	0x3
 2668 0072 00000000 		.4byte	LCD_1_rxBufferRead
 2669 0076 40000000 		.4byte	.LVL26
 2670 007a 42000000 		.4byte	.LVL27
 2671 007e 0100     		.2byte	0x1
 2672 0080 53       		.byte	0x53
 2673 0081 00000000 		.4byte	0
 2674 0085 00000000 		.4byte	0
 2675              	.LLST4:
 2676 0089 10000000 		.4byte	.LVL19
 2677 008d 49000000 		.4byte	.LVL29-1
 2678 0091 0100     		.2byte	0x1
 2679 0093 51       		.byte	0x51
 2680 0094 00000000 		.4byte	0
 2681 0098 00000000 		.4byte	0
 2682              	.LLST5:
 2683 009c 02000000 		.4byte	.LVL33
 2684 00a0 22000000 		.4byte	.LVL37
 2685 00a4 0200     		.2byte	0x2
 2686 00a6 30       		.byte	0x30
 2687 00a7 9F       		.byte	0x9f
 2688 00a8 22000000 		.4byte	.LVL37
 2689 00ac 40000000 		.4byte	.LVL43
 2690 00b0 0100     		.2byte	0x1
 2691 00b2 54       		.byte	0x54
 2692 00b3 40000000 		.4byte	.LVL43
 2693 00b7 52000000 		.4byte	.LVL46
 2694 00bb 0200     		.2byte	0x2
 2695 00bd 30       		.byte	0x30
 2696 00be 9F       		.byte	0x9f
 2697 00bf 52000000 		.4byte	.LVL46
 2698 00c3 5A000000 		.4byte	.LVL47
 2699 00c7 0100     		.2byte	0x1
 2700 00c9 54       		.byte	0x54
 2701 00ca 5A000000 		.4byte	.LVL47
 2702 00ce 5E000000 		.4byte	.LVL48
 2703 00d2 0200     		.2byte	0x2
 2704 00d4 30       		.byte	0x30
 2705 00d5 9F       		.byte	0x9f
 2706 00d6 5E000000 		.4byte	.LVL48
ARM GAS  C:\Users\RECEPC~1\AppData\Local\Temp\cckZkqXS.s 			page 77


 2707 00da 68000000 		.4byte	.LVL51
 2708 00de 0100     		.2byte	0x1
 2709 00e0 54       		.byte	0x54
 2710 00e1 00000000 		.4byte	0
 2711 00e5 00000000 		.4byte	0
 2712              	.LLST6:
 2713 00e9 46000000 		.4byte	.LVL45
 2714 00ed 60000000 		.4byte	.LVL49
 2715 00f1 0100     		.2byte	0x1
 2716 00f3 53       		.byte	0x53
 2717 00f4 00000000 		.4byte	0
 2718 00f8 00000000 		.4byte	0
 2719              	.LLST7:
 2720 00fc 0C000000 		.4byte	.LVL35
 2721 0100 24000000 		.4byte	.LVL38
 2722 0104 0100     		.2byte	0x1
 2723 0106 53       		.byte	0x53
 2724 0107 24000000 		.4byte	.LVL38
 2725 010b 26000000 		.4byte	.LVL39
 2726 010f 0300     		.2byte	0x3
 2727 0111 73       		.byte	0x73
 2728 0112 7F       		.sleb128 -1
 2729 0113 9F       		.byte	0x9f
 2730 0114 26000000 		.4byte	.LVL39
 2731 0118 32000000 		.4byte	.LVL41
 2732 011c 0100     		.2byte	0x1
 2733 011e 53       		.byte	0x53
 2734 011f 32000000 		.4byte	.LVL41
 2735 0123 3E000000 		.4byte	.LVL42
 2736 0127 0500     		.2byte	0x5
 2737 0129 03       		.byte	0x3
 2738 012a 00000000 		.4byte	LCD_1_rxBufferRead
 2739 012e 40000000 		.4byte	.LVL43
 2740 0132 42000000 		.4byte	.LVL44
 2741 0136 0100     		.2byte	0x1
 2742 0138 53       		.byte	0x53
 2743 0139 00000000 		.4byte	0
 2744 013d 00000000 		.4byte	0
 2745              	.LLST8:
 2746 0141 10000000 		.4byte	.LVL36
 2747 0145 63000000 		.4byte	.LVL50-1
 2748 0149 0100     		.2byte	0x1
 2749 014b 51       		.byte	0x51
 2750 014c 00000000 		.4byte	0
 2751 0150 00000000 		.4byte	0
 2752              	.LLST9:
 2753 0154 36000000 		.4byte	.LVL55
 2754 0158 38000000 		.4byte	.LVL56
 2755 015c 0100     		.2byte	0x1
 2756 015e 54       		.byte	0x54
 2757 015f 44000000 		.4byte	.LVL57
 2758 0163 46000000 		.4byte	.LVL58
 2759 0167 0100     		.2byte	0x1
 2760 0169 54       		.byte	0x54
 2761 016a 48000000 		.4byte	.LVL59
 2762 016e 50000000 		.4byte	.LVL61
 2763 0172 0100     		.2byte	0x1
ARM GAS  C:\Users\RECEPC~1\AppData\Local\Temp\cckZkqXS.s 			page 78


 2764 0174 54       		.byte	0x54
 2765 0175 00000000 		.4byte	0
 2766 0179 00000000 		.4byte	0
 2767              	.LLST10:
 2768 017d 06000000 		.4byte	.LVL62
 2769 0181 1B000000 		.4byte	.LVL63-1
 2770 0185 0100     		.2byte	0x1
 2771 0187 50       		.byte	0x50
 2772 0188 00000000 		.4byte	0
 2773 018c 00000000 		.4byte	0
 2774              	.LLST11:
 2775 0190 00000000 		.4byte	.LVL72
 2776 0194 0A000000 		.4byte	.LVL74
 2777 0198 0100     		.2byte	0x1
 2778 019a 50       		.byte	0x50
 2779 019b 0A000000 		.4byte	.LVL74
 2780 019f 14000000 		.4byte	.LVL78
 2781 01a3 0100     		.2byte	0x1
 2782 01a5 55       		.byte	0x55
 2783 01a6 14000000 		.4byte	.LVL78
 2784 01aa 18000000 		.4byte	.LVL79
 2785 01ae 0100     		.2byte	0x1
 2786 01b0 50       		.byte	0x50
 2787 01b1 18000000 		.4byte	.LVL79
 2788 01b5 20000000 		.4byte	.LVL80
 2789 01b9 0100     		.2byte	0x1
 2790 01bb 55       		.byte	0x55
 2791 01bc 20000000 		.4byte	.LVL80
 2792 01c0 24000000 		.4byte	.LFE22
 2793 01c4 0400     		.2byte	0x4
 2794 01c6 F3       		.byte	0xf3
 2795 01c7 01       		.uleb128 0x1
 2796 01c8 50       		.byte	0x50
 2797 01c9 9F       		.byte	0x9f
 2798 01ca 00000000 		.4byte	0
 2799 01ce 00000000 		.4byte	0
 2800              	.LLST12:
 2801 01d2 02000000 		.4byte	.LVL73
 2802 01d6 0A000000 		.4byte	.LVL74
 2803 01da 0200     		.2byte	0x2
 2804 01dc 30       		.byte	0x30
 2805 01dd 9F       		.byte	0x9f
 2806 01de 0A000000 		.4byte	.LVL74
 2807 01e2 10000000 		.4byte	.LVL76
 2808 01e6 0100     		.2byte	0x1
 2809 01e8 54       		.byte	0x54
 2810 01e9 12000000 		.4byte	.LVL77
 2811 01ed 14000000 		.4byte	.LVL78
 2812 01f1 0100     		.2byte	0x1
 2813 01f3 54       		.byte	0x54
 2814 01f4 14000000 		.4byte	.LVL78
 2815 01f8 18000000 		.4byte	.LVL79
 2816 01fc 0200     		.2byte	0x2
 2817 01fe 30       		.byte	0x30
 2818 01ff 9F       		.byte	0x9f
 2819 0200 18000000 		.4byte	.LVL79
 2820 0204 20000000 		.4byte	.LVL80
ARM GAS  C:\Users\RECEPC~1\AppData\Local\Temp\cckZkqXS.s 			page 79


 2821 0208 0100     		.2byte	0x1
 2822 020a 54       		.byte	0x54
 2823 020b 00000000 		.4byte	0
 2824 020f 00000000 		.4byte	0
 2825              	.LLST13:
 2826 0213 00000000 		.4byte	.LVL81
 2827 0217 0E000000 		.4byte	.LVL82
 2828 021b 0100     		.2byte	0x1
 2829 021d 50       		.byte	0x50
 2830 021e 0E000000 		.4byte	.LVL82
 2831 0222 1E000000 		.4byte	.LVL86
 2832 0226 0100     		.2byte	0x1
 2833 0228 55       		.byte	0x55
 2834 0229 1E000000 		.4byte	.LVL86
 2835 022d 24000000 		.4byte	.LFE23
 2836 0231 0100     		.2byte	0x1
 2837 0233 50       		.byte	0x50
 2838 0234 00000000 		.4byte	0
 2839 0238 00000000 		.4byte	0
 2840              	.LLST14:
 2841 023c 00000000 		.4byte	.LVL81
 2842 0240 0E000000 		.4byte	.LVL82
 2843 0244 0100     		.2byte	0x1
 2844 0246 51       		.byte	0x51
 2845 0247 0E000000 		.4byte	.LVL82
 2846 024b 1E000000 		.4byte	.LVL86
 2847 024f 0400     		.2byte	0x4
 2848 0251 F3       		.byte	0xf3
 2849 0252 01       		.uleb128 0x1
 2850 0253 51       		.byte	0x51
 2851 0254 9F       		.byte	0x9f
 2852 0255 1E000000 		.4byte	.LVL86
 2853 0259 24000000 		.4byte	.LFE23
 2854 025d 0100     		.2byte	0x1
 2855 025f 51       		.byte	0x51
 2856 0260 00000000 		.4byte	0
 2857 0264 00000000 		.4byte	0
 2858              	.LLST15:
 2859 0268 00000000 		.4byte	.LVL81
 2860 026c 0E000000 		.4byte	.LVL82
 2861 0270 0200     		.2byte	0x2
 2862 0272 30       		.byte	0x30
 2863 0273 9F       		.byte	0x9f
 2864 0274 0E000000 		.4byte	.LVL82
 2865 0278 16000000 		.4byte	.LVL84
 2866 027c 0100     		.2byte	0x1
 2867 027e 54       		.byte	0x54
 2868 027f 18000000 		.4byte	.LVL85
 2869 0283 1E000000 		.4byte	.LVL86
 2870 0287 0100     		.2byte	0x1
 2871 0289 54       		.byte	0x54
 2872 028a 1E000000 		.4byte	.LVL86
 2873 028e 24000000 		.4byte	.LFE23
 2874 0292 0200     		.2byte	0x2
 2875 0294 30       		.byte	0x30
 2876 0295 9F       		.byte	0x9f
 2877 0296 00000000 		.4byte	0
ARM GAS  C:\Users\RECEPC~1\AppData\Local\Temp\cckZkqXS.s 			page 80


 2878 029a 00000000 		.4byte	0
 2879              	.LLST16:
 2880 029e 00000000 		.4byte	.LVL87
 2881 02a2 0B000000 		.4byte	.LVL88-1
 2882 02a6 0100     		.2byte	0x1
 2883 02a8 50       		.byte	0x50
 2884 02a9 0B000000 		.4byte	.LVL88-1
 2885 02ad 20000000 		.4byte	.LFE24
 2886 02b1 0400     		.2byte	0x4
 2887 02b3 F3       		.byte	0xf3
 2888 02b4 01       		.uleb128 0x1
 2889 02b5 50       		.byte	0x50
 2890 02b6 9F       		.byte	0x9f
 2891 02b7 00000000 		.4byte	0
 2892 02bb 00000000 		.4byte	0
 2893              	.LLST17:
 2894 02bf 06000000 		.4byte	.LVL91
 2895 02c3 1C000000 		.4byte	.LVL92
 2896 02c7 0100     		.2byte	0x1
 2897 02c9 53       		.byte	0x53
 2898 02ca 1C000000 		.4byte	.LVL92
 2899 02ce 24000000 		.4byte	.LFE25
 2900 02d2 0100     		.2byte	0x1
 2901 02d4 50       		.byte	0x50
 2902 02d5 00000000 		.4byte	0
 2903 02d9 00000000 		.4byte	0
 2904              	.LLST18:
 2905 02dd 06000000 		.4byte	.LVL93
 2906 02e1 1B000000 		.4byte	.LVL94-1
 2907 02e5 0100     		.2byte	0x1
 2908 02e7 50       		.byte	0x50
 2909 02e8 00000000 		.4byte	0
 2910 02ec 00000000 		.4byte	0
 2911              	.LLST19:
 2912 02f0 00000000 		.4byte	.LVL95
 2913 02f4 3C000000 		.4byte	.LVL100
 2914 02f8 0100     		.2byte	0x1
 2915 02fa 50       		.byte	0x50
 2916 02fb 3C000000 		.4byte	.LVL100
 2917 02ff 58000000 		.4byte	.LFE27
 2918 0303 0400     		.2byte	0x4
 2919 0305 F3       		.byte	0xf3
 2920 0306 01       		.uleb128 0x1
 2921 0307 50       		.byte	0x50
 2922 0308 9F       		.byte	0x9f
 2923 0309 00000000 		.4byte	0
 2924 030d 00000000 		.4byte	0
 2925              	.LLST20:
 2926 0311 22000000 		.4byte	.LVL96
 2927 0315 28000000 		.4byte	.LVL97
 2928 0319 0100     		.2byte	0x1
 2929 031b 53       		.byte	0x53
 2930 031c 34000000 		.4byte	.LVL98
 2931 0320 3A000000 		.4byte	.LVL99
 2932 0324 0100     		.2byte	0x1
 2933 0326 53       		.byte	0x53
 2934 0327 00000000 		.4byte	0
ARM GAS  C:\Users\RECEPC~1\AppData\Local\Temp\cckZkqXS.s 			page 81


 2935 032b 00000000 		.4byte	0
 2936              		.section	.debug_aranges,"",%progbits
 2937 0000 FC000000 		.4byte	0xfc
 2938 0004 0200     		.2byte	0x2
 2939 0006 00000000 		.4byte	.Ldebug_info0
 2940 000a 04       		.byte	0x4
 2941 000b 00       		.byte	0
 2942 000c 0000     		.2byte	0
 2943 000e 0000     		.2byte	0
 2944 0010 00000000 		.4byte	.LFB1
 2945 0014 3C000000 		.4byte	.LFE1-.LFB1
 2946 0018 00000000 		.4byte	.LFB2
 2947 001c 44000000 		.4byte	.LFE2-.LFB2
 2948 0020 00000000 		.4byte	.LFB0
 2949 0024 1C000000 		.4byte	.LFE0-.LFB0
 2950 0028 00000000 		.4byte	.LFB4
 2951 002c 04000000 		.4byte	.LFE4-.LFB4
 2952 0030 00000000 		.4byte	.LFB5
 2953 0034 02000000 		.4byte	.LFE5-.LFB5
 2954 0038 00000000 		.4byte	.LFB6
 2955 003c 0C000000 		.4byte	.LFE6-.LFB6
 2956 0040 00000000 		.4byte	.LFB7
 2957 0044 0C000000 		.4byte	.LFE7-.LFB7
 2958 0048 00000000 		.4byte	.LFB3
 2959 004c 44000000 		.4byte	.LFE3-.LFB3
 2960 0050 00000000 		.4byte	.LFB8
 2961 0054 0C000000 		.4byte	.LFE8-.LFB8
 2962 0058 00000000 		.4byte	.LFB9
 2963 005c 5C000000 		.4byte	.LFE9-.LFB9
 2964 0060 00000000 		.4byte	.LFB10
 2965 0064 28000000 		.4byte	.LFE10-.LFB10
 2966 0068 00000000 		.4byte	.LFB11
 2967 006c 78000000 		.4byte	.LFE11-.LFB11
 2968 0070 00000000 		.4byte	.LFB12
 2969 0074 12000000 		.4byte	.LFE12-.LFB12
 2970 0078 00000000 		.4byte	.LFB13
 2971 007c 54000000 		.4byte	.LFE13-.LFB13
 2972 0080 00000000 		.4byte	.LFB14
 2973 0084 3C000000 		.4byte	.LFE14-.LFB14
 2974 0088 00000000 		.4byte	.LFB15
 2975 008c 02000000 		.4byte	.LFE15-.LFB15
 2976 0090 00000000 		.4byte	.LFB16
 2977 0094 0C000000 		.4byte	.LFE16-.LFB16
 2978 0098 00000000 		.4byte	.LFB17
 2979 009c 0C000000 		.4byte	.LFE17-.LFB17
 2980 00a0 00000000 		.4byte	.LFB18
 2981 00a4 0C000000 		.4byte	.LFE18-.LFB18
 2982 00a8 00000000 		.4byte	.LFB19
 2983 00ac 14000000 		.4byte	.LFE19-.LFB19
 2984 00b0 00000000 		.4byte	.LFB20
 2985 00b4 0C000000 		.4byte	.LFE20-.LFB20
 2986 00b8 00000000 		.4byte	.LFB21
 2987 00bc 18000000 		.4byte	.LFE21-.LFB21
 2988 00c0 00000000 		.4byte	.LFB22
 2989 00c4 24000000 		.4byte	.LFE22-.LFB22
 2990 00c8 00000000 		.4byte	.LFB23
 2991 00cc 24000000 		.4byte	.LFE23-.LFB23
ARM GAS  C:\Users\RECEPC~1\AppData\Local\Temp\cckZkqXS.s 			page 82


 2992 00d0 00000000 		.4byte	.LFB24
 2993 00d4 20000000 		.4byte	.LFE24-.LFB24
 2994 00d8 00000000 		.4byte	.LFB25
 2995 00dc 24000000 		.4byte	.LFE25-.LFB25
 2996 00e0 00000000 		.4byte	.LFB26
 2997 00e4 24000000 		.4byte	.LFE26-.LFB26
 2998 00e8 00000000 		.4byte	.LFB27
 2999 00ec 58000000 		.4byte	.LFE27-.LFB27
 3000 00f0 00000000 		.4byte	.LFB28
 3001 00f4 02000000 		.4byte	.LFE28-.LFB28
 3002 00f8 00000000 		.4byte	0
 3003 00fc 00000000 		.4byte	0
 3004              		.section	.debug_ranges,"",%progbits
 3005              	.Ldebug_ranges0:
 3006 0000 00000000 		.4byte	.LFB1
 3007 0004 3C000000 		.4byte	.LFE1
 3008 0008 00000000 		.4byte	.LFB2
 3009 000c 44000000 		.4byte	.LFE2
 3010 0010 00000000 		.4byte	.LFB0
 3011 0014 1C000000 		.4byte	.LFE0
 3012 0018 00000000 		.4byte	.LFB4
 3013 001c 04000000 		.4byte	.LFE4
 3014 0020 00000000 		.4byte	.LFB5
 3015 0024 02000000 		.4byte	.LFE5
 3016 0028 00000000 		.4byte	.LFB6
 3017 002c 0C000000 		.4byte	.LFE6
 3018 0030 00000000 		.4byte	.LFB7
 3019 0034 0C000000 		.4byte	.LFE7
 3020 0038 00000000 		.4byte	.LFB3
 3021 003c 44000000 		.4byte	.LFE3
 3022 0040 00000000 		.4byte	.LFB8
 3023 0044 0C000000 		.4byte	.LFE8
 3024 0048 00000000 		.4byte	.LFB9
 3025 004c 5C000000 		.4byte	.LFE9
 3026 0050 00000000 		.4byte	.LFB10
 3027 0054 28000000 		.4byte	.LFE10
 3028 0058 00000000 		.4byte	.LFB11
 3029 005c 78000000 		.4byte	.LFE11
 3030 0060 00000000 		.4byte	.LFB12
 3031 0064 12000000 		.4byte	.LFE12
 3032 0068 00000000 		.4byte	.LFB13
 3033 006c 54000000 		.4byte	.LFE13
 3034 0070 00000000 		.4byte	.LFB14
 3035 0074 3C000000 		.4byte	.LFE14
 3036 0078 00000000 		.4byte	.LFB15
 3037 007c 02000000 		.4byte	.LFE15
 3038 0080 00000000 		.4byte	.LFB16
 3039 0084 0C000000 		.4byte	.LFE16
 3040 0088 00000000 		.4byte	.LFB17
 3041 008c 0C000000 		.4byte	.LFE17
 3042 0090 00000000 		.4byte	.LFB18
 3043 0094 0C000000 		.4byte	.LFE18
 3044 0098 00000000 		.4byte	.LFB19
 3045 009c 14000000 		.4byte	.LFE19
 3046 00a0 00000000 		.4byte	.LFB20
 3047 00a4 0C000000 		.4byte	.LFE20
 3048 00a8 00000000 		.4byte	.LFB21
ARM GAS  C:\Users\RECEPC~1\AppData\Local\Temp\cckZkqXS.s 			page 83


 3049 00ac 18000000 		.4byte	.LFE21
 3050 00b0 00000000 		.4byte	.LFB22
 3051 00b4 24000000 		.4byte	.LFE22
 3052 00b8 00000000 		.4byte	.LFB23
 3053 00bc 24000000 		.4byte	.LFE23
 3054 00c0 00000000 		.4byte	.LFB24
 3055 00c4 20000000 		.4byte	.LFE24
 3056 00c8 00000000 		.4byte	.LFB25
 3057 00cc 24000000 		.4byte	.LFE25
 3058 00d0 00000000 		.4byte	.LFB26
 3059 00d4 24000000 		.4byte	.LFE26
 3060 00d8 00000000 		.4byte	.LFB27
 3061 00dc 58000000 		.4byte	.LFE27
 3062 00e0 00000000 		.4byte	.LFB28
 3063 00e4 02000000 		.4byte	.LFE28
 3064 00e8 00000000 		.4byte	0
 3065 00ec 00000000 		.4byte	0
 3066              		.section	.debug_line,"",%progbits
 3067              	.Ldebug_line0:
 3068 0000 28030000 		.section	.debug_str,"MS",%progbits,1
 3068      02006300 
 3068      00000201 
 3068      FB0E0D00 
 3068      01010101 
 3069              	.LASF10:
 3070 0000 75696E74 		.ascii	"uint16\000"
 3070      313600
 3071              	.LASF68:
 3072 0007 4C43445F 		.ascii	"LCD_1_rxBuffer\000"
 3072      315F7278 
 3072      42756666 
 3072      657200
 3073              	.LASF33:
 3074 0016 6C6F635F 		.ascii	"loc_rxBufferWrite\000"
 3074      72784275 
 3074      66666572 
 3074      57726974 
 3074      6500
 3075              	.LASF74:
 3076 0028 43794578 		.ascii	"CyExitCriticalSection\000"
 3076      69744372 
 3076      69746963 
 3076      616C5365 
 3076      6374696F 
 3077              	.LASF50:
 3078 003e 74784461 		.ascii	"txDataByte\000"
 3078      74614279 
 3078      746500
 3079              	.LASF51:
 3080 0049 4C43445F 		.ascii	"LCD_1_ReadControlRegister\000"
 3080      315F5265 
 3080      6164436F 
 3080      6E74726F 
 3080      6C526567 
 3081              	.LASF39:
 3082 0063 4C43445F 		.ascii	"LCD_1_GetByte\000"
 3082      315F4765 
ARM GAS  C:\Users\RECEPC~1\AppData\Local\Temp\cckZkqXS.s 			page 84


 3082      74427974 
 3082      6500
 3083              	.LASF55:
 3084 0071 73747269 		.ascii	"string\000"
 3084      6E6700
 3085              	.LASF7:
 3086 0078 6C6F6E67 		.ascii	"long long unsigned int\000"
 3086      206C6F6E 
 3086      6720756E 
 3086      7369676E 
 3086      65642069 
 3087              	.LASF28:
 3088 008f 4C43445F 		.ascii	"LCD_1_SetRxInterruptMode\000"
 3088      315F5365 
 3088      74527849 
 3088      6E746572 
 3088      72757074 
 3089              	.LASF6:
 3090 00a8 6C6F6E67 		.ascii	"long long int\000"
 3090      206C6F6E 
 3090      6720696E 
 3090      7400
 3091              	.LASF0:
 3092 00b6 7369676E 		.ascii	"signed char\000"
 3092      65642063 
 3092      68617200 
 3093              	.LASF45:
 3094 00c2 4C43445F 		.ascii	"LCD_1_SetRxAddress1\000"
 3094      315F5365 
 3094      74527841 
 3094      64647265 
 3094      73733100 
 3095              	.LASF47:
 3096 00d6 4C43445F 		.ascii	"LCD_1_SetRxAddress2\000"
 3096      315F5365 
 3096      74527841 
 3096      64647265 
 3096      73733200 
 3097              	.LASF4:
 3098 00ea 6C6F6E67 		.ascii	"long int\000"
 3098      20696E74 
 3098      00
 3099              	.LASF76:
 3100 00f3 4C43445F 		.ascii	"LCD_1_IntClock_Stop\000"
 3100      315F496E 
 3100      74436C6F 
 3100      636B5F53 
 3100      746F7000 
 3101              	.LASF9:
 3102 0107 75696E74 		.ascii	"uint8\000"
 3102      3800
 3103              	.LASF35:
 3104 010d 4C43445F 		.ascii	"LCD_1_ReadRxStatus\000"
 3104      315F5265 
 3104      61645278 
 3104      53746174 
 3104      757300
ARM GAS  C:\Users\RECEPC~1\AppData\Local\Temp\cckZkqXS.s 			page 85


 3105              	.LASF13:
 3106 0120 646F7562 		.ascii	"double\000"
 3106      6C6500
 3107              	.LASF44:
 3108 0127 61646472 		.ascii	"addressMode\000"
 3108      6573734D 
 3108      6F646500 
 3109              	.LASF72:
 3110 0133 4C43445F 		.ascii	"LCD_1_rxBufferOverflow\000"
 3110      315F7278 
 3110      42756666 
 3110      65724F76 
 3110      6572666C 
 3111              	.LASF66:
 3112 014a 4C43445F 		.ascii	"LCD_1_SetTxAddressMode\000"
 3112      315F5365 
 3112      74547841 
 3112      64647265 
 3112      73734D6F 
 3113              	.LASF11:
 3114 0161 75696E74 		.ascii	"uint32\000"
 3114      333200
 3115              	.LASF29:
 3116 0168 636F6E74 		.ascii	"control\000"
 3116      726F6C00 
 3117              	.LASF23:
 3118 0170 4C43445F 		.ascii	"LCD_1_WriteControlRegister\000"
 3118      315F5772 
 3118      69746543 
 3118      6F6E7472 
 3118      6F6C5265 
 3119              	.LASF63:
 3120 018b 7265744D 		.ascii	"retMode\000"
 3120      6F646500 
 3121              	.LASF8:
 3122 0193 756E7369 		.ascii	"unsigned int\000"
 3122      676E6564 
 3122      20696E74 
 3122      00
 3123              	.LASF75:
 3124 01a0 4C43445F 		.ascii	"LCD_1_IntClock_Start\000"
 3124      315F496E 
 3124      74436C6F 
 3124      636B5F53 
 3124      74617274 
 3125              	.LASF5:
 3126 01b5 6C6F6E67 		.ascii	"long unsigned int\000"
 3126      20756E73 
 3126      69676E65 
 3126      6420696E 
 3126      7400
 3127              	.LASF81:
 3128 01c7 4379456E 		.ascii	"CyEnterCriticalSection\000"
 3128      74657243 
 3128      72697469 
 3128      63616C53 
 3128      65637469 
ARM GAS  C:\Users\RECEPC~1\AppData\Local\Temp\cckZkqXS.s 			page 86


 3129              	.LASF25:
 3130 01de 4C43445F 		.ascii	"LCD_1_DisableRxInt\000"
 3130      315F4469 
 3130      7361626C 
 3130      65527849 
 3130      6E7400
 3131              	.LASF41:
 3132 01f1 73697A65 		.ascii	"size\000"
 3132      00
 3133              	.LASF3:
 3134 01f6 73686F72 		.ascii	"short unsigned int\000"
 3134      7420756E 
 3134      7369676E 
 3134      65642069 
 3134      6E7400
 3135              	.LASF80:
 3136 0209 4379496E 		.ascii	"CyIntSetVector\000"
 3136      74536574 
 3136      56656374 
 3136      6F7200
 3137              	.LASF32:
 3138 0218 6C6F635F 		.ascii	"loc_rxBufferRead\000"
 3138      72784275 
 3138      66666572 
 3138      52656164 
 3138      00
 3139              	.LASF65:
 3140 0229 74785F70 		.ascii	"tx_period\000"
 3140      6572696F 
 3140      6400
 3141              	.LASF30:
 3142 0233 696E7453 		.ascii	"intSrc\000"
 3142      726300
 3143              	.LASF26:
 3144 023a 4C43445F 		.ascii	"LCD_1_Stop\000"
 3144      315F5374 
 3144      6F7000
 3145              	.LASF17:
 3146 0245 72656733 		.ascii	"reg32\000"
 3146      3200
 3147              	.LASF64:
 3148 024b 746D7053 		.ascii	"tmpStat\000"
 3148      74617400 
 3149              	.LASF19:
 3150 0253 73697A65 		.ascii	"sizetype\000"
 3150      74797065 
 3150      00
 3151              	.LASF37:
 3152 025c 4C43445F 		.ascii	"LCD_1_GetChar\000"
 3152      315F4765 
 3152      74436861 
 3152      7200
 3153              	.LASF38:
 3154 026a 72785374 		.ascii	"rxStatus\000"
 3154      61747573 
 3154      00
 3155              	.LASF79:
ARM GAS  C:\Users\RECEPC~1\AppData\Local\Temp\cckZkqXS.s 			page 87


 3156 0273 433A5C55 		.ascii	"C:\\Users\\Recepcion\\Documents\\Prime GRP700\\Work"
 3156      73657273 
 3156      5C526563 
 3156      65706369 
 3156      6F6E5C44 
 3157 02a1 73706163 		.ascii	"space01\\PGRP700.cydsn\000"
 3157      6530315C 
 3157      50475250 
 3157      3730302E 
 3157      63796473 
 3158              	.LASF42:
 3159 02b7 4C43445F 		.ascii	"LCD_1_ClearRxBuffer\000"
 3159      315F436C 
 3159      65617252 
 3159      78427566 
 3159      66657200 
 3160              	.LASF67:
 3161 02cb 4C43445F 		.ascii	"LCD_1_initVar\000"
 3161      315F696E 
 3161      69745661 
 3161      7200
 3162              	.LASF73:
 3163 02d9 4379496E 		.ascii	"CyIntSetPriority\000"
 3163      74536574 
 3163      5072696F 
 3163      72697479 
 3163      00
 3164              	.LASF12:
 3165 02ea 666C6F61 		.ascii	"float\000"
 3165      7400
 3166              	.LASF62:
 3167 02f0 4C43445F 		.ascii	"LCD_1_SendBreak\000"
 3167      315F5365 
 3167      6E644272 
 3167      65616B00 
 3168              	.LASF53:
 3169 0300 4C43445F 		.ascii	"LCD_1_PutChar\000"
 3169      315F5075 
 3169      74436861 
 3169      7200
 3170              	.LASF71:
 3171 030e 4C43445F 		.ascii	"LCD_1_rxBufferLoopDetect\000"
 3171      315F7278 
 3171      42756666 
 3171      65724C6F 
 3171      6F704465 
 3172              	.LASF52:
 3173 0327 4C43445F 		.ascii	"LCD_1_ReadTxStatus\000"
 3173      315F5265 
 3173      61645478 
 3173      53746174 
 3173      757300
 3174              	.LASF22:
 3175 033a 4C43445F 		.ascii	"LCD_1_Start\000"
 3175      315F5374 
 3175      61727400 
 3176              	.LASF16:
ARM GAS  C:\Users\RECEPC~1\AppData\Local\Temp\cckZkqXS.s 			page 88


 3177 0346 72656738 		.ascii	"reg8\000"
 3177      00
 3178              	.LASF1:
 3179 034b 756E7369 		.ascii	"unsigned char\000"
 3179      676E6564 
 3179      20636861 
 3179      7200
 3180              	.LASF48:
 3181 0359 4C43445F 		.ascii	"LCD_1_SetTxInterruptMode\000"
 3181      315F5365 
 3181      74547849 
 3181      6E746572 
 3181      72757074 
 3182              	.LASF2:
 3183 0372 73686F72 		.ascii	"short int\000"
 3183      7420696E 
 3183      7400
 3184              	.LASF49:
 3185 037c 4C43445F 		.ascii	"LCD_1_WriteTxData\000"
 3185      315F5772 
 3185      69746554 
 3185      78446174 
 3185      6100
 3186              	.LASF58:
 3187 038e 62797465 		.ascii	"byteCount\000"
 3187      436F756E 
 3187      7400
 3188              	.LASF78:
 3189 0398 2E5C4765 		.ascii	".\\Generated_Source\\PSoC5\\LCD_1.c\000"
 3189      6E657261 
 3189      7465645F 
 3189      536F7572 
 3189      63655C50 
 3190              	.LASF31:
 3191 03b9 72784461 		.ascii	"rxData\000"
 3191      746100
 3192              	.LASF59:
 3193 03c0 4C43445F 		.ascii	"LCD_1_PutCRLF\000"
 3193      315F5075 
 3193      7443524C 
 3193      4600
 3194              	.LASF43:
 3195 03ce 4C43445F 		.ascii	"LCD_1_SetRxAddressMode\000"
 3195      315F5365 
 3195      74527841 
 3195      64647265 
 3195      73734D6F 
 3196              	.LASF15:
 3197 03e5 63686172 		.ascii	"char\000"
 3197      00
 3198              	.LASF18:
 3199 03ea 63796973 		.ascii	"cyisraddress\000"
 3199      72616464 
 3199      72657373 
 3199      00
 3200              	.LASF57:
 3201 03f7 4C43445F 		.ascii	"LCD_1_PutArray\000"
ARM GAS  C:\Users\RECEPC~1\AppData\Local\Temp\cckZkqXS.s 			page 89


 3201      315F5075 
 3201      74417272 
 3201      617900
 3202              	.LASF21:
 3203 0406 4C43445F 		.ascii	"LCD_1_Enable\000"
 3203      315F456E 
 3203      61626C65 
 3203      00
 3204              	.LASF14:
 3205 0413 63686172 		.ascii	"char8\000"
 3205      3800
 3206              	.LASF60:
 3207 0419 4C43445F 		.ascii	"LCD_1_GetTxBufferSize\000"
 3207      315F4765 
 3207      74547842 
 3207      75666665 
 3207      7253697A 
 3208              	.LASF61:
 3209 042f 4C43445F 		.ascii	"LCD_1_ClearTxBuffer\000"
 3209      315F436C 
 3209      65617254 
 3209      78427566 
 3209      66657200 
 3210              	.LASF40:
 3211 0443 4C43445F 		.ascii	"LCD_1_GetRxBufferSize\000"
 3211      315F4765 
 3211      74527842 
 3211      75666665 
 3211      7253697A 
 3212              	.LASF54:
 3213 0459 4C43445F 		.ascii	"LCD_1_PutString\000"
 3213      315F5075 
 3213      74537472 
 3213      696E6700 
 3214              	.LASF34:
 3215 0469 4C43445F 		.ascii	"LCD_1_ReadRxData\000"
 3215      315F5265 
 3215      61645278 
 3215      44617461 
 3215      00
 3216              	.LASF20:
 3217 047a 4C43445F 		.ascii	"LCD_1_Init\000"
 3217      315F496E 
 3217      697400
 3218              	.LASF27:
 3219 0485 656E6162 		.ascii	"enableInterrupts\000"
 3219      6C65496E 
 3219      74657272 
 3219      75707473 
 3219      00
 3220              	.LASF36:
 3221 0496 73746174 		.ascii	"status\000"
 3221      757300
 3222              	.LASF77:
 3223 049d 474E5520 		.ascii	"GNU C 4.9.3 20150303 (release) [ARM/embedded-4_9-br"
 3223      4320342E 
 3223      392E3320 
ARM GAS  C:\Users\RECEPC~1\AppData\Local\Temp\cckZkqXS.s 			page 90


 3223      32303135 
 3223      30333033 
 3224 04d0 616E6368 		.ascii	"anch revision 221220] -mcpu=cortex-m3 -mthumb -g -O"
 3224      20726576 
 3224      6973696F 
 3224      6E203232 
 3224      31323230 
 3225 0503 67202D66 		.ascii	"g -ffunction-sections -ffat-lto-objects\000"
 3225      66756E63 
 3225      74696F6E 
 3225      2D736563 
 3225      74696F6E 
 3226              	.LASF70:
 3227 052b 4C43445F 		.ascii	"LCD_1_rxBufferWrite\000"
 3227      315F7278 
 3227      42756666 
 3227      65725772 
 3227      69746500 
 3228              	.LASF24:
 3229 053f 4C43445F 		.ascii	"LCD_1_EnableRxInt\000"
 3229      315F456E 
 3229      61626C65 
 3229      5278496E 
 3229      7400
 3230              	.LASF46:
 3231 0551 61646472 		.ascii	"address\000"
 3231      65737300 
 3232              	.LASF56:
 3233 0559 6275665F 		.ascii	"buf_index\000"
 3233      696E6465 
 3233      7800
 3234              	.LASF69:
 3235 0563 4C43445F 		.ascii	"LCD_1_rxBufferRead\000"
 3235      315F7278 
 3235      42756666 
 3235      65725265 
 3235      616400
 3236              		.ident	"GCC: (GNU Tools for ARM Embedded Processors) 4.9.3 20150303 (release) [ARM/embedded-4_9-br
