ARM GAS  C:\Users\RECEPC~1\AppData\Local\Temp\ccHIf77r.s 			page 1


   1              		.syntax unified
   2              		.cpu cortex-m3
   3              		.fpu softvfp
   4              		.eabi_attribute 20, 1
   5              		.eabi_attribute 21, 1
   6              		.eabi_attribute 23, 3
   7              		.eabi_attribute 24, 1
   8              		.eabi_attribute 25, 1
   9              		.eabi_attribute 26, 1
  10              		.eabi_attribute 30, 1
  11              		.eabi_attribute 34, 1
  12              		.eabi_attribute 18, 4
  13              		.thumb
  14              		.file	"main.c"
  15              		.text
  16              	.Ltext0:
  17              		.cfi_sections	.debug_frame
  18              		.section	.text.init,"ax",%progbits
  19              		.align	2
  20              		.global	init
  21              		.thumb
  22              		.thumb_func
  23              		.type	init, %function
  24              	init:
  25              	.LFB63:
  26              		.file 1 ".\\main.c"
   1:.\main.c      **** /*
   2:.\main.c      **** ***************************************************************************************************
   3:.\main.c      **** *                                           GRP550/700 CODE
   4:.\main.c      **** *
   5:.\main.c      **** *                             (c) Copyright 2016; Sistemas Insepet LTDA
   6:.\main.c      **** *
   7:.\main.c      **** *               All rights reserved.  Protected by international copyright laws.
   8:.\main.c      **** *               Knowledge of the source code may NOT be used to develop a similar product.
   9:.\main.c      **** *               Please help us continue to provide the Embedded community with the finest
  10:.\main.c      **** *               software available.  Your honesty is greatly appreciated.
  11:.\main.c      **** ***************************************************************************************************
  12:.\main.c      **** */
  13:.\main.c      **** 
  14:.\main.c      **** /*
  15:.\main.c      **** ***************************************************************************************************
  16:.\main.c      **** *
  17:.\main.c      **** *                                           GRP 700 Prime CODE
  18:.\main.c      **** *
  19:.\main.c      **** *                                             CYPRESS PSoC5LP
  20:.\main.c      **** *                                                with the
  21:.\main.c      **** *                                            CY8C5969AXI-LP035
  22:.\main.c      **** *
  23:.\main.c      **** * Filename      : main.c
  24:.\main.c      **** * Version       : 1.0.0
  25:.\main.c      **** * Programmer(s) : 
  26:.\main.c      ****                   
  27:.\main.c      **** ***************************************************************************************************
  28:.\main.c      **** */
  29:.\main.c      **** 
  30:.\main.c      **** /*
  31:.\main.c      **** ***************************************************************************************************
ARM GAS  C:\Users\RECEPC~1\AppData\Local\Temp\ccHIf77r.s 			page 2


  32:.\main.c      **** *                                             INCLUDE FILES
  33:.\main.c      **** ***************************************************************************************************
  34:.\main.c      **** */
  35:.\main.c      **** 
  36:.\main.c      **** 
  37:.\main.c      **** #include "Protocolo.h"
  38:.\main.c      **** #include "VariablesG.h"
  39:.\main.c      **** //#include "Print.h"
  40:.\main.c      **** //#include "Sonido.h"
  41:.\main.c      **** #include "LCD.h"
  42:.\main.c      **** //#include "ibutton.h"
  43:.\main.c      **** #include "I2C.h"
  44:.\main.c      **** #include <project.h>
  45:.\main.c      **** 
  46:.\main.c      **** 
  47:.\main.c      **** 
  48:.\main.c      **** 
  49:.\main.c      **** /*
  50:.\main.c      **** ***************************************************************************************************
  51:.\main.c      **** *                                             DECLARACION DE FUNCIONES
  52:.\main.c      **** ***************************************************************************************************
  53:.\main.c      **** */
  54:.\main.c      **** uint8 letras[26]={0x25,0x42,0x31,0x27,0x1D,0x28,0x29,0x2A,0x22,0x2B,0x2C,0x2D,0x35,0x34,0x23,0x24,0
  55:.\main.c      **** uint8 test[18]="Test de Impresora";
  56:.\main.c      **** uint8 puk[8]="18928005";
  57:.\main.c      **** uint8 serial[17]="0FFFFF8FEEBEB2DC0";
  58:.\main.c      **** uint8 pasword_corte[5]={4,'1','2','3','4'};
  59:.\main.c      **** 
  60:.\main.c      **** /*
  61:.\main.c      **** ***************************************************************************************************
  62:.\main.c      **** *                                         init( void )
  63:.\main.c      **** *
  64:.\main.c      **** * Description : Verifica el serial, inicia los perosfericos, la version y los datos de la estación
  65:.\main.c      **** *               
  66:.\main.c      **** *
  67:.\main.c      **** * Argument(s) : none
  68:.\main.c      **** *
  69:.\main.c      **** * Return(s)   : none
  70:.\main.c      **** *
  71:.\main.c      **** * Caller(s)   : main()
  72:.\main.c      **** *
  73:.\main.c      **** * Note(s)     : none.
  74:.\main.c      **** ***************************************************************************************************
  75:.\main.c      **** */
  76:.\main.c      **** void init(void){
  27              		.loc 1 76 0
  28              		.cfi_startproc
  29              		@ args = 0, pretend = 0, frame = 0
  30              		@ frame_needed = 0, uses_anonymous_args = 0
  31 0000 08B5     		push	{r3, lr}
  32              		.cfi_def_cfa_offset 8
  33              		.cfi_offset 3, -8
  34              		.cfi_offset 14, -4
  77:.\main.c      **** 	/****Inicio de perifericos****/
  78:.\main.c      ****     CyGlobalIntEnable;
  35              		.loc 1 78 0
  36              	@ 78 ".\main.c" 1
ARM GAS  C:\Users\RECEPC~1\AppData\Local\Temp\ccHIf77r.s 			page 3


  37 0002 62B6     		CPSIE   i
  38              	@ 0 "" 2
  79:.\main.c      ****     Surtidor_Start();
  39              		.loc 1 79 0
  40              		.thumb
  41 0004 FFF7FEFF 		bl	Surtidor_Start
  42              	.LVL0:
  80:.\main.c      ****     //Impresora_Start();
  81:.\main.c      ****     LCD_1_Start();
  43              		.loc 1 81 0
  44 0008 FFF7FEFF 		bl	LCD_1_Start
  45              	.LVL1:
  82:.\main.c      ****     LCD_2_Start();
  46              		.loc 1 82 0
  47 000c FFF7FEFF 		bl	LCD_2_Start
  48              	.LVL2:
  83:.\main.c      ****     Surtidor_EnableRxInt();    
  49              		.loc 1 83 0
  50 0010 FFF7FEFF 		bl	Surtidor_EnableRxInt
  51              	.LVL3:
  84:.\main.c      ****     //I2C_1_Start();    
  85:.\main.c      ****     //Impresora_EnableRxInt();
  86:.\main.c      ****     LCD_1_EnableRxInt();
  52              		.loc 1 86 0
  53 0014 FFF7FEFF 		bl	LCD_1_EnableRxInt
  54              	.LVL4:
  87:.\main.c      ****     //LCD_2_EnableRxInt();       
  88:.\main.c      ****     CyDelay(5);	
  55              		.loc 1 88 0
  56 0018 0520     		movs	r0, #5
  57 001a FFF7FEFF 		bl	CyDelay
  58              	.LVL5:
  89:.\main.c      ****     a_copias = 0;
  59              		.loc 1 89 0
  60 001e 0022     		movs	r2, #0
  61 0020 014B     		ldr	r3, .L3
  62 0022 1A70     		strb	r2, [r3]
  63 0024 08BD     		pop	{r3, pc}
  64              	.L4:
  65 0026 00BF     		.align	2
  66              	.L3:
  67 0028 00000000 		.word	a_copias
  68              		.cfi_endproc
  69              	.LFE63:
  70              		.size	init, .-init
  71              		.section	.text.init_surt,"ax",%progbits
  72              		.align	2
  73              		.global	init_surt
  74              		.thumb
  75              		.thumb_func
  76              		.type	init_surt, %function
  77              	init_surt:
  78              	.LFB64:
  90:.\main.c      ****     
  91:.\main.c      **** }
  92:.\main.c      **** /*
  93:.\main.c      **** ***************************************************************************************************
ARM GAS  C:\Users\RECEPC~1\AppData\Local\Temp\ccHIf77r.s 			page 4


  94:.\main.c      **** *                                         init_surt( void )
  95:.\main.c      **** *
  96:.\main.c      **** * Description : Busca las posiciones del surtidor y las graba en lado.a.dir y lado.b.dir
  97:.\main.c      **** *               
  98:.\main.c      **** *
  99:.\main.c      **** * Argument(s) : none
 100:.\main.c      **** *
 101:.\main.c      **** * Return(s)   : none
 102:.\main.c      **** *
 103:.\main.c      **** * Caller(s)   : main()
 104:.\main.c      **** *
 105:.\main.c      **** * Note(s)     : Falta generar codigo para los casos 1 y 2
 106:.\main.c      **** ***************************************************************************************************
 107:.\main.c      **** */
 108:.\main.c      **** void init_surt(void){
  79              		.loc 1 108 0
  80              		.cfi_startproc
  81              		@ args = 0, pretend = 0, frame = 0
  82              		@ frame_needed = 0, uses_anonymous_args = 0
  83 0000 10B5     		push	{r4, lr}
  84              		.cfi_def_cfa_offset 8
  85              		.cfi_offset 4, -8
  86              		.cfi_offset 14, -4
  87              	.LVL6:
 109:.\main.c      **** 	uint8 seguir=0;
  88              		.loc 1 109 0
  89 0002 0024     		movs	r4, #0
 110:.\main.c      **** 	while(seguir==0){
  90              		.loc 1 110 0
  91 0004 56E0     		b	.L7
  92              	.LVL7:
  93              	.L14:
 111:.\main.c      **** 		switch(ver_pos()){
  94              		.loc 1 111 0
  95 0006 FFF7FEFF 		bl	ver_pos
  96              	.LVL8:
  97 000a 0128     		cmp	r0, #1
  98 000c 0BD0     		beq	.L8
  99 000e 10B1     		cbz	r0, .L9
 100 0010 0228     		cmp	r0, #2
 101 0012 26D0     		beq	.L10
 102 0014 4EE0     		b	.L7
 103              	.L9:
 112:.\main.c      **** 			case 0:
 113:.\main.c      ****                 CyDelay(100);
 104              		.loc 1 113 0
 105 0016 6420     		movs	r0, #100
 106 0018 FFF7FEFF 		bl	CyDelay
 107              	.LVL9:
 114:.\main.c      **** 			    set_imagen(1,79);						//mostrar error de comunicacion
 108              		.loc 1 114 0
 109 001c 0120     		movs	r0, #1
 110 001e 4F21     		movs	r1, #79
 111 0020 FFF7FEFF 		bl	set_imagen
 112              	.LVL10:
 115:.\main.c      ****                 seguir = 0;
 116:.\main.c      **** 			break;
ARM GAS  C:\Users\RECEPC~1\AppData\Local\Temp\ccHIf77r.s 			page 5


 113              		.loc 1 116 0
 114 0024 46E0     		b	.L7
 115              	.LVL11:
 116              	.L8:
 117:.\main.c      **** 			
 118:.\main.c      **** 			case 1:
 119:.\main.c      **** 			CyDelay(100);
 117              		.loc 1 119 0
 118 0026 6420     		movs	r0, #100
 119 0028 FFF7FEFF 		bl	CyDelay
 120              	.LVL12:
 120:.\main.c      **** 			if(get_estado(a.dir)==6 && get_estado(b.dir)==6 ){	
 121              		.loc 1 120 0
 122 002c 234B     		ldr	r3, .L16
 123 002e 1878     		ldrb	r0, [r3]	@ zero_extendqisi2
 124 0030 FFF7FEFF 		bl	get_estado
 125              	.LVL13:
 126 0034 0628     		cmp	r0, #6
 127 0036 0FD1     		bne	.L12
 128              		.loc 1 120 0 is_stmt 0 discriminator 1
 129 0038 214B     		ldr	r3, .L16+4
 130 003a 1878     		ldrb	r0, [r3]	@ zero_extendqisi2
 131 003c FFF7FEFF 		bl	get_estado
 132              	.LVL14:
 133 0040 0628     		cmp	r0, #6
 134 0042 09D1     		bne	.L12
 135              	.LVL15:
 121:.\main.c      **** 				seguir = 1;
 122:.\main.c      ****                 set_imagen(1,60); 
 136              		.loc 1 122 0 is_stmt 1
 137 0044 0120     		movs	r0, #1
 138 0046 3C21     		movs	r1, #60
 139 0048 FFF7FEFF 		bl	set_imagen
 140              	.LVL16:
 123:.\main.c      ****                 set_imagen(2,60); 
 141              		.loc 1 123 0
 142 004c 0220     		movs	r0, #2
 143 004e 3C21     		movs	r1, #60
 144 0050 FFF7FEFF 		bl	set_imagen
 145              	.LVL17:
 121:.\main.c      **** 				seguir = 1;
 146              		.loc 1 121 0
 147 0054 0124     		movs	r4, #1
 148              		.loc 1 123 0
 149 0056 2DE0     		b	.L7
 150              	.LVL18:
 151              	.L12:
 124:.\main.c      **** 			}else{
 125:.\main.c      ****                 set_imagen(1,85);
 152              		.loc 1 125 0
 153 0058 0120     		movs	r0, #1
 154 005a 5521     		movs	r1, #85
 155 005c FFF7FEFF 		bl	set_imagen
 156              	.LVL19:
 157 0060 28E0     		b	.L7
 158              	.L10:
 126:.\main.c      ****             }
ARM GAS  C:\Users\RECEPC~1\AppData\Local\Temp\ccHIf77r.s 			page 6


 127:.\main.c      **** 			break;
 128:.\main.c      **** 			
 129:.\main.c      **** 			case 2:
 130:.\main.c      **** 			CyDelay(100);
 159              		.loc 1 130 0
 160 0062 6420     		movs	r0, #100
 161 0064 FFF7FEFF 		bl	CyDelay
 162              	.LVL20:
 131:.\main.c      **** 			if(get_estado(a.dir)==6 && get_estado(b.dir)==6 && get_estado(c.dir)==6 && get_estado(d.dir)==6 
 163              		.loc 1 131 0
 164 0068 144B     		ldr	r3, .L16
 165 006a 1878     		ldrb	r0, [r3]	@ zero_extendqisi2
 166 006c FFF7FEFF 		bl	get_estado
 167              	.LVL21:
 168 0070 0628     		cmp	r0, #6
 169 0072 1BD1     		bne	.L13
 170              		.loc 1 131 0 is_stmt 0 discriminator 1
 171 0074 124B     		ldr	r3, .L16+4
 172 0076 1878     		ldrb	r0, [r3]	@ zero_extendqisi2
 173 0078 FFF7FEFF 		bl	get_estado
 174              	.LVL22:
 175 007c 0628     		cmp	r0, #6
 176 007e 15D1     		bne	.L13
 177              		.loc 1 131 0 discriminator 2
 178 0080 104B     		ldr	r3, .L16+8
 179 0082 1878     		ldrb	r0, [r3]	@ zero_extendqisi2
 180 0084 FFF7FEFF 		bl	get_estado
 181              	.LVL23:
 182 0088 0628     		cmp	r0, #6
 183 008a 0FD1     		bne	.L13
 184              		.loc 1 131 0 discriminator 3
 185 008c 0E4B     		ldr	r3, .L16+12
 186 008e 1878     		ldrb	r0, [r3]	@ zero_extendqisi2
 187 0090 FFF7FEFF 		bl	get_estado
 188              	.LVL24:
 189 0094 0628     		cmp	r0, #6
 190 0096 09D1     		bne	.L13
 191              	.LVL25:
 132:.\main.c      **** 				seguir = 2;
 133:.\main.c      ****                 set_imagen(1,74);
 192              		.loc 1 133 0 is_stmt 1
 193 0098 0120     		movs	r0, #1
 194 009a 4A21     		movs	r1, #74
 195 009c FFF7FEFF 		bl	set_imagen
 196              	.LVL26:
 134:.\main.c      ****                 set_imagen(2,74);
 197              		.loc 1 134 0
 198 00a0 0220     		movs	r0, #2
 199 00a2 4A21     		movs	r1, #74
 200 00a4 FFF7FEFF 		bl	set_imagen
 201              	.LVL27:
 132:.\main.c      **** 				seguir = 2;
 202              		.loc 1 132 0
 203 00a8 0224     		movs	r4, #2
 204              		.loc 1 134 0
 205 00aa 03E0     		b	.L7
 206              	.LVL28:
ARM GAS  C:\Users\RECEPC~1\AppData\Local\Temp\ccHIf77r.s 			page 7


 207              	.L13:
 135:.\main.c      **** 			}else{
 136:.\main.c      ****                 set_imagen(1,85);
 208              		.loc 1 136 0
 209 00ac 0120     		movs	r0, #1
 210 00ae 5521     		movs	r1, #85
 211 00b0 FFF7FEFF 		bl	set_imagen
 212              	.LVL29:
 213              	.L7:
 110:.\main.c      **** 		switch(ver_pos()){
 214              		.loc 1 110 0
 215 00b4 002C     		cmp	r4, #0
 216 00b6 A6D0     		beq	.L14
 137:.\main.c      ****             }
 138:.\main.c      ****             
 139:.\main.c      **** 			break;
 140:.\main.c      **** 		}
 141:.\main.c      **** 	}		
 142:.\main.c      **** }
 217              		.loc 1 142 0
 218 00b8 10BD     		pop	{r4, pc}
 219              	.LVL30:
 220              	.L17:
 221 00ba 00BF     		.align	2
 222              	.L16:
 223 00bc 00000000 		.word	a
 224 00c0 00000000 		.word	b
 225 00c4 00000000 		.word	c
 226 00c8 00000000 		.word	d
 227              		.cfi_endproc
 228              	.LFE64:
 229              		.size	init_surt, .-init_surt
 230              		.section	.text.init_pantallas,"ax",%progbits
 231              		.align	2
 232              		.global	init_pantallas
 233              		.thumb
 234              		.thumb_func
 235              		.type	init_pantallas, %function
 236              	init_pantallas:
 237              	.LFB65:
 143:.\main.c      **** /*
 144:.\main.c      **** ***************************************************************************************************
 145:.\main.c      **** *                                         init_pantallas( void )
 146:.\main.c      **** *
 147:.\main.c      **** * Description : Inicio de las pantallas por primera vez, las deja listas para iniciar venta y reini
 148:.\main.c      **** *               flujo de los LCD
 149:.\main.c      **** *
 150:.\main.c      **** * Argument(s) : none
 151:.\main.c      **** *
 152:.\main.c      **** * Return(s)   : none
 153:.\main.c      **** *
 154:.\main.c      **** * Caller(s)   : main()
 155:.\main.c      **** *
 156:.\main.c      **** * Note(s)     : Falta generar codigo para los casos 1 y 2
 157:.\main.c      **** ***************************************************************************************************
 158:.\main.c      **** */
 159:.\main.c      **** void init_pantallas(void){
ARM GAS  C:\Users\RECEPC~1\AppData\Local\Temp\ccHIf77r.s 			page 8


 238              		.loc 1 159 0
 239              		.cfi_startproc
 240              		@ args = 0, pretend = 0, frame = 0
 241              		@ frame_needed = 0, uses_anonymous_args = 0
 242 0000 08B5     		push	{r3, lr}
 243              		.cfi_def_cfa_offset 8
 244              		.cfi_offset 3, -8
 245              		.cfi_offset 14, -4
 160:.\main.c      ****     flujo_LCD  = 0;
 246              		.loc 1 160 0
 247 0002 0023     		movs	r3, #0
 248 0004 0A4A     		ldr	r2, .L20
 249 0006 1370     		strb	r3, [r2]
 161:.\main.c      ****     flujo_LCD2 = 0;    
 250              		.loc 1 161 0
 251 0008 0A4A     		ldr	r2, .L20+4
 252 000a 1370     		strb	r3, [r2]
 162:.\main.c      ****     CyDelay(500);
 253              		.loc 1 162 0
 254 000c 4FF4FA70 		mov	r0, #500
 255 0010 FFF7FEFF 		bl	CyDelay
 256              	.LVL31:
 163:.\main.c      ****     set_imagen(1,46);
 257              		.loc 1 163 0
 258 0014 0120     		movs	r0, #1
 259 0016 2E21     		movs	r1, #46
 260 0018 FFF7FEFF 		bl	set_imagen
 261              	.LVL32:
 164:.\main.c      ****     CyDelay(500);
 262              		.loc 1 164 0
 263 001c 4FF4FA70 		mov	r0, #500
 264 0020 FFF7FEFF 		bl	CyDelay
 265              	.LVL33:
 165:.\main.c      ****     set_imagen(2,46);    
 266              		.loc 1 165 0
 267 0024 0220     		movs	r0, #2
 268 0026 2E21     		movs	r1, #46
 269 0028 FFF7FEFF 		bl	set_imagen
 270              	.LVL34:
 271 002c 08BD     		pop	{r3, pc}
 272              	.L21:
 273 002e 00BF     		.align	2
 274              	.L20:
 275 0030 00000000 		.word	flujo_LCD
 276 0034 00000000 		.word	flujo_LCD2
 277              		.cfi_endproc
 278              	.LFE65:
 279              		.size	init_pantallas, .-init_pantallas
 280              		.section	.text.polling_pos1,"ax",%progbits
 281              		.align	2
 282              		.global	polling_pos1
 283              		.thumb
 284              		.thumb_func
 285              		.type	polling_pos1, %function
 286              	polling_pos1:
 287              	.LFB66:
 166:.\main.c      **** }
ARM GAS  C:\Users\RECEPC~1\AppData\Local\Temp\ccHIf77r.s 			page 9


 167:.\main.c      **** 
 168:.\main.c      **** 
 169:.\main.c      **** 
 170:.\main.c      **** /*
 171:.\main.c      **** ***************************************************************************************************
 172:.\main.c      **** *                                         void polling_pos1(void)
 173:.\main.c      **** *
 174:.\main.c      **** * Description : 
 175:.\main.c      **** *               
 176:.\main.c      **** *
 177:.\main.c      **** * Argument(s) : none
 178:.\main.c      **** *
 179:.\main.c      **** * Return(s)   : none
 180:.\main.c      **** *
 181:.\main.c      **** * Caller(s)   : 
 182:.\main.c      **** *
 183:.\main.c      **** * Note(s)     : none.
 184:.\main.c      **** ***************************************************************************************************
 185:.\main.c      **** */
 186:.\main.c      **** 
 187:.\main.c      **** void polling_pos1(void){
 288              		.loc 1 187 0
 289              		.cfi_startproc
 290              		@ args = 0, pretend = 0, frame = 0
 291              		@ frame_needed = 0, uses_anonymous_args = 0
 292 0000 10B5     		push	{r4, lr}
 293              		.cfi_def_cfa_offset 8
 294              		.cfi_offset 4, -8
 295              		.cfi_offset 14, -4
 188:.\main.c      ****     
 189:.\main.c      ****     switch(flujo_LCD){ 
 296              		.loc 1 189 0
 297 0002 A74B     		ldr	r3, .L73
 298 0004 1B78     		ldrb	r3, [r3]	@ zero_extendqisi2
 299 0006 0A2B     		cmp	r3, #10
 300 0008 00F20D83 		bhi	.L22
 301 000c DFE813F0 		tbh	[pc, r3, lsl #1]
 302              	.L25:
 303 0010 0B00     		.2byte	(.L24-.L25)/2
 304 0012 4700     		.2byte	(.L26-.L25)/2
 305 0014 7800     		.2byte	(.L27-.L25)/2
 306 0016 0B03     		.2byte	(.L22-.L25)/2
 307 0018 B300     		.2byte	(.L28-.L25)/2
 308 001a 0B03     		.2byte	(.L22-.L25)/2
 309 001c 2301     		.2byte	(.L29-.L25)/2
 310 001e 8801     		.2byte	(.L30-.L25)/2
 311 0020 0B03     		.2byte	(.L22-.L25)/2
 312 0022 FF01     		.2byte	(.L31-.L25)/2
 313 0024 CA02     		.2byte	(.L32-.L25)/2
 314              		.p2align 1
 315              	.L24:
 190:.\main.c      ****         case 0:            
 191:.\main.c      **** 		    if(LCD_1_GetRxBufferSize()==8){
 316              		.loc 1 191 0
 317 0026 FFF7FEFF 		bl	LCD_1_GetRxBufferSize
 318              	.LVL35:
 319 002a 0828     		cmp	r0, #8
ARM GAS  C:\Users\RECEPC~1\AppData\Local\Temp\ccHIf77r.s 			page 10


 320 002c 40F0FB82 		bne	.L22
 192:.\main.c      ****                 if((LCD_1_rxBuffer[0]==0xAA) && (LCD_1_rxBuffer[6]==0xC3) && (LCD_1_rxBuffer[7]==0x
 321              		.loc 1 192 0
 322 0030 9C4B     		ldr	r3, .L73+4
 323 0032 1B78     		ldrb	r3, [r3]	@ zero_extendqisi2
 324 0034 DBB2     		uxtb	r3, r3
 325 0036 AA2B     		cmp	r3, #170
 326 0038 2BD1     		bne	.L33
 327              		.loc 1 192 0 is_stmt 0 discriminator 1
 328 003a 9A4B     		ldr	r3, .L73+4
 329 003c 9B79     		ldrb	r3, [r3, #6]	@ zero_extendqisi2
 330 003e DBB2     		uxtb	r3, r3
 331 0040 C32B     		cmp	r3, #195
 332 0042 26D1     		bne	.L33
 333              		.loc 1 192 0 discriminator 2
 334 0044 974B     		ldr	r3, .L73+4
 335 0046 DB79     		ldrb	r3, [r3, #7]	@ zero_extendqisi2
 336 0048 DBB2     		uxtb	r3, r3
 337 004a 3C2B     		cmp	r3, #60
 338 004c 21D1     		bne	.L33
 193:.\main.c      ****                     switch(LCD_1_rxBuffer[3]){
 339              		.loc 1 193 0 is_stmt 1
 340 004e 954B     		ldr	r3, .L73+4
 341 0050 DB78     		ldrb	r3, [r3, #3]	@ zero_extendqisi2
 342 0052 DBB2     		uxtb	r3, r3
 343 0054 562B     		cmp	r3, #86
 344 0056 02D0     		beq	.L34
 345 0058 572B     		cmp	r3, #87
 346 005a 0DD0     		beq	.L35
 347 005c 19E0     		b	.L33
 348              	.L34:
 194:.\main.c      **** 				        case 0x56:						//POS A
 195:.\main.c      ****                             set_imagen(1,99);           //Inicio opciones GRP 700
 349              		.loc 1 195 0
 350 005e 0120     		movs	r0, #1
 351 0060 6321     		movs	r1, #99
 352 0062 FFF7FEFF 		bl	set_imagen
 353              	.LVL36:
 196:.\main.c      ****                             seleccion_pos = 1;
 354              		.loc 1 196 0
 355 0066 0123     		movs	r3, #1
 356 0068 8F4A     		ldr	r2, .L73+8
 357 006a 1370     		strb	r3, [r2]
 197:.\main.c      **** 					        flujo_LCD  = 1;
 358              		.loc 1 197 0
 359 006c 8C4A     		ldr	r2, .L73
 360 006e 1370     		strb	r3, [r2]
 198:.\main.c      ****                             flujo_LCD2 = 0;
 361              		.loc 1 198 0
 362 0070 0022     		movs	r2, #0
 363 0072 8E4B     		ldr	r3, .L73+12
 364 0074 1A70     		strb	r2, [r3]
 199:.\main.c      **** 					    break;
 365              		.loc 1 199 0
 366 0076 0CE0     		b	.L33
 367              	.L35:
 200:.\main.c      ****                             		       
ARM GAS  C:\Users\RECEPC~1\AppData\Local\Temp\ccHIf77r.s 			page 11


 201:.\main.c      **** 					    case 0x57:  				    //POS B
 202:.\main.c      ****                             set_imagen(1,99);           //Inicio opciones GRP 700
 368              		.loc 1 202 0
 369 0078 0120     		movs	r0, #1
 370 007a 6321     		movs	r1, #99
 371 007c FFF7FEFF 		bl	set_imagen
 372              	.LVL37:
 203:.\main.c      **** 							seleccion_pos = 2;	
 373              		.loc 1 203 0
 374 0080 0222     		movs	r2, #2
 375 0082 894B     		ldr	r3, .L73+8
 376 0084 1A70     		strb	r2, [r3]
 204:.\main.c      ****                             flujo_LCD  = 0;
 377              		.loc 1 204 0
 378 0086 0022     		movs	r2, #0
 379 0088 854B     		ldr	r3, .L73
 380 008a 1A70     		strb	r2, [r3]
 205:.\main.c      ****                             flujo_LCD2 = 1;
 381              		.loc 1 205 0
 382 008c 0122     		movs	r2, #1
 383 008e 874B     		ldr	r3, .L73+12
 384 0090 1A70     		strb	r2, [r3]
 385              	.L33:
 206:.\main.c      **** 					    break;
 207:.\main.c      ****                                                    
 208:.\main.c      **** 				    }
 209:.\main.c      **** 			    }
 210:.\main.c      ****                 CyDelay(100);
 386              		.loc 1 210 0
 387 0092 6420     		movs	r0, #100
 388 0094 FFF7FEFF 		bl	CyDelay
 389              	.LVL38:
 211:.\main.c      **** 			    LCD_1_ClearRxBuffer();
 390              		.loc 1 211 0
 391 0098 FFF7FEFF 		bl	LCD_1_ClearRxBuffer
 392              	.LVL39:
 393 009c 10BD     		pop	{r4, pc}
 394              	.L26:
 212:.\main.c      **** 		    }	                    
 213:.\main.c      ****         break;
 214:.\main.c      ****             
 215:.\main.c      ****         case 1:
 216:.\main.c      ****             if(LCD_1_GetRxBufferSize()==8){
 395              		.loc 1 216 0
 396 009e FFF7FEFF 		bl	LCD_1_GetRxBufferSize
 397              	.LVL40:
 398 00a2 0828     		cmp	r0, #8
 399 00a4 40F0BF82 		bne	.L22
 217:.\main.c      ****                 if((LCD_1_rxBuffer[0]==0xAA) && (LCD_1_rxBuffer[6]==0xC3) && (LCD_1_rxBuffer[7]==0x
 400              		.loc 1 217 0
 401 00a8 7E4B     		ldr	r3, .L73+4
 402 00aa 1B78     		ldrb	r3, [r3]	@ zero_extendqisi2
 403 00ac DBB2     		uxtb	r3, r3
 404 00ae AA2B     		cmp	r3, #170
 405 00b0 20D1     		bne	.L36
 406              		.loc 1 217 0 is_stmt 0 discriminator 1
 407 00b2 7C4B     		ldr	r3, .L73+4
ARM GAS  C:\Users\RECEPC~1\AppData\Local\Temp\ccHIf77r.s 			page 12


 408 00b4 9B79     		ldrb	r3, [r3, #6]	@ zero_extendqisi2
 409 00b6 DBB2     		uxtb	r3, r3
 410 00b8 C32B     		cmp	r3, #195
 411 00ba 1BD1     		bne	.L36
 412              		.loc 1 217 0 discriminator 2
 413 00bc 794B     		ldr	r3, .L73+4
 414 00be DB79     		ldrb	r3, [r3, #7]	@ zero_extendqisi2
 415 00c0 DBB2     		uxtb	r3, r3
 416 00c2 3C2B     		cmp	r3, #60
 417 00c4 16D1     		bne	.L36
 218:.\main.c      ****                     switch(LCD_1_rxBuffer[3]){
 418              		.loc 1 218 0 is_stmt 1
 419 00c6 774B     		ldr	r3, .L73+4
 420 00c8 DB78     		ldrb	r3, [r3, #3]	@ zero_extendqisi2
 421 00ca DBB2     		uxtb	r3, r3
 422 00cc 5C2B     		cmp	r3, #92
 423 00ce 02D0     		beq	.L37
 424 00d0 7E2B     		cmp	r3, #126
 425 00d2 08D0     		beq	.L38
 426 00d4 0EE0     		b	.L36
 427              	.L37:
 219:.\main.c      ****                         case 0x5C:
 220:.\main.c      ****                             set_imagen(1,73);  //Seleccion de tipo de venta
 428              		.loc 1 220 0
 429 00d6 0120     		movs	r0, #1
 430 00d8 4921     		movs	r1, #73
 431 00da FFF7FEFF 		bl	set_imagen
 432              	.LVL41:
 221:.\main.c      ****                             flujo_LCD = 2;
 433              		.loc 1 221 0
 434 00de 0222     		movs	r2, #2
 435 00e0 6F4B     		ldr	r3, .L73
 436 00e2 1A70     		strb	r2, [r3]
 222:.\main.c      ****                         break;
 437              		.loc 1 222 0
 438 00e4 06E0     		b	.L36
 439              	.L38:
 223:.\main.c      ****                     
 224:.\main.c      ****                         case 0x7E:
 225:.\main.c      ****                             set_imagen(1,46); //Regreso a pantalla de selección de posición
 440              		.loc 1 225 0
 441 00e6 0120     		movs	r0, #1
 442 00e8 2E21     		movs	r1, #46
 443 00ea FFF7FEFF 		bl	set_imagen
 444              	.LVL42:
 226:.\main.c      ****                             flujo_LCD = 0;
 445              		.loc 1 226 0
 446 00ee 0022     		movs	r2, #0
 447 00f0 6B4B     		ldr	r3, .L73
 448 00f2 1A70     		strb	r2, [r3]
 449              	.L36:
 227:.\main.c      ****                         break;
 228:.\main.c      ****                 }
 229:.\main.c      ****             }
 230:.\main.c      ****             CyDelay(100);
 450              		.loc 1 230 0
 451 00f4 6420     		movs	r0, #100
ARM GAS  C:\Users\RECEPC~1\AppData\Local\Temp\ccHIf77r.s 			page 13


 452 00f6 FFF7FEFF 		bl	CyDelay
 453              	.LVL43:
 231:.\main.c      ****             LCD_1_ClearRxBuffer();
 454              		.loc 1 231 0
 455 00fa FFF7FEFF 		bl	LCD_1_ClearRxBuffer
 456              	.LVL44:
 457 00fe 10BD     		pop	{r4, pc}
 458              	.L27:
 232:.\main.c      ****         }
 233:.\main.c      ****         break;
 234:.\main.c      ****         
 235:.\main.c      ****         case 2:     
 236:.\main.c      ****          if(LCD_1_GetRxBufferSize()==8){
 459              		.loc 1 236 0
 460 0100 FFF7FEFF 		bl	LCD_1_GetRxBufferSize
 461              	.LVL45:
 462 0104 0828     		cmp	r0, #8
 463 0106 40F08E82 		bne	.L22
 237:.\main.c      ****             if((LCD_1_rxBuffer[0]==0xAA) && (LCD_1_rxBuffer[6]==0xC3) && (LCD_1_rxBuffer[7]==0x3C))
 464              		.loc 1 237 0
 465 010a 664B     		ldr	r3, .L73+4
 466 010c 1B78     		ldrb	r3, [r3]	@ zero_extendqisi2
 467 010e DBB2     		uxtb	r3, r3
 468 0110 AA2B     		cmp	r3, #170
 469 0112 2AD1     		bne	.L39
 470              		.loc 1 237 0 is_stmt 0 discriminator 1
 471 0114 634B     		ldr	r3, .L73+4
 472 0116 9B79     		ldrb	r3, [r3, #6]	@ zero_extendqisi2
 473 0118 DBB2     		uxtb	r3, r3
 474 011a C32B     		cmp	r3, #195
 475 011c 25D1     		bne	.L39
 476              		.loc 1 237 0 discriminator 2
 477 011e 614B     		ldr	r3, .L73+4
 478 0120 DB79     		ldrb	r3, [r3, #7]	@ zero_extendqisi2
 479 0122 DBB2     		uxtb	r3, r3
 480 0124 3C2B     		cmp	r3, #60
 481 0126 20D1     		bne	.L39
 238:.\main.c      ****                 switch(LCD_1_rxBuffer[3]){
 482              		.loc 1 238 0 is_stmt 1
 483 0128 5E4B     		ldr	r3, .L73+4
 484 012a DB78     		ldrb	r3, [r3, #3]	@ zero_extendqisi2
 485 012c DBB2     		uxtb	r3, r3
 486 012e 5F2B     		cmp	r3, #95
 487 0130 04D0     		beq	.L40
 488 0132 7E2B     		cmp	r3, #126
 489 0134 12D0     		beq	.L41
 490 0136 5E2B     		cmp	r3, #94
 491 0138 17D1     		bne	.L39
 492 013a 07E0     		b	.L42
 493              	.L40:
 239:.\main.c      ****                     case 0x5F:								 	 //Sin ID	                                                 
 240:.\main.c      ****                       set_imagen(1,11);                       
 494              		.loc 1 240 0
 495 013c 0120     		movs	r0, #1
 496 013e 0B21     		movs	r1, #11
 497 0140 FFF7FEFF 		bl	set_imagen
 498              	.LVL46:
ARM GAS  C:\Users\RECEPC~1\AppData\Local\Temp\ccHIf77r.s 			page 14


 241:.\main.c      ****                       flujo_LCD=10; 
 499              		.loc 1 241 0
 500 0144 0A22     		movs	r2, #10
 501 0146 564B     		ldr	r3, .L73
 502 0148 1A70     		strb	r2, [r3]
 242:.\main.c      ****                     break;
 503              		.loc 1 242 0
 504 014a 0EE0     		b	.L39
 505              	.L42:
 243:.\main.c      ****                     
 244:.\main.c      ****                     case 0x5E:  								//Con ID                                         
 245:.\main.c      ****                       set_imagen(1,29);
 506              		.loc 1 245 0
 507 014c 0120     		movs	r0, #1
 508 014e 1D21     		movs	r1, #29
 509 0150 FFF7FEFF 		bl	set_imagen
 510              	.LVL47:
 246:.\main.c      ****                       flujo_LCD=11;
 511              		.loc 1 246 0
 512 0154 0B22     		movs	r2, #11
 513 0156 524B     		ldr	r3, .L73
 514 0158 1A70     		strb	r2, [r3]
 247:.\main.c      ****                     break;	
 515              		.loc 1 247 0
 516 015a 06E0     		b	.L39
 517              	.L41:
 248:.\main.c      **** 
 249:.\main.c      ****                     case 0x7E:									//ir a menu
 250:.\main.c      **** 					  set_imagen(1,46);	
 518              		.loc 1 250 0
 519 015c 0120     		movs	r0, #1
 520 015e 2E21     		movs	r1, #46
 521 0160 FFF7FEFF 		bl	set_imagen
 522              	.LVL48:
 251:.\main.c      ****                       flujo_LCD=0;     
 523              		.loc 1 251 0
 524 0164 0022     		movs	r2, #0
 525 0166 4E4B     		ldr	r3, .L73
 526 0168 1A70     		strb	r2, [r3]
 527              	.L39:
 252:.\main.c      ****                     break;	
 253:.\main.c      ****                 }
 254:.\main.c      ****             }
 255:.\main.c      ****             CyDelay(100);
 528              		.loc 1 255 0
 529 016a 6420     		movs	r0, #100
 530 016c FFF7FEFF 		bl	CyDelay
 531              	.LVL49:
 256:.\main.c      ****             LCD_1_ClearRxBuffer();
 532              		.loc 1 256 0
 533 0170 FFF7FEFF 		bl	LCD_1_ClearRxBuffer
 534              	.LVL50:
 535 0174 10BD     		pop	{r4, pc}
 536              	.L28:
 257:.\main.c      ****         }        
 258:.\main.c      ****         break;
 259:.\main.c      ****         
ARM GAS  C:\Users\RECEPC~1\AppData\Local\Temp\ccHIf77r.s 			page 15


 260:.\main.c      ****         case 4:   
 261:.\main.c      ****             if(LCD_1_GetRxBufferSize()==8){
 537              		.loc 1 261 0
 538 0176 FFF7FEFF 		bl	LCD_1_GetRxBufferSize
 539              	.LVL51:
 540 017a 0828     		cmp	r0, #8
 541 017c 40F05382 		bne	.L22
 262:.\main.c      ****                 if((LCD_1_rxBuffer[0]==0xAA) && (LCD_1_rxBuffer[6]==0xC3) && (LCD_1_rxBuffer[7]==0x
 542              		.loc 1 262 0
 543 0180 484B     		ldr	r3, .L73+4
 544 0182 1B78     		ldrb	r3, [r3]	@ zero_extendqisi2
 545 0184 DBB2     		uxtb	r3, r3
 546 0186 AA2B     		cmp	r3, #170
 547 0188 5FD1     		bne	.L43
 548              		.loc 1 262 0 is_stmt 0 discriminator 1
 549 018a 464B     		ldr	r3, .L73+4
 550 018c 9B79     		ldrb	r3, [r3, #6]	@ zero_extendqisi2
 551 018e DBB2     		uxtb	r3, r3
 552 0190 C32B     		cmp	r3, #195
 553 0192 5AD1     		bne	.L43
 554              		.loc 1 262 0 discriminator 2
 555 0194 434B     		ldr	r3, .L73+4
 556 0196 DB79     		ldrb	r3, [r3, #7]	@ zero_extendqisi2
 557 0198 DBB2     		uxtb	r3, r3
 558 019a 3C2B     		cmp	r3, #60
 559 019c 55D1     		bne	.L43
 263:.\main.c      **** 				    Buffer_LCD1.preset&=0xFC;
 560              		.loc 1 263 0 is_stmt 1
 561 019e 444A     		ldr	r2, .L73+16
 562 01a0 D378     		ldrb	r3, [r2, #3]	@ zero_extendqisi2
 563 01a2 23F00303 		bic	r3, r3, #3
 564 01a6 D370     		strb	r3, [r2, #3]
 264:.\main.c      ****                     switch(LCD_1_rxBuffer[3]){
 565              		.loc 1 264 0
 566 01a8 3E4B     		ldr	r3, .L73+4
 567 01aa DB78     		ldrb	r3, [r3, #3]	@ zero_extendqisi2
 568 01ac DBB2     		uxtb	r3, r3
 569 01ae 3B2B     		cmp	r3, #59
 570 01b0 3CD0     		beq	.L44
 571 01b2 04D8     		bhi	.L45
 572 01b4 0F2B     		cmp	r3, #15
 573 01b6 07D0     		beq	.L46
 574 01b8 102B     		cmp	r3, #16
 575 01ba 19D0     		beq	.L47
 576 01bc 45E0     		b	.L43
 577              	.L45:
 578 01be 432B     		cmp	r3, #67
 579 01c0 2CD0     		beq	.L48
 580 01c2 7E2B     		cmp	r3, #126
 581 01c4 3AD0     		beq	.L49
 582 01c6 40E0     		b	.L43
 583              	.L46:
 265:.\main.c      ****                         case 0x0F:		   					 	 //Preset por dinero	                               
 266:.\main.c      ****                             set_imagen(1,6);                   
 584              		.loc 1 266 0
 585 01c8 0120     		movs	r0, #1
 586 01ca 0621     		movs	r1, #6
ARM GAS  C:\Users\RECEPC~1\AppData\Local\Temp\ccHIf77r.s 			page 16


 587 01cc FFF7FEFF 		bl	set_imagen
 588              	.LVL52:
 267:.\main.c      ****                             teclas1=0;                           //Inicia el contador de teclas    
 589              		.loc 1 267 0
 590 01d0 0022     		movs	r2, #0
 591 01d2 384B     		ldr	r3, .L73+20
 592 01d4 1A70     		strb	r2, [r3]
 268:.\main.c      ****                             write_LCD(1,'$',0);
 593              		.loc 1 268 0
 594 01d6 0120     		movs	r0, #1
 595 01d8 2421     		movs	r1, #36
 596 01da FFF7FEFF 		bl	write_LCD
 597              	.LVL53:
 269:.\main.c      **** 					        Buffer_LCD1.preset|=2;
 598              		.loc 1 269 0
 599 01de 344A     		ldr	r2, .L73+16
 600 01e0 D378     		ldrb	r3, [r2, #3]	@ zero_extendqisi2
 601 01e2 43F00203 		orr	r3, r3, #2
 602 01e6 D370     		strb	r3, [r2, #3]
 270:.\main.c      ****                             flujo_LCD=5;   
 603              		.loc 1 270 0
 604 01e8 0522     		movs	r2, #5
 605 01ea 2D4B     		ldr	r3, .L73
 606 01ec 1A70     		strb	r2, [r3]
 271:.\main.c      ****                         break;
 607              		.loc 1 271 0
 608 01ee 2CE0     		b	.L43
 609              	.L47:
 272:.\main.c      ****                     
 273:.\main.c      ****                         case 0x10:  	                         //Inicia el contador de teclas
 274:.\main.c      ****                             set_imagen(1,13);              
 610              		.loc 1 274 0
 611 01f0 0120     		movs	r0, #1
 612 01f2 0D21     		movs	r1, #13
 613 01f4 FFF7FEFF 		bl	set_imagen
 614              	.LVL54:
 275:.\main.c      ****                             teclas1=0;       
 615              		.loc 1 275 0
 616 01f8 0022     		movs	r2, #0
 617 01fa 2E4B     		ldr	r3, .L73+20
 618 01fc 1A70     		strb	r2, [r3]
 276:.\main.c      ****                             comas1=0;
 619              		.loc 1 276 0
 620 01fe 2E4B     		ldr	r3, .L73+24
 621 0200 1A70     		strb	r2, [r3]
 277:.\main.c      ****                             write_LCD(1,'G',0);
 622              		.loc 1 277 0
 623 0202 0120     		movs	r0, #1
 624 0204 4721     		movs	r1, #71
 625 0206 FFF7FEFF 		bl	write_LCD
 626              	.LVL55:
 278:.\main.c      **** 					        Buffer_LCD1.preset|=1;				 // Preset por volumen
 627              		.loc 1 278 0
 628 020a 294A     		ldr	r2, .L73+16
 629 020c D378     		ldrb	r3, [r2, #3]	@ zero_extendqisi2
 630 020e 43F00103 		orr	r3, r3, #1
 631 0212 D370     		strb	r3, [r2, #3]
ARM GAS  C:\Users\RECEPC~1\AppData\Local\Temp\ccHIf77r.s 			page 17


 279:.\main.c      ****                             flujo_LCD=5;   
 632              		.loc 1 279 0
 633 0214 0522     		movs	r2, #5
 634 0216 224B     		ldr	r3, .L73
 635 0218 1A70     		strb	r2, [r3]
 280:.\main.c      ****                         break;
 636              		.loc 1 280 0
 637 021a 16E0     		b	.L43
 638              	.L48:
 281:.\main.c      ****                     
 282:.\main.c      ****                         case 0x43:  	                                     
 283:.\main.c      ****                             set_imagen(1,7);					 //Full
 639              		.loc 1 283 0
 640 021c 0120     		movs	r0, #1
 641 021e 0721     		movs	r1, #7
 642 0220 FFF7FEFF 		bl	set_imagen
 643              	.LVL56:
 284:.\main.c      ****                             flujo_LCD = 6;    
 644              		.loc 1 284 0
 645 0224 0622     		movs	r2, #6
 646 0226 1E4B     		ldr	r3, .L73
 647 0228 1A70     		strb	r2, [r3]
 285:.\main.c      ****                         break;
 648              		.loc 1 285 0
 649 022a 0EE0     		b	.L43
 650              	.L44:
 286:.\main.c      ****                     
 287:.\main.c      ****                         case 0x3B:                        	    //Cancel                     					  
 288:.\main.c      **** 		            	    set_imagen(1,46);			 						  
 651              		.loc 1 288 0
 652 022c 0120     		movs	r0, #1
 653 022e 2E21     		movs	r1, #46
 654 0230 FFF7FEFF 		bl	set_imagen
 655              	.LVL57:
 289:.\main.c      **** 					        flujo_LCD=0;  
 656              		.loc 1 289 0
 657 0234 0022     		movs	r2, #0
 658 0236 1A4B     		ldr	r3, .L73
 659 0238 1A70     		strb	r2, [r3]
 290:.\main.c      ****                         break; 
 660              		.loc 1 290 0
 661 023a 06E0     		b	.L43
 662              	.L49:
 291:.\main.c      **** 					
 292:.\main.c      ****                         case 0x7E:									//ir a menu
 293:.\main.c      **** 					        set_imagen(1,46);
 663              		.loc 1 293 0
 664 023c 0120     		movs	r0, #1
 665 023e 2E21     		movs	r1, #46
 666 0240 FFF7FEFF 		bl	set_imagen
 667              	.LVL58:
 294:.\main.c      ****                             flujo_LCD=0;     
 668              		.loc 1 294 0
 669 0244 0022     		movs	r2, #0
 670 0246 164B     		ldr	r3, .L73
 671 0248 1A70     		strb	r2, [r3]
 672              	.L43:
ARM GAS  C:\Users\RECEPC~1\AppData\Local\Temp\ccHIf77r.s 			page 18


 295:.\main.c      ****                         break;					
 296:.\main.c      ****                 }
 297:.\main.c      ****             }
 298:.\main.c      ****             CyDelay(100);            
 673              		.loc 1 298 0
 674 024a 6420     		movs	r0, #100
 675 024c FFF7FEFF 		bl	CyDelay
 676              	.LVL59:
 299:.\main.c      ****             LCD_1_ClearRxBuffer();
 677              		.loc 1 299 0
 678 0250 FFF7FEFF 		bl	LCD_1_ClearRxBuffer
 679              	.LVL60:
 680 0254 10BD     		pop	{r4, pc}
 681              	.L29:
 300:.\main.c      ****          } 
 301:.\main.c      ****         break;
 302:.\main.c      ****             
 303:.\main.c      ****          case 6:		 
 304:.\main.c      ****             if(LCD_1_GetRxBufferSize()==8){
 682              		.loc 1 304 0
 683 0256 FFF7FEFF 		bl	LCD_1_GetRxBufferSize
 684              	.LVL61:
 685 025a 0828     		cmp	r0, #8
 686 025c 2ED1     		bne	.L50
 305:.\main.c      ****                 if((LCD_1_rxBuffer[0]==0xAA) && (LCD_1_rxBuffer[6]==0xC3) && (LCD_1_rxBuffer[7]==0x
 687              		.loc 1 305 0
 688 025e 114B     		ldr	r3, .L73+4
 689 0260 1B78     		ldrb	r3, [r3]	@ zero_extendqisi2
 690 0262 DBB2     		uxtb	r3, r3
 691 0264 AA2B     		cmp	r3, #170
 692 0266 15D1     		bne	.L51
 693              		.loc 1 305 0 is_stmt 0 discriminator 1
 694 0268 0E4B     		ldr	r3, .L73+4
 695 026a 9B79     		ldrb	r3, [r3, #6]	@ zero_extendqisi2
 696 026c DBB2     		uxtb	r3, r3
 697 026e C32B     		cmp	r3, #195
 698 0270 10D1     		bne	.L51
 699              		.loc 1 305 0 discriminator 2
 700 0272 0C4B     		ldr	r3, .L73+4
 701 0274 DB79     		ldrb	r3, [r3, #7]	@ zero_extendqisi2
 702 0276 DBB2     		uxtb	r3, r3
 703 0278 3C2B     		cmp	r3, #60
 704 027a 0BD1     		bne	.L51
 306:.\main.c      ****                     if(LCD_1_rxBuffer[3]==0x7E){			//ir a menu
 705              		.loc 1 306 0 is_stmt 1
 706 027c 094B     		ldr	r3, .L73+4
 707 027e DB78     		ldrb	r3, [r3, #3]	@ zero_extendqisi2
 708 0280 DBB2     		uxtb	r3, r3
 709 0282 7E2B     		cmp	r3, #126
 710 0284 06D1     		bne	.L51
 307:.\main.c      **** 					    set_imagen(1,46);					//Cancel
 711              		.loc 1 307 0
 712 0286 0120     		movs	r0, #1
 713 0288 2E21     		movs	r1, #46
 714 028a FFF7FEFF 		bl	set_imagen
 715              	.LVL62:
 308:.\main.c      **** 					    flujo_LCD = 0;
ARM GAS  C:\Users\RECEPC~1\AppData\Local\Temp\ccHIf77r.s 			page 19


 716              		.loc 1 308 0
 717 028e 0022     		movs	r2, #0
 718 0290 034B     		ldr	r3, .L73
 719 0292 1A70     		strb	r2, [r3]
 720              	.L51:
 309:.\main.c      ****                     }												
 310:.\main.c      **** 			    }
 311:.\main.c      ****             CyDelay(100);            
 721              		.loc 1 311 0
 722 0294 6420     		movs	r0, #100
 723 0296 FFF7FEFF 		bl	CyDelay
 724              	.LVL63:
 312:.\main.c      ****             LCD_1_ClearRxBuffer();
 725              		.loc 1 312 0
 726 029a FFF7FEFF 		bl	LCD_1_ClearRxBuffer
 727              	.LVL64:
 313:.\main.c      **** 			break;
 728              		.loc 1 313 0
 729 029e 10BD     		pop	{r4, pc}
 730              	.L74:
 731              		.align	2
 732              	.L73:
 733 02a0 00000000 		.word	flujo_LCD
 734 02a4 00000000 		.word	LCD_1_rxBuffer
 735 02a8 00000000 		.word	seleccion_pos
 736 02ac 00000000 		.word	flujo_LCD2
 737 02b0 00000000 		.word	Buffer_LCD1
 738 02b4 00000000 		.word	teclas1
 739 02b8 00000000 		.word	comas1
 740              	.L50:
 314:.\main.c      **** 		    }
 315:.\main.c      ****             if(get_estado(a.dir)==7){													//Espera a que este en listo el equipo				
 741              		.loc 1 315 0
 742 02bc AE4B     		ldr	r3, .L75
 743 02be 1878     		ldrb	r0, [r3]	@ zero_extendqisi2
 744 02c0 FFF7FEFF 		bl	get_estado
 745              	.LVL65:
 746 02c4 0728     		cmp	r0, #7
 747 02c6 40F0AE81 		bne	.L22
 316:.\main.c      **** 			CyDelay(50);		
 748              		.loc 1 316 0
 749 02ca 3220     		movs	r0, #50
 750 02cc FFF7FEFF 		bl	CyDelay
 751              	.LVL66:
 317:.\main.c      **** 			if((Buffer_LCD1.preset&0x02)==0x02||(Buffer_LCD1.preset&0x01)==0x01){		//Dependiendo del preset 
 752              		.loc 1 317 0
 753 02d0 AA4B     		ldr	r3, .L75+4
 754 02d2 DB78     		ldrb	r3, [r3, #3]	@ zero_extendqisi2
 755 02d4 13F00303 		ands	r3, r3, #3
 756 02d8 0FD0     		beq	.L52
 318:.\main.c      **** 				if(programar(a.dir,producto1,Buffer_LCD1.valor,(Buffer_LCD1.preset&0x03))==0){
 757              		.loc 1 318 0
 758 02da A74A     		ldr	r2, .L75
 759 02dc 1078     		ldrb	r0, [r2]	@ zero_extendqisi2
 760 02de A84A     		ldr	r2, .L75+8
 761 02e0 1178     		ldrb	r1, [r2]	@ zero_extendqisi2
 762 02e2 A84A     		ldr	r2, .L75+12
ARM GAS  C:\Users\RECEPC~1\AppData\Local\Temp\ccHIf77r.s 			page 20


 763 02e4 FFF7FEFF 		bl	programar
 764              	.LVL67:
 765 02e8 38B9     		cbnz	r0, .L52
 319:.\main.c      **** 					set_imagen(1,46);
 766              		.loc 1 319 0
 767 02ea 0120     		movs	r0, #1
 768 02ec 2E21     		movs	r1, #46
 769 02ee FFF7FEFF 		bl	set_imagen
 770              	.LVL68:
 320:.\main.c      **** 					flujo_LCD=0;
 771              		.loc 1 320 0
 772 02f2 0022     		movs	r2, #0
 773 02f4 A44B     		ldr	r3, .L75+16
 774 02f6 1A70     		strb	r2, [r3]
 321:.\main.c      **** 					break;
 775              		.loc 1 321 0
 776 02f8 10BD     		pop	{r4, pc}
 777              	.L52:
 322:.\main.c      **** 				}					
 323:.\main.c      **** 			}			
 324:.\main.c      **** 			grado1=estado_ex(a.dir);			
 778              		.loc 1 324 0
 779 02fa 9F4C     		ldr	r4, .L75
 780 02fc 2078     		ldrb	r0, [r4]	@ zero_extendqisi2
 781 02fe FFF7FEFF 		bl	estado_ex
 782              	.LVL69:
 783 0302 A24B     		ldr	r3, .L75+20
 784 0304 1870     		strb	r0, [r3]
 325:.\main.c      **** 			Surtidor_PutChar(0x10|a.dir);									//Autoriza el surtidor
 785              		.loc 1 325 0
 786 0306 2078     		ldrb	r0, [r4]	@ zero_extendqisi2
 787 0308 40F01000 		orr	r0, r0, #16
 788 030c FFF7FEFF 		bl	Surtidor_PutChar
 789              	.LVL70:
 326:.\main.c      **** 			set_imagen(1,8);
 790              		.loc 1 326 0
 791 0310 0120     		movs	r0, #1
 792 0312 0821     		movs	r1, #8
 793 0314 FFF7FEFF 		bl	set_imagen
 794              	.LVL71:
 327:.\main.c      ****             flujo_LCD=7;				
 795              		.loc 1 327 0
 796 0318 0722     		movs	r2, #7
 797 031a 9B4B     		ldr	r3, .L75+16
 798 031c 1A70     		strb	r2, [r3]
 799 031e 10BD     		pop	{r4, pc}
 800              	.L30:
 328:.\main.c      **** 			}
 329:.\main.c      ****          
 330:.\main.c      ****         break;
 331:.\main.c      ****             
 332:.\main.c      ****         case 7:
 333:.\main.c      **** 		 CyDelay(50);
 801              		.loc 1 333 0
 802 0320 3220     		movs	r0, #50
 803 0322 FFF7FEFF 		bl	CyDelay
 804              	.LVL72:
ARM GAS  C:\Users\RECEPC~1\AppData\Local\Temp\ccHIf77r.s 			page 21


 334:.\main.c      **** 		 switch(get_estado(a.dir)){
 805              		.loc 1 334 0
 806 0326 944B     		ldr	r3, .L75
 807 0328 1878     		ldrb	r0, [r3]	@ zero_extendqisi2
 808 032a FFF7FEFF 		bl	get_estado
 809              	.LVL73:
 810 032e 0A28     		cmp	r0, #10
 811 0330 35D0     		beq	.L53
 812 0332 0B28     		cmp	r0, #11
 813 0334 03D0     		beq	.L54
 814 0336 0628     		cmp	r0, #6
 815 0338 40F07581 		bne	.L22
 816 033c 5FE0     		b	.L55
 817              	.L54:
 335:.\main.c      **** 	        case 0x0B:                     //Termino venta            
 336:.\main.c      **** 				CyDelay(100);
 818              		.loc 1 336 0
 819 033e 6420     		movs	r0, #100
 820 0340 FFF7FEFF 		bl	CyDelay
 821              	.LVL74:
 337:.\main.c      **** 				if(venta(a.dir)==1 && no_imprime == 0){	
 822              		.loc 1 337 0
 823 0344 8C4B     		ldr	r3, .L75
 824 0346 1878     		ldrb	r0, [r3]	@ zero_extendqisi2
 825 0348 FFF7FEFF 		bl	venta
 826              	.LVL75:
 827 034c 0128     		cmp	r0, #1
 828 034e 0BD1     		bne	.L56
 829              		.loc 1 337 0 is_stmt 0 discriminator 1
 830 0350 8F4B     		ldr	r3, .L75+24
 831 0352 1B78     		ldrb	r3, [r3]	@ zero_extendqisi2
 832 0354 43B9     		cbnz	r3, .L56
 338:.\main.c      **** 		            set_imagen(1,57);
 833              		.loc 1 338 0 is_stmt 1
 834 0356 3921     		movs	r1, #57
 835 0358 FFF7FEFF 		bl	set_imagen
 836              	.LVL76:
 339:.\main.c      ****                     CyDelay(20);
 837              		.loc 1 339 0
 838 035c 1420     		movs	r0, #20
 839 035e FFF7FEFF 		bl	CyDelay
 840              	.LVL77:
 340:.\main.c      ****                     flujo_LCD=13;
 841              		.loc 1 340 0
 842 0362 0D22     		movs	r2, #13
 843 0364 884B     		ldr	r3, .L75+16
 844 0366 1A70     		strb	r2, [r3]
 845              	.L56:
 341:.\main.c      **** 				}
 342:.\main.c      ****                 if(venta(a.dir)==1 && no_imprime == 1){	
 846              		.loc 1 342 0
 847 0368 834B     		ldr	r3, .L75
 848 036a 1878     		ldrb	r0, [r3]	@ zero_extendqisi2
 849 036c FFF7FEFF 		bl	venta
 850              	.LVL78:
 851 0370 0128     		cmp	r0, #1
 852 0372 40F05881 		bne	.L22
ARM GAS  C:\Users\RECEPC~1\AppData\Local\Temp\ccHIf77r.s 			page 22


 853              		.loc 1 342 0 is_stmt 0 discriminator 1
 854 0376 864B     		ldr	r3, .L75+24
 855 0378 1B78     		ldrb	r3, [r3]	@ zero_extendqisi2
 856 037a 012B     		cmp	r3, #1
 857 037c 40F05381 		bne	.L22
 343:.\main.c      **** 		            set_imagen(1,12);         //Finaliza venta sin impresión de recibo
 858              		.loc 1 343 0 is_stmt 1
 859 0380 0C21     		movs	r1, #12
 860 0382 FFF7FEFF 		bl	set_imagen
 861              	.LVL79:
 344:.\main.c      ****                     CyDelay(500);
 862              		.loc 1 344 0
 863 0386 4FF4FA70 		mov	r0, #500
 864 038a FFF7FEFF 		bl	CyDelay
 865              	.LVL80:
 345:.\main.c      ****                     set_imagen(1,46);
 866              		.loc 1 345 0
 867 038e 0120     		movs	r0, #1
 868 0390 2E21     		movs	r1, #46
 869 0392 FFF7FEFF 		bl	set_imagen
 870              	.LVL81:
 346:.\main.c      ****                     flujo_LCD=0;
 871              		.loc 1 346 0
 872 0396 0022     		movs	r2, #0
 873 0398 7B4B     		ldr	r3, .L75+16
 874 039a 1A70     		strb	r2, [r3]
 875 039c 10BD     		pop	{r4, pc}
 876              	.L53:
 347:.\main.c      **** 				}
 348:.\main.c      **** 			 break;	
 349:.\main.c      **** 				
 350:.\main.c      **** 	        case 0x0A:                         
 351:.\main.c      **** 				CyDelay(100);                  //Termino venta
 877              		.loc 1 351 0
 878 039e 6420     		movs	r0, #100
 879 03a0 FFF7FEFF 		bl	CyDelay
 880              	.LVL82:
 352:.\main.c      **** 				if(venta(a.dir)==1 && no_imprime == 0){	
 881              		.loc 1 352 0
 882 03a4 744B     		ldr	r3, .L75
 883 03a6 1878     		ldrb	r0, [r3]	@ zero_extendqisi2
 884 03a8 FFF7FEFF 		bl	venta
 885              	.LVL83:
 886 03ac 0128     		cmp	r0, #1
 887 03ae 0BD1     		bne	.L57
 888              		.loc 1 352 0 is_stmt 0 discriminator 1
 889 03b0 774B     		ldr	r3, .L75+24
 890 03b2 1B78     		ldrb	r3, [r3]	@ zero_extendqisi2
 891 03b4 43B9     		cbnz	r3, .L57
 353:.\main.c      **** 		            set_imagen(1,57);
 892              		.loc 1 353 0 is_stmt 1
 893 03b6 3921     		movs	r1, #57
 894 03b8 FFF7FEFF 		bl	set_imagen
 895              	.LVL84:
 354:.\main.c      ****                     CyDelay(20);               //Finaliza venta con impresión de recibo
 896              		.loc 1 354 0
 897 03bc 1420     		movs	r0, #20
ARM GAS  C:\Users\RECEPC~1\AppData\Local\Temp\ccHIf77r.s 			page 23


 898 03be FFF7FEFF 		bl	CyDelay
 899              	.LVL85:
 355:.\main.c      ****                     flujo_LCD=13;
 900              		.loc 1 355 0
 901 03c2 0D22     		movs	r2, #13
 902 03c4 704B     		ldr	r3, .L75+16
 903 03c6 1A70     		strb	r2, [r3]
 904              	.L57:
 356:.\main.c      **** 				}
 357:.\main.c      ****                 if(venta(a.dir)==1 && no_imprime == 1){	
 905              		.loc 1 357 0
 906 03c8 6B4B     		ldr	r3, .L75
 907 03ca 1878     		ldrb	r0, [r3]	@ zero_extendqisi2
 908 03cc FFF7FEFF 		bl	venta
 909              	.LVL86:
 910 03d0 0128     		cmp	r0, #1
 911 03d2 40F02881 		bne	.L22
 912              		.loc 1 357 0 is_stmt 0 discriminator 1
 913 03d6 6E4B     		ldr	r3, .L75+24
 914 03d8 1B78     		ldrb	r3, [r3]	@ zero_extendqisi2
 915 03da 012B     		cmp	r3, #1
 916 03dc 40F02381 		bne	.L22
 358:.\main.c      **** 		            set_imagen(1,12);         //Finaliza venta sin impresión de recibo
 917              		.loc 1 358 0 is_stmt 1
 918 03e0 0C21     		movs	r1, #12
 919 03e2 FFF7FEFF 		bl	set_imagen
 920              	.LVL87:
 359:.\main.c      ****                     CyDelay(500);
 921              		.loc 1 359 0
 922 03e6 4FF4FA70 		mov	r0, #500
 923 03ea FFF7FEFF 		bl	CyDelay
 924              	.LVL88:
 360:.\main.c      ****                     set_imagen(1,46);
 925              		.loc 1 360 0
 926 03ee 0120     		movs	r0, #1
 927 03f0 2E21     		movs	r1, #46
 928 03f2 FFF7FEFF 		bl	set_imagen
 929              	.LVL89:
 361:.\main.c      ****                     flujo_LCD=0;
 930              		.loc 1 361 0
 931 03f6 0022     		movs	r2, #0
 932 03f8 634B     		ldr	r3, .L75+16
 933 03fa 1A70     		strb	r2, [r3]
 934 03fc 10BD     		pop	{r4, pc}
 935              	.L55:
 362:.\main.c      **** 				}
 363:.\main.c      **** 			break;
 364:.\main.c      **** 
 365:.\main.c      **** 	        case 0x06: 
 366:.\main.c      ****                 set_imagen(1,46); //No hizo venta
 936              		.loc 1 366 0
 937 03fe 0120     		movs	r0, #1
 938 0400 2E21     		movs	r1, #46
 939 0402 FFF7FEFF 		bl	set_imagen
 940              	.LVL90:
 367:.\main.c      **** 				flujo_LCD=0;
 941              		.loc 1 367 0
ARM GAS  C:\Users\RECEPC~1\AppData\Local\Temp\ccHIf77r.s 			page 24


 942 0406 0022     		movs	r2, #0
 943 0408 5F4B     		ldr	r3, .L75+16
 944 040a 1A70     		strb	r2, [r3]
 368:.\main.c      **** 			break;		
 945              		.loc 1 368 0
 946 040c 10BD     		pop	{r4, pc}
 947              	.L31:
 369:.\main.c      ****              			 	
 370:.\main.c      ****          }		
 371:.\main.c      ****         break;
 372:.\main.c      ****         
 373:.\main.c      ****         case 9:
 374:.\main.c      ****           if(LCD_1_GetRxBufferSize()==8){
 948              		.loc 1 374 0
 949 040e FFF7FEFF 		bl	LCD_1_GetRxBufferSize
 950              	.LVL91:
 951 0412 0828     		cmp	r0, #8
 952 0414 40F00781 		bne	.L22
 375:.\main.c      ****             if((LCD_1_rxBuffer[0]==0xAA) && (LCD_1_rxBuffer[6]==0xC3) && (LCD_1_rxBuffer[7]==0x3C))
 953              		.loc 1 375 0
 954 0418 5E4B     		ldr	r3, .L75+28
 955 041a 1B78     		ldrb	r3, [r3]	@ zero_extendqisi2
 956 041c DBB2     		uxtb	r3, r3
 957 041e AA2B     		cmp	r3, #170
 958 0420 40F0A480 		bne	.L58
 959              		.loc 1 375 0 is_stmt 0 discriminator 1
 960 0424 5B4B     		ldr	r3, .L75+28
 961 0426 9B79     		ldrb	r3, [r3, #6]	@ zero_extendqisi2
 962 0428 DBB2     		uxtb	r3, r3
 963 042a C32B     		cmp	r3, #195
 964 042c 40F09E80 		bne	.L58
 965              		.loc 1 375 0 discriminator 2
 966 0430 584B     		ldr	r3, .L75+28
 967 0432 DB79     		ldrb	r3, [r3, #7]	@ zero_extendqisi2
 968 0434 DBB2     		uxtb	r3, r3
 969 0436 3C2B     		cmp	r3, #60
 970 0438 40F09880 		bne	.L58
 376:.\main.c      ****                 if(teclas1<=6){
 971              		.loc 1 376 0 is_stmt 1
 972 043c 564B     		ldr	r3, .L75+32
 973 043e 1B78     		ldrb	r3, [r3]	@ zero_extendqisi2
 974 0440 062B     		cmp	r3, #6
 975 0442 64D8     		bhi	.L59
 377:.\main.c      ****                     if(LCD_1_rxBuffer[3]<=9){
 976              		.loc 1 377 0
 977 0444 534A     		ldr	r2, .L75+28
 978 0446 D278     		ldrb	r2, [r2, #3]	@ zero_extendqisi2
 979 0448 D2B2     		uxtb	r2, r2
 980 044a 092A     		cmp	r2, #9
 981 044c 10D8     		bhi	.L60
 378:.\main.c      ****                         teclas1++;
 982              		.loc 1 378 0
 983 044e 0133     		adds	r3, r3, #1
 984 0450 DAB2     		uxtb	r2, r3
 985 0452 514B     		ldr	r3, .L75+32
 986 0454 1A70     		strb	r2, [r3]
 379:.\main.c      ****                         Buffer_LCD1.placa[teclas1]=LCD_1_rxBuffer[3]+0x30;
ARM GAS  C:\Users\RECEPC~1\AppData\Local\Temp\ccHIf77r.s 			page 25


 987              		.loc 1 379 0
 988 0456 4F48     		ldr	r0, .L75+28
 989 0458 C178     		ldrb	r1, [r0, #3]	@ zero_extendqisi2
 990 045a 484B     		ldr	r3, .L75+4
 991 045c 1344     		add	r3, r3, r2
 992 045e 3031     		adds	r1, r1, #48
 993 0460 83F86510 		strb	r1, [r3, #101]
 380:.\main.c      ****                         write_LCD(1,(LCD_1_rxBuffer[3]+0x30),teclas1);                        
 994              		.loc 1 380 0
 995 0464 C178     		ldrb	r1, [r0, #3]	@ zero_extendqisi2
 996 0466 3031     		adds	r1, r1, #48
 997 0468 0120     		movs	r0, #1
 998 046a C9B2     		uxtb	r1, r1
 999 046c FFF7FEFF 		bl	write_LCD
 1000              	.LVL92:
 1001              	.L60:
 381:.\main.c      ****                     }
 382:.\main.c      ****                     if(LCD_1_rxBuffer[3]==0x0A){                                        //Comando d
 1002              		.loc 1 382 0
 1003 0470 484B     		ldr	r3, .L75+28
 1004 0472 DB78     		ldrb	r3, [r3, #3]	@ zero_extendqisi2
 1005 0474 DBB2     		uxtb	r3, r3
 1006 0476 0A2B     		cmp	r3, #10
 1007 0478 0CD1     		bne	.L61
 383:.\main.c      ****                         teclas1++;                        
 1008              		.loc 1 383 0
 1009 047a 474B     		ldr	r3, .L75+32
 1010 047c 1A78     		ldrb	r2, [r3]	@ zero_extendqisi2
 1011 047e 0132     		adds	r2, r2, #1
 1012 0480 D2B2     		uxtb	r2, r2
 1013 0482 1A70     		strb	r2, [r3]
 384:.\main.c      ****                         Buffer_LCD1.placa[teclas1]=0x30;
 1014              		.loc 1 384 0
 1015 0484 3D4B     		ldr	r3, .L75+4
 1016 0486 1344     		add	r3, r3, r2
 1017 0488 3021     		movs	r1, #48
 1018 048a 83F86510 		strb	r1, [r3, #101]
 385:.\main.c      ****                         write_LCD(1,0x30,teclas1);                        
 1019              		.loc 1 385 0
 1020 048e 0120     		movs	r0, #1
 1021 0490 FFF7FEFF 		bl	write_LCD
 1022              	.LVL93:
 1023              	.L61:
 386:.\main.c      ****                     }  
 387:.\main.c      ****                     if(LCD_1_rxBuffer[3]==0x6A){                                        //Comando d
 1024              		.loc 1 387 0
 1025 0494 3F4B     		ldr	r3, .L75+28
 1026 0496 DB78     		ldrb	r3, [r3, #3]	@ zero_extendqisi2
 1027 0498 DBB2     		uxtb	r3, r3
 1028 049a 6A2B     		cmp	r3, #106
 1029 049c 0CD1     		bne	.L62
 388:.\main.c      ****                         teclas1++;                        
 1030              		.loc 1 388 0
 1031 049e 3E4B     		ldr	r3, .L75+32
 1032 04a0 1A78     		ldrb	r2, [r3]	@ zero_extendqisi2
 1033 04a2 0132     		adds	r2, r2, #1
 1034 04a4 D2B2     		uxtb	r2, r2
ARM GAS  C:\Users\RECEPC~1\AppData\Local\Temp\ccHIf77r.s 			page 26


 1035 04a6 1A70     		strb	r2, [r3]
 389:.\main.c      ****                         Buffer_LCD1.placa[teclas1]='-';
 1036              		.loc 1 389 0
 1037 04a8 344B     		ldr	r3, .L75+4
 1038 04aa 1344     		add	r3, r3, r2
 1039 04ac 2D21     		movs	r1, #45
 1040 04ae 83F86510 		strb	r1, [r3, #101]
 390:.\main.c      ****                         write_LCD(1,'-',teclas1);                        
 1041              		.loc 1 390 0
 1042 04b2 0120     		movs	r0, #1
 1043 04b4 FFF7FEFF 		bl	write_LCD
 1044              	.LVL94:
 1045              	.L62:
 391:.\main.c      ****                     } 					
 392:.\main.c      ****                     if(LCD_1_rxBuffer[3]>=0x1B && LCD_1_rxBuffer[3]<=0x42){            //Comando de
 1046              		.loc 1 392 0
 1047 04b8 364B     		ldr	r3, .L75+28
 1048 04ba DB78     		ldrb	r3, [r3, #3]	@ zero_extendqisi2
 1049 04bc DBB2     		uxtb	r3, r3
 1050 04be 1A2B     		cmp	r3, #26
 1051 04c0 25D9     		bls	.L59
 1052              		.loc 1 392 0 is_stmt 0 discriminator 1
 1053 04c2 344B     		ldr	r3, .L75+28
 1054 04c4 DB78     		ldrb	r3, [r3, #3]	@ zero_extendqisi2
 1055 04c6 DBB2     		uxtb	r3, r3
 1056 04c8 422B     		cmp	r3, #66
 1057 04ca 20D8     		bhi	.L59
 393:.\main.c      ****                         for(x=0;x<=25;x++){                                            //Compara el
 1058              		.loc 1 393 0 is_stmt 1
 1059 04cc 0022     		movs	r2, #0
 1060 04ce 334B     		ldr	r3, .L75+36
 1061 04d0 1A60     		str	r2, [r3]
 1062 04d2 18E0     		b	.L63
 1063              	.L65:
 394:.\main.c      ****                             if(LCD_1_rxBuffer[3]==letras[x]){
 1064              		.loc 1 394 0
 1065 04d4 2F4A     		ldr	r2, .L75+28
 1066 04d6 D278     		ldrb	r2, [r2, #3]	@ zero_extendqisi2
 1067 04d8 D2B2     		uxtb	r2, r2
 1068 04da 3149     		ldr	r1, .L75+40
 1069 04dc C95C     		ldrb	r1, [r1, r3]	@ zero_extendqisi2
 1070 04de 8A42     		cmp	r2, r1
 1071 04e0 0DD1     		bne	.L64
 395:.\main.c      ****                                 teclas1++;                            
 1072              		.loc 1 395 0
 1073 04e2 2D49     		ldr	r1, .L75+32
 1074 04e4 0A78     		ldrb	r2, [r1]	@ zero_extendqisi2
 1075 04e6 0132     		adds	r2, r2, #1
 1076 04e8 D2B2     		uxtb	r2, r2
 1077 04ea 0A70     		strb	r2, [r1]
 396:.\main.c      ****                                 Buffer_LCD1.placa[teclas1]=x+0x41;
 1078              		.loc 1 396 0
 1079 04ec 4133     		adds	r3, r3, #65
 1080 04ee D9B2     		uxtb	r1, r3
 1081 04f0 224B     		ldr	r3, .L75+4
 1082 04f2 1344     		add	r3, r3, r2
 1083 04f4 83F86510 		strb	r1, [r3, #101]
ARM GAS  C:\Users\RECEPC~1\AppData\Local\Temp\ccHIf77r.s 			page 27


 397:.\main.c      ****                                 write_LCD(1,(x+0x41),teclas1);                            
 1084              		.loc 1 397 0
 1085 04f8 0120     		movs	r0, #1
 1086 04fa FFF7FEFF 		bl	write_LCD
 1087              	.LVL95:
 1088              	.L64:
 393:.\main.c      ****                             if(LCD_1_rxBuffer[3]==letras[x]){
 1089              		.loc 1 393 0 discriminator 2
 1090 04fe 274A     		ldr	r2, .L75+36
 1091 0500 1368     		ldr	r3, [r2]
 1092 0502 0133     		adds	r3, r3, #1
 1093 0504 1360     		str	r3, [r2]
 1094              	.L63:
 393:.\main.c      ****                             if(LCD_1_rxBuffer[3]==letras[x]){
 1095              		.loc 1 393 0 is_stmt 0 discriminator 1
 1096 0506 254B     		ldr	r3, .L75+36
 1097 0508 1B68     		ldr	r3, [r3]
 1098 050a 192B     		cmp	r3, #25
 1099 050c E2D9     		bls	.L65
 1100              	.L59:
 398:.\main.c      ****                             }
 399:.\main.c      ****                         }
 400:.\main.c      ****                     }                    
 401:.\main.c      ****                 }
 402:.\main.c      ****                 if(LCD_1_rxBuffer[3]==0x0B){                                        //Borrar - Canc
 1101              		.loc 1 402 0 is_stmt 1
 1102 050e 214B     		ldr	r3, .L75+28
 1103 0510 DB78     		ldrb	r3, [r3, #3]	@ zero_extendqisi2
 1104 0512 DBB2     		uxtb	r3, r3
 1105 0514 0B2B     		cmp	r3, #11
 1106 0516 15D1     		bne	.L66
 403:.\main.c      ****                     if(teclas1==0){                                                 //Si no tiene n
 1107              		.loc 1 403 0
 1108 0518 1F4B     		ldr	r3, .L75+32
 1109 051a 1A78     		ldrb	r2, [r3]	@ zero_extendqisi2
 1110 051c 52B9     		cbnz	r2, .L67
 404:.\main.c      ****                         set_imagen(1,46);                        
 1111              		.loc 1 404 0
 1112 051e 0120     		movs	r0, #1
 1113 0520 2E21     		movs	r1, #46
 1114 0522 FFF7FEFF 		bl	set_imagen
 1115              	.LVL96:
 405:.\main.c      ****                         Buffer_LCD1.placa[0]=0;						
 1116              		.loc 1 405 0
 1117 0526 0023     		movs	r3, #0
 1118 0528 144A     		ldr	r2, .L75+4
 1119 052a 82F86530 		strb	r3, [r2, #101]
 406:.\main.c      ****                         flujo_LCD=0;
 1120              		.loc 1 406 0
 1121 052e 164A     		ldr	r2, .L75+16
 1122 0530 1370     		strb	r3, [r2]
 1123 0532 07E0     		b	.L66
 1124              	.L67:
 407:.\main.c      ****                     }
 408:.\main.c      ****                     else{
 409:.\main.c      ****                         write_LCD(1,0x20,teclas1);                        
 1125              		.loc 1 409 0
ARM GAS  C:\Users\RECEPC~1\AppData\Local\Temp\ccHIf77r.s 			page 28


 1126 0534 0120     		movs	r0, #1
 1127 0536 2021     		movs	r1, #32
 1128 0538 FFF7FEFF 		bl	write_LCD
 1129              	.LVL97:
 410:.\main.c      ****                         teclas1--;
 1130              		.loc 1 410 0
 1131 053c 164A     		ldr	r2, .L75+32
 1132 053e 1378     		ldrb	r3, [r2]	@ zero_extendqisi2
 1133 0540 013B     		subs	r3, r3, #1
 1134 0542 1370     		strb	r3, [r2]
 1135              	.L66:
 411:.\main.c      ****                     }
 412:.\main.c      ****                 }
 413:.\main.c      ****                 if(LCD_1_rxBuffer[3]==0x0C){                                        //Enter pasa a 
 1136              		.loc 1 413 0
 1137 0544 134B     		ldr	r3, .L75+28
 1138 0546 DB78     		ldrb	r3, [r3, #3]	@ zero_extendqisi2
 1139 0548 DBB2     		uxtb	r3, r3
 1140 054a 0C2B     		cmp	r3, #12
 1141 054c 0ED1     		bne	.L58
 414:.\main.c      ****                     if(teclas1>=1){ 
 1142              		.loc 1 414 0
 1143 054e 124B     		ldr	r3, .L75+32
 1144 0550 1B78     		ldrb	r3, [r3]	@ zero_extendqisi2
 1145 0552 5BB1     		cbz	r3, .L58
 415:.\main.c      ****                         set_imagen(1,5);
 1146              		.loc 1 415 0
 1147 0554 0120     		movs	r0, #1
 1148 0556 0521     		movs	r1, #5
 1149 0558 FFF7FEFF 		bl	set_imagen
 1150              	.LVL98:
 416:.\main.c      ****                         Buffer_LCD1.placa[0]=teclas1;                                              
 1151              		.loc 1 416 0
 1152 055c 0E4B     		ldr	r3, .L75+32
 1153 055e 1A78     		ldrb	r2, [r3]	@ zero_extendqisi2
 1154 0560 064B     		ldr	r3, .L75+4
 1155 0562 83F86520 		strb	r2, [r3, #101]
 417:.\main.c      ****                         flujo_LCD=4;
 1156              		.loc 1 417 0
 1157 0566 0422     		movs	r2, #4
 1158 0568 074B     		ldr	r3, .L75+16
 1159 056a 1A70     		strb	r2, [r3]
 1160              	.L58:
 418:.\main.c      ****                     }
 419:.\main.c      ****                 }
 420:.\main.c      ****             }
 421:.\main.c      ****             CyDelay(100);            
 1161              		.loc 1 421 0
 1162 056c 6420     		movs	r0, #100
 1163 056e FFF7FEFF 		bl	CyDelay
 1164              	.LVL99:
 422:.\main.c      ****             LCD_1_ClearRxBuffer();
 1165              		.loc 1 422 0
 1166 0572 FFF7FEFF 		bl	LCD_1_ClearRxBuffer
 1167              	.LVL100:
 1168 0576 10BD     		pop	{r4, pc}
 1169              	.L76:
ARM GAS  C:\Users\RECEPC~1\AppData\Local\Temp\ccHIf77r.s 			page 29


 1170              		.align	2
 1171              	.L75:
 1172 0578 00000000 		.word	a
 1173 057c 00000000 		.word	Buffer_LCD1
 1174 0580 00000000 		.word	producto1
 1175 0584 0B000000 		.word	Buffer_LCD1+11
 1176 0588 00000000 		.word	flujo_LCD
 1177 058c 00000000 		.word	grado1
 1178 0590 00000000 		.word	no_imprime
 1179 0594 00000000 		.word	LCD_1_rxBuffer
 1180 0598 00000000 		.word	teclas1
 1181 059c 00000000 		.word	x
 1182 05a0 00000000 		.word	.LANCHOR0
 1183              	.L32:
 423:.\main.c      ****          }    
 424:.\main.c      **** 		
 425:.\main.c      ****         break;
 426:.\main.c      ****         
 427:.\main.c      ****         case 10:
 428:.\main.c      ****          if(LCD_1_GetRxBufferSize()==8){
 1184              		.loc 1 428 0
 1185 05a4 FFF7FEFF 		bl	LCD_1_GetRxBufferSize
 1186              	.LVL101:
 1187 05a8 0828     		cmp	r0, #8
 1188 05aa 3CD1     		bne	.L22
 429:.\main.c      ****             if((LCD_1_rxBuffer[0]==0xAA) && (LCD_1_rxBuffer[6]==0xC3) && (LCD_1_rxBuffer[7]==0x3C))
 1189              		.loc 1 429 0
 1190 05ac 1E4B     		ldr	r3, .L77
 1191 05ae 1B78     		ldrb	r3, [r3]	@ zero_extendqisi2
 1192 05b0 DBB2     		uxtb	r3, r3
 1193 05b2 AA2B     		cmp	r3, #170
 1194 05b4 32D1     		bne	.L68
 1195              		.loc 1 429 0 is_stmt 0 discriminator 1
 1196 05b6 1C4B     		ldr	r3, .L77
 1197 05b8 9B79     		ldrb	r3, [r3, #6]	@ zero_extendqisi2
 1198 05ba DBB2     		uxtb	r3, r3
 1199 05bc C32B     		cmp	r3, #195
 1200 05be 2DD1     		bne	.L68
 1201              		.loc 1 429 0 discriminator 2
 1202 05c0 194B     		ldr	r3, .L77
 1203 05c2 DB79     		ldrb	r3, [r3, #7]	@ zero_extendqisi2
 1204 05c4 DBB2     		uxtb	r3, r3
 1205 05c6 3C2B     		cmp	r3, #60
 1206 05c8 28D1     		bne	.L68
 430:.\main.c      ****                 switch(LCD_1_rxBuffer[3]){
 1207              		.loc 1 430 0 is_stmt 1
 1208 05ca 174B     		ldr	r3, .L77
 1209 05cc DB78     		ldrb	r3, [r3, #3]	@ zero_extendqisi2
 1210 05ce DBB2     		uxtb	r3, r3
 1211 05d0 392B     		cmp	r3, #57
 1212 05d2 04D0     		beq	.L69
 1213 05d4 7E2B     		cmp	r3, #126
 1214 05d6 1AD0     		beq	.L70
 1215 05d8 382B     		cmp	r3, #56
 1216 05da 1FD1     		bne	.L68
 1217 05dc 0CE0     		b	.L71
 1218              	.L69:
ARM GAS  C:\Users\RECEPC~1\AppData\Local\Temp\ccHIf77r.s 			page 30


 431:.\main.c      ****                     case 0x39:                          //Si pide impresión                       
 432:.\main.c      ****                         set_imagen(1,10);               //Pasa a pedir placa
 1219              		.loc 1 432 0
 1220 05de 0120     		movs	r0, #1
 1221 05e0 0A21     		movs	r1, #10
 1222 05e2 FFF7FEFF 		bl	set_imagen
 1223              	.LVL102:
 433:.\main.c      ****                         teclas1 = 0;                                              
 1224              		.loc 1 433 0
 1225 05e6 0023     		movs	r3, #0
 1226 05e8 104A     		ldr	r2, .L77+4
 1227 05ea 1370     		strb	r3, [r2]
 434:.\main.c      ****                         no_imprime = 0;
 1228              		.loc 1 434 0
 1229 05ec 104A     		ldr	r2, .L77+8
 1230 05ee 1370     		strb	r3, [r2]
 435:.\main.c      ****                         flujo_LCD = 9;                       
 1231              		.loc 1 435 0
 1232 05f0 0922     		movs	r2, #9
 1233 05f2 104B     		ldr	r3, .L77+12
 1234 05f4 1A70     		strb	r2, [r3]
 436:.\main.c      ****                     break; 
 1235              		.loc 1 436 0
 1236 05f6 11E0     		b	.L68
 1237              	.L71:
 437:.\main.c      ****                     
 438:.\main.c      ****                     case 0x38:                          //Pide venta sin impresión
 439:.\main.c      ****                         set_imagen(1,5);	            //Pasa a preset de venta
 1238              		.loc 1 439 0
 1239 05f8 0120     		movs	r0, #1
 1240 05fa 0521     		movs	r1, #5
 1241 05fc FFF7FEFF 		bl	set_imagen
 1242              	.LVL103:
 440:.\main.c      ****                         no_imprime = 1;
 1243              		.loc 1 440 0
 1244 0600 0122     		movs	r2, #1
 1245 0602 0B4B     		ldr	r3, .L77+8
 1246 0604 1A70     		strb	r2, [r3]
 441:.\main.c      ****                         flujo_LCD = 4;                    
 1247              		.loc 1 441 0
 1248 0606 0422     		movs	r2, #4
 1249 0608 0A4B     		ldr	r3, .L77+12
 1250 060a 1A70     		strb	r2, [r3]
 442:.\main.c      ****                     break;  
 1251              		.loc 1 442 0
 1252 060c 06E0     		b	.L68
 1253              	.L70:
 443:.\main.c      ****                     
 444:.\main.c      ****                     case 0x7E:						   //ir a menu de selección de pos
 445:.\main.c      **** 					    set_imagen(1,46);	
 1254              		.loc 1 445 0
 1255 060e 0120     		movs	r0, #1
 1256 0610 2E21     		movs	r1, #46
 1257 0612 FFF7FEFF 		bl	set_imagen
 1258              	.LVL104:
 446:.\main.c      ****                         flujo_LCD = 0;     
 1259              		.loc 1 446 0
ARM GAS  C:\Users\RECEPC~1\AppData\Local\Temp\ccHIf77r.s 			page 31


 1260 0616 0022     		movs	r2, #0
 1261 0618 064B     		ldr	r3, .L77+12
 1262 061a 1A70     		strb	r2, [r3]
 1263              	.L68:
 447:.\main.c      ****                     break;
 448:.\main.c      ****                         
 449:.\main.c      ****                 }
 450:.\main.c      ****             }
 451:.\main.c      ****             CyDelay(100);            
 1264              		.loc 1 451 0
 1265 061c 6420     		movs	r0, #100
 1266 061e FFF7FEFF 		bl	CyDelay
 1267              	.LVL105:
 452:.\main.c      ****             LCD_1_ClearRxBuffer();
 1268              		.loc 1 452 0
 1269 0622 FFF7FEFF 		bl	LCD_1_ClearRxBuffer
 1270              	.LVL106:
 1271              	.L22:
 1272 0626 10BD     		pop	{r4, pc}
 1273              	.L78:
 1274              		.align	2
 1275              	.L77:
 1276 0628 00000000 		.word	LCD_1_rxBuffer
 1277 062c 00000000 		.word	teclas1
 1278 0630 00000000 		.word	no_imprime
 1279 0634 00000000 		.word	flujo_LCD
 1280              		.cfi_endproc
 1281              	.LFE66:
 1282              		.size	polling_pos1, .-polling_pos1
 1283              		.section	.text.polling_pos2,"ax",%progbits
 1284              		.align	2
 1285              		.global	polling_pos2
 1286              		.thumb
 1287              		.thumb_func
 1288              		.type	polling_pos2, %function
 1289              	polling_pos2:
 1290              	.LFB67:
 453:.\main.c      ****          } 		 	
 454:.\main.c      ****         break; 
 455:.\main.c      ****     }
 456:.\main.c      **** }
 457:.\main.c      **** 
 458:.\main.c      **** 
 459:.\main.c      **** /*
 460:.\main.c      **** ***************************************************************************************************
 461:.\main.c      **** *                                         void polling_pos2(void)
 462:.\main.c      **** *
 463:.\main.c      **** * Description : 
 464:.\main.c      **** *               
 465:.\main.c      **** *
 466:.\main.c      **** * Argument(s) : none
 467:.\main.c      **** *
 468:.\main.c      **** * Return(s)   : none
 469:.\main.c      **** *
 470:.\main.c      **** * Caller(s)   : 
 471:.\main.c      **** *
 472:.\main.c      **** * Note(s)     : none.
ARM GAS  C:\Users\RECEPC~1\AppData\Local\Temp\ccHIf77r.s 			page 32


 473:.\main.c      **** ***************************************************************************************************
 474:.\main.c      **** */
 475:.\main.c      **** 
 476:.\main.c      **** void polling_pos2(void){
 1291              		.loc 1 476 0
 1292              		.cfi_startproc
 1293              		@ args = 0, pretend = 0, frame = 0
 1294              		@ frame_needed = 0, uses_anonymous_args = 0
 1295 0000 10B5     		push	{r4, lr}
 1296              		.cfi_def_cfa_offset 8
 1297              		.cfi_offset 4, -8
 1298              		.cfi_offset 14, -4
 477:.\main.c      ****     
 478:.\main.c      ****     switch(flujo_LCD2){ 
 1299              		.loc 1 478 0
 1300 0002 A74B     		ldr	r3, .L130
 1301 0004 1B78     		ldrb	r3, [r3]	@ zero_extendqisi2
 1302 0006 0A2B     		cmp	r3, #10
 1303 0008 00F20D83 		bhi	.L79
 1304 000c DFE813F0 		tbh	[pc, r3, lsl #1]
 1305              	.L82:
 1306 0010 0B00     		.2byte	(.L81-.L82)/2
 1307 0012 4700     		.2byte	(.L83-.L82)/2
 1308 0014 7800     		.2byte	(.L84-.L82)/2
 1309 0016 0B03     		.2byte	(.L79-.L82)/2
 1310 0018 B300     		.2byte	(.L85-.L82)/2
 1311 001a 0B03     		.2byte	(.L79-.L82)/2
 1312 001c 2301     		.2byte	(.L86-.L82)/2
 1313 001e 8801     		.2byte	(.L87-.L82)/2
 1314 0020 0B03     		.2byte	(.L79-.L82)/2
 1315 0022 FF01     		.2byte	(.L88-.L82)/2
 1316 0024 CA02     		.2byte	(.L89-.L82)/2
 1317              		.p2align 1
 1318              	.L81:
 479:.\main.c      ****         case 0:            
 480:.\main.c      **** 		    if(LCD_1_GetRxBufferSize()==8){
 1319              		.loc 1 480 0
 1320 0026 FFF7FEFF 		bl	LCD_1_GetRxBufferSize
 1321              	.LVL107:
 1322 002a 0828     		cmp	r0, #8
 1323 002c 40F0FB82 		bne	.L79
 481:.\main.c      ****                 if((LCD_1_rxBuffer[0]==0xAA) && (LCD_1_rxBuffer[6]==0xC3) && (LCD_1_rxBuffer[7]==0x
 1324              		.loc 1 481 0
 1325 0030 9C4B     		ldr	r3, .L130+4
 1326 0032 1B78     		ldrb	r3, [r3]	@ zero_extendqisi2
 1327 0034 DBB2     		uxtb	r3, r3
 1328 0036 AA2B     		cmp	r3, #170
 1329 0038 2BD1     		bne	.L90
 1330              		.loc 1 481 0 is_stmt 0 discriminator 1
 1331 003a 9A4B     		ldr	r3, .L130+4
 1332 003c 9B79     		ldrb	r3, [r3, #6]	@ zero_extendqisi2
 1333 003e DBB2     		uxtb	r3, r3
 1334 0040 C32B     		cmp	r3, #195
 1335 0042 26D1     		bne	.L90
 1336              		.loc 1 481 0 discriminator 2
 1337 0044 974B     		ldr	r3, .L130+4
 1338 0046 DB79     		ldrb	r3, [r3, #7]	@ zero_extendqisi2
ARM GAS  C:\Users\RECEPC~1\AppData\Local\Temp\ccHIf77r.s 			page 33


 1339 0048 DBB2     		uxtb	r3, r3
 1340 004a 3C2B     		cmp	r3, #60
 1341 004c 21D1     		bne	.L90
 482:.\main.c      ****                     switch(LCD_1_rxBuffer[3]){
 1342              		.loc 1 482 0 is_stmt 1
 1343 004e 954B     		ldr	r3, .L130+4
 1344 0050 DB78     		ldrb	r3, [r3, #3]	@ zero_extendqisi2
 1345 0052 DBB2     		uxtb	r3, r3
 1346 0054 562B     		cmp	r3, #86
 1347 0056 02D0     		beq	.L91
 1348 0058 572B     		cmp	r3, #87
 1349 005a 0DD0     		beq	.L92
 1350 005c 19E0     		b	.L90
 1351              	.L91:
 483:.\main.c      **** 				        case 0x56:						//POS A
 484:.\main.c      ****                             set_imagen(1,99);           //Inicio opciones GRP 700
 1352              		.loc 1 484 0
 1353 005e 0120     		movs	r0, #1
 1354 0060 6321     		movs	r1, #99
 1355 0062 FFF7FEFF 		bl	set_imagen
 1356              	.LVL108:
 485:.\main.c      ****                             seleccion_pos = 1;
 1357              		.loc 1 485 0
 1358 0066 0123     		movs	r3, #1
 1359 0068 8F4A     		ldr	r2, .L130+8
 1360 006a 1370     		strb	r3, [r2]
 486:.\main.c      **** 					        flujo_LCD  = 1;
 1361              		.loc 1 486 0
 1362 006c 8F4A     		ldr	r2, .L130+12
 1363 006e 1370     		strb	r3, [r2]
 487:.\main.c      ****                             flujo_LCD2 = 0;
 1364              		.loc 1 487 0
 1365 0070 0022     		movs	r2, #0
 1366 0072 8B4B     		ldr	r3, .L130
 1367 0074 1A70     		strb	r2, [r3]
 488:.\main.c      **** 					    break;
 1368              		.loc 1 488 0
 1369 0076 0CE0     		b	.L90
 1370              	.L92:
 489:.\main.c      ****                             		       
 490:.\main.c      **** 					    case 0x57:  				    //POS B
 491:.\main.c      ****                             set_imagen(1,99);           //Inicio opciones GRP 700
 1371              		.loc 1 491 0
 1372 0078 0120     		movs	r0, #1
 1373 007a 6321     		movs	r1, #99
 1374 007c FFF7FEFF 		bl	set_imagen
 1375              	.LVL109:
 492:.\main.c      **** 							seleccion_pos = 2;	
 1376              		.loc 1 492 0
 1377 0080 0222     		movs	r2, #2
 1378 0082 894B     		ldr	r3, .L130+8
 1379 0084 1A70     		strb	r2, [r3]
 493:.\main.c      ****                             flujo_LCD  = 0;
 1380              		.loc 1 493 0
 1381 0086 0022     		movs	r2, #0
 1382 0088 884B     		ldr	r3, .L130+12
 1383 008a 1A70     		strb	r2, [r3]
ARM GAS  C:\Users\RECEPC~1\AppData\Local\Temp\ccHIf77r.s 			page 34


 494:.\main.c      ****                             flujo_LCD2 = 1;
 1384              		.loc 1 494 0
 1385 008c 0122     		movs	r2, #1
 1386 008e 844B     		ldr	r3, .L130
 1387 0090 1A70     		strb	r2, [r3]
 1388              	.L90:
 495:.\main.c      **** 					    break;
 496:.\main.c      ****                                                    
 497:.\main.c      **** 				    }
 498:.\main.c      **** 			    }
 499:.\main.c      ****                 CyDelay(100);
 1389              		.loc 1 499 0
 1390 0092 6420     		movs	r0, #100
 1391 0094 FFF7FEFF 		bl	CyDelay
 1392              	.LVL110:
 500:.\main.c      **** 			    LCD_1_ClearRxBuffer();
 1393              		.loc 1 500 0
 1394 0098 FFF7FEFF 		bl	LCD_1_ClearRxBuffer
 1395              	.LVL111:
 1396 009c 10BD     		pop	{r4, pc}
 1397              	.L83:
 501:.\main.c      **** 		    }	                    
 502:.\main.c      ****         break;
 503:.\main.c      ****             
 504:.\main.c      ****         case 1:
 505:.\main.c      ****             if(LCD_1_GetRxBufferSize()==8){
 1398              		.loc 1 505 0
 1399 009e FFF7FEFF 		bl	LCD_1_GetRxBufferSize
 1400              	.LVL112:
 1401 00a2 0828     		cmp	r0, #8
 1402 00a4 40F0BF82 		bne	.L79
 506:.\main.c      ****                 if((LCD_1_rxBuffer[0]==0xAA) && (LCD_1_rxBuffer[6]==0xC3) && (LCD_1_rxBuffer[7]==0x
 1403              		.loc 1 506 0
 1404 00a8 7E4B     		ldr	r3, .L130+4
 1405 00aa 1B78     		ldrb	r3, [r3]	@ zero_extendqisi2
 1406 00ac DBB2     		uxtb	r3, r3
 1407 00ae AA2B     		cmp	r3, #170
 1408 00b0 20D1     		bne	.L93
 1409              		.loc 1 506 0 is_stmt 0 discriminator 1
 1410 00b2 7C4B     		ldr	r3, .L130+4
 1411 00b4 9B79     		ldrb	r3, [r3, #6]	@ zero_extendqisi2
 1412 00b6 DBB2     		uxtb	r3, r3
 1413 00b8 C32B     		cmp	r3, #195
 1414 00ba 1BD1     		bne	.L93
 1415              		.loc 1 506 0 discriminator 2
 1416 00bc 794B     		ldr	r3, .L130+4
 1417 00be DB79     		ldrb	r3, [r3, #7]	@ zero_extendqisi2
 1418 00c0 DBB2     		uxtb	r3, r3
 1419 00c2 3C2B     		cmp	r3, #60
 1420 00c4 16D1     		bne	.L93
 507:.\main.c      ****                     switch(LCD_1_rxBuffer[3]){
 1421              		.loc 1 507 0 is_stmt 1
 1422 00c6 774B     		ldr	r3, .L130+4
 1423 00c8 DB78     		ldrb	r3, [r3, #3]	@ zero_extendqisi2
 1424 00ca DBB2     		uxtb	r3, r3
 1425 00cc 5C2B     		cmp	r3, #92
 1426 00ce 02D0     		beq	.L94
ARM GAS  C:\Users\RECEPC~1\AppData\Local\Temp\ccHIf77r.s 			page 35


 1427 00d0 7E2B     		cmp	r3, #126
 1428 00d2 08D0     		beq	.L95
 1429 00d4 0EE0     		b	.L93
 1430              	.L94:
 508:.\main.c      ****                         case 0x5C:
 509:.\main.c      ****                             set_imagen(1,73);  //Seleccion de tipo de venta
 1431              		.loc 1 509 0
 1432 00d6 0120     		movs	r0, #1
 1433 00d8 4921     		movs	r1, #73
 1434 00da FFF7FEFF 		bl	set_imagen
 1435              	.LVL113:
 510:.\main.c      ****                             flujo_LCD2 = 2;
 1436              		.loc 1 510 0
 1437 00de 0222     		movs	r2, #2
 1438 00e0 6F4B     		ldr	r3, .L130
 1439 00e2 1A70     		strb	r2, [r3]
 511:.\main.c      ****                         break;
 1440              		.loc 1 511 0
 1441 00e4 06E0     		b	.L93
 1442              	.L95:
 512:.\main.c      ****                     
 513:.\main.c      ****                         case 0x7E:
 514:.\main.c      ****                             set_imagen(1,46); //Regreso a pantalla de selección de posición
 1443              		.loc 1 514 0
 1444 00e6 0120     		movs	r0, #1
 1445 00e8 2E21     		movs	r1, #46
 1446 00ea FFF7FEFF 		bl	set_imagen
 1447              	.LVL114:
 515:.\main.c      ****                             flujo_LCD2 = 0;
 1448              		.loc 1 515 0
 1449 00ee 0022     		movs	r2, #0
 1450 00f0 6B4B     		ldr	r3, .L130
 1451 00f2 1A70     		strb	r2, [r3]
 1452              	.L93:
 516:.\main.c      ****                         break;
 517:.\main.c      ****                 }
 518:.\main.c      ****             }
 519:.\main.c      ****             CyDelay(100);
 1453              		.loc 1 519 0
 1454 00f4 6420     		movs	r0, #100
 1455 00f6 FFF7FEFF 		bl	CyDelay
 1456              	.LVL115:
 520:.\main.c      ****             LCD_1_ClearRxBuffer();
 1457              		.loc 1 520 0
 1458 00fa FFF7FEFF 		bl	LCD_1_ClearRxBuffer
 1459              	.LVL116:
 1460 00fe 10BD     		pop	{r4, pc}
 1461              	.L84:
 521:.\main.c      ****         }
 522:.\main.c      ****         break;
 523:.\main.c      ****         
 524:.\main.c      ****         case 2:     
 525:.\main.c      ****          if(LCD_1_GetRxBufferSize()==8){
 1462              		.loc 1 525 0
 1463 0100 FFF7FEFF 		bl	LCD_1_GetRxBufferSize
 1464              	.LVL117:
 1465 0104 0828     		cmp	r0, #8
ARM GAS  C:\Users\RECEPC~1\AppData\Local\Temp\ccHIf77r.s 			page 36


 1466 0106 40F08E82 		bne	.L79
 526:.\main.c      ****             if((LCD_1_rxBuffer[0]==0xAA) && (LCD_1_rxBuffer[6]==0xC3) && (LCD_1_rxBuffer[7]==0x3C))
 1467              		.loc 1 526 0
 1468 010a 664B     		ldr	r3, .L130+4
 1469 010c 1B78     		ldrb	r3, [r3]	@ zero_extendqisi2
 1470 010e DBB2     		uxtb	r3, r3
 1471 0110 AA2B     		cmp	r3, #170
 1472 0112 2AD1     		bne	.L96
 1473              		.loc 1 526 0 is_stmt 0 discriminator 1
 1474 0114 634B     		ldr	r3, .L130+4
 1475 0116 9B79     		ldrb	r3, [r3, #6]	@ zero_extendqisi2
 1476 0118 DBB2     		uxtb	r3, r3
 1477 011a C32B     		cmp	r3, #195
 1478 011c 25D1     		bne	.L96
 1479              		.loc 1 526 0 discriminator 2
 1480 011e 614B     		ldr	r3, .L130+4
 1481 0120 DB79     		ldrb	r3, [r3, #7]	@ zero_extendqisi2
 1482 0122 DBB2     		uxtb	r3, r3
 1483 0124 3C2B     		cmp	r3, #60
 1484 0126 20D1     		bne	.L96
 527:.\main.c      ****                 switch(LCD_1_rxBuffer[3]){
 1485              		.loc 1 527 0 is_stmt 1
 1486 0128 5E4B     		ldr	r3, .L130+4
 1487 012a DB78     		ldrb	r3, [r3, #3]	@ zero_extendqisi2
 1488 012c DBB2     		uxtb	r3, r3
 1489 012e 5F2B     		cmp	r3, #95
 1490 0130 04D0     		beq	.L97
 1491 0132 7E2B     		cmp	r3, #126
 1492 0134 12D0     		beq	.L98
 1493 0136 5E2B     		cmp	r3, #94
 1494 0138 17D1     		bne	.L96
 1495 013a 07E0     		b	.L99
 1496              	.L97:
 528:.\main.c      ****                     case 0x5F:								 	 //Sin ID	                                                 
 529:.\main.c      ****                       set_imagen(1,11);                       
 1497              		.loc 1 529 0
 1498 013c 0120     		movs	r0, #1
 1499 013e 0B21     		movs	r1, #11
 1500 0140 FFF7FEFF 		bl	set_imagen
 1501              	.LVL118:
 530:.\main.c      ****                       flujo_LCD2 = 10; 
 1502              		.loc 1 530 0
 1503 0144 0A22     		movs	r2, #10
 1504 0146 564B     		ldr	r3, .L130
 1505 0148 1A70     		strb	r2, [r3]
 531:.\main.c      ****                     break;
 1506              		.loc 1 531 0
 1507 014a 0EE0     		b	.L96
 1508              	.L99:
 532:.\main.c      ****                     
 533:.\main.c      ****                     case 0x5E:  								//Con ID                                         
 534:.\main.c      ****                       set_imagen(1,29);
 1509              		.loc 1 534 0
 1510 014c 0120     		movs	r0, #1
 1511 014e 1D21     		movs	r1, #29
 1512 0150 FFF7FEFF 		bl	set_imagen
 1513              	.LVL119:
ARM GAS  C:\Users\RECEPC~1\AppData\Local\Temp\ccHIf77r.s 			page 37


 535:.\main.c      ****                       flujo_LCD2 = 11;
 1514              		.loc 1 535 0
 1515 0154 0B22     		movs	r2, #11
 1516 0156 524B     		ldr	r3, .L130
 1517 0158 1A70     		strb	r2, [r3]
 536:.\main.c      ****                     break;	
 1518              		.loc 1 536 0
 1519 015a 06E0     		b	.L96
 1520              	.L98:
 537:.\main.c      **** 
 538:.\main.c      ****                     case 0x7E:									//ir a menu
 539:.\main.c      **** 					  set_imagen(1,46);	
 1521              		.loc 1 539 0
 1522 015c 0120     		movs	r0, #1
 1523 015e 2E21     		movs	r1, #46
 1524 0160 FFF7FEFF 		bl	set_imagen
 1525              	.LVL120:
 540:.\main.c      ****                       flujo_LCD2 = 0;     
 1526              		.loc 1 540 0
 1527 0164 0022     		movs	r2, #0
 1528 0166 4E4B     		ldr	r3, .L130
 1529 0168 1A70     		strb	r2, [r3]
 1530              	.L96:
 541:.\main.c      ****                     break;	
 542:.\main.c      ****                 }
 543:.\main.c      ****             }
 544:.\main.c      ****             CyDelay(100);
 1531              		.loc 1 544 0
 1532 016a 6420     		movs	r0, #100
 1533 016c FFF7FEFF 		bl	CyDelay
 1534              	.LVL121:
 545:.\main.c      ****             LCD_1_ClearRxBuffer();
 1535              		.loc 1 545 0
 1536 0170 FFF7FEFF 		bl	LCD_1_ClearRxBuffer
 1537              	.LVL122:
 1538 0174 10BD     		pop	{r4, pc}
 1539              	.L85:
 546:.\main.c      ****         }        
 547:.\main.c      ****         break;
 548:.\main.c      ****         
 549:.\main.c      ****         case 4:   
 550:.\main.c      ****             if(LCD_1_GetRxBufferSize()==8){
 1540              		.loc 1 550 0
 1541 0176 FFF7FEFF 		bl	LCD_1_GetRxBufferSize
 1542              	.LVL123:
 1543 017a 0828     		cmp	r0, #8
 1544 017c 40F05382 		bne	.L79
 551:.\main.c      ****                 if((LCD_1_rxBuffer[0]==0xAA) && (LCD_1_rxBuffer[6]==0xC3) && (LCD_1_rxBuffer[7]==0x
 1545              		.loc 1 551 0
 1546 0180 484B     		ldr	r3, .L130+4
 1547 0182 1B78     		ldrb	r3, [r3]	@ zero_extendqisi2
 1548 0184 DBB2     		uxtb	r3, r3
 1549 0186 AA2B     		cmp	r3, #170
 1550 0188 5FD1     		bne	.L100
 1551              		.loc 1 551 0 is_stmt 0 discriminator 1
 1552 018a 464B     		ldr	r3, .L130+4
 1553 018c 9B79     		ldrb	r3, [r3, #6]	@ zero_extendqisi2
ARM GAS  C:\Users\RECEPC~1\AppData\Local\Temp\ccHIf77r.s 			page 38


 1554 018e DBB2     		uxtb	r3, r3
 1555 0190 C32B     		cmp	r3, #195
 1556 0192 5AD1     		bne	.L100
 1557              		.loc 1 551 0 discriminator 2
 1558 0194 434B     		ldr	r3, .L130+4
 1559 0196 DB79     		ldrb	r3, [r3, #7]	@ zero_extendqisi2
 1560 0198 DBB2     		uxtb	r3, r3
 1561 019a 3C2B     		cmp	r3, #60
 1562 019c 55D1     		bne	.L100
 552:.\main.c      **** 				    Buffer_LCD1.preset&=0xFC;
 1563              		.loc 1 552 0 is_stmt 1
 1564 019e 444A     		ldr	r2, .L130+16
 1565 01a0 D378     		ldrb	r3, [r2, #3]	@ zero_extendqisi2
 1566 01a2 23F00303 		bic	r3, r3, #3
 1567 01a6 D370     		strb	r3, [r2, #3]
 553:.\main.c      ****                     switch(LCD_1_rxBuffer[3]){
 1568              		.loc 1 553 0
 1569 01a8 3E4B     		ldr	r3, .L130+4
 1570 01aa DB78     		ldrb	r3, [r3, #3]	@ zero_extendqisi2
 1571 01ac DBB2     		uxtb	r3, r3
 1572 01ae 3B2B     		cmp	r3, #59
 1573 01b0 3CD0     		beq	.L101
 1574 01b2 04D8     		bhi	.L102
 1575 01b4 0F2B     		cmp	r3, #15
 1576 01b6 07D0     		beq	.L103
 1577 01b8 102B     		cmp	r3, #16
 1578 01ba 19D0     		beq	.L104
 1579 01bc 45E0     		b	.L100
 1580              	.L102:
 1581 01be 432B     		cmp	r3, #67
 1582 01c0 2CD0     		beq	.L105
 1583 01c2 7E2B     		cmp	r3, #126
 1584 01c4 3AD0     		beq	.L106
 1585 01c6 40E0     		b	.L100
 1586              	.L103:
 554:.\main.c      ****                         case 0x0F:		   					 	 //Preset por dinero	                               
 555:.\main.c      ****                             set_imagen(1,6);                   
 1587              		.loc 1 555 0
 1588 01c8 0120     		movs	r0, #1
 1589 01ca 0621     		movs	r1, #6
 1590 01cc FFF7FEFF 		bl	set_imagen
 1591              	.LVL124:
 556:.\main.c      ****                             teclas1=0;                           //Inicia el contador de teclas    
 1592              		.loc 1 556 0
 1593 01d0 0022     		movs	r2, #0
 1594 01d2 384B     		ldr	r3, .L130+20
 1595 01d4 1A70     		strb	r2, [r3]
 557:.\main.c      ****                             write_LCD(1,'$',0);
 1596              		.loc 1 557 0
 1597 01d6 0120     		movs	r0, #1
 1598 01d8 2421     		movs	r1, #36
 1599 01da FFF7FEFF 		bl	write_LCD
 1600              	.LVL125:
 558:.\main.c      **** 					        Buffer_LCD1.preset|=2;
 1601              		.loc 1 558 0
 1602 01de 344A     		ldr	r2, .L130+16
 1603 01e0 D378     		ldrb	r3, [r2, #3]	@ zero_extendqisi2
ARM GAS  C:\Users\RECEPC~1\AppData\Local\Temp\ccHIf77r.s 			page 39


 1604 01e2 43F00203 		orr	r3, r3, #2
 1605 01e6 D370     		strb	r3, [r2, #3]
 559:.\main.c      ****                             flujo_LCD2 = 5;   
 1606              		.loc 1 559 0
 1607 01e8 0522     		movs	r2, #5
 1608 01ea 2D4B     		ldr	r3, .L130
 1609 01ec 1A70     		strb	r2, [r3]
 560:.\main.c      ****                         break;
 1610              		.loc 1 560 0
 1611 01ee 2CE0     		b	.L100
 1612              	.L104:
 561:.\main.c      ****                     
 562:.\main.c      ****                         case 0x10:  	                         //Inicia el contador de teclas
 563:.\main.c      ****                             set_imagen(1,13);              
 1613              		.loc 1 563 0
 1614 01f0 0120     		movs	r0, #1
 1615 01f2 0D21     		movs	r1, #13
 1616 01f4 FFF7FEFF 		bl	set_imagen
 1617              	.LVL126:
 564:.\main.c      ****                             teclas1=0;       
 1618              		.loc 1 564 0
 1619 01f8 0022     		movs	r2, #0
 1620 01fa 2E4B     		ldr	r3, .L130+20
 1621 01fc 1A70     		strb	r2, [r3]
 565:.\main.c      ****                             comas1=0;
 1622              		.loc 1 565 0
 1623 01fe 2E4B     		ldr	r3, .L130+24
 1624 0200 1A70     		strb	r2, [r3]
 566:.\main.c      ****                             write_LCD(1,'G',0);
 1625              		.loc 1 566 0
 1626 0202 0120     		movs	r0, #1
 1627 0204 4721     		movs	r1, #71
 1628 0206 FFF7FEFF 		bl	write_LCD
 1629              	.LVL127:
 567:.\main.c      **** 					        Buffer_LCD1.preset|=1;				 // Preset por volumen
 1630              		.loc 1 567 0
 1631 020a 294A     		ldr	r2, .L130+16
 1632 020c D378     		ldrb	r3, [r2, #3]	@ zero_extendqisi2
 1633 020e 43F00103 		orr	r3, r3, #1
 1634 0212 D370     		strb	r3, [r2, #3]
 568:.\main.c      ****                             flujo_LCD2 = 5;   
 1635              		.loc 1 568 0
 1636 0214 0522     		movs	r2, #5
 1637 0216 224B     		ldr	r3, .L130
 1638 0218 1A70     		strb	r2, [r3]
 569:.\main.c      ****                         break;
 1639              		.loc 1 569 0
 1640 021a 16E0     		b	.L100
 1641              	.L105:
 570:.\main.c      ****                     
 571:.\main.c      ****                         case 0x43:  	                                     
 572:.\main.c      ****                             set_imagen(1,7);					 //Full
 1642              		.loc 1 572 0
 1643 021c 0120     		movs	r0, #1
 1644 021e 0721     		movs	r1, #7
 1645 0220 FFF7FEFF 		bl	set_imagen
 1646              	.LVL128:
ARM GAS  C:\Users\RECEPC~1\AppData\Local\Temp\ccHIf77r.s 			page 40


 573:.\main.c      ****                             flujo_LCD2 = 6;    
 1647              		.loc 1 573 0
 1648 0224 0622     		movs	r2, #6
 1649 0226 1E4B     		ldr	r3, .L130
 1650 0228 1A70     		strb	r2, [r3]
 574:.\main.c      ****                         break;
 1651              		.loc 1 574 0
 1652 022a 0EE0     		b	.L100
 1653              	.L101:
 575:.\main.c      ****                     
 576:.\main.c      ****                         case 0x3B:                        	    //Cancel                     					  
 577:.\main.c      **** 		            	    set_imagen(1,46);			 						  
 1654              		.loc 1 577 0
 1655 022c 0120     		movs	r0, #1
 1656 022e 2E21     		movs	r1, #46
 1657 0230 FFF7FEFF 		bl	set_imagen
 1658              	.LVL129:
 578:.\main.c      **** 					        flujo_LCD2 = 0;  
 1659              		.loc 1 578 0
 1660 0234 0022     		movs	r2, #0
 1661 0236 1A4B     		ldr	r3, .L130
 1662 0238 1A70     		strb	r2, [r3]
 579:.\main.c      ****                         break; 
 1663              		.loc 1 579 0
 1664 023a 06E0     		b	.L100
 1665              	.L106:
 580:.\main.c      **** 					
 581:.\main.c      ****                         case 0x7E:									//ir a menu
 582:.\main.c      **** 					        set_imagen(1,46);
 1666              		.loc 1 582 0
 1667 023c 0120     		movs	r0, #1
 1668 023e 2E21     		movs	r1, #46
 1669 0240 FFF7FEFF 		bl	set_imagen
 1670              	.LVL130:
 583:.\main.c      ****                             flujo_LCD2 = 0;     
 1671              		.loc 1 583 0
 1672 0244 0022     		movs	r2, #0
 1673 0246 164B     		ldr	r3, .L130
 1674 0248 1A70     		strb	r2, [r3]
 1675              	.L100:
 584:.\main.c      ****                         break;					
 585:.\main.c      ****                 }
 586:.\main.c      ****             }
 587:.\main.c      ****             CyDelay(100);            
 1676              		.loc 1 587 0
 1677 024a 6420     		movs	r0, #100
 1678 024c FFF7FEFF 		bl	CyDelay
 1679              	.LVL131:
 588:.\main.c      ****             LCD_1_ClearRxBuffer();
 1680              		.loc 1 588 0
 1681 0250 FFF7FEFF 		bl	LCD_1_ClearRxBuffer
 1682              	.LVL132:
 1683 0254 10BD     		pop	{r4, pc}
 1684              	.L86:
 589:.\main.c      ****          } 
 590:.\main.c      ****         break;
 591:.\main.c      ****             
ARM GAS  C:\Users\RECEPC~1\AppData\Local\Temp\ccHIf77r.s 			page 41


 592:.\main.c      ****          case 6:		 
 593:.\main.c      ****             if(LCD_1_GetRxBufferSize()==8){
 1685              		.loc 1 593 0
 1686 0256 FFF7FEFF 		bl	LCD_1_GetRxBufferSize
 1687              	.LVL133:
 1688 025a 0828     		cmp	r0, #8
 1689 025c 2ED1     		bne	.L107
 594:.\main.c      ****                 if((LCD_1_rxBuffer[0]==0xAA) && (LCD_1_rxBuffer[6]==0xC3) && (LCD_1_rxBuffer[7]==0x
 1690              		.loc 1 594 0
 1691 025e 114B     		ldr	r3, .L130+4
 1692 0260 1B78     		ldrb	r3, [r3]	@ zero_extendqisi2
 1693 0262 DBB2     		uxtb	r3, r3
 1694 0264 AA2B     		cmp	r3, #170
 1695 0266 15D1     		bne	.L108
 1696              		.loc 1 594 0 is_stmt 0 discriminator 1
 1697 0268 0E4B     		ldr	r3, .L130+4
 1698 026a 9B79     		ldrb	r3, [r3, #6]	@ zero_extendqisi2
 1699 026c DBB2     		uxtb	r3, r3
 1700 026e C32B     		cmp	r3, #195
 1701 0270 10D1     		bne	.L108
 1702              		.loc 1 594 0 discriminator 2
 1703 0272 0C4B     		ldr	r3, .L130+4
 1704 0274 DB79     		ldrb	r3, [r3, #7]	@ zero_extendqisi2
 1705 0276 DBB2     		uxtb	r3, r3
 1706 0278 3C2B     		cmp	r3, #60
 1707 027a 0BD1     		bne	.L108
 595:.\main.c      ****                     if(LCD_1_rxBuffer[3]==0x7E){			//ir a menu
 1708              		.loc 1 595 0 is_stmt 1
 1709 027c 094B     		ldr	r3, .L130+4
 1710 027e DB78     		ldrb	r3, [r3, #3]	@ zero_extendqisi2
 1711 0280 DBB2     		uxtb	r3, r3
 1712 0282 7E2B     		cmp	r3, #126
 1713 0284 06D1     		bne	.L108
 596:.\main.c      **** 					    set_imagen(1,46);					//Cancel
 1714              		.loc 1 596 0
 1715 0286 0120     		movs	r0, #1
 1716 0288 2E21     		movs	r1, #46
 1717 028a FFF7FEFF 		bl	set_imagen
 1718              	.LVL134:
 597:.\main.c      **** 					    flujo_LCD2 = 0;
 1719              		.loc 1 597 0
 1720 028e 0022     		movs	r2, #0
 1721 0290 034B     		ldr	r3, .L130
 1722 0292 1A70     		strb	r2, [r3]
 1723              	.L108:
 598:.\main.c      ****                     }												
 599:.\main.c      **** 			    }
 600:.\main.c      ****             CyDelay(100);            
 1724              		.loc 1 600 0
 1725 0294 6420     		movs	r0, #100
 1726 0296 FFF7FEFF 		bl	CyDelay
 1727              	.LVL135:
 601:.\main.c      ****             LCD_1_ClearRxBuffer();
 1728              		.loc 1 601 0
 1729 029a FFF7FEFF 		bl	LCD_1_ClearRxBuffer
 1730              	.LVL136:
 602:.\main.c      **** 			break;
ARM GAS  C:\Users\RECEPC~1\AppData\Local\Temp\ccHIf77r.s 			page 42


 1731              		.loc 1 602 0
 1732 029e 10BD     		pop	{r4, pc}
 1733              	.L131:
 1734              		.align	2
 1735              	.L130:
 1736 02a0 00000000 		.word	flujo_LCD2
 1737 02a4 00000000 		.word	LCD_1_rxBuffer
 1738 02a8 00000000 		.word	seleccion_pos
 1739 02ac 00000000 		.word	flujo_LCD
 1740 02b0 00000000 		.word	Buffer_LCD1
 1741 02b4 00000000 		.word	teclas1
 1742 02b8 00000000 		.word	comas1
 1743              	.L107:
 603:.\main.c      **** 		    }
 604:.\main.c      ****             if(get_estado(b.dir)==7){													//Espera a que este en listo el equipo				
 1744              		.loc 1 604 0
 1745 02bc AE4B     		ldr	r3, .L132
 1746 02be 1878     		ldrb	r0, [r3]	@ zero_extendqisi2
 1747 02c0 FFF7FEFF 		bl	get_estado
 1748              	.LVL137:
 1749 02c4 0728     		cmp	r0, #7
 1750 02c6 40F0AE81 		bne	.L79
 605:.\main.c      **** 			CyDelay(50);		
 1751              		.loc 1 605 0
 1752 02ca 3220     		movs	r0, #50
 1753 02cc FFF7FEFF 		bl	CyDelay
 1754              	.LVL138:
 606:.\main.c      **** 			if((Buffer_LCD1.preset&0x02)==0x02||(Buffer_LCD1.preset&0x01)==0x01){		//Dependiendo del preset 
 1755              		.loc 1 606 0
 1756 02d0 AA4B     		ldr	r3, .L132+4
 1757 02d2 DB78     		ldrb	r3, [r3, #3]	@ zero_extendqisi2
 1758 02d4 13F00303 		ands	r3, r3, #3
 1759 02d8 0FD0     		beq	.L109
 607:.\main.c      **** 				if(programar(b.dir,producto1,Buffer_LCD1.valor,(Buffer_LCD1.preset&0x03))==0){
 1760              		.loc 1 607 0
 1761 02da A74A     		ldr	r2, .L132
 1762 02dc 1078     		ldrb	r0, [r2]	@ zero_extendqisi2
 1763 02de A84A     		ldr	r2, .L132+8
 1764 02e0 1178     		ldrb	r1, [r2]	@ zero_extendqisi2
 1765 02e2 A84A     		ldr	r2, .L132+12
 1766 02e4 FFF7FEFF 		bl	programar
 1767              	.LVL139:
 1768 02e8 38B9     		cbnz	r0, .L109
 608:.\main.c      **** 					set_imagen(1,46);
 1769              		.loc 1 608 0
 1770 02ea 0120     		movs	r0, #1
 1771 02ec 2E21     		movs	r1, #46
 1772 02ee FFF7FEFF 		bl	set_imagen
 1773              	.LVL140:
 609:.\main.c      **** 					flujo_LCD2 = 0;
 1774              		.loc 1 609 0
 1775 02f2 0022     		movs	r2, #0
 1776 02f4 A44B     		ldr	r3, .L132+16
 1777 02f6 1A70     		strb	r2, [r3]
 610:.\main.c      **** 					break;
 1778              		.loc 1 610 0
 1779 02f8 10BD     		pop	{r4, pc}
ARM GAS  C:\Users\RECEPC~1\AppData\Local\Temp\ccHIf77r.s 			page 43


 1780              	.L109:
 611:.\main.c      **** 				}					
 612:.\main.c      **** 			}			
 613:.\main.c      **** 			grado1=estado_ex(b.dir);			
 1781              		.loc 1 613 0
 1782 02fa 9F4C     		ldr	r4, .L132
 1783 02fc 2078     		ldrb	r0, [r4]	@ zero_extendqisi2
 1784 02fe FFF7FEFF 		bl	estado_ex
 1785              	.LVL141:
 1786 0302 A24B     		ldr	r3, .L132+20
 1787 0304 1870     		strb	r0, [r3]
 614:.\main.c      **** 			Surtidor_PutChar(0x10|b.dir);									//Autoriza el surtidor
 1788              		.loc 1 614 0
 1789 0306 2078     		ldrb	r0, [r4]	@ zero_extendqisi2
 1790 0308 40F01000 		orr	r0, r0, #16
 1791 030c FFF7FEFF 		bl	Surtidor_PutChar
 1792              	.LVL142:
 615:.\main.c      **** 			set_imagen(1,8);
 1793              		.loc 1 615 0
 1794 0310 0120     		movs	r0, #1
 1795 0312 0821     		movs	r1, #8
 1796 0314 FFF7FEFF 		bl	set_imagen
 1797              	.LVL143:
 616:.\main.c      ****             flujo_LCD2 = 7;				
 1798              		.loc 1 616 0
 1799 0318 0722     		movs	r2, #7
 1800 031a 9B4B     		ldr	r3, .L132+16
 1801 031c 1A70     		strb	r2, [r3]
 1802 031e 10BD     		pop	{r4, pc}
 1803              	.L87:
 617:.\main.c      **** 			}
 618:.\main.c      ****          
 619:.\main.c      ****         break;
 620:.\main.c      ****             
 621:.\main.c      ****         case 7:
 622:.\main.c      **** 		 CyDelay(50);
 1804              		.loc 1 622 0
 1805 0320 3220     		movs	r0, #50
 1806 0322 FFF7FEFF 		bl	CyDelay
 1807              	.LVL144:
 623:.\main.c      **** 		 switch(get_estado(b.dir)){
 1808              		.loc 1 623 0
 1809 0326 944B     		ldr	r3, .L132
 1810 0328 1878     		ldrb	r0, [r3]	@ zero_extendqisi2
 1811 032a FFF7FEFF 		bl	get_estado
 1812              	.LVL145:
 1813 032e 0A28     		cmp	r0, #10
 1814 0330 35D0     		beq	.L110
 1815 0332 0B28     		cmp	r0, #11
 1816 0334 03D0     		beq	.L111
 1817 0336 0628     		cmp	r0, #6
 1818 0338 40F07581 		bne	.L79
 1819 033c 5FE0     		b	.L112
 1820              	.L111:
 624:.\main.c      **** 	        case 0x0B:                     //Termino venta            
 625:.\main.c      **** 				CyDelay(100);
 1821              		.loc 1 625 0
ARM GAS  C:\Users\RECEPC~1\AppData\Local\Temp\ccHIf77r.s 			page 44


 1822 033e 6420     		movs	r0, #100
 1823 0340 FFF7FEFF 		bl	CyDelay
 1824              	.LVL146:
 626:.\main.c      **** 				if(venta(b.dir)==1 && no_imprime == 0){	
 1825              		.loc 1 626 0
 1826 0344 8C4B     		ldr	r3, .L132
 1827 0346 1878     		ldrb	r0, [r3]	@ zero_extendqisi2
 1828 0348 FFF7FEFF 		bl	venta
 1829              	.LVL147:
 1830 034c 0128     		cmp	r0, #1
 1831 034e 0BD1     		bne	.L113
 1832              		.loc 1 626 0 is_stmt 0 discriminator 1
 1833 0350 8F4B     		ldr	r3, .L132+24
 1834 0352 1B78     		ldrb	r3, [r3]	@ zero_extendqisi2
 1835 0354 43B9     		cbnz	r3, .L113
 627:.\main.c      **** 		            set_imagen(1,57);
 1836              		.loc 1 627 0 is_stmt 1
 1837 0356 3921     		movs	r1, #57
 1838 0358 FFF7FEFF 		bl	set_imagen
 1839              	.LVL148:
 628:.\main.c      ****                     CyDelay(20);
 1840              		.loc 1 628 0
 1841 035c 1420     		movs	r0, #20
 1842 035e FFF7FEFF 		bl	CyDelay
 1843              	.LVL149:
 629:.\main.c      ****                     flujo_LCD2 = 13;
 1844              		.loc 1 629 0
 1845 0362 0D22     		movs	r2, #13
 1846 0364 884B     		ldr	r3, .L132+16
 1847 0366 1A70     		strb	r2, [r3]
 1848              	.L113:
 630:.\main.c      **** 				}
 631:.\main.c      ****                 if(venta(b.dir)==1 && no_imprime == 1){	
 1849              		.loc 1 631 0
 1850 0368 834B     		ldr	r3, .L132
 1851 036a 1878     		ldrb	r0, [r3]	@ zero_extendqisi2
 1852 036c FFF7FEFF 		bl	venta
 1853              	.LVL150:
 1854 0370 0128     		cmp	r0, #1
 1855 0372 40F05881 		bne	.L79
 1856              		.loc 1 631 0 is_stmt 0 discriminator 1
 1857 0376 864B     		ldr	r3, .L132+24
 1858 0378 1B78     		ldrb	r3, [r3]	@ zero_extendqisi2
 1859 037a 012B     		cmp	r3, #1
 1860 037c 40F05381 		bne	.L79
 632:.\main.c      **** 		            set_imagen(1,12);         //Finaliza venta sin impresión de recibo
 1861              		.loc 1 632 0 is_stmt 1
 1862 0380 0C21     		movs	r1, #12
 1863 0382 FFF7FEFF 		bl	set_imagen
 1864              	.LVL151:
 633:.\main.c      ****                     CyDelay(500);
 1865              		.loc 1 633 0
 1866 0386 4FF4FA70 		mov	r0, #500
 1867 038a FFF7FEFF 		bl	CyDelay
 1868              	.LVL152:
 634:.\main.c      ****                     set_imagen(1,46);
 1869              		.loc 1 634 0
ARM GAS  C:\Users\RECEPC~1\AppData\Local\Temp\ccHIf77r.s 			page 45


 1870 038e 0120     		movs	r0, #1
 1871 0390 2E21     		movs	r1, #46
 1872 0392 FFF7FEFF 		bl	set_imagen
 1873              	.LVL153:
 635:.\main.c      ****                     flujo_LCD2 = 0;
 1874              		.loc 1 635 0
 1875 0396 0022     		movs	r2, #0
 1876 0398 7B4B     		ldr	r3, .L132+16
 1877 039a 1A70     		strb	r2, [r3]
 1878 039c 10BD     		pop	{r4, pc}
 1879              	.L110:
 636:.\main.c      **** 				}
 637:.\main.c      **** 			 break;	
 638:.\main.c      **** 				
 639:.\main.c      **** 	        case 0x0A:                         
 640:.\main.c      **** 				CyDelay(100);                  //Termino venta
 1880              		.loc 1 640 0
 1881 039e 6420     		movs	r0, #100
 1882 03a0 FFF7FEFF 		bl	CyDelay
 1883              	.LVL154:
 641:.\main.c      **** 				if(venta(b.dir)==1 && no_imprime == 0){	
 1884              		.loc 1 641 0
 1885 03a4 744B     		ldr	r3, .L132
 1886 03a6 1878     		ldrb	r0, [r3]	@ zero_extendqisi2
 1887 03a8 FFF7FEFF 		bl	venta
 1888              	.LVL155:
 1889 03ac 0128     		cmp	r0, #1
 1890 03ae 0BD1     		bne	.L114
 1891              		.loc 1 641 0 is_stmt 0 discriminator 1
 1892 03b0 774B     		ldr	r3, .L132+24
 1893 03b2 1B78     		ldrb	r3, [r3]	@ zero_extendqisi2
 1894 03b4 43B9     		cbnz	r3, .L114
 642:.\main.c      **** 		            set_imagen(1,57);
 1895              		.loc 1 642 0 is_stmt 1
 1896 03b6 3921     		movs	r1, #57
 1897 03b8 FFF7FEFF 		bl	set_imagen
 1898              	.LVL156:
 643:.\main.c      ****                     CyDelay(20);               //Finaliza venta con impresión de recibo
 1899              		.loc 1 643 0
 1900 03bc 1420     		movs	r0, #20
 1901 03be FFF7FEFF 		bl	CyDelay
 1902              	.LVL157:
 644:.\main.c      ****                     flujo_LCD2 = 13;
 1903              		.loc 1 644 0
 1904 03c2 0D22     		movs	r2, #13
 1905 03c4 704B     		ldr	r3, .L132+16
 1906 03c6 1A70     		strb	r2, [r3]
 1907              	.L114:
 645:.\main.c      **** 				}
 646:.\main.c      ****                 if(venta(b.dir)==1 && no_imprime == 1){	
 1908              		.loc 1 646 0
 1909 03c8 6B4B     		ldr	r3, .L132
 1910 03ca 1878     		ldrb	r0, [r3]	@ zero_extendqisi2
 1911 03cc FFF7FEFF 		bl	venta
 1912              	.LVL158:
 1913 03d0 0128     		cmp	r0, #1
 1914 03d2 40F02881 		bne	.L79
ARM GAS  C:\Users\RECEPC~1\AppData\Local\Temp\ccHIf77r.s 			page 46


 1915              		.loc 1 646 0 is_stmt 0 discriminator 1
 1916 03d6 6E4B     		ldr	r3, .L132+24
 1917 03d8 1B78     		ldrb	r3, [r3]	@ zero_extendqisi2
 1918 03da 012B     		cmp	r3, #1
 1919 03dc 40F02381 		bne	.L79
 647:.\main.c      **** 		            set_imagen(1,12);         //Finaliza venta sin impresión de recibo
 1920              		.loc 1 647 0 is_stmt 1
 1921 03e0 0C21     		movs	r1, #12
 1922 03e2 FFF7FEFF 		bl	set_imagen
 1923              	.LVL159:
 648:.\main.c      ****                     CyDelay(500);
 1924              		.loc 1 648 0
 1925 03e6 4FF4FA70 		mov	r0, #500
 1926 03ea FFF7FEFF 		bl	CyDelay
 1927              	.LVL160:
 649:.\main.c      ****                     set_imagen(1,46);
 1928              		.loc 1 649 0
 1929 03ee 0120     		movs	r0, #1
 1930 03f0 2E21     		movs	r1, #46
 1931 03f2 FFF7FEFF 		bl	set_imagen
 1932              	.LVL161:
 650:.\main.c      ****                     flujo_LCD2 = 0;
 1933              		.loc 1 650 0
 1934 03f6 0022     		movs	r2, #0
 1935 03f8 634B     		ldr	r3, .L132+16
 1936 03fa 1A70     		strb	r2, [r3]
 1937 03fc 10BD     		pop	{r4, pc}
 1938              	.L112:
 651:.\main.c      **** 				}
 652:.\main.c      **** 			break;
 653:.\main.c      **** 
 654:.\main.c      **** 	        case 0x06: 
 655:.\main.c      ****                 set_imagen(1,46); //No hizo venta
 1939              		.loc 1 655 0
 1940 03fe 0120     		movs	r0, #1
 1941 0400 2E21     		movs	r1, #46
 1942 0402 FFF7FEFF 		bl	set_imagen
 1943              	.LVL162:
 656:.\main.c      **** 				flujo_LCD2 = 0;
 1944              		.loc 1 656 0
 1945 0406 0022     		movs	r2, #0
 1946 0408 5F4B     		ldr	r3, .L132+16
 1947 040a 1A70     		strb	r2, [r3]
 657:.\main.c      **** 			break;		
 1948              		.loc 1 657 0
 1949 040c 10BD     		pop	{r4, pc}
 1950              	.L88:
 658:.\main.c      ****              			 	
 659:.\main.c      ****          }		
 660:.\main.c      ****         break;
 661:.\main.c      ****         
 662:.\main.c      ****         case 9:
 663:.\main.c      ****           if(LCD_1_GetRxBufferSize()==8){
 1951              		.loc 1 663 0
 1952 040e FFF7FEFF 		bl	LCD_1_GetRxBufferSize
 1953              	.LVL163:
 1954 0412 0828     		cmp	r0, #8
ARM GAS  C:\Users\RECEPC~1\AppData\Local\Temp\ccHIf77r.s 			page 47


 1955 0414 40F00781 		bne	.L79
 664:.\main.c      ****             if((LCD_1_rxBuffer[0]==0xAA) && (LCD_1_rxBuffer[6]==0xC3) && (LCD_1_rxBuffer[7]==0x3C))
 1956              		.loc 1 664 0
 1957 0418 5E4B     		ldr	r3, .L132+28
 1958 041a 1B78     		ldrb	r3, [r3]	@ zero_extendqisi2
 1959 041c DBB2     		uxtb	r3, r3
 1960 041e AA2B     		cmp	r3, #170
 1961 0420 40F0A480 		bne	.L115
 1962              		.loc 1 664 0 is_stmt 0 discriminator 1
 1963 0424 5B4B     		ldr	r3, .L132+28
 1964 0426 9B79     		ldrb	r3, [r3, #6]	@ zero_extendqisi2
 1965 0428 DBB2     		uxtb	r3, r3
 1966 042a C32B     		cmp	r3, #195
 1967 042c 40F09E80 		bne	.L115
 1968              		.loc 1 664 0 discriminator 2
 1969 0430 584B     		ldr	r3, .L132+28
 1970 0432 DB79     		ldrb	r3, [r3, #7]	@ zero_extendqisi2
 1971 0434 DBB2     		uxtb	r3, r3
 1972 0436 3C2B     		cmp	r3, #60
 1973 0438 40F09880 		bne	.L115
 665:.\main.c      ****                 if(teclas1<=6){
 1974              		.loc 1 665 0 is_stmt 1
 1975 043c 564B     		ldr	r3, .L132+32
 1976 043e 1B78     		ldrb	r3, [r3]	@ zero_extendqisi2
 1977 0440 062B     		cmp	r3, #6
 1978 0442 64D8     		bhi	.L116
 666:.\main.c      ****                     if(LCD_1_rxBuffer[3]<=9){
 1979              		.loc 1 666 0
 1980 0444 534A     		ldr	r2, .L132+28
 1981 0446 D278     		ldrb	r2, [r2, #3]	@ zero_extendqisi2
 1982 0448 D2B2     		uxtb	r2, r2
 1983 044a 092A     		cmp	r2, #9
 1984 044c 10D8     		bhi	.L117
 667:.\main.c      ****                         teclas1++;
 1985              		.loc 1 667 0
 1986 044e 0133     		adds	r3, r3, #1
 1987 0450 DAB2     		uxtb	r2, r3
 1988 0452 514B     		ldr	r3, .L132+32
 1989 0454 1A70     		strb	r2, [r3]
 668:.\main.c      ****                         Buffer_LCD1.placa[teclas1]=LCD_1_rxBuffer[3]+0x30;
 1990              		.loc 1 668 0
 1991 0456 4F48     		ldr	r0, .L132+28
 1992 0458 C178     		ldrb	r1, [r0, #3]	@ zero_extendqisi2
 1993 045a 484B     		ldr	r3, .L132+4
 1994 045c 1344     		add	r3, r3, r2
 1995 045e 3031     		adds	r1, r1, #48
 1996 0460 83F86510 		strb	r1, [r3, #101]
 669:.\main.c      ****                         write_LCD(1,(LCD_1_rxBuffer[3]+0x30),teclas1);                        
 1997              		.loc 1 669 0
 1998 0464 C178     		ldrb	r1, [r0, #3]	@ zero_extendqisi2
 1999 0466 3031     		adds	r1, r1, #48
 2000 0468 0120     		movs	r0, #1
 2001 046a C9B2     		uxtb	r1, r1
 2002 046c FFF7FEFF 		bl	write_LCD
 2003              	.LVL164:
 2004              	.L117:
 670:.\main.c      ****                     }
ARM GAS  C:\Users\RECEPC~1\AppData\Local\Temp\ccHIf77r.s 			page 48


 671:.\main.c      ****                     if(LCD_1_rxBuffer[3]==0x0A){                                        //Comando d
 2005              		.loc 1 671 0
 2006 0470 484B     		ldr	r3, .L132+28
 2007 0472 DB78     		ldrb	r3, [r3, #3]	@ zero_extendqisi2
 2008 0474 DBB2     		uxtb	r3, r3
 2009 0476 0A2B     		cmp	r3, #10
 2010 0478 0CD1     		bne	.L118
 672:.\main.c      ****                         teclas1++;                        
 2011              		.loc 1 672 0
 2012 047a 474B     		ldr	r3, .L132+32
 2013 047c 1A78     		ldrb	r2, [r3]	@ zero_extendqisi2
 2014 047e 0132     		adds	r2, r2, #1
 2015 0480 D2B2     		uxtb	r2, r2
 2016 0482 1A70     		strb	r2, [r3]
 673:.\main.c      ****                         Buffer_LCD1.placa[teclas1]=0x30;
 2017              		.loc 1 673 0
 2018 0484 3D4B     		ldr	r3, .L132+4
 2019 0486 1344     		add	r3, r3, r2
 2020 0488 3021     		movs	r1, #48
 2021 048a 83F86510 		strb	r1, [r3, #101]
 674:.\main.c      ****                         write_LCD(1,0x30,teclas1);                        
 2022              		.loc 1 674 0
 2023 048e 0120     		movs	r0, #1
 2024 0490 FFF7FEFF 		bl	write_LCD
 2025              	.LVL165:
 2026              	.L118:
 675:.\main.c      ****                     }  
 676:.\main.c      ****                     if(LCD_1_rxBuffer[3]==0x6A){                                        //Comando d
 2027              		.loc 1 676 0
 2028 0494 3F4B     		ldr	r3, .L132+28
 2029 0496 DB78     		ldrb	r3, [r3, #3]	@ zero_extendqisi2
 2030 0498 DBB2     		uxtb	r3, r3
 2031 049a 6A2B     		cmp	r3, #106
 2032 049c 0CD1     		bne	.L119
 677:.\main.c      ****                         teclas1++;                        
 2033              		.loc 1 677 0
 2034 049e 3E4B     		ldr	r3, .L132+32
 2035 04a0 1A78     		ldrb	r2, [r3]	@ zero_extendqisi2
 2036 04a2 0132     		adds	r2, r2, #1
 2037 04a4 D2B2     		uxtb	r2, r2
 2038 04a6 1A70     		strb	r2, [r3]
 678:.\main.c      ****                         Buffer_LCD1.placa[teclas1]='-';
 2039              		.loc 1 678 0
 2040 04a8 344B     		ldr	r3, .L132+4
 2041 04aa 1344     		add	r3, r3, r2
 2042 04ac 2D21     		movs	r1, #45
 2043 04ae 83F86510 		strb	r1, [r3, #101]
 679:.\main.c      ****                         write_LCD(1,'-',teclas1);                        
 2044              		.loc 1 679 0
 2045 04b2 0120     		movs	r0, #1
 2046 04b4 FFF7FEFF 		bl	write_LCD
 2047              	.LVL166:
 2048              	.L119:
 680:.\main.c      ****                     } 					
 681:.\main.c      ****                     if(LCD_1_rxBuffer[3]>=0x1B && LCD_1_rxBuffer[3]<=0x42){            //Comando de
 2049              		.loc 1 681 0
 2050 04b8 364B     		ldr	r3, .L132+28
ARM GAS  C:\Users\RECEPC~1\AppData\Local\Temp\ccHIf77r.s 			page 49


 2051 04ba DB78     		ldrb	r3, [r3, #3]	@ zero_extendqisi2
 2052 04bc DBB2     		uxtb	r3, r3
 2053 04be 1A2B     		cmp	r3, #26
 2054 04c0 25D9     		bls	.L116
 2055              		.loc 1 681 0 is_stmt 0 discriminator 1
 2056 04c2 344B     		ldr	r3, .L132+28
 2057 04c4 DB78     		ldrb	r3, [r3, #3]	@ zero_extendqisi2
 2058 04c6 DBB2     		uxtb	r3, r3
 2059 04c8 422B     		cmp	r3, #66
 2060 04ca 20D8     		bhi	.L116
 682:.\main.c      ****                         for(x=0;x<=25;x++){                                            //Compara el
 2061              		.loc 1 682 0 is_stmt 1
 2062 04cc 0022     		movs	r2, #0
 2063 04ce 334B     		ldr	r3, .L132+36
 2064 04d0 1A60     		str	r2, [r3]
 2065 04d2 18E0     		b	.L120
 2066              	.L122:
 683:.\main.c      ****                             if(LCD_1_rxBuffer[3]==letras[x]){
 2067              		.loc 1 683 0
 2068 04d4 2F4A     		ldr	r2, .L132+28
 2069 04d6 D278     		ldrb	r2, [r2, #3]	@ zero_extendqisi2
 2070 04d8 D2B2     		uxtb	r2, r2
 2071 04da 3149     		ldr	r1, .L132+40
 2072 04dc C95C     		ldrb	r1, [r1, r3]	@ zero_extendqisi2
 2073 04de 8A42     		cmp	r2, r1
 2074 04e0 0DD1     		bne	.L121
 684:.\main.c      ****                                 teclas1++;                            
 2075              		.loc 1 684 0
 2076 04e2 2D49     		ldr	r1, .L132+32
 2077 04e4 0A78     		ldrb	r2, [r1]	@ zero_extendqisi2
 2078 04e6 0132     		adds	r2, r2, #1
 2079 04e8 D2B2     		uxtb	r2, r2
 2080 04ea 0A70     		strb	r2, [r1]
 685:.\main.c      ****                                 Buffer_LCD1.placa[teclas1]=x+0x41;
 2081              		.loc 1 685 0
 2082 04ec 4133     		adds	r3, r3, #65
 2083 04ee D9B2     		uxtb	r1, r3
 2084 04f0 224B     		ldr	r3, .L132+4
 2085 04f2 1344     		add	r3, r3, r2
 2086 04f4 83F86510 		strb	r1, [r3, #101]
 686:.\main.c      ****                                 write_LCD(1,(x+0x41),teclas1);                            
 2087              		.loc 1 686 0
 2088 04f8 0120     		movs	r0, #1
 2089 04fa FFF7FEFF 		bl	write_LCD
 2090              	.LVL167:
 2091              	.L121:
 682:.\main.c      ****                             if(LCD_1_rxBuffer[3]==letras[x]){
 2092              		.loc 1 682 0 discriminator 2
 2093 04fe 274A     		ldr	r2, .L132+36
 2094 0500 1368     		ldr	r3, [r2]
 2095 0502 0133     		adds	r3, r3, #1
 2096 0504 1360     		str	r3, [r2]
 2097              	.L120:
 682:.\main.c      ****                             if(LCD_1_rxBuffer[3]==letras[x]){
 2098              		.loc 1 682 0 is_stmt 0 discriminator 1
 2099 0506 254B     		ldr	r3, .L132+36
 2100 0508 1B68     		ldr	r3, [r3]
ARM GAS  C:\Users\RECEPC~1\AppData\Local\Temp\ccHIf77r.s 			page 50


 2101 050a 192B     		cmp	r3, #25
 2102 050c E2D9     		bls	.L122
 2103              	.L116:
 687:.\main.c      ****                             }
 688:.\main.c      ****                         }
 689:.\main.c      ****                     }                    
 690:.\main.c      ****                 }
 691:.\main.c      ****                 if(LCD_1_rxBuffer[3]==0x0B){                                        //Borrar - Canc
 2104              		.loc 1 691 0 is_stmt 1
 2105 050e 214B     		ldr	r3, .L132+28
 2106 0510 DB78     		ldrb	r3, [r3, #3]	@ zero_extendqisi2
 2107 0512 DBB2     		uxtb	r3, r3
 2108 0514 0B2B     		cmp	r3, #11
 2109 0516 15D1     		bne	.L123
 692:.\main.c      ****                     if(teclas1==0){                                                 //Si no tiene n
 2110              		.loc 1 692 0
 2111 0518 1F4B     		ldr	r3, .L132+32
 2112 051a 1A78     		ldrb	r2, [r3]	@ zero_extendqisi2
 2113 051c 52B9     		cbnz	r2, .L124
 693:.\main.c      ****                         set_imagen(1,46);                        
 2114              		.loc 1 693 0
 2115 051e 0120     		movs	r0, #1
 2116 0520 2E21     		movs	r1, #46
 2117 0522 FFF7FEFF 		bl	set_imagen
 2118              	.LVL168:
 694:.\main.c      ****                         Buffer_LCD1.placa[0]=0;						
 2119              		.loc 1 694 0
 2120 0526 0023     		movs	r3, #0
 2121 0528 144A     		ldr	r2, .L132+4
 2122 052a 82F86530 		strb	r3, [r2, #101]
 695:.\main.c      ****                         flujo_LCD2 = 0;
 2123              		.loc 1 695 0
 2124 052e 164A     		ldr	r2, .L132+16
 2125 0530 1370     		strb	r3, [r2]
 2126 0532 07E0     		b	.L123
 2127              	.L124:
 696:.\main.c      ****                     }
 697:.\main.c      ****                     else{
 698:.\main.c      ****                         write_LCD(1,0x20,teclas1);                        
 2128              		.loc 1 698 0
 2129 0534 0120     		movs	r0, #1
 2130 0536 2021     		movs	r1, #32
 2131 0538 FFF7FEFF 		bl	write_LCD
 2132              	.LVL169:
 699:.\main.c      ****                         teclas1--;
 2133              		.loc 1 699 0
 2134 053c 164A     		ldr	r2, .L132+32
 2135 053e 1378     		ldrb	r3, [r2]	@ zero_extendqisi2
 2136 0540 013B     		subs	r3, r3, #1
 2137 0542 1370     		strb	r3, [r2]
 2138              	.L123:
 700:.\main.c      ****                     }
 701:.\main.c      ****                 }
 702:.\main.c      ****                 if(LCD_1_rxBuffer[3]==0x0C){                                        //Enter pasa a 
 2139              		.loc 1 702 0
 2140 0544 134B     		ldr	r3, .L132+28
 2141 0546 DB78     		ldrb	r3, [r3, #3]	@ zero_extendqisi2
ARM GAS  C:\Users\RECEPC~1\AppData\Local\Temp\ccHIf77r.s 			page 51


 2142 0548 DBB2     		uxtb	r3, r3
 2143 054a 0C2B     		cmp	r3, #12
 2144 054c 0ED1     		bne	.L115
 703:.\main.c      ****                     if(teclas1>=1){ 
 2145              		.loc 1 703 0
 2146 054e 124B     		ldr	r3, .L132+32
 2147 0550 1B78     		ldrb	r3, [r3]	@ zero_extendqisi2
 2148 0552 5BB1     		cbz	r3, .L115
 704:.\main.c      ****                         set_imagen(1,5);
 2149              		.loc 1 704 0
 2150 0554 0120     		movs	r0, #1
 2151 0556 0521     		movs	r1, #5
 2152 0558 FFF7FEFF 		bl	set_imagen
 2153              	.LVL170:
 705:.\main.c      ****                         Buffer_LCD1.placa[0]=teclas1;                                              
 2154              		.loc 1 705 0
 2155 055c 0E4B     		ldr	r3, .L132+32
 2156 055e 1A78     		ldrb	r2, [r3]	@ zero_extendqisi2
 2157 0560 064B     		ldr	r3, .L132+4
 2158 0562 83F86520 		strb	r2, [r3, #101]
 706:.\main.c      ****                         flujo_LCD2 = 4;
 2159              		.loc 1 706 0
 2160 0566 0422     		movs	r2, #4
 2161 0568 074B     		ldr	r3, .L132+16
 2162 056a 1A70     		strb	r2, [r3]
 2163              	.L115:
 707:.\main.c      ****                     }
 708:.\main.c      ****                 }
 709:.\main.c      ****             }
 710:.\main.c      ****             CyDelay(100);            
 2164              		.loc 1 710 0
 2165 056c 6420     		movs	r0, #100
 2166 056e FFF7FEFF 		bl	CyDelay
 2167              	.LVL171:
 711:.\main.c      ****             LCD_1_ClearRxBuffer();
 2168              		.loc 1 711 0
 2169 0572 FFF7FEFF 		bl	LCD_1_ClearRxBuffer
 2170              	.LVL172:
 2171 0576 10BD     		pop	{r4, pc}
 2172              	.L133:
 2173              		.align	2
 2174              	.L132:
 2175 0578 00000000 		.word	b
 2176 057c 00000000 		.word	Buffer_LCD1
 2177 0580 00000000 		.word	producto1
 2178 0584 0B000000 		.word	Buffer_LCD1+11
 2179 0588 00000000 		.word	flujo_LCD2
 2180 058c 00000000 		.word	grado1
 2181 0590 00000000 		.word	no_imprime
 2182 0594 00000000 		.word	LCD_1_rxBuffer
 2183 0598 00000000 		.word	teclas1
 2184 059c 00000000 		.word	x
 2185 05a0 00000000 		.word	.LANCHOR0
 2186              	.L89:
 712:.\main.c      ****          }    
 713:.\main.c      **** 		
 714:.\main.c      ****         break;
ARM GAS  C:\Users\RECEPC~1\AppData\Local\Temp\ccHIf77r.s 			page 52


 715:.\main.c      ****         
 716:.\main.c      ****         case 10:
 717:.\main.c      ****          if(LCD_1_GetRxBufferSize()==8){
 2187              		.loc 1 717 0
 2188 05a4 FFF7FEFF 		bl	LCD_1_GetRxBufferSize
 2189              	.LVL173:
 2190 05a8 0828     		cmp	r0, #8
 2191 05aa 3CD1     		bne	.L79
 718:.\main.c      ****             if((LCD_1_rxBuffer[0]==0xAA) && (LCD_1_rxBuffer[6]==0xC3) && (LCD_1_rxBuffer[7]==0x3C))
 2192              		.loc 1 718 0
 2193 05ac 1E4B     		ldr	r3, .L134
 2194 05ae 1B78     		ldrb	r3, [r3]	@ zero_extendqisi2
 2195 05b0 DBB2     		uxtb	r3, r3
 2196 05b2 AA2B     		cmp	r3, #170
 2197 05b4 32D1     		bne	.L125
 2198              		.loc 1 718 0 is_stmt 0 discriminator 1
 2199 05b6 1C4B     		ldr	r3, .L134
 2200 05b8 9B79     		ldrb	r3, [r3, #6]	@ zero_extendqisi2
 2201 05ba DBB2     		uxtb	r3, r3
 2202 05bc C32B     		cmp	r3, #195
 2203 05be 2DD1     		bne	.L125
 2204              		.loc 1 718 0 discriminator 2
 2205 05c0 194B     		ldr	r3, .L134
 2206 05c2 DB79     		ldrb	r3, [r3, #7]	@ zero_extendqisi2
 2207 05c4 DBB2     		uxtb	r3, r3
 2208 05c6 3C2B     		cmp	r3, #60
 2209 05c8 28D1     		bne	.L125
 719:.\main.c      ****                 switch(LCD_1_rxBuffer[3]){
 2210              		.loc 1 719 0 is_stmt 1
 2211 05ca 174B     		ldr	r3, .L134
 2212 05cc DB78     		ldrb	r3, [r3, #3]	@ zero_extendqisi2
 2213 05ce DBB2     		uxtb	r3, r3
 2214 05d0 392B     		cmp	r3, #57
 2215 05d2 04D0     		beq	.L126
 2216 05d4 7E2B     		cmp	r3, #126
 2217 05d6 1AD0     		beq	.L127
 2218 05d8 382B     		cmp	r3, #56
 2219 05da 1FD1     		bne	.L125
 2220 05dc 0CE0     		b	.L128
 2221              	.L126:
 720:.\main.c      ****                     case 0x39:                          //Si pide impresión                       
 721:.\main.c      ****                         set_imagen(1,10);               //Pasa a pedir placa
 2222              		.loc 1 721 0
 2223 05de 0120     		movs	r0, #1
 2224 05e0 0A21     		movs	r1, #10
 2225 05e2 FFF7FEFF 		bl	set_imagen
 2226              	.LVL174:
 722:.\main.c      ****                         teclas1 = 0;                                              
 2227              		.loc 1 722 0
 2228 05e6 0023     		movs	r3, #0
 2229 05e8 104A     		ldr	r2, .L134+4
 2230 05ea 1370     		strb	r3, [r2]
 723:.\main.c      ****                         no_imprime = 0;
 2231              		.loc 1 723 0
 2232 05ec 104A     		ldr	r2, .L134+8
 2233 05ee 1370     		strb	r3, [r2]
 724:.\main.c      ****                         flujo_LCD2 = 9;                       
ARM GAS  C:\Users\RECEPC~1\AppData\Local\Temp\ccHIf77r.s 			page 53


 2234              		.loc 1 724 0
 2235 05f0 0922     		movs	r2, #9
 2236 05f2 104B     		ldr	r3, .L134+12
 2237 05f4 1A70     		strb	r2, [r3]
 725:.\main.c      ****                     break; 
 2238              		.loc 1 725 0
 2239 05f6 11E0     		b	.L125
 2240              	.L128:
 726:.\main.c      ****                     
 727:.\main.c      ****                     case 0x38:                          //Pide venta sin impresión
 728:.\main.c      ****                         set_imagen(1,5);	            //Pasa a preset de venta
 2241              		.loc 1 728 0
 2242 05f8 0120     		movs	r0, #1
 2243 05fa 0521     		movs	r1, #5
 2244 05fc FFF7FEFF 		bl	set_imagen
 2245              	.LVL175:
 729:.\main.c      ****                         no_imprime = 1;
 2246              		.loc 1 729 0
 2247 0600 0122     		movs	r2, #1
 2248 0602 0B4B     		ldr	r3, .L134+8
 2249 0604 1A70     		strb	r2, [r3]
 730:.\main.c      ****                         flujo_LCD2 = 4;                    
 2250              		.loc 1 730 0
 2251 0606 0422     		movs	r2, #4
 2252 0608 0A4B     		ldr	r3, .L134+12
 2253 060a 1A70     		strb	r2, [r3]
 731:.\main.c      ****                     break;  
 2254              		.loc 1 731 0
 2255 060c 06E0     		b	.L125
 2256              	.L127:
 732:.\main.c      ****                     
 733:.\main.c      ****                     case 0x7E:						   //ir a menu de selección de pos
 734:.\main.c      **** 					    set_imagen(1,46);	
 2257              		.loc 1 734 0
 2258 060e 0120     		movs	r0, #1
 2259 0610 2E21     		movs	r1, #46
 2260 0612 FFF7FEFF 		bl	set_imagen
 2261              	.LVL176:
 735:.\main.c      ****                         flujo_LCD2 = 0;     
 2262              		.loc 1 735 0
 2263 0616 0022     		movs	r2, #0
 2264 0618 064B     		ldr	r3, .L134+12
 2265 061a 1A70     		strb	r2, [r3]
 2266              	.L125:
 736:.\main.c      ****                     break;
 737:.\main.c      ****                         
 738:.\main.c      ****                 }
 739:.\main.c      ****             }
 740:.\main.c      ****             CyDelay(100);            
 2267              		.loc 1 740 0
 2268 061c 6420     		movs	r0, #100
 2269 061e FFF7FEFF 		bl	CyDelay
 2270              	.LVL177:
 741:.\main.c      ****             LCD_1_ClearRxBuffer();
 2271              		.loc 1 741 0
 2272 0622 FFF7FEFF 		bl	LCD_1_ClearRxBuffer
 2273              	.LVL178:
ARM GAS  C:\Users\RECEPC~1\AppData\Local\Temp\ccHIf77r.s 			page 54


 2274              	.L79:
 2275 0626 10BD     		pop	{r4, pc}
 2276              	.L135:
 2277              		.align	2
 2278              	.L134:
 2279 0628 00000000 		.word	LCD_1_rxBuffer
 2280 062c 00000000 		.word	teclas1
 2281 0630 00000000 		.word	no_imprime
 2282 0634 00000000 		.word	flujo_LCD2
 2283              		.cfi_endproc
 2284              	.LFE67:
 2285              		.size	polling_pos2, .-polling_pos2
 2286              		.section	.text.main,"ax",%progbits
 2287              		.align	2
 2288              		.global	main
 2289              		.thumb
 2290              		.thumb_func
 2291              		.type	main, %function
 2292              	main:
 2293              	.LFB68:
 742:.\main.c      ****          } 		 	
 743:.\main.c      ****         break; 
 744:.\main.c      ****     }
 745:.\main.c      **** }
 746:.\main.c      **** 
 747:.\main.c      **** 
 748:.\main.c      **** /*
 749:.\main.c      **** ***************************************************************************************************
 750:.\main.c      **** *                                         main( void )
 751:.\main.c      **** *
 752:.\main.c      **** * Description : Funcion principal GRP700 Prime, hace el llamado a la configuración del dispensador
 753:.\main.c      **** *               variables en general, pantallas y periféricos
 754:.\main.c      **** *
 755:.\main.c      **** * Argument(s) : none
 756:.\main.c      **** *
 757:.\main.c      **** * Return(s)   : none
 758:.\main.c      **** *
 759:.\main.c      **** * Caller(s)   : 
 760:.\main.c      **** *
 761:.\main.c      **** * Note(s)     : none.
 762:.\main.c      **** ***************************************************************************************************
 763:.\main.c      **** */
 764:.\main.c      **** int main()
 765:.\main.c      **** {
 2294              		.loc 1 765 0
 2295              		.cfi_startproc
 2296              		@ Volatile: function does not return.
 2297              		@ args = 0, pretend = 0, frame = 0
 2298              		@ frame_needed = 0, uses_anonymous_args = 0
 2299 0000 08B5     		push	{r3, lr}
 2300              		.cfi_def_cfa_offset 8
 2301              		.cfi_offset 3, -8
 2302              		.cfi_offset 14, -4
 766:.\main.c      ****     init();
 2303              		.loc 1 766 0
 2304 0002 FFF7FEFF 		bl	init
 2305              	.LVL179:
ARM GAS  C:\Users\RECEPC~1\AppData\Local\Temp\ccHIf77r.s 			page 55


 767:.\main.c      ****     init_surt();  
 2306              		.loc 1 767 0
 2307 0006 FFF7FEFF 		bl	init_surt
 2308              	.LVL180:
 768:.\main.c      ****     init_pantallas();    
 2309              		.loc 1 768 0
 2310 000a FFF7FEFF 		bl	init_pantallas
 2311              	.LVL181:
 769:.\main.c      **** 
 770:.\main.c      ****     /* Place your initialization/startup code here (e.g. MyInst_Start()) */
 771:.\main.c      ****     seleccion_pos  = 1;
 2312              		.loc 1 771 0
 2313 000e 0123     		movs	r3, #1
 2314 0010 084A     		ldr	r2, .L143
 2315 0012 1370     		strb	r3, [r2]
 772:.\main.c      ****     seleccion_pos2 = 1;
 2316              		.loc 1 772 0
 2317 0014 084A     		ldr	r2, .L143+4
 2318 0016 1370     		strb	r3, [r2]
 2319              	.L138:
 773:.\main.c      ****     for(;;)
 774:.\main.c      ****     {
 775:.\main.c      ****         switch(seleccion_pos){
 2320              		.loc 1 775 0
 2321 0018 064B     		ldr	r3, .L143
 2322 001a 1B78     		ldrb	r3, [r3]	@ zero_extendqisi2
 2323 001c 012B     		cmp	r3, #1
 2324 001e 02D0     		beq	.L139
 2325 0020 022B     		cmp	r3, #2
 2326 0022 03D0     		beq	.L140
 2327 0024 F8E7     		b	.L138
 2328              	.L139:
 776:.\main.c      ****             case 1:
 777:.\main.c      ****                 polling_pos1();
 2329              		.loc 1 777 0
 2330 0026 FFF7FEFF 		bl	polling_pos1
 2331              	.LVL182:
 778:.\main.c      ****             break;
 2332              		.loc 1 778 0
 2333 002a F5E7     		b	.L138
 2334              	.L140:
 779:.\main.c      ****                 
 780:.\main.c      ****             case 2:
 781:.\main.c      ****                 polling_pos2();
 2335              		.loc 1 781 0
 2336 002c FFF7FEFF 		bl	polling_pos2
 2337              	.LVL183:
 782:.\main.c      ****             break;
 2338              		.loc 1 782 0
 2339 0030 F2E7     		b	.L138
 2340              	.L144:
 2341 0032 00BF     		.align	2
 2342              	.L143:
 2343 0034 00000000 		.word	seleccion_pos
 2344 0038 00000000 		.word	seleccion_pos2
 2345              		.cfi_endproc
 2346              	.LFE68:
ARM GAS  C:\Users\RECEPC~1\AppData\Local\Temp\ccHIf77r.s 			page 56


 2347              		.size	main, .-main
 2348              		.global	pasword_corte
 2349              		.global	serial
 2350              		.global	puk
 2351              		.global	test
 2352              		.global	letras
 2353              		.comm	rventa2,225,4
 2354              		.comm	rventa,225,4
 2355              		.comm	producto,1,1
 2356              		.comm	grado2,1,1
 2357              		.comm	grado1,1,1
 2358              		.comm	modulo,400,4
 2359              		.comm	w,4,4
 2360              		.comm	z,4,4
 2361              		.comm	y,4,4
 2362              		.comm	x,4,4
 2363              		.comm	d,4,4
 2364              		.comm	c,4,4
 2365              		.comm	b,4,4
 2366              		.comm	a,4,4
 2367              		.comm	estado_0,1,1
 2368              		.comm	Buffer_LCD2,152,4
 2369              		.comm	Buffer_LCD1,152,4
 2370              		.comm	no_venta,4,4
 2371              		.comm	id_corte,2,2
 2372              		.comm	seleccion_pos2,1,1
 2373              		.comm	seleccion_pos,1,1
 2374              		.comm	estado_lcd2,1,1
 2375              		.comm	estado_lcd1,1,1
 2376              		.comm	imagen,1,1
 2377              		.comm	no_imprime2,1,1
 2378              		.comm	no_imprime,1,1
 2379              		.comm	n_copias,1,4
 2380              		.comm	a_copias,1,1
 2381              		.comm	producto4n,11,4
 2382              		.comm	producto3n,11,4
 2383              		.comm	producto2n,11,4
 2384              		.comm	producto1n,11,4
 2385              		.comm	nombreproducto,1,1
 2386              		.comm	id_venta,6,4
 2387              		.comm	copia_recibo2,2,4
 2388              		.comm	copia_recibo,2,4
 2389              		.comm	print2,2,4
 2390              		.comm	print1,2,4
 2391              		.comm	crc_total,1,1
 2392              		.comm	pos_ibutton,1,1
 2393              		.comm	fecha_corte,6,4
 2394              		.comm	decimalD,1,1
 2395              		.comm	decimalV,1,1
 2396              		.comm	tipo_imp,2,4
 2397              		.comm	bandera,2,4
 2398              		.comm	ppux10,1,1
 2399              		.comm	teclado2,1,1
 2400              		.comm	teclado,1,1
 2401              		.comm	resultado,14,4
 2402              		.comm	buffer_i2c,64,4
 2403              		.comm	producto4b,1,1
ARM GAS  C:\Users\RECEPC~1\AppData\Local\Temp\ccHIf77r.s 			page 57


 2404              		.comm	producto3b,1,1
 2405              		.comm	producto2b,1,1
 2406              		.comm	producto1b,1,1
 2407              		.comm	producto4,1,1
 2408              		.comm	producto3,1,1
 2409              		.comm	producto2,1,1
 2410              		.comm	producto1,1,1
 2411              		.comm	versurt,1,1
 2412              		.comm	comas2,1,1
 2413              		.comm	comas1,1,1
 2414              		.comm	teclas2,1,1
 2415              		.comm	teclas1,1,1
 2416              		.comm	cont1,1,1
 2417              		.comm	flujo_LCD2,1,1
 2418              		.comm	flujo_LCD,1,1
 2419              		.data
 2420              		.align	2
 2421              		.set	.LANCHOR0,. + 0
 2422              		.type	letras, %object
 2423              		.size	letras, 26
 2424              	letras:
 2425 0000 25       		.byte	37
 2426 0001 42       		.byte	66
 2427 0002 31       		.byte	49
 2428 0003 27       		.byte	39
 2429 0004 1D       		.byte	29
 2430 0005 28       		.byte	40
 2431 0006 29       		.byte	41
 2432 0007 2A       		.byte	42
 2433 0008 22       		.byte	34
 2434 0009 2B       		.byte	43
 2435 000a 2C       		.byte	44
 2436 000b 2D       		.byte	45
 2437 000c 35       		.byte	53
 2438 000d 34       		.byte	52
 2439 000e 23       		.byte	35
 2440 000f 24       		.byte	36
 2441 0010 1B       		.byte	27
 2442 0011 1E       		.byte	30
 2443 0012 26       		.byte	38
 2444 0013 1F       		.byte	31
 2445 0014 21       		.byte	33
 2446 0015 32       		.byte	50
 2447 0016 1C       		.byte	28
 2448 0017 30       		.byte	48
 2449 0018 20       		.byte	32
 2450 0019 2F       		.byte	47
 2451 001a 0000     		.space	2
 2452              		.type	pasword_corte, %object
 2453              		.size	pasword_corte, 5
 2454              	pasword_corte:
 2455 001c 04       		.byte	4
 2456 001d 31       		.byte	49
 2457 001e 32       		.byte	50
 2458 001f 33       		.byte	51
 2459 0020 34       		.byte	52
 2460 0021 000000   		.space	3
ARM GAS  C:\Users\RECEPC~1\AppData\Local\Temp\ccHIf77r.s 			page 58


 2461              		.type	serial, %object
 2462              		.size	serial, 17
 2463              	serial:
 2464 0024 30464646 		.ascii	"0FFFFF8FEEBEB2DC0"
 2464      46463846 
 2464      45454245 
 2464      42324443 
 2464      30
 2465 0035 000000   		.space	3
 2466              		.type	puk, %object
 2467              		.size	puk, 8
 2468              	puk:
 2469 0038 31383932 		.ascii	"18928005"
 2469      38303035 
 2470              		.type	test, %object
 2471              		.size	test, 18
 2472              	test:
 2473 0040 54657374 		.ascii	"Test de Impresora\000"
 2473      20646520 
 2473      496D7072 
 2473      65736F72 
 2473      6100
 2474 0052 0000     		.text
 2475              	.Letext0:
 2476              		.file 2 "c:\\program files (x86)\\cypress\\psoc creator\\3.3\\psoc creator\\import\\gnu\\arm\\4.9.
 2477              		.file 3 "c:\\program files (x86)\\cypress\\psoc creator\\3.3\\psoc creator\\import\\gnu\\arm\\4.9.
 2478              		.file 4 "Generated_Source\\PSoC5/cytypes.h"
 2479              		.file 5 ".\\VariablesG.h"
 2480              		.file 6 "Generated_Source\\PSoC5/LCD_1.h"
 2481              		.file 7 "Generated_Source\\PSoC5/core_cm3.h"
 2482              		.file 8 "Generated_Source\\PSoC5/Surtidor.h"
 2483              		.file 9 "Generated_Source\\PSoC5/LCD_2.h"
 2484              		.file 10 "Generated_Source\\PSoC5/CyLib.h"
 2485              		.file 11 ".\\LCD.h"
 2486              		.file 12 ".\\Protocolo.h"
 2487              		.section	.debug_info,"",%progbits
 2488              	.Ldebug_info0:
 2489 0000 87160000 		.4byte	0x1687
 2490 0004 0400     		.2byte	0x4
 2491 0006 00000000 		.4byte	.Ldebug_abbrev0
 2492 000a 04       		.byte	0x4
 2493 000b 01       		.uleb128 0x1
 2494 000c CF040000 		.4byte	.LASF132
 2495 0010 01       		.byte	0x1
 2496 0011 F4050000 		.4byte	.LASF133
 2497 0015 14010000 		.4byte	.LASF134
 2498 0019 00000000 		.4byte	.Ldebug_ranges0+0
 2499 001d 00000000 		.4byte	0
 2500 0021 00000000 		.4byte	.Ldebug_line0
 2501 0025 02       		.uleb128 0x2
 2502 0026 01       		.byte	0x1
 2503 0027 06       		.byte	0x6
 2504 0028 7C050000 		.4byte	.LASF0
 2505 002c 02       		.uleb128 0x2
 2506 002d 01       		.byte	0x1
 2507 002e 08       		.byte	0x8
 2508 002f C1040000 		.4byte	.LASF1
ARM GAS  C:\Users\RECEPC~1\AppData\Local\Temp\ccHIf77r.s 			page 59


 2509 0033 02       		.uleb128 0x2
 2510 0034 02       		.byte	0x2
 2511 0035 05       		.byte	0x5
 2512 0036 C1030000 		.4byte	.LASF2
 2513 003a 02       		.uleb128 0x2
 2514 003b 02       		.byte	0x2
 2515 003c 07       		.byte	0x7
 2516 003d 8E050000 		.4byte	.LASF3
 2517 0041 03       		.uleb128 0x3
 2518 0042 6A000000 		.4byte	.LASF9
 2519 0046 02       		.byte	0x2
 2520 0047 3F       		.byte	0x3f
 2521 0048 4C000000 		.4byte	0x4c
 2522 004c 02       		.uleb128 0x2
 2523 004d 04       		.byte	0x4
 2524 004e 05       		.byte	0x5
 2525 004f CB030000 		.4byte	.LASF4
 2526 0053 02       		.uleb128 0x2
 2527 0054 04       		.byte	0x4
 2528 0055 07       		.byte	0x7
 2529 0056 67040000 		.4byte	.LASF5
 2530 005a 02       		.uleb128 0x2
 2531 005b 08       		.byte	0x8
 2532 005c 05       		.byte	0x5
 2533 005d F1020000 		.4byte	.LASF6
 2534 0061 02       		.uleb128 0x2
 2535 0062 08       		.byte	0x8
 2536 0063 07       		.byte	0x7
 2537 0064 C9010000 		.4byte	.LASF7
 2538 0068 04       		.uleb128 0x4
 2539 0069 04       		.byte	0x4
 2540 006a 05       		.byte	0x5
 2541 006b 696E7400 		.ascii	"int\000"
 2542 006f 02       		.uleb128 0x2
 2543 0070 04       		.byte	0x4
 2544 0071 07       		.byte	0x7
 2545 0072 4F000000 		.4byte	.LASF8
 2546 0076 03       		.uleb128 0x3
 2547 0077 81040000 		.4byte	.LASF10
 2548 007b 03       		.byte	0x3
 2549 007c 2C       		.byte	0x2c
 2550 007d 41000000 		.4byte	0x41
 2551 0081 05       		.uleb128 0x5
 2552 0082 C0050000 		.4byte	.LASF11
 2553 0086 04       		.byte	0x4
 2554 0087 3801     		.2byte	0x138
 2555 0089 2C000000 		.4byte	0x2c
 2556 008d 05       		.uleb128 0x5
 2557 008e CA020000 		.4byte	.LASF12
 2558 0092 04       		.byte	0x4
 2559 0093 3901     		.2byte	0x139
 2560 0095 3A000000 		.4byte	0x3a
 2561 0099 05       		.uleb128 0x5
 2562 009a 43030000 		.4byte	.LASF13
 2563 009e 04       		.byte	0x4
 2564 009f 3A01     		.2byte	0x13a
 2565 00a1 53000000 		.4byte	0x53
ARM GAS  C:\Users\RECEPC~1\AppData\Local\Temp\ccHIf77r.s 			page 60


 2566 00a5 02       		.uleb128 0x2
 2567 00a6 04       		.byte	0x4
 2568 00a7 04       		.byte	0x4
 2569 00a8 AC010000 		.4byte	.LASF14
 2570 00ac 02       		.uleb128 0x2
 2571 00ad 08       		.byte	0x8
 2572 00ae 04       		.byte	0x4
 2573 00af C6050000 		.4byte	.LASF15
 2574 00b3 02       		.uleb128 0x2
 2575 00b4 01       		.byte	0x1
 2576 00b5 08       		.byte	0x8
 2577 00b6 BD020000 		.4byte	.LASF16
 2578 00ba 02       		.uleb128 0x2
 2579 00bb 04       		.byte	0x4
 2580 00bc 07       		.byte	0x7
 2581 00bd 5E040000 		.4byte	.LASF17
 2582 00c1 06       		.uleb128 0x6
 2583 00c2 33000000 		.4byte	.LASF28
 2584 00c6 98       		.byte	0x98
 2585 00c7 05       		.byte	0x5
 2586 00c8 90       		.byte	0x90
 2587 00c9 68010000 		.4byte	0x168
 2588 00cd 07       		.uleb128 0x7
 2589 00ce 34030000 		.4byte	.LASF18
 2590 00d2 05       		.byte	0x5
 2591 00d3 91       		.byte	0x91
 2592 00d4 81000000 		.4byte	0x81
 2593 00d8 00       		.byte	0
 2594 00d9 08       		.uleb128 0x8
 2595 00da 706F7300 		.ascii	"pos\000"
 2596 00de 05       		.byte	0x5
 2597 00df 92       		.byte	0x92
 2598 00e0 81000000 		.4byte	0x81
 2599 00e4 01       		.byte	0x1
 2600 00e5 07       		.uleb128 0x7
 2601 00e6 DF000000 		.4byte	.LASF19
 2602 00ea 05       		.byte	0x5
 2603 00eb 93       		.byte	0x93
 2604 00ec 81000000 		.4byte	0x81
 2605 00f0 02       		.byte	0x2
 2606 00f1 07       		.uleb128 0x7
 2607 00f2 8F010000 		.4byte	.LASF20
 2608 00f6 05       		.byte	0x5
 2609 00f7 94       		.byte	0x94
 2610 00f8 81000000 		.4byte	0x81
 2611 00fc 03       		.byte	0x3
 2612 00fd 08       		.uleb128 0x8
 2613 00fe 6B6D00   		.ascii	"km\000"
 2614 0101 05       		.byte	0x5
 2615 0102 95       		.byte	0x95
 2616 0103 68010000 		.4byte	0x168
 2617 0107 04       		.byte	0x4
 2618 0108 07       		.uleb128 0x7
 2619 0109 88050000 		.4byte	.LASF21
 2620 010d 05       		.byte	0x5
 2621 010e 96       		.byte	0x96
 2622 010f 78010000 		.4byte	0x178
ARM GAS  C:\Users\RECEPC~1\AppData\Local\Temp\ccHIf77r.s 			page 61


 2623 0113 0B       		.byte	0xb
 2624 0114 08       		.uleb128 0x8
 2625 0115 696400   		.ascii	"id\000"
 2626 0118 05       		.byte	0x5
 2627 0119 97       		.byte	0x97
 2628 011a 78010000 		.4byte	0x178
 2629 011e 29       		.byte	0x29
 2630 011f 07       		.uleb128 0x7
 2631 0120 F4010000 		.4byte	.LASF22
 2632 0124 05       		.byte	0x5
 2633 0125 98       		.byte	0x98
 2634 0126 78010000 		.4byte	0x178
 2635 012a 47       		.byte	0x47
 2636 012b 07       		.uleb128 0x7
 2637 012c 26020000 		.4byte	.LASF23
 2638 0130 05       		.byte	0x5
 2639 0131 99       		.byte	0x99
 2640 0132 78010000 		.4byte	0x178
 2641 0136 65       		.byte	0x65
 2642 0137 07       		.uleb128 0x7
 2643 0138 74000000 		.4byte	.LASF24
 2644 013c 05       		.byte	0x5
 2645 013d 9A       		.byte	0x9a
 2646 013e 81000000 		.4byte	0x81
 2647 0142 83       		.byte	0x83
 2648 0143 07       		.uleb128 0x7
 2649 0144 12030000 		.4byte	.LASF25
 2650 0148 05       		.byte	0x5
 2651 0149 9B       		.byte	0x9b
 2652 014a 88010000 		.4byte	0x188
 2653 014e 84       		.byte	0x84
 2654 014f 07       		.uleb128 0x7
 2655 0150 00000000 		.4byte	.LASF26
 2656 0154 05       		.byte	0x5
 2657 0155 9C       		.byte	0x9c
 2658 0156 98010000 		.4byte	0x198
 2659 015a 8E       		.byte	0x8e
 2660 015b 07       		.uleb128 0x7
 2661 015c DF020000 		.4byte	.LASF27
 2662 0160 05       		.byte	0x5
 2663 0161 9D       		.byte	0x9d
 2664 0162 81000000 		.4byte	0x81
 2665 0166 97       		.byte	0x97
 2666 0167 00       		.byte	0
 2667 0168 09       		.uleb128 0x9
 2668 0169 81000000 		.4byte	0x81
 2669 016d 78010000 		.4byte	0x178
 2670 0171 0A       		.uleb128 0xa
 2671 0172 BA000000 		.4byte	0xba
 2672 0176 06       		.byte	0x6
 2673 0177 00       		.byte	0
 2674 0178 09       		.uleb128 0x9
 2675 0179 81000000 		.4byte	0x81
 2676 017d 88010000 		.4byte	0x188
 2677 0181 0A       		.uleb128 0xa
 2678 0182 BA000000 		.4byte	0xba
 2679 0186 1D       		.byte	0x1d
ARM GAS  C:\Users\RECEPC~1\AppData\Local\Temp\ccHIf77r.s 			page 62


 2680 0187 00       		.byte	0
 2681 0188 09       		.uleb128 0x9
 2682 0189 81000000 		.4byte	0x81
 2683 018d 98010000 		.4byte	0x198
 2684 0191 0A       		.uleb128 0xa
 2685 0192 BA000000 		.4byte	0xba
 2686 0196 09       		.byte	0x9
 2687 0197 00       		.byte	0
 2688 0198 09       		.uleb128 0x9
 2689 0199 81000000 		.4byte	0x81
 2690 019d A8010000 		.4byte	0x1a8
 2691 01a1 0A       		.uleb128 0xa
 2692 01a2 BA000000 		.4byte	0xba
 2693 01a6 08       		.byte	0x8
 2694 01a7 00       		.byte	0
 2695 01a8 0B       		.uleb128 0xb
 2696 01a9 706F7300 		.ascii	"pos\000"
 2697 01ad 04       		.byte	0x4
 2698 01ae 05       		.byte	0x5
 2699 01af A5       		.byte	0xa5
 2700 01b0 E5010000 		.4byte	0x1e5
 2701 01b4 08       		.uleb128 0x8
 2702 01b5 64697200 		.ascii	"dir\000"
 2703 01b9 05       		.byte	0x5
 2704 01ba A6       		.byte	0xa6
 2705 01bb 81000000 		.4byte	0x81
 2706 01bf 00       		.byte	0
 2707 01c0 07       		.uleb128 0x7
 2708 01c1 6D030000 		.4byte	.LASF29
 2709 01c5 05       		.byte	0x5
 2710 01c6 A7       		.byte	0xa7
 2711 01c7 81000000 		.4byte	0x81
 2712 01cb 01       		.byte	0x1
 2713 01cc 07       		.uleb128 0x7
 2714 01cd D6050000 		.4byte	.LASF30
 2715 01d1 05       		.byte	0x5
 2716 01d2 A8       		.byte	0xa8
 2717 01d3 81000000 		.4byte	0x81
 2718 01d7 02       		.byte	0x2
 2719 01d8 07       		.uleb128 0x7
 2720 01d9 14000000 		.4byte	.LASF31
 2721 01dd 05       		.byte	0x5
 2722 01de A9       		.byte	0xa9
 2723 01df 81000000 		.4byte	0x81
 2724 01e3 03       		.byte	0x3
 2725 01e4 00       		.byte	0
 2726 01e5 06       		.uleb128 0x6
 2727 01e6 53030000 		.4byte	.LASF32
 2728 01ea E1       		.byte	0xe1
 2729 01eb 05       		.byte	0x5
 2730 01ec B3       		.byte	0xb3
 2731 01ed CA020000 		.4byte	0x2ca
 2732 01f1 07       		.uleb128 0x7
 2733 01f2 91030000 		.4byte	.LASF33
 2734 01f6 05       		.byte	0x5
 2735 01f7 B4       		.byte	0xb4
 2736 01f8 78010000 		.4byte	0x178
ARM GAS  C:\Users\RECEPC~1\AppData\Local\Temp\ccHIf77r.s 			page 63


 2737 01fc 00       		.byte	0
 2738 01fd 08       		.uleb128 0x8
 2739 01fe 6E697400 		.ascii	"nit\000"
 2740 0202 05       		.byte	0x5
 2741 0203 B5       		.byte	0xb5
 2742 0204 CA020000 		.4byte	0x2ca
 2743 0208 1E       		.byte	0x1e
 2744 0209 07       		.uleb128 0x7
 2745 020a 08030000 		.4byte	.LASF34
 2746 020e 05       		.byte	0x5
 2747 020f B6       		.byte	0xb6
 2748 0210 DA020000 		.4byte	0x2da
 2749 0214 2D       		.byte	0x2d
 2750 0215 07       		.uleb128 0x7
 2751 0216 75020000 		.4byte	.LASF35
 2752 021a 05       		.byte	0x5
 2753 021b B7       		.byte	0xb7
 2754 021c EA020000 		.4byte	0x2ea
 2755 0220 2F       		.byte	0x2f
 2756 0221 07       		.uleb128 0x7
 2757 0222 7A010000 		.4byte	.LASF36
 2758 0226 05       		.byte	0x5
 2759 0227 B8       		.byte	0xb8
 2760 0228 78010000 		.4byte	0x178
 2761 022c 43       		.byte	0x43
 2762 022d 07       		.uleb128 0x7
 2763 022e BD010000 		.4byte	.LASF37
 2764 0232 05       		.byte	0x5
 2765 0233 B9       		.byte	0xb9
 2766 0234 78010000 		.4byte	0x178
 2767 0238 61       		.byte	0x61
 2768 0239 07       		.uleb128 0x7
 2769 023a C3010000 		.4byte	.LASF38
 2770 023e 05       		.byte	0x5
 2771 023f BA       		.byte	0xba
 2772 0240 78010000 		.4byte	0x178
 2773 0244 7F       		.byte	0x7f
 2774 0245 07       		.uleb128 0x7
 2775 0246 76050000 		.4byte	.LASF39
 2776 024a 05       		.byte	0x5
 2777 024b BB       		.byte	0xbb
 2778 024c FA020000 		.4byte	0x2fa
 2779 0250 9D       		.byte	0x9d
 2780 0251 07       		.uleb128 0x7
 2781 0252 FF000000 		.4byte	.LASF40
 2782 0256 05       		.byte	0x5
 2783 0257 BC       		.byte	0xbc
 2784 0258 DA020000 		.4byte	0x2da
 2785 025c A0       		.byte	0xa0
 2786 025d 07       		.uleb128 0x7
 2787 025e 60010000 		.4byte	.LASF41
 2788 0262 05       		.byte	0x5
 2789 0263 BD       		.byte	0xbd
 2790 0264 81000000 		.4byte	0x81
 2791 0268 A2       		.byte	0xa2
 2792 0269 07       		.uleb128 0x7
 2793 026a FF020000 		.4byte	.LASF42
ARM GAS  C:\Users\RECEPC~1\AppData\Local\Temp\ccHIf77r.s 			page 64


 2794 026e 05       		.byte	0x5
 2795 026f BE       		.byte	0xbe
 2796 0270 81000000 		.4byte	0x81
 2797 0274 A3       		.byte	0xa3
 2798 0275 08       		.uleb128 0x8
 2799 0276 70707500 		.ascii	"ppu\000"
 2800 027a 05       		.byte	0x5
 2801 027b BF       		.byte	0xbf
 2802 027c 68010000 		.4byte	0x168
 2803 0280 A4       		.byte	0xa4
 2804 0281 07       		.uleb128 0x7
 2805 0282 5A030000 		.4byte	.LASF43
 2806 0286 05       		.byte	0x5
 2807 0287 C0       		.byte	0xc0
 2808 0288 98010000 		.4byte	0x198
 2809 028c AB       		.byte	0xab
 2810 028d 07       		.uleb128 0x7
 2811 028e 67020000 		.4byte	.LASF44
 2812 0292 05       		.byte	0x5
 2813 0293 C1       		.byte	0xc1
 2814 0294 98010000 		.4byte	0x198
 2815 0298 B4       		.byte	0xb4
 2816 0299 07       		.uleb128 0x7
 2817 029a 92020000 		.4byte	.LASF45
 2818 029e 05       		.byte	0x5
 2819 029f C2       		.byte	0xc2
 2820 02a0 0A030000 		.4byte	0x30a
 2821 02a4 BD       		.byte	0xbd
 2822 02a5 07       		.uleb128 0x7
 2823 02a6 58010000 		.4byte	.LASF46
 2824 02aa 05       		.byte	0x5
 2825 02ab C3       		.byte	0xc3
 2826 02ac 0A030000 		.4byte	0x30a
 2827 02b0 CA       		.byte	0xca
 2828 02b1 07       		.uleb128 0x7
 2829 02b2 00000000 		.4byte	.LASF26
 2830 02b6 05       		.byte	0x5
 2831 02b7 C4       		.byte	0xc4
 2832 02b8 98010000 		.4byte	0x198
 2833 02bc D7       		.byte	0xd7
 2834 02bd 07       		.uleb128 0x7
 2835 02be D6050000 		.4byte	.LASF30
 2836 02c2 05       		.byte	0x5
 2837 02c3 C5       		.byte	0xc5
 2838 02c4 81000000 		.4byte	0x81
 2839 02c8 E0       		.byte	0xe0
 2840 02c9 00       		.byte	0
 2841 02ca 09       		.uleb128 0x9
 2842 02cb 81000000 		.4byte	0x81
 2843 02cf DA020000 		.4byte	0x2da
 2844 02d3 0A       		.uleb128 0xa
 2845 02d4 BA000000 		.4byte	0xba
 2846 02d8 0E       		.byte	0xe
 2847 02d9 00       		.byte	0
 2848 02da 09       		.uleb128 0x9
 2849 02db 81000000 		.4byte	0x81
 2850 02df EA020000 		.4byte	0x2ea
ARM GAS  C:\Users\RECEPC~1\AppData\Local\Temp\ccHIf77r.s 			page 65


 2851 02e3 0A       		.uleb128 0xa
 2852 02e4 BA000000 		.4byte	0xba
 2853 02e8 01       		.byte	0x1
 2854 02e9 00       		.byte	0
 2855 02ea 09       		.uleb128 0x9
 2856 02eb 81000000 		.4byte	0x81
 2857 02ef FA020000 		.4byte	0x2fa
 2858 02f3 0A       		.uleb128 0xa
 2859 02f4 BA000000 		.4byte	0xba
 2860 02f8 13       		.byte	0x13
 2861 02f9 00       		.byte	0
 2862 02fa 09       		.uleb128 0x9
 2863 02fb 81000000 		.4byte	0x81
 2864 02ff 0A030000 		.4byte	0x30a
 2865 0303 0A       		.uleb128 0xa
 2866 0304 BA000000 		.4byte	0xba
 2867 0308 02       		.byte	0x2
 2868 0309 00       		.byte	0
 2869 030a 09       		.uleb128 0x9
 2870 030b 81000000 		.4byte	0x81
 2871 030f 1A030000 		.4byte	0x31a
 2872 0313 0A       		.uleb128 0xa
 2873 0314 BA000000 		.4byte	0xba
 2874 0318 0C       		.byte	0xc
 2875 0319 00       		.byte	0
 2876 031a 0C       		.uleb128 0xc
 2877 031b 4F040000 		.4byte	.LASF47
 2878 031f 01       		.byte	0x1
 2879 0320 4C       		.byte	0x4c
 2880 0321 00000000 		.4byte	.LFB63
 2881 0325 2C000000 		.4byte	.LFE63-.LFB63
 2882 0329 01       		.uleb128 0x1
 2883 032a 9C       		.byte	0x9c
 2884 032b 6C030000 		.4byte	0x36c
 2885 032f 0D       		.uleb128 0xd
 2886 0330 08000000 		.4byte	.LVL0
 2887 0334 92150000 		.4byte	0x1592
 2888 0338 0D       		.uleb128 0xd
 2889 0339 0C000000 		.4byte	.LVL1
 2890 033d 99150000 		.4byte	0x1599
 2891 0341 0D       		.uleb128 0xd
 2892 0342 10000000 		.4byte	.LVL2
 2893 0346 A0150000 		.4byte	0x15a0
 2894 034a 0D       		.uleb128 0xd
 2895 034b 14000000 		.4byte	.LVL3
 2896 034f A7150000 		.4byte	0x15a7
 2897 0353 0D       		.uleb128 0xd
 2898 0354 18000000 		.4byte	.LVL4
 2899 0358 AE150000 		.4byte	0x15ae
 2900 035c 0E       		.uleb128 0xe
 2901 035d 1E000000 		.4byte	.LVL5
 2902 0361 B5150000 		.4byte	0x15b5
 2903 0365 0F       		.uleb128 0xf
 2904 0366 01       		.uleb128 0x1
 2905 0367 50       		.byte	0x50
 2906 0368 01       		.uleb128 0x1
 2907 0369 35       		.byte	0x35
ARM GAS  C:\Users\RECEPC~1\AppData\Local\Temp\ccHIf77r.s 			page 66


 2908 036a 00       		.byte	0
 2909 036b 00       		.byte	0
 2910 036c 0C       		.uleb128 0xc
 2911 036d 3A000000 		.4byte	.LASF48
 2912 0371 01       		.byte	0x1
 2913 0372 6C       		.byte	0x6c
 2914 0373 00000000 		.4byte	.LFB64
 2915 0377 CC000000 		.4byte	.LFE64-.LFB64
 2916 037b 01       		.uleb128 0x1
 2917 037c 9C       		.byte	0x9c
 2918 037d B7040000 		.4byte	0x4b7
 2919 0381 10       		.uleb128 0x10
 2920 0382 38040000 		.4byte	.LASF135
 2921 0386 01       		.byte	0x1
 2922 0387 6D       		.byte	0x6d
 2923 0388 81000000 		.4byte	0x81
 2924 038c 00000000 		.4byte	.LLST0
 2925 0390 0D       		.uleb128 0xd
 2926 0391 0A000000 		.4byte	.LVL8
 2927 0395 C6150000 		.4byte	0x15c6
 2928 0399 11       		.uleb128 0x11
 2929 039a 1C000000 		.4byte	.LVL9
 2930 039e B5150000 		.4byte	0x15b5
 2931 03a2 AD030000 		.4byte	0x3ad
 2932 03a6 0F       		.uleb128 0xf
 2933 03a7 01       		.uleb128 0x1
 2934 03a8 50       		.byte	0x50
 2935 03a9 02       		.uleb128 0x2
 2936 03aa 08       		.byte	0x8
 2937 03ab 64       		.byte	0x64
 2938 03ac 00       		.byte	0
 2939 03ad 11       		.uleb128 0x11
 2940 03ae 24000000 		.4byte	.LVL10
 2941 03b2 D1150000 		.4byte	0x15d1
 2942 03b6 C6030000 		.4byte	0x3c6
 2943 03ba 0F       		.uleb128 0xf
 2944 03bb 01       		.uleb128 0x1
 2945 03bc 51       		.byte	0x51
 2946 03bd 02       		.uleb128 0x2
 2947 03be 08       		.byte	0x8
 2948 03bf 4F       		.byte	0x4f
 2949 03c0 0F       		.uleb128 0xf
 2950 03c1 01       		.uleb128 0x1
 2951 03c2 50       		.byte	0x50
 2952 03c3 01       		.uleb128 0x1
 2953 03c4 31       		.byte	0x31
 2954 03c5 00       		.byte	0
 2955 03c6 11       		.uleb128 0x11
 2956 03c7 2C000000 		.4byte	.LVL12
 2957 03cb B5150000 		.4byte	0x15b5
 2958 03cf DA030000 		.4byte	0x3da
 2959 03d3 0F       		.uleb128 0xf
 2960 03d4 01       		.uleb128 0x1
 2961 03d5 50       		.byte	0x50
 2962 03d6 02       		.uleb128 0x2
 2963 03d7 08       		.byte	0x8
 2964 03d8 64       		.byte	0x64
ARM GAS  C:\Users\RECEPC~1\AppData\Local\Temp\ccHIf77r.s 			page 67


 2965 03d9 00       		.byte	0
 2966 03da 0D       		.uleb128 0xd
 2967 03db 34000000 		.4byte	.LVL13
 2968 03df E7150000 		.4byte	0x15e7
 2969 03e3 0D       		.uleb128 0xd
 2970 03e4 40000000 		.4byte	.LVL14
 2971 03e8 E7150000 		.4byte	0x15e7
 2972 03ec 11       		.uleb128 0x11
 2973 03ed 4C000000 		.4byte	.LVL16
 2974 03f1 D1150000 		.4byte	0x15d1
 2975 03f5 05040000 		.4byte	0x405
 2976 03f9 0F       		.uleb128 0xf
 2977 03fa 01       		.uleb128 0x1
 2978 03fb 51       		.byte	0x51
 2979 03fc 02       		.uleb128 0x2
 2980 03fd 08       		.byte	0x8
 2981 03fe 3C       		.byte	0x3c
 2982 03ff 0F       		.uleb128 0xf
 2983 0400 01       		.uleb128 0x1
 2984 0401 50       		.byte	0x50
 2985 0402 01       		.uleb128 0x1
 2986 0403 31       		.byte	0x31
 2987 0404 00       		.byte	0
 2988 0405 11       		.uleb128 0x11
 2989 0406 54000000 		.4byte	.LVL17
 2990 040a D1150000 		.4byte	0x15d1
 2991 040e 1E040000 		.4byte	0x41e
 2992 0412 0F       		.uleb128 0xf
 2993 0413 01       		.uleb128 0x1
 2994 0414 51       		.byte	0x51
 2995 0415 02       		.uleb128 0x2
 2996 0416 08       		.byte	0x8
 2997 0417 3C       		.byte	0x3c
 2998 0418 0F       		.uleb128 0xf
 2999 0419 01       		.uleb128 0x1
 3000 041a 50       		.byte	0x50
 3001 041b 01       		.uleb128 0x1
 3002 041c 32       		.byte	0x32
 3003 041d 00       		.byte	0
 3004 041e 11       		.uleb128 0x11
 3005 041f 60000000 		.4byte	.LVL19
 3006 0423 D1150000 		.4byte	0x15d1
 3007 0427 37040000 		.4byte	0x437
 3008 042b 0F       		.uleb128 0xf
 3009 042c 01       		.uleb128 0x1
 3010 042d 51       		.byte	0x51
 3011 042e 02       		.uleb128 0x2
 3012 042f 08       		.byte	0x8
 3013 0430 55       		.byte	0x55
 3014 0431 0F       		.uleb128 0xf
 3015 0432 01       		.uleb128 0x1
 3016 0433 50       		.byte	0x50
 3017 0434 01       		.uleb128 0x1
 3018 0435 31       		.byte	0x31
 3019 0436 00       		.byte	0
 3020 0437 11       		.uleb128 0x11
 3021 0438 68000000 		.4byte	.LVL20
ARM GAS  C:\Users\RECEPC~1\AppData\Local\Temp\ccHIf77r.s 			page 68


 3022 043c B5150000 		.4byte	0x15b5
 3023 0440 4B040000 		.4byte	0x44b
 3024 0444 0F       		.uleb128 0xf
 3025 0445 01       		.uleb128 0x1
 3026 0446 50       		.byte	0x50
 3027 0447 02       		.uleb128 0x2
 3028 0448 08       		.byte	0x8
 3029 0449 64       		.byte	0x64
 3030 044a 00       		.byte	0
 3031 044b 0D       		.uleb128 0xd
 3032 044c 70000000 		.4byte	.LVL21
 3033 0450 E7150000 		.4byte	0x15e7
 3034 0454 0D       		.uleb128 0xd
 3035 0455 7C000000 		.4byte	.LVL22
 3036 0459 E7150000 		.4byte	0x15e7
 3037 045d 0D       		.uleb128 0xd
 3038 045e 88000000 		.4byte	.LVL23
 3039 0462 E7150000 		.4byte	0x15e7
 3040 0466 0D       		.uleb128 0xd
 3041 0467 94000000 		.4byte	.LVL24
 3042 046b E7150000 		.4byte	0x15e7
 3043 046f 11       		.uleb128 0x11
 3044 0470 A0000000 		.4byte	.LVL26
 3045 0474 D1150000 		.4byte	0x15d1
 3046 0478 88040000 		.4byte	0x488
 3047 047c 0F       		.uleb128 0xf
 3048 047d 01       		.uleb128 0x1
 3049 047e 51       		.byte	0x51
 3050 047f 02       		.uleb128 0x2
 3051 0480 08       		.byte	0x8
 3052 0481 4A       		.byte	0x4a
 3053 0482 0F       		.uleb128 0xf
 3054 0483 01       		.uleb128 0x1
 3055 0484 50       		.byte	0x50
 3056 0485 01       		.uleb128 0x1
 3057 0486 31       		.byte	0x31
 3058 0487 00       		.byte	0
 3059 0488 11       		.uleb128 0x11
 3060 0489 A8000000 		.4byte	.LVL27
 3061 048d D1150000 		.4byte	0x15d1
 3062 0491 A1040000 		.4byte	0x4a1
 3063 0495 0F       		.uleb128 0xf
 3064 0496 01       		.uleb128 0x1
 3065 0497 51       		.byte	0x51
 3066 0498 02       		.uleb128 0x2
 3067 0499 08       		.byte	0x8
 3068 049a 4A       		.byte	0x4a
 3069 049b 0F       		.uleb128 0xf
 3070 049c 01       		.uleb128 0x1
 3071 049d 50       		.byte	0x50
 3072 049e 01       		.uleb128 0x1
 3073 049f 32       		.byte	0x32
 3074 04a0 00       		.byte	0
 3075 04a1 0E       		.uleb128 0xe
 3076 04a2 B4000000 		.4byte	.LVL29
 3077 04a6 D1150000 		.4byte	0x15d1
 3078 04aa 0F       		.uleb128 0xf
ARM GAS  C:\Users\RECEPC~1\AppData\Local\Temp\ccHIf77r.s 			page 69


 3079 04ab 01       		.uleb128 0x1
 3080 04ac 51       		.byte	0x51
 3081 04ad 02       		.uleb128 0x2
 3082 04ae 08       		.byte	0x8
 3083 04af 55       		.byte	0x55
 3084 04b0 0F       		.uleb128 0xf
 3085 04b1 01       		.uleb128 0x1
 3086 04b2 50       		.byte	0x50
 3087 04b3 01       		.uleb128 0x1
 3088 04b4 31       		.byte	0x31
 3089 04b5 00       		.byte	0
 3090 04b6 00       		.byte	0
 3091 04b7 0C       		.uleb128 0xc
 3092 04b8 5D050000 		.4byte	.LASF49
 3093 04bc 01       		.byte	0x1
 3094 04bd 9F       		.byte	0x9f
 3095 04be 00000000 		.4byte	.LFB65
 3096 04c2 38000000 		.4byte	.LFE65-.LFB65
 3097 04c6 01       		.uleb128 0x1
 3098 04c7 9C       		.byte	0x9c
 3099 04c8 25050000 		.4byte	0x525
 3100 04cc 11       		.uleb128 0x11
 3101 04cd 14000000 		.4byte	.LVL31
 3102 04d1 B5150000 		.4byte	0x15b5
 3103 04d5 E1040000 		.4byte	0x4e1
 3104 04d9 0F       		.uleb128 0xf
 3105 04da 01       		.uleb128 0x1
 3106 04db 50       		.byte	0x50
 3107 04dc 03       		.uleb128 0x3
 3108 04dd 0A       		.byte	0xa
 3109 04de F401     		.2byte	0x1f4
 3110 04e0 00       		.byte	0
 3111 04e1 11       		.uleb128 0x11
 3112 04e2 1C000000 		.4byte	.LVL32
 3113 04e6 D1150000 		.4byte	0x15d1
 3114 04ea FA040000 		.4byte	0x4fa
 3115 04ee 0F       		.uleb128 0xf
 3116 04ef 01       		.uleb128 0x1
 3117 04f0 51       		.byte	0x51
 3118 04f1 02       		.uleb128 0x2
 3119 04f2 08       		.byte	0x8
 3120 04f3 2E       		.byte	0x2e
 3121 04f4 0F       		.uleb128 0xf
 3122 04f5 01       		.uleb128 0x1
 3123 04f6 50       		.byte	0x50
 3124 04f7 01       		.uleb128 0x1
 3125 04f8 31       		.byte	0x31
 3126 04f9 00       		.byte	0
 3127 04fa 11       		.uleb128 0x11
 3128 04fb 24000000 		.4byte	.LVL33
 3129 04ff B5150000 		.4byte	0x15b5
 3130 0503 0F050000 		.4byte	0x50f
 3131 0507 0F       		.uleb128 0xf
 3132 0508 01       		.uleb128 0x1
 3133 0509 50       		.byte	0x50
 3134 050a 03       		.uleb128 0x3
 3135 050b 0A       		.byte	0xa
ARM GAS  C:\Users\RECEPC~1\AppData\Local\Temp\ccHIf77r.s 			page 70


 3136 050c F401     		.2byte	0x1f4
 3137 050e 00       		.byte	0
 3138 050f 0E       		.uleb128 0xe
 3139 0510 2C000000 		.4byte	.LVL34
 3140 0514 D1150000 		.4byte	0x15d1
 3141 0518 0F       		.uleb128 0xf
 3142 0519 01       		.uleb128 0x1
 3143 051a 51       		.byte	0x51
 3144 051b 02       		.uleb128 0x2
 3145 051c 08       		.byte	0x8
 3146 051d 2E       		.byte	0x2e
 3147 051e 0F       		.uleb128 0xf
 3148 051f 01       		.uleb128 0x1
 3149 0520 50       		.byte	0x50
 3150 0521 01       		.uleb128 0x1
 3151 0522 32       		.byte	0x32
 3152 0523 00       		.byte	0
 3153 0524 00       		.byte	0
 3154 0525 0C       		.uleb128 0xc
 3155 0526 89040000 		.4byte	.LASF50
 3156 052a 01       		.byte	0x1
 3157 052b BB       		.byte	0xbb
 3158 052c 00000000 		.4byte	.LFB66
 3159 0530 38060000 		.4byte	.LFE66-.LFB66
 3160 0534 01       		.uleb128 0x1
 3161 0535 9C       		.byte	0x9c
 3162 0536 750A0000 		.4byte	0xa75
 3163 053a 0D       		.uleb128 0xd
 3164 053b 2A000000 		.4byte	.LVL35
 3165 053f FC150000 		.4byte	0x15fc
 3166 0543 11       		.uleb128 0x11
 3167 0544 66000000 		.4byte	.LVL36
 3168 0548 D1150000 		.4byte	0x15d1
 3169 054c 5C050000 		.4byte	0x55c
 3170 0550 0F       		.uleb128 0xf
 3171 0551 01       		.uleb128 0x1
 3172 0552 51       		.byte	0x51
 3173 0553 02       		.uleb128 0x2
 3174 0554 08       		.byte	0x8
 3175 0555 63       		.byte	0x63
 3176 0556 0F       		.uleb128 0xf
 3177 0557 01       		.uleb128 0x1
 3178 0558 50       		.byte	0x50
 3179 0559 01       		.uleb128 0x1
 3180 055a 31       		.byte	0x31
 3181 055b 00       		.byte	0
 3182 055c 11       		.uleb128 0x11
 3183 055d 80000000 		.4byte	.LVL37
 3184 0561 D1150000 		.4byte	0x15d1
 3185 0565 75050000 		.4byte	0x575
 3186 0569 0F       		.uleb128 0xf
 3187 056a 01       		.uleb128 0x1
 3188 056b 51       		.byte	0x51
 3189 056c 02       		.uleb128 0x2
 3190 056d 08       		.byte	0x8
 3191 056e 63       		.byte	0x63
 3192 056f 0F       		.uleb128 0xf
ARM GAS  C:\Users\RECEPC~1\AppData\Local\Temp\ccHIf77r.s 			page 71


 3193 0570 01       		.uleb128 0x1
 3194 0571 50       		.byte	0x50
 3195 0572 01       		.uleb128 0x1
 3196 0573 31       		.byte	0x31
 3197 0574 00       		.byte	0
 3198 0575 11       		.uleb128 0x11
 3199 0576 98000000 		.4byte	.LVL38
 3200 057a B5150000 		.4byte	0x15b5
 3201 057e 89050000 		.4byte	0x589
 3202 0582 0F       		.uleb128 0xf
 3203 0583 01       		.uleb128 0x1
 3204 0584 50       		.byte	0x50
 3205 0585 02       		.uleb128 0x2
 3206 0586 08       		.byte	0x8
 3207 0587 64       		.byte	0x64
 3208 0588 00       		.byte	0
 3209 0589 0D       		.uleb128 0xd
 3210 058a 9C000000 		.4byte	.LVL39
 3211 058e 07160000 		.4byte	0x1607
 3212 0592 0D       		.uleb128 0xd
 3213 0593 A2000000 		.4byte	.LVL40
 3214 0597 FC150000 		.4byte	0x15fc
 3215 059b 11       		.uleb128 0x11
 3216 059c DE000000 		.4byte	.LVL41
 3217 05a0 D1150000 		.4byte	0x15d1
 3218 05a4 B4050000 		.4byte	0x5b4
 3219 05a8 0F       		.uleb128 0xf
 3220 05a9 01       		.uleb128 0x1
 3221 05aa 51       		.byte	0x51
 3222 05ab 02       		.uleb128 0x2
 3223 05ac 08       		.byte	0x8
 3224 05ad 49       		.byte	0x49
 3225 05ae 0F       		.uleb128 0xf
 3226 05af 01       		.uleb128 0x1
 3227 05b0 50       		.byte	0x50
 3228 05b1 01       		.uleb128 0x1
 3229 05b2 31       		.byte	0x31
 3230 05b3 00       		.byte	0
 3231 05b4 11       		.uleb128 0x11
 3232 05b5 EE000000 		.4byte	.LVL42
 3233 05b9 D1150000 		.4byte	0x15d1
 3234 05bd CD050000 		.4byte	0x5cd
 3235 05c1 0F       		.uleb128 0xf
 3236 05c2 01       		.uleb128 0x1
 3237 05c3 51       		.byte	0x51
 3238 05c4 02       		.uleb128 0x2
 3239 05c5 08       		.byte	0x8
 3240 05c6 2E       		.byte	0x2e
 3241 05c7 0F       		.uleb128 0xf
 3242 05c8 01       		.uleb128 0x1
 3243 05c9 50       		.byte	0x50
 3244 05ca 01       		.uleb128 0x1
 3245 05cb 31       		.byte	0x31
 3246 05cc 00       		.byte	0
 3247 05cd 11       		.uleb128 0x11
 3248 05ce FA000000 		.4byte	.LVL43
 3249 05d2 B5150000 		.4byte	0x15b5
ARM GAS  C:\Users\RECEPC~1\AppData\Local\Temp\ccHIf77r.s 			page 72


 3250 05d6 E1050000 		.4byte	0x5e1
 3251 05da 0F       		.uleb128 0xf
 3252 05db 01       		.uleb128 0x1
 3253 05dc 50       		.byte	0x50
 3254 05dd 02       		.uleb128 0x2
 3255 05de 08       		.byte	0x8
 3256 05df 64       		.byte	0x64
 3257 05e0 00       		.byte	0
 3258 05e1 0D       		.uleb128 0xd
 3259 05e2 FE000000 		.4byte	.LVL44
 3260 05e6 07160000 		.4byte	0x1607
 3261 05ea 0D       		.uleb128 0xd
 3262 05eb 04010000 		.4byte	.LVL45
 3263 05ef FC150000 		.4byte	0x15fc
 3264 05f3 11       		.uleb128 0x11
 3265 05f4 44010000 		.4byte	.LVL46
 3266 05f8 D1150000 		.4byte	0x15d1
 3267 05fc 0B060000 		.4byte	0x60b
 3268 0600 0F       		.uleb128 0xf
 3269 0601 01       		.uleb128 0x1
 3270 0602 51       		.byte	0x51
 3271 0603 01       		.uleb128 0x1
 3272 0604 3B       		.byte	0x3b
 3273 0605 0F       		.uleb128 0xf
 3274 0606 01       		.uleb128 0x1
 3275 0607 50       		.byte	0x50
 3276 0608 01       		.uleb128 0x1
 3277 0609 31       		.byte	0x31
 3278 060a 00       		.byte	0
 3279 060b 11       		.uleb128 0x11
 3280 060c 54010000 		.4byte	.LVL47
 3281 0610 D1150000 		.4byte	0x15d1
 3282 0614 23060000 		.4byte	0x623
 3283 0618 0F       		.uleb128 0xf
 3284 0619 01       		.uleb128 0x1
 3285 061a 51       		.byte	0x51
 3286 061b 01       		.uleb128 0x1
 3287 061c 4D       		.byte	0x4d
 3288 061d 0F       		.uleb128 0xf
 3289 061e 01       		.uleb128 0x1
 3290 061f 50       		.byte	0x50
 3291 0620 01       		.uleb128 0x1
 3292 0621 31       		.byte	0x31
 3293 0622 00       		.byte	0
 3294 0623 11       		.uleb128 0x11
 3295 0624 64010000 		.4byte	.LVL48
 3296 0628 D1150000 		.4byte	0x15d1
 3297 062c 3C060000 		.4byte	0x63c
 3298 0630 0F       		.uleb128 0xf
 3299 0631 01       		.uleb128 0x1
 3300 0632 51       		.byte	0x51
 3301 0633 02       		.uleb128 0x2
 3302 0634 08       		.byte	0x8
 3303 0635 2E       		.byte	0x2e
 3304 0636 0F       		.uleb128 0xf
 3305 0637 01       		.uleb128 0x1
 3306 0638 50       		.byte	0x50
ARM GAS  C:\Users\RECEPC~1\AppData\Local\Temp\ccHIf77r.s 			page 73


 3307 0639 01       		.uleb128 0x1
 3308 063a 31       		.byte	0x31
 3309 063b 00       		.byte	0
 3310 063c 11       		.uleb128 0x11
 3311 063d 70010000 		.4byte	.LVL49
 3312 0641 B5150000 		.4byte	0x15b5
 3313 0645 50060000 		.4byte	0x650
 3314 0649 0F       		.uleb128 0xf
 3315 064a 01       		.uleb128 0x1
 3316 064b 50       		.byte	0x50
 3317 064c 02       		.uleb128 0x2
 3318 064d 08       		.byte	0x8
 3319 064e 64       		.byte	0x64
 3320 064f 00       		.byte	0
 3321 0650 0D       		.uleb128 0xd
 3322 0651 74010000 		.4byte	.LVL50
 3323 0655 07160000 		.4byte	0x1607
 3324 0659 0D       		.uleb128 0xd
 3325 065a 7A010000 		.4byte	.LVL51
 3326 065e FC150000 		.4byte	0x15fc
 3327 0662 11       		.uleb128 0x11
 3328 0663 D0010000 		.4byte	.LVL52
 3329 0667 D1150000 		.4byte	0x15d1
 3330 066b 7A060000 		.4byte	0x67a
 3331 066f 0F       		.uleb128 0xf
 3332 0670 01       		.uleb128 0x1
 3333 0671 51       		.byte	0x51
 3334 0672 01       		.uleb128 0x1
 3335 0673 36       		.byte	0x36
 3336 0674 0F       		.uleb128 0xf
 3337 0675 01       		.uleb128 0x1
 3338 0676 50       		.byte	0x50
 3339 0677 01       		.uleb128 0x1
 3340 0678 31       		.byte	0x31
 3341 0679 00       		.byte	0
 3342 067a 11       		.uleb128 0x11
 3343 067b DE010000 		.4byte	.LVL53
 3344 067f 0E160000 		.4byte	0x160e
 3345 0683 98060000 		.4byte	0x698
 3346 0687 0F       		.uleb128 0xf
 3347 0688 01       		.uleb128 0x1
 3348 0689 52       		.byte	0x52
 3349 068a 01       		.uleb128 0x1
 3350 068b 30       		.byte	0x30
 3351 068c 0F       		.uleb128 0xf
 3352 068d 01       		.uleb128 0x1
 3353 068e 51       		.byte	0x51
 3354 068f 02       		.uleb128 0x2
 3355 0690 08       		.byte	0x8
 3356 0691 24       		.byte	0x24
 3357 0692 0F       		.uleb128 0xf
 3358 0693 01       		.uleb128 0x1
 3359 0694 50       		.byte	0x50
 3360 0695 01       		.uleb128 0x1
 3361 0696 31       		.byte	0x31
 3362 0697 00       		.byte	0
 3363 0698 11       		.uleb128 0x11
ARM GAS  C:\Users\RECEPC~1\AppData\Local\Temp\ccHIf77r.s 			page 74


 3364 0699 F8010000 		.4byte	.LVL54
 3365 069d D1150000 		.4byte	0x15d1
 3366 06a1 B0060000 		.4byte	0x6b0
 3367 06a5 0F       		.uleb128 0xf
 3368 06a6 01       		.uleb128 0x1
 3369 06a7 51       		.byte	0x51
 3370 06a8 01       		.uleb128 0x1
 3371 06a9 3D       		.byte	0x3d
 3372 06aa 0F       		.uleb128 0xf
 3373 06ab 01       		.uleb128 0x1
 3374 06ac 50       		.byte	0x50
 3375 06ad 01       		.uleb128 0x1
 3376 06ae 31       		.byte	0x31
 3377 06af 00       		.byte	0
 3378 06b0 11       		.uleb128 0x11
 3379 06b1 0A020000 		.4byte	.LVL55
 3380 06b5 0E160000 		.4byte	0x160e
 3381 06b9 CE060000 		.4byte	0x6ce
 3382 06bd 0F       		.uleb128 0xf
 3383 06be 01       		.uleb128 0x1
 3384 06bf 52       		.byte	0x52
 3385 06c0 01       		.uleb128 0x1
 3386 06c1 30       		.byte	0x30
 3387 06c2 0F       		.uleb128 0xf
 3388 06c3 01       		.uleb128 0x1
 3389 06c4 51       		.byte	0x51
 3390 06c5 02       		.uleb128 0x2
 3391 06c6 08       		.byte	0x8
 3392 06c7 47       		.byte	0x47
 3393 06c8 0F       		.uleb128 0xf
 3394 06c9 01       		.uleb128 0x1
 3395 06ca 50       		.byte	0x50
 3396 06cb 01       		.uleb128 0x1
 3397 06cc 31       		.byte	0x31
 3398 06cd 00       		.byte	0
 3399 06ce 11       		.uleb128 0x11
 3400 06cf 24020000 		.4byte	.LVL56
 3401 06d3 D1150000 		.4byte	0x15d1
 3402 06d7 E6060000 		.4byte	0x6e6
 3403 06db 0F       		.uleb128 0xf
 3404 06dc 01       		.uleb128 0x1
 3405 06dd 51       		.byte	0x51
 3406 06de 01       		.uleb128 0x1
 3407 06df 37       		.byte	0x37
 3408 06e0 0F       		.uleb128 0xf
 3409 06e1 01       		.uleb128 0x1
 3410 06e2 50       		.byte	0x50
 3411 06e3 01       		.uleb128 0x1
 3412 06e4 31       		.byte	0x31
 3413 06e5 00       		.byte	0
 3414 06e6 11       		.uleb128 0x11
 3415 06e7 34020000 		.4byte	.LVL57
 3416 06eb D1150000 		.4byte	0x15d1
 3417 06ef FF060000 		.4byte	0x6ff
 3418 06f3 0F       		.uleb128 0xf
 3419 06f4 01       		.uleb128 0x1
 3420 06f5 51       		.byte	0x51
ARM GAS  C:\Users\RECEPC~1\AppData\Local\Temp\ccHIf77r.s 			page 75


 3421 06f6 02       		.uleb128 0x2
 3422 06f7 08       		.byte	0x8
 3423 06f8 2E       		.byte	0x2e
 3424 06f9 0F       		.uleb128 0xf
 3425 06fa 01       		.uleb128 0x1
 3426 06fb 50       		.byte	0x50
 3427 06fc 01       		.uleb128 0x1
 3428 06fd 31       		.byte	0x31
 3429 06fe 00       		.byte	0
 3430 06ff 11       		.uleb128 0x11
 3431 0700 44020000 		.4byte	.LVL58
 3432 0704 D1150000 		.4byte	0x15d1
 3433 0708 18070000 		.4byte	0x718
 3434 070c 0F       		.uleb128 0xf
 3435 070d 01       		.uleb128 0x1
 3436 070e 51       		.byte	0x51
 3437 070f 02       		.uleb128 0x2
 3438 0710 08       		.byte	0x8
 3439 0711 2E       		.byte	0x2e
 3440 0712 0F       		.uleb128 0xf
 3441 0713 01       		.uleb128 0x1
 3442 0714 50       		.byte	0x50
 3443 0715 01       		.uleb128 0x1
 3444 0716 31       		.byte	0x31
 3445 0717 00       		.byte	0
 3446 0718 11       		.uleb128 0x11
 3447 0719 50020000 		.4byte	.LVL59
 3448 071d B5150000 		.4byte	0x15b5
 3449 0721 2C070000 		.4byte	0x72c
 3450 0725 0F       		.uleb128 0xf
 3451 0726 01       		.uleb128 0x1
 3452 0727 50       		.byte	0x50
 3453 0728 02       		.uleb128 0x2
 3454 0729 08       		.byte	0x8
 3455 072a 64       		.byte	0x64
 3456 072b 00       		.byte	0
 3457 072c 0D       		.uleb128 0xd
 3458 072d 54020000 		.4byte	.LVL60
 3459 0731 07160000 		.4byte	0x1607
 3460 0735 0D       		.uleb128 0xd
 3461 0736 5A020000 		.4byte	.LVL61
 3462 073a FC150000 		.4byte	0x15fc
 3463 073e 11       		.uleb128 0x11
 3464 073f 8E020000 		.4byte	.LVL62
 3465 0743 D1150000 		.4byte	0x15d1
 3466 0747 57070000 		.4byte	0x757
 3467 074b 0F       		.uleb128 0xf
 3468 074c 01       		.uleb128 0x1
 3469 074d 51       		.byte	0x51
 3470 074e 02       		.uleb128 0x2
 3471 074f 08       		.byte	0x8
 3472 0750 2E       		.byte	0x2e
 3473 0751 0F       		.uleb128 0xf
 3474 0752 01       		.uleb128 0x1
 3475 0753 50       		.byte	0x50
 3476 0754 01       		.uleb128 0x1
 3477 0755 31       		.byte	0x31
ARM GAS  C:\Users\RECEPC~1\AppData\Local\Temp\ccHIf77r.s 			page 76


 3478 0756 00       		.byte	0
 3479 0757 11       		.uleb128 0x11
 3480 0758 9A020000 		.4byte	.LVL63
 3481 075c B5150000 		.4byte	0x15b5
 3482 0760 6B070000 		.4byte	0x76b
 3483 0764 0F       		.uleb128 0xf
 3484 0765 01       		.uleb128 0x1
 3485 0766 50       		.byte	0x50
 3486 0767 02       		.uleb128 0x2
 3487 0768 08       		.byte	0x8
 3488 0769 64       		.byte	0x64
 3489 076a 00       		.byte	0
 3490 076b 0D       		.uleb128 0xd
 3491 076c 9E020000 		.4byte	.LVL64
 3492 0770 07160000 		.4byte	0x1607
 3493 0774 0D       		.uleb128 0xd
 3494 0775 C4020000 		.4byte	.LVL65
 3495 0779 E7150000 		.4byte	0x15e7
 3496 077d 11       		.uleb128 0x11
 3497 077e D0020000 		.4byte	.LVL66
 3498 0782 B5150000 		.4byte	0x15b5
 3499 0786 91070000 		.4byte	0x791
 3500 078a 0F       		.uleb128 0xf
 3501 078b 01       		.uleb128 0x1
 3502 078c 50       		.byte	0x50
 3503 078d 02       		.uleb128 0x2
 3504 078e 08       		.byte	0x8
 3505 078f 32       		.byte	0x32
 3506 0790 00       		.byte	0
 3507 0791 11       		.uleb128 0x11
 3508 0792 E8020000 		.4byte	.LVL67
 3509 0796 29160000 		.4byte	0x1629
 3510 079a A8070000 		.4byte	0x7a8
 3511 079e 0F       		.uleb128 0xf
 3512 079f 01       		.uleb128 0x1
 3513 07a0 52       		.byte	0x52
 3514 07a1 05       		.uleb128 0x5
 3515 07a2 03       		.byte	0x3
 3516 07a3 0B000000 		.4byte	Buffer_LCD1+11
 3517 07a7 00       		.byte	0
 3518 07a8 11       		.uleb128 0x11
 3519 07a9 F2020000 		.4byte	.LVL68
 3520 07ad D1150000 		.4byte	0x15d1
 3521 07b1 C1070000 		.4byte	0x7c1
 3522 07b5 0F       		.uleb128 0xf
 3523 07b6 01       		.uleb128 0x1
 3524 07b7 51       		.byte	0x51
 3525 07b8 02       		.uleb128 0x2
 3526 07b9 08       		.byte	0x8
 3527 07ba 2E       		.byte	0x2e
 3528 07bb 0F       		.uleb128 0xf
 3529 07bc 01       		.uleb128 0x1
 3530 07bd 50       		.byte	0x50
 3531 07be 01       		.uleb128 0x1
 3532 07bf 31       		.byte	0x31
 3533 07c0 00       		.byte	0
 3534 07c1 0D       		.uleb128 0xd
ARM GAS  C:\Users\RECEPC~1\AppData\Local\Temp\ccHIf77r.s 			page 77


 3535 07c2 02030000 		.4byte	.LVL69
 3536 07c6 53160000 		.4byte	0x1653
 3537 07ca 0D       		.uleb128 0xd
 3538 07cb 10030000 		.4byte	.LVL70
 3539 07cf 68160000 		.4byte	0x1668
 3540 07d3 11       		.uleb128 0x11
 3541 07d4 18030000 		.4byte	.LVL71
 3542 07d8 D1150000 		.4byte	0x15d1
 3543 07dc EB070000 		.4byte	0x7eb
 3544 07e0 0F       		.uleb128 0xf
 3545 07e1 01       		.uleb128 0x1
 3546 07e2 51       		.byte	0x51
 3547 07e3 01       		.uleb128 0x1
 3548 07e4 38       		.byte	0x38
 3549 07e5 0F       		.uleb128 0xf
 3550 07e6 01       		.uleb128 0x1
 3551 07e7 50       		.byte	0x50
 3552 07e8 01       		.uleb128 0x1
 3553 07e9 31       		.byte	0x31
 3554 07ea 00       		.byte	0
 3555 07eb 11       		.uleb128 0x11
 3556 07ec 26030000 		.4byte	.LVL72
 3557 07f0 B5150000 		.4byte	0x15b5
 3558 07f4 FF070000 		.4byte	0x7ff
 3559 07f8 0F       		.uleb128 0xf
 3560 07f9 01       		.uleb128 0x1
 3561 07fa 50       		.byte	0x50
 3562 07fb 02       		.uleb128 0x2
 3563 07fc 08       		.byte	0x8
 3564 07fd 32       		.byte	0x32
 3565 07fe 00       		.byte	0
 3566 07ff 0D       		.uleb128 0xd
 3567 0800 2E030000 		.4byte	.LVL73
 3568 0804 E7150000 		.4byte	0x15e7
 3569 0808 11       		.uleb128 0x11
 3570 0809 44030000 		.4byte	.LVL74
 3571 080d B5150000 		.4byte	0x15b5
 3572 0811 1C080000 		.4byte	0x81c
 3573 0815 0F       		.uleb128 0xf
 3574 0816 01       		.uleb128 0x1
 3575 0817 50       		.byte	0x50
 3576 0818 02       		.uleb128 0x2
 3577 0819 08       		.byte	0x8
 3578 081a 64       		.byte	0x64
 3579 081b 00       		.byte	0
 3580 081c 0D       		.uleb128 0xd
 3581 081d 4C030000 		.4byte	.LVL75
 3582 0821 79160000 		.4byte	0x1679
 3583 0825 11       		.uleb128 0x11
 3584 0826 5C030000 		.4byte	.LVL76
 3585 082a D1150000 		.4byte	0x15d1
 3586 082e 39080000 		.4byte	0x839
 3587 0832 0F       		.uleb128 0xf
 3588 0833 01       		.uleb128 0x1
 3589 0834 51       		.byte	0x51
 3590 0835 02       		.uleb128 0x2
 3591 0836 08       		.byte	0x8
ARM GAS  C:\Users\RECEPC~1\AppData\Local\Temp\ccHIf77r.s 			page 78


 3592 0837 39       		.byte	0x39
 3593 0838 00       		.byte	0
 3594 0839 11       		.uleb128 0x11
 3595 083a 62030000 		.4byte	.LVL77
 3596 083e B5150000 		.4byte	0x15b5
 3597 0842 4C080000 		.4byte	0x84c
 3598 0846 0F       		.uleb128 0xf
 3599 0847 01       		.uleb128 0x1
 3600 0848 50       		.byte	0x50
 3601 0849 01       		.uleb128 0x1
 3602 084a 44       		.byte	0x44
 3603 084b 00       		.byte	0
 3604 084c 0D       		.uleb128 0xd
 3605 084d 70030000 		.4byte	.LVL78
 3606 0851 79160000 		.4byte	0x1679
 3607 0855 11       		.uleb128 0x11
 3608 0856 86030000 		.4byte	.LVL79
 3609 085a D1150000 		.4byte	0x15d1
 3610 085e 68080000 		.4byte	0x868
 3611 0862 0F       		.uleb128 0xf
 3612 0863 01       		.uleb128 0x1
 3613 0864 51       		.byte	0x51
 3614 0865 01       		.uleb128 0x1
 3615 0866 3C       		.byte	0x3c
 3616 0867 00       		.byte	0
 3617 0868 11       		.uleb128 0x11
 3618 0869 8E030000 		.4byte	.LVL80
 3619 086d B5150000 		.4byte	0x15b5
 3620 0871 7D080000 		.4byte	0x87d
 3621 0875 0F       		.uleb128 0xf
 3622 0876 01       		.uleb128 0x1
 3623 0877 50       		.byte	0x50
 3624 0878 03       		.uleb128 0x3
 3625 0879 0A       		.byte	0xa
 3626 087a F401     		.2byte	0x1f4
 3627 087c 00       		.byte	0
 3628 087d 11       		.uleb128 0x11
 3629 087e 96030000 		.4byte	.LVL81
 3630 0882 D1150000 		.4byte	0x15d1
 3631 0886 96080000 		.4byte	0x896
 3632 088a 0F       		.uleb128 0xf
 3633 088b 01       		.uleb128 0x1
 3634 088c 51       		.byte	0x51
 3635 088d 02       		.uleb128 0x2
 3636 088e 08       		.byte	0x8
 3637 088f 2E       		.byte	0x2e
 3638 0890 0F       		.uleb128 0xf
 3639 0891 01       		.uleb128 0x1
 3640 0892 50       		.byte	0x50
 3641 0893 01       		.uleb128 0x1
 3642 0894 31       		.byte	0x31
 3643 0895 00       		.byte	0
 3644 0896 11       		.uleb128 0x11
 3645 0897 A4030000 		.4byte	.LVL82
 3646 089b B5150000 		.4byte	0x15b5
 3647 089f AA080000 		.4byte	0x8aa
 3648 08a3 0F       		.uleb128 0xf
ARM GAS  C:\Users\RECEPC~1\AppData\Local\Temp\ccHIf77r.s 			page 79


 3649 08a4 01       		.uleb128 0x1
 3650 08a5 50       		.byte	0x50
 3651 08a6 02       		.uleb128 0x2
 3652 08a7 08       		.byte	0x8
 3653 08a8 64       		.byte	0x64
 3654 08a9 00       		.byte	0
 3655 08aa 0D       		.uleb128 0xd
 3656 08ab AC030000 		.4byte	.LVL83
 3657 08af 79160000 		.4byte	0x1679
 3658 08b3 11       		.uleb128 0x11
 3659 08b4 BC030000 		.4byte	.LVL84
 3660 08b8 D1150000 		.4byte	0x15d1
 3661 08bc C7080000 		.4byte	0x8c7
 3662 08c0 0F       		.uleb128 0xf
 3663 08c1 01       		.uleb128 0x1
 3664 08c2 51       		.byte	0x51
 3665 08c3 02       		.uleb128 0x2
 3666 08c4 08       		.byte	0x8
 3667 08c5 39       		.byte	0x39
 3668 08c6 00       		.byte	0
 3669 08c7 11       		.uleb128 0x11
 3670 08c8 C2030000 		.4byte	.LVL85
 3671 08cc B5150000 		.4byte	0x15b5
 3672 08d0 DA080000 		.4byte	0x8da
 3673 08d4 0F       		.uleb128 0xf
 3674 08d5 01       		.uleb128 0x1
 3675 08d6 50       		.byte	0x50
 3676 08d7 01       		.uleb128 0x1
 3677 08d8 44       		.byte	0x44
 3678 08d9 00       		.byte	0
 3679 08da 0D       		.uleb128 0xd
 3680 08db D0030000 		.4byte	.LVL86
 3681 08df 79160000 		.4byte	0x1679
 3682 08e3 11       		.uleb128 0x11
 3683 08e4 E6030000 		.4byte	.LVL87
 3684 08e8 D1150000 		.4byte	0x15d1
 3685 08ec F6080000 		.4byte	0x8f6
 3686 08f0 0F       		.uleb128 0xf
 3687 08f1 01       		.uleb128 0x1
 3688 08f2 51       		.byte	0x51
 3689 08f3 01       		.uleb128 0x1
 3690 08f4 3C       		.byte	0x3c
 3691 08f5 00       		.byte	0
 3692 08f6 11       		.uleb128 0x11
 3693 08f7 EE030000 		.4byte	.LVL88
 3694 08fb B5150000 		.4byte	0x15b5
 3695 08ff 0B090000 		.4byte	0x90b
 3696 0903 0F       		.uleb128 0xf
 3697 0904 01       		.uleb128 0x1
 3698 0905 50       		.byte	0x50
 3699 0906 03       		.uleb128 0x3
 3700 0907 0A       		.byte	0xa
 3701 0908 F401     		.2byte	0x1f4
 3702 090a 00       		.byte	0
 3703 090b 11       		.uleb128 0x11
 3704 090c F6030000 		.4byte	.LVL89
 3705 0910 D1150000 		.4byte	0x15d1
ARM GAS  C:\Users\RECEPC~1\AppData\Local\Temp\ccHIf77r.s 			page 80


 3706 0914 24090000 		.4byte	0x924
 3707 0918 0F       		.uleb128 0xf
 3708 0919 01       		.uleb128 0x1
 3709 091a 51       		.byte	0x51
 3710 091b 02       		.uleb128 0x2
 3711 091c 08       		.byte	0x8
 3712 091d 2E       		.byte	0x2e
 3713 091e 0F       		.uleb128 0xf
 3714 091f 01       		.uleb128 0x1
 3715 0920 50       		.byte	0x50
 3716 0921 01       		.uleb128 0x1
 3717 0922 31       		.byte	0x31
 3718 0923 00       		.byte	0
 3719 0924 11       		.uleb128 0x11
 3720 0925 06040000 		.4byte	.LVL90
 3721 0929 D1150000 		.4byte	0x15d1
 3722 092d 3D090000 		.4byte	0x93d
 3723 0931 0F       		.uleb128 0xf
 3724 0932 01       		.uleb128 0x1
 3725 0933 51       		.byte	0x51
 3726 0934 02       		.uleb128 0x2
 3727 0935 08       		.byte	0x8
 3728 0936 2E       		.byte	0x2e
 3729 0937 0F       		.uleb128 0xf
 3730 0938 01       		.uleb128 0x1
 3731 0939 50       		.byte	0x50
 3732 093a 01       		.uleb128 0x1
 3733 093b 31       		.byte	0x31
 3734 093c 00       		.byte	0
 3735 093d 0D       		.uleb128 0xd
 3736 093e 12040000 		.4byte	.LVL91
 3737 0942 FC150000 		.4byte	0x15fc
 3738 0946 11       		.uleb128 0x11
 3739 0947 70040000 		.4byte	.LVL92
 3740 094b 0E160000 		.4byte	0x160e
 3741 094f 59090000 		.4byte	0x959
 3742 0953 0F       		.uleb128 0xf
 3743 0954 01       		.uleb128 0x1
 3744 0955 50       		.byte	0x50
 3745 0956 01       		.uleb128 0x1
 3746 0957 31       		.byte	0x31
 3747 0958 00       		.byte	0
 3748 0959 11       		.uleb128 0x11
 3749 095a 94040000 		.4byte	.LVL93
 3750 095e 0E160000 		.4byte	0x160e
 3751 0962 72090000 		.4byte	0x972
 3752 0966 0F       		.uleb128 0xf
 3753 0967 01       		.uleb128 0x1
 3754 0968 51       		.byte	0x51
 3755 0969 02       		.uleb128 0x2
 3756 096a 08       		.byte	0x8
 3757 096b 30       		.byte	0x30
 3758 096c 0F       		.uleb128 0xf
 3759 096d 01       		.uleb128 0x1
 3760 096e 50       		.byte	0x50
 3761 096f 01       		.uleb128 0x1
 3762 0970 31       		.byte	0x31
ARM GAS  C:\Users\RECEPC~1\AppData\Local\Temp\ccHIf77r.s 			page 81


 3763 0971 00       		.byte	0
 3764 0972 11       		.uleb128 0x11
 3765 0973 B8040000 		.4byte	.LVL94
 3766 0977 0E160000 		.4byte	0x160e
 3767 097b 8B090000 		.4byte	0x98b
 3768 097f 0F       		.uleb128 0xf
 3769 0980 01       		.uleb128 0x1
 3770 0981 51       		.byte	0x51
 3771 0982 02       		.uleb128 0x2
 3772 0983 08       		.byte	0x8
 3773 0984 2D       		.byte	0x2d
 3774 0985 0F       		.uleb128 0xf
 3775 0986 01       		.uleb128 0x1
 3776 0987 50       		.byte	0x50
 3777 0988 01       		.uleb128 0x1
 3778 0989 31       		.byte	0x31
 3779 098a 00       		.byte	0
 3780 098b 11       		.uleb128 0x11
 3781 098c FE040000 		.4byte	.LVL95
 3782 0990 0E160000 		.4byte	0x160e
 3783 0994 9E090000 		.4byte	0x99e
 3784 0998 0F       		.uleb128 0xf
 3785 0999 01       		.uleb128 0x1
 3786 099a 50       		.byte	0x50
 3787 099b 01       		.uleb128 0x1
 3788 099c 31       		.byte	0x31
 3789 099d 00       		.byte	0
 3790 099e 11       		.uleb128 0x11
 3791 099f 26050000 		.4byte	.LVL96
 3792 09a3 D1150000 		.4byte	0x15d1
 3793 09a7 B7090000 		.4byte	0x9b7
 3794 09ab 0F       		.uleb128 0xf
 3795 09ac 01       		.uleb128 0x1
 3796 09ad 51       		.byte	0x51
 3797 09ae 02       		.uleb128 0x2
 3798 09af 08       		.byte	0x8
 3799 09b0 2E       		.byte	0x2e
 3800 09b1 0F       		.uleb128 0xf
 3801 09b2 01       		.uleb128 0x1
 3802 09b3 50       		.byte	0x50
 3803 09b4 01       		.uleb128 0x1
 3804 09b5 31       		.byte	0x31
 3805 09b6 00       		.byte	0
 3806 09b7 11       		.uleb128 0x11
 3807 09b8 3C050000 		.4byte	.LVL97
 3808 09bc 0E160000 		.4byte	0x160e
 3809 09c0 D0090000 		.4byte	0x9d0
 3810 09c4 0F       		.uleb128 0xf
 3811 09c5 01       		.uleb128 0x1
 3812 09c6 51       		.byte	0x51
 3813 09c7 02       		.uleb128 0x2
 3814 09c8 08       		.byte	0x8
 3815 09c9 20       		.byte	0x20
 3816 09ca 0F       		.uleb128 0xf
 3817 09cb 01       		.uleb128 0x1
 3818 09cc 50       		.byte	0x50
 3819 09cd 01       		.uleb128 0x1
ARM GAS  C:\Users\RECEPC~1\AppData\Local\Temp\ccHIf77r.s 			page 82


 3820 09ce 31       		.byte	0x31
 3821 09cf 00       		.byte	0
 3822 09d0 11       		.uleb128 0x11
 3823 09d1 5C050000 		.4byte	.LVL98
 3824 09d5 D1150000 		.4byte	0x15d1
 3825 09d9 E8090000 		.4byte	0x9e8
 3826 09dd 0F       		.uleb128 0xf
 3827 09de 01       		.uleb128 0x1
 3828 09df 51       		.byte	0x51
 3829 09e0 01       		.uleb128 0x1
 3830 09e1 35       		.byte	0x35
 3831 09e2 0F       		.uleb128 0xf
 3832 09e3 01       		.uleb128 0x1
 3833 09e4 50       		.byte	0x50
 3834 09e5 01       		.uleb128 0x1
 3835 09e6 31       		.byte	0x31
 3836 09e7 00       		.byte	0
 3837 09e8 11       		.uleb128 0x11
 3838 09e9 72050000 		.4byte	.LVL99
 3839 09ed B5150000 		.4byte	0x15b5
 3840 09f1 FC090000 		.4byte	0x9fc
 3841 09f5 0F       		.uleb128 0xf
 3842 09f6 01       		.uleb128 0x1
 3843 09f7 50       		.byte	0x50
 3844 09f8 02       		.uleb128 0x2
 3845 09f9 08       		.byte	0x8
 3846 09fa 64       		.byte	0x64
 3847 09fb 00       		.byte	0
 3848 09fc 0D       		.uleb128 0xd
 3849 09fd 76050000 		.4byte	.LVL100
 3850 0a01 07160000 		.4byte	0x1607
 3851 0a05 0D       		.uleb128 0xd
 3852 0a06 A8050000 		.4byte	.LVL101
 3853 0a0a FC150000 		.4byte	0x15fc
 3854 0a0e 11       		.uleb128 0x11
 3855 0a0f E6050000 		.4byte	.LVL102
 3856 0a13 D1150000 		.4byte	0x15d1
 3857 0a17 260A0000 		.4byte	0xa26
 3858 0a1b 0F       		.uleb128 0xf
 3859 0a1c 01       		.uleb128 0x1
 3860 0a1d 51       		.byte	0x51
 3861 0a1e 01       		.uleb128 0x1
 3862 0a1f 3A       		.byte	0x3a
 3863 0a20 0F       		.uleb128 0xf
 3864 0a21 01       		.uleb128 0x1
 3865 0a22 50       		.byte	0x50
 3866 0a23 01       		.uleb128 0x1
 3867 0a24 31       		.byte	0x31
 3868 0a25 00       		.byte	0
 3869 0a26 11       		.uleb128 0x11
 3870 0a27 00060000 		.4byte	.LVL103
 3871 0a2b D1150000 		.4byte	0x15d1
 3872 0a2f 3E0A0000 		.4byte	0xa3e
 3873 0a33 0F       		.uleb128 0xf
 3874 0a34 01       		.uleb128 0x1
 3875 0a35 51       		.byte	0x51
 3876 0a36 01       		.uleb128 0x1
ARM GAS  C:\Users\RECEPC~1\AppData\Local\Temp\ccHIf77r.s 			page 83


 3877 0a37 35       		.byte	0x35
 3878 0a38 0F       		.uleb128 0xf
 3879 0a39 01       		.uleb128 0x1
 3880 0a3a 50       		.byte	0x50
 3881 0a3b 01       		.uleb128 0x1
 3882 0a3c 31       		.byte	0x31
 3883 0a3d 00       		.byte	0
 3884 0a3e 11       		.uleb128 0x11
 3885 0a3f 16060000 		.4byte	.LVL104
 3886 0a43 D1150000 		.4byte	0x15d1
 3887 0a47 570A0000 		.4byte	0xa57
 3888 0a4b 0F       		.uleb128 0xf
 3889 0a4c 01       		.uleb128 0x1
 3890 0a4d 51       		.byte	0x51
 3891 0a4e 02       		.uleb128 0x2
 3892 0a4f 08       		.byte	0x8
 3893 0a50 2E       		.byte	0x2e
 3894 0a51 0F       		.uleb128 0xf
 3895 0a52 01       		.uleb128 0x1
 3896 0a53 50       		.byte	0x50
 3897 0a54 01       		.uleb128 0x1
 3898 0a55 31       		.byte	0x31
 3899 0a56 00       		.byte	0
 3900 0a57 11       		.uleb128 0x11
 3901 0a58 22060000 		.4byte	.LVL105
 3902 0a5c B5150000 		.4byte	0x15b5
 3903 0a60 6B0A0000 		.4byte	0xa6b
 3904 0a64 0F       		.uleb128 0xf
 3905 0a65 01       		.uleb128 0x1
 3906 0a66 50       		.byte	0x50
 3907 0a67 02       		.uleb128 0x2
 3908 0a68 08       		.byte	0x8
 3909 0a69 64       		.byte	0x64
 3910 0a6a 00       		.byte	0
 3911 0a6b 0D       		.uleb128 0xd
 3912 0a6c 26060000 		.4byte	.LVL106
 3913 0a70 07160000 		.4byte	0x1607
 3914 0a74 00       		.byte	0
 3915 0a75 12       		.uleb128 0x12
 3916 0a76 96040000 		.4byte	.LASF51
 3917 0a7a 01       		.byte	0x1
 3918 0a7b DC01     		.2byte	0x1dc
 3919 0a7d 00000000 		.4byte	.LFB67
 3920 0a81 38060000 		.4byte	.LFE67-.LFB67
 3921 0a85 01       		.uleb128 0x1
 3922 0a86 9C       		.byte	0x9c
 3923 0a87 C60F0000 		.4byte	0xfc6
 3924 0a8b 0D       		.uleb128 0xd
 3925 0a8c 2A000000 		.4byte	.LVL107
 3926 0a90 FC150000 		.4byte	0x15fc
 3927 0a94 11       		.uleb128 0x11
 3928 0a95 66000000 		.4byte	.LVL108
 3929 0a99 D1150000 		.4byte	0x15d1
 3930 0a9d AD0A0000 		.4byte	0xaad
 3931 0aa1 0F       		.uleb128 0xf
 3932 0aa2 01       		.uleb128 0x1
 3933 0aa3 51       		.byte	0x51
ARM GAS  C:\Users\RECEPC~1\AppData\Local\Temp\ccHIf77r.s 			page 84


 3934 0aa4 02       		.uleb128 0x2
 3935 0aa5 08       		.byte	0x8
 3936 0aa6 63       		.byte	0x63
 3937 0aa7 0F       		.uleb128 0xf
 3938 0aa8 01       		.uleb128 0x1
 3939 0aa9 50       		.byte	0x50
 3940 0aaa 01       		.uleb128 0x1
 3941 0aab 31       		.byte	0x31
 3942 0aac 00       		.byte	0
 3943 0aad 11       		.uleb128 0x11
 3944 0aae 80000000 		.4byte	.LVL109
 3945 0ab2 D1150000 		.4byte	0x15d1
 3946 0ab6 C60A0000 		.4byte	0xac6
 3947 0aba 0F       		.uleb128 0xf
 3948 0abb 01       		.uleb128 0x1
 3949 0abc 51       		.byte	0x51
 3950 0abd 02       		.uleb128 0x2
 3951 0abe 08       		.byte	0x8
 3952 0abf 63       		.byte	0x63
 3953 0ac0 0F       		.uleb128 0xf
 3954 0ac1 01       		.uleb128 0x1
 3955 0ac2 50       		.byte	0x50
 3956 0ac3 01       		.uleb128 0x1
 3957 0ac4 31       		.byte	0x31
 3958 0ac5 00       		.byte	0
 3959 0ac6 11       		.uleb128 0x11
 3960 0ac7 98000000 		.4byte	.LVL110
 3961 0acb B5150000 		.4byte	0x15b5
 3962 0acf DA0A0000 		.4byte	0xada
 3963 0ad3 0F       		.uleb128 0xf
 3964 0ad4 01       		.uleb128 0x1
 3965 0ad5 50       		.byte	0x50
 3966 0ad6 02       		.uleb128 0x2
 3967 0ad7 08       		.byte	0x8
 3968 0ad8 64       		.byte	0x64
 3969 0ad9 00       		.byte	0
 3970 0ada 0D       		.uleb128 0xd
 3971 0adb 9C000000 		.4byte	.LVL111
 3972 0adf 07160000 		.4byte	0x1607
 3973 0ae3 0D       		.uleb128 0xd
 3974 0ae4 A2000000 		.4byte	.LVL112
 3975 0ae8 FC150000 		.4byte	0x15fc
 3976 0aec 11       		.uleb128 0x11
 3977 0aed DE000000 		.4byte	.LVL113
 3978 0af1 D1150000 		.4byte	0x15d1
 3979 0af5 050B0000 		.4byte	0xb05
 3980 0af9 0F       		.uleb128 0xf
 3981 0afa 01       		.uleb128 0x1
 3982 0afb 51       		.byte	0x51
 3983 0afc 02       		.uleb128 0x2
 3984 0afd 08       		.byte	0x8
 3985 0afe 49       		.byte	0x49
 3986 0aff 0F       		.uleb128 0xf
 3987 0b00 01       		.uleb128 0x1
 3988 0b01 50       		.byte	0x50
 3989 0b02 01       		.uleb128 0x1
 3990 0b03 31       		.byte	0x31
ARM GAS  C:\Users\RECEPC~1\AppData\Local\Temp\ccHIf77r.s 			page 85


 3991 0b04 00       		.byte	0
 3992 0b05 11       		.uleb128 0x11
 3993 0b06 EE000000 		.4byte	.LVL114
 3994 0b0a D1150000 		.4byte	0x15d1
 3995 0b0e 1E0B0000 		.4byte	0xb1e
 3996 0b12 0F       		.uleb128 0xf
 3997 0b13 01       		.uleb128 0x1
 3998 0b14 51       		.byte	0x51
 3999 0b15 02       		.uleb128 0x2
 4000 0b16 08       		.byte	0x8
 4001 0b17 2E       		.byte	0x2e
 4002 0b18 0F       		.uleb128 0xf
 4003 0b19 01       		.uleb128 0x1
 4004 0b1a 50       		.byte	0x50
 4005 0b1b 01       		.uleb128 0x1
 4006 0b1c 31       		.byte	0x31
 4007 0b1d 00       		.byte	0
 4008 0b1e 11       		.uleb128 0x11
 4009 0b1f FA000000 		.4byte	.LVL115
 4010 0b23 B5150000 		.4byte	0x15b5
 4011 0b27 320B0000 		.4byte	0xb32
 4012 0b2b 0F       		.uleb128 0xf
 4013 0b2c 01       		.uleb128 0x1
 4014 0b2d 50       		.byte	0x50
 4015 0b2e 02       		.uleb128 0x2
 4016 0b2f 08       		.byte	0x8
 4017 0b30 64       		.byte	0x64
 4018 0b31 00       		.byte	0
 4019 0b32 0D       		.uleb128 0xd
 4020 0b33 FE000000 		.4byte	.LVL116
 4021 0b37 07160000 		.4byte	0x1607
 4022 0b3b 0D       		.uleb128 0xd
 4023 0b3c 04010000 		.4byte	.LVL117
 4024 0b40 FC150000 		.4byte	0x15fc
 4025 0b44 11       		.uleb128 0x11
 4026 0b45 44010000 		.4byte	.LVL118
 4027 0b49 D1150000 		.4byte	0x15d1
 4028 0b4d 5C0B0000 		.4byte	0xb5c
 4029 0b51 0F       		.uleb128 0xf
 4030 0b52 01       		.uleb128 0x1
 4031 0b53 51       		.byte	0x51
 4032 0b54 01       		.uleb128 0x1
 4033 0b55 3B       		.byte	0x3b
 4034 0b56 0F       		.uleb128 0xf
 4035 0b57 01       		.uleb128 0x1
 4036 0b58 50       		.byte	0x50
 4037 0b59 01       		.uleb128 0x1
 4038 0b5a 31       		.byte	0x31
 4039 0b5b 00       		.byte	0
 4040 0b5c 11       		.uleb128 0x11
 4041 0b5d 54010000 		.4byte	.LVL119
 4042 0b61 D1150000 		.4byte	0x15d1
 4043 0b65 740B0000 		.4byte	0xb74
 4044 0b69 0F       		.uleb128 0xf
 4045 0b6a 01       		.uleb128 0x1
 4046 0b6b 51       		.byte	0x51
 4047 0b6c 01       		.uleb128 0x1
ARM GAS  C:\Users\RECEPC~1\AppData\Local\Temp\ccHIf77r.s 			page 86


 4048 0b6d 4D       		.byte	0x4d
 4049 0b6e 0F       		.uleb128 0xf
 4050 0b6f 01       		.uleb128 0x1
 4051 0b70 50       		.byte	0x50
 4052 0b71 01       		.uleb128 0x1
 4053 0b72 31       		.byte	0x31
 4054 0b73 00       		.byte	0
 4055 0b74 11       		.uleb128 0x11
 4056 0b75 64010000 		.4byte	.LVL120
 4057 0b79 D1150000 		.4byte	0x15d1
 4058 0b7d 8D0B0000 		.4byte	0xb8d
 4059 0b81 0F       		.uleb128 0xf
 4060 0b82 01       		.uleb128 0x1
 4061 0b83 51       		.byte	0x51
 4062 0b84 02       		.uleb128 0x2
 4063 0b85 08       		.byte	0x8
 4064 0b86 2E       		.byte	0x2e
 4065 0b87 0F       		.uleb128 0xf
 4066 0b88 01       		.uleb128 0x1
 4067 0b89 50       		.byte	0x50
 4068 0b8a 01       		.uleb128 0x1
 4069 0b8b 31       		.byte	0x31
 4070 0b8c 00       		.byte	0
 4071 0b8d 11       		.uleb128 0x11
 4072 0b8e 70010000 		.4byte	.LVL121
 4073 0b92 B5150000 		.4byte	0x15b5
 4074 0b96 A10B0000 		.4byte	0xba1
 4075 0b9a 0F       		.uleb128 0xf
 4076 0b9b 01       		.uleb128 0x1
 4077 0b9c 50       		.byte	0x50
 4078 0b9d 02       		.uleb128 0x2
 4079 0b9e 08       		.byte	0x8
 4080 0b9f 64       		.byte	0x64
 4081 0ba0 00       		.byte	0
 4082 0ba1 0D       		.uleb128 0xd
 4083 0ba2 74010000 		.4byte	.LVL122
 4084 0ba6 07160000 		.4byte	0x1607
 4085 0baa 0D       		.uleb128 0xd
 4086 0bab 7A010000 		.4byte	.LVL123
 4087 0baf FC150000 		.4byte	0x15fc
 4088 0bb3 11       		.uleb128 0x11
 4089 0bb4 D0010000 		.4byte	.LVL124
 4090 0bb8 D1150000 		.4byte	0x15d1
 4091 0bbc CB0B0000 		.4byte	0xbcb
 4092 0bc0 0F       		.uleb128 0xf
 4093 0bc1 01       		.uleb128 0x1
 4094 0bc2 51       		.byte	0x51
 4095 0bc3 01       		.uleb128 0x1
 4096 0bc4 36       		.byte	0x36
 4097 0bc5 0F       		.uleb128 0xf
 4098 0bc6 01       		.uleb128 0x1
 4099 0bc7 50       		.byte	0x50
 4100 0bc8 01       		.uleb128 0x1
 4101 0bc9 31       		.byte	0x31
 4102 0bca 00       		.byte	0
 4103 0bcb 11       		.uleb128 0x11
 4104 0bcc DE010000 		.4byte	.LVL125
ARM GAS  C:\Users\RECEPC~1\AppData\Local\Temp\ccHIf77r.s 			page 87


 4105 0bd0 0E160000 		.4byte	0x160e
 4106 0bd4 E90B0000 		.4byte	0xbe9
 4107 0bd8 0F       		.uleb128 0xf
 4108 0bd9 01       		.uleb128 0x1
 4109 0bda 52       		.byte	0x52
 4110 0bdb 01       		.uleb128 0x1
 4111 0bdc 30       		.byte	0x30
 4112 0bdd 0F       		.uleb128 0xf
 4113 0bde 01       		.uleb128 0x1
 4114 0bdf 51       		.byte	0x51
 4115 0be0 02       		.uleb128 0x2
 4116 0be1 08       		.byte	0x8
 4117 0be2 24       		.byte	0x24
 4118 0be3 0F       		.uleb128 0xf
 4119 0be4 01       		.uleb128 0x1
 4120 0be5 50       		.byte	0x50
 4121 0be6 01       		.uleb128 0x1
 4122 0be7 31       		.byte	0x31
 4123 0be8 00       		.byte	0
 4124 0be9 11       		.uleb128 0x11
 4125 0bea F8010000 		.4byte	.LVL126
 4126 0bee D1150000 		.4byte	0x15d1
 4127 0bf2 010C0000 		.4byte	0xc01
 4128 0bf6 0F       		.uleb128 0xf
 4129 0bf7 01       		.uleb128 0x1
 4130 0bf8 51       		.byte	0x51
 4131 0bf9 01       		.uleb128 0x1
 4132 0bfa 3D       		.byte	0x3d
 4133 0bfb 0F       		.uleb128 0xf
 4134 0bfc 01       		.uleb128 0x1
 4135 0bfd 50       		.byte	0x50
 4136 0bfe 01       		.uleb128 0x1
 4137 0bff 31       		.byte	0x31
 4138 0c00 00       		.byte	0
 4139 0c01 11       		.uleb128 0x11
 4140 0c02 0A020000 		.4byte	.LVL127
 4141 0c06 0E160000 		.4byte	0x160e
 4142 0c0a 1F0C0000 		.4byte	0xc1f
 4143 0c0e 0F       		.uleb128 0xf
 4144 0c0f 01       		.uleb128 0x1
 4145 0c10 52       		.byte	0x52
 4146 0c11 01       		.uleb128 0x1
 4147 0c12 30       		.byte	0x30
 4148 0c13 0F       		.uleb128 0xf
 4149 0c14 01       		.uleb128 0x1
 4150 0c15 51       		.byte	0x51
 4151 0c16 02       		.uleb128 0x2
 4152 0c17 08       		.byte	0x8
 4153 0c18 47       		.byte	0x47
 4154 0c19 0F       		.uleb128 0xf
 4155 0c1a 01       		.uleb128 0x1
 4156 0c1b 50       		.byte	0x50
 4157 0c1c 01       		.uleb128 0x1
 4158 0c1d 31       		.byte	0x31
 4159 0c1e 00       		.byte	0
 4160 0c1f 11       		.uleb128 0x11
 4161 0c20 24020000 		.4byte	.LVL128
ARM GAS  C:\Users\RECEPC~1\AppData\Local\Temp\ccHIf77r.s 			page 88


 4162 0c24 D1150000 		.4byte	0x15d1
 4163 0c28 370C0000 		.4byte	0xc37
 4164 0c2c 0F       		.uleb128 0xf
 4165 0c2d 01       		.uleb128 0x1
 4166 0c2e 51       		.byte	0x51
 4167 0c2f 01       		.uleb128 0x1
 4168 0c30 37       		.byte	0x37
 4169 0c31 0F       		.uleb128 0xf
 4170 0c32 01       		.uleb128 0x1
 4171 0c33 50       		.byte	0x50
 4172 0c34 01       		.uleb128 0x1
 4173 0c35 31       		.byte	0x31
 4174 0c36 00       		.byte	0
 4175 0c37 11       		.uleb128 0x11
 4176 0c38 34020000 		.4byte	.LVL129
 4177 0c3c D1150000 		.4byte	0x15d1
 4178 0c40 500C0000 		.4byte	0xc50
 4179 0c44 0F       		.uleb128 0xf
 4180 0c45 01       		.uleb128 0x1
 4181 0c46 51       		.byte	0x51
 4182 0c47 02       		.uleb128 0x2
 4183 0c48 08       		.byte	0x8
 4184 0c49 2E       		.byte	0x2e
 4185 0c4a 0F       		.uleb128 0xf
 4186 0c4b 01       		.uleb128 0x1
 4187 0c4c 50       		.byte	0x50
 4188 0c4d 01       		.uleb128 0x1
 4189 0c4e 31       		.byte	0x31
 4190 0c4f 00       		.byte	0
 4191 0c50 11       		.uleb128 0x11
 4192 0c51 44020000 		.4byte	.LVL130
 4193 0c55 D1150000 		.4byte	0x15d1
 4194 0c59 690C0000 		.4byte	0xc69
 4195 0c5d 0F       		.uleb128 0xf
 4196 0c5e 01       		.uleb128 0x1
 4197 0c5f 51       		.byte	0x51
 4198 0c60 02       		.uleb128 0x2
 4199 0c61 08       		.byte	0x8
 4200 0c62 2E       		.byte	0x2e
 4201 0c63 0F       		.uleb128 0xf
 4202 0c64 01       		.uleb128 0x1
 4203 0c65 50       		.byte	0x50
 4204 0c66 01       		.uleb128 0x1
 4205 0c67 31       		.byte	0x31
 4206 0c68 00       		.byte	0
 4207 0c69 11       		.uleb128 0x11
 4208 0c6a 50020000 		.4byte	.LVL131
 4209 0c6e B5150000 		.4byte	0x15b5
 4210 0c72 7D0C0000 		.4byte	0xc7d
 4211 0c76 0F       		.uleb128 0xf
 4212 0c77 01       		.uleb128 0x1
 4213 0c78 50       		.byte	0x50
 4214 0c79 02       		.uleb128 0x2
 4215 0c7a 08       		.byte	0x8
 4216 0c7b 64       		.byte	0x64
 4217 0c7c 00       		.byte	0
 4218 0c7d 0D       		.uleb128 0xd
ARM GAS  C:\Users\RECEPC~1\AppData\Local\Temp\ccHIf77r.s 			page 89


 4219 0c7e 54020000 		.4byte	.LVL132
 4220 0c82 07160000 		.4byte	0x1607
 4221 0c86 0D       		.uleb128 0xd
 4222 0c87 5A020000 		.4byte	.LVL133
 4223 0c8b FC150000 		.4byte	0x15fc
 4224 0c8f 11       		.uleb128 0x11
 4225 0c90 8E020000 		.4byte	.LVL134
 4226 0c94 D1150000 		.4byte	0x15d1
 4227 0c98 A80C0000 		.4byte	0xca8
 4228 0c9c 0F       		.uleb128 0xf
 4229 0c9d 01       		.uleb128 0x1
 4230 0c9e 51       		.byte	0x51
 4231 0c9f 02       		.uleb128 0x2
 4232 0ca0 08       		.byte	0x8
 4233 0ca1 2E       		.byte	0x2e
 4234 0ca2 0F       		.uleb128 0xf
 4235 0ca3 01       		.uleb128 0x1
 4236 0ca4 50       		.byte	0x50
 4237 0ca5 01       		.uleb128 0x1
 4238 0ca6 31       		.byte	0x31
 4239 0ca7 00       		.byte	0
 4240 0ca8 11       		.uleb128 0x11
 4241 0ca9 9A020000 		.4byte	.LVL135
 4242 0cad B5150000 		.4byte	0x15b5
 4243 0cb1 BC0C0000 		.4byte	0xcbc
 4244 0cb5 0F       		.uleb128 0xf
 4245 0cb6 01       		.uleb128 0x1
 4246 0cb7 50       		.byte	0x50
 4247 0cb8 02       		.uleb128 0x2
 4248 0cb9 08       		.byte	0x8
 4249 0cba 64       		.byte	0x64
 4250 0cbb 00       		.byte	0
 4251 0cbc 0D       		.uleb128 0xd
 4252 0cbd 9E020000 		.4byte	.LVL136
 4253 0cc1 07160000 		.4byte	0x1607
 4254 0cc5 0D       		.uleb128 0xd
 4255 0cc6 C4020000 		.4byte	.LVL137
 4256 0cca E7150000 		.4byte	0x15e7
 4257 0cce 11       		.uleb128 0x11
 4258 0ccf D0020000 		.4byte	.LVL138
 4259 0cd3 B5150000 		.4byte	0x15b5
 4260 0cd7 E20C0000 		.4byte	0xce2
 4261 0cdb 0F       		.uleb128 0xf
 4262 0cdc 01       		.uleb128 0x1
 4263 0cdd 50       		.byte	0x50
 4264 0cde 02       		.uleb128 0x2
 4265 0cdf 08       		.byte	0x8
 4266 0ce0 32       		.byte	0x32
 4267 0ce1 00       		.byte	0
 4268 0ce2 11       		.uleb128 0x11
 4269 0ce3 E8020000 		.4byte	.LVL139
 4270 0ce7 29160000 		.4byte	0x1629
 4271 0ceb F90C0000 		.4byte	0xcf9
 4272 0cef 0F       		.uleb128 0xf
 4273 0cf0 01       		.uleb128 0x1
 4274 0cf1 52       		.byte	0x52
 4275 0cf2 05       		.uleb128 0x5
ARM GAS  C:\Users\RECEPC~1\AppData\Local\Temp\ccHIf77r.s 			page 90


 4276 0cf3 03       		.byte	0x3
 4277 0cf4 0B000000 		.4byte	Buffer_LCD1+11
 4278 0cf8 00       		.byte	0
 4279 0cf9 11       		.uleb128 0x11
 4280 0cfa F2020000 		.4byte	.LVL140
 4281 0cfe D1150000 		.4byte	0x15d1
 4282 0d02 120D0000 		.4byte	0xd12
 4283 0d06 0F       		.uleb128 0xf
 4284 0d07 01       		.uleb128 0x1
 4285 0d08 51       		.byte	0x51
 4286 0d09 02       		.uleb128 0x2
 4287 0d0a 08       		.byte	0x8
 4288 0d0b 2E       		.byte	0x2e
 4289 0d0c 0F       		.uleb128 0xf
 4290 0d0d 01       		.uleb128 0x1
 4291 0d0e 50       		.byte	0x50
 4292 0d0f 01       		.uleb128 0x1
 4293 0d10 31       		.byte	0x31
 4294 0d11 00       		.byte	0
 4295 0d12 0D       		.uleb128 0xd
 4296 0d13 02030000 		.4byte	.LVL141
 4297 0d17 53160000 		.4byte	0x1653
 4298 0d1b 0D       		.uleb128 0xd
 4299 0d1c 10030000 		.4byte	.LVL142
 4300 0d20 68160000 		.4byte	0x1668
 4301 0d24 11       		.uleb128 0x11
 4302 0d25 18030000 		.4byte	.LVL143
 4303 0d29 D1150000 		.4byte	0x15d1
 4304 0d2d 3C0D0000 		.4byte	0xd3c
 4305 0d31 0F       		.uleb128 0xf
 4306 0d32 01       		.uleb128 0x1
 4307 0d33 51       		.byte	0x51
 4308 0d34 01       		.uleb128 0x1
 4309 0d35 38       		.byte	0x38
 4310 0d36 0F       		.uleb128 0xf
 4311 0d37 01       		.uleb128 0x1
 4312 0d38 50       		.byte	0x50
 4313 0d39 01       		.uleb128 0x1
 4314 0d3a 31       		.byte	0x31
 4315 0d3b 00       		.byte	0
 4316 0d3c 11       		.uleb128 0x11
 4317 0d3d 26030000 		.4byte	.LVL144
 4318 0d41 B5150000 		.4byte	0x15b5
 4319 0d45 500D0000 		.4byte	0xd50
 4320 0d49 0F       		.uleb128 0xf
 4321 0d4a 01       		.uleb128 0x1
 4322 0d4b 50       		.byte	0x50
 4323 0d4c 02       		.uleb128 0x2
 4324 0d4d 08       		.byte	0x8
 4325 0d4e 32       		.byte	0x32
 4326 0d4f 00       		.byte	0
 4327 0d50 0D       		.uleb128 0xd
 4328 0d51 2E030000 		.4byte	.LVL145
 4329 0d55 E7150000 		.4byte	0x15e7
 4330 0d59 11       		.uleb128 0x11
 4331 0d5a 44030000 		.4byte	.LVL146
 4332 0d5e B5150000 		.4byte	0x15b5
ARM GAS  C:\Users\RECEPC~1\AppData\Local\Temp\ccHIf77r.s 			page 91


 4333 0d62 6D0D0000 		.4byte	0xd6d
 4334 0d66 0F       		.uleb128 0xf
 4335 0d67 01       		.uleb128 0x1
 4336 0d68 50       		.byte	0x50
 4337 0d69 02       		.uleb128 0x2
 4338 0d6a 08       		.byte	0x8
 4339 0d6b 64       		.byte	0x64
 4340 0d6c 00       		.byte	0
 4341 0d6d 0D       		.uleb128 0xd
 4342 0d6e 4C030000 		.4byte	.LVL147
 4343 0d72 79160000 		.4byte	0x1679
 4344 0d76 11       		.uleb128 0x11
 4345 0d77 5C030000 		.4byte	.LVL148
 4346 0d7b D1150000 		.4byte	0x15d1
 4347 0d7f 8A0D0000 		.4byte	0xd8a
 4348 0d83 0F       		.uleb128 0xf
 4349 0d84 01       		.uleb128 0x1
 4350 0d85 51       		.byte	0x51
 4351 0d86 02       		.uleb128 0x2
 4352 0d87 08       		.byte	0x8
 4353 0d88 39       		.byte	0x39
 4354 0d89 00       		.byte	0
 4355 0d8a 11       		.uleb128 0x11
 4356 0d8b 62030000 		.4byte	.LVL149
 4357 0d8f B5150000 		.4byte	0x15b5
 4358 0d93 9D0D0000 		.4byte	0xd9d
 4359 0d97 0F       		.uleb128 0xf
 4360 0d98 01       		.uleb128 0x1
 4361 0d99 50       		.byte	0x50
 4362 0d9a 01       		.uleb128 0x1
 4363 0d9b 44       		.byte	0x44
 4364 0d9c 00       		.byte	0
 4365 0d9d 0D       		.uleb128 0xd
 4366 0d9e 70030000 		.4byte	.LVL150
 4367 0da2 79160000 		.4byte	0x1679
 4368 0da6 11       		.uleb128 0x11
 4369 0da7 86030000 		.4byte	.LVL151
 4370 0dab D1150000 		.4byte	0x15d1
 4371 0daf B90D0000 		.4byte	0xdb9
 4372 0db3 0F       		.uleb128 0xf
 4373 0db4 01       		.uleb128 0x1
 4374 0db5 51       		.byte	0x51
 4375 0db6 01       		.uleb128 0x1
 4376 0db7 3C       		.byte	0x3c
 4377 0db8 00       		.byte	0
 4378 0db9 11       		.uleb128 0x11
 4379 0dba 8E030000 		.4byte	.LVL152
 4380 0dbe B5150000 		.4byte	0x15b5
 4381 0dc2 CE0D0000 		.4byte	0xdce
 4382 0dc6 0F       		.uleb128 0xf
 4383 0dc7 01       		.uleb128 0x1
 4384 0dc8 50       		.byte	0x50
 4385 0dc9 03       		.uleb128 0x3
 4386 0dca 0A       		.byte	0xa
 4387 0dcb F401     		.2byte	0x1f4
 4388 0dcd 00       		.byte	0
 4389 0dce 11       		.uleb128 0x11
ARM GAS  C:\Users\RECEPC~1\AppData\Local\Temp\ccHIf77r.s 			page 92


 4390 0dcf 96030000 		.4byte	.LVL153
 4391 0dd3 D1150000 		.4byte	0x15d1
 4392 0dd7 E70D0000 		.4byte	0xde7
 4393 0ddb 0F       		.uleb128 0xf
 4394 0ddc 01       		.uleb128 0x1
 4395 0ddd 51       		.byte	0x51
 4396 0dde 02       		.uleb128 0x2
 4397 0ddf 08       		.byte	0x8
 4398 0de0 2E       		.byte	0x2e
 4399 0de1 0F       		.uleb128 0xf
 4400 0de2 01       		.uleb128 0x1
 4401 0de3 50       		.byte	0x50
 4402 0de4 01       		.uleb128 0x1
 4403 0de5 31       		.byte	0x31
 4404 0de6 00       		.byte	0
 4405 0de7 11       		.uleb128 0x11
 4406 0de8 A4030000 		.4byte	.LVL154
 4407 0dec B5150000 		.4byte	0x15b5
 4408 0df0 FB0D0000 		.4byte	0xdfb
 4409 0df4 0F       		.uleb128 0xf
 4410 0df5 01       		.uleb128 0x1
 4411 0df6 50       		.byte	0x50
 4412 0df7 02       		.uleb128 0x2
 4413 0df8 08       		.byte	0x8
 4414 0df9 64       		.byte	0x64
 4415 0dfa 00       		.byte	0
 4416 0dfb 0D       		.uleb128 0xd
 4417 0dfc AC030000 		.4byte	.LVL155
 4418 0e00 79160000 		.4byte	0x1679
 4419 0e04 11       		.uleb128 0x11
 4420 0e05 BC030000 		.4byte	.LVL156
 4421 0e09 D1150000 		.4byte	0x15d1
 4422 0e0d 180E0000 		.4byte	0xe18
 4423 0e11 0F       		.uleb128 0xf
 4424 0e12 01       		.uleb128 0x1
 4425 0e13 51       		.byte	0x51
 4426 0e14 02       		.uleb128 0x2
 4427 0e15 08       		.byte	0x8
 4428 0e16 39       		.byte	0x39
 4429 0e17 00       		.byte	0
 4430 0e18 11       		.uleb128 0x11
 4431 0e19 C2030000 		.4byte	.LVL157
 4432 0e1d B5150000 		.4byte	0x15b5
 4433 0e21 2B0E0000 		.4byte	0xe2b
 4434 0e25 0F       		.uleb128 0xf
 4435 0e26 01       		.uleb128 0x1
 4436 0e27 50       		.byte	0x50
 4437 0e28 01       		.uleb128 0x1
 4438 0e29 44       		.byte	0x44
 4439 0e2a 00       		.byte	0
 4440 0e2b 0D       		.uleb128 0xd
 4441 0e2c D0030000 		.4byte	.LVL158
 4442 0e30 79160000 		.4byte	0x1679
 4443 0e34 11       		.uleb128 0x11
 4444 0e35 E6030000 		.4byte	.LVL159
 4445 0e39 D1150000 		.4byte	0x15d1
 4446 0e3d 470E0000 		.4byte	0xe47
ARM GAS  C:\Users\RECEPC~1\AppData\Local\Temp\ccHIf77r.s 			page 93


 4447 0e41 0F       		.uleb128 0xf
 4448 0e42 01       		.uleb128 0x1
 4449 0e43 51       		.byte	0x51
 4450 0e44 01       		.uleb128 0x1
 4451 0e45 3C       		.byte	0x3c
 4452 0e46 00       		.byte	0
 4453 0e47 11       		.uleb128 0x11
 4454 0e48 EE030000 		.4byte	.LVL160
 4455 0e4c B5150000 		.4byte	0x15b5
 4456 0e50 5C0E0000 		.4byte	0xe5c
 4457 0e54 0F       		.uleb128 0xf
 4458 0e55 01       		.uleb128 0x1
 4459 0e56 50       		.byte	0x50
 4460 0e57 03       		.uleb128 0x3
 4461 0e58 0A       		.byte	0xa
 4462 0e59 F401     		.2byte	0x1f4
 4463 0e5b 00       		.byte	0
 4464 0e5c 11       		.uleb128 0x11
 4465 0e5d F6030000 		.4byte	.LVL161
 4466 0e61 D1150000 		.4byte	0x15d1
 4467 0e65 750E0000 		.4byte	0xe75
 4468 0e69 0F       		.uleb128 0xf
 4469 0e6a 01       		.uleb128 0x1
 4470 0e6b 51       		.byte	0x51
 4471 0e6c 02       		.uleb128 0x2
 4472 0e6d 08       		.byte	0x8
 4473 0e6e 2E       		.byte	0x2e
 4474 0e6f 0F       		.uleb128 0xf
 4475 0e70 01       		.uleb128 0x1
 4476 0e71 50       		.byte	0x50
 4477 0e72 01       		.uleb128 0x1
 4478 0e73 31       		.byte	0x31
 4479 0e74 00       		.byte	0
 4480 0e75 11       		.uleb128 0x11
 4481 0e76 06040000 		.4byte	.LVL162
 4482 0e7a D1150000 		.4byte	0x15d1
 4483 0e7e 8E0E0000 		.4byte	0xe8e
 4484 0e82 0F       		.uleb128 0xf
 4485 0e83 01       		.uleb128 0x1
 4486 0e84 51       		.byte	0x51
 4487 0e85 02       		.uleb128 0x2
 4488 0e86 08       		.byte	0x8
 4489 0e87 2E       		.byte	0x2e
 4490 0e88 0F       		.uleb128 0xf
 4491 0e89 01       		.uleb128 0x1
 4492 0e8a 50       		.byte	0x50
 4493 0e8b 01       		.uleb128 0x1
 4494 0e8c 31       		.byte	0x31
 4495 0e8d 00       		.byte	0
 4496 0e8e 0D       		.uleb128 0xd
 4497 0e8f 12040000 		.4byte	.LVL163
 4498 0e93 FC150000 		.4byte	0x15fc
 4499 0e97 11       		.uleb128 0x11
 4500 0e98 70040000 		.4byte	.LVL164
 4501 0e9c 0E160000 		.4byte	0x160e
 4502 0ea0 AA0E0000 		.4byte	0xeaa
 4503 0ea4 0F       		.uleb128 0xf
ARM GAS  C:\Users\RECEPC~1\AppData\Local\Temp\ccHIf77r.s 			page 94


 4504 0ea5 01       		.uleb128 0x1
 4505 0ea6 50       		.byte	0x50
 4506 0ea7 01       		.uleb128 0x1
 4507 0ea8 31       		.byte	0x31
 4508 0ea9 00       		.byte	0
 4509 0eaa 11       		.uleb128 0x11
 4510 0eab 94040000 		.4byte	.LVL165
 4511 0eaf 0E160000 		.4byte	0x160e
 4512 0eb3 C30E0000 		.4byte	0xec3
 4513 0eb7 0F       		.uleb128 0xf
 4514 0eb8 01       		.uleb128 0x1
 4515 0eb9 51       		.byte	0x51
 4516 0eba 02       		.uleb128 0x2
 4517 0ebb 08       		.byte	0x8
 4518 0ebc 30       		.byte	0x30
 4519 0ebd 0F       		.uleb128 0xf
 4520 0ebe 01       		.uleb128 0x1
 4521 0ebf 50       		.byte	0x50
 4522 0ec0 01       		.uleb128 0x1
 4523 0ec1 31       		.byte	0x31
 4524 0ec2 00       		.byte	0
 4525 0ec3 11       		.uleb128 0x11
 4526 0ec4 B8040000 		.4byte	.LVL166
 4527 0ec8 0E160000 		.4byte	0x160e
 4528 0ecc DC0E0000 		.4byte	0xedc
 4529 0ed0 0F       		.uleb128 0xf
 4530 0ed1 01       		.uleb128 0x1
 4531 0ed2 51       		.byte	0x51
 4532 0ed3 02       		.uleb128 0x2
 4533 0ed4 08       		.byte	0x8
 4534 0ed5 2D       		.byte	0x2d
 4535 0ed6 0F       		.uleb128 0xf
 4536 0ed7 01       		.uleb128 0x1
 4537 0ed8 50       		.byte	0x50
 4538 0ed9 01       		.uleb128 0x1
 4539 0eda 31       		.byte	0x31
 4540 0edb 00       		.byte	0
 4541 0edc 11       		.uleb128 0x11
 4542 0edd FE040000 		.4byte	.LVL167
 4543 0ee1 0E160000 		.4byte	0x160e
 4544 0ee5 EF0E0000 		.4byte	0xeef
 4545 0ee9 0F       		.uleb128 0xf
 4546 0eea 01       		.uleb128 0x1
 4547 0eeb 50       		.byte	0x50
 4548 0eec 01       		.uleb128 0x1
 4549 0eed 31       		.byte	0x31
 4550 0eee 00       		.byte	0
 4551 0eef 11       		.uleb128 0x11
 4552 0ef0 26050000 		.4byte	.LVL168
 4553 0ef4 D1150000 		.4byte	0x15d1
 4554 0ef8 080F0000 		.4byte	0xf08
 4555 0efc 0F       		.uleb128 0xf
 4556 0efd 01       		.uleb128 0x1
 4557 0efe 51       		.byte	0x51
 4558 0eff 02       		.uleb128 0x2
 4559 0f00 08       		.byte	0x8
 4560 0f01 2E       		.byte	0x2e
ARM GAS  C:\Users\RECEPC~1\AppData\Local\Temp\ccHIf77r.s 			page 95


 4561 0f02 0F       		.uleb128 0xf
 4562 0f03 01       		.uleb128 0x1
 4563 0f04 50       		.byte	0x50
 4564 0f05 01       		.uleb128 0x1
 4565 0f06 31       		.byte	0x31
 4566 0f07 00       		.byte	0
 4567 0f08 11       		.uleb128 0x11
 4568 0f09 3C050000 		.4byte	.LVL169
 4569 0f0d 0E160000 		.4byte	0x160e
 4570 0f11 210F0000 		.4byte	0xf21
 4571 0f15 0F       		.uleb128 0xf
 4572 0f16 01       		.uleb128 0x1
 4573 0f17 51       		.byte	0x51
 4574 0f18 02       		.uleb128 0x2
 4575 0f19 08       		.byte	0x8
 4576 0f1a 20       		.byte	0x20
 4577 0f1b 0F       		.uleb128 0xf
 4578 0f1c 01       		.uleb128 0x1
 4579 0f1d 50       		.byte	0x50
 4580 0f1e 01       		.uleb128 0x1
 4581 0f1f 31       		.byte	0x31
 4582 0f20 00       		.byte	0
 4583 0f21 11       		.uleb128 0x11
 4584 0f22 5C050000 		.4byte	.LVL170
 4585 0f26 D1150000 		.4byte	0x15d1
 4586 0f2a 390F0000 		.4byte	0xf39
 4587 0f2e 0F       		.uleb128 0xf
 4588 0f2f 01       		.uleb128 0x1
 4589 0f30 51       		.byte	0x51
 4590 0f31 01       		.uleb128 0x1
 4591 0f32 35       		.byte	0x35
 4592 0f33 0F       		.uleb128 0xf
 4593 0f34 01       		.uleb128 0x1
 4594 0f35 50       		.byte	0x50
 4595 0f36 01       		.uleb128 0x1
 4596 0f37 31       		.byte	0x31
 4597 0f38 00       		.byte	0
 4598 0f39 11       		.uleb128 0x11
 4599 0f3a 72050000 		.4byte	.LVL171
 4600 0f3e B5150000 		.4byte	0x15b5
 4601 0f42 4D0F0000 		.4byte	0xf4d
 4602 0f46 0F       		.uleb128 0xf
 4603 0f47 01       		.uleb128 0x1
 4604 0f48 50       		.byte	0x50
 4605 0f49 02       		.uleb128 0x2
 4606 0f4a 08       		.byte	0x8
 4607 0f4b 64       		.byte	0x64
 4608 0f4c 00       		.byte	0
 4609 0f4d 0D       		.uleb128 0xd
 4610 0f4e 76050000 		.4byte	.LVL172
 4611 0f52 07160000 		.4byte	0x1607
 4612 0f56 0D       		.uleb128 0xd
 4613 0f57 A8050000 		.4byte	.LVL173
 4614 0f5b FC150000 		.4byte	0x15fc
 4615 0f5f 11       		.uleb128 0x11
 4616 0f60 E6050000 		.4byte	.LVL174
 4617 0f64 D1150000 		.4byte	0x15d1
ARM GAS  C:\Users\RECEPC~1\AppData\Local\Temp\ccHIf77r.s 			page 96


 4618 0f68 770F0000 		.4byte	0xf77
 4619 0f6c 0F       		.uleb128 0xf
 4620 0f6d 01       		.uleb128 0x1
 4621 0f6e 51       		.byte	0x51
 4622 0f6f 01       		.uleb128 0x1
 4623 0f70 3A       		.byte	0x3a
 4624 0f71 0F       		.uleb128 0xf
 4625 0f72 01       		.uleb128 0x1
 4626 0f73 50       		.byte	0x50
 4627 0f74 01       		.uleb128 0x1
 4628 0f75 31       		.byte	0x31
 4629 0f76 00       		.byte	0
 4630 0f77 11       		.uleb128 0x11
 4631 0f78 00060000 		.4byte	.LVL175
 4632 0f7c D1150000 		.4byte	0x15d1
 4633 0f80 8F0F0000 		.4byte	0xf8f
 4634 0f84 0F       		.uleb128 0xf
 4635 0f85 01       		.uleb128 0x1
 4636 0f86 51       		.byte	0x51
 4637 0f87 01       		.uleb128 0x1
 4638 0f88 35       		.byte	0x35
 4639 0f89 0F       		.uleb128 0xf
 4640 0f8a 01       		.uleb128 0x1
 4641 0f8b 50       		.byte	0x50
 4642 0f8c 01       		.uleb128 0x1
 4643 0f8d 31       		.byte	0x31
 4644 0f8e 00       		.byte	0
 4645 0f8f 11       		.uleb128 0x11
 4646 0f90 16060000 		.4byte	.LVL176
 4647 0f94 D1150000 		.4byte	0x15d1
 4648 0f98 A80F0000 		.4byte	0xfa8
 4649 0f9c 0F       		.uleb128 0xf
 4650 0f9d 01       		.uleb128 0x1
 4651 0f9e 51       		.byte	0x51
 4652 0f9f 02       		.uleb128 0x2
 4653 0fa0 08       		.byte	0x8
 4654 0fa1 2E       		.byte	0x2e
 4655 0fa2 0F       		.uleb128 0xf
 4656 0fa3 01       		.uleb128 0x1
 4657 0fa4 50       		.byte	0x50
 4658 0fa5 01       		.uleb128 0x1
 4659 0fa6 31       		.byte	0x31
 4660 0fa7 00       		.byte	0
 4661 0fa8 11       		.uleb128 0x11
 4662 0fa9 22060000 		.4byte	.LVL177
 4663 0fad B5150000 		.4byte	0x15b5
 4664 0fb1 BC0F0000 		.4byte	0xfbc
 4665 0fb5 0F       		.uleb128 0xf
 4666 0fb6 01       		.uleb128 0x1
 4667 0fb7 50       		.byte	0x50
 4668 0fb8 02       		.uleb128 0x2
 4669 0fb9 08       		.byte	0x8
 4670 0fba 64       		.byte	0x64
 4671 0fbb 00       		.byte	0
 4672 0fbc 0D       		.uleb128 0xd
 4673 0fbd 26060000 		.4byte	.LVL178
 4674 0fc1 07160000 		.4byte	0x1607
ARM GAS  C:\Users\RECEPC~1\AppData\Local\Temp\ccHIf77r.s 			page 97


 4675 0fc5 00       		.byte	0
 4676 0fc6 13       		.uleb128 0x13
 4677 0fc7 A1050000 		.4byte	.LASF52
 4678 0fcb 01       		.byte	0x1
 4679 0fcc FC02     		.2byte	0x2fc
 4680 0fce 68000000 		.4byte	0x68
 4681 0fd2 00000000 		.4byte	.LFB68
 4682 0fd6 3C000000 		.4byte	.LFE68-.LFB68
 4683 0fda 01       		.uleb128 0x1
 4684 0fdb 9C       		.byte	0x9c
 4685 0fdc 0E100000 		.4byte	0x100e
 4686 0fe0 0D       		.uleb128 0xd
 4687 0fe1 06000000 		.4byte	.LVL179
 4688 0fe5 1A030000 		.4byte	0x31a
 4689 0fe9 0D       		.uleb128 0xd
 4690 0fea 0A000000 		.4byte	.LVL180
 4691 0fee 6C030000 		.4byte	0x36c
 4692 0ff2 0D       		.uleb128 0xd
 4693 0ff3 0E000000 		.4byte	.LVL181
 4694 0ff7 B7040000 		.4byte	0x4b7
 4695 0ffb 0D       		.uleb128 0xd
 4696 0ffc 2A000000 		.4byte	.LVL182
 4697 1000 25050000 		.4byte	0x525
 4698 1004 0D       		.uleb128 0xd
 4699 1005 30000000 		.4byte	.LVL183
 4700 1009 750A0000 		.4byte	0xa75
 4701 100d 00       		.byte	0
 4702 100e 14       		.uleb128 0x14
 4703 100f 1C000000 		.4byte	.LASF53
 4704 1013 06       		.byte	0x6
 4705 1014 5201     		.2byte	0x152
 4706 1016 1A100000 		.4byte	0x101a
 4707 101a 15       		.uleb128 0x15
 4708 101b EA020000 		.4byte	0x2ea
 4709 101f 14       		.uleb128 0x14
 4710 1020 E1030000 		.4byte	.LASF54
 4711 1024 07       		.byte	0x7
 4712 1025 5506     		.2byte	0x655
 4713 1027 2B100000 		.4byte	0x102b
 4714 102b 15       		.uleb128 0x15
 4715 102c 76000000 		.4byte	0x76
 4716 1030 16       		.uleb128 0x16
 4717 1031 A2030000 		.4byte	.LASF55
 4718 1035 05       		.byte	0x5
 4719 1036 2F       		.byte	0x2f
 4720 1037 81000000 		.4byte	0x81
 4721 103b 05       		.uleb128 0x5
 4722 103c 03       		.byte	0x3
 4723 103d 00000000 		.4byte	flujo_LCD
 4724 1041 16       		.uleb128 0x16
 4725 1042 09000000 		.4byte	.LASF56
 4726 1046 05       		.byte	0x5
 4727 1047 2F       		.byte	0x2f
 4728 1048 81000000 		.4byte	0x81
 4729 104c 05       		.uleb128 0x5
 4730 104d 03       		.byte	0x3
 4731 104e 00000000 		.4byte	flujo_LCD2
ARM GAS  C:\Users\RECEPC~1\AppData\Local\Temp\ccHIf77r.s 			page 98


 4732 1052 16       		.uleb128 0x16
 4733 1053 49040000 		.4byte	.LASF57
 4734 1057 05       		.byte	0x5
 4735 1058 60       		.byte	0x60
 4736 1059 81000000 		.4byte	0x81
 4737 105d 05       		.uleb128 0x5
 4738 105e 03       		.byte	0x3
 4739 105f 00000000 		.4byte	cont1
 4740 1063 16       		.uleb128 0x16
 4741 1064 04010000 		.4byte	.LASF58
 4742 1068 05       		.byte	0x5
 4743 1069 60       		.byte	0x60
 4744 106a 81000000 		.4byte	0x81
 4745 106e 05       		.uleb128 0x5
 4746 106f 03       		.byte	0x3
 4747 1070 00000000 		.4byte	teclas1
 4748 1074 16       		.uleb128 0x16
 4749 1075 0C010000 		.4byte	.LASF59
 4750 1079 05       		.byte	0x5
 4751 107a 60       		.byte	0x60
 4752 107b 81000000 		.4byte	0x81
 4753 107f 05       		.uleb128 0x5
 4754 1080 03       		.byte	0x3
 4755 1081 00000000 		.4byte	teclas2
 4756 1085 16       		.uleb128 0x16
 4757 1086 EE030000 		.4byte	.LASF60
 4758 108a 05       		.byte	0x5
 4759 108b 60       		.byte	0x60
 4760 108c 81000000 		.4byte	0x81
 4761 1090 05       		.uleb128 0x5
 4762 1091 03       		.byte	0x3
 4763 1092 00000000 		.4byte	comas1
 4764 1096 16       		.uleb128 0x16
 4765 1097 F5030000 		.4byte	.LASF61
 4766 109b 05       		.byte	0x5
 4767 109c 60       		.byte	0x60
 4768 109d 81000000 		.4byte	0x81
 4769 10a1 05       		.uleb128 0x5
 4770 10a2 03       		.byte	0x3
 4771 10a3 00000000 		.4byte	comas2
 4772 10a7 16       		.uleb128 0x16
 4773 10a8 2B000000 		.4byte	.LASF62
 4774 10ac 05       		.byte	0x5
 4775 10ad 61       		.byte	0x61
 4776 10ae 81000000 		.4byte	0x81
 4777 10b2 05       		.uleb128 0x5
 4778 10b3 03       		.byte	0x3
 4779 10b4 00000000 		.4byte	versurt
 4780 10b8 16       		.uleb128 0x16
 4781 10b9 07040000 		.4byte	.LASF63
 4782 10bd 05       		.byte	0x5
 4783 10be 62       		.byte	0x62
 4784 10bf 81000000 		.4byte	0x81
 4785 10c3 05       		.uleb128 0x5
 4786 10c4 03       		.byte	0x3
 4787 10c5 00000000 		.4byte	producto1
 4788 10c9 16       		.uleb128 0x16
ARM GAS  C:\Users\RECEPC~1\AppData\Local\Temp\ccHIf77r.s 			page 99


 4789 10ca 11040000 		.4byte	.LASF64
 4790 10ce 05       		.byte	0x5
 4791 10cf 62       		.byte	0x62
 4792 10d0 81000000 		.4byte	0x81
 4793 10d4 05       		.uleb128 0x5
 4794 10d5 03       		.byte	0x3
 4795 10d6 00000000 		.4byte	producto2
 4796 10da 16       		.uleb128 0x16
 4797 10db 1B040000 		.4byte	.LASF65
 4798 10df 05       		.byte	0x5
 4799 10e0 62       		.byte	0x62
 4800 10e1 81000000 		.4byte	0x81
 4801 10e5 05       		.uleb128 0x5
 4802 10e6 03       		.byte	0x3
 4803 10e7 00000000 		.4byte	producto3
 4804 10eb 16       		.uleb128 0x16
 4805 10ec 25040000 		.4byte	.LASF66
 4806 10f0 05       		.byte	0x5
 4807 10f1 62       		.byte	0x62
 4808 10f2 81000000 		.4byte	0x81
 4809 10f6 05       		.uleb128 0x5
 4810 10f7 03       		.byte	0x3
 4811 10f8 00000000 		.4byte	producto4
 4812 10fc 16       		.uleb128 0x16
 4813 10fd AD000000 		.4byte	.LASF67
 4814 1101 05       		.byte	0x5
 4815 1102 62       		.byte	0x62
 4816 1103 81000000 		.4byte	0x81
 4817 1107 05       		.uleb128 0x5
 4818 1108 03       		.byte	0x3
 4819 1109 00000000 		.4byte	producto1b
 4820 110d 16       		.uleb128 0x16
 4821 110e 84010000 		.4byte	.LASF68
 4822 1112 05       		.byte	0x5
 4823 1113 62       		.byte	0x62
 4824 1114 81000000 		.4byte	0x81
 4825 1118 05       		.uleb128 0x5
 4826 1119 03       		.byte	0x3
 4827 111a 00000000 		.4byte	producto2b
 4828 111e 16       		.uleb128 0x16
 4829 111f FB010000 		.4byte	.LASF69
 4830 1123 05       		.byte	0x5
 4831 1124 62       		.byte	0x62
 4832 1125 81000000 		.4byte	0x81
 4833 1129 05       		.uleb128 0x5
 4834 112a 03       		.byte	0x3
 4835 112b 00000000 		.4byte	producto3b
 4836 112f 16       		.uleb128 0x16
 4837 1130 7E020000 		.4byte	.LASF70
 4838 1134 05       		.byte	0x5
 4839 1135 62       		.byte	0x62
 4840 1136 81000000 		.4byte	0x81
 4841 113a 05       		.uleb128 0x5
 4842 113b 03       		.byte	0x3
 4843 113c 00000000 		.4byte	producto4b
 4844 1140 09       		.uleb128 0x9
 4845 1141 81000000 		.4byte	0x81
ARM GAS  C:\Users\RECEPC~1\AppData\Local\Temp\ccHIf77r.s 			page 100


 4846 1145 50110000 		.4byte	0x1150
 4847 1149 0A       		.uleb128 0xa
 4848 114a BA000000 		.4byte	0xba
 4849 114e 3F       		.byte	0x3f
 4850 114f 00       		.byte	0
 4851 1150 16       		.uleb128 0x16
 4852 1151 B2010000 		.4byte	.LASF71
 4853 1155 05       		.byte	0x5
 4854 1156 63       		.byte	0x63
 4855 1157 40110000 		.4byte	0x1140
 4856 115b 05       		.uleb128 0x5
 4857 115c 03       		.byte	0x3
 4858 115d 00000000 		.4byte	buffer_i2c
 4859 1161 09       		.uleb128 0x9
 4860 1162 81000000 		.4byte	0x81
 4861 1166 71110000 		.4byte	0x1171
 4862 116a 0A       		.uleb128 0xa
 4863 116b BA000000 		.4byte	0xba
 4864 116f 0D       		.byte	0xd
 4865 1170 00       		.byte	0
 4866 1171 16       		.uleb128 0x16
 4867 1172 6C050000 		.4byte	.LASF72
 4868 1176 05       		.byte	0x5
 4869 1177 64       		.byte	0x64
 4870 1178 61110000 		.4byte	0x1161
 4871 117c 05       		.uleb128 0x5
 4872 117d 03       		.byte	0x3
 4873 117e 00000000 		.4byte	resultado
 4874 1182 16       		.uleb128 0x16
 4875 1183 E0010000 		.4byte	.LASF73
 4876 1187 05       		.byte	0x5
 4877 1188 65       		.byte	0x65
 4878 1189 81000000 		.4byte	0x81
 4879 118d 05       		.uleb128 0x5
 4880 118e 03       		.byte	0x3
 4881 118f 00000000 		.4byte	teclado
 4882 1193 16       		.uleb128 0x16
 4883 1194 82000000 		.4byte	.LASF74
 4884 1198 05       		.byte	0x5
 4885 1199 65       		.byte	0x65
 4886 119a 81000000 		.4byte	0x81
 4887 119e 05       		.uleb128 0x5
 4888 119f 03       		.byte	0x3
 4889 11a0 00000000 		.4byte	teclado2
 4890 11a4 16       		.uleb128 0x16
 4891 11a5 8A030000 		.4byte	.LASF75
 4892 11a9 05       		.byte	0x5
 4893 11aa 66       		.byte	0x66
 4894 11ab 81000000 		.4byte	0x81
 4895 11af 05       		.uleb128 0x5
 4896 11b0 03       		.byte	0x3
 4897 11b1 00000000 		.4byte	ppux10
 4898 11b5 16       		.uleb128 0x16
 4899 11b6 79040000 		.4byte	.LASF76
 4900 11ba 05       		.byte	0x5
 4901 11bb 67       		.byte	0x67
 4902 11bc DA020000 		.4byte	0x2da
ARM GAS  C:\Users\RECEPC~1\AppData\Local\Temp\ccHIf77r.s 			page 101


 4903 11c0 05       		.uleb128 0x5
 4904 11c1 03       		.byte	0x3
 4905 11c2 00000000 		.4byte	bandera
 4906 11c6 16       		.uleb128 0x16
 4907 11c7 CD050000 		.4byte	.LASF77
 4908 11cb 05       		.byte	0x5
 4909 11cc 68       		.byte	0x68
 4910 11cd DA020000 		.4byte	0x2da
 4911 11d1 05       		.uleb128 0x5
 4912 11d2 03       		.byte	0x3
 4913 11d3 00000000 		.4byte	tipo_imp
 4914 11d7 16       		.uleb128 0x16
 4915 11d8 B7050000 		.4byte	.LASF78
 4916 11dc 05       		.byte	0x5
 4917 11dd 69       		.byte	0x69
 4918 11de 81000000 		.4byte	0x81
 4919 11e2 05       		.uleb128 0x5
 4920 11e3 03       		.byte	0x3
 4921 11e4 00000000 		.4byte	decimalV
 4922 11e8 16       		.uleb128 0x16
 4923 11e9 71010000 		.4byte	.LASF79
 4924 11ed 05       		.byte	0x5
 4925 11ee 6A       		.byte	0x6a
 4926 11ef 81000000 		.4byte	0x81
 4927 11f3 05       		.uleb128 0x5
 4928 11f4 03       		.byte	0x3
 4929 11f5 00000000 		.4byte	decimalD
 4930 11f9 09       		.uleb128 0x9
 4931 11fa 81000000 		.4byte	0x81
 4932 11fe 09120000 		.4byte	0x1209
 4933 1202 0A       		.uleb128 0xa
 4934 1203 BA000000 		.4byte	0xba
 4935 1207 05       		.byte	0x5
 4936 1208 00       		.byte	0
 4937 1209 16       		.uleb128 0x16
 4938 120a B1020000 		.4byte	.LASF80
 4939 120e 05       		.byte	0x5
 4940 120f 6B       		.byte	0x6b
 4941 1210 F9110000 		.4byte	0x11f9
 4942 1214 05       		.uleb128 0x5
 4943 1215 03       		.byte	0x3
 4944 1216 00000000 		.4byte	fecha_corte
 4945 121a 16       		.uleb128 0x16
 4946 121b B5030000 		.4byte	.LASF81
 4947 121f 05       		.byte	0x5
 4948 1220 6C       		.byte	0x6c
 4949 1221 81000000 		.4byte	0x81
 4950 1225 05       		.uleb128 0x5
 4951 1226 03       		.byte	0x3
 4952 1227 00000000 		.4byte	pos_ibutton
 4953 122b 16       		.uleb128 0x16
 4954 122c 98030000 		.4byte	.LASF82
 4955 1230 05       		.byte	0x5
 4956 1231 6D       		.byte	0x6d
 4957 1232 81000000 		.4byte	0x81
 4958 1236 05       		.uleb128 0x5
 4959 1237 03       		.byte	0x3
ARM GAS  C:\Users\RECEPC~1\AppData\Local\Temp\ccHIf77r.s 			page 102


 4960 1238 00000000 		.4byte	crc_total
 4961 123c 16       		.uleb128 0x16
 4962 123d D1020000 		.4byte	.LASF83
 4963 1241 05       		.byte	0x5
 4964 1242 6E       		.byte	0x6e
 4965 1243 DA020000 		.4byte	0x2da
 4966 1247 05       		.uleb128 0x5
 4967 1248 03       		.byte	0x3
 4968 1249 00000000 		.4byte	print1
 4969 124d 16       		.uleb128 0x16
 4970 124e D8020000 		.4byte	.LASF84
 4971 1252 05       		.byte	0x5
 4972 1253 6E       		.byte	0x6e
 4973 1254 DA020000 		.4byte	0x2da
 4974 1258 05       		.uleb128 0x5
 4975 1259 03       		.byte	0x3
 4976 125a 00000000 		.4byte	print2
 4977 125e 16       		.uleb128 0x16
 4978 125f D4030000 		.4byte	.LASF85
 4979 1263 05       		.byte	0x5
 4980 1264 6F       		.byte	0x6f
 4981 1265 DA020000 		.4byte	0x2da
 4982 1269 05       		.uleb128 0x5
 4983 126a 03       		.byte	0x3
 4984 126b 00000000 		.4byte	copia_recibo
 4985 126f 16       		.uleb128 0x16
 4986 1270 5C000000 		.4byte	.LASF86
 4987 1274 05       		.byte	0x5
 4988 1275 70       		.byte	0x70
 4989 1276 DA020000 		.4byte	0x2da
 4990 127a 05       		.uleb128 0x5
 4991 127b 03       		.byte	0x3
 4992 127c 00000000 		.4byte	copia_recibo2
 4993 1280 16       		.uleb128 0x16
 4994 1281 89020000 		.4byte	.LASF87
 4995 1285 05       		.byte	0x5
 4996 1286 71       		.byte	0x71
 4997 1287 F9110000 		.4byte	0x11f9
 4998 128b 05       		.uleb128 0x5
 4999 128c 03       		.byte	0x3
 5000 128d 00000000 		.4byte	id_venta
 5001 1291 16       		.uleb128 0x16
 5002 1292 25030000 		.4byte	.LASF88
 5003 1296 05       		.byte	0x5
 5004 1297 72       		.byte	0x72
 5005 1298 81000000 		.4byte	0x81
 5006 129c 05       		.uleb128 0x5
 5007 129d 03       		.byte	0x3
 5008 129e 00000000 		.4byte	nombreproducto
 5009 12a2 09       		.uleb128 0x9
 5010 12a3 81000000 		.4byte	0x81
 5011 12a7 B2120000 		.4byte	0x12b2
 5012 12ab 0A       		.uleb128 0xa
 5013 12ac BA000000 		.4byte	0xba
 5014 12b0 0A       		.byte	0xa
 5015 12b1 00       		.byte	0
 5016 12b2 16       		.uleb128 0x16
ARM GAS  C:\Users\RECEPC~1\AppData\Local\Temp\ccHIf77r.s 			page 103


 5017 12b3 D4000000 		.4byte	.LASF89
 5018 12b7 05       		.byte	0x5
 5019 12b8 73       		.byte	0x73
 5020 12b9 A2120000 		.4byte	0x12a2
 5021 12bd 05       		.uleb128 0x5
 5022 12be 03       		.byte	0x3
 5023 12bf 00000000 		.4byte	producto1n
 5024 12c3 16       		.uleb128 0x16
 5025 12c4 96010000 		.4byte	.LASF90
 5026 12c8 05       		.byte	0x5
 5027 12c9 74       		.byte	0x74
 5028 12ca A2120000 		.4byte	0x12a2
 5029 12ce 05       		.uleb128 0x5
 5030 12cf 03       		.byte	0x3
 5031 12d0 00000000 		.4byte	producto2n
 5032 12d4 16       		.uleb128 0x16
 5033 12d5 14020000 		.4byte	.LASF91
 5034 12d9 05       		.byte	0x5
 5035 12da 75       		.byte	0x75
 5036 12db A2120000 		.4byte	0x12a2
 5037 12df 05       		.uleb128 0x5
 5038 12e0 03       		.byte	0x3
 5039 12e1 00000000 		.4byte	producto3n
 5040 12e5 16       		.uleb128 0x16
 5041 12e6 A1010000 		.4byte	.LASF92
 5042 12ea 05       		.byte	0x5
 5043 12eb 76       		.byte	0x76
 5044 12ec A2120000 		.4byte	0x12a2
 5045 12f0 05       		.uleb128 0x5
 5046 12f1 03       		.byte	0x3
 5047 12f2 00000000 		.4byte	producto4n
 5048 12f6 16       		.uleb128 0x16
 5049 12f7 AC030000 		.4byte	.LASF93
 5050 12fb 05       		.byte	0x5
 5051 12fc 77       		.byte	0x77
 5052 12fd 81000000 		.4byte	0x81
 5053 1301 05       		.uleb128 0x5
 5054 1302 03       		.byte	0x3
 5055 1303 00000000 		.4byte	a_copias
 5056 1307 09       		.uleb128 0x9
 5057 1308 81000000 		.4byte	0x81
 5058 130c 17130000 		.4byte	0x1317
 5059 1310 0A       		.uleb128 0xa
 5060 1311 BA000000 		.4byte	0xba
 5061 1315 00       		.byte	0
 5062 1316 00       		.byte	0
 5063 1317 16       		.uleb128 0x16
 5064 1318 4D020000 		.4byte	.LASF94
 5065 131c 05       		.byte	0x5
 5066 131d 78       		.byte	0x78
 5067 131e 07130000 		.4byte	0x1307
 5068 1322 05       		.uleb128 0x5
 5069 1323 03       		.byte	0x3
 5070 1324 00000000 		.4byte	n_copias
 5071 1328 16       		.uleb128 0x16
 5072 1329 B6040000 		.4byte	.LASF95
 5073 132d 05       		.byte	0x5
ARM GAS  C:\Users\RECEPC~1\AppData\Local\Temp\ccHIf77r.s 			page 104


 5074 132e 79       		.byte	0x79
 5075 132f 81000000 		.4byte	0x81
 5076 1333 05       		.uleb128 0x5
 5077 1334 03       		.byte	0x3
 5078 1335 00000000 		.4byte	no_imprime
 5079 1339 16       		.uleb128 0x16
 5080 133a AA040000 		.4byte	.LASF96
 5081 133e 05       		.byte	0x5
 5082 133f 7A       		.byte	0x7a
 5083 1340 81000000 		.4byte	0x81
 5084 1344 05       		.uleb128 0x5
 5085 1345 03       		.byte	0x3
 5086 1346 00000000 		.4byte	no_imprime2
 5087 134a 16       		.uleb128 0x16
 5088 134b 83030000 		.4byte	.LASF97
 5089 134f 05       		.byte	0x5
 5090 1350 7B       		.byte	0x7b
 5091 1351 81000000 		.4byte	0x81
 5092 1355 05       		.uleb128 0x5
 5093 1356 03       		.byte	0x3
 5094 1357 00000000 		.4byte	imagen
 5095 135b 16       		.uleb128 0x16
 5096 135c E7000000 		.4byte	.LASF98
 5097 1360 05       		.byte	0x5
 5098 1361 7C       		.byte	0x7c
 5099 1362 81000000 		.4byte	0x81
 5100 1366 05       		.uleb128 0x5
 5101 1367 03       		.byte	0x3
 5102 1368 00000000 		.4byte	estado_lcd1
 5103 136c 16       		.uleb128 0x16
 5104 136d F3000000 		.4byte	.LASF99
 5105 1371 05       		.byte	0x5
 5106 1372 7D       		.byte	0x7d
 5107 1373 81000000 		.4byte	0x81
 5108 1377 05       		.uleb128 0x5
 5109 1378 03       		.byte	0x3
 5110 1379 00000000 		.4byte	estado_lcd2
 5111 137d 16       		.uleb128 0x16
 5112 137e 06020000 		.4byte	.LASF100
 5113 1382 05       		.byte	0x5
 5114 1383 7E       		.byte	0x7e
 5115 1384 81000000 		.4byte	0x81
 5116 1388 05       		.uleb128 0x5
 5117 1389 03       		.byte	0x3
 5118 138a 00000000 		.4byte	seleccion_pos
 5119 138e 16       		.uleb128 0x16
 5120 138f 3E020000 		.4byte	.LASF101
 5121 1393 05       		.byte	0x5
 5122 1394 7F       		.byte	0x7f
 5123 1395 81000000 		.4byte	0x81
 5124 1399 05       		.uleb128 0x5
 5125 139a 03       		.byte	0x3
 5126 139b 00000000 		.4byte	seleccion_pos2
 5127 139f 16       		.uleb128 0x16
 5128 13a0 4A030000 		.4byte	.LASF102
 5129 13a4 05       		.byte	0x5
 5130 13a5 80       		.byte	0x80
ARM GAS  C:\Users\RECEPC~1\AppData\Local\Temp\ccHIf77r.s 			page 105


 5131 13a6 8D000000 		.4byte	0x8d
 5132 13aa 05       		.uleb128 0x5
 5133 13ab 03       		.byte	0x3
 5134 13ac 00000000 		.4byte	id_corte
 5135 13b0 16       		.uleb128 0x16
 5136 13b1 56020000 		.4byte	.LASF103
 5137 13b5 05       		.byte	0x5
 5138 13b6 83       		.byte	0x83
 5139 13b7 C1130000 		.4byte	0x13c1
 5140 13bb 05       		.uleb128 0x5
 5141 13bc 03       		.byte	0x3
 5142 13bd 00000000 		.4byte	no_venta
 5143 13c1 15       		.uleb128 0x15
 5144 13c2 68000000 		.4byte	0x68
 5145 13c6 16       		.uleb128 0x16
 5146 13c7 61030000 		.4byte	.LASF104
 5147 13cb 05       		.byte	0x5
 5148 13cc 9F       		.byte	0x9f
 5149 13cd C1000000 		.4byte	0xc1
 5150 13d1 05       		.uleb128 0x5
 5151 13d2 03       		.byte	0x3
 5152 13d3 00000000 		.4byte	Buffer_LCD1
 5153 13d7 16       		.uleb128 0x16
 5154 13d8 E5020000 		.4byte	.LASF105
 5155 13dc 05       		.byte	0x5
 5156 13dd A0       		.byte	0xa0
 5157 13de C1000000 		.4byte	0xc1
 5158 13e2 05       		.uleb128 0x5
 5159 13e3 03       		.byte	0x3
 5160 13e4 00000000 		.4byte	Buffer_LCD2
 5161 13e8 16       		.uleb128 0x16
 5162 13e9 2F040000 		.4byte	.LASF106
 5163 13ed 05       		.byte	0x5
 5164 13ee A3       		.byte	0xa3
 5165 13ef 81000000 		.4byte	0x81
 5166 13f3 05       		.uleb128 0x5
 5167 13f4 03       		.byte	0x3
 5168 13f5 00000000 		.4byte	estado_0
 5169 13f9 17       		.uleb128 0x17
 5170 13fa 6100     		.ascii	"a\000"
 5171 13fc 05       		.byte	0x5
 5172 13fd AE       		.byte	0xae
 5173 13fe A8010000 		.4byte	0x1a8
 5174 1402 05       		.uleb128 0x5
 5175 1403 03       		.byte	0x3
 5176 1404 00000000 		.4byte	a
 5177 1408 17       		.uleb128 0x17
 5178 1409 6200     		.ascii	"b\000"
 5179 140b 05       		.byte	0x5
 5180 140c AF       		.byte	0xaf
 5181 140d A8010000 		.4byte	0x1a8
 5182 1411 05       		.uleb128 0x5
 5183 1412 03       		.byte	0x3
 5184 1413 00000000 		.4byte	b
 5185 1417 17       		.uleb128 0x17
 5186 1418 6300     		.ascii	"c\000"
 5187 141a 05       		.byte	0x5
ARM GAS  C:\Users\RECEPC~1\AppData\Local\Temp\ccHIf77r.s 			page 106


 5188 141b B0       		.byte	0xb0
 5189 141c A8010000 		.4byte	0x1a8
 5190 1420 05       		.uleb128 0x5
 5191 1421 03       		.byte	0x3
 5192 1422 00000000 		.4byte	c
 5193 1426 17       		.uleb128 0x17
 5194 1427 6400     		.ascii	"d\000"
 5195 1429 05       		.byte	0x5
 5196 142a B1       		.byte	0xb1
 5197 142b A8010000 		.4byte	0x1a8
 5198 142f 05       		.uleb128 0x5
 5199 1430 03       		.byte	0x3
 5200 1431 00000000 		.4byte	d
 5201 1435 17       		.uleb128 0x17
 5202 1436 7800     		.ascii	"x\000"
 5203 1438 05       		.byte	0x5
 5204 1439 C7       		.byte	0xc7
 5205 143a 99000000 		.4byte	0x99
 5206 143e 05       		.uleb128 0x5
 5207 143f 03       		.byte	0x3
 5208 1440 00000000 		.4byte	x
 5209 1444 17       		.uleb128 0x17
 5210 1445 7900     		.ascii	"y\000"
 5211 1447 05       		.byte	0x5
 5212 1448 C7       		.byte	0xc7
 5213 1449 99000000 		.4byte	0x99
 5214 144d 05       		.uleb128 0x5
 5215 144e 03       		.byte	0x3
 5216 144f 00000000 		.4byte	y
 5217 1453 17       		.uleb128 0x17
 5218 1454 7A00     		.ascii	"z\000"
 5219 1456 05       		.byte	0x5
 5220 1457 C7       		.byte	0xc7
 5221 1458 99000000 		.4byte	0x99
 5222 145c 05       		.uleb128 0x5
 5223 145d 03       		.byte	0x3
 5224 145e 00000000 		.4byte	z
 5225 1462 17       		.uleb128 0x17
 5226 1463 7700     		.ascii	"w\000"
 5227 1465 05       		.byte	0x5
 5228 1466 C7       		.byte	0xc7
 5229 1467 99000000 		.4byte	0x99
 5230 146b 05       		.uleb128 0x5
 5231 146c 03       		.byte	0x3
 5232 146d 00000000 		.4byte	w
 5233 1471 09       		.uleb128 0x9
 5234 1472 81000000 		.4byte	0x81
 5235 1476 87140000 		.4byte	0x1487
 5236 147a 0A       		.uleb128 0xa
 5237 147b BA000000 		.4byte	0xba
 5238 147f 01       		.byte	0x1
 5239 1480 0A       		.uleb128 0xa
 5240 1481 BA000000 		.4byte	0xba
 5241 1485 C7       		.byte	0xc7
 5242 1486 00       		.byte	0
 5243 1487 16       		.uleb128 0x16
 5244 1488 92000000 		.4byte	.LASF107
ARM GAS  C:\Users\RECEPC~1\AppData\Local\Temp\ccHIf77r.s 			page 107


 5245 148c 05       		.byte	0x5
 5246 148d C8       		.byte	0xc8
 5247 148e 71140000 		.4byte	0x1471
 5248 1492 05       		.uleb128 0x5
 5249 1493 03       		.byte	0x3
 5250 1494 00000000 		.4byte	modulo
 5251 1498 16       		.uleb128 0x16
 5252 1499 CD000000 		.4byte	.LASF108
 5253 149d 05       		.byte	0x5
 5254 149e C9       		.byte	0xc9
 5255 149f 81000000 		.4byte	0x81
 5256 14a3 05       		.uleb128 0x5
 5257 14a4 03       		.byte	0x3
 5258 14a5 00000000 		.4byte	grado1
 5259 14a9 16       		.uleb128 0x16
 5260 14aa 8B000000 		.4byte	.LASF109
 5261 14ae 05       		.byte	0x5
 5262 14af C9       		.byte	0xc9
 5263 14b0 81000000 		.4byte	0x81
 5264 14b4 05       		.uleb128 0x5
 5265 14b5 03       		.byte	0x3
 5266 14b6 00000000 		.4byte	grado2
 5267 14ba 16       		.uleb128 0x16
 5268 14bb FF020000 		.4byte	.LASF42
 5269 14bf 05       		.byte	0x5
 5270 14c0 C9       		.byte	0xc9
 5271 14c1 81000000 		.4byte	0x81
 5272 14c5 05       		.uleb128 0x5
 5273 14c6 03       		.byte	0x3
 5274 14c7 00000000 		.4byte	producto
 5275 14cb 16       		.uleb128 0x16
 5276 14cc DF050000 		.4byte	.LASF110
 5277 14d0 05       		.byte	0x5
 5278 14d1 CB       		.byte	0xcb
 5279 14d2 E5010000 		.4byte	0x1e5
 5280 14d6 05       		.uleb128 0x5
 5281 14d7 03       		.byte	0x3
 5282 14d8 00000000 		.4byte	rventa
 5283 14dc 16       		.uleb128 0x16
 5284 14dd 69010000 		.4byte	.LASF111
 5285 14e1 05       		.byte	0x5
 5286 14e2 CC       		.byte	0xcc
 5287 14e3 E5010000 		.4byte	0x1e5
 5288 14e7 05       		.uleb128 0x5
 5289 14e8 03       		.byte	0x3
 5290 14e9 00000000 		.4byte	rventa2
 5291 14ed 09       		.uleb128 0x9
 5292 14ee 81000000 		.4byte	0x81
 5293 14f2 FD140000 		.4byte	0x14fd
 5294 14f6 0A       		.uleb128 0xa
 5295 14f7 BA000000 		.4byte	0xba
 5296 14fb 19       		.byte	0x19
 5297 14fc 00       		.byte	0
 5298 14fd 16       		.uleb128 0x16
 5299 14fe 1F020000 		.4byte	.LASF112
 5300 1502 01       		.byte	0x1
 5301 1503 36       		.byte	0x36
ARM GAS  C:\Users\RECEPC~1\AppData\Local\Temp\ccHIf77r.s 			page 108


 5302 1504 ED140000 		.4byte	0x14ed
 5303 1508 05       		.uleb128 0x5
 5304 1509 03       		.byte	0x3
 5305 150a 00000000 		.4byte	letras
 5306 150e 09       		.uleb128 0x9
 5307 150f 81000000 		.4byte	0x81
 5308 1513 1E150000 		.4byte	0x151e
 5309 1517 0A       		.uleb128 0xa
 5310 1518 BA000000 		.4byte	0xba
 5311 151c 11       		.byte	0x11
 5312 151d 00       		.byte	0
 5313 151e 16       		.uleb128 0x16
 5314 151f 7D000000 		.4byte	.LASF113
 5315 1523 01       		.byte	0x1
 5316 1524 37       		.byte	0x37
 5317 1525 0E150000 		.4byte	0x150e
 5318 1529 05       		.uleb128 0x5
 5319 152a 03       		.byte	0x3
 5320 152b 00000000 		.4byte	test
 5321 152f 09       		.uleb128 0x9
 5322 1530 81000000 		.4byte	0x81
 5323 1534 3F150000 		.4byte	0x153f
 5324 1538 0A       		.uleb128 0xa
 5325 1539 BA000000 		.4byte	0xba
 5326 153d 07       		.byte	0x7
 5327 153e 00       		.byte	0
 5328 153f 17       		.uleb128 0x17
 5329 1540 70756B00 		.ascii	"puk\000"
 5330 1544 01       		.byte	0x1
 5331 1545 38       		.byte	0x38
 5332 1546 2F150000 		.4byte	0x152f
 5333 154a 05       		.uleb128 0x5
 5334 154b 03       		.byte	0x3
 5335 154c 00000000 		.4byte	puk
 5336 1550 09       		.uleb128 0x9
 5337 1551 81000000 		.4byte	0x81
 5338 1555 60150000 		.4byte	0x1560
 5339 1559 0A       		.uleb128 0xa
 5340 155a BA000000 		.4byte	0xba
 5341 155e 10       		.byte	0x10
 5342 155f 00       		.byte	0
 5343 1560 16       		.uleb128 0x16
 5344 1561 A3040000 		.4byte	.LASF114
 5345 1565 01       		.byte	0x1
 5346 1566 39       		.byte	0x39
 5347 1567 50150000 		.4byte	0x1550
 5348 156b 05       		.uleb128 0x5
 5349 156c 03       		.byte	0x3
 5350 156d 00000000 		.4byte	serial
 5351 1571 09       		.uleb128 0x9
 5352 1572 81000000 		.4byte	0x81
 5353 1576 81150000 		.4byte	0x1581
 5354 157a 0A       		.uleb128 0xa
 5355 157b BA000000 		.4byte	0xba
 5356 157f 04       		.byte	0x4
 5357 1580 00       		.byte	0
 5358 1581 16       		.uleb128 0x16
ARM GAS  C:\Users\RECEPC~1\AppData\Local\Temp\ccHIf77r.s 			page 109


 5359 1582 E6050000 		.4byte	.LASF115
 5360 1586 01       		.byte	0x1
 5361 1587 3A       		.byte	0x3a
 5362 1588 71150000 		.4byte	0x1571
 5363 158c 05       		.uleb128 0x5
 5364 158d 03       		.byte	0x3
 5365 158e 00000000 		.4byte	pasword_corte
 5366 1592 18       		.uleb128 0x18
 5367 1593 74030000 		.4byte	.LASF116
 5368 1597 08       		.byte	0x8
 5369 1598 6B       		.byte	0x6b
 5370 1599 18       		.uleb128 0x18
 5371 159a 19030000 		.4byte	.LASF117
 5372 159e 06       		.byte	0x6
 5373 159f 6B       		.byte	0x6b
 5374 15a0 18       		.uleb128 0x18
 5375 15a1 E8010000 		.4byte	.LASF118
 5376 15a5 09       		.byte	0x9
 5377 15a6 6B       		.byte	0x6b
 5378 15a7 18       		.uleb128 0x18
 5379 15a8 B8000000 		.4byte	.LASF119
 5380 15ac 08       		.byte	0x8
 5381 15ad 7B       		.byte	0x7b
 5382 15ae 18       		.uleb128 0x18
 5383 15af 2C020000 		.4byte	.LASF120
 5384 15b3 06       		.byte	0x6
 5385 15b4 7B       		.byte	0x7b
 5386 15b5 19       		.uleb128 0x19
 5387 15b6 C2020000 		.4byte	.LASF121
 5388 15ba 0A       		.byte	0xa
 5389 15bb 77       		.byte	0x77
 5390 15bc C6150000 		.4byte	0x15c6
 5391 15c0 1A       		.uleb128 0x1a
 5392 15c1 99000000 		.4byte	0x99
 5393 15c5 00       		.byte	0
 5394 15c6 1B       		.uleb128 0x1b
 5395 15c7 5F020000 		.4byte	.LASF123
 5396 15cb 0C       		.byte	0xc
 5397 15cc 20       		.byte	0x20
 5398 15cd 81000000 		.4byte	0x81
 5399 15d1 19       		.uleb128 0x19
 5400 15d2 FC030000 		.4byte	.LASF122
 5401 15d6 0B       		.byte	0xb
 5402 15d7 21       		.byte	0x21
 5403 15d8 E7150000 		.4byte	0x15e7
 5404 15dc 1A       		.uleb128 0x1a
 5405 15dd 81000000 		.4byte	0x81
 5406 15e1 1A       		.uleb128 0x1a
 5407 15e2 8D000000 		.4byte	0x8d
 5408 15e6 00       		.byte	0
 5409 15e7 1C       		.uleb128 0x1c
 5410 15e8 44000000 		.4byte	.LASF127
 5411 15ec 0C       		.byte	0xc
 5412 15ed 21       		.byte	0x21
 5413 15ee 81000000 		.4byte	0x81
 5414 15f2 FC150000 		.4byte	0x15fc
 5415 15f6 1A       		.uleb128 0x1a
ARM GAS  C:\Users\RECEPC~1\AppData\Local\Temp\ccHIf77r.s 			page 110


 5416 15f7 81000000 		.4byte	0x81
 5417 15fb 00       		.byte	0
 5418 15fc 1B       		.uleb128 0x1b
 5419 15fd 9B020000 		.4byte	.LASF124
 5420 1601 06       		.byte	0x6
 5421 1602 8A       		.byte	0x8a
 5422 1603 81000000 		.4byte	0x81
 5423 1607 18       		.uleb128 0x18
 5424 1608 99000000 		.4byte	.LASF125
 5425 160c 06       		.byte	0x6
 5426 160d 8C       		.byte	0x8c
 5427 160e 19       		.uleb128 0x19
 5428 160f 39030000 		.4byte	.LASF126
 5429 1613 0B       		.byte	0xb
 5430 1614 22       		.byte	0x22
 5431 1615 29160000 		.4byte	0x1629
 5432 1619 1A       		.uleb128 0x1a
 5433 161a 81000000 		.4byte	0x81
 5434 161e 1A       		.uleb128 0x1a
 5435 161f 81000000 		.4byte	0x81
 5436 1623 1A       		.uleb128 0x1a
 5437 1624 81000000 		.4byte	0x81
 5438 1628 00       		.byte	0
 5439 1629 1C       		.uleb128 0x1c
 5440 162a 54040000 		.4byte	.LASF128
 5441 162e 0C       		.byte	0xc
 5442 162f 27       		.byte	0x27
 5443 1630 81000000 		.4byte	0x81
 5444 1634 4D160000 		.4byte	0x164d
 5445 1638 1A       		.uleb128 0x1a
 5446 1639 81000000 		.4byte	0x81
 5447 163d 1A       		.uleb128 0x1a
 5448 163e 81000000 		.4byte	0x81
 5449 1642 1A       		.uleb128 0x1a
 5450 1643 4D160000 		.4byte	0x164d
 5451 1647 1A       		.uleb128 0x1a
 5452 1648 81000000 		.4byte	0x81
 5453 164c 00       		.byte	0
 5454 164d 1D       		.uleb128 0x1d
 5455 164e 04       		.byte	0x4
 5456 164f 81000000 		.4byte	0x81
 5457 1653 1C       		.uleb128 0x1c
 5458 1654 3F040000 		.4byte	.LASF129
 5459 1658 0C       		.byte	0xc
 5460 1659 23       		.byte	0x23
 5461 165a 81000000 		.4byte	0x81
 5462 165e 68160000 		.4byte	0x1668
 5463 1662 1A       		.uleb128 0x1a
 5464 1663 81000000 		.4byte	0x81
 5465 1667 00       		.byte	0
 5466 1668 19       		.uleb128 0x19
 5467 1669 A6050000 		.4byte	.LASF130
 5468 166d 08       		.byte	0x8
 5469 166e 9F       		.byte	0x9f
 5470 166f 79160000 		.4byte	0x1679
 5471 1673 1A       		.uleb128 0x1a
 5472 1674 81000000 		.4byte	0x81
ARM GAS  C:\Users\RECEPC~1\AppData\Local\Temp\ccHIf77r.s 			page 111


 5473 1678 00       		.byte	0
 5474 1679 1E       		.uleb128 0x1e
 5475 167a 6F020000 		.4byte	.LASF131
 5476 167e 0C       		.byte	0xc
 5477 167f 25       		.byte	0x25
 5478 1680 81000000 		.4byte	0x81
 5479 1684 1A       		.uleb128 0x1a
 5480 1685 81000000 		.4byte	0x81
 5481 1689 00       		.byte	0
 5482 168a 00       		.byte	0
 5483              		.section	.debug_abbrev,"",%progbits
 5484              	.Ldebug_abbrev0:
 5485 0000 01       		.uleb128 0x1
 5486 0001 11       		.uleb128 0x11
 5487 0002 01       		.byte	0x1
 5488 0003 25       		.uleb128 0x25
 5489 0004 0E       		.uleb128 0xe
 5490 0005 13       		.uleb128 0x13
 5491 0006 0B       		.uleb128 0xb
 5492 0007 03       		.uleb128 0x3
 5493 0008 0E       		.uleb128 0xe
 5494 0009 1B       		.uleb128 0x1b
 5495 000a 0E       		.uleb128 0xe
 5496 000b 55       		.uleb128 0x55
 5497 000c 17       		.uleb128 0x17
 5498 000d 11       		.uleb128 0x11
 5499 000e 01       		.uleb128 0x1
 5500 000f 10       		.uleb128 0x10
 5501 0010 17       		.uleb128 0x17
 5502 0011 00       		.byte	0
 5503 0012 00       		.byte	0
 5504 0013 02       		.uleb128 0x2
 5505 0014 24       		.uleb128 0x24
 5506 0015 00       		.byte	0
 5507 0016 0B       		.uleb128 0xb
 5508 0017 0B       		.uleb128 0xb
 5509 0018 3E       		.uleb128 0x3e
 5510 0019 0B       		.uleb128 0xb
 5511 001a 03       		.uleb128 0x3
 5512 001b 0E       		.uleb128 0xe
 5513 001c 00       		.byte	0
 5514 001d 00       		.byte	0
 5515 001e 03       		.uleb128 0x3
 5516 001f 16       		.uleb128 0x16
 5517 0020 00       		.byte	0
 5518 0021 03       		.uleb128 0x3
 5519 0022 0E       		.uleb128 0xe
 5520 0023 3A       		.uleb128 0x3a
 5521 0024 0B       		.uleb128 0xb
 5522 0025 3B       		.uleb128 0x3b
 5523 0026 0B       		.uleb128 0xb
 5524 0027 49       		.uleb128 0x49
 5525 0028 13       		.uleb128 0x13
 5526 0029 00       		.byte	0
 5527 002a 00       		.byte	0
 5528 002b 04       		.uleb128 0x4
 5529 002c 24       		.uleb128 0x24
ARM GAS  C:\Users\RECEPC~1\AppData\Local\Temp\ccHIf77r.s 			page 112


 5530 002d 00       		.byte	0
 5531 002e 0B       		.uleb128 0xb
 5532 002f 0B       		.uleb128 0xb
 5533 0030 3E       		.uleb128 0x3e
 5534 0031 0B       		.uleb128 0xb
 5535 0032 03       		.uleb128 0x3
 5536 0033 08       		.uleb128 0x8
 5537 0034 00       		.byte	0
 5538 0035 00       		.byte	0
 5539 0036 05       		.uleb128 0x5
 5540 0037 16       		.uleb128 0x16
 5541 0038 00       		.byte	0
 5542 0039 03       		.uleb128 0x3
 5543 003a 0E       		.uleb128 0xe
 5544 003b 3A       		.uleb128 0x3a
 5545 003c 0B       		.uleb128 0xb
 5546 003d 3B       		.uleb128 0x3b
 5547 003e 05       		.uleb128 0x5
 5548 003f 49       		.uleb128 0x49
 5549 0040 13       		.uleb128 0x13
 5550 0041 00       		.byte	0
 5551 0042 00       		.byte	0
 5552 0043 06       		.uleb128 0x6
 5553 0044 13       		.uleb128 0x13
 5554 0045 01       		.byte	0x1
 5555 0046 03       		.uleb128 0x3
 5556 0047 0E       		.uleb128 0xe
 5557 0048 0B       		.uleb128 0xb
 5558 0049 0B       		.uleb128 0xb
 5559 004a 3A       		.uleb128 0x3a
 5560 004b 0B       		.uleb128 0xb
 5561 004c 3B       		.uleb128 0x3b
 5562 004d 0B       		.uleb128 0xb
 5563 004e 01       		.uleb128 0x1
 5564 004f 13       		.uleb128 0x13
 5565 0050 00       		.byte	0
 5566 0051 00       		.byte	0
 5567 0052 07       		.uleb128 0x7
 5568 0053 0D       		.uleb128 0xd
 5569 0054 00       		.byte	0
 5570 0055 03       		.uleb128 0x3
 5571 0056 0E       		.uleb128 0xe
 5572 0057 3A       		.uleb128 0x3a
 5573 0058 0B       		.uleb128 0xb
 5574 0059 3B       		.uleb128 0x3b
 5575 005a 0B       		.uleb128 0xb
 5576 005b 49       		.uleb128 0x49
 5577 005c 13       		.uleb128 0x13
 5578 005d 38       		.uleb128 0x38
 5579 005e 0B       		.uleb128 0xb
 5580 005f 00       		.byte	0
 5581 0060 00       		.byte	0
 5582 0061 08       		.uleb128 0x8
 5583 0062 0D       		.uleb128 0xd
 5584 0063 00       		.byte	0
 5585 0064 03       		.uleb128 0x3
 5586 0065 08       		.uleb128 0x8
ARM GAS  C:\Users\RECEPC~1\AppData\Local\Temp\ccHIf77r.s 			page 113


 5587 0066 3A       		.uleb128 0x3a
 5588 0067 0B       		.uleb128 0xb
 5589 0068 3B       		.uleb128 0x3b
 5590 0069 0B       		.uleb128 0xb
 5591 006a 49       		.uleb128 0x49
 5592 006b 13       		.uleb128 0x13
 5593 006c 38       		.uleb128 0x38
 5594 006d 0B       		.uleb128 0xb
 5595 006e 00       		.byte	0
 5596 006f 00       		.byte	0
 5597 0070 09       		.uleb128 0x9
 5598 0071 01       		.uleb128 0x1
 5599 0072 01       		.byte	0x1
 5600 0073 49       		.uleb128 0x49
 5601 0074 13       		.uleb128 0x13
 5602 0075 01       		.uleb128 0x1
 5603 0076 13       		.uleb128 0x13
 5604 0077 00       		.byte	0
 5605 0078 00       		.byte	0
 5606 0079 0A       		.uleb128 0xa
 5607 007a 21       		.uleb128 0x21
 5608 007b 00       		.byte	0
 5609 007c 49       		.uleb128 0x49
 5610 007d 13       		.uleb128 0x13
 5611 007e 2F       		.uleb128 0x2f
 5612 007f 0B       		.uleb128 0xb
 5613 0080 00       		.byte	0
 5614 0081 00       		.byte	0
 5615 0082 0B       		.uleb128 0xb
 5616 0083 13       		.uleb128 0x13
 5617 0084 01       		.byte	0x1
 5618 0085 03       		.uleb128 0x3
 5619 0086 08       		.uleb128 0x8
 5620 0087 0B       		.uleb128 0xb
 5621 0088 0B       		.uleb128 0xb
 5622 0089 3A       		.uleb128 0x3a
 5623 008a 0B       		.uleb128 0xb
 5624 008b 3B       		.uleb128 0x3b
 5625 008c 0B       		.uleb128 0xb
 5626 008d 01       		.uleb128 0x1
 5627 008e 13       		.uleb128 0x13
 5628 008f 00       		.byte	0
 5629 0090 00       		.byte	0
 5630 0091 0C       		.uleb128 0xc
 5631 0092 2E       		.uleb128 0x2e
 5632 0093 01       		.byte	0x1
 5633 0094 3F       		.uleb128 0x3f
 5634 0095 19       		.uleb128 0x19
 5635 0096 03       		.uleb128 0x3
 5636 0097 0E       		.uleb128 0xe
 5637 0098 3A       		.uleb128 0x3a
 5638 0099 0B       		.uleb128 0xb
 5639 009a 3B       		.uleb128 0x3b
 5640 009b 0B       		.uleb128 0xb
 5641 009c 27       		.uleb128 0x27
 5642 009d 19       		.uleb128 0x19
 5643 009e 11       		.uleb128 0x11
ARM GAS  C:\Users\RECEPC~1\AppData\Local\Temp\ccHIf77r.s 			page 114


 5644 009f 01       		.uleb128 0x1
 5645 00a0 12       		.uleb128 0x12
 5646 00a1 06       		.uleb128 0x6
 5647 00a2 40       		.uleb128 0x40
 5648 00a3 18       		.uleb128 0x18
 5649 00a4 9742     		.uleb128 0x2117
 5650 00a6 19       		.uleb128 0x19
 5651 00a7 01       		.uleb128 0x1
 5652 00a8 13       		.uleb128 0x13
 5653 00a9 00       		.byte	0
 5654 00aa 00       		.byte	0
 5655 00ab 0D       		.uleb128 0xd
 5656 00ac 898201   		.uleb128 0x4109
 5657 00af 00       		.byte	0
 5658 00b0 11       		.uleb128 0x11
 5659 00b1 01       		.uleb128 0x1
 5660 00b2 31       		.uleb128 0x31
 5661 00b3 13       		.uleb128 0x13
 5662 00b4 00       		.byte	0
 5663 00b5 00       		.byte	0
 5664 00b6 0E       		.uleb128 0xe
 5665 00b7 898201   		.uleb128 0x4109
 5666 00ba 01       		.byte	0x1
 5667 00bb 11       		.uleb128 0x11
 5668 00bc 01       		.uleb128 0x1
 5669 00bd 31       		.uleb128 0x31
 5670 00be 13       		.uleb128 0x13
 5671 00bf 00       		.byte	0
 5672 00c0 00       		.byte	0
 5673 00c1 0F       		.uleb128 0xf
 5674 00c2 8A8201   		.uleb128 0x410a
 5675 00c5 00       		.byte	0
 5676 00c6 02       		.uleb128 0x2
 5677 00c7 18       		.uleb128 0x18
 5678 00c8 9142     		.uleb128 0x2111
 5679 00ca 18       		.uleb128 0x18
 5680 00cb 00       		.byte	0
 5681 00cc 00       		.byte	0
 5682 00cd 10       		.uleb128 0x10
 5683 00ce 34       		.uleb128 0x34
 5684 00cf 00       		.byte	0
 5685 00d0 03       		.uleb128 0x3
 5686 00d1 0E       		.uleb128 0xe
 5687 00d2 3A       		.uleb128 0x3a
 5688 00d3 0B       		.uleb128 0xb
 5689 00d4 3B       		.uleb128 0x3b
 5690 00d5 0B       		.uleb128 0xb
 5691 00d6 49       		.uleb128 0x49
 5692 00d7 13       		.uleb128 0x13
 5693 00d8 02       		.uleb128 0x2
 5694 00d9 17       		.uleb128 0x17
 5695 00da 00       		.byte	0
 5696 00db 00       		.byte	0
 5697 00dc 11       		.uleb128 0x11
 5698 00dd 898201   		.uleb128 0x4109
 5699 00e0 01       		.byte	0x1
 5700 00e1 11       		.uleb128 0x11
ARM GAS  C:\Users\RECEPC~1\AppData\Local\Temp\ccHIf77r.s 			page 115


 5701 00e2 01       		.uleb128 0x1
 5702 00e3 31       		.uleb128 0x31
 5703 00e4 13       		.uleb128 0x13
 5704 00e5 01       		.uleb128 0x1
 5705 00e6 13       		.uleb128 0x13
 5706 00e7 00       		.byte	0
 5707 00e8 00       		.byte	0
 5708 00e9 12       		.uleb128 0x12
 5709 00ea 2E       		.uleb128 0x2e
 5710 00eb 01       		.byte	0x1
 5711 00ec 3F       		.uleb128 0x3f
 5712 00ed 19       		.uleb128 0x19
 5713 00ee 03       		.uleb128 0x3
 5714 00ef 0E       		.uleb128 0xe
 5715 00f0 3A       		.uleb128 0x3a
 5716 00f1 0B       		.uleb128 0xb
 5717 00f2 3B       		.uleb128 0x3b
 5718 00f3 05       		.uleb128 0x5
 5719 00f4 27       		.uleb128 0x27
 5720 00f5 19       		.uleb128 0x19
 5721 00f6 11       		.uleb128 0x11
 5722 00f7 01       		.uleb128 0x1
 5723 00f8 12       		.uleb128 0x12
 5724 00f9 06       		.uleb128 0x6
 5725 00fa 40       		.uleb128 0x40
 5726 00fb 18       		.uleb128 0x18
 5727 00fc 9742     		.uleb128 0x2117
 5728 00fe 19       		.uleb128 0x19
 5729 00ff 01       		.uleb128 0x1
 5730 0100 13       		.uleb128 0x13
 5731 0101 00       		.byte	0
 5732 0102 00       		.byte	0
 5733 0103 13       		.uleb128 0x13
 5734 0104 2E       		.uleb128 0x2e
 5735 0105 01       		.byte	0x1
 5736 0106 3F       		.uleb128 0x3f
 5737 0107 19       		.uleb128 0x19
 5738 0108 03       		.uleb128 0x3
 5739 0109 0E       		.uleb128 0xe
 5740 010a 3A       		.uleb128 0x3a
 5741 010b 0B       		.uleb128 0xb
 5742 010c 3B       		.uleb128 0x3b
 5743 010d 05       		.uleb128 0x5
 5744 010e 49       		.uleb128 0x49
 5745 010f 13       		.uleb128 0x13
 5746 0110 11       		.uleb128 0x11
 5747 0111 01       		.uleb128 0x1
 5748 0112 12       		.uleb128 0x12
 5749 0113 06       		.uleb128 0x6
 5750 0114 40       		.uleb128 0x40
 5751 0115 18       		.uleb128 0x18
 5752 0116 9742     		.uleb128 0x2117
 5753 0118 19       		.uleb128 0x19
 5754 0119 01       		.uleb128 0x1
 5755 011a 13       		.uleb128 0x13
 5756 011b 00       		.byte	0
 5757 011c 00       		.byte	0
ARM GAS  C:\Users\RECEPC~1\AppData\Local\Temp\ccHIf77r.s 			page 116


 5758 011d 14       		.uleb128 0x14
 5759 011e 34       		.uleb128 0x34
 5760 011f 00       		.byte	0
 5761 0120 03       		.uleb128 0x3
 5762 0121 0E       		.uleb128 0xe
 5763 0122 3A       		.uleb128 0x3a
 5764 0123 0B       		.uleb128 0xb
 5765 0124 3B       		.uleb128 0x3b
 5766 0125 05       		.uleb128 0x5
 5767 0126 49       		.uleb128 0x49
 5768 0127 13       		.uleb128 0x13
 5769 0128 3F       		.uleb128 0x3f
 5770 0129 19       		.uleb128 0x19
 5771 012a 3C       		.uleb128 0x3c
 5772 012b 19       		.uleb128 0x19
 5773 012c 00       		.byte	0
 5774 012d 00       		.byte	0
 5775 012e 15       		.uleb128 0x15
 5776 012f 35       		.uleb128 0x35
 5777 0130 00       		.byte	0
 5778 0131 49       		.uleb128 0x49
 5779 0132 13       		.uleb128 0x13
 5780 0133 00       		.byte	0
 5781 0134 00       		.byte	0
 5782 0135 16       		.uleb128 0x16
 5783 0136 34       		.uleb128 0x34
 5784 0137 00       		.byte	0
 5785 0138 03       		.uleb128 0x3
 5786 0139 0E       		.uleb128 0xe
 5787 013a 3A       		.uleb128 0x3a
 5788 013b 0B       		.uleb128 0xb
 5789 013c 3B       		.uleb128 0x3b
 5790 013d 0B       		.uleb128 0xb
 5791 013e 49       		.uleb128 0x49
 5792 013f 13       		.uleb128 0x13
 5793 0140 3F       		.uleb128 0x3f
 5794 0141 19       		.uleb128 0x19
 5795 0142 02       		.uleb128 0x2
 5796 0143 18       		.uleb128 0x18
 5797 0144 00       		.byte	0
 5798 0145 00       		.byte	0
 5799 0146 17       		.uleb128 0x17
 5800 0147 34       		.uleb128 0x34
 5801 0148 00       		.byte	0
 5802 0149 03       		.uleb128 0x3
 5803 014a 08       		.uleb128 0x8
 5804 014b 3A       		.uleb128 0x3a
 5805 014c 0B       		.uleb128 0xb
 5806 014d 3B       		.uleb128 0x3b
 5807 014e 0B       		.uleb128 0xb
 5808 014f 49       		.uleb128 0x49
 5809 0150 13       		.uleb128 0x13
 5810 0151 3F       		.uleb128 0x3f
 5811 0152 19       		.uleb128 0x19
 5812 0153 02       		.uleb128 0x2
 5813 0154 18       		.uleb128 0x18
 5814 0155 00       		.byte	0
ARM GAS  C:\Users\RECEPC~1\AppData\Local\Temp\ccHIf77r.s 			page 117


 5815 0156 00       		.byte	0
 5816 0157 18       		.uleb128 0x18
 5817 0158 2E       		.uleb128 0x2e
 5818 0159 00       		.byte	0
 5819 015a 3F       		.uleb128 0x3f
 5820 015b 19       		.uleb128 0x19
 5821 015c 03       		.uleb128 0x3
 5822 015d 0E       		.uleb128 0xe
 5823 015e 3A       		.uleb128 0x3a
 5824 015f 0B       		.uleb128 0xb
 5825 0160 3B       		.uleb128 0x3b
 5826 0161 0B       		.uleb128 0xb
 5827 0162 27       		.uleb128 0x27
 5828 0163 19       		.uleb128 0x19
 5829 0164 3C       		.uleb128 0x3c
 5830 0165 19       		.uleb128 0x19
 5831 0166 00       		.byte	0
 5832 0167 00       		.byte	0
 5833 0168 19       		.uleb128 0x19
 5834 0169 2E       		.uleb128 0x2e
 5835 016a 01       		.byte	0x1
 5836 016b 3F       		.uleb128 0x3f
 5837 016c 19       		.uleb128 0x19
 5838 016d 03       		.uleb128 0x3
 5839 016e 0E       		.uleb128 0xe
 5840 016f 3A       		.uleb128 0x3a
 5841 0170 0B       		.uleb128 0xb
 5842 0171 3B       		.uleb128 0x3b
 5843 0172 0B       		.uleb128 0xb
 5844 0173 27       		.uleb128 0x27
 5845 0174 19       		.uleb128 0x19
 5846 0175 3C       		.uleb128 0x3c
 5847 0176 19       		.uleb128 0x19
 5848 0177 01       		.uleb128 0x1
 5849 0178 13       		.uleb128 0x13
 5850 0179 00       		.byte	0
 5851 017a 00       		.byte	0
 5852 017b 1A       		.uleb128 0x1a
 5853 017c 05       		.uleb128 0x5
 5854 017d 00       		.byte	0
 5855 017e 49       		.uleb128 0x49
 5856 017f 13       		.uleb128 0x13
 5857 0180 00       		.byte	0
 5858 0181 00       		.byte	0
 5859 0182 1B       		.uleb128 0x1b
 5860 0183 2E       		.uleb128 0x2e
 5861 0184 00       		.byte	0
 5862 0185 3F       		.uleb128 0x3f
 5863 0186 19       		.uleb128 0x19
 5864 0187 03       		.uleb128 0x3
 5865 0188 0E       		.uleb128 0xe
 5866 0189 3A       		.uleb128 0x3a
 5867 018a 0B       		.uleb128 0xb
 5868 018b 3B       		.uleb128 0x3b
 5869 018c 0B       		.uleb128 0xb
 5870 018d 27       		.uleb128 0x27
 5871 018e 19       		.uleb128 0x19
ARM GAS  C:\Users\RECEPC~1\AppData\Local\Temp\ccHIf77r.s 			page 118


 5872 018f 49       		.uleb128 0x49
 5873 0190 13       		.uleb128 0x13
 5874 0191 3C       		.uleb128 0x3c
 5875 0192 19       		.uleb128 0x19
 5876 0193 00       		.byte	0
 5877 0194 00       		.byte	0
 5878 0195 1C       		.uleb128 0x1c
 5879 0196 2E       		.uleb128 0x2e
 5880 0197 01       		.byte	0x1
 5881 0198 3F       		.uleb128 0x3f
 5882 0199 19       		.uleb128 0x19
 5883 019a 03       		.uleb128 0x3
 5884 019b 0E       		.uleb128 0xe
 5885 019c 3A       		.uleb128 0x3a
 5886 019d 0B       		.uleb128 0xb
 5887 019e 3B       		.uleb128 0x3b
 5888 019f 0B       		.uleb128 0xb
 5889 01a0 27       		.uleb128 0x27
 5890 01a1 19       		.uleb128 0x19
 5891 01a2 49       		.uleb128 0x49
 5892 01a3 13       		.uleb128 0x13
 5893 01a4 3C       		.uleb128 0x3c
 5894 01a5 19       		.uleb128 0x19
 5895 01a6 01       		.uleb128 0x1
 5896 01a7 13       		.uleb128 0x13
 5897 01a8 00       		.byte	0
 5898 01a9 00       		.byte	0
 5899 01aa 1D       		.uleb128 0x1d
 5900 01ab 0F       		.uleb128 0xf
 5901 01ac 00       		.byte	0
 5902 01ad 0B       		.uleb128 0xb
 5903 01ae 0B       		.uleb128 0xb
 5904 01af 49       		.uleb128 0x49
 5905 01b0 13       		.uleb128 0x13
 5906 01b1 00       		.byte	0
 5907 01b2 00       		.byte	0
 5908 01b3 1E       		.uleb128 0x1e
 5909 01b4 2E       		.uleb128 0x2e
 5910 01b5 01       		.byte	0x1
 5911 01b6 3F       		.uleb128 0x3f
 5912 01b7 19       		.uleb128 0x19
 5913 01b8 03       		.uleb128 0x3
 5914 01b9 0E       		.uleb128 0xe
 5915 01ba 3A       		.uleb128 0x3a
 5916 01bb 0B       		.uleb128 0xb
 5917 01bc 3B       		.uleb128 0x3b
 5918 01bd 0B       		.uleb128 0xb
 5919 01be 27       		.uleb128 0x27
 5920 01bf 19       		.uleb128 0x19
 5921 01c0 49       		.uleb128 0x49
 5922 01c1 13       		.uleb128 0x13
 5923 01c2 3C       		.uleb128 0x3c
 5924 01c3 19       		.uleb128 0x19
 5925 01c4 00       		.byte	0
 5926 01c5 00       		.byte	0
 5927 01c6 00       		.byte	0
 5928              		.section	.debug_loc,"",%progbits
ARM GAS  C:\Users\RECEPC~1\AppData\Local\Temp\ccHIf77r.s 			page 119


 5929              	.Ldebug_loc0:
 5930              	.LLST0:
 5931 0000 02000000 		.4byte	.LVL6
 5932 0004 06000000 		.4byte	.LVL7
 5933 0008 0200     		.2byte	0x2
 5934 000a 30       		.byte	0x30
 5935 000b 9F       		.byte	0x9f
 5936 000c 06000000 		.4byte	.LVL7
 5937 0010 24000000 		.4byte	.LVL10
 5938 0014 0100     		.2byte	0x1
 5939 0016 54       		.byte	0x54
 5940 0017 24000000 		.4byte	.LVL10
 5941 001b 26000000 		.4byte	.LVL11
 5942 001f 0200     		.2byte	0x2
 5943 0021 30       		.byte	0x30
 5944 0022 9F       		.byte	0x9f
 5945 0023 26000000 		.4byte	.LVL11
 5946 0027 44000000 		.4byte	.LVL15
 5947 002b 0100     		.2byte	0x1
 5948 002d 54       		.byte	0x54
 5949 002e 44000000 		.4byte	.LVL15
 5950 0032 58000000 		.4byte	.LVL18
 5951 0036 0200     		.2byte	0x2
 5952 0038 31       		.byte	0x31
 5953 0039 9F       		.byte	0x9f
 5954 003a 58000000 		.4byte	.LVL18
 5955 003e 98000000 		.4byte	.LVL25
 5956 0042 0100     		.2byte	0x1
 5957 0044 54       		.byte	0x54
 5958 0045 98000000 		.4byte	.LVL25
 5959 0049 AC000000 		.4byte	.LVL28
 5960 004d 0200     		.2byte	0x2
 5961 004f 32       		.byte	0x32
 5962 0050 9F       		.byte	0x9f
 5963 0051 AC000000 		.4byte	.LVL28
 5964 0055 BA000000 		.4byte	.LVL30
 5965 0059 0100     		.2byte	0x1
 5966 005b 54       		.byte	0x54
 5967 005c 00000000 		.4byte	0
 5968 0060 00000000 		.4byte	0
 5969              		.section	.debug_aranges,"",%progbits
 5970 0000 44000000 		.4byte	0x44
 5971 0004 0200     		.2byte	0x2
 5972 0006 00000000 		.4byte	.Ldebug_info0
 5973 000a 04       		.byte	0x4
 5974 000b 00       		.byte	0
 5975 000c 0000     		.2byte	0
 5976 000e 0000     		.2byte	0
 5977 0010 00000000 		.4byte	.LFB63
 5978 0014 2C000000 		.4byte	.LFE63-.LFB63
 5979 0018 00000000 		.4byte	.LFB64
 5980 001c CC000000 		.4byte	.LFE64-.LFB64
 5981 0020 00000000 		.4byte	.LFB65
 5982 0024 38000000 		.4byte	.LFE65-.LFB65
 5983 0028 00000000 		.4byte	.LFB66
 5984 002c 38060000 		.4byte	.LFE66-.LFB66
 5985 0030 00000000 		.4byte	.LFB67
ARM GAS  C:\Users\RECEPC~1\AppData\Local\Temp\ccHIf77r.s 			page 120


 5986 0034 38060000 		.4byte	.LFE67-.LFB67
 5987 0038 00000000 		.4byte	.LFB68
 5988 003c 3C000000 		.4byte	.LFE68-.LFB68
 5989 0040 00000000 		.4byte	0
 5990 0044 00000000 		.4byte	0
 5991              		.section	.debug_ranges,"",%progbits
 5992              	.Ldebug_ranges0:
 5993 0000 00000000 		.4byte	.LFB63
 5994 0004 2C000000 		.4byte	.LFE63
 5995 0008 00000000 		.4byte	.LFB64
 5996 000c CC000000 		.4byte	.LFE64
 5997 0010 00000000 		.4byte	.LFB65
 5998 0014 38000000 		.4byte	.LFE65
 5999 0018 00000000 		.4byte	.LFB66
 6000 001c 38060000 		.4byte	.LFE66
 6001 0020 00000000 		.4byte	.LFB67
 6002 0024 38060000 		.4byte	.LFE67
 6003 0028 00000000 		.4byte	.LFB68
 6004 002c 3C000000 		.4byte	.LFE68
 6005 0030 00000000 		.4byte	0
 6006 0034 00000000 		.4byte	0
 6007              		.section	.debug_line,"",%progbits
 6008              	.Ldebug_line0:
 6009 0000 A4040000 		.section	.debug_str,"MS",%progbits,1
 6009      0200A601 
 6009      00000201 
 6009      FB0E0D00 
 6009      01010101 
 6010              	.LASF26:
 6011 0000 70617373 		.ascii	"password\000"
 6011      776F7264 
 6011      00
 6012              	.LASF56:
 6013 0009 666C756A 		.ascii	"flujo_LCD2\000"
 6013      6F5F4C43 
 6013      443200
 6014              	.LASF31:
 6015 0014 66756E63 		.ascii	"funcion\000"
 6015      696F6E00 
 6016              	.LASF53:
 6017 001c 4C43445F 		.ascii	"LCD_1_rxBuffer\000"
 6017      315F7278 
 6017      42756666 
 6017      657200
 6018              	.LASF62:
 6019 002b 76657273 		.ascii	"versurt\000"
 6019      75727400 
 6020              	.LASF28:
 6021 0033 62756666 		.ascii	"buffer\000"
 6021      657200
 6022              	.LASF48:
 6023 003a 696E6974 		.ascii	"init_surt\000"
 6023      5F737572 
 6023      7400
 6024              	.LASF127:
 6025 0044 6765745F 		.ascii	"get_estado\000"
 6025      65737461 
ARM GAS  C:\Users\RECEPC~1\AppData\Local\Temp\ccHIf77r.s 			page 121


 6025      646F00
 6026              	.LASF8:
 6027 004f 756E7369 		.ascii	"unsigned int\000"
 6027      676E6564 
 6027      20696E74 
 6027      00
 6028              	.LASF86:
 6029 005c 636F7069 		.ascii	"copia_recibo2\000"
 6029      615F7265 
 6029      6369626F 
 6029      3200
 6030              	.LASF9:
 6031 006a 5F5F696E 		.ascii	"__int32_t\000"
 6031      7433325F 
 6031      7400
 6032              	.LASF24:
 6033 0074 706F7376 		.ascii	"posventa\000"
 6033      656E7461 
 6033      00
 6034              	.LASF113:
 6035 007d 74657374 		.ascii	"test\000"
 6035      00
 6036              	.LASF74:
 6037 0082 7465636C 		.ascii	"teclado2\000"
 6037      61646F32 
 6037      00
 6038              	.LASF109:
 6039 008b 67726164 		.ascii	"grado2\000"
 6039      6F3200
 6040              	.LASF107:
 6041 0092 6D6F6475 		.ascii	"modulo\000"
 6041      6C6F00
 6042              	.LASF125:
 6043 0099 4C43445F 		.ascii	"LCD_1_ClearRxBuffer\000"
 6043      315F436C 
 6043      65617252 
 6043      78427566 
 6043      66657200 
 6044              	.LASF67:
 6045 00ad 70726F64 		.ascii	"producto1b\000"
 6045      7563746F 
 6045      316200
 6046              	.LASF119:
 6047 00b8 53757274 		.ascii	"Surtidor_EnableRxInt\000"
 6047      69646F72 
 6047      5F456E61 
 6047      626C6552 
 6047      78496E74 
 6048              	.LASF108:
 6049 00cd 67726164 		.ascii	"grado1\000"
 6049      6F3100
 6050              	.LASF89:
 6051 00d4 70726F64 		.ascii	"producto1n\000"
 6051      7563746F 
 6051      316E00
 6052              	.LASF19:
 6053 00df 636F6D61 		.ascii	"comando\000"
ARM GAS  C:\Users\RECEPC~1\AppData\Local\Temp\ccHIf77r.s 			page 122


 6053      6E646F00 
 6054              	.LASF98:
 6055 00e7 65737461 		.ascii	"estado_lcd1\000"
 6055      646F5F6C 
 6055      63643100 
 6056              	.LASF99:
 6057 00f3 65737461 		.ascii	"estado_lcd2\000"
 6057      646F5F6C 
 6057      63643200 
 6058              	.LASF40:
 6059 00ff 686F7261 		.ascii	"hora\000"
 6059      00
 6060              	.LASF58:
 6061 0104 7465636C 		.ascii	"teclas1\000"
 6061      61733100 
 6062              	.LASF59:
 6063 010c 7465636C 		.ascii	"teclas2\000"
 6063      61733200 
 6064              	.LASF134:
 6065 0114 433A5C55 		.ascii	"C:\\Users\\Recepcion\\Documents\\Prime GRP700\\Work"
 6065      73657273 
 6065      5C526563 
 6065      65706369 
 6065      6F6E5C44 
 6066 0142 73706163 		.ascii	"space01\\PGRP700.cydsn\000"
 6066      6530315C 
 6066      50475250 
 6066      3730302E 
 6066      63796473 
 6067              	.LASF46:
 6068 0158 7464696E 		.ascii	"tdinero\000"
 6068      65726F00 
 6069              	.LASF41:
 6070 0160 706F7369 		.ascii	"posicion\000"
 6070      63696F6E 
 6070      00
 6071              	.LASF111:
 6072 0169 7276656E 		.ascii	"rventa2\000"
 6072      74613200 
 6073              	.LASF79:
 6074 0171 64656369 		.ascii	"decimalD\000"
 6074      6D616C44 
 6074      00
 6075              	.LASF36:
 6076 017a 64697265 		.ascii	"direccion\000"
 6076      6363696F 
 6076      6E00
 6077              	.LASF68:
 6078 0184 70726F64 		.ascii	"producto2b\000"
 6078      7563746F 
 6078      326200
 6079              	.LASF20:
 6080 018f 70726573 		.ascii	"preset\000"
 6080      657400
 6081              	.LASF90:
 6082 0196 70726F64 		.ascii	"producto2n\000"
 6082      7563746F 
ARM GAS  C:\Users\RECEPC~1\AppData\Local\Temp\ccHIf77r.s 			page 123


 6082      326E00
 6083              	.LASF92:
 6084 01a1 70726F64 		.ascii	"producto4n\000"
 6084      7563746F 
 6084      346E00
 6085              	.LASF14:
 6086 01ac 666C6F61 		.ascii	"float\000"
 6086      7400
 6087              	.LASF71:
 6088 01b2 62756666 		.ascii	"buffer_i2c\000"
 6088      65725F69 
 6088      326300
 6089              	.LASF37:
 6090 01bd 6C656D61 		.ascii	"lema1\000"
 6090      3100
 6091              	.LASF38:
 6092 01c3 6C656D61 		.ascii	"lema2\000"
 6092      3200
 6093              	.LASF7:
 6094 01c9 6C6F6E67 		.ascii	"long long unsigned int\000"
 6094      206C6F6E 
 6094      6720756E 
 6094      7369676E 
 6094      65642069 
 6095              	.LASF73:
 6096 01e0 7465636C 		.ascii	"teclado\000"
 6096      61646F00 
 6097              	.LASF118:
 6098 01e8 4C43445F 		.ascii	"LCD_2_Start\000"
 6098      325F5374 
 6098      61727400 
 6099              	.LASF22:
 6100 01f4 6375656E 		.ascii	"cuenta\000"
 6100      746100
 6101              	.LASF69:
 6102 01fb 70726F64 		.ascii	"producto3b\000"
 6102      7563746F 
 6102      336200
 6103              	.LASF100:
 6104 0206 73656C65 		.ascii	"seleccion_pos\000"
 6104      6363696F 
 6104      6E5F706F 
 6104      7300
 6105              	.LASF91:
 6106 0214 70726F64 		.ascii	"producto3n\000"
 6106      7563746F 
 6106      336E00
 6107              	.LASF112:
 6108 021f 6C657472 		.ascii	"letras\000"
 6108      617300
 6109              	.LASF23:
 6110 0226 706C6163 		.ascii	"placa\000"
 6110      6100
 6111              	.LASF120:
 6112 022c 4C43445F 		.ascii	"LCD_1_EnableRxInt\000"
 6112      315F456E 
 6112      61626C65 
ARM GAS  C:\Users\RECEPC~1\AppData\Local\Temp\ccHIf77r.s 			page 124


 6112      5278496E 
 6112      7400
 6113              	.LASF101:
 6114 023e 73656C65 		.ascii	"seleccion_pos2\000"
 6114      6363696F 
 6114      6E5F706F 
 6114      733200
 6115              	.LASF94:
 6116 024d 6E5F636F 		.ascii	"n_copias\000"
 6116      70696173 
 6116      00
 6117              	.LASF103:
 6118 0256 6E6F5F76 		.ascii	"no_venta\000"
 6118      656E7461 
 6118      00
 6119              	.LASF123:
 6120 025f 7665725F 		.ascii	"ver_pos\000"
 6120      706F7300 
 6121              	.LASF44:
 6122 0267 766F6C75 		.ascii	"volumen\000"
 6122      6D656E00 
 6123              	.LASF131:
 6124 026f 76656E74 		.ascii	"venta\000"
 6124      6100
 6125              	.LASF35:
 6126 0275 74656C65 		.ascii	"telefono\000"
 6126      666F6E6F 
 6126      00
 6127              	.LASF70:
 6128 027e 70726F64 		.ascii	"producto4b\000"
 6128      7563746F 
 6128      346200
 6129              	.LASF87:
 6130 0289 69645F76 		.ascii	"id_venta\000"
 6130      656E7461 
 6130      00
 6131              	.LASF45:
 6132 0292 74766F6C 		.ascii	"tvolumen\000"
 6132      756D656E 
 6132      00
 6133              	.LASF124:
 6134 029b 4C43445F 		.ascii	"LCD_1_GetRxBufferSize\000"
 6134      315F4765 
 6134      74527842 
 6134      75666665 
 6134      7253697A 
 6135              	.LASF80:
 6136 02b1 66656368 		.ascii	"fecha_corte\000"
 6136      615F636F 
 6136      72746500 
 6137              	.LASF16:
 6138 02bd 63686172 		.ascii	"char\000"
 6138      00
 6139              	.LASF121:
 6140 02c2 43794465 		.ascii	"CyDelay\000"
 6140      6C617900 
 6141              	.LASF12:
ARM GAS  C:\Users\RECEPC~1\AppData\Local\Temp\ccHIf77r.s 			page 125


 6142 02ca 75696E74 		.ascii	"uint16\000"
 6142      313600
 6143              	.LASF83:
 6144 02d1 7072696E 		.ascii	"print1\000"
 6144      743100
 6145              	.LASF84:
 6146 02d8 7072696E 		.ascii	"print2\000"
 6146      743200
 6147              	.LASF27:
 6148 02df 7475726E 		.ascii	"turno\000"
 6148      6F00
 6149              	.LASF105:
 6150 02e5 42756666 		.ascii	"Buffer_LCD2\000"
 6150      65725F4C 
 6150      43443200 
 6151              	.LASF6:
 6152 02f1 6C6F6E67 		.ascii	"long long int\000"
 6152      206C6F6E 
 6152      6720696E 
 6152      7400
 6153              	.LASF42:
 6154 02ff 70726F64 		.ascii	"producto\000"
 6154      7563746F 
 6154      00
 6155              	.LASF34:
 6156 0308 636F6E66 		.ascii	"configppu\000"
 6156      69677070 
 6156      7500
 6157              	.LASF25:
 6158 0312 63656475 		.ascii	"cedula\000"
 6158      6C6100
 6159              	.LASF117:
 6160 0319 4C43445F 		.ascii	"LCD_1_Start\000"
 6160      315F5374 
 6160      61727400 
 6161              	.LASF88:
 6162 0325 6E6F6D62 		.ascii	"nombreproducto\000"
 6162      72657072 
 6162      6F647563 
 6162      746F00
 6163              	.LASF18:
 6164 0334 73697A65 		.ascii	"size\000"
 6164      00
 6165              	.LASF126:
 6166 0339 77726974 		.ascii	"write_LCD\000"
 6166      655F4C43 
 6166      4400
 6167              	.LASF13:
 6168 0343 75696E74 		.ascii	"uint32\000"
 6168      333200
 6169              	.LASF102:
 6170 034a 69645F63 		.ascii	"id_corte\000"
 6170      6F727465 
 6170      00
 6171              	.LASF32:
 6172 0353 72656369 		.ascii	"recibo\000"
 6172      626F00
ARM GAS  C:\Users\RECEPC~1\AppData\Local\Temp\ccHIf77r.s 			page 126


 6173              	.LASF43:
 6174 035a 64696E65 		.ascii	"dinero\000"
 6174      726F00
 6175              	.LASF104:
 6176 0361 42756666 		.ascii	"Buffer_LCD1\000"
 6176      65725F4C 
 6176      43443100 
 6177              	.LASF29:
 6178 036d 65737461 		.ascii	"estado\000"
 6178      646F00
 6179              	.LASF116:
 6180 0374 53757274 		.ascii	"Surtidor_Start\000"
 6180      69646F72 
 6180      5F537461 
 6180      727400
 6181              	.LASF97:
 6182 0383 696D6167 		.ascii	"imagen\000"
 6182      656E00
 6183              	.LASF75:
 6184 038a 70707578 		.ascii	"ppux10\000"
 6184      313000
 6185              	.LASF33:
 6186 0391 6E6F6D62 		.ascii	"nombre\000"
 6186      726500
 6187              	.LASF82:
 6188 0398 6372635F 		.ascii	"crc_total\000"
 6188      746F7461 
 6188      6C00
 6189              	.LASF55:
 6190 03a2 666C756A 		.ascii	"flujo_LCD\000"
 6190      6F5F4C43 
 6190      4400
 6191              	.LASF93:
 6192 03ac 615F636F 		.ascii	"a_copias\000"
 6192      70696173 
 6192      00
 6193              	.LASF81:
 6194 03b5 706F735F 		.ascii	"pos_ibutton\000"
 6194      69627574 
 6194      746F6E00 
 6195              	.LASF2:
 6196 03c1 73686F72 		.ascii	"short int\000"
 6196      7420696E 
 6196      7400
 6197              	.LASF4:
 6198 03cb 6C6F6E67 		.ascii	"long int\000"
 6198      20696E74 
 6198      00
 6199              	.LASF85:
 6200 03d4 636F7069 		.ascii	"copia_recibo\000"
 6200      615F7265 
 6200      6369626F 
 6200      00
 6201              	.LASF54:
 6202 03e1 49544D5F 		.ascii	"ITM_RxBuffer\000"
 6202      52784275 
 6202      66666572 
ARM GAS  C:\Users\RECEPC~1\AppData\Local\Temp\ccHIf77r.s 			page 127


 6202      00
 6203              	.LASF60:
 6204 03ee 636F6D61 		.ascii	"comas1\000"
 6204      733100
 6205              	.LASF61:
 6206 03f5 636F6D61 		.ascii	"comas2\000"
 6206      733200
 6207              	.LASF122:
 6208 03fc 7365745F 		.ascii	"set_imagen\000"
 6208      696D6167 
 6208      656E00
 6209              	.LASF63:
 6210 0407 70726F64 		.ascii	"producto1\000"
 6210      7563746F 
 6210      3100
 6211              	.LASF64:
 6212 0411 70726F64 		.ascii	"producto2\000"
 6212      7563746F 
 6212      3200
 6213              	.LASF65:
 6214 041b 70726F64 		.ascii	"producto3\000"
 6214      7563746F 
 6214      3300
 6215              	.LASF66:
 6216 0425 70726F64 		.ascii	"producto4\000"
 6216      7563746F 
 6216      3400
 6217              	.LASF106:
 6218 042f 65737461 		.ascii	"estado_0\000"
 6218      646F5F30 
 6218      00
 6219              	.LASF135:
 6220 0438 73656775 		.ascii	"seguir\000"
 6220      697200
 6221              	.LASF129:
 6222 043f 65737461 		.ascii	"estado_ex\000"
 6222      646F5F65 
 6222      7800
 6223              	.LASF57:
 6224 0449 636F6E74 		.ascii	"cont1\000"
 6224      3100
 6225              	.LASF47:
 6226 044f 696E6974 		.ascii	"init\000"
 6226      00
 6227              	.LASF128:
 6228 0454 70726F67 		.ascii	"programar\000"
 6228      72616D61 
 6228      7200
 6229              	.LASF17:
 6230 045e 73697A65 		.ascii	"sizetype\000"
 6230      74797065 
 6230      00
 6231              	.LASF5:
 6232 0467 6C6F6E67 		.ascii	"long unsigned int\000"
 6232      20756E73 
 6232      69676E65 
 6232      6420696E 
ARM GAS  C:\Users\RECEPC~1\AppData\Local\Temp\ccHIf77r.s 			page 128


 6232      7400
 6233              	.LASF76:
 6234 0479 62616E64 		.ascii	"bandera\000"
 6234      65726100 
 6235              	.LASF10:
 6236 0481 696E7433 		.ascii	"int32_t\000"
 6236      325F7400 
 6237              	.LASF50:
 6238 0489 706F6C6C 		.ascii	"polling_pos1\000"
 6238      696E675F 
 6238      706F7331 
 6238      00
 6239              	.LASF51:
 6240 0496 706F6C6C 		.ascii	"polling_pos2\000"
 6240      696E675F 
 6240      706F7332 
 6240      00
 6241              	.LASF114:
 6242 04a3 73657269 		.ascii	"serial\000"
 6242      616C00
 6243              	.LASF96:
 6244 04aa 6E6F5F69 		.ascii	"no_imprime2\000"
 6244      6D707269 
 6244      6D653200 
 6245              	.LASF95:
 6246 04b6 6E6F5F69 		.ascii	"no_imprime\000"
 6246      6D707269 
 6246      6D6500
 6247              	.LASF1:
 6248 04c1 756E7369 		.ascii	"unsigned char\000"
 6248      676E6564 
 6248      20636861 
 6248      7200
 6249              	.LASF132:
 6250 04cf 474E5520 		.ascii	"GNU C 4.9.3 20150303 (release) [ARM/embedded-4_9-br"
 6250      4320342E 
 6250      392E3320 
 6250      32303135 
 6250      30333033 
 6251 0502 616E6368 		.ascii	"anch revision 221220] -mcpu=cortex-m3 -mthumb -g -O"
 6251      20726576 
 6251      6973696F 
 6251      6E203232 
 6251      31323230 
 6252 0535 67202D66 		.ascii	"g -ffunction-sections -ffat-lto-objects\000"
 6252      66756E63 
 6252      74696F6E 
 6252      2D736563 
 6252      74696F6E 
 6253              	.LASF49:
 6254 055d 696E6974 		.ascii	"init_pantallas\000"
 6254      5F70616E 
 6254      74616C6C 
 6254      617300
 6255              	.LASF72:
 6256 056c 72657375 		.ascii	"resultado\000"
 6256      6C746164 
ARM GAS  C:\Users\RECEPC~1\AppData\Local\Temp\ccHIf77r.s 			page 129


 6256      6F00
 6257              	.LASF39:
 6258 0576 66656368 		.ascii	"fecha\000"
 6258      6100
 6259              	.LASF0:
 6260 057c 7369676E 		.ascii	"signed char\000"
 6260      65642063 
 6260      68617200 
 6261              	.LASF21:
 6262 0588 76616C6F 		.ascii	"valor\000"
 6262      7200
 6263              	.LASF3:
 6264 058e 73686F72 		.ascii	"short unsigned int\000"
 6264      7420756E 
 6264      7369676E 
 6264      65642069 
 6264      6E7400
 6265              	.LASF52:
 6266 05a1 6D61696E 		.ascii	"main\000"
 6266      00
 6267              	.LASF130:
 6268 05a6 53757274 		.ascii	"Surtidor_PutChar\000"
 6268      69646F72 
 6268      5F507574 
 6268      43686172 
 6268      00
 6269              	.LASF78:
 6270 05b7 64656369 		.ascii	"decimalV\000"
 6270      6D616C56 
 6270      00
 6271              	.LASF11:
 6272 05c0 75696E74 		.ascii	"uint8\000"
 6272      3800
 6273              	.LASF15:
 6274 05c6 646F7562 		.ascii	"double\000"
 6274      6C6500
 6275              	.LASF77:
 6276 05cd 7469706F 		.ascii	"tipo_imp\000"
 6276      5F696D70 
 6276      00
 6277              	.LASF30:
 6278 05d6 6D616E67 		.ascii	"manguera\000"
 6278      75657261 
 6278      00
 6279              	.LASF110:
 6280 05df 7276656E 		.ascii	"rventa\000"
 6280      746100
 6281              	.LASF115:
 6282 05e6 70617377 		.ascii	"pasword_corte\000"
 6282      6F72645F 
 6282      636F7274 
 6282      6500
 6283              	.LASF133:
 6284 05f4 2E5C6D61 		.ascii	".\\main.c\000"
 6284      696E2E63 
 6284      00
 6285              		.ident	"GCC: (GNU Tools for ARM Embedded Processors) 4.9.3 20150303 (release) [ARM/embedded-4_9-br
ARM GAS  C:\Users\RECEPC~1\AppData\Local\Temp\ccHIf77r.s 			page 130


