ARM GAS  C:\Users\IN-002~1\AppData\Local\Temp\ccN5KMQc.s 			page 1


   1              		.syntax unified
   2              		.cpu cortex-m3
   3              		.fpu softvfp
   4              		.eabi_attribute 20, 1
   5              		.eabi_attribute 21, 1
   6              		.eabi_attribute 23, 3
   7              		.eabi_attribute 24, 1
   8              		.eabi_attribute 25, 1
   9              		.eabi_attribute 26, 1
  10              		.eabi_attribute 30, 1
  11              		.eabi_attribute 34, 1
  12              		.eabi_attribute 18, 4
  13              		.thumb
  14              		.file	"main.c"
  15              		.text
  16              	.Ltext0:
  17              		.cfi_sections	.debug_frame
  18              		.section	.text.init,"ax",%progbits
  19              		.align	2
  20              		.global	init
  21              		.thumb
  22              		.thumb_func
  23              		.type	init, %function
  24              	init:
  25              	.LFB63:
  26              		.file 1 ".\\main.c"
   1:.\main.c      **** /**
   2:.\main.c      **** * @file main.c
   3:.\main.c      **** * @Author Insepet LTDA
   4:.\main.c      **** * @date 28/2/2016
   5:.\main.c      **** * @brief Archivo principal, maneja librerías y ejecuta el polling de pantallas y dispensador
   6:.\main.c      **** */
   7:.\main.c      **** 
   8:.\main.c      **** /*
   9:.\main.c      **** ***************************************************************************************************
  10:.\main.c      **** *                                             INCLUDE FILES
  11:.\main.c      **** ***************************************************************************************************
  12:.\main.c      **** */
  13:.\main.c      **** 
  14:.\main.c      **** 
  15:.\main.c      **** #include "Protocolo.h"
  16:.\main.c      **** #include "VariablesG.h"
  17:.\main.c      **** #include "Print.h"
  18:.\main.c      **** #include "LCD.h"
  19:.\main.c      **** #include "ibutton.h"
  20:.\main.c      **** #include "I2C.h"
  21:.\main.c      **** #include <project.h>
  22:.\main.c      **** #include <device.h>
  23:.\main.c      **** 
  24:.\main.c      **** 
  25:.\main.c      **** 
  26:.\main.c      **** 
  27:.\main.c      **** /*
  28:.\main.c      **** ***************************************************************************************************
  29:.\main.c      **** *                                             DECLARACION DE FUNCIONES
  30:.\main.c      **** ***************************************************************************************************
  31:.\main.c      **** */
ARM GAS  C:\Users\IN-002~1\AppData\Local\Temp\ccN5KMQc.s 			page 2


  32:.\main.c      **** uint8 letras[26]={0x25,0x42,0x31,0x27,0x1D,0x28,0x29,0x2A,0x22,0x2B,0x2C,0x2D,0x35,0x34,0x23,0x24,0
  33:.\main.c      **** uint8 test[18]="Test de Impresora";
  34:.\main.c      **** uint8 puk[8]="18928005";
  35:.\main.c      **** uint8 serial[17]="0FFFFF8FEEBEB2DC0";
  36:.\main.c      **** uint8 pasword_corte[5]={4,'1','2','3','4'};
  37:.\main.c      **** 
  38:.\main.c      **** /**
  39:.\main.c      **** * @fn init
  40:.\main.c      **** * @brief Inicialización de periféricos, lectura de variables de eeprom externa
  41:.\main.c      **** * inicialización de interrupciones
  42:.\main.c      **** *  
  43:.\main.c      **** */
  44:.\main.c      **** void init(void){
  27              		.loc 1 44 0
  28              		.cfi_startproc
  29              		@ args = 0, pretend = 0, frame = 0
  30              		@ frame_needed = 0, uses_anonymous_args = 0
  31 0000 10B5     		push	{r4, lr}
  32              		.cfi_def_cfa_offset 8
  33              		.cfi_offset 4, -8
  34              		.cfi_offset 14, -4
  45:.\main.c      **** 	/**** Inicio de periféricos ****/
  46:.\main.c      ****     
  47:.\main.c      ****     CyGlobalIntEnable;
  35              		.loc 1 47 0
  36              	@ 47 ".\main.c" 1
  37 0002 62B6     		CPSIE   i
  38              	@ 0 "" 2
  48:.\main.c      ****     Surtidor_Start();
  39              		.loc 1 48 0
  40              		.thumb
  41 0004 FFF7FEFF 		bl	Surtidor_Start
  42              	.LVL0:
  49:.\main.c      ****     Impresora_Start();
  43              		.loc 1 49 0
  44 0008 FFF7FEFF 		bl	Impresora_Start
  45              	.LVL1:
  50:.\main.c      ****     LCD_1_Start();
  46              		.loc 1 50 0
  47 000c FFF7FEFF 		bl	LCD_1_Start
  48              	.LVL2:
  51:.\main.c      ****     LCD_2_Start();
  49              		.loc 1 51 0
  50 0010 FFF7FEFF 		bl	LCD_2_Start
  51              	.LVL3:
  52:.\main.c      ****     Surtidor_EnableRxInt();    
  52              		.loc 1 52 0
  53 0014 FFF7FEFF 		bl	Surtidor_EnableRxInt
  54              	.LVL4:
  53:.\main.c      ****     I2C_1_Start();           
  55              		.loc 1 53 0
  56 0018 FFF7FEFF 		bl	I2C_1_Start
  57              	.LVL5:
  54:.\main.c      ****     CyDelay(5);	
  58              		.loc 1 54 0
  59 001c 0520     		movs	r0, #5
  60 001e FFF7FEFF 		bl	CyDelay
ARM GAS  C:\Users\IN-002~1\AppData\Local\Temp\ccN5KMQc.s 			page 3


  61              	.LVL6:
  55:.\main.c      ****     a_copias = 0;
  62              		.loc 1 55 0
  63 0022 0024     		movs	r4, #0
  64 0024 584B     		ldr	r3, .L68
  65 0026 1C70     		strb	r4, [r3]
  56:.\main.c      ****     no_imprime  = 0; //posA
  66              		.loc 1 56 0
  67 0028 584B     		ldr	r3, .L68+4
  68 002a 1C70     		strb	r4, [r3]
  57:.\main.c      ****     no_imprime2 = 0; //posB
  69              		.loc 1 57 0
  70 002c 584B     		ldr	r3, .L68+8
  71 002e 1C70     		strb	r4, [r3]
  58:.\main.c      ****     no_imprime3 = 0; //posC
  72              		.loc 1 58 0
  73 0030 584B     		ldr	r3, .L68+12
  74 0032 1C70     		strb	r4, [r3]
  59:.\main.c      ****     no_imprime4 = 0; //posD
  75              		.loc 1 59 0
  76 0034 584B     		ldr	r3, .L68+16
  77 0036 1C70     		strb	r4, [r3]
  60:.\main.c      ****     nombreproducto = 0;
  78              		.loc 1 60 0
  79 0038 584B     		ldr	r3, .L68+20
  80 003a 1C70     		strb	r4, [r3]
  61:.\main.c      ****     
  62:.\main.c      ****     /**** Lectura de los campos de la eeprom para inicializar variables ****/
  63:.\main.c      ****     
  64:.\main.c      ****     leer_eeprom(0,32);
  81              		.loc 1 64 0
  82 003c 2046     		mov	r0, r4
  83 003e 2021     		movs	r1, #32
  84 0040 FFF7FEFF 		bl	leer_eeprom
  85              	.LVL7:
  65:.\main.c      **** 	for(x=0;x<=buffer_i2c[0];x++){
  86              		.loc 1 65 0
  87 0044 564B     		ldr	r3, .L68+24
  88 0046 1C60     		str	r4, [r3]
  89 0048 06E0     		b	.L2
  90              	.L3:
  66:.\main.c      **** 		rventa.nombre[x]=buffer_i2c[x];                  //Nombre EDS 
  91              		.loc 1 66 0 discriminator 3
  92 004a 564A     		ldr	r2, .L68+28
  93 004c D15C     		ldrb	r1, [r2, r3]	@ zero_extendqisi2
  94 004e 564A     		ldr	r2, .L68+32
  95 0050 D154     		strb	r1, [r2, r3]
  65:.\main.c      **** 	for(x=0;x<=buffer_i2c[0];x++){
  96              		.loc 1 65 0 discriminator 3
  97 0052 0133     		adds	r3, r3, #1
  98 0054 524A     		ldr	r2, .L68+24
  99 0056 1360     		str	r3, [r2]
 100              	.L2:
  65:.\main.c      **** 	for(x=0;x<=buffer_i2c[0];x++){
 101              		.loc 1 65 0 is_stmt 0 discriminator 1
 102 0058 524B     		ldr	r3, .L68+28
 103 005a 1A78     		ldrb	r2, [r3]	@ zero_extendqisi2
ARM GAS  C:\Users\IN-002~1\AppData\Local\Temp\ccN5KMQc.s 			page 4


 104 005c 504B     		ldr	r3, .L68+24
 105 005e 1B68     		ldr	r3, [r3]
 106 0060 9A42     		cmp	r2, r3
 107 0062 F2D2     		bcs	.L3
  67:.\main.c      **** 	}
  68:.\main.c      **** 	leer_eeprom(32,15);
 108              		.loc 1 68 0 is_stmt 1
 109 0064 2020     		movs	r0, #32
 110 0066 0F21     		movs	r1, #15
 111 0068 FFF7FEFF 		bl	leer_eeprom
 112              	.LVL8:
  69:.\main.c      **** 	for(x=0;x<=buffer_i2c[0];x++){                       //Nit
 113              		.loc 1 69 0
 114 006c 0022     		movs	r2, #0
 115 006e 4C4B     		ldr	r3, .L68+24
 116 0070 1A60     		str	r2, [r3]
 117 0072 07E0     		b	.L4
 118              	.L5:
  70:.\main.c      **** 		rventa.nit[x]=buffer_i2c[x];
 119              		.loc 1 70 0 discriminator 3
 120 0074 4B4A     		ldr	r2, .L68+28
 121 0076 D15C     		ldrb	r1, [r2, r3]	@ zero_extendqisi2
 122 0078 4B4A     		ldr	r2, .L68+32
 123 007a 1A44     		add	r2, r2, r3
 124 007c 9177     		strb	r1, [r2, #30]
  69:.\main.c      **** 	for(x=0;x<=buffer_i2c[0];x++){                       //Nit
 125              		.loc 1 69 0 discriminator 3
 126 007e 0133     		adds	r3, r3, #1
 127 0080 474A     		ldr	r2, .L68+24
 128 0082 1360     		str	r3, [r2]
 129              	.L4:
  69:.\main.c      **** 	for(x=0;x<=buffer_i2c[0];x++){                       //Nit
 130              		.loc 1 69 0 is_stmt 0 discriminator 1
 131 0084 474B     		ldr	r3, .L68+28
 132 0086 1A78     		ldrb	r2, [r3]	@ zero_extendqisi2
 133 0088 454B     		ldr	r3, .L68+24
 134 008a 1B68     		ldr	r3, [r3]
 135 008c 9A42     		cmp	r2, r3
 136 008e F1D2     		bcs	.L5
  71:.\main.c      **** 	}
  72:.\main.c      ****     leer_eeprom(47,12);
 137              		.loc 1 72 0 is_stmt 1
 138 0090 2F20     		movs	r0, #47
 139 0092 0C21     		movs	r1, #12
 140 0094 FFF7FEFF 		bl	leer_eeprom
 141              	.LVL9:
  73:.\main.c      **** 	for(x=0;x<=buffer_i2c[0];x++){                       //Teléfono
 142              		.loc 1 73 0
 143 0098 0022     		movs	r2, #0
 144 009a 414B     		ldr	r3, .L68+24
 145 009c 1A60     		str	r2, [r3]
 146 009e 08E0     		b	.L6
 147              	.L7:
  74:.\main.c      **** 		rventa.telefono[x]=buffer_i2c[x];
 148              		.loc 1 74 0 discriminator 3
 149 00a0 404A     		ldr	r2, .L68+28
 150 00a2 D15C     		ldrb	r1, [r2, r3]	@ zero_extendqisi2
ARM GAS  C:\Users\IN-002~1\AppData\Local\Temp\ccN5KMQc.s 			page 5


 151 00a4 404A     		ldr	r2, .L68+32
 152 00a6 1A44     		add	r2, r2, r3
 153 00a8 82F82F10 		strb	r1, [r2, #47]
  73:.\main.c      **** 	for(x=0;x<=buffer_i2c[0];x++){                       //Teléfono
 154              		.loc 1 73 0 discriminator 3
 155 00ac 0133     		adds	r3, r3, #1
 156 00ae 3C4A     		ldr	r2, .L68+24
 157 00b0 1360     		str	r3, [r2]
 158              	.L6:
  73:.\main.c      **** 	for(x=0;x<=buffer_i2c[0];x++){                       //Teléfono
 159              		.loc 1 73 0 is_stmt 0 discriminator 1
 160 00b2 3C4B     		ldr	r3, .L68+28
 161 00b4 1A78     		ldrb	r2, [r3]	@ zero_extendqisi2
 162 00b6 3A4B     		ldr	r3, .L68+24
 163 00b8 1B68     		ldr	r3, [r3]
 164 00ba 9A42     		cmp	r2, r3
 165 00bc F0D2     		bcs	.L7
  75:.\main.c      **** 	}
  76:.\main.c      **** 	leer_eeprom(64,32);
 166              		.loc 1 76 0 is_stmt 1
 167 00be 4020     		movs	r0, #64
 168 00c0 2021     		movs	r1, #32
 169 00c2 FFF7FEFF 		bl	leer_eeprom
 170              	.LVL10:
  77:.\main.c      **** 	for(x=0;x<=buffer_i2c[0];x++){                       //Dirección
 171              		.loc 1 77 0
 172 00c6 0022     		movs	r2, #0
 173 00c8 354B     		ldr	r3, .L68+24
 174 00ca 1A60     		str	r2, [r3]
 175 00cc 08E0     		b	.L8
 176              	.L9:
  78:.\main.c      **** 		rventa.direccion[x]=buffer_i2c[x];
 177              		.loc 1 78 0 discriminator 3
 178 00ce 354A     		ldr	r2, .L68+28
 179 00d0 D15C     		ldrb	r1, [r2, r3]	@ zero_extendqisi2
 180 00d2 354A     		ldr	r2, .L68+32
 181 00d4 1A44     		add	r2, r2, r3
 182 00d6 82F84310 		strb	r1, [r2, #67]
  77:.\main.c      **** 	for(x=0;x<=buffer_i2c[0];x++){                       //Dirección
 183              		.loc 1 77 0 discriminator 3
 184 00da 0133     		adds	r3, r3, #1
 185 00dc 304A     		ldr	r2, .L68+24
 186 00de 1360     		str	r3, [r2]
 187              	.L8:
  77:.\main.c      **** 	for(x=0;x<=buffer_i2c[0];x++){                       //Dirección
 188              		.loc 1 77 0 is_stmt 0 discriminator 1
 189 00e0 304B     		ldr	r3, .L68+28
 190 00e2 1A78     		ldrb	r2, [r3]	@ zero_extendqisi2
 191 00e4 2E4B     		ldr	r3, .L68+24
 192 00e6 1B68     		ldr	r3, [r3]
 193 00e8 9A42     		cmp	r2, r3
 194 00ea F0D2     		bcs	.L9
  79:.\main.c      **** 	}
  80:.\main.c      ****     
  81:.\main.c      ****     leer_eeprom(96,9);                                   //Password
 195              		.loc 1 81 0 is_stmt 1
 196 00ec 6020     		movs	r0, #96
ARM GAS  C:\Users\IN-002~1\AppData\Local\Temp\ccN5KMQc.s 			page 6


 197 00ee 0921     		movs	r1, #9
 198 00f0 FFF7FEFF 		bl	leer_eeprom
 199              	.LVL11:
  82:.\main.c      **** 	if((buffer_i2c[0]<=0x09)&&(buffer_i2c[0]>=0x01)){     
 200              		.loc 1 82 0
 201 00f4 2B4B     		ldr	r3, .L68+28
 202 00f6 1878     		ldrb	r0, [r3]	@ zero_extendqisi2
 203 00f8 431E     		subs	r3, r0, #1
 204 00fa DBB2     		uxtb	r3, r3
 205 00fc 082B     		cmp	r3, #8
 206 00fe 14D8     		bhi	.L10
  83:.\main.c      **** 		for(x=0;x<=7;x++){
 207              		.loc 1 83 0
 208 0100 0022     		movs	r2, #0
 209 0102 274B     		ldr	r3, .L68+24
 210 0104 1A60     		str	r2, [r3]
 211 0106 08E0     		b	.L11
 212              	.L12:
  84:.\main.c      **** 			rventa.password[x+1]=buffer_i2c[x+1];
 213              		.loc 1 84 0 discriminator 3
 214 0108 0133     		adds	r3, r3, #1
 215 010a 264A     		ldr	r2, .L68+28
 216 010c D15C     		ldrb	r1, [r2, r3]	@ zero_extendqisi2
 217 010e 264A     		ldr	r2, .L68+32
 218 0110 1A44     		add	r2, r2, r3
 219 0112 82F8D710 		strb	r1, [r2, #215]
  83:.\main.c      **** 		for(x=0;x<=7;x++){
 220              		.loc 1 83 0 discriminator 3
 221 0116 224A     		ldr	r2, .L68+24
 222 0118 1360     		str	r3, [r2]
 223              	.L11:
  83:.\main.c      **** 		for(x=0;x<=7;x++){
 224              		.loc 1 83 0 is_stmt 0 discriminator 1
 225 011a 214B     		ldr	r3, .L68+24
 226 011c 1B68     		ldr	r3, [r3]
 227 011e 072B     		cmp	r3, #7
 228 0120 F2D9     		bls	.L12
  85:.\main.c      **** 		}
  86:.\main.c      **** 		rventa.password[0]=buffer_i2c[0];
 229              		.loc 1 86 0 is_stmt 1
 230 0122 214B     		ldr	r3, .L68+32
 231 0124 83F8D700 		strb	r0, [r3, #215]
 232 0128 0EE0     		b	.L13
 233              	.L10:
  87:.\main.c      **** 	}else{
  88:.\main.c      **** 		for(x=1;x<=8;x++){
 234              		.loc 1 88 0
 235 012a 0122     		movs	r2, #1
 236 012c 1C4B     		ldr	r3, .L68+24
 237 012e 1A60     		str	r2, [r3]
 238 0130 06E0     		b	.L14
 239              	.L15:
  89:.\main.c      **** 			rventa.password[x]=x;
 240              		.loc 1 89 0 discriminator 3
 241 0132 1D4A     		ldr	r2, .L68+32
 242 0134 1A44     		add	r2, r2, r3
 243 0136 82F8D730 		strb	r3, [r2, #215]
ARM GAS  C:\Users\IN-002~1\AppData\Local\Temp\ccN5KMQc.s 			page 7


  88:.\main.c      **** 			rventa.password[x]=x;
 244              		.loc 1 88 0 discriminator 3
 245 013a 0133     		adds	r3, r3, #1
 246 013c 184A     		ldr	r2, .L68+24
 247 013e 1360     		str	r3, [r2]
 248              	.L14:
  88:.\main.c      **** 			rventa.password[x]=x;
 249              		.loc 1 88 0 is_stmt 0 discriminator 1
 250 0140 174B     		ldr	r3, .L68+24
 251 0142 1B68     		ldr	r3, [r3]
 252 0144 082B     		cmp	r3, #8
 253 0146 F4D9     		bls	.L15
 254              	.L13:
  90:.\main.c      **** 		}	
  91:.\main.c      **** 	}
  92:.\main.c      ****     
  93:.\main.c      **** 	leer_eeprom(128,32);
 255              		.loc 1 93 0 is_stmt 1
 256 0148 8020     		movs	r0, #128
 257 014a 2021     		movs	r1, #32
 258 014c FFF7FEFF 		bl	leer_eeprom
 259              	.LVL12:
  94:.\main.c      **** 	for(x=0;x<=buffer_i2c[0];x++){                        //Lema 1
 260              		.loc 1 94 0
 261 0150 0022     		movs	r2, #0
 262 0152 134B     		ldr	r3, .L68+24
 263 0154 1A60     		str	r2, [r3]
 264 0156 08E0     		b	.L16
 265              	.L17:
  95:.\main.c      **** 		rventa.lema1[x]=buffer_i2c[x];
 266              		.loc 1 95 0 discriminator 3
 267 0158 124A     		ldr	r2, .L68+28
 268 015a D15C     		ldrb	r1, [r2, r3]	@ zero_extendqisi2
 269 015c 124A     		ldr	r2, .L68+32
 270 015e 1A44     		add	r2, r2, r3
 271 0160 82F86110 		strb	r1, [r2, #97]
  94:.\main.c      **** 	for(x=0;x<=buffer_i2c[0];x++){                        //Lema 1
 272              		.loc 1 94 0 discriminator 3
 273 0164 0133     		adds	r3, r3, #1
 274 0166 0E4A     		ldr	r2, .L68+24
 275 0168 1360     		str	r3, [r2]
 276              	.L16:
  94:.\main.c      **** 	for(x=0;x<=buffer_i2c[0];x++){                        //Lema 1
 277              		.loc 1 94 0 is_stmt 0 discriminator 1
 278 016a 0E4B     		ldr	r3, .L68+28
 279 016c 1A78     		ldrb	r2, [r3]	@ zero_extendqisi2
 280 016e 0C4B     		ldr	r3, .L68+24
 281 0170 1B68     		ldr	r3, [r3]
 282 0172 9A42     		cmp	r2, r3
 283 0174 F0D2     		bcs	.L17
  96:.\main.c      **** 	}	
  97:.\main.c      **** 	leer_eeprom(160,32);                                  //Lema 2
 284              		.loc 1 97 0 is_stmt 1
 285 0176 A020     		movs	r0, #160
 286 0178 2021     		movs	r1, #32
 287 017a FFF7FEFF 		bl	leer_eeprom
 288              	.LVL13:
ARM GAS  C:\Users\IN-002~1\AppData\Local\Temp\ccN5KMQc.s 			page 8


  98:.\main.c      **** 	for(x=0;x<=buffer_i2c[0];x++){
 289              		.loc 1 98 0
 290 017e 0022     		movs	r2, #0
 291 0180 074B     		ldr	r3, .L68+24
 292 0182 1A60     		str	r2, [r3]
 293 0184 1BE0     		b	.L18
 294              	.L69:
 295 0186 00BF     		.align	2
 296              	.L68:
 297 0188 00000000 		.word	a_copias
 298 018c 00000000 		.word	no_imprime
 299 0190 00000000 		.word	no_imprime2
 300 0194 00000000 		.word	no_imprime3
 301 0198 00000000 		.word	no_imprime4
 302 019c 00000000 		.word	nombreproducto
 303 01a0 00000000 		.word	x
 304 01a4 00000000 		.word	buffer_i2c
 305 01a8 00000000 		.word	rventa
 306              	.L19:
  99:.\main.c      **** 		rventa.lema2[x]=buffer_i2c[x];
 307              		.loc 1 99 0 discriminator 3
 308 01ac 964A     		ldr	r2, .L70
 309 01ae D15C     		ldrb	r1, [r2, r3]	@ zero_extendqisi2
 310 01b0 964A     		ldr	r2, .L70+4
 311 01b2 1A44     		add	r2, r2, r3
 312 01b4 82F87F10 		strb	r1, [r2, #127]
  98:.\main.c      **** 	for(x=0;x<=buffer_i2c[0];x++){
 313              		.loc 1 98 0 discriminator 3
 314 01b8 0133     		adds	r3, r3, #1
 315 01ba 954A     		ldr	r2, .L70+8
 316 01bc 1360     		str	r3, [r2]
 317              	.L18:
  98:.\main.c      **** 	for(x=0;x<=buffer_i2c[0];x++){
 318              		.loc 1 98 0 is_stmt 0 discriminator 1
 319 01be 924B     		ldr	r3, .L70
 320 01c0 1A78     		ldrb	r2, [r3]	@ zero_extendqisi2
 321 01c2 934B     		ldr	r3, .L70+8
 322 01c4 1B68     		ldr	r3, [r3]
 323 01c6 9A42     		cmp	r2, r3
 324 01c8 F0D2     		bcs	.L19
 100:.\main.c      **** 	}	
 101:.\main.c      ****     
 102:.\main.c      ****     leer_eeprom(442,2);                                // Version del equipo
 325              		.loc 1 102 0 is_stmt 1
 326 01ca 4FF4DD70 		mov	r0, #442
 327 01ce 0221     		movs	r1, #2
 328 01d0 FFF7FEFF 		bl	leer_eeprom
 329              	.LVL14:
 103:.\main.c      **** 	if(buffer_i2c[0]==5){
 330              		.loc 1 103 0
 331 01d4 8C4B     		ldr	r3, .L70
 332 01d6 1B78     		ldrb	r3, [r3]	@ zero_extendqisi2
 333 01d8 052B     		cmp	r3, #5
 334 01da 05D1     		bne	.L20
 104:.\main.c      **** 		 versurt=(buffer_i2c[1]&0x0f);
 335              		.loc 1 104 0
 336 01dc 8A4B     		ldr	r3, .L70
ARM GAS  C:\Users\IN-002~1\AppData\Local\Temp\ccN5KMQc.s 			page 9


 337 01de 5B78     		ldrb	r3, [r3, #1]	@ zero_extendqisi2
 338 01e0 03F00F03 		and	r3, r3, #15
 339 01e4 8B4A     		ldr	r2, .L70+12
 340 01e6 1370     		strb	r3, [r2]
 341              	.L20:
 105:.\main.c      **** 	}
 106:.\main.c      ****     
 107:.\main.c      ****     leer_eeprom(449,2);
 342              		.loc 1 107 0
 343 01e8 40F2C110 		movw	r0, #449
 344 01ec 0221     		movs	r1, #2
 345 01ee FFF7FEFF 		bl	leer_eeprom
 346              	.LVL15:
 108:.\main.c      **** 	if(buffer_i2c[0]>=1){
 347              		.loc 1 108 0
 348 01f2 854B     		ldr	r3, .L70
 349 01f4 1B78     		ldrb	r3, [r3]	@ zero_extendqisi2
 350 01f6 1BB1     		cbz	r3, .L21
 109:.\main.c      **** 		producto3=buffer_i2c[1];
 351              		.loc 1 109 0
 352 01f8 834B     		ldr	r3, .L70
 353 01fa 5A78     		ldrb	r2, [r3, #1]	@ zero_extendqisi2
 354 01fc 864B     		ldr	r3, .L70+16
 355 01fe 1A70     		strb	r2, [r3]
 356              	.L21:
 110:.\main.c      **** 	}
 111:.\main.c      ****     
 112:.\main.c      **** 	leer_eeprom(451,2);                     
 357              		.loc 1 112 0
 358 0200 40F2C310 		movw	r0, #451
 359 0204 0221     		movs	r1, #2
 360 0206 FFF7FEFF 		bl	leer_eeprom
 361              	.LVL16:
 113:.\main.c      **** 	if(buffer_i2c[0]>=1){                               //Grados de los productos
 362              		.loc 1 113 0
 363 020a 7F4B     		ldr	r3, .L70
 364 020c 1B78     		ldrb	r3, [r3]	@ zero_extendqisi2
 365 020e 1BB1     		cbz	r3, .L22
 114:.\main.c      **** 		producto1=buffer_i2c[1];
 366              		.loc 1 114 0
 367 0210 7D4B     		ldr	r3, .L70
 368 0212 5A78     		ldrb	r2, [r3, #1]	@ zero_extendqisi2
 369 0214 814B     		ldr	r3, .L70+20
 370 0216 1A70     		strb	r2, [r3]
 371              	.L22:
 115:.\main.c      **** 	}
 116:.\main.c      ****     leer_eeprom(453,2);
 372              		.loc 1 116 0
 373 0218 40F2C510 		movw	r0, #453
 374 021c 0221     		movs	r1, #2
 375 021e FFF7FEFF 		bl	leer_eeprom
 376              	.LVL17:
 117:.\main.c      **** 	if(buffer_i2c[0]>=1){
 377              		.loc 1 117 0
 378 0222 794B     		ldr	r3, .L70
 379 0224 1B78     		ldrb	r3, [r3]	@ zero_extendqisi2
 380 0226 1BB1     		cbz	r3, .L23
ARM GAS  C:\Users\IN-002~1\AppData\Local\Temp\ccN5KMQc.s 			page 10


 118:.\main.c      **** 		producto2=buffer_i2c[1];
 381              		.loc 1 118 0
 382 0228 774B     		ldr	r3, .L70
 383 022a 5A78     		ldrb	r2, [r3, #1]	@ zero_extendqisi2
 384 022c 7C4B     		ldr	r3, .L70+24
 385 022e 1A70     		strb	r2, [r3]
 386              	.L23:
 119:.\main.c      **** 	}
 120:.\main.c      **** 		
 121:.\main.c      ****     leer_eeprom(1006,2);
 387              		.loc 1 121 0
 388 0230 40F2EE30 		movw	r0, #1006
 389 0234 0221     		movs	r1, #2
 390 0236 FFF7FEFF 		bl	leer_eeprom
 391              	.LVL18:
 122:.\main.c      **** 	if(buffer_i2c[0]>=1){
 392              		.loc 1 122 0
 393 023a 734B     		ldr	r3, .L70
 394 023c 1B78     		ldrb	r3, [r3]	@ zero_extendqisi2
 395 023e 1BB1     		cbz	r3, .L24
 123:.\main.c      **** 		producto4=buffer_i2c[1];                        //Grados de los productos
 396              		.loc 1 123 0
 397 0240 714B     		ldr	r3, .L70
 398 0242 5A78     		ldrb	r2, [r3, #1]	@ zero_extendqisi2
 399 0244 774B     		ldr	r3, .L70+28
 400 0246 1A70     		strb	r2, [r3]
 401              	.L24:
 124:.\main.c      **** 	}			    
 125:.\main.c      ****     
 126:.\main.c      ****     leer_eeprom(636,2);                                //Grados productos 2do lado
 402              		.loc 1 126 0
 403 0248 4FF41F70 		mov	r0, #636
 404 024c 0221     		movs	r1, #2
 405 024e FFF7FEFF 		bl	leer_eeprom
 406              	.LVL19:
 127:.\main.c      **** 	if(buffer_i2c[0]>=1){
 407              		.loc 1 127 0
 408 0252 6D4B     		ldr	r3, .L70
 409 0254 1B78     		ldrb	r3, [r3]	@ zero_extendqisi2
 410 0256 1BB1     		cbz	r3, .L25
 128:.\main.c      **** 		producto1b=buffer_i2c[1];
 411              		.loc 1 128 0
 412 0258 6B4B     		ldr	r3, .L70
 413 025a 5A78     		ldrb	r2, [r3, #1]	@ zero_extendqisi2
 414 025c 724B     		ldr	r3, .L70+32
 415 025e 1A70     		strb	r2, [r3]
 416              	.L25:
 129:.\main.c      **** 	}
 130:.\main.c      **** 	leer_eeprom(634,2);
 417              		.loc 1 130 0
 418 0260 40F27A20 		movw	r0, #634
 419 0264 0221     		movs	r1, #2
 420 0266 FFF7FEFF 		bl	leer_eeprom
 421              	.LVL20:
 131:.\main.c      **** 	if(buffer_i2c[0]>=1){
 422              		.loc 1 131 0
 423 026a 674B     		ldr	r3, .L70
ARM GAS  C:\Users\IN-002~1\AppData\Local\Temp\ccN5KMQc.s 			page 11


 424 026c 1B78     		ldrb	r3, [r3]	@ zero_extendqisi2
 425 026e 1BB1     		cbz	r3, .L26
 132:.\main.c      **** 		producto3b = buffer_i2c[1];
 426              		.loc 1 132 0
 427 0270 654B     		ldr	r3, .L70
 428 0272 5A78     		ldrb	r2, [r3, #1]	@ zero_extendqisi2
 429 0274 6D4B     		ldr	r3, .L70+36
 430 0276 1A70     		strb	r2, [r3]
 431              	.L26:
 133:.\main.c      **** 	}
 134:.\main.c      **** 	leer_eeprom(638,2);
 432              		.loc 1 134 0
 433 0278 40F27E20 		movw	r0, #638
 434 027c 0221     		movs	r1, #2
 435 027e FFF7FEFF 		bl	leer_eeprom
 436              	.LVL21:
 135:.\main.c      **** 	if(buffer_i2c[0]>=1){
 437              		.loc 1 135 0
 438 0282 614B     		ldr	r3, .L70
 439 0284 1B78     		ldrb	r3, [r3]	@ zero_extendqisi2
 440 0286 1BB1     		cbz	r3, .L27
 136:.\main.c      **** 	    producto2b=buffer_i2c[1];
 441              		.loc 1 136 0
 442 0288 5F4B     		ldr	r3, .L70
 443 028a 5A78     		ldrb	r2, [r3, #1]	@ zero_extendqisi2
 444 028c 684B     		ldr	r3, .L70+40
 445 028e 1A70     		strb	r2, [r3]
 446              	.L27:
 137:.\main.c      **** 	}
 138:.\main.c      ****     leer_eeprom(1008,2);
 447              		.loc 1 138 0
 448 0290 4FF47C70 		mov	r0, #1008
 449 0294 0221     		movs	r1, #2
 450 0296 FFF7FEFF 		bl	leer_eeprom
 451              	.LVL22:
 139:.\main.c      **** 	if(buffer_i2c[0]>=1){
 452              		.loc 1 139 0
 453 029a 5B4B     		ldr	r3, .L70
 454 029c 1B78     		ldrb	r3, [r3]	@ zero_extendqisi2
 455 029e 1BB1     		cbz	r3, .L28
 140:.\main.c      **** 		producto4b=buffer_i2c[1];                      //Grados productos 2do lado
 456              		.loc 1 140 0
 457 02a0 594B     		ldr	r3, .L70
 458 02a2 5A78     		ldrb	r2, [r3, #1]	@ zero_extendqisi2
 459 02a4 634B     		ldr	r3, .L70+44
 460 02a6 1A70     		strb	r2, [r3]
 461              	.L28:
 141:.\main.c      **** 	}
 142:.\main.c      ****     
 143:.\main.c      ****     leer_eeprom(1176,2);
 462              		.loc 1 143 0
 463 02a8 4FF49360 		mov	r0, #1176
 464 02ac 0221     		movs	r1, #2
 465 02ae FFF7FEFF 		bl	leer_eeprom
 466              	.LVL23:
 144:.\main.c      **** 	if(buffer_i2c[0]>=1){
 467              		.loc 1 144 0
ARM GAS  C:\Users\IN-002~1\AppData\Local\Temp\ccN5KMQc.s 			page 12


 468 02b2 554B     		ldr	r3, .L70
 469 02b4 1B78     		ldrb	r3, [r3]	@ zero_extendqisi2
 470 02b6 1BB1     		cbz	r3, .L29
 145:.\main.c      **** 		producto1c=buffer_i2c[1];                      //Grados productos 3er lado
 471              		.loc 1 145 0
 472 02b8 534B     		ldr	r3, .L70
 473 02ba 5A78     		ldrb	r2, [r3, #1]	@ zero_extendqisi2
 474 02bc 5E4B     		ldr	r3, .L70+48
 475 02be 1A70     		strb	r2, [r3]
 476              	.L29:
 146:.\main.c      **** 	}
 147:.\main.c      ****     
 148:.\main.c      ****     leer_eeprom(1178,2);
 477              		.loc 1 148 0
 478 02c0 40F29A40 		movw	r0, #1178
 479 02c4 0221     		movs	r1, #2
 480 02c6 FFF7FEFF 		bl	leer_eeprom
 481              	.LVL24:
 149:.\main.c      **** 	if(buffer_i2c[0]>=1){
 482              		.loc 1 149 0
 483 02ca 4F4B     		ldr	r3, .L70
 484 02cc 1B78     		ldrb	r3, [r3]	@ zero_extendqisi2
 485 02ce 1BB1     		cbz	r3, .L30
 150:.\main.c      **** 		producto2c=buffer_i2c[1];                      //Grados productos 3er lado
 486              		.loc 1 150 0
 487 02d0 4D4B     		ldr	r3, .L70
 488 02d2 5A78     		ldrb	r2, [r3, #1]	@ zero_extendqisi2
 489 02d4 594B     		ldr	r3, .L70+52
 490 02d6 1A70     		strb	r2, [r3]
 491              	.L30:
 151:.\main.c      **** 	}
 152:.\main.c      ****     leer_eeprom(1180,2);
 492              		.loc 1 152 0
 493 02d8 40F29C40 		movw	r0, #1180
 494 02dc 0221     		movs	r1, #2
 495 02de FFF7FEFF 		bl	leer_eeprom
 496              	.LVL25:
 153:.\main.c      **** 	if(buffer_i2c[0]>=1){
 497              		.loc 1 153 0
 498 02e2 494B     		ldr	r3, .L70
 499 02e4 1B78     		ldrb	r3, [r3]	@ zero_extendqisi2
 500 02e6 1BB1     		cbz	r3, .L31
 154:.\main.c      **** 		producto3c=buffer_i2c[1];                      //Grados productos 3er lado
 501              		.loc 1 154 0
 502 02e8 474B     		ldr	r3, .L70
 503 02ea 5A78     		ldrb	r2, [r3, #1]	@ zero_extendqisi2
 504 02ec 544B     		ldr	r3, .L70+56
 505 02ee 1A70     		strb	r2, [r3]
 506              	.L31:
 155:.\main.c      **** 	}
 156:.\main.c      ****     leer_eeprom(1182,2);
 507              		.loc 1 156 0
 508 02f0 40F29E40 		movw	r0, #1182
 509 02f4 0221     		movs	r1, #2
 510 02f6 FFF7FEFF 		bl	leer_eeprom
 511              	.LVL26:
 157:.\main.c      **** 	if(buffer_i2c[0]>=1){
ARM GAS  C:\Users\IN-002~1\AppData\Local\Temp\ccN5KMQc.s 			page 13


 512              		.loc 1 157 0
 513 02fa 434B     		ldr	r3, .L70
 514 02fc 1B78     		ldrb	r3, [r3]	@ zero_extendqisi2
 515 02fe 1BB1     		cbz	r3, .L32
 158:.\main.c      **** 		producto4c=buffer_i2c[1];                      //Grados productos 3er lado
 516              		.loc 1 158 0
 517 0300 414B     		ldr	r3, .L70
 518 0302 5A78     		ldrb	r2, [r3, #1]	@ zero_extendqisi2
 519 0304 4F4B     		ldr	r3, .L70+60
 520 0306 1A70     		strb	r2, [r3]
 521              	.L32:
 159:.\main.c      **** 	}
 160:.\main.c      ****     leer_eeprom(1184,2);
 522              		.loc 1 160 0
 523 0308 4FF49460 		mov	r0, #1184
 524 030c 0221     		movs	r1, #2
 525 030e FFF7FEFF 		bl	leer_eeprom
 526              	.LVL27:
 161:.\main.c      **** 	if(buffer_i2c[0]>=1){
 527              		.loc 1 161 0
 528 0312 3D4B     		ldr	r3, .L70
 529 0314 1B78     		ldrb	r3, [r3]	@ zero_extendqisi2
 530 0316 1BB1     		cbz	r3, .L33
 162:.\main.c      **** 		producto1d=buffer_i2c[1];                      //Grados productos 4to lado
 531              		.loc 1 162 0
 532 0318 3B4B     		ldr	r3, .L70
 533 031a 5A78     		ldrb	r2, [r3, #1]	@ zero_extendqisi2
 534 031c 4A4B     		ldr	r3, .L70+64
 535 031e 1A70     		strb	r2, [r3]
 536              	.L33:
 163:.\main.c      **** 	}
 164:.\main.c      ****     leer_eeprom(1186,2);
 537              		.loc 1 164 0
 538 0320 40F2A240 		movw	r0, #1186
 539 0324 0221     		movs	r1, #2
 540 0326 FFF7FEFF 		bl	leer_eeprom
 541              	.LVL28:
 165:.\main.c      **** 	if(buffer_i2c[0]>=1){
 542              		.loc 1 165 0
 543 032a 374B     		ldr	r3, .L70
 544 032c 1B78     		ldrb	r3, [r3]	@ zero_extendqisi2
 545 032e 1BB1     		cbz	r3, .L34
 166:.\main.c      **** 		producto2d=buffer_i2c[1];                      //Grados productos 4to lado
 546              		.loc 1 166 0
 547 0330 354B     		ldr	r3, .L70
 548 0332 5A78     		ldrb	r2, [r3, #1]	@ zero_extendqisi2
 549 0334 454B     		ldr	r3, .L70+68
 550 0336 1A70     		strb	r2, [r3]
 551              	.L34:
 167:.\main.c      **** 	}
 168:.\main.c      ****     leer_eeprom(1188,2);
 552              		.loc 1 168 0
 553 0338 40F2A440 		movw	r0, #1188
 554 033c 0221     		movs	r1, #2
 555 033e FFF7FEFF 		bl	leer_eeprom
 556              	.LVL29:
 169:.\main.c      **** 	if(buffer_i2c[0]>=1){
ARM GAS  C:\Users\IN-002~1\AppData\Local\Temp\ccN5KMQc.s 			page 14


 557              		.loc 1 169 0
 558 0342 314B     		ldr	r3, .L70
 559 0344 1B78     		ldrb	r3, [r3]	@ zero_extendqisi2
 560 0346 1BB1     		cbz	r3, .L35
 170:.\main.c      **** 		producto3d=buffer_i2c[1];                      //Grados productos 4to lado
 561              		.loc 1 170 0
 562 0348 2F4B     		ldr	r3, .L70
 563 034a 5A78     		ldrb	r2, [r3, #1]	@ zero_extendqisi2
 564 034c 404B     		ldr	r3, .L70+72
 565 034e 1A70     		strb	r2, [r3]
 566              	.L35:
 171:.\main.c      **** 	}
 172:.\main.c      ****     leer_eeprom(1190,2);
 567              		.loc 1 172 0
 568 0350 40F2A640 		movw	r0, #1190
 569 0354 0221     		movs	r1, #2
 570 0356 FFF7FEFF 		bl	leer_eeprom
 571              	.LVL30:
 173:.\main.c      **** 	if(buffer_i2c[0]>=1){
 572              		.loc 1 173 0
 573 035a 2B4B     		ldr	r3, .L70
 574 035c 1B78     		ldrb	r3, [r3]	@ zero_extendqisi2
 575 035e 1BB1     		cbz	r3, .L36
 174:.\main.c      **** 		producto4d=buffer_i2c[1];                      //Grados productos 4to lado
 576              		.loc 1 174 0
 577 0360 294B     		ldr	r3, .L70
 578 0362 5A78     		ldrb	r2, [r3, #1]	@ zero_extendqisi2
 579 0364 3B4B     		ldr	r3, .L70+76
 580 0366 1A70     		strb	r2, [r3]
 581              	.L36:
 175:.\main.c      **** 	}
 176:.\main.c      ****     leer_eeprom(671,5);
 582              		.loc 1 176 0
 583 0368 40F29F20 		movw	r0, #671
 584 036c 0521     		movs	r1, #5
 585 036e FFF7FEFF 		bl	leer_eeprom
 586              	.LVL31:
 177:.\main.c      **** 	if(buffer_i2c[0]==4){
 587              		.loc 1 177 0
 588 0372 254B     		ldr	r3, .L70
 589 0374 1878     		ldrb	r0, [r3]	@ zero_extendqisi2
 590 0376 0428     		cmp	r0, #4
 591 0378 10D1     		bne	.L37
 178:.\main.c      **** 		for(x=1;x<=4;x++){                             //Password cierre de turno
 592              		.loc 1 178 0
 593 037a 0122     		movs	r2, #1
 594 037c 244B     		ldr	r3, .L70+8
 595 037e 1A60     		str	r2, [r3]
 596 0380 06E0     		b	.L38
 597              	.L39:
 179:.\main.c      **** 			pasword_corte[x]=buffer_i2c[x];
 598              		.loc 1 179 0 discriminator 3
 599 0382 214A     		ldr	r2, .L70
 600 0384 D15C     		ldrb	r1, [r2, r3]	@ zero_extendqisi2
 601 0386 344A     		ldr	r2, .L70+80
 602 0388 D154     		strb	r1, [r2, r3]
 178:.\main.c      **** 		for(x=1;x<=4;x++){                             //Password cierre de turno
ARM GAS  C:\Users\IN-002~1\AppData\Local\Temp\ccN5KMQc.s 			page 15


 603              		.loc 1 178 0 discriminator 3
 604 038a 0133     		adds	r3, r3, #1
 605 038c 204A     		ldr	r2, .L70+8
 606 038e 1360     		str	r3, [r2]
 607              	.L38:
 178:.\main.c      **** 		for(x=1;x<=4;x++){                             //Password cierre de turno
 608              		.loc 1 178 0 is_stmt 0 discriminator 1
 609 0390 1F4B     		ldr	r3, .L70+8
 610 0392 1B68     		ldr	r3, [r3]
 611 0394 042B     		cmp	r3, #4
 612 0396 F4D9     		bls	.L39
 180:.\main.c      **** 		}
 181:.\main.c      **** 		pasword_corte[0]=buffer_i2c[0];
 613              		.loc 1 181 0 is_stmt 1
 614 0398 2F4B     		ldr	r3, .L70+80
 615 039a 1870     		strb	r0, [r3]
 616              	.L37:
 182:.\main.c      **** 	}
 183:.\main.c      ****     
 184:.\main.c      ****     leer_eeprom(1130,10);
 617              		.loc 1 184 0
 618 039c 40F26A40 		movw	r0, #1130
 619 03a0 0A21     		movs	r1, #10
 620 03a2 FFF7FEFF 		bl	leer_eeprom
 621              	.LVL32:
 185:.\main.c      ****     for(x=0;x<=buffer_i2c[0];x++){                      //Carga nombre producto 1
 622              		.loc 1 185 0
 623 03a6 0022     		movs	r2, #0
 624 03a8 194B     		ldr	r3, .L70+8
 625 03aa 1A60     		str	r2, [r3]
 626 03ac 06E0     		b	.L40
 627              	.L41:
 186:.\main.c      **** 		producto1n[x]=buffer_i2c[x]; 
 628              		.loc 1 186 0 discriminator 3
 629 03ae 164A     		ldr	r2, .L70
 630 03b0 D15C     		ldrb	r1, [r2, r3]	@ zero_extendqisi2
 631 03b2 2A4A     		ldr	r2, .L70+84
 632 03b4 D154     		strb	r1, [r2, r3]
 185:.\main.c      ****     for(x=0;x<=buffer_i2c[0];x++){                      //Carga nombre producto 1
 633              		.loc 1 185 0 discriminator 3
 634 03b6 0133     		adds	r3, r3, #1
 635 03b8 154A     		ldr	r2, .L70+8
 636 03ba 1360     		str	r3, [r2]
 637              	.L40:
 185:.\main.c      ****     for(x=0;x<=buffer_i2c[0];x++){                      //Carga nombre producto 1
 638              		.loc 1 185 0 is_stmt 0 discriminator 1
 639 03bc 124B     		ldr	r3, .L70
 640 03be 1A78     		ldrb	r2, [r3]	@ zero_extendqisi2
 641 03c0 134B     		ldr	r3, .L70+8
 642 03c2 1B68     		ldr	r3, [r3]
 643 03c4 9A42     		cmp	r2, r3
 644 03c6 F2D2     		bcs	.L41
 187:.\main.c      **** 	}
 188:.\main.c      ****     leer_eeprom(1141,10);
 645              		.loc 1 188 0 is_stmt 1
 646 03c8 40F27540 		movw	r0, #1141
 647 03cc 0A21     		movs	r1, #10
ARM GAS  C:\Users\IN-002~1\AppData\Local\Temp\ccN5KMQc.s 			page 16


 648 03ce FFF7FEFF 		bl	leer_eeprom
 649              	.LVL33:
 189:.\main.c      ****     for(x=0;x<=buffer_i2c[0];x++){                      //Carga nombre producto 2
 650              		.loc 1 189 0
 651 03d2 0022     		movs	r2, #0
 652 03d4 0E4B     		ldr	r3, .L70+8
 653 03d6 1A60     		str	r2, [r3]
 654 03d8 06E0     		b	.L42
 655              	.L43:
 190:.\main.c      **** 		producto2n[x]=buffer_i2c[x];
 656              		.loc 1 190 0 discriminator 3
 657 03da 0B4A     		ldr	r2, .L70
 658 03dc D15C     		ldrb	r1, [r2, r3]	@ zero_extendqisi2
 659 03de 204A     		ldr	r2, .L70+88
 660 03e0 D154     		strb	r1, [r2, r3]
 189:.\main.c      ****     for(x=0;x<=buffer_i2c[0];x++){                      //Carga nombre producto 2
 661              		.loc 1 189 0 discriminator 3
 662 03e2 0133     		adds	r3, r3, #1
 663 03e4 0A4A     		ldr	r2, .L70+8
 664 03e6 1360     		str	r3, [r2]
 665              	.L42:
 189:.\main.c      ****     for(x=0;x<=buffer_i2c[0];x++){                      //Carga nombre producto 2
 666              		.loc 1 189 0 is_stmt 0 discriminator 1
 667 03e8 074B     		ldr	r3, .L70
 668 03ea 1A78     		ldrb	r2, [r3]	@ zero_extendqisi2
 669 03ec 084B     		ldr	r3, .L70+8
 670 03ee 1B68     		ldr	r3, [r3]
 671 03f0 9A42     		cmp	r2, r3
 672 03f2 F2D2     		bcs	.L43
 191:.\main.c      **** 	}
 192:.\main.c      ****     leer_eeprom(1500,10);
 673              		.loc 1 192 0 is_stmt 1
 674 03f4 40F2DC50 		movw	r0, #1500
 675 03f8 0A21     		movs	r1, #10
 676 03fa FFF7FEFF 		bl	leer_eeprom
 677              	.LVL34:
 193:.\main.c      ****     for(x=0;x<=buffer_i2c[0];x++){                     //Carga nombre producto 3
 678              		.loc 1 193 0
 679 03fe 0022     		movs	r2, #0
 680 0400 034B     		ldr	r3, .L70+8
 681 0402 1A60     		str	r2, [r3]
 682 0404 35E0     		b	.L44
 683              	.L71:
 684 0406 00BF     		.align	2
 685              	.L70:
 686 0408 00000000 		.word	buffer_i2c
 687 040c 00000000 		.word	rventa
 688 0410 00000000 		.word	x
 689 0414 00000000 		.word	versurt
 690 0418 00000000 		.word	producto3
 691 041c 00000000 		.word	producto1
 692 0420 00000000 		.word	producto2
 693 0424 00000000 		.word	producto4
 694 0428 00000000 		.word	producto1b
 695 042c 00000000 		.word	producto3b
 696 0430 00000000 		.word	producto2b
 697 0434 00000000 		.word	producto4b
ARM GAS  C:\Users\IN-002~1\AppData\Local\Temp\ccN5KMQc.s 			page 17


 698 0438 00000000 		.word	producto1c
 699 043c 00000000 		.word	producto2c
 700 0440 00000000 		.word	producto3c
 701 0444 00000000 		.word	producto4c
 702 0448 00000000 		.word	producto1d
 703 044c 00000000 		.word	producto2d
 704 0450 00000000 		.word	producto3d
 705 0454 00000000 		.word	producto4d
 706 0458 00000000 		.word	.LANCHOR0
 707 045c 00000000 		.word	producto1n
 708 0460 00000000 		.word	producto2n
 709              	.L45:
 194:.\main.c      **** 		producto3n[x]=buffer_i2c[x];
 710              		.loc 1 194 0 discriminator 3
 711 0464 8E4A     		ldr	r2, .L72
 712 0466 D15C     		ldrb	r1, [r2, r3]	@ zero_extendqisi2
 713 0468 8E4A     		ldr	r2, .L72+4
 714 046a D154     		strb	r1, [r2, r3]
 193:.\main.c      ****     for(x=0;x<=buffer_i2c[0];x++){                     //Carga nombre producto 3
 715              		.loc 1 193 0 discriminator 3
 716 046c 0133     		adds	r3, r3, #1
 717 046e 8E4A     		ldr	r2, .L72+8
 718 0470 1360     		str	r3, [r2]
 719              	.L44:
 193:.\main.c      ****     for(x=0;x<=buffer_i2c[0];x++){                     //Carga nombre producto 3
 720              		.loc 1 193 0 is_stmt 0 discriminator 1
 721 0472 8B4B     		ldr	r3, .L72
 722 0474 1A78     		ldrb	r2, [r3]	@ zero_extendqisi2
 723 0476 8C4B     		ldr	r3, .L72+8
 724 0478 1B68     		ldr	r3, [r3]
 725 047a 9A42     		cmp	r2, r3
 726 047c F2D2     		bcs	.L45
 195:.\main.c      **** 	}
 196:.\main.c      ****     leer_eeprom(1163,10);
 727              		.loc 1 196 0 is_stmt 1
 728 047e 40F28B40 		movw	r0, #1163
 729 0482 0A21     		movs	r1, #10
 730 0484 FFF7FEFF 		bl	leer_eeprom
 731              	.LVL35:
 197:.\main.c      ****     for(x=0;x<=buffer_i2c[0];x++){                     //Carga nombre producto 4
 732              		.loc 1 197 0
 733 0488 0022     		movs	r2, #0
 734 048a 874B     		ldr	r3, .L72+8
 735 048c 1A60     		str	r2, [r3]
 736 048e 06E0     		b	.L46
 737              	.L47:
 198:.\main.c      **** 		producto4n[x]=buffer_i2c[x];
 738              		.loc 1 198 0 discriminator 3
 739 0490 834A     		ldr	r2, .L72
 740 0492 D15C     		ldrb	r1, [r2, r3]	@ zero_extendqisi2
 741 0494 854A     		ldr	r2, .L72+12
 742 0496 D154     		strb	r1, [r2, r3]
 197:.\main.c      ****     for(x=0;x<=buffer_i2c[0];x++){                     //Carga nombre producto 4
 743              		.loc 1 197 0 discriminator 3
 744 0498 0133     		adds	r3, r3, #1
 745 049a 834A     		ldr	r2, .L72+8
 746 049c 1360     		str	r3, [r2]
ARM GAS  C:\Users\IN-002~1\AppData\Local\Temp\ccN5KMQc.s 			page 18


 747              	.L46:
 197:.\main.c      ****     for(x=0;x<=buffer_i2c[0];x++){                     //Carga nombre producto 4
 748              		.loc 1 197 0 is_stmt 0 discriminator 1
 749 049e 804B     		ldr	r3, .L72
 750 04a0 1A78     		ldrb	r2, [r3]	@ zero_extendqisi2
 751 04a2 814B     		ldr	r3, .L72+8
 752 04a4 1B68     		ldr	r3, [r3]
 753 04a6 9A42     		cmp	r2, r3
 754 04a8 F2D2     		bcs	.L47
 199:.\main.c      **** 	}
 200:.\main.c      ****     leer_eeprom(1174,2);
 755              		.loc 1 200 0 is_stmt 1
 756 04aa 40F29640 		movw	r0, #1174
 757 04ae 0221     		movs	r1, #2
 758 04b0 FFF7FEFF 		bl	leer_eeprom
 759              	.LVL36:
 201:.\main.c      ****     if(buffer_i2c[0]>=1){                    //Carga cantidad de copias
 760              		.loc 1 201 0
 761 04b4 7A4B     		ldr	r3, .L72
 762 04b6 1B78     		ldrb	r3, [r3]	@ zero_extendqisi2
 763 04b8 0BB1     		cbz	r3, .L48
 202:.\main.c      **** 		n_copias[0]=buffer_i2c[0];        
 764              		.loc 1 202 0
 765 04ba 7D4A     		ldr	r2, .L72+16
 766 04bc 1370     		strb	r3, [r2]
 767              	.L48:
 203:.\main.c      **** 	}
 204:.\main.c      **** 		     
 205:.\main.c      **** 	leer_eeprom(602,6);
 768              		.loc 1 205 0
 769 04be 40F25A20 		movw	r0, #602
 770 04c2 0621     		movs	r1, #6
 771 04c4 FFF7FEFF 		bl	leer_eeprom
 772              	.LVL37:
 206:.\main.c      **** 	if(buffer_i2c[0]==5){
 773              		.loc 1 206 0
 774 04c8 754B     		ldr	r3, .L72
 775 04ca 1B78     		ldrb	r3, [r3]	@ zero_extendqisi2
 776 04cc 052B     		cmp	r3, #5
 777 04ce 0AD1     		bne	.L49
 207:.\main.c      **** 		 decimalD=(buffer_i2c[3]&0x0f);               //Si hay o no decimales en volumen y precio
 778              		.loc 1 207 0
 779 04d0 734A     		ldr	r2, .L72
 780 04d2 D378     		ldrb	r3, [r2, #3]	@ zero_extendqisi2
 781 04d4 03F00F03 		and	r3, r3, #15
 782 04d8 7649     		ldr	r1, .L72+20
 783 04da 0B70     		strb	r3, [r1]
 208:.\main.c      **** 		 decimalV=(buffer_i2c[5]&0x0f);
 784              		.loc 1 208 0
 785 04dc 5379     		ldrb	r3, [r2, #5]	@ zero_extendqisi2
 786 04de 03F00F03 		and	r3, r3, #15
 787 04e2 754A     		ldr	r2, .L72+24
 788 04e4 1370     		strb	r3, [r2]
 789              	.L49:
 209:.\main.c      **** 	}	
 210:.\main.c      **** 	leer_eeprom(455,2);
 790              		.loc 1 210 0
ARM GAS  C:\Users\IN-002~1\AppData\Local\Temp\ccN5KMQc.s 			page 19


 791 04e6 40F2C710 		movw	r0, #455
 792 04ea 0221     		movs	r1, #2
 793 04ec FFF7FEFF 		bl	leer_eeprom
 794              	.LVL38:
 211:.\main.c      ****     if(buffer_i2c[0]==1){
 795              		.loc 1 211 0
 796 04f0 6B4B     		ldr	r3, .L72
 797 04f2 1B78     		ldrb	r3, [r3]	@ zero_extendqisi2
 798 04f4 012B     		cmp	r3, #1
 799 04f6 06D1     		bne	.L50
 212:.\main.c      ****         bandera[0]=buffer_i2c[0];                       // Carga bandera
 800              		.loc 1 212 0
 801 04f8 704A     		ldr	r2, .L72+28
 802 04fa 1370     		strb	r3, [r2]
 213:.\main.c      **** 	    bandera[1]=(buffer_i2c[1]&0x0f);
 803              		.loc 1 213 0
 804 04fc 684B     		ldr	r3, .L72
 805 04fe 5B78     		ldrb	r3, [r3, #1]	@ zero_extendqisi2
 806 0500 03F00F03 		and	r3, r3, #15
 807 0504 5370     		strb	r3, [r2, #1]
 808              	.L50:
 214:.\main.c      ****     }  
 215:.\main.c      **** 	leer_eeprom(444,2);                                 // PPU x1 o x10   
 809              		.loc 1 215 0
 810 0506 4FF4DE70 		mov	r0, #444
 811 050a 0221     		movs	r1, #2
 812 050c FFF7FEFF 		bl	leer_eeprom
 813              	.LVL39:
 216:.\main.c      **** 	if(buffer_i2c[0]==1){
 814              		.loc 1 216 0
 815 0510 634B     		ldr	r3, .L72
 816 0512 1B78     		ldrb	r3, [r3]	@ zero_extendqisi2
 817 0514 012B     		cmp	r3, #1
 818 0516 05D1     		bne	.L51
 217:.\main.c      **** 		 ppux10=(buffer_i2c[1]&0x0f);
 819              		.loc 1 217 0
 820 0518 614B     		ldr	r3, .L72
 821 051a 5B78     		ldrb	r3, [r3, #1]	@ zero_extendqisi2
 822 051c 03F00F03 		and	r3, r3, #15
 823 0520 674A     		ldr	r2, .L72+32
 824 0522 1370     		strb	r3, [r2]
 825              	.L51:
 218:.\main.c      **** 	}
 219:.\main.c      **** 	leer_eeprom(611,2);                                 //Impresoras
 826              		.loc 1 219 0
 827 0524 40F26320 		movw	r0, #611
 828 0528 0221     		movs	r1, #2
 829 052a FFF7FEFF 		bl	leer_eeprom
 830              	.LVL40:
 220:.\main.c      **** 	if(buffer_i2c[0]==1){
 831              		.loc 1 220 0
 832 052e 5C4B     		ldr	r3, .L72
 833 0530 1B78     		ldrb	r3, [r3]	@ zero_extendqisi2
 834 0532 012B     		cmp	r3, #1
 835 0534 05D1     		bne	.L52
 221:.\main.c      **** 		 print1[1]=(buffer_i2c[1]&0x0f);
 836              		.loc 1 221 0
ARM GAS  C:\Users\IN-002~1\AppData\Local\Temp\ccN5KMQc.s 			page 20


 837 0536 5A4B     		ldr	r3, .L72
 838 0538 5B78     		ldrb	r3, [r3, #1]	@ zero_extendqisi2
 839 053a 03F00F03 		and	r3, r3, #15
 840 053e 614A     		ldr	r2, .L72+36
 841 0540 5370     		strb	r3, [r2, #1]
 842              	.L52:
 222:.\main.c      **** 	}
 223:.\main.c      **** 	leer_eeprom(613,2);                                 //Impresora lado 2
 843              		.loc 1 223 0
 844 0542 40F26520 		movw	r0, #613
 845 0546 0221     		movs	r1, #2
 846 0548 FFF7FEFF 		bl	leer_eeprom
 847              	.LVL41:
 224:.\main.c      **** 	if(buffer_i2c[0]==1){
 848              		.loc 1 224 0
 849 054c 544B     		ldr	r3, .L72
 850 054e 1B78     		ldrb	r3, [r3]	@ zero_extendqisi2
 851 0550 012B     		cmp	r3, #1
 852 0552 05D1     		bne	.L53
 225:.\main.c      **** 		 print2[1]=(buffer_i2c[1]&0x0f);
 853              		.loc 1 225 0
 854 0554 524B     		ldr	r3, .L72
 855 0556 5B78     		ldrb	r3, [r3, #1]	@ zero_extendqisi2
 856 0558 03F00F03 		and	r3, r3, #15
 857 055c 5A4A     		ldr	r2, .L72+40
 858 055e 5370     		strb	r3, [r2, #1]
 859              	.L53:
 226:.\main.c      **** 	}
 227:.\main.c      **** 	leer_eeprom(668,3);                                 //Id de corte
 860              		.loc 1 227 0
 861 0560 4FF42770 		mov	r0, #668
 862 0564 0321     		movs	r1, #3
 863 0566 FFF7FEFF 		bl	leer_eeprom
 864              	.LVL42:
 228:.\main.c      **** 	if(buffer_i2c[0]==2){                               
 865              		.loc 1 228 0
 866 056a 4D4B     		ldr	r3, .L72
 867 056c 1B78     		ldrb	r3, [r3]	@ zero_extendqisi2
 868 056e 022B     		cmp	r3, #2
 869 0570 06D1     		bne	.L54
 229:.\main.c      **** 		 id_corte=((buffer_i2c[2]<<8)|buffer_i2c[2]);
 870              		.loc 1 229 0
 871 0572 4B4B     		ldr	r3, .L72
 872 0574 9B78     		ldrb	r3, [r3, #2]	@ zero_extendqisi2
 873 0576 43EA0323 		orr	r3, r3, r3, lsl #8
 874 057a 544A     		ldr	r2, .L72+44
 875 057c 1380     		strh	r3, [r2]	@ movhi
 876 057e 02E0     		b	.L55
 877              	.L54:
 230:.\main.c      **** 	}
 231:.\main.c      **** 	else{
 232:.\main.c      **** 		 id_corte=1;
 878              		.loc 1 232 0
 879 0580 0122     		movs	r2, #1
 880 0582 524B     		ldr	r3, .L72+44
 881 0584 1A80     		strh	r2, [r3]	@ movhi
 882              	.L55:
ARM GAS  C:\Users\IN-002~1\AppData\Local\Temp\ccN5KMQc.s 			page 21


 233:.\main.c      **** 	}	
 234:.\main.c      ****     leer_eeprom(986,2);										//Copia de Recibo
 883              		.loc 1 234 0
 884 0586 40F2DA30 		movw	r0, #986
 885 058a 0221     		movs	r1, #2
 886 058c FFF7FEFF 		bl	leer_eeprom
 887              	.LVL43:
 235:.\main.c      **** 	if(buffer_i2c[0]==1){
 888              		.loc 1 235 0
 889 0590 434B     		ldr	r3, .L72
 890 0592 1B78     		ldrb	r3, [r3]	@ zero_extendqisi2
 891 0594 012B     		cmp	r3, #1
 892 0596 04D1     		bne	.L56
 236:.\main.c      **** 		 copia_recibo[1]=buffer_i2c[1];
 893              		.loc 1 236 0
 894 0598 414B     		ldr	r3, .L72
 895 059a 5A78     		ldrb	r2, [r3, #1]	@ zero_extendqisi2
 896 059c 4C4B     		ldr	r3, .L72+48
 897 059e 5A70     		strb	r2, [r3, #1]
 898 05a0 07E0     		b	.L57
 899              	.L56:
 237:.\main.c      **** 	}
 238:.\main.c      **** 	else{
 239:.\main.c      **** 		 copia_recibo[0]=1;
 900              		.loc 1 239 0
 901 05a2 4B49     		ldr	r1, .L72+48
 902 05a4 0123     		movs	r3, #1
 903 05a6 0B70     		strb	r3, [r1]
 240:.\main.c      **** 		 copia_recibo[1]=1;
 904              		.loc 1 240 0
 905 05a8 4B70     		strb	r3, [r1, #1]
 241:.\main.c      **** 		 write_eeprom(986,copia_recibo);
 906              		.loc 1 241 0
 907 05aa 40F2DA30 		movw	r0, #986
 908 05ae FFF7FEFF 		bl	write_eeprom
 909              	.LVL44:
 910              	.L57:
 242:.\main.c      **** 	}
 243:.\main.c      ****     
 244:.\main.c      ****     leer_eeprom(1496,2);	
 911              		.loc 1 244 0
 912 05b2 4FF4BB60 		mov	r0, #1496
 913 05b6 0221     		movs	r1, #2
 914 05b8 FFF7FEFF 		bl	leer_eeprom
 915              	.LVL45:
 245:.\main.c      ****     if(buffer_i2c[0]==1){
 916              		.loc 1 245 0
 917 05bc 384B     		ldr	r3, .L72
 918 05be 1B78     		ldrb	r3, [r3]	@ zero_extendqisi2
 919 05c0 012B     		cmp	r3, #1
 920 05c2 04D1     		bne	.L58
 246:.\main.c      **** 		 copia_recibo2[1]=buffer_i2c[1];                   //Copia recibo lcd2
 921              		.loc 1 246 0
 922 05c4 364B     		ldr	r3, .L72
 923 05c6 5A78     		ldrb	r2, [r3, #1]	@ zero_extendqisi2
 924 05c8 424B     		ldr	r3, .L72+52
 925 05ca 5A70     		strb	r2, [r3, #1]
ARM GAS  C:\Users\IN-002~1\AppData\Local\Temp\ccN5KMQc.s 			page 22


 926 05cc 07E0     		b	.L59
 927              	.L58:
 247:.\main.c      **** 	}
 248:.\main.c      **** 	else{
 249:.\main.c      **** 		 copia_recibo2[0]=1;
 928              		.loc 1 249 0
 929 05ce 4149     		ldr	r1, .L72+52
 930 05d0 0123     		movs	r3, #1
 931 05d2 0B70     		strb	r3, [r1]
 250:.\main.c      **** 		 copia_recibo2[1]=1;
 932              		.loc 1 250 0
 933 05d4 4B70     		strb	r3, [r1, #1]
 251:.\main.c      **** 		 write_eeprom(1496,copia_recibo2);
 934              		.loc 1 251 0
 935 05d6 4FF4BB60 		mov	r0, #1496
 936 05da FFF7FEFF 		bl	write_eeprom
 937              	.LVL46:
 938              	.L59:
 252:.\main.c      **** 	}
 253:.\main.c      ****     leer_eeprom(978,6);										//Id venta
 939              		.loc 1 253 0
 940 05de 40F2D230 		movw	r0, #978
 941 05e2 0621     		movs	r1, #6
 942 05e4 FFF7FEFF 		bl	leer_eeprom
 943              	.LVL47:
 254:.\main.c      **** 	if(buffer_i2c[0]==5){
 944              		.loc 1 254 0
 945 05e8 2D4B     		ldr	r3, .L72
 946 05ea 1878     		ldrb	r0, [r3]	@ zero_extendqisi2
 947 05ec 0528     		cmp	r0, #5
 948 05ee 0FD1     		bne	.L60
 255:.\main.c      **** 		for(x=0;x<=buffer_i2c[0];x++){
 949              		.loc 1 255 0
 950 05f0 0022     		movs	r2, #0
 951 05f2 2D4B     		ldr	r3, .L72+8
 952 05f4 1A60     		str	r2, [r3]
 953 05f6 06E0     		b	.L61
 954              	.L62:
 256:.\main.c      **** 			id_venta[x]=buffer_i2c[x]; 
 955              		.loc 1 256 0 discriminator 3
 956 05f8 294A     		ldr	r2, .L72
 957 05fa D15C     		ldrb	r1, [r2, r3]	@ zero_extendqisi2
 958 05fc 364A     		ldr	r2, .L72+56
 959 05fe D154     		strb	r1, [r2, r3]
 255:.\main.c      **** 		for(x=0;x<=buffer_i2c[0];x++){
 960              		.loc 1 255 0 discriminator 3
 961 0600 0133     		adds	r3, r3, #1
 962 0602 294A     		ldr	r2, .L72+8
 963 0604 1360     		str	r3, [r2]
 964              	.L61:
 255:.\main.c      **** 		for(x=0;x<=buffer_i2c[0];x++){
 965              		.loc 1 255 0 is_stmt 0 discriminator 1
 966 0606 284B     		ldr	r3, .L72+8
 967 0608 1B68     		ldr	r3, [r3]
 968 060a 9842     		cmp	r0, r3
 969 060c F4D2     		bcs	.L62
 970 060e 0CE0     		b	.L63
ARM GAS  C:\Users\IN-002~1\AppData\Local\Temp\ccN5KMQc.s 			page 23


 971              	.L60:
 257:.\main.c      **** 		}
 258:.\main.c      **** 	}          
 259:.\main.c      **** 	else{
 260:.\main.c      **** 		id_venta[0]=5;	
 972              		.loc 1 260 0 is_stmt 1
 973 0610 3149     		ldr	r1, .L72+56
 974 0612 0523     		movs	r3, #5
 975 0614 0B70     		strb	r3, [r1]
 261:.\main.c      **** 		id_venta[1]='0';
 976              		.loc 1 261 0
 977 0616 3023     		movs	r3, #48
 978 0618 4B70     		strb	r3, [r1, #1]
 262:.\main.c      **** 		id_venta[2]='0';
 979              		.loc 1 262 0
 980 061a 8B70     		strb	r3, [r1, #2]
 263:.\main.c      **** 		id_venta[3]='0';
 981              		.loc 1 263 0
 982 061c CB70     		strb	r3, [r1, #3]
 264:.\main.c      **** 		id_venta[4]='0';
 983              		.loc 1 264 0
 984 061e 0B71     		strb	r3, [r1, #4]
 265:.\main.c      **** 		id_venta[5]='0';
 985              		.loc 1 265 0
 986 0620 4B71     		strb	r3, [r1, #5]
 266:.\main.c      **** 		write_eeprom(978,id_venta);
 987              		.loc 1 266 0
 988 0622 40F2D230 		movw	r0, #978
 989 0626 FFF7FEFF 		bl	write_eeprom
 990              	.LVL48:
 991              	.L63:
 267:.\main.c      **** 	}
 268:.\main.c      **** 	leer_eeprom(1012,2);										//Tipo impresora
 992              		.loc 1 268 0
 993 062a 4FF47D70 		mov	r0, #1012
 994 062e 0221     		movs	r1, #2
 995 0630 FFF7FEFF 		bl	leer_eeprom
 996              	.LVL49:
 269:.\main.c      **** 	if(buffer_i2c[0]==1){
 997              		.loc 1 269 0
 998 0634 1A4B     		ldr	r3, .L72
 999 0636 1878     		ldrb	r0, [r3]	@ zero_extendqisi2
 1000 0638 0128     		cmp	r0, #1
 1001 063a 0ED1     		bne	.L64
 270:.\main.c      **** 		for(x=0;x<=buffer_i2c[0];x++){
 1002              		.loc 1 270 0
 1003 063c 0022     		movs	r2, #0
 1004 063e 1A4B     		ldr	r3, .L72+8
 1005 0640 1A60     		str	r2, [r3]
 1006 0642 06E0     		b	.L65
 1007              	.L66:
 271:.\main.c      **** 			tipo_imp[x]=buffer_i2c[x]; 
 1008              		.loc 1 271 0 discriminator 3
 1009 0644 164A     		ldr	r2, .L72
 1010 0646 D15C     		ldrb	r1, [r2, r3]	@ zero_extendqisi2
 1011 0648 244A     		ldr	r2, .L72+60
 1012 064a D154     		strb	r1, [r2, r3]
ARM GAS  C:\Users\IN-002~1\AppData\Local\Temp\ccN5KMQc.s 			page 24


 270:.\main.c      **** 		for(x=0;x<=buffer_i2c[0];x++){
 1013              		.loc 1 270 0 discriminator 3
 1014 064c 0133     		adds	r3, r3, #1
 1015 064e 164A     		ldr	r2, .L72+8
 1016 0650 1360     		str	r3, [r2]
 1017              	.L65:
 270:.\main.c      **** 		for(x=0;x<=buffer_i2c[0];x++){
 1018              		.loc 1 270 0 is_stmt 0 discriminator 1
 1019 0652 154B     		ldr	r3, .L72+8
 1020 0654 1B68     		ldr	r3, [r3]
 1021 0656 9842     		cmp	r0, r3
 1022 0658 F4D2     		bcs	.L66
 1023              	.L64:
 272:.\main.c      **** 		}
 273:.\main.c      **** 	}
 274:.\main.c      **** 	no_venta=((id_venta[5]&0x0F)*10000)+((id_venta[4]&0x0F)*1000)+((id_venta[3]&0x0F)*100)+((id_venta[
 1024              		.loc 1 274 0 is_stmt 1
 1025 065a 1F4A     		ldr	r2, .L72+56
 1026 065c 5379     		ldrb	r3, [r2, #5]	@ zero_extendqisi2
 1027 065e 03F00F00 		and	r0, r3, #15
 1028 0662 1379     		ldrb	r3, [r2, #4]	@ zero_extendqisi2
 1029 0664 03F00F01 		and	r1, r3, #15
 1030 0668 4FF47A73 		mov	r3, #1000
 1031 066c 03FB01F3 		mul	r3, r3, r1
 1032 0670 42F21071 		movw	r1, #10000
 1033 0674 01FB0033 		mla	r3, r1, r0, r3
 1034 0678 D078     		ldrb	r0, [r2, #3]	@ zero_extendqisi2
 1035 067a 00F00F00 		and	r0, r0, #15
 1036 067e 6421     		movs	r1, #100
 1037 0680 01FB0031 		mla	r1, r1, r0, r3
 1038 0684 9378     		ldrb	r3, [r2, #2]	@ zero_extendqisi2
 1039 0686 03F00F03 		and	r3, r3, #15
 1040 068a 03EB8303 		add	r3, r3, r3, lsl #2
 1041 068e 5B00     		lsls	r3, r3, #1
 1042 0690 0B44     		add	r3, r3, r1
 1043 0692 5278     		ldrb	r2, [r2, #1]	@ zero_extendqisi2
 1044 0694 02F00F02 		and	r2, r2, #15
 1045 0698 1344     		add	r3, r3, r2
 1046 069a 114A     		ldr	r2, .L72+64
 1047 069c 1360     		str	r3, [r2]
 1048 069e 10BD     		pop	{r4, pc}
 1049              	.L73:
 1050              		.align	2
 1051              	.L72:
 1052 06a0 00000000 		.word	buffer_i2c
 1053 06a4 00000000 		.word	producto3n
 1054 06a8 00000000 		.word	x
 1055 06ac 00000000 		.word	producto4n
 1056 06b0 00000000 		.word	n_copias
 1057 06b4 00000000 		.word	decimalD
 1058 06b8 00000000 		.word	decimalV
 1059 06bc 00000000 		.word	bandera
 1060 06c0 00000000 		.word	ppux10
 1061 06c4 00000000 		.word	print1
 1062 06c8 00000000 		.word	print2
 1063 06cc 00000000 		.word	id_corte
 1064 06d0 00000000 		.word	copia_recibo
ARM GAS  C:\Users\IN-002~1\AppData\Local\Temp\ccN5KMQc.s 			page 25


 1065 06d4 00000000 		.word	copia_recibo2
 1066 06d8 00000000 		.word	id_venta
 1067 06dc 00000000 		.word	tipo_imp
 1068 06e0 00000000 		.word	no_venta
 1069              		.cfi_endproc
 1070              	.LFE63:
 1071              		.size	init, .-init
 1072              		.section	.text.init_surt,"ax",%progbits
 1073              		.align	2
 1074              		.global	init_surt
 1075              		.thumb
 1076              		.thumb_func
 1077              		.type	init_surt, %function
 1078              	init_surt:
 1079              	.LFB64:
 275:.\main.c      **** 
 276:.\main.c      ****     
 277:.\main.c      **** }
 278:.\main.c      **** /**
 279:.\main.c      **** * init_surt
 280:.\main.c      **** * @brief Inicialización de la comunicación con el surtidor
 281:.\main.c      **** * detecta las 4 posiciones del equipo para iniciar el GRP
 282:.\main.c      **** *  
 283:.\main.c      **** */
 284:.\main.c      **** void init_surt(void){
 1080              		.loc 1 284 0
 1081              		.cfi_startproc
 1082              		@ args = 0, pretend = 0, frame = 0
 1083              		@ frame_needed = 0, uses_anonymous_args = 0
 1084 0000 10B5     		push	{r4, lr}
 1085              		.cfi_def_cfa_offset 8
 1086              		.cfi_offset 4, -8
 1087              		.cfi_offset 14, -4
 1088              	.LVL50:
 285:.\main.c      **** 	uint8 seguir=0;
 1089              		.loc 1 285 0
 1090 0002 0024     		movs	r4, #0
 286:.\main.c      **** 	while(seguir==0){
 1091              		.loc 1 286 0
 1092 0004 A0E0     		b	.L76
 1093              	.LVL51:
 1094              	.L87:
 287:.\main.c      **** 		switch(ver_pos()){
 1095              		.loc 1 287 0
 1096 0006 FFF7FEFF 		bl	ver_pos
 1097              	.LVL52:
 1098 000a 0128     		cmp	r0, #1
 1099 000c 0BD0     		beq	.L77
 1100 000e 10B1     		cbz	r0, .L78
 1101 0010 0228     		cmp	r0, #2
 1102 0012 41D0     		beq	.L79
 1103 0014 98E0     		b	.L76
 1104              	.L78:
 288:.\main.c      **** 			case 0:
 289:.\main.c      ****                 CyDelay(100);
 1105              		.loc 1 289 0
 1106 0016 6420     		movs	r0, #100
ARM GAS  C:\Users\IN-002~1\AppData\Local\Temp\ccN5KMQc.s 			page 26


 1107 0018 FFF7FEFF 		bl	CyDelay
 1108              	.LVL53:
 290:.\main.c      **** 			    set_imagen(1,79);						//mostrar error de comunicacion
 1109              		.loc 1 290 0
 1110 001c 0120     		movs	r0, #1
 1111 001e 4F21     		movs	r1, #79
 1112 0020 FFF7FEFF 		bl	set_imagen
 1113              	.LVL54:
 291:.\main.c      ****                 seguir = 0;
 292:.\main.c      **** 			break;
 1114              		.loc 1 292 0
 1115 0024 90E0     		b	.L76
 1116              	.LVL55:
 1117              	.L77:
 293:.\main.c      **** 			
 294:.\main.c      **** 			case 1:
 295:.\main.c      **** 			CyDelay(100);
 1118              		.loc 1 295 0
 1119 0026 6420     		movs	r0, #100
 1120 0028 FFF7FEFF 		bl	CyDelay
 1121              	.LVL56:
 296:.\main.c      ****             if(get_estado(a.dir)==0x0B || get_estado(c.dir)==0x0B ){
 1122              		.loc 1 296 0
 1123 002c 484B     		ldr	r3, .L89
 1124 002e 1878     		ldrb	r0, [r3]	@ zero_extendqisi2
 1125 0030 FFF7FEFF 		bl	get_estado
 1126              	.LVL57:
 1127 0034 0B28     		cmp	r0, #11
 1128 0036 05D0     		beq	.L81
 1129              		.loc 1 296 0 is_stmt 0 discriminator 1
 1130 0038 464B     		ldr	r3, .L89+4
 1131 003a 1878     		ldrb	r0, [r3]	@ zero_extendqisi2
 1132 003c FFF7FEFF 		bl	get_estado
 1133              	.LVL58:
 1134 0040 0B28     		cmp	r0, #11
 1135 0042 07D1     		bne	.L82
 1136              	.L81:
 297:.\main.c      ****                 venta(a.dir);
 1137              		.loc 1 297 0 is_stmt 1
 1138 0044 424B     		ldr	r3, .L89
 1139 0046 1878     		ldrb	r0, [r3]	@ zero_extendqisi2
 1140 0048 FFF7FEFF 		bl	venta
 1141              	.LVL59:
 298:.\main.c      ****                 venta(c.dir);
 1142              		.loc 1 298 0
 1143 004c 414B     		ldr	r3, .L89+4
 1144 004e 1878     		ldrb	r0, [r3]	@ zero_extendqisi2
 1145 0050 FFF7FEFF 		bl	venta
 1146              	.LVL60:
 1147              	.L82:
 299:.\main.c      ****             }
 300:.\main.c      ****             CyDelay(100);
 1148              		.loc 1 300 0
 1149 0054 6420     		movs	r0, #100
 1150 0056 FFF7FEFF 		bl	CyDelay
 1151              	.LVL61:
 301:.\main.c      **** 			if(get_estado(a.dir)==6 && get_estado(c.dir)==6 ){	
ARM GAS  C:\Users\IN-002~1\AppData\Local\Temp\ccN5KMQc.s 			page 27


 1152              		.loc 1 301 0
 1153 005a 3D4B     		ldr	r3, .L89
 1154 005c 1878     		ldrb	r0, [r3]	@ zero_extendqisi2
 1155 005e FFF7FEFF 		bl	get_estado
 1156              	.LVL62:
 1157 0062 0628     		cmp	r0, #6
 1158 0064 0FD1     		bne	.L83
 1159              		.loc 1 301 0 is_stmt 0 discriminator 1
 1160 0066 3B4B     		ldr	r3, .L89+4
 1161 0068 1878     		ldrb	r0, [r3]	@ zero_extendqisi2
 1162 006a FFF7FEFF 		bl	get_estado
 1163              	.LVL63:
 1164 006e 0628     		cmp	r0, #6
 1165 0070 09D1     		bne	.L83
 1166              	.LVL64:
 302:.\main.c      **** 				seguir = 1;
 303:.\main.c      ****                 set_imagen(1,60); 
 1167              		.loc 1 303 0 is_stmt 1
 1168 0072 0120     		movs	r0, #1
 1169 0074 3C21     		movs	r1, #60
 1170 0076 FFF7FEFF 		bl	set_imagen
 1171              	.LVL65:
 304:.\main.c      ****                 set_imagen(2,60); 
 1172              		.loc 1 304 0
 1173 007a 0220     		movs	r0, #2
 1174 007c 3C21     		movs	r1, #60
 1175 007e FFF7FEFF 		bl	set_imagen
 1176              	.LVL66:
 302:.\main.c      **** 				seguir = 1;
 1177              		.loc 1 302 0
 1178 0082 0124     		movs	r4, #1
 1179              		.loc 1 304 0
 1180 0084 60E0     		b	.L76
 1181              	.LVL67:
 1182              	.L83:
 305:.\main.c      **** 			}else{
 306:.\main.c      ****                 set_imagen(1,85);
 1183              		.loc 1 306 0
 1184 0086 0120     		movs	r0, #1
 1185 0088 5521     		movs	r1, #85
 1186 008a FFF7FEFF 		bl	set_imagen
 1187              	.LVL68:
 307:.\main.c      ****                 set_imagen(2,85);
 1188              		.loc 1 307 0
 1189 008e 0220     		movs	r0, #2
 1190 0090 5521     		movs	r1, #85
 1191 0092 FFF7FEFF 		bl	set_imagen
 1192              	.LVL69:
 1193 0096 57E0     		b	.L76
 1194              	.L79:
 308:.\main.c      ****             }            
 309:.\main.c      ****             
 310:.\main.c      **** 			break;
 311:.\main.c      **** 			
 312:.\main.c      **** 			case 2:
 313:.\main.c      ****             CyDelay(100);
 1195              		.loc 1 313 0
ARM GAS  C:\Users\IN-002~1\AppData\Local\Temp\ccN5KMQc.s 			page 28


 1196 0098 6420     		movs	r0, #100
 1197 009a FFF7FEFF 		bl	CyDelay
 1198              	.LVL70:
 314:.\main.c      ****             if(get_estado(a.dir)==0x0B || get_estado(b.dir)==0x0B || get_estado(c.dir)==0x0B || get
 1199              		.loc 1 314 0
 1200 009e 2C4B     		ldr	r3, .L89
 1201 00a0 1878     		ldrb	r0, [r3]	@ zero_extendqisi2
 1202 00a2 FFF7FEFF 		bl	get_estado
 1203              	.LVL71:
 1204 00a6 0B28     		cmp	r0, #11
 1205 00a8 11D0     		beq	.L84
 1206              		.loc 1 314 0 is_stmt 0 discriminator 1
 1207 00aa 2B4B     		ldr	r3, .L89+8
 1208 00ac 1878     		ldrb	r0, [r3]	@ zero_extendqisi2
 1209 00ae FFF7FEFF 		bl	get_estado
 1210              	.LVL72:
 1211 00b2 0B28     		cmp	r0, #11
 1212 00b4 0BD0     		beq	.L84
 1213              		.loc 1 314 0 discriminator 2
 1214 00b6 274B     		ldr	r3, .L89+4
 1215 00b8 1878     		ldrb	r0, [r3]	@ zero_extendqisi2
 1216 00ba FFF7FEFF 		bl	get_estado
 1217              	.LVL73:
 1218 00be 0B28     		cmp	r0, #11
 1219 00c0 05D0     		beq	.L84
 1220              		.loc 1 314 0 discriminator 3
 1221 00c2 264B     		ldr	r3, .L89+12
 1222 00c4 1878     		ldrb	r0, [r3]	@ zero_extendqisi2
 1223 00c6 FFF7FEFF 		bl	get_estado
 1224              	.LVL74:
 1225 00ca 0B28     		cmp	r0, #11
 1226 00cc 0FD1     		bne	.L85
 1227              	.L84:
 315:.\main.c      ****                 venta(a.dir);
 1228              		.loc 1 315 0 is_stmt 1
 1229 00ce 204B     		ldr	r3, .L89
 1230 00d0 1878     		ldrb	r0, [r3]	@ zero_extendqisi2
 1231 00d2 FFF7FEFF 		bl	venta
 1232              	.LVL75:
 316:.\main.c      ****                 venta(c.dir);
 1233              		.loc 1 316 0
 1234 00d6 1F4B     		ldr	r3, .L89+4
 1235 00d8 1878     		ldrb	r0, [r3]	@ zero_extendqisi2
 1236 00da FFF7FEFF 		bl	venta
 1237              	.LVL76:
 317:.\main.c      ****                 venta(b.dir);
 1238              		.loc 1 317 0
 1239 00de 1E4B     		ldr	r3, .L89+8
 1240 00e0 1878     		ldrb	r0, [r3]	@ zero_extendqisi2
 1241 00e2 FFF7FEFF 		bl	venta
 1242              	.LVL77:
 318:.\main.c      ****                 venta(d.dir);
 1243              		.loc 1 318 0
 1244 00e6 1D4B     		ldr	r3, .L89+12
 1245 00e8 1878     		ldrb	r0, [r3]	@ zero_extendqisi2
 1246 00ea FFF7FEFF 		bl	venta
 1247              	.LVL78:
ARM GAS  C:\Users\IN-002~1\AppData\Local\Temp\ccN5KMQc.s 			page 29


 1248              	.L85:
 319:.\main.c      ****             }
 320:.\main.c      **** 			CyDelay(100);
 1249              		.loc 1 320 0
 1250 00ee 6420     		movs	r0, #100
 1251 00f0 FFF7FEFF 		bl	CyDelay
 1252              	.LVL79:
 321:.\main.c      **** 			if(get_estado(a.dir)==6 && get_estado(b.dir)==6 && get_estado(c.dir)==6 && get_estado(d.dir)==6 
 1253              		.loc 1 321 0
 1254 00f4 164B     		ldr	r3, .L89
 1255 00f6 1878     		ldrb	r0, [r3]	@ zero_extendqisi2
 1256 00f8 FFF7FEFF 		bl	get_estado
 1257              	.LVL80:
 1258 00fc 0628     		cmp	r0, #6
 1259 00fe 1BD1     		bne	.L86
 1260              		.loc 1 321 0 is_stmt 0 discriminator 1
 1261 0100 154B     		ldr	r3, .L89+8
 1262 0102 1878     		ldrb	r0, [r3]	@ zero_extendqisi2
 1263 0104 FFF7FEFF 		bl	get_estado
 1264              	.LVL81:
 1265 0108 0628     		cmp	r0, #6
 1266 010a 15D1     		bne	.L86
 1267              		.loc 1 321 0 discriminator 2
 1268 010c 114B     		ldr	r3, .L89+4
 1269 010e 1878     		ldrb	r0, [r3]	@ zero_extendqisi2
 1270 0110 FFF7FEFF 		bl	get_estado
 1271              	.LVL82:
 1272 0114 0628     		cmp	r0, #6
 1273 0116 0FD1     		bne	.L86
 1274              		.loc 1 321 0 discriminator 3
 1275 0118 104B     		ldr	r3, .L89+12
 1276 011a 1878     		ldrb	r0, [r3]	@ zero_extendqisi2
 1277 011c FFF7FEFF 		bl	get_estado
 1278              	.LVL83:
 1279 0120 0628     		cmp	r0, #6
 1280 0122 09D1     		bne	.L86
 1281              	.LVL84:
 322:.\main.c      **** 				seguir = 2;
 323:.\main.c      ****                 set_imagen(1,74);
 1282              		.loc 1 323 0 is_stmt 1
 1283 0124 0120     		movs	r0, #1
 1284 0126 4A21     		movs	r1, #74
 1285 0128 FFF7FEFF 		bl	set_imagen
 1286              	.LVL85:
 324:.\main.c      ****                 set_imagen(2,74);
 1287              		.loc 1 324 0
 1288 012c 0220     		movs	r0, #2
 1289 012e 4A21     		movs	r1, #74
 1290 0130 FFF7FEFF 		bl	set_imagen
 1291              	.LVL86:
 322:.\main.c      **** 				seguir = 2;
 1292              		.loc 1 322 0
 1293 0134 0224     		movs	r4, #2
 1294              		.loc 1 324 0
 1295 0136 07E0     		b	.L76
 1296              	.LVL87:
 1297              	.L86:
ARM GAS  C:\Users\IN-002~1\AppData\Local\Temp\ccN5KMQc.s 			page 30


 325:.\main.c      **** 			}else{
 326:.\main.c      ****                 set_imagen(1,85);
 1298              		.loc 1 326 0
 1299 0138 0120     		movs	r0, #1
 1300 013a 5521     		movs	r1, #85
 1301 013c FFF7FEFF 		bl	set_imagen
 1302              	.LVL88:
 327:.\main.c      ****                 set_imagen(2,85);
 1303              		.loc 1 327 0
 1304 0140 0220     		movs	r0, #2
 1305 0142 5521     		movs	r1, #85
 1306 0144 FFF7FEFF 		bl	set_imagen
 1307              	.LVL89:
 1308              	.L76:
 286:.\main.c      **** 		switch(ver_pos()){
 1309              		.loc 1 286 0
 1310 0148 002C     		cmp	r4, #0
 1311 014a 3FF45CAF 		beq	.L87
 328:.\main.c      ****             }
 329:.\main.c      ****             
 330:.\main.c      **** 			break;
 331:.\main.c      **** 		}
 332:.\main.c      **** 	}		
 333:.\main.c      **** }
 1312              		.loc 1 333 0
 1313 014e 10BD     		pop	{r4, pc}
 1314              	.LVL90:
 1315              	.L90:
 1316              		.align	2
 1317              	.L89:
 1318 0150 00000000 		.word	a
 1319 0154 00000000 		.word	c
 1320 0158 00000000 		.word	b
 1321 015c 00000000 		.word	d
 1322              		.cfi_endproc
 1323              	.LFE64:
 1324              		.size	init_surt, .-init_surt
 1325              		.section	.text.init_pantallas,"ax",%progbits
 1326              		.align	2
 1327              		.global	init_pantallas
 1328              		.thumb
 1329              		.thumb_func
 1330              		.type	init_pantallas, %function
 1331              	init_pantallas:
 1332              	.LFB65:
 334:.\main.c      **** 
 335:.\main.c      **** /**
 336:.\main.c      **** * init_pantallas
 337:.\main.c      **** * @brief Inicialización de las pantallas, muestra la imagen de espera de las posiciones
 338:.\main.c      **** *  
 339:.\main.c      **** */
 340:.\main.c      **** void init_pantallas(void){
 1333              		.loc 1 340 0
 1334              		.cfi_startproc
 1335              		@ args = 0, pretend = 0, frame = 0
 1336              		@ frame_needed = 0, uses_anonymous_args = 0
 1337 0000 08B5     		push	{r3, lr}
ARM GAS  C:\Users\IN-002~1\AppData\Local\Temp\ccN5KMQc.s 			page 31


 1338              		.cfi_def_cfa_offset 8
 1339              		.cfi_offset 3, -8
 1340              		.cfi_offset 14, -4
 341:.\main.c      ****     flujo_LCD  = 0;
 1341              		.loc 1 341 0
 1342 0002 0023     		movs	r3, #0
 1343 0004 0A4A     		ldr	r2, .L93
 1344 0006 1370     		strb	r3, [r2]
 342:.\main.c      ****     flujo_LCD2 = 0;    
 1345              		.loc 1 342 0
 1346 0008 0A4A     		ldr	r2, .L93+4
 1347 000a 1370     		strb	r3, [r2]
 343:.\main.c      ****     CyDelay(500);
 1348              		.loc 1 343 0
 1349 000c 4FF4FA70 		mov	r0, #500
 1350 0010 FFF7FEFF 		bl	CyDelay
 1351              	.LVL91:
 344:.\main.c      ****     set_imagen(1,46);
 1352              		.loc 1 344 0
 1353 0014 0120     		movs	r0, #1
 1354 0016 2E21     		movs	r1, #46
 1355 0018 FFF7FEFF 		bl	set_imagen
 1356              	.LVL92:
 345:.\main.c      ****     CyDelay(500);
 1357              		.loc 1 345 0
 1358 001c 4FF4FA70 		mov	r0, #500
 1359 0020 FFF7FEFF 		bl	CyDelay
 1360              	.LVL93:
 346:.\main.c      ****     set_imagen(2,46);    
 1361              		.loc 1 346 0
 1362 0024 0220     		movs	r0, #2
 1363 0026 2E21     		movs	r1, #46
 1364 0028 FFF7FEFF 		bl	set_imagen
 1365              	.LVL94:
 1366 002c 08BD     		pop	{r3, pc}
 1367              	.L94:
 1368 002e 00BF     		.align	2
 1369              	.L93:
 1370 0030 00000000 		.word	flujo_LCD
 1371 0034 00000000 		.word	flujo_LCD2
 1372              		.cfi_endproc
 1373              	.LFE65:
 1374              		.size	init_pantallas, .-init_pantallas
 1375              		.section	.text.polling_pos1,"ax",%progbits
 1376              		.align	2
 1377              		.global	polling_pos1
 1378              		.thumb
 1379              		.thumb_func
 1380              		.type	polling_pos1, %function
 1381              	polling_pos1:
 1382              	.LFB66:
 347:.\main.c      **** }
 348:.\main.c      **** 
 349:.\main.c      **** 
 350:.\main.c      **** 
 351:.\main.c      **** /**
 352:.\main.c      **** * polling_pos1
ARM GAS  C:\Users\IN-002~1\AppData\Local\Temp\ccN5KMQc.s 			page 32


 353:.\main.c      **** * @brief Función de estado de la primera posición del dispensador
 354:.\main.c      **** *  
 355:.\main.c      **** */
 356:.\main.c      **** void polling_pos1(void){    
 1383              		.loc 1 356 0
 1384              		.cfi_startproc
 1385              		@ args = 0, pretend = 0, frame = 0
 1386              		@ frame_needed = 0, uses_anonymous_args = 0
 1387 0000 38B5     		push	{r3, r4, r5, lr}
 1388              		.cfi_def_cfa_offset 16
 1389              		.cfi_offset 3, -16
 1390              		.cfi_offset 4, -12
 1391              		.cfi_offset 5, -8
 1392              		.cfi_offset 14, -4
 357:.\main.c      ****     switch(flujo_LCD){ 
 1393              		.loc 1 357 0
 1394 0002 9E4B     		ldr	r3, .L612
 1395 0004 1B78     		ldrb	r3, [r3]	@ zero_extendqisi2
 1396 0006 2A2B     		cmp	r3, #42
 1397 0008 03F25087 		bhi	.L95
 1398 000c DFE813F0 		tbh	[pc, r3, lsl #1]
 1399              	.L98:
 1400 0010 2B00     		.2byte	(.L97-.L98)/2
 1401 0012 9E00     		.2byte	(.L99-.L98)/2
 1402 0014 F500     		.2byte	(.L100-.L98)/2
 1403 0016 4E1F     		.2byte	(.L95-.L98)/2
 1404 0018 5901     		.2byte	(.L101-.L98)/2
 1405 001a D301     		.2byte	(.L102-.L98)/2
 1406 001c 9802     		.2byte	(.L103-.L98)/2
 1407 001e F902     		.2byte	(.L104-.L98)/2
 1408 0020 4E1F     		.2byte	(.L95-.L98)/2
 1409 0022 8D03     		.2byte	(.L105-.L98)/2
 1410 0024 5C04     		.2byte	(.L106-.L98)/2
 1411 0026 9F04     		.2byte	(.L107-.L98)/2
 1412 0028 0C05     		.2byte	(.L108-.L98)/2
 1413 002a 8F05     		.2byte	(.L109-.L98)/2
 1414 002c B805     		.2byte	(.L110-.L98)/2
 1415 002e 9F06     		.2byte	(.L111-.L98)/2
 1416 0030 8308     		.2byte	(.L112-.L98)/2
 1417 0032 B407     		.2byte	(.L113-.L98)/2
 1418 0034 DE08     		.2byte	(.L114-.L98)/2
 1419 0036 9C09     		.2byte	(.L115-.L98)/2
 1420 0038 260A     		.2byte	(.L116-.L98)/2
 1421 003a C40B     		.2byte	(.L117-.L98)/2
 1422 003c 060D     		.2byte	(.L118-.L98)/2
 1423 003e 7C0E     		.2byte	(.L119-.L98)/2
 1424 0040 9A0F     		.2byte	(.L120-.L98)/2
 1425 0042 4E1F     		.2byte	(.L95-.L98)/2
 1426 0044 7713     		.2byte	(.L121-.L98)/2
 1427 0046 4814     		.2byte	(.L122-.L98)/2
 1428 0048 DF14     		.2byte	(.L123-.L98)/2
 1429 004a 5515     		.2byte	(.L124-.L98)/2
 1430 004c 3216     		.2byte	(.L125-.L98)/2
 1431 004e CA16     		.2byte	(.L126-.L98)/2
 1432 0050 9C17     		.2byte	(.L127-.L98)/2
 1433 0052 AD19     		.2byte	(.L128-.L98)/2
 1434 0054 0C1A     		.2byte	(.L129-.L98)/2
ARM GAS  C:\Users\IN-002~1\AppData\Local\Temp\ccN5KMQc.s 			page 33


 1435 0056 7A1A     		.2byte	(.L130-.L98)/2
 1436 0058 EB1A     		.2byte	(.L131-.L98)/2
 1437 005a 321B     		.2byte	(.L132-.L98)/2
 1438 005c BD1B     		.2byte	(.L133-.L98)/2
 1439 005e 971C     		.2byte	(.L134-.L98)/2
 1440 0060 9E1D     		.2byte	(.L135-.L98)/2
 1441 0062 581E     		.2byte	(.L136-.L98)/2
 1442 0064 C81E     		.2byte	(.L137-.L98)/2
 1443              		.p2align 1
 1444              	.L97:
 358:.\main.c      ****         case 0:            
 359:.\main.c      ****         if(venta_activa == 1){
 1445              		.loc 1 359 0
 1446 0066 864B     		ldr	r3, .L612+4
 1447 0068 1B78     		ldrb	r3, [r3]	@ zero_extendqisi2
 1448 006a 012B     		cmp	r3, #1
 1449 006c 03D1     		bne	.L138
 360:.\main.c      ****             flujo_LCD = flujo_pos;            
 1450              		.loc 1 360 0
 1451 006e 854B     		ldr	r3, .L612+8
 1452 0070 1A78     		ldrb	r2, [r3]	@ zero_extendqisi2
 1453 0072 824B     		ldr	r3, .L612
 1454 0074 1A70     		strb	r2, [r3]
 1455              	.L138:
 361:.\main.c      ****         }
 362:.\main.c      ****         if(venta_activa2 == 1){
 1456              		.loc 1 362 0
 1457 0076 844B     		ldr	r3, .L612+12
 1458 0078 1B78     		ldrb	r3, [r3]	@ zero_extendqisi2
 1459 007a 012B     		cmp	r3, #1
 1460 007c 06D1     		bne	.L139
 363:.\main.c      ****             flujo_LCD2 = flujo_pos2;
 1461              		.loc 1 363 0
 1462 007e 834B     		ldr	r3, .L612+16
 1463 0080 1A78     		ldrb	r2, [r3]	@ zero_extendqisi2
 1464 0082 834B     		ldr	r3, .L612+20
 1465 0084 1A70     		strb	r2, [r3]
 364:.\main.c      ****             seleccion_pos = 2;
 1466              		.loc 1 364 0
 1467 0086 0222     		movs	r2, #2
 1468 0088 824B     		ldr	r3, .L612+24
 1469 008a 1A70     		strb	r2, [r3]
 1470              	.L139:
 365:.\main.c      ****         }
 366:.\main.c      **** 		    if(LCD_1_GetRxBufferSize()==8){
 1471              		.loc 1 366 0
 1472 008c FFF7FEFF 		bl	LCD_1_GetRxBufferSize
 1473              	.LVL95:
 1474 0090 0828     		cmp	r0, #8
 1475 0092 43F00B87 		bne	.L95
 367:.\main.c      ****                 if((LCD_1_rxBuffer[0]==0xAA) && (LCD_1_rxBuffer[6]==0xC3) && (LCD_1_rxBuffer[7]==0x
 1476              		.loc 1 367 0
 1477 0096 804B     		ldr	r3, .L612+28
 1478 0098 1B78     		ldrb	r3, [r3]	@ zero_extendqisi2
 1479 009a DBB2     		uxtb	r3, r3
 1480 009c AA2B     		cmp	r3, #170
 1481 009e 4FD1     		bne	.L140
ARM GAS  C:\Users\IN-002~1\AppData\Local\Temp\ccN5KMQc.s 			page 34


 1482              		.loc 1 367 0 is_stmt 0 discriminator 1
 1483 00a0 7D4B     		ldr	r3, .L612+28
 1484 00a2 9B79     		ldrb	r3, [r3, #6]	@ zero_extendqisi2
 1485 00a4 DBB2     		uxtb	r3, r3
 1486 00a6 C32B     		cmp	r3, #195
 1487 00a8 4AD1     		bne	.L140
 1488              		.loc 1 367 0 discriminator 2
 1489 00aa 7B4B     		ldr	r3, .L612+28
 1490 00ac DB79     		ldrb	r3, [r3, #7]	@ zero_extendqisi2
 1491 00ae DBB2     		uxtb	r3, r3
 1492 00b0 3C2B     		cmp	r3, #60
 1493 00b2 45D1     		bne	.L140
 368:.\main.c      ****                     switch(LCD_1_rxBuffer[3]){
 1494              		.loc 1 368 0 is_stmt 1
 1495 00b4 784B     		ldr	r3, .L612+28
 1496 00b6 DB78     		ldrb	r3, [r3, #3]	@ zero_extendqisi2
 1497 00b8 DBB2     		uxtb	r3, r3
 1498 00ba 562B     		cmp	r3, #86
 1499 00bc 02D0     		beq	.L141
 1500 00be 572B     		cmp	r3, #87
 1501 00c0 1FD0     		beq	.L142
 1502 00c2 3DE0     		b	.L140
 1503              	.L141:
 369:.\main.c      **** 				        case 0x56:						        //POS A                                                        
 370:.\main.c      ****                                 if(venta_activa == 1){
 1504              		.loc 1 370 0
 1505 00c4 6E4B     		ldr	r3, .L612+4
 1506 00c6 1B78     		ldrb	r3, [r3]	@ zero_extendqisi2
 1507 00c8 012B     		cmp	r3, #1
 1508 00ca 04D1     		bne	.L143
 371:.\main.c      ****                                     flujo_LCD = flujo_pos;      //Si está vendiendo en esta posici
 1509              		.loc 1 371 0
 1510 00cc 6D4B     		ldr	r3, .L612+8
 1511 00ce 1A78     		ldrb	r2, [r3]	@ zero_extendqisi2
 1512 00d0 6A4B     		ldr	r3, .L612
 1513 00d2 1A70     		strb	r2, [r3]
 1514 00d4 08E0     		b	.L144
 1515              	.L143:
 372:.\main.c      ****                                 }else{
 373:.\main.c      ****                                     set_imagen(1,99);           //Inicio opciones GRP 700 POS A
 1516              		.loc 1 373 0
 1517 00d6 0120     		movs	r0, #1
 1518 00d8 6321     		movs	r1, #99
 1519 00da FFF7FEFF 		bl	set_imagen
 1520              	.LVL96:
 374:.\main.c      ****                                     seleccion_pos = 1;
 1521              		.loc 1 374 0
 1522 00de 0123     		movs	r3, #1
 1523 00e0 6C4A     		ldr	r2, .L612+24
 1524 00e2 1370     		strb	r3, [r2]
 375:.\main.c      ****                                     flujo_LCD  = 1;
 1525              		.loc 1 375 0
 1526 00e4 654A     		ldr	r2, .L612
 1527 00e6 1370     		strb	r3, [r2]
 1528              	.L144:
 376:.\main.c      ****                                 }
 377:.\main.c      ****                                 if (venta_activa2 == 1){
ARM GAS  C:\Users\IN-002~1\AppData\Local\Temp\ccN5KMQc.s 			page 35


 1529              		.loc 1 377 0
 1530 00e8 674B     		ldr	r3, .L612+12
 1531 00ea 1B78     		ldrb	r3, [r3]	@ zero_extendqisi2
 1532 00ec 012B     		cmp	r3, #1
 1533 00ee 04D1     		bne	.L145
 378:.\main.c      ****                                     flujo_LCD2 = flujo_pos2;    //Si la venta está activa en POS B
 1534              		.loc 1 378 0
 1535 00f0 664B     		ldr	r3, .L612+16
 1536 00f2 1A78     		ldrb	r2, [r3]	@ zero_extendqisi2
 1537 00f4 664B     		ldr	r3, .L612+20
 1538 00f6 1A70     		strb	r2, [r3]
 1539 00f8 22E0     		b	.L140
 1540              	.L145:
 379:.\main.c      ****                                 }else{
 380:.\main.c      ****                                     flujo_LCD2 = 0;                            
 1541              		.loc 1 380 0
 1542 00fa 0022     		movs	r2, #0
 1543 00fc 644B     		ldr	r3, .L612+20
 1544 00fe 1A70     		strb	r2, [r3]
 1545 0100 1EE0     		b	.L140
 1546              	.L142:
 381:.\main.c      ****                                 }
 382:.\main.c      **** 					    break;
 383:.\main.c      ****                             		       
 384:.\main.c      **** 					    case 0x57:  				            //POS B                                                       
 385:.\main.c      ****                                 if(venta_activa == 1){
 1547              		.loc 1 385 0
 1548 0102 5F4B     		ldr	r3, .L612+4
 1549 0104 1B78     		ldrb	r3, [r3]	@ zero_extendqisi2
 1550 0106 012B     		cmp	r3, #1
 1551 0108 04D1     		bne	.L146
 386:.\main.c      ****                                     flujo_LCD = flujo_pos;
 1552              		.loc 1 386 0
 1553 010a 5E4B     		ldr	r3, .L612+8
 1554 010c 1A78     		ldrb	r2, [r3]	@ zero_extendqisi2
 1555 010e 5B4B     		ldr	r3, .L612
 1556 0110 1A70     		strb	r2, [r3]
 1557 0112 02E0     		b	.L147
 1558              	.L146:
 387:.\main.c      ****                                 }else{
 388:.\main.c      ****                                     flujo_LCD = 0;
 1559              		.loc 1 388 0
 1560 0114 0022     		movs	r2, #0
 1561 0116 594B     		ldr	r3, .L612
 1562 0118 1A70     		strb	r2, [r3]
 1563              	.L147:
 389:.\main.c      ****                                 } 
 390:.\main.c      ****                                 if (venta_activa2 == 1){                                    
 1564              		.loc 1 390 0
 1565 011a 5B4B     		ldr	r3, .L612+12
 1566 011c 1B78     		ldrb	r3, [r3]	@ zero_extendqisi2
 1567 011e 012B     		cmp	r3, #1
 1568 0120 04D1     		bne	.L148
 391:.\main.c      ****                                     flujo_LCD2 = flujo_pos2;
 1569              		.loc 1 391 0
 1570 0122 5A4B     		ldr	r3, .L612+16
 1571 0124 1A78     		ldrb	r2, [r3]	@ zero_extendqisi2
ARM GAS  C:\Users\IN-002~1\AppData\Local\Temp\ccN5KMQc.s 			page 36


 1572 0126 5A4B     		ldr	r3, .L612+20
 1573 0128 1A70     		strb	r2, [r3]
 1574 012a 09E0     		b	.L140
 1575              	.L148:
 392:.\main.c      ****                                 }else{
 393:.\main.c      ****                                     set_imagen(1,99);           //Inicio opciones GRP 700
 1576              		.loc 1 393 0
 1577 012c 0120     		movs	r0, #1
 1578 012e 6321     		movs	r1, #99
 1579 0130 FFF7FEFF 		bl	set_imagen
 1580              	.LVL97:
 394:.\main.c      **** 							        seleccion_pos = 2;
 1581              		.loc 1 394 0
 1582 0134 0222     		movs	r2, #2
 1583 0136 574B     		ldr	r3, .L612+24
 1584 0138 1A70     		strb	r2, [r3]
 395:.\main.c      ****                                     flujo_LCD2 = 1;                            
 1585              		.loc 1 395 0
 1586 013a 0122     		movs	r2, #1
 1587 013c 544B     		ldr	r3, .L612+20
 1588 013e 1A70     		strb	r2, [r3]
 1589              	.L140:
 396:.\main.c      ****                                 }                           
 397:.\main.c      **** 					    break;
 398:.\main.c      ****                                                    
 399:.\main.c      **** 				    }                                                            
 400:.\main.c      **** 			    }
 401:.\main.c      ****                 CyDelay(100);
 1590              		.loc 1 401 0
 1591 0140 6420     		movs	r0, #100
 1592 0142 FFF7FEFF 		bl	CyDelay
 1593              	.LVL98:
 402:.\main.c      **** 			    LCD_1_ClearRxBuffer();
 1594              		.loc 1 402 0
 1595 0146 FFF7FEFF 		bl	LCD_1_ClearRxBuffer
 1596              	.LVL99:
 1597 014a 38BD     		pop	{r3, r4, r5, pc}
 1598              	.L99:
 403:.\main.c      **** 		    }
 404:.\main.c      ****                                 
 405:.\main.c      ****         
 406:.\main.c      ****         break;
 407:.\main.c      ****             
 408:.\main.c      ****         case 1:
 409:.\main.c      ****             if(LCD_1_GetRxBufferSize()==8){
 1599              		.loc 1 409 0
 1600 014c FFF7FEFF 		bl	LCD_1_GetRxBufferSize
 1601              	.LVL100:
 1602 0150 0828     		cmp	r0, #8
 1603 0152 43F0AB86 		bne	.L95
 410:.\main.c      ****                 if((LCD_1_rxBuffer[0]==0xAA) && (LCD_1_rxBuffer[6]==0xC3) && (LCD_1_rxBuffer[7]==0x
 1604              		.loc 1 410 0
 1605 0156 504B     		ldr	r3, .L612+28
 1606 0158 1B78     		ldrb	r3, [r3]	@ zero_extendqisi2
 1607 015a DBB2     		uxtb	r3, r3
 1608 015c AA2B     		cmp	r3, #170
 1609 015e 46D1     		bne	.L149
ARM GAS  C:\Users\IN-002~1\AppData\Local\Temp\ccN5KMQc.s 			page 37


 1610              		.loc 1 410 0 is_stmt 0 discriminator 1
 1611 0160 4D4B     		ldr	r3, .L612+28
 1612 0162 9B79     		ldrb	r3, [r3, #6]	@ zero_extendqisi2
 1613 0164 DBB2     		uxtb	r3, r3
 1614 0166 C32B     		cmp	r3, #195
 1615 0168 41D1     		bne	.L149
 1616              		.loc 1 410 0 discriminator 2
 1617 016a 4B4B     		ldr	r3, .L612+28
 1618 016c DB79     		ldrb	r3, [r3, #7]	@ zero_extendqisi2
 1619 016e DBB2     		uxtb	r3, r3
 1620 0170 3C2B     		cmp	r3, #60
 1621 0172 3CD1     		bne	.L149
 411:.\main.c      ****                     switch(LCD_1_rxBuffer[3]){
 1622              		.loc 1 411 0 is_stmt 1
 1623 0174 484B     		ldr	r3, .L612+28
 1624 0176 DB78     		ldrb	r3, [r3, #3]	@ zero_extendqisi2
 1625 0178 DBB2     		uxtb	r3, r3
 1626 017a 5C2B     		cmp	r3, #92
 1627 017c 0AD0     		beq	.L150
 1628 017e 04D8     		bhi	.L151
 1629 0180 452B     		cmp	r3, #69
 1630 0182 0FD0     		beq	.L152
 1631 0184 592B     		cmp	r3, #89
 1632 0186 18D0     		beq	.L153
 1633 0188 31E0     		b	.L149
 1634              	.L151:
 1635 018a 7E2B     		cmp	r3, #126
 1636 018c 20D0     		beq	.L154
 1637 018e 942B     		cmp	r3, #148
 1638 0190 26D0     		beq	.L155
 1639 0192 2CE0     		b	.L149
 1640              	.L150:
 412:.\main.c      ****                         case 0x5C:
 413:.\main.c      ****                             set_imagen(1,73);        //Seleccion de tipo de venta
 1641              		.loc 1 413 0
 1642 0194 0120     		movs	r0, #1
 1643 0196 4921     		movs	r1, #73
 1644 0198 FFF7FEFF 		bl	set_imagen
 1645              	.LVL101:
 414:.\main.c      ****                             flujo_LCD = 2;
 1646              		.loc 1 414 0
 1647 019c 0222     		movs	r2, #2
 1648 019e 374B     		ldr	r3, .L612
 1649 01a0 1A70     		strb	r2, [r3]
 415:.\main.c      ****                         break;
 1650              		.loc 1 415 0
 1651 01a2 24E0     		b	.L149
 1652              	.L152:
 416:.\main.c      ****                         
 417:.\main.c      ****                         case 0x45:		  
 418:.\main.c      **** 					        set_imagen(1,37);	
 1653              		.loc 1 418 0
 1654 01a4 0120     		movs	r0, #1
 1655 01a6 2521     		movs	r1, #37
 1656 01a8 FFF7FEFF 		bl	set_imagen
 1657              	.LVL102:
 419:.\main.c      ****                             teclas1=0; 						    //Otras opciones
ARM GAS  C:\Users\IN-002~1\AppData\Local\Temp\ccN5KMQc.s 			page 38


 1658              		.loc 1 419 0
 1659 01ac 0022     		movs	r2, #0
 1660 01ae 3B4B     		ldr	r3, .L612+32
 1661 01b0 1A70     		strb	r2, [r3]
 420:.\main.c      ****                             flujo_LCD=15;   
 1662              		.loc 1 420 0
 1663 01b2 0F22     		movs	r2, #15
 1664 01b4 314B     		ldr	r3, .L612
 1665 01b6 1A70     		strb	r2, [r3]
 421:.\main.c      ****                         break; 
 1666              		.loc 1 421 0
 1667 01b8 19E0     		b	.L149
 1668              	.L153:
 422:.\main.c      **** 
 423:.\main.c      ****                         case 0x59:		 
 424:.\main.c      ****                             set_imagen(1,37);
 1669              		.loc 1 424 0
 1670 01ba 0120     		movs	r0, #1
 1671 01bc 2521     		movs	r1, #37
 1672 01be FFF7FEFF 		bl	set_imagen
 1673              	.LVL103:
 425:.\main.c      **** 					        teclas1=0;								//Corte
 1674              		.loc 1 425 0
 1675 01c2 0022     		movs	r2, #0
 1676 01c4 354B     		ldr	r3, .L612+32
 1677 01c6 1A70     		strb	r2, [r3]
 426:.\main.c      ****                             flujo_LCD = 39;   
 1678              		.loc 1 426 0
 1679 01c8 2722     		movs	r2, #39
 1680 01ca 2C4B     		ldr	r3, .L612
 1681 01cc 1A70     		strb	r2, [r3]
 427:.\main.c      ****                         break;
 1682              		.loc 1 427 0
 1683 01ce 0EE0     		b	.L149
 1684              	.L154:
 428:.\main.c      ****                             
 429:.\main.c      ****                         case 0x7E:
 430:.\main.c      ****                             set_imagen(1,46); //Regreso a pantalla de selección de posición
 1685              		.loc 1 430 0
 1686 01d0 0120     		movs	r0, #1
 1687 01d2 2E21     		movs	r1, #46
 1688 01d4 FFF7FEFF 		bl	set_imagen
 1689              	.LVL104:
 431:.\main.c      ****                             flujo_LCD = 0;
 1690              		.loc 1 431 0
 1691 01d8 0022     		movs	r2, #0
 1692 01da 284B     		ldr	r3, .L612
 1693 01dc 1A70     		strb	r2, [r3]
 432:.\main.c      ****                         break;
 1694              		.loc 1 432 0
 1695 01de 06E0     		b	.L149
 1696              	.L155:
 433:.\main.c      ****                             
 434:.\main.c      ****                         case 0x94:
 435:.\main.c      ****                             set_imagen(1,46); //Regreso a pantalla de selección de posición
 1697              		.loc 1 435 0
 1698 01e0 0120     		movs	r0, #1
ARM GAS  C:\Users\IN-002~1\AppData\Local\Temp\ccN5KMQc.s 			page 39


 1699 01e2 2E21     		movs	r1, #46
 1700 01e4 FFF7FEFF 		bl	set_imagen
 1701              	.LVL105:
 436:.\main.c      ****                             flujo_LCD = 0;
 1702              		.loc 1 436 0
 1703 01e8 0022     		movs	r2, #0
 1704 01ea 244B     		ldr	r3, .L612
 1705 01ec 1A70     		strb	r2, [r3]
 1706              	.L149:
 437:.\main.c      ****                         break;                            
 438:.\main.c      ****                 }
 439:.\main.c      ****             }
 440:.\main.c      ****             CyDelay(100);
 1707              		.loc 1 440 0
 1708 01ee 6420     		movs	r0, #100
 1709 01f0 FFF7FEFF 		bl	CyDelay
 1710              	.LVL106:
 441:.\main.c      ****             LCD_1_ClearRxBuffer();
 1711              		.loc 1 441 0
 1712 01f4 FFF7FEFF 		bl	LCD_1_ClearRxBuffer
 1713              	.LVL107:
 1714 01f8 38BD     		pop	{r3, r4, r5, pc}
 1715              	.L100:
 442:.\main.c      ****         }
 443:.\main.c      ****         break;
 444:.\main.c      ****         
 445:.\main.c      ****         case 2:     
 446:.\main.c      ****          if(LCD_1_GetRxBufferSize()==8){
 1716              		.loc 1 446 0
 1717 01fa FFF7FEFF 		bl	LCD_1_GetRxBufferSize
 1718              	.LVL108:
 1719 01fe 0828     		cmp	r0, #8
 1720 0200 43F05486 		bne	.L95
 447:.\main.c      ****             if((LCD_1_rxBuffer[0]==0xAA) && (LCD_1_rxBuffer[6]==0xC3) && (LCD_1_rxBuffer[7]==0x3C))
 1721              		.loc 1 447 0
 1722 0204 244B     		ldr	r3, .L612+28
 1723 0206 1B78     		ldrb	r3, [r3]	@ zero_extendqisi2
 1724 0208 DBB2     		uxtb	r3, r3
 1725 020a AA2B     		cmp	r3, #170
 1726 020c 53D1     		bne	.L156
 1727              		.loc 1 447 0 is_stmt 0 discriminator 1
 1728 020e 224B     		ldr	r3, .L612+28
 1729 0210 9B79     		ldrb	r3, [r3, #6]	@ zero_extendqisi2
 1730 0212 DBB2     		uxtb	r3, r3
 1731 0214 C32B     		cmp	r3, #195
 1732 0216 4ED1     		bne	.L156
 1733              		.loc 1 447 0 discriminator 2
 1734 0218 1F4B     		ldr	r3, .L612+28
 1735 021a DB79     		ldrb	r3, [r3, #7]	@ zero_extendqisi2
 1736 021c DBB2     		uxtb	r3, r3
 1737 021e 3C2B     		cmp	r3, #60
 1738 0220 49D1     		bne	.L156
 448:.\main.c      ****                 switch(LCD_1_rxBuffer[3]){
 1739              		.loc 1 448 0 is_stmt 1
 1740 0222 1D4B     		ldr	r3, .L612+28
 1741 0224 DB78     		ldrb	r3, [r3, #3]	@ zero_extendqisi2
 1742 0226 DBB2     		uxtb	r3, r3
ARM GAS  C:\Users\IN-002~1\AppData\Local\Temp\ccN5KMQc.s 			page 40


 1743 0228 5F2B     		cmp	r3, #95
 1744 022a 08D0     		beq	.L157
 1745 022c 02D8     		bhi	.L158
 1746 022e 5E2B     		cmp	r3, #94
 1747 0230 10D0     		beq	.L159
 1748 0232 40E0     		b	.L156
 1749              	.L158:
 1750 0234 7E2B     		cmp	r3, #126
 1751 0236 18D0     		beq	.L160
 1752 0238 942B     		cmp	r3, #148
 1753 023a 35D0     		beq	.L161
 1754 023c 3BE0     		b	.L156
 1755              	.L157:
 449:.\main.c      ****                     case 0x5F:							//Sin ID	                                                     
 450:.\main.c      ****                       set_imagen(1,11);                 //Pasa a pantalla de solicitud de recibo
 1756              		.loc 1 450 0
 1757 023e 0120     		movs	r0, #1
 1758 0240 0B21     		movs	r1, #11
 1759 0242 FFF7FEFF 		bl	set_imagen
 1760              	.LVL109:
 451:.\main.c      ****                       Buffer_LCD1.preset = 0x00;
 1761              		.loc 1 451 0
 1762 0246 0022     		movs	r2, #0
 1763 0248 154B     		ldr	r3, .L612+36
 1764 024a DA70     		strb	r2, [r3, #3]
 452:.\main.c      ****                       flujo_LCD=10; 
 1765              		.loc 1 452 0
 1766 024c 0A22     		movs	r2, #10
 1767 024e 0B4B     		ldr	r3, .L612
 1768 0250 1A70     		strb	r2, [r3]
 453:.\main.c      ****                     break;
 1769              		.loc 1 453 0
 1770 0252 30E0     		b	.L156
 1771              	.L159:
 454:.\main.c      ****                     
 455:.\main.c      ****                     case 0x5E:  						//Con ID                                         
 456:.\main.c      ****                       set_imagen(1,29);
 1772              		.loc 1 456 0
 1773 0254 0120     		movs	r0, #1
 1774 0256 1D21     		movs	r1, #29
 1775 0258 FFF7FEFF 		bl	set_imagen
 1776              	.LVL110:
 457:.\main.c      ****                       no_imprime = 0;
 1777              		.loc 1 457 0
 1778 025c 0022     		movs	r2, #0
 1779 025e 114B     		ldr	r3, .L612+40
 1780 0260 1A70     		strb	r2, [r3]
 458:.\main.c      ****                       flujo_LCD=11;
 1781              		.loc 1 458 0
 1782 0262 0B22     		movs	r2, #11
 1783 0264 054B     		ldr	r3, .L612
 1784 0266 1A70     		strb	r2, [r3]
 459:.\main.c      ****                     break;	
 1785              		.loc 1 459 0
 1786 0268 25E0     		b	.L156
 1787              	.L160:
 460:.\main.c      **** 
ARM GAS  C:\Users\IN-002~1\AppData\Local\Temp\ccN5KMQc.s 			page 41


 461:.\main.c      ****                     case 0x7E:						    //ir a menu
 462:.\main.c      **** 					  set_imagen(1,46);	
 1788              		.loc 1 462 0
 1789 026a 0120     		movs	r0, #1
 1790 026c 2E21     		movs	r1, #46
 1791 026e FFF7FEFF 		bl	set_imagen
 1792              	.LVL111:
 463:.\main.c      ****                       flujo_LCD=0;     
 1793              		.loc 1 463 0
 1794 0272 0022     		movs	r2, #0
 1795 0274 014B     		ldr	r3, .L612
 1796 0276 1A70     		strb	r2, [r3]
 464:.\main.c      ****                     break;	
 1797              		.loc 1 464 0
 1798 0278 1DE0     		b	.L156
 1799              	.L613:
 1800 027a 00BF     		.align	2
 1801              	.L612:
 1802 027c 00000000 		.word	flujo_LCD
 1803 0280 00000000 		.word	venta_activa
 1804 0284 00000000 		.word	flujo_pos
 1805 0288 00000000 		.word	venta_activa2
 1806 028c 00000000 		.word	flujo_pos2
 1807 0290 00000000 		.word	flujo_LCD2
 1808 0294 00000000 		.word	seleccion_pos
 1809 0298 00000000 		.word	LCD_1_rxBuffer
 1810 029c 00000000 		.word	teclas1
 1811 02a0 00000000 		.word	Buffer_LCD1
 1812 02a4 00000000 		.word	no_imprime
 1813              	.L161:
 465:.\main.c      ****                     
 466:.\main.c      ****                     case 0x94:
 467:.\main.c      ****                         set_imagen(1,99); //Regreso a pantalla de selección de posición
 1814              		.loc 1 467 0
 1815 02a8 0120     		movs	r0, #1
 1816 02aa 6321     		movs	r1, #99
 1817 02ac FFF7FEFF 		bl	set_imagen
 1818              	.LVL112:
 468:.\main.c      ****                         flujo_LCD = 1;
 1819              		.loc 1 468 0
 1820 02b0 0122     		movs	r2, #1
 1821 02b2 9B4B     		ldr	r3, .L614
 1822 02b4 1A70     		strb	r2, [r3]
 1823              	.L156:
 469:.\main.c      ****                     break;
 470:.\main.c      ****                 }
 471:.\main.c      ****             }
 472:.\main.c      ****             CyDelay(100);
 1824              		.loc 1 472 0
 1825 02b6 6420     		movs	r0, #100
 1826 02b8 FFF7FEFF 		bl	CyDelay
 1827              	.LVL113:
 473:.\main.c      ****             LCD_1_ClearRxBuffer();
 1828              		.loc 1 473 0
 1829 02bc FFF7FEFF 		bl	LCD_1_ClearRxBuffer
 1830              	.LVL114:
 1831 02c0 38BD     		pop	{r3, r4, r5, pc}
ARM GAS  C:\Users\IN-002~1\AppData\Local\Temp\ccN5KMQc.s 			page 42


 1832              	.L101:
 474:.\main.c      ****         }        
 475:.\main.c      ****         break;
 476:.\main.c      ****         
 477:.\main.c      ****         case 4:   
 478:.\main.c      ****             if(LCD_1_GetRxBufferSize()==8){
 1833              		.loc 1 478 0
 1834 02c2 FFF7FEFF 		bl	LCD_1_GetRxBufferSize
 1835              	.LVL115:
 1836 02c6 0828     		cmp	r0, #8
 1837 02c8 43F0F085 		bne	.L95
 479:.\main.c      ****                 if((LCD_1_rxBuffer[0]==0xAA) && (LCD_1_rxBuffer[6]==0xC3) && (LCD_1_rxBuffer[7]==0x
 1838              		.loc 1 479 0
 1839 02cc 954B     		ldr	r3, .L614+4
 1840 02ce 1B78     		ldrb	r3, [r3]	@ zero_extendqisi2
 1841 02d0 DBB2     		uxtb	r3, r3
 1842 02d2 AA2B     		cmp	r3, #170
 1843 02d4 69D1     		bne	.L162
 1844              		.loc 1 479 0 is_stmt 0 discriminator 1
 1845 02d6 934B     		ldr	r3, .L614+4
 1846 02d8 9B79     		ldrb	r3, [r3, #6]	@ zero_extendqisi2
 1847 02da DBB2     		uxtb	r3, r3
 1848 02dc C32B     		cmp	r3, #195
 1849 02de 64D1     		bne	.L162
 1850              		.loc 1 479 0 discriminator 2
 1851 02e0 904B     		ldr	r3, .L614+4
 1852 02e2 DB79     		ldrb	r3, [r3, #7]	@ zero_extendqisi2
 1853 02e4 DBB2     		uxtb	r3, r3
 1854 02e6 3C2B     		cmp	r3, #60
 1855 02e8 5FD1     		bne	.L162
 480:.\main.c      **** 				    Buffer_LCD1.preset&=0xFC;
 1856              		.loc 1 480 0 is_stmt 1
 1857 02ea 8F4A     		ldr	r2, .L614+8
 1858 02ec D378     		ldrb	r3, [r2, #3]	@ zero_extendqisi2
 1859 02ee 23F00303 		bic	r3, r3, #3
 1860 02f2 D370     		strb	r3, [r2, #3]
 481:.\main.c      ****                     switch(LCD_1_rxBuffer[3]){
 1861              		.loc 1 481 0
 1862 02f4 8B4B     		ldr	r3, .L614+4
 1863 02f6 DB78     		ldrb	r3, [r3, #3]	@ zero_extendqisi2
 1864 02f8 DBB2     		uxtb	r3, r3
 1865 02fa 3B2B     		cmp	r3, #59
 1866 02fc 3ED0     		beq	.L163
 1867 02fe 04D8     		bhi	.L164
 1868 0300 0F2B     		cmp	r3, #15
 1869 0302 09D0     		beq	.L165
 1870 0304 102B     		cmp	r3, #16
 1871 0306 1BD0     		beq	.L166
 1872 0308 4FE0     		b	.L162
 1873              	.L164:
 1874 030a 7E2B     		cmp	r3, #126
 1875 030c 3ED0     		beq	.L167
 1876 030e 942B     		cmp	r3, #148
 1877 0310 44D0     		beq	.L168
 1878 0312 432B     		cmp	r3, #67
 1879 0314 49D1     		bne	.L162
 1880 0316 29E0     		b	.L169
ARM GAS  C:\Users\IN-002~1\AppData\Local\Temp\ccN5KMQc.s 			page 43


 1881              	.L165:
 482:.\main.c      ****                         case 0x0F:		   					 	 //Preset por dinero	                               
 483:.\main.c      ****                             set_imagen(1,6);                              
 1882              		.loc 1 483 0
 1883 0318 0120     		movs	r0, #1
 1884 031a 0621     		movs	r1, #6
 1885 031c FFF7FEFF 		bl	set_imagen
 1886              	.LVL116:
 484:.\main.c      ****                             teclas1=0;                           //Inicia el contador de teclas    
 1887              		.loc 1 484 0
 1888 0320 0022     		movs	r2, #0
 1889 0322 824B     		ldr	r3, .L614+12
 1890 0324 1A70     		strb	r2, [r3]
 485:.\main.c      ****                             write_LCD(1,'$',0);
 1891              		.loc 1 485 0
 1892 0326 0120     		movs	r0, #1
 1893 0328 2421     		movs	r1, #36
 1894 032a FFF7FEFF 		bl	write_LCD
 1895              	.LVL117:
 486:.\main.c      **** 					        Buffer_LCD1.preset|=2;
 1896              		.loc 1 486 0
 1897 032e 7E4A     		ldr	r2, .L614+8
 1898 0330 D378     		ldrb	r3, [r2, #3]	@ zero_extendqisi2
 1899 0332 43F00203 		orr	r3, r3, #2
 1900 0336 D370     		strb	r3, [r2, #3]
 487:.\main.c      ****                             flujo_LCD=5;   
 1901              		.loc 1 487 0
 1902 0338 0522     		movs	r2, #5
 1903 033a 794B     		ldr	r3, .L614
 1904 033c 1A70     		strb	r2, [r3]
 488:.\main.c      ****                         break;
 1905              		.loc 1 488 0
 1906 033e 34E0     		b	.L162
 1907              	.L166:
 489:.\main.c      ****                     
 490:.\main.c      ****                         case 0x10:  	                         //Inicia el contador de teclas
 491:.\main.c      ****                             set_imagen(1,13);              
 1908              		.loc 1 491 0
 1909 0340 0120     		movs	r0, #1
 1910 0342 0D21     		movs	r1, #13
 1911 0344 FFF7FEFF 		bl	set_imagen
 1912              	.LVL118:
 492:.\main.c      ****                             teclas1=0;       
 1913              		.loc 1 492 0
 1914 0348 0022     		movs	r2, #0
 1915 034a 784B     		ldr	r3, .L614+12
 1916 034c 1A70     		strb	r2, [r3]
 493:.\main.c      ****                             comas1=0;
 1917              		.loc 1 493 0
 1918 034e 784B     		ldr	r3, .L614+16
 1919 0350 1A70     		strb	r2, [r3]
 494:.\main.c      ****                             write_LCD(1,'G',0);
 1920              		.loc 1 494 0
 1921 0352 0120     		movs	r0, #1
 1922 0354 4721     		movs	r1, #71
 1923 0356 FFF7FEFF 		bl	write_LCD
 1924              	.LVL119:
ARM GAS  C:\Users\IN-002~1\AppData\Local\Temp\ccN5KMQc.s 			page 44


 495:.\main.c      **** 					        Buffer_LCD1.preset|=1;				 // Preset por volumen
 1925              		.loc 1 495 0
 1926 035a 734A     		ldr	r2, .L614+8
 1927 035c D378     		ldrb	r3, [r2, #3]	@ zero_extendqisi2
 1928 035e 43F00103 		orr	r3, r3, #1
 1929 0362 D370     		strb	r3, [r2, #3]
 496:.\main.c      ****                             flujo_LCD=5;   
 1930              		.loc 1 496 0
 1931 0364 0522     		movs	r2, #5
 1932 0366 6E4B     		ldr	r3, .L614
 1933 0368 1A70     		strb	r2, [r3]
 497:.\main.c      ****                         break;
 1934              		.loc 1 497 0
 1935 036a 1EE0     		b	.L162
 1936              	.L169:
 498:.\main.c      ****                     
 499:.\main.c      ****                         case 0x43:  	                                     
 500:.\main.c      ****                             set_imagen(1,7);					 //Full
 1937              		.loc 1 500 0
 1938 036c 0120     		movs	r0, #1
 1939 036e 0721     		movs	r1, #7
 1940 0370 FFF7FEFF 		bl	set_imagen
 1941              	.LVL120:
 501:.\main.c      ****                             flujo_LCD = 6;    
 1942              		.loc 1 501 0
 1943 0374 0622     		movs	r2, #6
 1944 0376 6A4B     		ldr	r3, .L614
 1945 0378 1A70     		strb	r2, [r3]
 502:.\main.c      ****                         break;
 1946              		.loc 1 502 0
 1947 037a 16E0     		b	.L162
 1948              	.L163:
 503:.\main.c      ****                     
 504:.\main.c      ****                         case 0x3B:                        	    //Cancel                     					  
 505:.\main.c      **** 		            	    set_imagen(1,46);			 						  
 1949              		.loc 1 505 0
 1950 037c 0120     		movs	r0, #1
 1951 037e 2E21     		movs	r1, #46
 1952 0380 FFF7FEFF 		bl	set_imagen
 1953              	.LVL121:
 506:.\main.c      **** 					        flujo_LCD=0;  
 1954              		.loc 1 506 0
 1955 0384 0022     		movs	r2, #0
 1956 0386 664B     		ldr	r3, .L614
 1957 0388 1A70     		strb	r2, [r3]
 507:.\main.c      ****                         break; 
 1958              		.loc 1 507 0
 1959 038a 0EE0     		b	.L162
 1960              	.L167:
 508:.\main.c      **** 					
 509:.\main.c      ****                         case 0x7E:									//ir a menu
 510:.\main.c      **** 					        set_imagen(1,46);
 1961              		.loc 1 510 0
 1962 038c 0120     		movs	r0, #1
 1963 038e 2E21     		movs	r1, #46
 1964 0390 FFF7FEFF 		bl	set_imagen
 1965              	.LVL122:
ARM GAS  C:\Users\IN-002~1\AppData\Local\Temp\ccN5KMQc.s 			page 45


 511:.\main.c      ****                             flujo_LCD=0;     
 1966              		.loc 1 511 0
 1967 0394 0022     		movs	r2, #0
 1968 0396 624B     		ldr	r3, .L614
 1969 0398 1A70     		strb	r2, [r3]
 512:.\main.c      ****                         break;	
 1970              		.loc 1 512 0
 1971 039a 06E0     		b	.L162
 1972              	.L168:
 513:.\main.c      ****                         
 514:.\main.c      ****                         case 0x94:
 515:.\main.c      ****                             set_imagen(1,11); //Regreso a pantalla de selección de posición
 1973              		.loc 1 515 0
 1974 039c 0120     		movs	r0, #1
 1975 039e 0B21     		movs	r1, #11
 1976 03a0 FFF7FEFF 		bl	set_imagen
 1977              	.LVL123:
 516:.\main.c      ****                             flujo_LCD = 10;
 1978              		.loc 1 516 0
 1979 03a4 0A22     		movs	r2, #10
 1980 03a6 5E4B     		ldr	r3, .L614
 1981 03a8 1A70     		strb	r2, [r3]
 1982              	.L162:
 517:.\main.c      ****                         break;
 518:.\main.c      ****                 }
 519:.\main.c      ****             }
 520:.\main.c      ****             CyDelay(100);            
 1983              		.loc 1 520 0
 1984 03aa 6420     		movs	r0, #100
 1985 03ac FFF7FEFF 		bl	CyDelay
 1986              	.LVL124:
 521:.\main.c      ****             LCD_1_ClearRxBuffer();
 1987              		.loc 1 521 0
 1988 03b0 FFF7FEFF 		bl	LCD_1_ClearRxBuffer
 1989              	.LVL125:
 1990 03b4 38BD     		pop	{r3, r4, r5, pc}
 1991              	.L102:
 522:.\main.c      ****          } 
 523:.\main.c      ****         break;
 524:.\main.c      ****         
 525:.\main.c      ****         case 5:   
 526:.\main.c      ****          if(LCD_1_GetRxBufferSize()==8){
 1992              		.loc 1 526 0
 1993 03b6 FFF7FEFF 		bl	LCD_1_GetRxBufferSize
 1994              	.LVL126:
 1995 03ba 0828     		cmp	r0, #8
 1996 03bc 43F07685 		bne	.L95
 527:.\main.c      ****             if((LCD_1_rxBuffer[0]==0xAA) && (LCD_1_rxBuffer[6]==0xC3) && (LCD_1_rxBuffer[7]==0x3C))
 1997              		.loc 1 527 0
 1998 03c0 584B     		ldr	r3, .L614+4
 1999 03c2 1B78     		ldrb	r3, [r3]	@ zero_extendqisi2
 2000 03c4 DBB2     		uxtb	r3, r3
 2001 03c6 AA2B     		cmp	r3, #170
 2002 03c8 40F0A480 		bne	.L170
 2003              		.loc 1 527 0 is_stmt 0 discriminator 1
 2004 03cc 554B     		ldr	r3, .L614+4
 2005 03ce 9B79     		ldrb	r3, [r3, #6]	@ zero_extendqisi2
ARM GAS  C:\Users\IN-002~1\AppData\Local\Temp\ccN5KMQc.s 			page 46


 2006 03d0 DBB2     		uxtb	r3, r3
 2007 03d2 C32B     		cmp	r3, #195
 2008 03d4 40F09E80 		bne	.L170
 2009              		.loc 1 527 0 discriminator 2
 2010 03d8 524B     		ldr	r3, .L614+4
 2011 03da DB79     		ldrb	r3, [r3, #7]	@ zero_extendqisi2
 2012 03dc DBB2     		uxtb	r3, r3
 2013 03de 3C2B     		cmp	r3, #60
 2014 03e0 40F09880 		bne	.L170
 528:.\main.c      ****                 if(teclas1<=(versurt-1)){
 2015              		.loc 1 528 0 is_stmt 1
 2016 03e4 514B     		ldr	r3, .L614+12
 2017 03e6 1B78     		ldrb	r3, [r3]	@ zero_extendqisi2
 2018 03e8 524A     		ldr	r2, .L614+20
 2019 03ea 1278     		ldrb	r2, [r2]	@ zero_extendqisi2
 2020 03ec 013A     		subs	r2, r2, #1
 2021 03ee 9342     		cmp	r3, r2
 2022 03f0 3EDC     		bgt	.L171
 529:.\main.c      ****                     if(LCD_1_rxBuffer[3]<=9){
 2023              		.loc 1 529 0
 2024 03f2 4C4A     		ldr	r2, .L614+4
 2025 03f4 D278     		ldrb	r2, [r2, #3]	@ zero_extendqisi2
 2026 03f6 D2B2     		uxtb	r2, r2
 2027 03f8 092A     		cmp	r2, #9
 2028 03fa 0FD8     		bhi	.L172
 530:.\main.c      ****                         teclas1++;
 2029              		.loc 1 530 0
 2030 03fc 0133     		adds	r3, r3, #1
 2031 03fe DAB2     		uxtb	r2, r3
 2032 0400 4A4B     		ldr	r3, .L614+12
 2033 0402 1A70     		strb	r2, [r3]
 531:.\main.c      ****                         Buffer_LCD1.valor[teclas1]=LCD_1_rxBuffer[3]+0x30;
 2034              		.loc 1 531 0
 2035 0404 4748     		ldr	r0, .L614+4
 2036 0406 C178     		ldrb	r1, [r0, #3]	@ zero_extendqisi2
 2037 0408 474B     		ldr	r3, .L614+8
 2038 040a 1344     		add	r3, r3, r2
 2039 040c 3031     		adds	r1, r1, #48
 2040 040e D972     		strb	r1, [r3, #11]
 532:.\main.c      ****                         write_LCD(1,(LCD_1_rxBuffer[3]+0x30),teclas1);
 2041              		.loc 1 532 0
 2042 0410 C178     		ldrb	r1, [r0, #3]	@ zero_extendqisi2
 2043 0412 3031     		adds	r1, r1, #48
 2044 0414 0120     		movs	r0, #1
 2045 0416 C9B2     		uxtb	r1, r1
 2046 0418 FFF7FEFF 		bl	write_LCD
 2047              	.LVL127:
 2048              	.L172:
 533:.\main.c      ****                     }
 534:.\main.c      ****                     if(LCD_1_rxBuffer[3]==0x0A){            	//Comando de 0
 2049              		.loc 1 534 0
 2050 041c 414B     		ldr	r3, .L614+4
 2051 041e DB78     		ldrb	r3, [r3, #3]	@ zero_extendqisi2
 2052 0420 DBB2     		uxtb	r3, r3
 2053 0422 0A2B     		cmp	r3, #10
 2054 0424 0BD1     		bne	.L173
 535:.\main.c      ****                         teclas1++;
ARM GAS  C:\Users\IN-002~1\AppData\Local\Temp\ccN5KMQc.s 			page 47


 2055              		.loc 1 535 0
 2056 0426 414B     		ldr	r3, .L614+12
 2057 0428 1A78     		ldrb	r2, [r3]	@ zero_extendqisi2
 2058 042a 0132     		adds	r2, r2, #1
 2059 042c D2B2     		uxtb	r2, r2
 2060 042e 1A70     		strb	r2, [r3]
 536:.\main.c      ****                         Buffer_LCD1.valor[teclas1]=0x30;
 2061              		.loc 1 536 0
 2062 0430 3D4B     		ldr	r3, .L614+8
 2063 0432 1344     		add	r3, r3, r2
 2064 0434 3021     		movs	r1, #48
 2065 0436 D972     		strb	r1, [r3, #11]
 537:.\main.c      ****                         write_LCD(1,0x30,teclas1);
 2066              		.loc 1 537 0
 2067 0438 0120     		movs	r0, #1
 2068 043a FFF7FEFF 		bl	write_LCD
 2069              	.LVL128:
 2070              	.L173:
 538:.\main.c      ****                     }  
 539:.\main.c      ****                     if(LCD_1_rxBuffer[3]==0x51){            	//Comando de Coma
 2071              		.loc 1 539 0
 2072 043e 394B     		ldr	r3, .L614+4
 2073 0440 DB78     		ldrb	r3, [r3, #3]	@ zero_extendqisi2
 2074 0442 DBB2     		uxtb	r3, r3
 2075 0444 512B     		cmp	r3, #81
 2076 0446 13D1     		bne	.L171
 540:.\main.c      ****                         if(teclas1>=1 && comas1==0){
 2077              		.loc 1 540 0
 2078 0448 384B     		ldr	r3, .L614+12
 2079 044a 1B78     		ldrb	r3, [r3]	@ zero_extendqisi2
 2080 044c 83B1     		cbz	r3, .L171
 2081              		.loc 1 540 0 is_stmt 0 discriminator 1
 2082 044e 384A     		ldr	r2, .L614+16
 2083 0450 1278     		ldrb	r2, [r2]	@ zero_extendqisi2
 2084 0452 6AB9     		cbnz	r2, .L171
 541:.\main.c      ****                             teclas1++;
 2085              		.loc 1 541 0 is_stmt 1
 2086 0454 0133     		adds	r3, r3, #1
 2087 0456 DAB2     		uxtb	r2, r3
 2088 0458 344B     		ldr	r3, .L614+12
 2089 045a 1A70     		strb	r2, [r3]
 542:.\main.c      ****                             Buffer_LCD1.valor[teclas1]=0x2C;
 2090              		.loc 1 542 0
 2091 045c 324B     		ldr	r3, .L614+8
 2092 045e 1344     		add	r3, r3, r2
 2093 0460 2C21     		movs	r1, #44
 2094 0462 D972     		strb	r1, [r3, #11]
 543:.\main.c      ****                             write_LCD(1,0x2C,teclas1);
 2095              		.loc 1 543 0
 2096 0464 0120     		movs	r0, #1
 2097 0466 FFF7FEFF 		bl	write_LCD
 2098              	.LVL129:
 544:.\main.c      ****                             comas1=1;
 2099              		.loc 1 544 0
 2100 046a 0122     		movs	r2, #1
 2101 046c 304B     		ldr	r3, .L614+16
 2102 046e 1A70     		strb	r2, [r3]
ARM GAS  C:\Users\IN-002~1\AppData\Local\Temp\ccN5KMQc.s 			page 48


 2103              	.L171:
 545:.\main.c      ****                         }
 546:.\main.c      ****                     }                    
 547:.\main.c      ****                 }
 548:.\main.c      ****                 if(LCD_1_rxBuffer[3]==0x0B){					//Cancel
 2104              		.loc 1 548 0
 2105 0470 2C4B     		ldr	r3, .L614+4
 2106 0472 DB78     		ldrb	r3, [r3, #3]	@ zero_extendqisi2
 2107 0474 DBB2     		uxtb	r3, r3
 2108 0476 0B2B     		cmp	r3, #11
 2109 0478 1BD1     		bne	.L174
 549:.\main.c      ****                     if(teclas1==0){								//Si no ha presionado nada regresa al menu anterior
 2110              		.loc 1 549 0
 2111 047a 2C4B     		ldr	r3, .L614+12
 2112 047c 1A78     		ldrb	r2, [r3]	@ zero_extendqisi2
 2113 047e 3AB9     		cbnz	r2, .L175
 550:.\main.c      ****                         set_imagen(1,5);
 2114              		.loc 1 550 0
 2115 0480 0120     		movs	r0, #1
 2116 0482 0521     		movs	r1, #5
 2117 0484 FFF7FEFF 		bl	set_imagen
 2118              	.LVL130:
 551:.\main.c      ****                         flujo_LCD=4;
 2119              		.loc 1 551 0
 2120 0488 0422     		movs	r2, #4
 2121 048a 254B     		ldr	r3, .L614
 2122 048c 1A70     		strb	r2, [r3]
 2123 048e 10E0     		b	.L174
 2124              	.L175:
 552:.\main.c      ****                     }
 553:.\main.c      ****                     else{
 554:.\main.c      ****                         write_LCD(1,0x20,(teclas1));			//Si ya presiono borra el dato	
 2125              		.loc 1 554 0
 2126 0490 0120     		movs	r0, #1
 2127 0492 2021     		movs	r1, #32
 2128 0494 FFF7FEFF 		bl	write_LCD
 2129              	.LVL131:
 555:.\main.c      ****                         if(Buffer_LCD1.valor[teclas1]==0x2C){
 2130              		.loc 1 555 0
 2131 0498 244B     		ldr	r3, .L614+12
 2132 049a 1B78     		ldrb	r3, [r3]	@ zero_extendqisi2
 2133 049c 224A     		ldr	r2, .L614+8
 2134 049e 1A44     		add	r2, r2, r3
 2135 04a0 D27A     		ldrb	r2, [r2, #11]	@ zero_extendqisi2
 2136 04a2 2C2A     		cmp	r2, #44
 2137 04a4 02D1     		bne	.L176
 556:.\main.c      ****                             comas1=0;
 2138              		.loc 1 556 0
 2139 04a6 0021     		movs	r1, #0
 2140 04a8 214A     		ldr	r2, .L614+16
 2141 04aa 1170     		strb	r1, [r2]
 2142              	.L176:
 557:.\main.c      ****                         }
 558:.\main.c      ****                         teclas1--;
 2143              		.loc 1 558 0
 2144 04ac 013B     		subs	r3, r3, #1
 2145 04ae 1F4A     		ldr	r2, .L614+12
ARM GAS  C:\Users\IN-002~1\AppData\Local\Temp\ccN5KMQc.s 			page 49


 2146 04b0 1370     		strb	r3, [r2]
 2147              	.L174:
 559:.\main.c      ****                     }
 560:.\main.c      ****                 }
 561:.\main.c      ****                 if(LCD_1_rxBuffer[3]==0x0C){					//Enter
 2148              		.loc 1 561 0
 2149 04b2 1C4B     		ldr	r3, .L614+4
 2150 04b4 DB78     		ldrb	r3, [r3, #3]	@ zero_extendqisi2
 2151 04b6 DBB2     		uxtb	r3, r3
 2152 04b8 0C2B     		cmp	r3, #12
 2153 04ba 2BD1     		bne	.L170
 562:.\main.c      ****                     if(teclas1>=1 && a_copias ==0){
 2154              		.loc 1 562 0
 2155 04bc 1B4B     		ldr	r3, .L614+12
 2156 04be 1B78     		ldrb	r3, [r3]	@ zero_extendqisi2
 2157 04c0 6BB1     		cbz	r3, .L177
 2158              		.loc 1 562 0 is_stmt 0 discriminator 1
 2159 04c2 1D4B     		ldr	r3, .L614+24
 2160 04c4 1B78     		ldrb	r3, [r3]	@ zero_extendqisi2
 2161 04c6 53B9     		cbnz	r3, .L177
 563:.\main.c      ****                         set_imagen(1,7);
 2162              		.loc 1 563 0 is_stmt 1
 2163 04c8 0120     		movs	r0, #1
 2164 04ca 0721     		movs	r1, #7
 2165 04cc FFF7FEFF 		bl	set_imagen
 2166              	.LVL132:
 564:.\main.c      **** 						Buffer_LCD1.valor[0]=teclas1;
 2167              		.loc 1 564 0
 2168 04d0 164B     		ldr	r3, .L614+12
 2169 04d2 1A78     		ldrb	r2, [r3]	@ zero_extendqisi2
 2170 04d4 144B     		ldr	r3, .L614+8
 2171 04d6 DA72     		strb	r2, [r3, #11]
 565:.\main.c      ****                         flujo_LCD=6;                                                 				
 2172              		.loc 1 565 0
 2173 04d8 0622     		movs	r2, #6
 2174 04da 114B     		ldr	r3, .L614
 2175 04dc 1A70     		strb	r2, [r3]
 2176              	.L177:
 566:.\main.c      ****                     }
 567:.\main.c      ****                     if(teclas1>=1 && a_copias == 1){ 
 2177              		.loc 1 567 0
 2178 04de 134B     		ldr	r3, .L614+12
 2179 04e0 1B78     		ldrb	r3, [r3]	@ zero_extendqisi2
 2180 04e2 BBB1     		cbz	r3, .L170
 2181              		.loc 1 567 0 is_stmt 0 discriminator 1
 2182 04e4 144B     		ldr	r3, .L614+24
 2183 04e6 1B78     		ldrb	r3, [r3]	@ zero_extendqisi2
 2184 04e8 012B     		cmp	r3, #1
 2185 04ea 13D1     		bne	.L170
 568:.\main.c      ****                         set_imagen(1,112);
 2186              		.loc 1 568 0 is_stmt 1
 2187 04ec 0120     		movs	r0, #1
 2188 04ee 7021     		movs	r1, #112
 2189 04f0 FFF7FEFF 		bl	set_imagen
 2190              	.LVL133:
 569:.\main.c      ****                         n_copias[0]=Buffer_LCD1.valor[1]&0x0F;                        
 2191              		.loc 1 569 0
ARM GAS  C:\Users\IN-002~1\AppData\Local\Temp\ccN5KMQc.s 			page 50


 2192 04f4 0C4B     		ldr	r3, .L614+8
 2193 04f6 1B7B     		ldrb	r3, [r3, #12]	@ zero_extendqisi2
 2194 04f8 1049     		ldr	r1, .L614+28
 2195 04fa 03F00F03 		and	r3, r3, #15
 2196 04fe 0B70     		strb	r3, [r1]
 570:.\main.c      ****                         write_eeprom(1174,n_copias);
 2197              		.loc 1 570 0
 2198 0500 40F29640 		movw	r0, #1174
 2199 0504 FFF7FEFF 		bl	write_eeprom
 2200              	.LVL134:
 571:.\main.c      ****                         a_copias = 0;
 2201              		.loc 1 571 0
 2202 0508 0022     		movs	r2, #0
 2203 050a 0B4B     		ldr	r3, .L614+24
 2204 050c 1A70     		strb	r2, [r3]
 572:.\main.c      ****                         flujo_LCD = 14;
 2205              		.loc 1 572 0
 2206 050e 0E22     		movs	r2, #14
 2207 0510 034B     		ldr	r3, .L614
 2208 0512 1A70     		strb	r2, [r3]
 2209              	.L170:
 573:.\main.c      ****                     }
 574:.\main.c      ****                 }
 575:.\main.c      ****             }
 576:.\main.c      ****             CyDelay(100);            
 2210              		.loc 1 576 0
 2211 0514 6420     		movs	r0, #100
 2212 0516 FFF7FEFF 		bl	CyDelay
 2213              	.LVL135:
 577:.\main.c      ****             LCD_1_ClearRxBuffer();
 2214              		.loc 1 577 0
 2215 051a FFF7FEFF 		bl	LCD_1_ClearRxBuffer
 2216              	.LVL136:
 2217 051e 38BD     		pop	{r3, r4, r5, pc}
 2218              	.L615:
 2219              		.align	2
 2220              	.L614:
 2221 0520 00000000 		.word	flujo_LCD
 2222 0524 00000000 		.word	LCD_1_rxBuffer
 2223 0528 00000000 		.word	Buffer_LCD1
 2224 052c 00000000 		.word	teclas1
 2225 0530 00000000 		.word	comas1
 2226 0534 00000000 		.word	versurt
 2227 0538 00000000 		.word	a_copias
 2228 053c 00000000 		.word	n_copias
 2229              	.L103:
 578:.\main.c      ****          }          
 579:.\main.c      ****         break;     
 580:.\main.c      ****             
 581:.\main.c      ****             
 582:.\main.c      ****         case 6:		 
 583:.\main.c      ****             if(LCD_1_GetRxBufferSize()==8){
 2230              		.loc 1 583 0
 2231 0540 FFF7FEFF 		bl	LCD_1_GetRxBufferSize
 2232              	.LVL137:
 2233 0544 0828     		cmp	r0, #8
 2234 0546 20D1     		bne	.L178
ARM GAS  C:\Users\IN-002~1\AppData\Local\Temp\ccN5KMQc.s 			page 51


 584:.\main.c      ****                 if((LCD_1_rxBuffer[0]==0xAA) && (LCD_1_rxBuffer[6]==0xC3) && (LCD_1_rxBuffer[7]==0x
 2235              		.loc 1 584 0
 2236 0548 A94B     		ldr	r3, .L616
 2237 054a 1B78     		ldrb	r3, [r3]	@ zero_extendqisi2
 2238 054c DBB2     		uxtb	r3, r3
 2239 054e AA2B     		cmp	r3, #170
 2240 0550 15D1     		bne	.L179
 2241              		.loc 1 584 0 is_stmt 0 discriminator 1
 2242 0552 A74B     		ldr	r3, .L616
 2243 0554 9B79     		ldrb	r3, [r3, #6]	@ zero_extendqisi2
 2244 0556 DBB2     		uxtb	r3, r3
 2245 0558 C32B     		cmp	r3, #195
 2246 055a 10D1     		bne	.L179
 2247              		.loc 1 584 0 discriminator 2
 2248 055c A44B     		ldr	r3, .L616
 2249 055e DB79     		ldrb	r3, [r3, #7]	@ zero_extendqisi2
 2250 0560 DBB2     		uxtb	r3, r3
 2251 0562 3C2B     		cmp	r3, #60
 2252 0564 0BD1     		bne	.L179
 585:.\main.c      ****                     if(LCD_1_rxBuffer[3]==0x7E){			//ir a menu
 2253              		.loc 1 585 0 is_stmt 1
 2254 0566 A24B     		ldr	r3, .L616
 2255 0568 DB78     		ldrb	r3, [r3, #3]	@ zero_extendqisi2
 2256 056a DBB2     		uxtb	r3, r3
 2257 056c 7E2B     		cmp	r3, #126
 2258 056e 06D1     		bne	.L179
 586:.\main.c      **** 					    set_imagen(1,46);					//Cancel
 2259              		.loc 1 586 0
 2260 0570 0120     		movs	r0, #1
 2261 0572 2E21     		movs	r1, #46
 2262 0574 FFF7FEFF 		bl	set_imagen
 2263              	.LVL138:
 587:.\main.c      **** 					    flujo_LCD = 0;
 2264              		.loc 1 587 0
 2265 0578 0022     		movs	r2, #0
 2266 057a 9E4B     		ldr	r3, .L616+4
 2267 057c 1A70     		strb	r2, [r3]
 2268              	.L179:
 588:.\main.c      ****                     }												
 589:.\main.c      **** 			    }
 590:.\main.c      ****             CyDelay(100);            
 2269              		.loc 1 590 0
 2270 057e 6420     		movs	r0, #100
 2271 0580 FFF7FEFF 		bl	CyDelay
 2272              	.LVL139:
 591:.\main.c      ****             LCD_1_ClearRxBuffer();
 2273              		.loc 1 591 0
 2274 0584 FFF7FEFF 		bl	LCD_1_ClearRxBuffer
 2275              	.LVL140:
 592:.\main.c      **** 			break;
 2276              		.loc 1 592 0
 2277 0588 38BD     		pop	{r3, r4, r5, pc}
 2278              	.L178:
 593:.\main.c      **** 		    }
 594:.\main.c      ****             if(get_estado(a.dir)==7){													//Espera a que este en listo el equipo				
 2279              		.loc 1 594 0
 2280 058a 9B4B     		ldr	r3, .L616+8
ARM GAS  C:\Users\IN-002~1\AppData\Local\Temp\ccN5KMQc.s 			page 52


 2281 058c 1878     		ldrb	r0, [r3]	@ zero_extendqisi2
 2282 058e FFF7FEFF 		bl	get_estado
 2283              	.LVL141:
 2284 0592 0728     		cmp	r0, #7
 2285 0594 43F08A84 		bne	.L95
 595:.\main.c      **** 			CyDelay(50);
 2286              		.loc 1 595 0
 2287 0598 3220     		movs	r0, #50
 2288 059a FFF7FEFF 		bl	CyDelay
 2289              	.LVL142:
 596:.\main.c      ****             grado1=estado_ex(a.dir);
 2290              		.loc 1 596 0
 2291 059e 964B     		ldr	r3, .L616+8
 2292 05a0 1878     		ldrb	r0, [r3]	@ zero_extendqisi2
 2293 05a2 FFF7FEFF 		bl	estado_ex
 2294              	.LVL143:
 2295 05a6 0146     		mov	r1, r0
 2296 05a8 944B     		ldr	r3, .L616+12
 2297 05aa 1870     		strb	r0, [r3]
 597:.\main.c      **** 			if((Buffer_LCD1.preset&0x02)==0x02||(Buffer_LCD1.preset&0x01)==0x01){		//Dependiendo del preset 
 2298              		.loc 1 597 0
 2299 05ac 944B     		ldr	r3, .L616+16
 2300 05ae DB78     		ldrb	r3, [r3, #3]	@ zero_extendqisi2
 2301 05b0 13F00303 		ands	r3, r3, #3
 2302 05b4 0DD0     		beq	.L180
 598:.\main.c      **** 				if(programar(a.dir,grado1,Buffer_LCD1.valor,(Buffer_LCD1.preset&0x03))==0){
 2303              		.loc 1 598 0
 2304 05b6 904A     		ldr	r2, .L616+8
 2305 05b8 1078     		ldrb	r0, [r2]	@ zero_extendqisi2
 2306 05ba 924A     		ldr	r2, .L616+20
 2307 05bc FFF7FEFF 		bl	programar
 2308              	.LVL144:
 2309 05c0 38B9     		cbnz	r0, .L180
 599:.\main.c      **** 					set_imagen(1,46);
 2310              		.loc 1 599 0
 2311 05c2 0120     		movs	r0, #1
 2312 05c4 2E21     		movs	r1, #46
 2313 05c6 FFF7FEFF 		bl	set_imagen
 2314              	.LVL145:
 600:.\main.c      **** 					flujo_LCD=0;
 2315              		.loc 1 600 0
 2316 05ca 0022     		movs	r2, #0
 2317 05cc 894B     		ldr	r3, .L616+4
 2318 05ce 1A70     		strb	r2, [r3]
 601:.\main.c      **** 					break;
 2319              		.loc 1 601 0
 2320 05d0 38BD     		pop	{r3, r4, r5, pc}
 2321              	.L180:
 602:.\main.c      **** 				}					
 603:.\main.c      **** 			}			
 604:.\main.c      **** 			grado1=estado_ex(a.dir);		//Manejo de grados	
 2322              		.loc 1 604 0
 2323 05d2 894C     		ldr	r4, .L616+8
 2324 05d4 2078     		ldrb	r0, [r4]	@ zero_extendqisi2
 2325 05d6 FFF7FEFF 		bl	estado_ex
 2326              	.LVL146:
 2327 05da 884B     		ldr	r3, .L616+12
ARM GAS  C:\Users\IN-002~1\AppData\Local\Temp\ccN5KMQc.s 			page 53


 2328 05dc 1870     		strb	r0, [r3]
 605:.\main.c      **** 			Surtidor_PutChar(0x10|a.dir);									//Autoriza el surtidor
 2329              		.loc 1 605 0
 2330 05de 2078     		ldrb	r0, [r4]	@ zero_extendqisi2
 2331 05e0 40F01000 		orr	r0, r0, #16
 2332 05e4 FFF7FEFF 		bl	Surtidor_PutChar
 2333              	.LVL147:
 606:.\main.c      **** 			set_imagen(1,8);            
 2334              		.loc 1 606 0
 2335 05e8 0120     		movs	r0, #1
 2336 05ea 0821     		movs	r1, #8
 2337 05ec FFF7FEFF 		bl	set_imagen
 2338              	.LVL148:
 607:.\main.c      ****             flujo_LCD=7;
 2339              		.loc 1 607 0
 2340 05f0 0723     		movs	r3, #7
 2341 05f2 804A     		ldr	r2, .L616+4
 2342 05f4 1370     		strb	r3, [r2]
 608:.\main.c      ****             flujo_pos = flujo_LCD;
 2343              		.loc 1 608 0
 2344 05f6 844A     		ldr	r2, .L616+24
 2345 05f8 1370     		strb	r3, [r2]
 609:.\main.c      ****             venta_activa = 1;
 2346              		.loc 1 609 0
 2347 05fa 0122     		movs	r2, #1
 2348 05fc 834B     		ldr	r3, .L616+28
 2349 05fe 1A70     		strb	r2, [r3]
 2350 0600 38BD     		pop	{r3, r4, r5, pc}
 2351              	.L104:
 610:.\main.c      **** 			}
 611:.\main.c      ****          
 612:.\main.c      ****         break;
 613:.\main.c      ****             
 614:.\main.c      ****         case 7:
 615:.\main.c      **** 		 CyDelay(50);
 2352              		.loc 1 615 0
 2353 0602 3220     		movs	r0, #50
 2354 0604 FFF7FEFF 		bl	CyDelay
 2355              	.LVL149:
 616:.\main.c      **** 		 switch(get_estado(a.dir)){
 2356              		.loc 1 616 0
 2357 0608 7B4B     		ldr	r3, .L616+8
 2358 060a 1878     		ldrb	r0, [r3]	@ zero_extendqisi2
 2359 060c FFF7FEFF 		bl	get_estado
 2360              	.LVL150:
 2361 0610 0638     		subs	r0, r0, #6
 2362 0612 0528     		cmp	r0, #5
 2363 0614 03F24A84 		bhi	.L95
 2364 0618 DFE810F0 		tbh	[pc, r0, lsl #1]
 2365              	.L182:
 2366 061c 7000     		.2byte	(.L181-.L182)/2
 2367 061e 481C     		.2byte	(.L95-.L182)/2
 2368 0620 481C     		.2byte	(.L95-.L182)/2
 2369 0622 7C00     		.2byte	(.L183-.L182)/2
 2370 0624 3B00     		.2byte	(.L184-.L182)/2
 2371 0626 0600     		.2byte	(.L185-.L182)/2
 2372              		.p2align 1
ARM GAS  C:\Users\IN-002~1\AppData\Local\Temp\ccN5KMQc.s 			page 54


 2373              	.L185:
 617:.\main.c      **** 	        case 0x0B:                     //Termino venta            
 618:.\main.c      **** 				CyDelay(100);
 2374              		.loc 1 618 0
 2375 0628 6420     		movs	r0, #100
 2376 062a FFF7FEFF 		bl	CyDelay
 2377              	.LVL151:
 619:.\main.c      **** 				if(venta(a.dir)==1 && no_imprime == 0){	
 2378              		.loc 1 619 0
 2379 062e 724B     		ldr	r3, .L616+8
 2380 0630 1878     		ldrb	r0, [r3]	@ zero_extendqisi2
 2381 0632 FFF7FEFF 		bl	venta
 2382              	.LVL152:
 2383 0636 0128     		cmp	r0, #1
 2384 0638 0ED1     		bne	.L186
 2385              		.loc 1 619 0 is_stmt 0 discriminator 1
 2386 063a 754B     		ldr	r3, .L616+32
 2387 063c 1B78     		ldrb	r3, [r3]	@ zero_extendqisi2
 2388 063e 5BB9     		cbnz	r3, .L186
 620:.\main.c      **** 		            set_imagen(1,57);                     
 2389              		.loc 1 620 0 is_stmt 1
 2390 0640 3921     		movs	r1, #57
 2391 0642 FFF7FEFF 		bl	set_imagen
 2392              	.LVL153:
 621:.\main.c      ****                     venta_activa = 0;                    
 2393              		.loc 1 621 0
 2394 0646 0022     		movs	r2, #0
 2395 0648 704B     		ldr	r3, .L616+28
 2396 064a 1A70     		strb	r2, [r3]
 622:.\main.c      ****                     CyDelay(20);
 2397              		.loc 1 622 0
 2398 064c 1420     		movs	r0, #20
 2399 064e FFF7FEFF 		bl	CyDelay
 2400              	.LVL154:
 623:.\main.c      ****                     flujo_LCD = 13;                   
 2401              		.loc 1 623 0
 2402 0652 0D22     		movs	r2, #13
 2403 0654 674B     		ldr	r3, .L616+4
 2404 0656 1A70     		strb	r2, [r3]
 2405              	.L186:
 624:.\main.c      **** 				}
 625:.\main.c      ****                 if(venta(a.dir)==1 && no_imprime == 1){	
 2406              		.loc 1 625 0
 2407 0658 674B     		ldr	r3, .L616+8
 2408 065a 1878     		ldrb	r0, [r3]	@ zero_extendqisi2
 2409 065c FFF7FEFF 		bl	venta
 2410              	.LVL155:
 2411 0660 0128     		cmp	r0, #1
 2412 0662 43F02384 		bne	.L95
 2413              		.loc 1 625 0 is_stmt 0 discriminator 1
 2414 0666 6A4B     		ldr	r3, .L616+32
 2415 0668 1B78     		ldrb	r3, [r3]	@ zero_extendqisi2
 2416 066a 012B     		cmp	r3, #1
 2417 066c 43F01E84 		bne	.L95
 626:.\main.c      **** 		            set_imagen(1,12);         //Finaliza venta sin impresión de recibo
 2418              		.loc 1 626 0 is_stmt 1
 2419 0670 0C21     		movs	r1, #12
ARM GAS  C:\Users\IN-002~1\AppData\Local\Temp\ccN5KMQc.s 			page 55


 2420 0672 FFF7FEFF 		bl	set_imagen
 2421              	.LVL156:
 627:.\main.c      ****                     venta_activa = 0;                    
 2422              		.loc 1 627 0
 2423 0676 0024     		movs	r4, #0
 2424 0678 644B     		ldr	r3, .L616+28
 2425 067a 1C70     		strb	r4, [r3]
 628:.\main.c      ****                     CyDelay(500);
 2426              		.loc 1 628 0
 2427 067c 4FF4FA70 		mov	r0, #500
 2428 0680 FFF7FEFF 		bl	CyDelay
 2429              	.LVL157:
 629:.\main.c      ****                     set_imagen(1,46);                    
 2430              		.loc 1 629 0
 2431 0684 0120     		movs	r0, #1
 2432 0686 2E21     		movs	r1, #46
 2433 0688 FFF7FEFF 		bl	set_imagen
 2434              	.LVL158:
 630:.\main.c      ****                     flujo_LCD=0;
 2435              		.loc 1 630 0
 2436 068c 594B     		ldr	r3, .L616+4
 2437 068e 1C70     		strb	r4, [r3]
 2438 0690 38BD     		pop	{r3, r4, r5, pc}
 2439              	.L184:
 631:.\main.c      **** 				}
 632:.\main.c      **** 			 break;	
 633:.\main.c      **** 				
 634:.\main.c      **** 	        case 0x0A:                         
 635:.\main.c      **** 				CyDelay(100);                  //Termino venta
 2440              		.loc 1 635 0
 2441 0692 6420     		movs	r0, #100
 2442 0694 FFF7FEFF 		bl	CyDelay
 2443              	.LVL159:
 636:.\main.c      **** 				if(venta(a.dir)==1 && no_imprime == 0){	
 2444              		.loc 1 636 0
 2445 0698 574B     		ldr	r3, .L616+8
 2446 069a 1878     		ldrb	r0, [r3]	@ zero_extendqisi2
 2447 069c FFF7FEFF 		bl	venta
 2448              	.LVL160:
 2449 06a0 0128     		cmp	r0, #1
 2450 06a2 0ED1     		bne	.L187
 2451              		.loc 1 636 0 is_stmt 0 discriminator 1
 2452 06a4 5A4B     		ldr	r3, .L616+32
 2453 06a6 1B78     		ldrb	r3, [r3]	@ zero_extendqisi2
 2454 06a8 5BB9     		cbnz	r3, .L187
 637:.\main.c      **** 		            set_imagen(1,57);
 2455              		.loc 1 637 0 is_stmt 1
 2456 06aa 3921     		movs	r1, #57
 2457 06ac FFF7FEFF 		bl	set_imagen
 2458              	.LVL161:
 638:.\main.c      ****                     venta_activa = 0;                    
 2459              		.loc 1 638 0
 2460 06b0 0022     		movs	r2, #0
 2461 06b2 564B     		ldr	r3, .L616+28
 2462 06b4 1A70     		strb	r2, [r3]
 639:.\main.c      ****                     CyDelay(20);               //Finaliza venta con impresión de recibo           
 2463              		.loc 1 639 0
ARM GAS  C:\Users\IN-002~1\AppData\Local\Temp\ccN5KMQc.s 			page 56


 2464 06b6 1420     		movs	r0, #20
 2465 06b8 FFF7FEFF 		bl	CyDelay
 2466              	.LVL162:
 640:.\main.c      ****                     flujo_LCD=13;
 2467              		.loc 1 640 0
 2468 06bc 0D22     		movs	r2, #13
 2469 06be 4D4B     		ldr	r3, .L616+4
 2470 06c0 1A70     		strb	r2, [r3]
 2471              	.L187:
 641:.\main.c      **** 				}
 642:.\main.c      ****                 if(venta(a.dir)==1 && no_imprime == 1){	
 2472              		.loc 1 642 0
 2473 06c2 4D4B     		ldr	r3, .L616+8
 2474 06c4 1878     		ldrb	r0, [r3]	@ zero_extendqisi2
 2475 06c6 FFF7FEFF 		bl	venta
 2476              	.LVL163:
 2477 06ca 0128     		cmp	r0, #1
 2478 06cc 43F0EE83 		bne	.L95
 2479              		.loc 1 642 0 is_stmt 0 discriminator 1
 2480 06d0 4F4B     		ldr	r3, .L616+32
 2481 06d2 1B78     		ldrb	r3, [r3]	@ zero_extendqisi2
 2482 06d4 012B     		cmp	r3, #1
 2483 06d6 43F0E983 		bne	.L95
 643:.\main.c      **** 		            set_imagen(1,12);         //Finaliza venta sin impresión de recibo
 2484              		.loc 1 643 0 is_stmt 1
 2485 06da 0C21     		movs	r1, #12
 2486 06dc FFF7FEFF 		bl	set_imagen
 2487              	.LVL164:
 644:.\main.c      ****                     venta_activa = 0;                    
 2488              		.loc 1 644 0
 2489 06e0 0024     		movs	r4, #0
 2490 06e2 4A4B     		ldr	r3, .L616+28
 2491 06e4 1C70     		strb	r4, [r3]
 645:.\main.c      ****                     CyDelay(500);                    
 2492              		.loc 1 645 0
 2493 06e6 4FF4FA70 		mov	r0, #500
 2494 06ea FFF7FEFF 		bl	CyDelay
 2495              	.LVL165:
 646:.\main.c      ****                     set_imagen(1,46);
 2496              		.loc 1 646 0
 2497 06ee 0120     		movs	r0, #1
 2498 06f0 2E21     		movs	r1, #46
 2499 06f2 FFF7FEFF 		bl	set_imagen
 2500              	.LVL166:
 647:.\main.c      ****                     flujo_LCD = 0;
 2501              		.loc 1 647 0
 2502 06f6 3F4B     		ldr	r3, .L616+4
 2503 06f8 1C70     		strb	r4, [r3]
 2504 06fa 38BD     		pop	{r3, r4, r5, pc}
 2505              	.L181:
 648:.\main.c      **** 				}
 649:.\main.c      **** 			break;
 650:.\main.c      **** 
 651:.\main.c      **** 	        case 0x06: 
 652:.\main.c      ****                 set_imagen(1,46); //No hizo venta
 2506              		.loc 1 652 0
 2507 06fc 0120     		movs	r0, #1
ARM GAS  C:\Users\IN-002~1\AppData\Local\Temp\ccN5KMQc.s 			page 57


 2508 06fe 2E21     		movs	r1, #46
 2509 0700 FFF7FEFF 		bl	set_imagen
 2510              	.LVL167:
 653:.\main.c      ****                 venta_activa = 0;
 2511              		.loc 1 653 0
 2512 0704 0023     		movs	r3, #0
 2513 0706 414A     		ldr	r2, .L616+28
 2514 0708 1370     		strb	r3, [r2]
 654:.\main.c      ****                 Buffer_LCD1.preset = 0x00;
 2515              		.loc 1 654 0
 2516 070a 3D4A     		ldr	r2, .L616+16
 2517 070c D370     		strb	r3, [r2, #3]
 655:.\main.c      **** 				flujo_LCD=0;
 2518              		.loc 1 655 0
 2519 070e 394A     		ldr	r2, .L616+4
 2520 0710 1370     		strb	r3, [r2]
 656:.\main.c      **** 			break;
 2521              		.loc 1 656 0
 2522 0712 38BD     		pop	{r3, r4, r5, pc}
 2523              	.L183:
 657:.\main.c      ****                 
 658:.\main.c      ****             case 0x09:
 659:.\main.c      ****                 CyDelay(50);
 2524              		.loc 1 659 0
 2525 0714 3220     		movs	r0, #50
 2526 0716 FFF7FEFF 		bl	CyDelay
 2527              	.LVL168:
 660:.\main.c      ****                 set_imagen(1,46);
 2528              		.loc 1 660 0
 2529 071a 0120     		movs	r0, #1
 2530 071c 2E21     		movs	r1, #46
 2531 071e FFF7FEFF 		bl	set_imagen
 2532              	.LVL169:
 661:.\main.c      ****                 flujo_LCD = 0;                
 2533              		.loc 1 661 0
 2534 0722 0022     		movs	r2, #0
 2535 0724 334B     		ldr	r3, .L616+4
 2536 0726 1A70     		strb	r2, [r3]
 662:.\main.c      ****             break;    
 2537              		.loc 1 662 0
 2538 0728 38BD     		pop	{r3, r4, r5, pc}
 2539              	.L105:
 663:.\main.c      ****              			 	
 664:.\main.c      ****          }		
 665:.\main.c      ****         break;
 666:.\main.c      ****         
 667:.\main.c      ****         case 9:
 668:.\main.c      ****           if(LCD_1_GetRxBufferSize()==8){
 2540              		.loc 1 668 0
 2541 072a FFF7FEFF 		bl	LCD_1_GetRxBufferSize
 2542              	.LVL170:
 2543 072e 0828     		cmp	r0, #8
 2544 0730 43F0BC83 		bne	.L95
 669:.\main.c      ****             if((LCD_1_rxBuffer[0]==0xAA) && (LCD_1_rxBuffer[6]==0xC3) && (LCD_1_rxBuffer[7]==0x3C))
 2545              		.loc 1 669 0
 2546 0734 2E4B     		ldr	r3, .L616
 2547 0736 1B78     		ldrb	r3, [r3]	@ zero_extendqisi2
ARM GAS  C:\Users\IN-002~1\AppData\Local\Temp\ccN5KMQc.s 			page 58


 2548 0738 DBB2     		uxtb	r3, r3
 2549 073a AA2B     		cmp	r3, #170
 2550 073c 40F0BE80 		bne	.L188
 2551              		.loc 1 669 0 is_stmt 0 discriminator 1
 2552 0740 2B4B     		ldr	r3, .L616
 2553 0742 9B79     		ldrb	r3, [r3, #6]	@ zero_extendqisi2
 2554 0744 DBB2     		uxtb	r3, r3
 2555 0746 C32B     		cmp	r3, #195
 2556 0748 40F0B880 		bne	.L188
 2557              		.loc 1 669 0 discriminator 2
 2558 074c 284B     		ldr	r3, .L616
 2559 074e DB79     		ldrb	r3, [r3, #7]	@ zero_extendqisi2
 2560 0750 DBB2     		uxtb	r3, r3
 2561 0752 3C2B     		cmp	r3, #60
 2562 0754 40F0B280 		bne	.L188
 670:.\main.c      ****                 if(teclas1<=6){
 2563              		.loc 1 670 0 is_stmt 1
 2564 0758 2E4B     		ldr	r3, .L616+36
 2565 075a 1B78     		ldrb	r3, [r3]	@ zero_extendqisi2
 2566 075c 062B     		cmp	r3, #6
 2567 075e 7BD8     		bhi	.L189
 671:.\main.c      ****                     if(LCD_1_rxBuffer[3]<=9){
 2568              		.loc 1 671 0
 2569 0760 234A     		ldr	r2, .L616
 2570 0762 D278     		ldrb	r2, [r2, #3]	@ zero_extendqisi2
 2571 0764 D2B2     		uxtb	r2, r2
 2572 0766 092A     		cmp	r2, #9
 2573 0768 10D8     		bhi	.L190
 672:.\main.c      ****                         teclas1++;
 2574              		.loc 1 672 0
 2575 076a 0133     		adds	r3, r3, #1
 2576 076c DAB2     		uxtb	r2, r3
 2577 076e 294B     		ldr	r3, .L616+36
 2578 0770 1A70     		strb	r2, [r3]
 673:.\main.c      ****                         Buffer_LCD1.placa[teclas1]=LCD_1_rxBuffer[3]+0x30;
 2579              		.loc 1 673 0
 2580 0772 1F48     		ldr	r0, .L616
 2581 0774 C178     		ldrb	r1, [r0, #3]	@ zero_extendqisi2
 2582 0776 224B     		ldr	r3, .L616+16
 2583 0778 1344     		add	r3, r3, r2
 2584 077a 3031     		adds	r1, r1, #48
 2585 077c 83F86510 		strb	r1, [r3, #101]
 674:.\main.c      ****                         write_LCD(1,(LCD_1_rxBuffer[3]+0x30),teclas1);                        
 2586              		.loc 1 674 0
 2587 0780 C178     		ldrb	r1, [r0, #3]	@ zero_extendqisi2
 2588 0782 3031     		adds	r1, r1, #48
 2589 0784 0120     		movs	r0, #1
 2590 0786 C9B2     		uxtb	r1, r1
 2591 0788 FFF7FEFF 		bl	write_LCD
 2592              	.LVL171:
 2593              	.L190:
 675:.\main.c      ****                     }
 676:.\main.c      ****                     if(LCD_1_rxBuffer[3]==0x0A){                                        //Comando d
 2594              		.loc 1 676 0
 2595 078c 184B     		ldr	r3, .L616
 2596 078e DB78     		ldrb	r3, [r3, #3]	@ zero_extendqisi2
 2597 0790 DBB2     		uxtb	r3, r3
ARM GAS  C:\Users\IN-002~1\AppData\Local\Temp\ccN5KMQc.s 			page 59


 2598 0792 0A2B     		cmp	r3, #10
 2599 0794 0CD1     		bne	.L191
 677:.\main.c      ****                         teclas1++;                        
 2600              		.loc 1 677 0
 2601 0796 1F4B     		ldr	r3, .L616+36
 2602 0798 1A78     		ldrb	r2, [r3]	@ zero_extendqisi2
 2603 079a 0132     		adds	r2, r2, #1
 2604 079c D2B2     		uxtb	r2, r2
 2605 079e 1A70     		strb	r2, [r3]
 678:.\main.c      ****                         Buffer_LCD1.placa[teclas1]=0x30;
 2606              		.loc 1 678 0
 2607 07a0 174B     		ldr	r3, .L616+16
 2608 07a2 1344     		add	r3, r3, r2
 2609 07a4 3021     		movs	r1, #48
 2610 07a6 83F86510 		strb	r1, [r3, #101]
 679:.\main.c      ****                         write_LCD(1,0x30,teclas1);                        
 2611              		.loc 1 679 0
 2612 07aa 0120     		movs	r0, #1
 2613 07ac FFF7FEFF 		bl	write_LCD
 2614              	.LVL172:
 2615              	.L191:
 680:.\main.c      ****                     }  
 681:.\main.c      ****                     if(LCD_1_rxBuffer[3]==0x6A){                                        //Comando d
 2616              		.loc 1 681 0
 2617 07b0 0F4B     		ldr	r3, .L616
 2618 07b2 DB78     		ldrb	r3, [r3, #3]	@ zero_extendqisi2
 2619 07b4 DBB2     		uxtb	r3, r3
 2620 07b6 6A2B     		cmp	r3, #106
 2621 07b8 0CD1     		bne	.L192
 682:.\main.c      ****                         teclas1++;                        
 2622              		.loc 1 682 0
 2623 07ba 164B     		ldr	r3, .L616+36
 2624 07bc 1A78     		ldrb	r2, [r3]	@ zero_extendqisi2
 2625 07be 0132     		adds	r2, r2, #1
 2626 07c0 D2B2     		uxtb	r2, r2
 2627 07c2 1A70     		strb	r2, [r3]
 683:.\main.c      ****                         Buffer_LCD1.placa[teclas1]='-';
 2628              		.loc 1 683 0
 2629 07c4 0E4B     		ldr	r3, .L616+16
 2630 07c6 1344     		add	r3, r3, r2
 2631 07c8 2D21     		movs	r1, #45
 2632 07ca 83F86510 		strb	r1, [r3, #101]
 684:.\main.c      ****                         write_LCD(1,'-',teclas1);                        
 2633              		.loc 1 684 0
 2634 07ce 0120     		movs	r0, #1
 2635 07d0 FFF7FEFF 		bl	write_LCD
 2636              	.LVL173:
 2637              	.L192:
 685:.\main.c      ****                     } 					
 686:.\main.c      ****                     if(LCD_1_rxBuffer[3]>=0x1B && LCD_1_rxBuffer[3]<=0x42){            //Comando de
 2638              		.loc 1 686 0
 2639 07d4 064B     		ldr	r3, .L616
 2640 07d6 DB78     		ldrb	r3, [r3, #3]	@ zero_extendqisi2
 2641 07d8 DBB2     		uxtb	r3, r3
 2642 07da 1A2B     		cmp	r3, #26
 2643 07dc 3CD9     		bls	.L189
 2644              		.loc 1 686 0 is_stmt 0 discriminator 1
ARM GAS  C:\Users\IN-002~1\AppData\Local\Temp\ccN5KMQc.s 			page 60


 2645 07de 044B     		ldr	r3, .L616
 2646 07e0 DB78     		ldrb	r3, [r3, #3]	@ zero_extendqisi2
 2647 07e2 DBB2     		uxtb	r3, r3
 2648 07e4 422B     		cmp	r3, #66
 2649 07e6 37D8     		bhi	.L189
 687:.\main.c      ****                         for(x=0;x<=25;x++){                                            //Compara el
 2650              		.loc 1 687 0 is_stmt 1
 2651 07e8 0022     		movs	r2, #0
 2652 07ea 0B4B     		ldr	r3, .L616+40
 2653 07ec 1A60     		str	r2, [r3]
 2654 07ee 2FE0     		b	.L193
 2655              	.L617:
 2656              		.align	2
 2657              	.L616:
 2658 07f0 00000000 		.word	LCD_1_rxBuffer
 2659 07f4 00000000 		.word	flujo_LCD
 2660 07f8 00000000 		.word	a
 2661 07fc 00000000 		.word	grado1
 2662 0800 00000000 		.word	Buffer_LCD1
 2663 0804 0B000000 		.word	Buffer_LCD1+11
 2664 0808 00000000 		.word	flujo_pos
 2665 080c 00000000 		.word	venta_activa
 2666 0810 00000000 		.word	no_imprime
 2667 0814 00000000 		.word	teclas1
 2668 0818 00000000 		.word	x
 2669              	.L195:
 688:.\main.c      ****                             if(LCD_1_rxBuffer[3]==letras[x]){
 2670              		.loc 1 688 0
 2671 081c A94A     		ldr	r2, .L618
 2672 081e D278     		ldrb	r2, [r2, #3]	@ zero_extendqisi2
 2673 0820 D2B2     		uxtb	r2, r2
 2674 0822 A949     		ldr	r1, .L618+4
 2675 0824 1944     		add	r1, r1, r3
 2676 0826 097A     		ldrb	r1, [r1, #8]	@ zero_extendqisi2
 2677 0828 8A42     		cmp	r2, r1
 2678 082a 0DD1     		bne	.L194
 689:.\main.c      ****                                 teclas1++;                            
 2679              		.loc 1 689 0
 2680 082c A749     		ldr	r1, .L618+8
 2681 082e 0A78     		ldrb	r2, [r1]	@ zero_extendqisi2
 2682 0830 0132     		adds	r2, r2, #1
 2683 0832 D2B2     		uxtb	r2, r2
 2684 0834 0A70     		strb	r2, [r1]
 690:.\main.c      ****                                 Buffer_LCD1.placa[teclas1]=x+0x41;
 2685              		.loc 1 690 0
 2686 0836 4133     		adds	r3, r3, #65
 2687 0838 D9B2     		uxtb	r1, r3
 2688 083a A54B     		ldr	r3, .L618+12
 2689 083c 1344     		add	r3, r3, r2
 2690 083e 83F86510 		strb	r1, [r3, #101]
 691:.\main.c      ****                                 write_LCD(1,(x+0x41),teclas1);                            
 2691              		.loc 1 691 0
 2692 0842 0120     		movs	r0, #1
 2693 0844 FFF7FEFF 		bl	write_LCD
 2694              	.LVL174:
 2695              	.L194:
 687:.\main.c      ****                             if(LCD_1_rxBuffer[3]==letras[x]){
ARM GAS  C:\Users\IN-002~1\AppData\Local\Temp\ccN5KMQc.s 			page 61


 2696              		.loc 1 687 0 discriminator 2
 2697 0848 A24A     		ldr	r2, .L618+16
 2698 084a 1368     		ldr	r3, [r2]
 2699 084c 0133     		adds	r3, r3, #1
 2700 084e 1360     		str	r3, [r2]
 2701              	.L193:
 687:.\main.c      ****                             if(LCD_1_rxBuffer[3]==letras[x]){
 2702              		.loc 1 687 0 is_stmt 0 discriminator 1
 2703 0850 A04B     		ldr	r3, .L618+16
 2704 0852 1B68     		ldr	r3, [r3]
 2705 0854 192B     		cmp	r3, #25
 2706 0856 E1D9     		bls	.L195
 2707              	.L189:
 692:.\main.c      ****                             }
 693:.\main.c      ****                         }
 694:.\main.c      ****                     }                    
 695:.\main.c      ****                 }
 696:.\main.c      ****                 if(LCD_1_rxBuffer[3]==0x0B){                                        //Borrar - Canc
 2708              		.loc 1 696 0 is_stmt 1
 2709 0858 9A4B     		ldr	r3, .L618
 2710 085a DB78     		ldrb	r3, [r3, #3]	@ zero_extendqisi2
 2711 085c DBB2     		uxtb	r3, r3
 2712 085e 0B2B     		cmp	r3, #11
 2713 0860 15D1     		bne	.L196
 697:.\main.c      ****                     if(teclas1==0){                                                 //Si no tiene n
 2714              		.loc 1 697 0
 2715 0862 9A4B     		ldr	r3, .L618+8
 2716 0864 1A78     		ldrb	r2, [r3]	@ zero_extendqisi2
 2717 0866 52B9     		cbnz	r2, .L197
 698:.\main.c      ****                         set_imagen(1,46);                        
 2718              		.loc 1 698 0
 2719 0868 0120     		movs	r0, #1
 2720 086a 2E21     		movs	r1, #46
 2721 086c FFF7FEFF 		bl	set_imagen
 2722              	.LVL175:
 699:.\main.c      ****                         Buffer_LCD1.placa[0]=0;						
 2723              		.loc 1 699 0
 2724 0870 0023     		movs	r3, #0
 2725 0872 974A     		ldr	r2, .L618+12
 2726 0874 82F86530 		strb	r3, [r2, #101]
 700:.\main.c      ****                         flujo_LCD=0;
 2727              		.loc 1 700 0
 2728 0878 974A     		ldr	r2, .L618+20
 2729 087a 1370     		strb	r3, [r2]
 2730 087c 07E0     		b	.L196
 2731              	.L197:
 701:.\main.c      ****                     }
 702:.\main.c      ****                     else{
 703:.\main.c      ****                         write_LCD(1,0x20,teclas1);                        
 2732              		.loc 1 703 0
 2733 087e 0120     		movs	r0, #1
 2734 0880 2021     		movs	r1, #32
 2735 0882 FFF7FEFF 		bl	write_LCD
 2736              	.LVL176:
 704:.\main.c      ****                         teclas1--;
 2737              		.loc 1 704 0
 2738 0886 914A     		ldr	r2, .L618+8
ARM GAS  C:\Users\IN-002~1\AppData\Local\Temp\ccN5KMQc.s 			page 62


 2739 0888 1378     		ldrb	r3, [r2]	@ zero_extendqisi2
 2740 088a 013B     		subs	r3, r3, #1
 2741 088c 1370     		strb	r3, [r2]
 2742              	.L196:
 705:.\main.c      ****                     }
 706:.\main.c      ****                 }
 707:.\main.c      ****                 if(LCD_1_rxBuffer[3]==0x0C){                                        //Enter pasa a 
 2743              		.loc 1 707 0
 2744 088e 8D4B     		ldr	r3, .L618
 2745 0890 DB78     		ldrb	r3, [r3, #3]	@ zero_extendqisi2
 2746 0892 DBB2     		uxtb	r3, r3
 2747 0894 0C2B     		cmp	r3, #12
 2748 0896 11D1     		bne	.L188
 708:.\main.c      ****                     if(teclas1>=1){ 
 2749              		.loc 1 708 0
 2750 0898 8C4B     		ldr	r3, .L618+8
 2751 089a 1B78     		ldrb	r3, [r3]	@ zero_extendqisi2
 2752 089c 73B1     		cbz	r3, .L188
 709:.\main.c      ****                         set_imagen(1,5);
 2753              		.loc 1 709 0
 2754 089e 0120     		movs	r0, #1
 2755 08a0 0521     		movs	r1, #5
 2756 08a2 FFF7FEFF 		bl	set_imagen
 2757              	.LVL177:
 710:.\main.c      ****                         Buffer_LCD1.placa[0]=teclas1; 
 2758              		.loc 1 710 0
 2759 08a6 8A4B     		ldr	r3, .L618+12
 2760 08a8 884A     		ldr	r2, .L618+8
 2761 08aa 1278     		ldrb	r2, [r2]	@ zero_extendqisi2
 2762 08ac 83F86520 		strb	r2, [r3, #101]
 711:.\main.c      ****                         Buffer_LCD1.posventa=1;
 2763              		.loc 1 711 0
 2764 08b0 0122     		movs	r2, #1
 2765 08b2 83F88320 		strb	r2, [r3, #131]
 712:.\main.c      ****                         flujo_LCD=4;
 2766              		.loc 1 712 0
 2767 08b6 0422     		movs	r2, #4
 2768 08b8 874B     		ldr	r3, .L618+20
 2769 08ba 1A70     		strb	r2, [r3]
 2770              	.L188:
 713:.\main.c      ****                     }
 714:.\main.c      ****                 }
 715:.\main.c      ****             }
 716:.\main.c      ****             CyDelay(100);            
 2771              		.loc 1 716 0
 2772 08bc 6420     		movs	r0, #100
 2773 08be FFF7FEFF 		bl	CyDelay
 2774              	.LVL178:
 717:.\main.c      ****             LCD_1_ClearRxBuffer();
 2775              		.loc 1 717 0
 2776 08c2 FFF7FEFF 		bl	LCD_1_ClearRxBuffer
 2777              	.LVL179:
 2778 08c6 38BD     		pop	{r3, r4, r5, pc}
 2779              	.L106:
 718:.\main.c      ****          }    
 719:.\main.c      **** 		
 720:.\main.c      ****         break;
ARM GAS  C:\Users\IN-002~1\AppData\Local\Temp\ccN5KMQc.s 			page 63


 721:.\main.c      ****         
 722:.\main.c      ****         case 10:
 723:.\main.c      ****          if(LCD_1_GetRxBufferSize()==8){
 2780              		.loc 1 723 0
 2781 08c8 FFF7FEFF 		bl	LCD_1_GetRxBufferSize
 2782              	.LVL180:
 2783 08cc 0828     		cmp	r0, #8
 2784 08ce 43F0ED82 		bne	.L95
 724:.\main.c      ****             if((LCD_1_rxBuffer[0]==0xAA) && (LCD_1_rxBuffer[6]==0xC3) && (LCD_1_rxBuffer[7]==0x3C))
 2785              		.loc 1 724 0
 2786 08d2 7C4B     		ldr	r3, .L618
 2787 08d4 1B78     		ldrb	r3, [r3]	@ zero_extendqisi2
 2788 08d6 DBB2     		uxtb	r3, r3
 2789 08d8 AA2B     		cmp	r3, #170
 2790 08da 32D1     		bne	.L198
 2791              		.loc 1 724 0 is_stmt 0 discriminator 1
 2792 08dc 794B     		ldr	r3, .L618
 2793 08de 9B79     		ldrb	r3, [r3, #6]	@ zero_extendqisi2
 2794 08e0 DBB2     		uxtb	r3, r3
 2795 08e2 C32B     		cmp	r3, #195
 2796 08e4 2DD1     		bne	.L198
 2797              		.loc 1 724 0 discriminator 2
 2798 08e6 774B     		ldr	r3, .L618
 2799 08e8 DB79     		ldrb	r3, [r3, #7]	@ zero_extendqisi2
 2800 08ea DBB2     		uxtb	r3, r3
 2801 08ec 3C2B     		cmp	r3, #60
 2802 08ee 28D1     		bne	.L198
 725:.\main.c      ****                 switch(LCD_1_rxBuffer[3]){
 2803              		.loc 1 725 0 is_stmt 1
 2804 08f0 744B     		ldr	r3, .L618
 2805 08f2 DB78     		ldrb	r3, [r3, #3]	@ zero_extendqisi2
 2806 08f4 DBB2     		uxtb	r3, r3
 2807 08f6 392B     		cmp	r3, #57
 2808 08f8 04D0     		beq	.L199
 2809 08fa 7E2B     		cmp	r3, #126
 2810 08fc 1AD0     		beq	.L200
 2811 08fe 382B     		cmp	r3, #56
 2812 0900 1FD1     		bne	.L198
 2813 0902 0CE0     		b	.L201
 2814              	.L199:
 726:.\main.c      ****                     case 0x39:                          //Si pide impresión                       
 727:.\main.c      ****                         set_imagen(1,10);               //Pasa a pedir placa
 2815              		.loc 1 727 0
 2816 0904 0120     		movs	r0, #1
 2817 0906 0A21     		movs	r1, #10
 2818 0908 FFF7FEFF 		bl	set_imagen
 2819              	.LVL181:
 728:.\main.c      ****                         teclas1 = 0;                                              
 2820              		.loc 1 728 0
 2821 090c 0023     		movs	r3, #0
 2822 090e 6F4A     		ldr	r2, .L618+8
 2823 0910 1370     		strb	r3, [r2]
 729:.\main.c      ****                         no_imprime = 0;
 2824              		.loc 1 729 0
 2825 0912 724A     		ldr	r2, .L618+24
 2826 0914 1370     		strb	r3, [r2]
 730:.\main.c      ****                         flujo_LCD = 9;                       
ARM GAS  C:\Users\IN-002~1\AppData\Local\Temp\ccN5KMQc.s 			page 64


 2827              		.loc 1 730 0
 2828 0916 0922     		movs	r2, #9
 2829 0918 6F4B     		ldr	r3, .L618+20
 2830 091a 1A70     		strb	r2, [r3]
 731:.\main.c      ****                     break; 
 2831              		.loc 1 731 0
 2832 091c 11E0     		b	.L198
 2833              	.L201:
 732:.\main.c      ****                     
 733:.\main.c      ****                     case 0x38:                          //Pide venta sin impresión
 734:.\main.c      ****                         set_imagen(1,5);	            //Pasa a preset de venta
 2834              		.loc 1 734 0
 2835 091e 0120     		movs	r0, #1
 2836 0920 0521     		movs	r1, #5
 2837 0922 FFF7FEFF 		bl	set_imagen
 2838              	.LVL182:
 735:.\main.c      ****                         no_imprime = 1;
 2839              		.loc 1 735 0
 2840 0926 0122     		movs	r2, #1
 2841 0928 6C4B     		ldr	r3, .L618+24
 2842 092a 1A70     		strb	r2, [r3]
 736:.\main.c      ****                         flujo_LCD = 4;                    
 2843              		.loc 1 736 0
 2844 092c 0422     		movs	r2, #4
 2845 092e 6A4B     		ldr	r3, .L618+20
 2846 0930 1A70     		strb	r2, [r3]
 737:.\main.c      ****                     break;  
 2847              		.loc 1 737 0
 2848 0932 06E0     		b	.L198
 2849              	.L200:
 738:.\main.c      ****                     
 739:.\main.c      ****                     case 0x7E:						   //ir a menu de selección de pos
 740:.\main.c      **** 					    set_imagen(1,46);	
 2850              		.loc 1 740 0
 2851 0934 0120     		movs	r0, #1
 2852 0936 2E21     		movs	r1, #46
 2853 0938 FFF7FEFF 		bl	set_imagen
 2854              	.LVL183:
 741:.\main.c      ****                         flujo_LCD = 0;     
 2855              		.loc 1 741 0
 2856 093c 0022     		movs	r2, #0
 2857 093e 664B     		ldr	r3, .L618+20
 2858 0940 1A70     		strb	r2, [r3]
 2859              	.L198:
 742:.\main.c      ****                     break;
 743:.\main.c      ****                         
 744:.\main.c      ****                 }
 745:.\main.c      ****             }
 746:.\main.c      ****             CyDelay(100);            
 2860              		.loc 1 746 0
 2861 0942 6420     		movs	r0, #100
 2862 0944 FFF7FEFF 		bl	CyDelay
 2863              	.LVL184:
 747:.\main.c      ****             LCD_1_ClearRxBuffer();
 2864              		.loc 1 747 0
 2865 0948 FFF7FEFF 		bl	LCD_1_ClearRxBuffer
 2866              	.LVL185:
ARM GAS  C:\Users\IN-002~1\AppData\Local\Temp\ccN5KMQc.s 			page 65


 2867 094c 38BD     		pop	{r3, r4, r5, pc}
 2868              	.L107:
 748:.\main.c      ****          } 		 	
 749:.\main.c      ****         break;
 750:.\main.c      ****         
 751:.\main.c      ****         case 11:		
 752:.\main.c      **** 		if(read_memory_ibutton(1,1)>=6){
 2869              		.loc 1 752 0
 2870 094e 0120     		movs	r0, #1
 2871 0950 0146     		mov	r1, r0
 2872 0952 FFF7FEFF 		bl	read_memory_ibutton
 2873              	.LVL186:
 2874 0956 0528     		cmp	r0, #5
 2875 0958 40D9     		bls	.L202
 753:.\main.c      **** 			CyDelay(10);
 2876              		.loc 1 753 0
 2877 095a 0A20     		movs	r0, #10
 2878 095c FFF7FEFF 		bl	CyDelay
 2879              	.LVL187:
 754:.\main.c      **** 			if(read_memory_ibutton(1,0x21)>=6){
 2880              		.loc 1 754 0
 2881 0960 0120     		movs	r0, #1
 2882 0962 2121     		movs	r1, #33
 2883 0964 FFF7FEFF 		bl	read_memory_ibutton
 2884              	.LVL188:
 2885 0968 0528     		cmp	r0, #5
 2886 096a 37D9     		bls	.L202
 755:.\main.c      **** 		        if(touch_present(1)==1){
 2887              		.loc 1 755 0
 2888 096c 0120     		movs	r0, #1
 2889 096e FFF7FEFF 		bl	touch_present
 2890              	.LVL189:
 2891 0972 0128     		cmp	r0, #1
 2892 0974 32D1     		bne	.L202
 756:.\main.c      **** 		            LCD_1_PutChar(0x33);
 2893              		.loc 1 756 0
 2894 0976 3320     		movs	r0, #51
 2895 0978 FFF7FEFF 		bl	LCD_1_PutChar
 2896              	.LVL190:
 757:.\main.c      **** 		            if(touch_write(1,0x33)){
 2897              		.loc 1 757 0
 2898 097c 0120     		movs	r0, #1
 2899 097e 3321     		movs	r1, #51
 2900 0980 FFF7FEFF 		bl	touch_write
 2901              	.LVL191:
 2902 0984 50B3     		cbz	r0, .L202
 758:.\main.c      **** 		                for(z=0;z<=7;z++){
 2903              		.loc 1 758 0
 2904 0986 0022     		movs	r2, #0
 2905 0988 554B     		ldr	r3, .L618+28
 2906 098a 1A60     		str	r2, [r3]
 2907 098c 0AE0     		b	.L203
 2908              	.L204:
 759:.\main.c      **** 		                    Buffer_LCD1.id[z]=touch_read_byte(1);
 2909              		.loc 1 759 0 discriminator 3
 2910 098e 0120     		movs	r0, #1
 2911 0990 FFF7FEFF 		bl	touch_read_byte
ARM GAS  C:\Users\IN-002~1\AppData\Local\Temp\ccN5KMQc.s 			page 66


 2912              	.LVL192:
 2913 0994 4E4B     		ldr	r3, .L618+12
 2914 0996 1C44     		add	r4, r4, r3
 2915 0998 84F82900 		strb	r0, [r4, #41]
 758:.\main.c      **** 		                for(z=0;z<=7;z++){
 2916              		.loc 1 758 0 discriminator 3
 2917 099c 504A     		ldr	r2, .L618+28
 2918 099e 1368     		ldr	r3, [r2]
 2919 09a0 0133     		adds	r3, r3, #1
 2920 09a2 1360     		str	r3, [r2]
 2921              	.L203:
 758:.\main.c      **** 		                for(z=0;z<=7;z++){
 2922              		.loc 1 758 0 is_stmt 0 discriminator 1
 2923 09a4 4E4B     		ldr	r3, .L618+28
 2924 09a6 1C68     		ldr	r4, [r3]
 2925 09a8 072C     		cmp	r4, #7
 2926 09aa F0D9     		bls	.L204
 760:.\main.c      **** 		                }				
 761:.\main.c      **** 						set_imagen(1,19);  //Id correctamente reconocida
 2927              		.loc 1 761 0 is_stmt 1
 2928 09ac 0120     		movs	r0, #1
 2929 09ae 1321     		movs	r1, #19
 2930 09b0 FFF7FEFF 		bl	set_imagen
 2931              	.LVL193:
 762:.\main.c      **** 						Buffer_LCD1.preset|=0x04;
 2932              		.loc 1 762 0
 2933 09b4 464C     		ldr	r4, .L618+12
 2934 09b6 E378     		ldrb	r3, [r4, #3]	@ zero_extendqisi2
 2935 09b8 43F00403 		orr	r3, r3, #4
 2936 09bc E370     		strb	r3, [r4, #3]
 763:.\main.c      **** 						CyDelay(500);
 2937              		.loc 1 763 0
 2938 09be 4FF4FA70 		mov	r0, #500
 2939 09c2 FFF7FEFF 		bl	CyDelay
 2940              	.LVL194:
 764:.\main.c      **** 						set_imagen(1,14); 
 2941              		.loc 1 764 0
 2942 09c6 0120     		movs	r0, #1
 2943 09c8 0E21     		movs	r1, #14
 2944 09ca FFF7FEFF 		bl	set_imagen
 2945              	.LVL195:
 765:.\main.c      **** 						teclas1=0;
 2946              		.loc 1 765 0
 2947 09ce 0023     		movs	r3, #0
 2948 09d0 3E4A     		ldr	r2, .L618+8
 2949 09d2 1370     		strb	r3, [r2]
 766:.\main.c      **** 						Buffer_LCD1.km[0]=0; //Pedir Kilometraje
 2950              		.loc 1 766 0
 2951 09d4 2371     		strb	r3, [r4, #4]
 767:.\main.c      **** 						flujo_LCD = 12;
 2952              		.loc 1 767 0
 2953 09d6 0C22     		movs	r2, #12
 2954 09d8 3F4B     		ldr	r3, .L618+20
 2955 09da 1A70     		strb	r2, [r3]
 2956              	.L202:
 768:.\main.c      **** 					}
 769:.\main.c      **** 				}	
ARM GAS  C:\Users\IN-002~1\AppData\Local\Temp\ccN5KMQc.s 			page 67


 770:.\main.c      **** 			}
 771:.\main.c      **** 		}
 772:.\main.c      **** 	    if(LCD_1_GetRxBufferSize()==8){
 2957              		.loc 1 772 0
 2958 09dc FFF7FEFF 		bl	LCD_1_GetRxBufferSize
 2959              	.LVL196:
 2960 09e0 0828     		cmp	r0, #8
 2961 09e2 43F06382 		bne	.L95
 773:.\main.c      **** 	        if((LCD_1_rxBuffer[0]==0xAA) && (LCD_1_rxBuffer[6]==0xC3) && (LCD_1_rxBuffer[7]==0x3C)){
 2962              		.loc 1 773 0
 2963 09e6 374B     		ldr	r3, .L618
 2964 09e8 1B78     		ldrb	r3, [r3]	@ zero_extendqisi2
 2965 09ea DBB2     		uxtb	r3, r3
 2966 09ec AA2B     		cmp	r3, #170
 2967 09ee 15D1     		bne	.L205
 2968              		.loc 1 773 0 is_stmt 0 discriminator 1
 2969 09f0 344B     		ldr	r3, .L618
 2970 09f2 9B79     		ldrb	r3, [r3, #6]	@ zero_extendqisi2
 2971 09f4 DBB2     		uxtb	r3, r3
 2972 09f6 C32B     		cmp	r3, #195
 2973 09f8 10D1     		bne	.L205
 2974              		.loc 1 773 0 discriminator 2
 2975 09fa 324B     		ldr	r3, .L618
 2976 09fc DB79     		ldrb	r3, [r3, #7]	@ zero_extendqisi2
 2977 09fe DBB2     		uxtb	r3, r3
 2978 0a00 3C2B     		cmp	r3, #60
 2979 0a02 0BD1     		bne	.L205
 774:.\main.c      **** 	            switch(LCD_1_rxBuffer[3]){
 2980              		.loc 1 774 0 is_stmt 1
 2981 0a04 2F4B     		ldr	r3, .L618
 2982 0a06 DB78     		ldrb	r3, [r3, #3]	@ zero_extendqisi2
 2983 0a08 DBB2     		uxtb	r3, r3
 2984 0a0a 3B2B     		cmp	r3, #59
 2985 0a0c 06D1     		bne	.L205
 775:.\main.c      **** 	                case 0x3B:
 776:.\main.c      **** 	                 set_imagen(1,73); //Kilometraje
 2986              		.loc 1 776 0
 2987 0a0e 0120     		movs	r0, #1
 2988 0a10 4921     		movs	r1, #73
 2989 0a12 FFF7FEFF 		bl	set_imagen
 2990              	.LVL197:
 777:.\main.c      **** 	                 flujo_LCD = 2;	                 
 2991              		.loc 1 777 0
 2992 0a16 0222     		movs	r2, #2
 2993 0a18 2F4B     		ldr	r3, .L618+20
 2994 0a1a 1A70     		strb	r2, [r3]
 2995              	.L205:
 778:.\main.c      **** 	                break; 
 779:.\main.c      **** 	            }
 780:.\main.c      **** 	        }
 781:.\main.c      **** 	        CyDelay(100);            
 2996              		.loc 1 781 0
 2997 0a1c 6420     		movs	r0, #100
 2998 0a1e FFF7FEFF 		bl	CyDelay
 2999              	.LVL198:
 782:.\main.c      **** 	        LCD_1_ClearRxBuffer();
 3000              		.loc 1 782 0
ARM GAS  C:\Users\IN-002~1\AppData\Local\Temp\ccN5KMQc.s 			page 68


 3001 0a22 FFF7FEFF 		bl	LCD_1_ClearRxBuffer
 3002              	.LVL199:
 3003 0a26 38BD     		pop	{r3, r4, r5, pc}
 3004              	.L108:
 783:.\main.c      **** 	    }
 784:.\main.c      ****         break;
 785:.\main.c      ****         
 786:.\main.c      ****         case 12:
 787:.\main.c      ****          if(LCD_1_GetRxBufferSize()==8){
 3005              		.loc 1 787 0
 3006 0a28 FFF7FEFF 		bl	LCD_1_GetRxBufferSize
 3007              	.LVL200:
 3008 0a2c 0828     		cmp	r0, #8
 3009 0a2e 43F03D82 		bne	.L95
 788:.\main.c      ****             if((LCD_1_rxBuffer[0]==0xAA) && (LCD_1_rxBuffer[6]==0xC3) && (LCD_1_rxBuffer[7]==0x3C))
 3010              		.loc 1 788 0
 3011 0a32 244B     		ldr	r3, .L618
 3012 0a34 1B78     		ldrb	r3, [r3]	@ zero_extendqisi2
 3013 0a36 DBB2     		uxtb	r3, r3
 3014 0a38 AA2B     		cmp	r3, #170
 3015 0a3a 72D1     		bne	.L207
 3016              		.loc 1 788 0 is_stmt 0 discriminator 1
 3017 0a3c 214B     		ldr	r3, .L618
 3018 0a3e 9B79     		ldrb	r3, [r3, #6]	@ zero_extendqisi2
 3019 0a40 DBB2     		uxtb	r3, r3
 3020 0a42 C32B     		cmp	r3, #195
 3021 0a44 6DD1     		bne	.L207
 3022              		.loc 1 788 0 discriminator 2
 3023 0a46 1F4B     		ldr	r3, .L618
 3024 0a48 DB79     		ldrb	r3, [r3, #7]	@ zero_extendqisi2
 3025 0a4a DBB2     		uxtb	r3, r3
 3026 0a4c 3C2B     		cmp	r3, #60
 3027 0a4e 68D1     		bne	.L207
 789:.\main.c      ****                 if(teclas1<=5){
 3028              		.loc 1 789 0 is_stmt 1
 3029 0a50 1E4B     		ldr	r3, .L618+8
 3030 0a52 1B78     		ldrb	r3, [r3]	@ zero_extendqisi2
 3031 0a54 052B     		cmp	r3, #5
 3032 0a56 25D8     		bhi	.L208
 790:.\main.c      ****                     if(LCD_1_rxBuffer[3]<=9){
 3033              		.loc 1 790 0
 3034 0a58 1A4A     		ldr	r2, .L618
 3035 0a5a D278     		ldrb	r2, [r2, #3]	@ zero_extendqisi2
 3036 0a5c D2B2     		uxtb	r2, r2
 3037 0a5e 092A     		cmp	r2, #9
 3038 0a60 0FD8     		bhi	.L209
 791:.\main.c      ****                         teclas1++;                    
 3039              		.loc 1 791 0
 3040 0a62 0133     		adds	r3, r3, #1
 3041 0a64 DAB2     		uxtb	r2, r3
 3042 0a66 194B     		ldr	r3, .L618+8
 3043 0a68 1A70     		strb	r2, [r3]
 792:.\main.c      ****                         Buffer_LCD1.km[teclas1]=LCD_1_rxBuffer[3]+0x30;
 3044              		.loc 1 792 0
 3045 0a6a 1648     		ldr	r0, .L618
 3046 0a6c C178     		ldrb	r1, [r0, #3]	@ zero_extendqisi2
 3047 0a6e 184B     		ldr	r3, .L618+12
ARM GAS  C:\Users\IN-002~1\AppData\Local\Temp\ccN5KMQc.s 			page 69


 3048 0a70 1344     		add	r3, r3, r2
 3049 0a72 3031     		adds	r1, r1, #48
 3050 0a74 1971     		strb	r1, [r3, #4]
 793:.\main.c      ****                         write_LCD(1,(LCD_1_rxBuffer[3]+0x30),teclas1);
 3051              		.loc 1 793 0
 3052 0a76 C178     		ldrb	r1, [r0, #3]	@ zero_extendqisi2
 3053 0a78 3031     		adds	r1, r1, #48
 3054 0a7a 0120     		movs	r0, #1
 3055 0a7c C9B2     		uxtb	r1, r1
 3056 0a7e FFF7FEFF 		bl	write_LCD
 3057              	.LVL201:
 3058              	.L209:
 794:.\main.c      ****                     }
 795:.\main.c      ****                     if(LCD_1_rxBuffer[3]==0x0A){            //Comando de 0
 3059              		.loc 1 795 0
 3060 0a82 104B     		ldr	r3, .L618
 3061 0a84 DB78     		ldrb	r3, [r3, #3]	@ zero_extendqisi2
 3062 0a86 DBB2     		uxtb	r3, r3
 3063 0a88 0A2B     		cmp	r3, #10
 3064 0a8a 0BD1     		bne	.L208
 796:.\main.c      ****                         teclas1++;                    
 3065              		.loc 1 796 0
 3066 0a8c 0F4B     		ldr	r3, .L618+8
 3067 0a8e 1A78     		ldrb	r2, [r3]	@ zero_extendqisi2
 3068 0a90 0132     		adds	r2, r2, #1
 3069 0a92 D2B2     		uxtb	r2, r2
 3070 0a94 1A70     		strb	r2, [r3]
 797:.\main.c      ****                         Buffer_LCD1.km[teclas1]=0x30;
 3071              		.loc 1 797 0
 3072 0a96 0E4B     		ldr	r3, .L618+12
 3073 0a98 1344     		add	r3, r3, r2
 3074 0a9a 3021     		movs	r1, #48
 3075 0a9c 1971     		strb	r1, [r3, #4]
 798:.\main.c      ****                         write_LCD(1,0x30,teclas1);
 3076              		.loc 1 798 0
 3077 0a9e 0120     		movs	r0, #1
 3078 0aa0 FFF7FEFF 		bl	write_LCD
 3079              	.LVL202:
 3080              	.L208:
 799:.\main.c      ****                     }                     
 800:.\main.c      ****                 }
 801:.\main.c      ****                 if(LCD_1_rxBuffer[3]==0x0B){				//Cancelar
 3081              		.loc 1 801 0
 3082 0aa4 074B     		ldr	r3, .L618
 3083 0aa6 DB78     		ldrb	r3, [r3, #3]	@ zero_extendqisi2
 3084 0aa8 DBB2     		uxtb	r3, r3
 3085 0aaa 0B2B     		cmp	r3, #11
 3086 0aac 22D1     		bne	.L210
 802:.\main.c      ****                     if(teclas1==0){
 3087              		.loc 1 802 0
 3088 0aae 074B     		ldr	r3, .L618+8
 3089 0ab0 1A78     		ldrb	r2, [r3]	@ zero_extendqisi2
 3090 0ab2 BAB9     		cbnz	r2, .L211
 803:.\main.c      ****                         set_imagen(1,5);
 3091              		.loc 1 803 0
 3092 0ab4 0120     		movs	r0, #1
 3093 0ab6 0521     		movs	r1, #5
ARM GAS  C:\Users\IN-002~1\AppData\Local\Temp\ccN5KMQc.s 			page 70


 3094 0ab8 FFF7FEFF 		bl	set_imagen
 3095              	.LVL203:
 804:.\main.c      **** 						flujo_LCD = 4;
 3096              		.loc 1 804 0
 3097 0abc 0422     		movs	r2, #4
 3098 0abe 064B     		ldr	r3, .L618+20
 3099 0ac0 1A70     		strb	r2, [r3]
 3100 0ac2 17E0     		b	.L210
 3101              	.L619:
 3102              		.align	2
 3103              	.L618:
 3104 0ac4 00000000 		.word	LCD_1_rxBuffer
 3105 0ac8 00000000 		.word	.LANCHOR0
 3106 0acc 00000000 		.word	teclas1
 3107 0ad0 00000000 		.word	Buffer_LCD1
 3108 0ad4 00000000 		.word	x
 3109 0ad8 00000000 		.word	flujo_LCD
 3110 0adc 00000000 		.word	no_imprime
 3111 0ae0 00000000 		.word	z
 3112              	.L211:
 805:.\main.c      ****                     }
 806:.\main.c      ****                     else{
 807:.\main.c      ****                         write_LCD(1,0x20,teclas1);
 3113              		.loc 1 807 0
 3114 0ae4 0120     		movs	r0, #1
 3115 0ae6 2021     		movs	r1, #32
 3116 0ae8 FFF7FEFF 		bl	write_LCD
 3117              	.LVL204:
 808:.\main.c      ****                         teclas1--;
 3118              		.loc 1 808 0
 3119 0aec AA4A     		ldr	r2, .L620
 3120 0aee 1378     		ldrb	r3, [r2]	@ zero_extendqisi2
 3121 0af0 013B     		subs	r3, r3, #1
 3122 0af2 1370     		strb	r3, [r2]
 3123              	.L210:
 809:.\main.c      ****                     }
 810:.\main.c      ****                 }
 811:.\main.c      ****                 if(LCD_1_rxBuffer[3]==0x0C){				//Enter
 3124              		.loc 1 811 0
 3125 0af4 A94B     		ldr	r3, .L620+4
 3126 0af6 DB78     		ldrb	r3, [r3, #3]	@ zero_extendqisi2
 3127 0af8 DBB2     		uxtb	r3, r3
 3128 0afa 0C2B     		cmp	r3, #12
 3129 0afc 11D1     		bne	.L207
 812:.\main.c      ****                     if(teclas1>=1 && Buffer_LCD1.km[1]!=0x30){                       
 3130              		.loc 1 812 0
 3131 0afe A64B     		ldr	r3, .L620
 3132 0b00 1B78     		ldrb	r3, [r3]	@ zero_extendqisi2
 3133 0b02 73B1     		cbz	r3, .L207
 3134              		.loc 1 812 0 is_stmt 0 discriminator 1
 3135 0b04 A64B     		ldr	r3, .L620+8
 3136 0b06 5B79     		ldrb	r3, [r3, #5]	@ zero_extendqisi2
 3137 0b08 302B     		cmp	r3, #48
 3138 0b0a 0AD0     		beq	.L207
 813:.\main.c      ****                         set_imagen(1,5);
 3139              		.loc 1 813 0 is_stmt 1
 3140 0b0c 0120     		movs	r0, #1
ARM GAS  C:\Users\IN-002~1\AppData\Local\Temp\ccN5KMQc.s 			page 71


 3141 0b0e 0521     		movs	r1, #5
 3142 0b10 FFF7FEFF 		bl	set_imagen
 3143              	.LVL205:
 814:.\main.c      ****                         Buffer_LCD1.km[0]=teclas1;   
 3144              		.loc 1 814 0
 3145 0b14 A04B     		ldr	r3, .L620
 3146 0b16 1A78     		ldrb	r2, [r3]	@ zero_extendqisi2
 3147 0b18 A14B     		ldr	r3, .L620+8
 3148 0b1a 1A71     		strb	r2, [r3, #4]
 815:.\main.c      ****                         flujo_LCD = 4;                                           
 3149              		.loc 1 815 0
 3150 0b1c 0422     		movs	r2, #4
 3151 0b1e A14B     		ldr	r3, .L620+12
 3152 0b20 1A70     		strb	r2, [r3]
 3153              	.L207:
 816:.\main.c      ****                     }
 817:.\main.c      ****                 }
 818:.\main.c      ****             }
 819:.\main.c      ****             CyDelay(100);            
 3154              		.loc 1 819 0
 3155 0b22 6420     		movs	r0, #100
 3156 0b24 FFF7FEFF 		bl	CyDelay
 3157              	.LVL206:
 820:.\main.c      ****             LCD_1_ClearRxBuffer();
 3158              		.loc 1 820 0
 3159 0b28 FFF7FEFF 		bl	LCD_1_ClearRxBuffer
 3160              	.LVL207:
 3161 0b2c 38BD     		pop	{r3, r4, r5, pc}
 3162              	.L109:
 821:.\main.c      ****          } 
 822:.\main.c      ****         break;
 823:.\main.c      ****         
 824:.\main.c      ****         case 13:
 825:.\main.c      **** 			imprimir(print1[1], grado1,0,a.dir);  //Imprime recibo sin copia
 3163              		.loc 1 825 0
 3164 0b2e 9E4B     		ldr	r3, .L620+16
 3165 0b30 5878     		ldrb	r0, [r3, #1]	@ zero_extendqisi2
 3166 0b32 9E4B     		ldr	r3, .L620+20
 3167 0b34 1978     		ldrb	r1, [r3]	@ zero_extendqisi2
 3168 0b36 0022     		movs	r2, #0
 3169 0b38 9D4B     		ldr	r3, .L620+24
 3170 0b3a 1B78     		ldrb	r3, [r3]	@ zero_extendqisi2
 3171 0b3c FFF7FEFF 		bl	imprimir
 3172              	.LVL208:
 826:.\main.c      **** 			if(copia_recibo[1]==0){
 3173              		.loc 1 826 0
 3174 0b40 9C4B     		ldr	r3, .L620+28
 3175 0b42 5B78     		ldrb	r3, [r3, #1]	@ zero_extendqisi2
 3176 0b44 8BB9     		cbnz	r3, .L212
 827:.\main.c      **** 				set_imagen(1,12);
 3177              		.loc 1 827 0
 3178 0b46 0120     		movs	r0, #1
 3179 0b48 0C21     		movs	r1, #12
 3180 0b4a FFF7FEFF 		bl	set_imagen
 3181              	.LVL209:
 828:.\main.c      **** 				CyDelay(500);
 3182              		.loc 1 828 0
ARM GAS  C:\Users\IN-002~1\AppData\Local\Temp\ccN5KMQc.s 			page 72


 3183 0b4e 4FF4FA70 		mov	r0, #500
 3184 0b52 FFF7FEFF 		bl	CyDelay
 3185              	.LVL210:
 829:.\main.c      ****                 Buffer_LCD1.preset = 0x00;
 3186              		.loc 1 829 0
 3187 0b56 0024     		movs	r4, #0
 3188 0b58 914B     		ldr	r3, .L620+8
 3189 0b5a DC70     		strb	r4, [r3, #3]
 830:.\main.c      ****                 set_imagen(1,46);
 3190              		.loc 1 830 0
 3191 0b5c 0120     		movs	r0, #1
 3192 0b5e 2E21     		movs	r1, #46
 3193 0b60 FFF7FEFF 		bl	set_imagen
 3194              	.LVL211:
 831:.\main.c      ****                 flujo_LCD = 0;
 3195              		.loc 1 831 0
 3196 0b64 8F4B     		ldr	r3, .L620+12
 3197 0b66 1C70     		strb	r4, [r3]
 3198 0b68 38BD     		pop	{r3, r4, r5, pc}
 3199              	.L212:
 832:.\main.c      **** 			}else{
 833:.\main.c      **** 				set_imagen(1,49);
 3200              		.loc 1 833 0
 3201 0b6a 0120     		movs	r0, #1
 3202 0b6c 3121     		movs	r1, #49
 3203 0b6e FFF7FEFF 		bl	set_imagen
 3204              	.LVL212:
 834:.\main.c      **** 				teclas1=0;				
 3205              		.loc 1 834 0
 3206 0b72 0022     		movs	r2, #0
 3207 0b74 884B     		ldr	r3, .L620
 3208 0b76 1A70     		strb	r2, [r3]
 835:.\main.c      **** 				flujo_LCD = 33;					
 3209              		.loc 1 835 0
 3210 0b78 2122     		movs	r2, #33
 3211 0b7a 8A4B     		ldr	r3, .L620+12
 3212 0b7c 1A70     		strb	r2, [r3]
 3213 0b7e 38BD     		pop	{r3, r4, r5, pc}
 3214              	.L110:
 836:.\main.c      **** 			}
 837:.\main.c      ****         break;  
 838:.\main.c      ****         
 839:.\main.c      ****         case 14:
 840:.\main.c      ****          if(LCD_1_GetRxBufferSize()==8){
 3215              		.loc 1 840 0
 3216 0b80 FFF7FEFF 		bl	LCD_1_GetRxBufferSize
 3217              	.LVL213:
 3218 0b84 0828     		cmp	r0, #8
 3219 0b86 43F09181 		bne	.L95
 841:.\main.c      ****             if((LCD_1_rxBuffer[0]==0xAA) && (LCD_1_rxBuffer[6]==0xC3) && (LCD_1_rxBuffer[7]==0x3C))
 3220              		.loc 1 841 0
 3221 0b8a 844B     		ldr	r3, .L620+4
 3222 0b8c 1B78     		ldrb	r3, [r3]	@ zero_extendqisi2
 3223 0b8e DBB2     		uxtb	r3, r3
 3224 0b90 AA2B     		cmp	r3, #170
 3225 0b92 40F0D680 		bne	.L213
 3226              		.loc 1 841 0 is_stmt 0 discriminator 1
ARM GAS  C:\Users\IN-002~1\AppData\Local\Temp\ccN5KMQc.s 			page 73


 3227 0b96 814B     		ldr	r3, .L620+4
 3228 0b98 9B79     		ldrb	r3, [r3, #6]	@ zero_extendqisi2
 3229 0b9a DBB2     		uxtb	r3, r3
 3230 0b9c C32B     		cmp	r3, #195
 3231 0b9e 40F0D080 		bne	.L213
 3232              		.loc 1 841 0 discriminator 2
 3233 0ba2 7E4B     		ldr	r3, .L620+4
 3234 0ba4 DB79     		ldrb	r3, [r3, #7]	@ zero_extendqisi2
 3235 0ba6 DBB2     		uxtb	r3, r3
 3236 0ba8 3C2B     		cmp	r3, #60
 3237 0baa 40F0CA80 		bne	.L213
 842:.\main.c      ****                 switch(LCD_1_rxBuffer[3]){
 3238              		.loc 1 842 0 is_stmt 1
 3239 0bae 7B4B     		ldr	r3, .L620+4
 3240 0bb0 DB78     		ldrb	r3, [r3, #3]	@ zero_extendqisi2
 3241 0bb2 DBB2     		uxtb	r3, r3
 3242 0bb4 652B     		cmp	r3, #101
 3243 0bb6 00F08880 		beq	.L214
 3244 0bba 0AD8     		bhi	.L215
 3245 0bbc 5A2B     		cmp	r3, #90
 3246 0bbe 54D0     		beq	.L216
 3247 0bc0 02D8     		bhi	.L217
 3248 0bc2 582B     		cmp	r3, #88
 3249 0bc4 16D0     		beq	.L218
 3250 0bc6 BCE0     		b	.L213
 3251              	.L217:
 3252 0bc8 5B2B     		cmp	r3, #91
 3253 0bca 68D0     		beq	.L219
 3254 0bcc 5D2B     		cmp	r3, #93
 3255 0bce 28D0     		beq	.L220
 3256 0bd0 B7E0     		b	.L213
 3257              	.L215:
 3258 0bd2 932B     		cmp	r3, #147
 3259 0bd4 00F08180 		beq	.L221
 3260 0bd8 06D8     		bhi	.L222
 3261 0bda 702B     		cmp	r3, #112
 3262 0bdc 00F09A80 		beq	.L223
 3263 0be0 7E2B     		cmp	r3, #126
 3264 0be2 00F09F80 		beq	.L224
 3265 0be6 ACE0     		b	.L213
 3266              	.L222:
 3267 0be8 942B     		cmp	r3, #148
 3268 0bea 00F0A380 		beq	.L225
 3269 0bee 962B     		cmp	r3, #150
 3270 0bf0 60D0     		beq	.L226
 3271 0bf2 A6E0     		b	.L213
 3272              	.L218:
 843:.\main.c      ****                     case 0x58:								 	 //Configurar Fecha y Hora	 
 844:.\main.c      ****                         teclas1=0;                            	  
 3273              		.loc 1 844 0
 3274 0bf4 0022     		movs	r2, #0
 3275 0bf6 684B     		ldr	r3, .L620
 3276 0bf8 1A70     		strb	r2, [r3]
 845:.\main.c      ****                         set_imagen(1,62); 
 3277              		.loc 1 845 0
 3278 0bfa 0120     		movs	r0, #1
 3279 0bfc 3E21     		movs	r1, #62
ARM GAS  C:\Users\IN-002~1\AppData\Local\Temp\ccN5KMQc.s 			page 74


 3280 0bfe FFF7FEFF 		bl	set_imagen
 3281              	.LVL214:
 846:.\main.c      **** 					    if(leer_hora()==1){
 3282              		.loc 1 846 0
 3283 0c02 FFF7FEFF 		bl	leer_hora
 3284              	.LVL215:
 3285 0c06 0128     		cmp	r0, #1
 3286 0c08 01D1     		bne	.L227
 847:.\main.c      **** 						    Hora_LCD(1);
 3287              		.loc 1 847 0
 3288 0c0a FFF7FEFF 		bl	Hora_LCD
 3289              	.LVL216:
 3290              	.L227:
 848:.\main.c      **** 					    } 
 849:.\main.c      **** 					    if(leer_fecha()==1){
 3291              		.loc 1 849 0
 3292 0c0e FFF7FEFF 		bl	leer_fecha
 3293              	.LVL217:
 3294 0c12 0128     		cmp	r0, #1
 3295 0c14 01D1     		bne	.L228
 850:.\main.c      **** 						    Fecha_LCD(1);						
 3296              		.loc 1 850 0
 3297 0c16 FFF7FEFF 		bl	Fecha_LCD
 3298              	.LVL218:
 3299              	.L228:
 851:.\main.c      **** 					    }		
 852:.\main.c      ****                         flujo_LCD = 16;  
 3300              		.loc 1 852 0
 3301 0c1a 1022     		movs	r2, #16
 3302 0c1c 614B     		ldr	r3, .L620+12
 3303 0c1e 1A70     		strb	r2, [r3]
 853:.\main.c      ****                     break;
 3304              		.loc 1 853 0
 3305 0c20 8FE0     		b	.L213
 3306              	.L220:
 854:.\main.c      ****                     
 855:.\main.c      ****                     case 0x5D:  							     //Cambiar Precio
 856:.\main.c      ****                                         
 857:.\main.c      ****                       set_imagen(1,92);
 3307              		.loc 1 857 0
 3308 0c22 0120     		movs	r0, #1
 3309 0c24 5C21     		movs	r1, #92
 3310 0c26 FFF7FEFF 		bl	set_imagen
 3311              	.LVL219:
 858:.\main.c      ****                       Precio_LCD(1,0x00,0xD6,429);               // primer producto   segundo campo
 3312              		.loc 1 858 0
 3313 0c2a 0120     		movs	r0, #1
 3314 0c2c 0021     		movs	r1, #0
 3315 0c2e D622     		movs	r2, #214
 3316 0c30 40F2AD13 		movw	r3, #429
 3317 0c34 FFF7FEFF 		bl	Precio_LCD
 3318              	.LVL220:
 859:.\main.c      **** 					  Precio_LCD(1,0x00,0x89,423);               // segundo producto 			  
 3319              		.loc 1 859 0
 3320 0c38 0120     		movs	r0, #1
 3321 0c3a 0021     		movs	r1, #0
 3322 0c3c 8922     		movs	r2, #137
ARM GAS  C:\Users\IN-002~1\AppData\Local\Temp\ccN5KMQc.s 			page 75


 3323 0c3e 40F2A713 		movw	r3, #423
 3324 0c42 FFF7FEFF 		bl	Precio_LCD
 3325              	.LVL221:
 860:.\main.c      ****                       Precio_LCD(1,0x01,0x24,435);               // segundo producto 
 3326              		.loc 1 860 0
 3327 0c46 0120     		movs	r0, #1
 3328 0c48 0146     		mov	r1, r0
 3329 0c4a 2422     		movs	r2, #36
 3330 0c4c 40F2B313 		movw	r3, #435
 3331 0c50 FFF7FEFF 		bl	Precio_LCD
 3332              	.LVL222:
 861:.\main.c      ****                       Precio_LCD(1,0x01,0x78,1000);              //cuarto producto 
 3333              		.loc 1 861 0
 3334 0c54 0120     		movs	r0, #1
 3335 0c56 0146     		mov	r1, r0
 3336 0c58 7822     		movs	r2, #120
 3337 0c5a 4FF47A73 		mov	r3, #1000
 3338 0c5e FFF7FEFF 		bl	Precio_LCD
 3339              	.LVL223:
 862:.\main.c      ****                       flujo_LCD = 19; 
 3340              		.loc 1 862 0
 3341 0c62 1322     		movs	r2, #19
 3342 0c64 4F4B     		ldr	r3, .L620+12
 3343 0c66 1A70     		strb	r2, [r3]
 863:.\main.c      ****                       
 864:.\main.c      ****                     break;
 3344              		.loc 1 864 0
 3345 0c68 6BE0     		b	.L213
 3346              	.L216:
 865:.\main.c      ****                     
 866:.\main.c      ****                    case 0x5A:  	
 867:.\main.c      ****                         set_imagen(1,96);                       //Datos de Recibo
 3347              		.loc 1 867 0
 3348 0c6a 0120     		movs	r0, #1
 3349 0c6c 6021     		movs	r1, #96
 3350 0c6e FFF7FEFF 		bl	set_imagen
 3351              	.LVL224:
 868:.\main.c      **** 					    Nombre_LCD(1);
 3352              		.loc 1 868 0
 3353 0c72 0120     		movs	r0, #1
 3354 0c74 FFF7FEFF 		bl	Nombre_LCD
 3355              	.LVL225:
 869:.\main.c      **** 					    direccion_LCD(1);
 3356              		.loc 1 869 0
 3357 0c78 0120     		movs	r0, #1
 3358 0c7a FFF7FEFF 		bl	direccion_LCD
 3359              	.LVL226:
 870:.\main.c      **** 					    telefono_LCD(1);
 3360              		.loc 1 870 0
 3361 0c7e 0120     		movs	r0, #1
 3362 0c80 FFF7FEFF 		bl	telefono_LCD
 3363              	.LVL227:
 871:.\main.c      **** 					    nit_LCD(1);
 3364              		.loc 1 871 0
 3365 0c84 0120     		movs	r0, #1
 3366 0c86 FFF7FEFF 		bl	nit_LCD
 3367              	.LVL228:
ARM GAS  C:\Users\IN-002~1\AppData\Local\Temp\ccN5KMQc.s 			page 76


 872:.\main.c      **** 					    lema1_LCD(1);
 3368              		.loc 1 872 0
 3369 0c8a 0120     		movs	r0, #1
 3370 0c8c FFF7FEFF 		bl	lema1_LCD
 3371              	.LVL229:
 873:.\main.c      **** 					    lema2_LCD(1);							 
 3372              		.loc 1 873 0
 3373 0c90 0120     		movs	r0, #1
 3374 0c92 FFF7FEFF 		bl	lema2_LCD
 3375              	.LVL230:
 874:.\main.c      ****                         flujo_LCD = 18;                    
 3376              		.loc 1 874 0
 3377 0c96 1222     		movs	r2, #18
 3378 0c98 424B     		ldr	r3, .L620+12
 3379 0c9a 1A70     		strb	r2, [r3]
 875:.\main.c      ****                     break;
 3380              		.loc 1 875 0
 3381 0c9c 51E0     		b	.L213
 3382              	.L219:
 876:.\main.c      ****                     
 877:.\main.c      ****                     case 0x5B:         
 878:.\main.c      ****                         set_imagen(1,47); 
 3383              		.loc 1 878 0
 3384 0c9e 0120     		movs	r0, #1
 3385 0ca0 2F21     		movs	r1, #47
 3386 0ca2 FFF7FEFF 		bl	set_imagen
 3387              	.LVL231:
 879:.\main.c      **** 					    teclas1=0;               			     //Cambiar pasword                     
 3388              		.loc 1 879 0
 3389 0ca6 0022     		movs	r2, #0
 3390 0ca8 3B4B     		ldr	r3, .L620
 3391 0caa 1A70     		strb	r2, [r3]
 880:.\main.c      ****                         flujo_LCD = 17;                    
 3392              		.loc 1 880 0
 3393 0cac 1122     		movs	r2, #17
 3394 0cae 3D4B     		ldr	r3, .L620+12
 3395 0cb0 1A70     		strb	r2, [r3]
 881:.\main.c      ****                     break;   					
 3396              		.loc 1 881 0
 3397 0cb2 46E0     		b	.L213
 3398              	.L226:
 882:.\main.c      **** 					
 883:.\main.c      ****                     case 0x96:     
 884:.\main.c      ****                         set_imagen(1,95); 
 3399              		.loc 1 884 0
 3400 0cb4 0120     		movs	r0, #1
 3401 0cb6 5F21     		movs	r1, #95
 3402 0cb8 FFF7FEFF 		bl	set_imagen
 3403              	.LVL232:
 885:.\main.c      **** 					    teclas1=0;                   			 //Configurar Surtidor                   
 3404              		.loc 1 885 0
 3405 0cbc 0022     		movs	r2, #0
 3406 0cbe 364B     		ldr	r3, .L620
 3407 0cc0 1A70     		strb	r2, [r3]
 886:.\main.c      ****                         flujo_LCD = 27;                    
 3408              		.loc 1 886 0
 3409 0cc2 1B22     		movs	r2, #27
ARM GAS  C:\Users\IN-002~1\AppData\Local\Temp\ccN5KMQc.s 			page 77


 3410 0cc4 374B     		ldr	r3, .L620+12
 3411 0cc6 1A70     		strb	r2, [r3]
 887:.\main.c      ****                     break; 
 3412              		.loc 1 887 0
 3413 0cc8 3BE0     		b	.L213
 3414              	.L214:
 888:.\main.c      **** 					
 889:.\main.c      ****                     case 0x65: 
 890:.\main.c      ****                         set_imagen(1,77);                 	     //Test                     
 3415              		.loc 1 890 0
 3416 0cca 0120     		movs	r0, #1
 3417 0ccc 4D21     		movs	r1, #77
 3418 0cce FFF7FEFF 		bl	set_imagen
 3419              	.LVL233:
 891:.\main.c      ****                         flujo_LCD = 20;
 3420              		.loc 1 891 0
 3421 0cd2 1422     		movs	r2, #20
 3422 0cd4 334B     		ldr	r3, .L620+12
 3423 0cd6 1A70     		strb	r2, [r3]
 892:.\main.c      ****                     break;
 3424              		.loc 1 892 0
 3425 0cd8 33E0     		b	.L213
 3426              	.L221:
 893:.\main.c      **** 					
 894:.\main.c      ****                     case 0x93:
 895:.\main.c      ****                         set_imagen(1,110);                       //Grabar Ibutton
 3427              		.loc 1 895 0
 3428 0cda 0120     		movs	r0, #1
 3429 0cdc 6E21     		movs	r1, #110
 3430 0cde FFF7FEFF 		bl	set_imagen
 3431              	.LVL234:
 896:.\main.c      **** 					    if(read_memory_ibutton(1,1)>=6){
 3432              		.loc 1 896 0
 3433 0ce2 0120     		movs	r0, #1
 3434 0ce4 0146     		mov	r1, r0
 3435 0ce6 FFF7FEFF 		bl	read_memory_ibutton
 3436              	.LVL235:
 3437 0cea 0528     		cmp	r0, #5
 3438 0cec 0ED9     		bls	.L229
 897:.\main.c      **** 						    CyDelay(10);
 3439              		.loc 1 897 0
 3440 0cee 0A20     		movs	r0, #10
 3441 0cf0 FFF7FEFF 		bl	CyDelay
 3442              	.LVL236:
 898:.\main.c      **** 						    Placa_LCD(1);
 3443              		.loc 1 898 0
 3444 0cf4 0120     		movs	r0, #1
 3445 0cf6 FFF7FEFF 		bl	Placa_LCD
 3446              	.LVL237:
 899:.\main.c      **** 						    if(read_memory_ibutton(1,0x21)>=6){						
 3447              		.loc 1 899 0
 3448 0cfa 0120     		movs	r0, #1
 3449 0cfc 2121     		movs	r1, #33
 3450 0cfe FFF7FEFF 		bl	read_memory_ibutton
 3451              	.LVL238:
 3452 0d02 0528     		cmp	r0, #5
 3453 0d04 02D9     		bls	.L229
ARM GAS  C:\Users\IN-002~1\AppData\Local\Temp\ccN5KMQc.s 			page 78


 900:.\main.c      **** 							    Cuenta_LCD(1);
 3454              		.loc 1 900 0
 3455 0d06 0120     		movs	r0, #1
 3456 0d08 FFF7FEFF 		bl	Cuenta_LCD
 3457              	.LVL239:
 3458              	.L229:
 901:.\main.c      **** 						    }
 902:.\main.c      **** 					    }			                  
 903:.\main.c      ****                         flujo_LCD = 35;                                                    
 3459              		.loc 1 903 0
 3460 0d0c 2322     		movs	r2, #35
 3461 0d0e 254B     		ldr	r3, .L620+12
 3462 0d10 1A70     		strb	r2, [r3]
 904:.\main.c      ****                     break;
 3463              		.loc 1 904 0
 3464 0d12 16E0     		b	.L213
 3465              	.L223:
 905:.\main.c      ****                     
 906:.\main.c      ****                     case 0x70:         
 907:.\main.c      ****                         set_imagen(1,137);                     //Tipo de impresora 
 3466              		.loc 1 907 0
 3467 0d14 0120     		movs	r0, #1
 3468 0d16 8921     		movs	r1, #137
 3469 0d18 FFF7FEFF 		bl	set_imagen
 3470              	.LVL240:
 908:.\main.c      ****                         flujo_LCD = 41;                         				
 3471              		.loc 1 908 0
 3472 0d1c 2922     		movs	r2, #41
 3473 0d1e 214B     		ldr	r3, .L620+12
 3474 0d20 1A70     		strb	r2, [r3]
 909:.\main.c      ****                     break;
 3475              		.loc 1 909 0
 3476 0d22 0EE0     		b	.L213
 3477              	.L224:
 910:.\main.c      **** 					
 911:.\main.c      ****                     case 0x7E:									//ir a menu
 912:.\main.c      **** 					  set_imagen(1,46);
 3478              		.loc 1 912 0
 3479 0d24 0120     		movs	r0, #1
 3480 0d26 2E21     		movs	r1, #46
 3481 0d28 FFF7FEFF 		bl	set_imagen
 3482              	.LVL241:
 913:.\main.c      ****                       flujo_LCD=0;     
 3483              		.loc 1 913 0
 3484 0d2c 0022     		movs	r2, #0
 3485 0d2e 1D4B     		ldr	r3, .L620+12
 3486 0d30 1A70     		strb	r2, [r3]
 914:.\main.c      ****                     break;
 3487              		.loc 1 914 0
 3488 0d32 06E0     		b	.L213
 3489              	.L225:
 915:.\main.c      ****                     
 916:.\main.c      ****                     case 0x94:									//Volver a menu de opciones
 917:.\main.c      **** 					  set_imagen(1,46);
 3490              		.loc 1 917 0
 3491 0d34 0120     		movs	r0, #1
 3492 0d36 2E21     		movs	r1, #46
ARM GAS  C:\Users\IN-002~1\AppData\Local\Temp\ccN5KMQc.s 			page 79


 3493 0d38 FFF7FEFF 		bl	set_imagen
 3494              	.LVL242:
 918:.\main.c      ****                       flujo_LCD=0;     
 3495              		.loc 1 918 0
 3496 0d3c 0022     		movs	r2, #0
 3497 0d3e 194B     		ldr	r3, .L620+12
 3498 0d40 1A70     		strb	r2, [r3]
 3499              	.L213:
 919:.\main.c      ****                     break;
 920:.\main.c      ****                 }					
 921:.\main.c      ****             }
 922:.\main.c      ****             CyDelay(100);            
 3500              		.loc 1 922 0
 3501 0d42 6420     		movs	r0, #100
 3502 0d44 FFF7FEFF 		bl	CyDelay
 3503              	.LVL243:
 923:.\main.c      ****             LCD_1_ClearRxBuffer();
 3504              		.loc 1 923 0
 3505 0d48 FFF7FEFF 		bl	LCD_1_ClearRxBuffer
 3506              	.LVL244:
 3507 0d4c 38BD     		pop	{r3, r4, r5, pc}
 3508              	.L111:
 924:.\main.c      ****          }		  
 925:.\main.c      **** 		break;
 926:.\main.c      ****         
 927:.\main.c      ****         case 15: 
 928:.\main.c      ****          if(LCD_1_GetRxBufferSize()==8){
 3509              		.loc 1 928 0
 3510 0d4e FFF7FEFF 		bl	LCD_1_GetRxBufferSize
 3511              	.LVL245:
 3512 0d52 0828     		cmp	r0, #8
 3513 0d54 43F0AA80 		bne	.L95
 929:.\main.c      ****             if((LCD_1_rxBuffer[0]==0xAA) && (LCD_1_rxBuffer[6]==0xC3) && (LCD_1_rxBuffer[7]==0x3C))
 3514              		.loc 1 929 0
 3515 0d58 104B     		ldr	r3, .L620+4
 3516 0d5a 1B78     		ldrb	r3, [r3]	@ zero_extendqisi2
 3517 0d5c DBB2     		uxtb	r3, r3
 3518 0d5e AA2B     		cmp	r3, #170
 3519 0d60 43F0A480 		bne	.L95
 3520              		.loc 1 929 0 is_stmt 0 discriminator 1
 3521 0d64 0D4B     		ldr	r3, .L620+4
 3522 0d66 9B79     		ldrb	r3, [r3, #6]	@ zero_extendqisi2
 3523 0d68 DBB2     		uxtb	r3, r3
 3524 0d6a C32B     		cmp	r3, #195
 3525 0d6c 43F09E80 		bne	.L95
 3526              		.loc 1 929 0 discriminator 2
 3527 0d70 0A4B     		ldr	r3, .L620+4
 3528 0d72 DB79     		ldrb	r3, [r3, #7]	@ zero_extendqisi2
 3529 0d74 DBB2     		uxtb	r3, r3
 3530 0d76 3C2B     		cmp	r3, #60
 3531 0d78 43F09880 		bne	.L95
 930:.\main.c      ****                 if(LCD_1_rxBuffer[3] == 0x7E){
 3532              		.loc 1 930 0 is_stmt 1
 3533 0d7c 074B     		ldr	r3, .L620+4
 3534 0d7e DB78     		ldrb	r3, [r3, #3]	@ zero_extendqisi2
 3535 0d80 DBB2     		uxtb	r3, r3
 3536 0d82 7E2B     		cmp	r3, #126
ARM GAS  C:\Users\IN-002~1\AppData\Local\Temp\ccN5KMQc.s 			page 80


 3537 0d84 18D1     		bne	.L230
 931:.\main.c      ****                     set_imagen(1,49);
 3538              		.loc 1 931 0
 3539 0d86 0120     		movs	r0, #1
 3540 0d88 3121     		movs	r1, #49
 3541 0d8a FFF7FEFF 		bl	set_imagen
 3542              	.LVL246:
 932:.\main.c      ****                     flujo_LCD = 0;
 3543              		.loc 1 932 0
 3544 0d8e 0022     		movs	r2, #0
 3545 0d90 044B     		ldr	r3, .L620+12
 3546 0d92 1A70     		strb	r2, [r3]
 3547 0d94 1CE0     		b	.L231
 3548              	.L621:
 3549 0d96 00BF     		.align	2
 3550              	.L620:
 3551 0d98 00000000 		.word	teclas1
 3552 0d9c 00000000 		.word	LCD_1_rxBuffer
 3553 0da0 00000000 		.word	Buffer_LCD1
 3554 0da4 00000000 		.word	flujo_LCD
 3555 0da8 00000000 		.word	print1
 3556 0dac 00000000 		.word	grado1
 3557 0db0 00000000 		.word	a
 3558 0db4 00000000 		.word	copia_recibo
 3559              	.L230:
 933:.\main.c      ****                 }else if(LCD_1_rxBuffer[3] == 0x94){
 3560              		.loc 1 933 0
 3561 0db8 A34B     		ldr	r3, .L622
 3562 0dba DB78     		ldrb	r3, [r3, #3]	@ zero_extendqisi2
 3563 0dbc DBB2     		uxtb	r3, r3
 3564 0dbe 942B     		cmp	r3, #148
 3565 0dc0 06D1     		bne	.L231
 934:.\main.c      ****                     set_imagen(1,99);
 3566              		.loc 1 934 0
 3567 0dc2 0120     		movs	r0, #1
 3568 0dc4 6321     		movs	r1, #99
 3569 0dc6 FFF7FEFF 		bl	set_imagen
 3570              	.LVL247:
 935:.\main.c      ****                     flujo_LCD = 1;
 3571              		.loc 1 935 0
 3572 0dca 0122     		movs	r2, #1
 3573 0dcc 9F4B     		ldr	r3, .L622+4
 3574 0dce 1A70     		strb	r2, [r3]
 3575              	.L231:
 936:.\main.c      ****                 }
 937:.\main.c      ****                 if(teclas1<=7){
 3576              		.loc 1 937 0
 3577 0dd0 9F4B     		ldr	r3, .L622+8
 3578 0dd2 1A78     		ldrb	r2, [r3]	@ zero_extendqisi2
 3579 0dd4 072A     		cmp	r2, #7
 3580 0dd6 26D8     		bhi	.L232
 938:.\main.c      ****                     if(LCD_1_rxBuffer[3]<=9){
 3581              		.loc 1 938 0
 3582 0dd8 9B4B     		ldr	r3, .L622
 3583 0dda DB78     		ldrb	r3, [r3, #3]	@ zero_extendqisi2
 3584 0ddc DBB2     		uxtb	r3, r3
 3585 0dde 092B     		cmp	r3, #9
ARM GAS  C:\Users\IN-002~1\AppData\Local\Temp\ccN5KMQc.s 			page 81


 3586 0de0 0ED8     		bhi	.L233
 939:.\main.c      ****                         Buffer_LCD1.password[teclas1]=LCD_1_rxBuffer[3]+0x30;
 3587              		.loc 1 939 0
 3588 0de2 994B     		ldr	r3, .L622
 3589 0de4 D978     		ldrb	r1, [r3, #3]	@ zero_extendqisi2
 3590 0de6 9B4B     		ldr	r3, .L622+12
 3591 0de8 1344     		add	r3, r3, r2
 3592 0dea 3031     		adds	r1, r1, #48
 3593 0dec 83F88E10 		strb	r1, [r3, #142]
 940:.\main.c      ****                         write_LCD(1,'*',teclas1);
 3594              		.loc 1 940 0
 3595 0df0 0120     		movs	r0, #1
 3596 0df2 2A21     		movs	r1, #42
 3597 0df4 FFF7FEFF 		bl	write_LCD
 3598              	.LVL248:
 941:.\main.c      **** 						teclas1++;
 3599              		.loc 1 941 0
 3600 0df8 954A     		ldr	r2, .L622+8
 3601 0dfa 1378     		ldrb	r3, [r2]	@ zero_extendqisi2
 3602 0dfc 0133     		adds	r3, r3, #1
 3603 0dfe 1370     		strb	r3, [r2]
 3604              	.L233:
 942:.\main.c      ****                     }
 943:.\main.c      ****                     if(LCD_1_rxBuffer[3]==0x0A){            	//Comando de 0
 3605              		.loc 1 943 0
 3606 0e00 914B     		ldr	r3, .L622
 3607 0e02 DB78     		ldrb	r3, [r3, #3]	@ zero_extendqisi2
 3608 0e04 DBB2     		uxtb	r3, r3
 3609 0e06 0A2B     		cmp	r3, #10
 3610 0e08 0DD1     		bne	.L232
 944:.\main.c      ****                         Buffer_LCD1.password[teclas1]=0x30;
 3611              		.loc 1 944 0
 3612 0e0a 914C     		ldr	r4, .L622+8
 3613 0e0c 2278     		ldrb	r2, [r4]	@ zero_extendqisi2
 3614 0e0e 914B     		ldr	r3, .L622+12
 3615 0e10 1344     		add	r3, r3, r2
 3616 0e12 3021     		movs	r1, #48
 3617 0e14 83F88E10 		strb	r1, [r3, #142]
 945:.\main.c      ****                         write_LCD(1,'*',teclas1);
 3618              		.loc 1 945 0
 3619 0e18 0120     		movs	r0, #1
 3620 0e1a 2A21     		movs	r1, #42
 3621 0e1c FFF7FEFF 		bl	write_LCD
 3622              	.LVL249:
 946:.\main.c      ****                         teclas1++;						
 3623              		.loc 1 946 0
 3624 0e20 2378     		ldrb	r3, [r4]	@ zero_extendqisi2
 3625 0e22 0133     		adds	r3, r3, #1
 3626 0e24 2370     		strb	r3, [r4]
 3627              	.L232:
 947:.\main.c      ****                     }                     
 948:.\main.c      ****                 }
 949:.\main.c      ****                 if(LCD_1_rxBuffer[3]==0x0B){					//Cancel
 3628              		.loc 1 949 0
 3629 0e26 884B     		ldr	r3, .L622
 3630 0e28 DB78     		ldrb	r3, [r3, #3]	@ zero_extendqisi2
 3631 0e2a DBB2     		uxtb	r3, r3
ARM GAS  C:\Users\IN-002~1\AppData\Local\Temp\ccN5KMQc.s 			page 82


 3632 0e2c 0B2B     		cmp	r3, #11
 3633 0e2e 1AD1     		bne	.L234
 950:.\main.c      ****                     if(teclas1==0){								//Si no ha presionado regresa al inicio
 3634              		.loc 1 950 0
 3635 0e30 874B     		ldr	r3, .L622+8
 3636 0e32 1B78     		ldrb	r3, [r3]	@ zero_extendqisi2
 3637 0e34 7BB9     		cbnz	r3, .L235
 951:.\main.c      **** 						set_imagen(1,57);
 3638              		.loc 1 951 0
 3639 0e36 0120     		movs	r0, #1
 3640 0e38 3921     		movs	r1, #57
 3641 0e3a FFF7FEFF 		bl	set_imagen
 3642              	.LVL250:
 952:.\main.c      ****                         CyDelay(500);
 3643              		.loc 1 952 0
 3644 0e3e 4FF4FA70 		mov	r0, #500
 3645 0e42 FFF7FEFF 		bl	CyDelay
 3646              	.LVL251:
 953:.\main.c      ****                         set_imagen(1,46);
 3647              		.loc 1 953 0
 3648 0e46 0120     		movs	r0, #1
 3649 0e48 2E21     		movs	r1, #46
 3650 0e4a FFF7FEFF 		bl	set_imagen
 3651              	.LVL252:
 954:.\main.c      ****                         flujo_LCD = 0;
 3652              		.loc 1 954 0
 3653 0e4e 0022     		movs	r2, #0
 3654 0e50 7E4B     		ldr	r3, .L622+4
 3655 0e52 1A70     		strb	r2, [r3]
 3656 0e54 07E0     		b	.L234
 3657              	.L235:
 955:.\main.c      ****                     }
 956:.\main.c      ****                     else{
 957:.\main.c      ****                         teclas1--;						
 3658              		.loc 1 957 0
 3659 0e56 013B     		subs	r3, r3, #1
 3660 0e58 DAB2     		uxtb	r2, r3
 3661 0e5a 7D4B     		ldr	r3, .L622+8
 3662 0e5c 1A70     		strb	r2, [r3]
 958:.\main.c      ****                         write_LCD(1,0x20,(teclas1));			//Si ya presiono borra el dato	
 3663              		.loc 1 958 0
 3664 0e5e 0120     		movs	r0, #1
 3665 0e60 2021     		movs	r1, #32
 3666 0e62 FFF7FEFF 		bl	write_LCD
 3667              	.LVL253:
 3668              	.L234:
 959:.\main.c      ****                     }
 960:.\main.c      ****                 }
 961:.\main.c      ****                 if(LCD_1_rxBuffer[3]==0x0C){					//Si presiona enter revisa que el password coinsid
 3669              		.loc 1 961 0
 3670 0e66 784B     		ldr	r3, .L622
 3671 0e68 DB78     		ldrb	r3, [r3, #3]	@ zero_extendqisi2
 3672 0e6a DBB2     		uxtb	r3, r3
 3673 0e6c 0C2B     		cmp	r3, #12
 3674 0e6e 7DD1     		bne	.L236
 962:.\main.c      ****                     if(teclas1>=1){
 3675              		.loc 1 962 0
ARM GAS  C:\Users\IN-002~1\AppData\Local\Temp\ccN5KMQc.s 			page 83


 3676 0e70 774B     		ldr	r3, .L622+8
 3677 0e72 1A78     		ldrb	r2, [r3]	@ zero_extendqisi2
 3678 0e74 002A     		cmp	r2, #0
 3679 0e76 79D0     		beq	.L236
 963:.\main.c      **** 						y=0;
 3680              		.loc 1 963 0
 3681 0e78 0023     		movs	r3, #0
 3682 0e7a 7749     		ldr	r1, .L622+16
 3683 0e7c 0B60     		str	r3, [r1]
 964:.\main.c      **** 						for(x=0;x<teclas1;x++){						
 3684              		.loc 1 964 0
 3685 0e7e 7749     		ldr	r1, .L622+20
 3686 0e80 0B60     		str	r3, [r1]
 3687 0e82 15E0     		b	.L237
 3688              	.L240:
 965:.\main.c      **** 							if(rventa.password[x+1]==(Buffer_LCD1.password[x]-0x30)){
 3689              		.loc 1 965 0
 3690 0e84 581C     		adds	r0, r3, #1
 3691 0e86 7649     		ldr	r1, .L622+24
 3692 0e88 0144     		add	r1, r1, r0
 3693 0e8a 91F8D710 		ldrb	r1, [r1, #215]	@ zero_extendqisi2
 3694 0e8e 714C     		ldr	r4, .L622+12
 3695 0e90 2344     		add	r3, r3, r4
 3696 0e92 93F88E30 		ldrb	r3, [r3, #142]	@ zero_extendqisi2
 3697 0e96 303B     		subs	r3, r3, #48
 3698 0e98 9942     		cmp	r1, r3
 3699 0e9a 04D1     		bne	.L238
 966:.\main.c      **** 								y++;
 3700              		.loc 1 966 0
 3701 0e9c 6E49     		ldr	r1, .L622+16
 3702 0e9e 0B68     		ldr	r3, [r1]
 3703 0ea0 0133     		adds	r3, r3, #1
 3704 0ea2 0B60     		str	r3, [r1]
 3705 0ea4 02E0     		b	.L239
 3706              	.L238:
 967:.\main.c      **** 							}
 968:.\main.c      **** 							else{
 969:.\main.c      **** 								y=0;
 3707              		.loc 1 969 0
 3708 0ea6 0021     		movs	r1, #0
 3709 0ea8 6B4B     		ldr	r3, .L622+16
 3710 0eaa 1960     		str	r1, [r3]
 3711              	.L239:
 964:.\main.c      **** 							if(rventa.password[x+1]==(Buffer_LCD1.password[x]-0x30)){
 3712              		.loc 1 964 0 discriminator 2
 3713 0eac 6B4B     		ldr	r3, .L622+20
 3714 0eae 1860     		str	r0, [r3]
 3715              	.L237:
 964:.\main.c      **** 							if(rventa.password[x+1]==(Buffer_LCD1.password[x]-0x30)){
 3716              		.loc 1 964 0 is_stmt 0 discriminator 1
 3717 0eb0 1046     		mov	r0, r2
 3718 0eb2 6A4B     		ldr	r3, .L622+20
 3719 0eb4 1B68     		ldr	r3, [r3]
 3720 0eb6 9A42     		cmp	r2, r3
 3721 0eb8 E4D8     		bhi	.L240
 970:.\main.c      **** 							}
 971:.\main.c      **** 						}
ARM GAS  C:\Users\IN-002~1\AppData\Local\Temp\ccN5KMQc.s 			page 84


 972:.\main.c      **** 						if(y==rventa.password[0]){								
 3722              		.loc 1 972 0 is_stmt 1
 3723 0eba 694B     		ldr	r3, .L622+24
 3724 0ebc 93F8D720 		ldrb	r2, [r3, #215]	@ zero_extendqisi2
 3725 0ec0 654B     		ldr	r3, .L622+16
 3726 0ec2 1B68     		ldr	r3, [r3]
 3727 0ec4 9A42     		cmp	r2, r3
 3728 0ec6 0FD1     		bne	.L241
 973:.\main.c      **** 	                        set_imagen(1,38);
 3729              		.loc 1 973 0
 3730 0ec8 0120     		movs	r0, #1
 3731 0eca 2621     		movs	r1, #38
 3732 0ecc FFF7FEFF 		bl	set_imagen
 3733              	.LVL254:
 974:.\main.c      **** 							CyDelay(500);	                        							
 3734              		.loc 1 974 0
 3735 0ed0 4FF4FA70 		mov	r0, #500
 3736 0ed4 FFF7FEFF 		bl	CyDelay
 3737              	.LVL255:
 975:.\main.c      **** 						    set_imagen(1,112);							
 3738              		.loc 1 975 0
 3739 0ed8 0120     		movs	r0, #1
 3740 0eda 7021     		movs	r1, #112
 3741 0edc FFF7FEFF 		bl	set_imagen
 3742              	.LVL256:
 976:.\main.c      ****                             flujo_LCD = 14;
 3743              		.loc 1 976 0
 3744 0ee0 0E22     		movs	r2, #14
 3745 0ee2 5A4B     		ldr	r3, .L622+4
 3746 0ee4 1A70     		strb	r2, [r3]
 3747 0ee6 41E0     		b	.L236
 3748              	.L241:
 977:.\main.c      **** 						}
 978:.\main.c      **** 						else{
 979:.\main.c      **** 							y=0;
 3749              		.loc 1 979 0
 3750 0ee8 0023     		movs	r3, #0
 3751 0eea 5B4A     		ldr	r2, .L622+16
 3752 0eec 1360     		str	r3, [r2]
 980:.\main.c      **** 							for(x=0;x<teclas1;x++){						
 3753              		.loc 1 980 0
 3754 0eee 5B4A     		ldr	r2, .L622+20
 3755 0ef0 1360     		str	r3, [r2]
 3756 0ef2 10E0     		b	.L242
 3757              	.L244:
 981:.\main.c      **** 								if(puk[x]==Buffer_LCD1.password[x]){
 3758              		.loc 1 981 0
 3759 0ef4 5B4A     		ldr	r2, .L622+28
 3760 0ef6 1A44     		add	r2, r2, r3
 3761 0ef8 92F82410 		ldrb	r1, [r2, #36]	@ zero_extendqisi2
 3762 0efc 554A     		ldr	r2, .L622+12
 3763 0efe 1A44     		add	r2, r2, r3
 3764 0f00 92F88E20 		ldrb	r2, [r2, #142]	@ zero_extendqisi2
 3765 0f04 9142     		cmp	r1, r2
 3766 0f06 03D1     		bne	.L243
 982:.\main.c      **** 									y++;
 3767              		.loc 1 982 0
ARM GAS  C:\Users\IN-002~1\AppData\Local\Temp\ccN5KMQc.s 			page 85


 3768 0f08 5349     		ldr	r1, .L622+16
 3769 0f0a 0A68     		ldr	r2, [r1]
 3770 0f0c 0132     		adds	r2, r2, #1
 3771 0f0e 0A60     		str	r2, [r1]
 3772              	.L243:
 980:.\main.c      **** 							for(x=0;x<teclas1;x++){						
 3773              		.loc 1 980 0 discriminator 2
 3774 0f10 0133     		adds	r3, r3, #1
 3775 0f12 524A     		ldr	r2, .L622+20
 3776 0f14 1360     		str	r3, [r2]
 3777              	.L242:
 980:.\main.c      **** 							for(x=0;x<teclas1;x++){						
 3778              		.loc 1 980 0 is_stmt 0 discriminator 1
 3779 0f16 514B     		ldr	r3, .L622+20
 3780 0f18 1B68     		ldr	r3, [r3]
 3781 0f1a 9842     		cmp	r0, r3
 3782 0f1c EAD8     		bhi	.L244
 983:.\main.c      **** 								}
 984:.\main.c      **** 							}
 985:.\main.c      **** 							if(y==8){								
 3783              		.loc 1 985 0 is_stmt 1
 3784 0f1e 4E4B     		ldr	r3, .L622+16
 3785 0f20 1B68     		ldr	r3, [r3]
 3786 0f22 082B     		cmp	r3, #8
 3787 0f24 13D1     		bne	.L245
 986:.\main.c      **** 								set_imagen(1,38);
 3788              		.loc 1 986 0
 3789 0f26 0120     		movs	r0, #1
 3790 0f28 2621     		movs	r1, #38
 3791 0f2a FFF7FEFF 		bl	set_imagen
 3792              	.LVL257:
 987:.\main.c      **** 								CyDelay(500);																							    set_imagen(1,93);                     													
 3793              		.loc 1 987 0
 3794 0f2e 4FF4FA70 		mov	r0, #500
 3795 0f32 FFF7FEFF 		bl	CyDelay
 3796              	.LVL258:
 3797 0f36 0120     		movs	r0, #1
 3798 0f38 5D21     		movs	r1, #93
 3799 0f3a FFF7FEFF 		bl	set_imagen
 3800              	.LVL259:
 988:.\main.c      **** 								set_imagen(1,112);										
 3801              		.loc 1 988 0
 3802 0f3e 0120     		movs	r0, #1
 3803 0f40 7021     		movs	r1, #112
 3804 0f42 FFF7FEFF 		bl	set_imagen
 3805              	.LVL260:
 989:.\main.c      ****                                 flujo_LCD=14;
 3806              		.loc 1 989 0
 3807 0f46 0E22     		movs	r2, #14
 3808 0f48 404B     		ldr	r3, .L622+4
 3809 0f4a 1A70     		strb	r2, [r3]
 3810 0f4c 0EE0     		b	.L236
 3811              	.L245:
 990:.\main.c      **** 							}	
 991:.\main.c      **** 							else{		
 992:.\main.c      **** 								set_imagen(1,39);								
 3812              		.loc 1 992 0
ARM GAS  C:\Users\IN-002~1\AppData\Local\Temp\ccN5KMQc.s 			page 86


 3813 0f4e 0120     		movs	r0, #1
 3814 0f50 2721     		movs	r1, #39
 3815 0f52 FFF7FEFF 		bl	set_imagen
 3816              	.LVL261:
 993:.\main.c      **** 								CyDelay(500);
 3817              		.loc 1 993 0
 3818 0f56 4FF4FA70 		mov	r0, #500
 3819 0f5a FFF7FEFF 		bl	CyDelay
 3820              	.LVL262:
 994:.\main.c      ****                                 set_imagen(1,46);
 3821              		.loc 1 994 0
 3822 0f5e 0120     		movs	r0, #1
 3823 0f60 2E21     		movs	r1, #46
 3824 0f62 FFF7FEFF 		bl	set_imagen
 3825              	.LVL263:
 995:.\main.c      ****                                 flujo_LCD = 0;
 3826              		.loc 1 995 0
 3827 0f66 0022     		movs	r2, #0
 3828 0f68 384B     		ldr	r3, .L622+4
 3829 0f6a 1A70     		strb	r2, [r3]
 3830              	.L236:
 996:.\main.c      **** 							}		
 997:.\main.c      **** 						}
 998:.\main.c      ****                     }					
 999:.\main.c      ****                 }
1000:.\main.c      ****             CyDelay(100);            
 3831              		.loc 1 1000 0
 3832 0f6c 6420     		movs	r0, #100
 3833 0f6e FFF7FEFF 		bl	CyDelay
 3834              	.LVL264:
1001:.\main.c      ****             LCD_1_ClearRxBuffer();
 3835              		.loc 1 1001 0
 3836 0f72 FFF7FEFF 		bl	LCD_1_ClearRxBuffer
 3837              	.LVL265:
 3838 0f76 38BD     		pop	{r3, r4, r5, pc}
 3839              	.L113:
1002:.\main.c      ****             } 
1003:.\main.c      ****         }
1004:.\main.c      ****         break;
1005:.\main.c      ****         
1006:.\main.c      ****         case 17:
1007:.\main.c      ****          if(LCD_1_GetRxBufferSize()==8){
 3840              		.loc 1 1007 0
 3841 0f78 FFF7FEFF 		bl	LCD_1_GetRxBufferSize
 3842              	.LVL266:
 3843 0f7c 0828     		cmp	r0, #8
 3844 0f7e 42F09587 		bne	.L95
1008:.\main.c      ****             if((LCD_1_rxBuffer[0]==0xAA) && (LCD_1_rxBuffer[6]==0xC3) && (LCD_1_rxBuffer[7]==0x3C))
 3845              		.loc 1 1008 0
 3846 0f82 314B     		ldr	r3, .L622
 3847 0f84 1B78     		ldrb	r3, [r3]	@ zero_extendqisi2
 3848 0f86 DBB2     		uxtb	r3, r3
 3849 0f88 AA2B     		cmp	r3, #170
 3850 0f8a 40F0BE80 		bne	.L246
 3851              		.loc 1 1008 0 is_stmt 0 discriminator 1
 3852 0f8e 2E4B     		ldr	r3, .L622
 3853 0f90 9B79     		ldrb	r3, [r3, #6]	@ zero_extendqisi2
ARM GAS  C:\Users\IN-002~1\AppData\Local\Temp\ccN5KMQc.s 			page 87


 3854 0f92 DBB2     		uxtb	r3, r3
 3855 0f94 C32B     		cmp	r3, #195
 3856 0f96 40F0B880 		bne	.L246
 3857              		.loc 1 1008 0 discriminator 2
 3858 0f9a 2B4B     		ldr	r3, .L622
 3859 0f9c DB79     		ldrb	r3, [r3, #7]	@ zero_extendqisi2
 3860 0f9e DBB2     		uxtb	r3, r3
 3861 0fa0 3C2B     		cmp	r3, #60
 3862 0fa2 40F0B280 		bne	.L246
1009:.\main.c      ****                 if(LCD_1_rxBuffer[3] == 0x94){
 3863              		.loc 1 1009 0 is_stmt 1
 3864 0fa6 284B     		ldr	r3, .L622
 3865 0fa8 DB78     		ldrb	r3, [r3, #3]	@ zero_extendqisi2
 3866 0faa DBB2     		uxtb	r3, r3
 3867 0fac 942B     		cmp	r3, #148
 3868 0fae 06D1     		bne	.L247
1010:.\main.c      ****                         set_imagen(1,112);
 3869              		.loc 1 1010 0
 3870 0fb0 0120     		movs	r0, #1
 3871 0fb2 7021     		movs	r1, #112
 3872 0fb4 FFF7FEFF 		bl	set_imagen
 3873              	.LVL267:
1011:.\main.c      ****                         flujo_LCD = 14; 
 3874              		.loc 1 1011 0
 3875 0fb8 0E22     		movs	r2, #14
 3876 0fba 244B     		ldr	r3, .L622+4
 3877 0fbc 1A70     		strb	r2, [r3]
 3878              	.L247:
1012:.\main.c      ****                 }
1013:.\main.c      ****                 if(teclas1<=7){
 3879              		.loc 1 1013 0
 3880 0fbe 244B     		ldr	r3, .L622+8
 3881 0fc0 1A78     		ldrb	r2, [r3]	@ zero_extendqisi2
 3882 0fc2 072A     		cmp	r2, #7
 3883 0fc4 27D8     		bhi	.L248
1014:.\main.c      ****                     if(LCD_1_rxBuffer[3]<=9){
 3884              		.loc 1 1014 0
 3885 0fc6 204B     		ldr	r3, .L622
 3886 0fc8 DB78     		ldrb	r3, [r3, #3]	@ zero_extendqisi2
 3887 0fca DBB2     		uxtb	r3, r3
 3888 0fcc 092B     		cmp	r3, #9
 3889 0fce 10D8     		bhi	.L249
1015:.\main.c      ****                         Buffer_LCD1.password[teclas1]=LCD_1_rxBuffer[3]+0x30;
 3890              		.loc 1 1015 0
 3891 0fd0 1D48     		ldr	r0, .L622
 3892 0fd2 C178     		ldrb	r1, [r0, #3]	@ zero_extendqisi2
 3893 0fd4 1F4B     		ldr	r3, .L622+12
 3894 0fd6 1344     		add	r3, r3, r2
 3895 0fd8 3031     		adds	r1, r1, #48
 3896 0fda 83F88E10 		strb	r1, [r3, #142]
1016:.\main.c      ****                         write_LCD(1,(LCD_1_rxBuffer[3]+0x30),teclas1);
 3897              		.loc 1 1016 0
 3898 0fde C178     		ldrb	r1, [r0, #3]	@ zero_extendqisi2
 3899 0fe0 3031     		adds	r1, r1, #48
 3900 0fe2 0120     		movs	r0, #1
 3901 0fe4 C9B2     		uxtb	r1, r1
 3902 0fe6 FFF7FEFF 		bl	write_LCD
ARM GAS  C:\Users\IN-002~1\AppData\Local\Temp\ccN5KMQc.s 			page 88


 3903              	.LVL268:
1017:.\main.c      **** 						teclas1++;
 3904              		.loc 1 1017 0
 3905 0fea 194A     		ldr	r2, .L622+8
 3906 0fec 1378     		ldrb	r3, [r2]	@ zero_extendqisi2
 3907 0fee 0133     		adds	r3, r3, #1
 3908 0ff0 1370     		strb	r3, [r2]
 3909              	.L249:
1018:.\main.c      ****                     }
1019:.\main.c      ****                     if(LCD_1_rxBuffer[3]==0x0A){            	//Comando de 0
 3910              		.loc 1 1019 0
 3911 0ff2 154B     		ldr	r3, .L622
 3912 0ff4 DB78     		ldrb	r3, [r3, #3]	@ zero_extendqisi2
 3913 0ff6 DBB2     		uxtb	r3, r3
 3914 0ff8 0A2B     		cmp	r3, #10
 3915 0ffa 0CD1     		bne	.L248
1020:.\main.c      ****                         Buffer_LCD1.password[teclas1]=0x30;
 3916              		.loc 1 1020 0
 3917 0ffc 144C     		ldr	r4, .L622+8
 3918 0ffe 2278     		ldrb	r2, [r4]	@ zero_extendqisi2
 3919 1000 144B     		ldr	r3, .L622+12
 3920 1002 1344     		add	r3, r3, r2
 3921 1004 3021     		movs	r1, #48
 3922 1006 83F88E10 		strb	r1, [r3, #142]
1021:.\main.c      ****                         write_LCD(1,0x30,teclas1);
 3923              		.loc 1 1021 0
 3924 100a 0120     		movs	r0, #1
 3925 100c FFF7FEFF 		bl	write_LCD
 3926              	.LVL269:
1022:.\main.c      ****                         teclas1++;						
 3927              		.loc 1 1022 0
 3928 1010 2378     		ldrb	r3, [r4]	@ zero_extendqisi2
 3929 1012 0133     		adds	r3, r3, #1
 3930 1014 2370     		strb	r3, [r4]
 3931              	.L248:
1023:.\main.c      ****                     }                     
1024:.\main.c      ****                 }
1025:.\main.c      ****                 if(LCD_1_rxBuffer[3]==0x0B){					//Cancel
 3932              		.loc 1 1025 0
 3933 1016 0C4B     		ldr	r3, .L622
 3934 1018 DB78     		ldrb	r3, [r3, #3]	@ zero_extendqisi2
 3935 101a DBB2     		uxtb	r3, r3
 3936 101c 0B2B     		cmp	r3, #11
 3937 101e 2BD1     		bne	.L250
1026:.\main.c      ****                     if(teclas1==0){								//Si no ha presionado regresa al inicio
 3938              		.loc 1 1026 0
 3939 1020 0B4B     		ldr	r3, .L622+8
 3940 1022 1B78     		ldrb	r3, [r3]	@ zero_extendqisi2
 3941 1024 03BB     		cbnz	r3, .L251
1027:.\main.c      **** 						set_imagen(1,85);               //Error de operacion
 3942              		.loc 1 1027 0
 3943 1026 0120     		movs	r0, #1
 3944 1028 5521     		movs	r1, #85
 3945 102a FFF7FEFF 		bl	set_imagen
 3946              	.LVL270:
1028:.\main.c      ****                         CyDelay(500);
 3947              		.loc 1 1028 0
ARM GAS  C:\Users\IN-002~1\AppData\Local\Temp\ccN5KMQc.s 			page 89


 3948 102e 4FF4FA70 		mov	r0, #500
 3949 1032 FFF7FEFF 		bl	CyDelay
 3950              	.LVL271:
1029:.\main.c      ****                         set_imagen(1,46);
 3951              		.loc 1 1029 0
 3952 1036 0120     		movs	r0, #1
 3953 1038 2E21     		movs	r1, #46
 3954 103a FFF7FEFF 		bl	set_imagen
 3955              	.LVL272:
1030:.\main.c      ****                         flujo_LCD = 0;
 3956              		.loc 1 1030 0
 3957 103e 0022     		movs	r2, #0
 3958 1040 024B     		ldr	r3, .L622+4
 3959 1042 1A70     		strb	r2, [r3]
 3960 1044 18E0     		b	.L250
 3961              	.L623:
 3962 1046 00BF     		.align	2
 3963              	.L622:
 3964 1048 00000000 		.word	LCD_1_rxBuffer
 3965 104c 00000000 		.word	flujo_LCD
 3966 1050 00000000 		.word	teclas1
 3967 1054 00000000 		.word	Buffer_LCD1
 3968 1058 00000000 		.word	y
 3969 105c 00000000 		.word	x
 3970 1060 00000000 		.word	rventa
 3971 1064 00000000 		.word	.LANCHOR0
 3972              	.L251:
1031:.\main.c      ****                     }
1032:.\main.c      ****                     else{
1033:.\main.c      ****                         teclas1--;						
 3973              		.loc 1 1033 0
 3974 1068 013B     		subs	r3, r3, #1
 3975 106a DAB2     		uxtb	r2, r3
 3976 106c AC4B     		ldr	r3, .L624
 3977 106e 1A70     		strb	r2, [r3]
1034:.\main.c      ****                         write_LCD(1,0x20,(teclas1));			//Si ya presiono borra el dato	
 3978              		.loc 1 1034 0
 3979 1070 0120     		movs	r0, #1
 3980 1072 2021     		movs	r1, #32
 3981 1074 FFF7FEFF 		bl	write_LCD
 3982              	.LVL273:
 3983              	.L250:
1035:.\main.c      ****                     }
1036:.\main.c      ****                 }
1037:.\main.c      ****                 if(LCD_1_rxBuffer[3]==0x0C){					//Si presiona enter revisa que el password coinsid
 3984              		.loc 1 1037 0
 3985 1078 AA4B     		ldr	r3, .L624+4
 3986 107a DB78     		ldrb	r3, [r3, #3]	@ zero_extendqisi2
 3987 107c DBB2     		uxtb	r3, r3
 3988 107e 0C2B     		cmp	r3, #12
 3989 1080 43D1     		bne	.L246
1038:.\main.c      **** 					if(teclas1>=6){
 3990              		.loc 1 1038 0
 3991 1082 A74B     		ldr	r3, .L624
 3992 1084 1B78     		ldrb	r3, [r3]	@ zero_extendqisi2
 3993 1086 052B     		cmp	r3, #5
 3994 1088 3FD9     		bls	.L246
ARM GAS  C:\Users\IN-002~1\AppData\Local\Temp\ccN5KMQc.s 			page 90


1039:.\main.c      **** 						set_imagen(1,57);		                    						
 3995              		.loc 1 1039 0
 3996 108a 0120     		movs	r0, #1
 3997 108c 3921     		movs	r1, #57
 3998 108e FFF7FEFF 		bl	set_imagen
 3999              	.LVL274:
1040:.\main.c      **** 						rventa.password[0]=teclas1;
 4000              		.loc 1 1040 0
 4001 1092 A34B     		ldr	r3, .L624
 4002 1094 1978     		ldrb	r1, [r3]	@ zero_extendqisi2
 4003 1096 A44B     		ldr	r3, .L624+8
 4004 1098 83F8D710 		strb	r1, [r3, #215]
1041:.\main.c      **** 						for(x=0;x<teclas1;x++){
 4005              		.loc 1 1041 0
 4006 109c 0022     		movs	r2, #0
 4007 109e A34B     		ldr	r3, .L624+12
 4008 10a0 1A60     		str	r2, [r3]
 4009 10a2 0BE0     		b	.L252
 4010              	.L253:
1042:.\main.c      **** 							rventa.password[x+1]=(Buffer_LCD1.password[x]-0x30);
 4011              		.loc 1 1042 0 discriminator 3
 4012 10a4 581C     		adds	r0, r3, #1
 4013 10a6 A24A     		ldr	r2, .L624+16
 4014 10a8 1344     		add	r3, r3, r2
 4015 10aa 93F88E20 		ldrb	r2, [r3, #142]	@ zero_extendqisi2
 4016 10ae 9E4B     		ldr	r3, .L624+8
 4017 10b0 0344     		add	r3, r3, r0
 4018 10b2 303A     		subs	r2, r2, #48
 4019 10b4 83F8D720 		strb	r2, [r3, #215]
1041:.\main.c      **** 						for(x=0;x<teclas1;x++){
 4020              		.loc 1 1041 0 discriminator 3
 4021 10b8 9C4B     		ldr	r3, .L624+12
 4022 10ba 1860     		str	r0, [r3]
 4023              	.L252:
1041:.\main.c      **** 						for(x=0;x<teclas1;x++){
 4024              		.loc 1 1041 0 is_stmt 0 discriminator 1
 4025 10bc 9B4B     		ldr	r3, .L624+12
 4026 10be 1B68     		ldr	r3, [r3]
 4027 10c0 9942     		cmp	r1, r3
 4028 10c2 EFD8     		bhi	.L253
1043:.\main.c      **** 						}
1044:.\main.c      **** 						if(write_eeprom(96,rventa.password)==0){							//Guarda el nombre en la eeprom
 4029              		.loc 1 1044 0 is_stmt 1
 4030 10c4 6020     		movs	r0, #96
 4031 10c6 9B49     		ldr	r1, .L624+20
 4032 10c8 FFF7FEFF 		bl	write_eeprom
 4033              	.LVL275:
 4034 10cc 70B9     		cbnz	r0, .L254
1045:.\main.c      **** 							set_imagen(1,85);               //Error de operacion
 4035              		.loc 1 1045 0
 4036 10ce 0120     		movs	r0, #1
 4037 10d0 5521     		movs	r1, #85
 4038 10d2 FFF7FEFF 		bl	set_imagen
 4039              	.LVL276:
1046:.\main.c      ****                             CyDelay(500);
 4040              		.loc 1 1046 0
 4041 10d6 4FF4FA70 		mov	r0, #500
ARM GAS  C:\Users\IN-002~1\AppData\Local\Temp\ccN5KMQc.s 			page 91


 4042 10da FFF7FEFF 		bl	CyDelay
 4043              	.LVL277:
1047:.\main.c      ****                             set_imagen(1,46);
 4044              		.loc 1 1047 0
 4045 10de 0120     		movs	r0, #1
 4046 10e0 2E21     		movs	r1, #46
 4047 10e2 FFF7FEFF 		bl	set_imagen
 4048              	.LVL278:
1048:.\main.c      ****                             flujo_LCD = 0;
 4049              		.loc 1 1048 0
 4050 10e6 0022     		movs	r2, #0
 4051 10e8 934B     		ldr	r3, .L624+24
 4052 10ea 1A70     		strb	r2, [r3]
 4053              	.L254:
1049:.\main.c      **** 						}
1050:.\main.c      ****                         set_imagen(1,38);
 4054              		.loc 1 1050 0
 4055 10ec 0120     		movs	r0, #1
 4056 10ee 2621     		movs	r1, #38
 4057 10f0 FFF7FEFF 		bl	set_imagen
 4058              	.LVL279:
1051:.\main.c      ****                         CyDelay(500);
 4059              		.loc 1 1051 0
 4060 10f4 4FF4FA70 		mov	r0, #500
 4061 10f8 FFF7FEFF 		bl	CyDelay
 4062              	.LVL280:
1052:.\main.c      ****                         set_imagen(1,46);
 4063              		.loc 1 1052 0
 4064 10fc 0120     		movs	r0, #1
 4065 10fe 2E21     		movs	r1, #46
 4066 1100 FFF7FEFF 		bl	set_imagen
 4067              	.LVL281:
1053:.\main.c      ****                         flujo_LCD=0;
 4068              		.loc 1 1053 0
 4069 1104 0022     		movs	r2, #0
 4070 1106 8C4B     		ldr	r3, .L624+24
 4071 1108 1A70     		strb	r2, [r3]
 4072              	.L246:
1054:.\main.c      ****                     }
1055:.\main.c      ****                 }
1056:.\main.c      ****             }
1057:.\main.c      ****             CyDelay(100);            
 4073              		.loc 1 1057 0
 4074 110a 6420     		movs	r0, #100
 4075 110c FFF7FEFF 		bl	CyDelay
 4076              	.LVL282:
1058:.\main.c      ****             LCD_1_ClearRxBuffer();
 4077              		.loc 1 1058 0
 4078 1110 FFF7FEFF 		bl	LCD_1_ClearRxBuffer
 4079              	.LVL283:
 4080 1114 38BD     		pop	{r3, r4, r5, pc}
 4081              	.L112:
1059:.\main.c      ****          }   
1060:.\main.c      ****         break;
1061:.\main.c      ****         
1062:.\main.c      ****         case 16:   
1063:.\main.c      ****          if(LCD_1_GetRxBufferSize()==8){
ARM GAS  C:\Users\IN-002~1\AppData\Local\Temp\ccN5KMQc.s 			page 92


 4082              		.loc 1 1063 0
 4083 1116 FFF7FEFF 		bl	LCD_1_GetRxBufferSize
 4084              	.LVL284:
 4085 111a 0828     		cmp	r0, #8
 4086 111c 42F0C686 		bne	.L95
1064:.\main.c      ****             if((LCD_1_rxBuffer[0]==0xAA) && (LCD_1_rxBuffer[6]==0xC3) && (LCD_1_rxBuffer[7]==0x3C))
 4087              		.loc 1 1064 0
 4088 1120 804B     		ldr	r3, .L624+4
 4089 1122 1B78     		ldrb	r3, [r3]	@ zero_extendqisi2
 4090 1124 DBB2     		uxtb	r3, r3
 4091 1126 AA2B     		cmp	r3, #170
 4092 1128 4AD1     		bne	.L255
 4093              		.loc 1 1064 0 is_stmt 0 discriminator 1
 4094 112a 7E4B     		ldr	r3, .L624+4
 4095 112c 9B79     		ldrb	r3, [r3, #6]	@ zero_extendqisi2
 4096 112e DBB2     		uxtb	r3, r3
 4097 1130 C32B     		cmp	r3, #195
 4098 1132 45D1     		bne	.L255
 4099              		.loc 1 1064 0 discriminator 2
 4100 1134 7B4B     		ldr	r3, .L624+4
 4101 1136 DB79     		ldrb	r3, [r3, #7]	@ zero_extendqisi2
 4102 1138 DBB2     		uxtb	r3, r3
 4103 113a 3C2B     		cmp	r3, #60
 4104 113c 40D1     		bne	.L255
1065:.\main.c      ****                 switch(LCD_1_rxBuffer[3]){
 4105              		.loc 1 1065 0 is_stmt 1
 4106 113e 794B     		ldr	r3, .L624+4
 4107 1140 DB78     		ldrb	r3, [r3, #3]	@ zero_extendqisi2
 4108 1142 DBB2     		uxtb	r3, r3
 4109 1144 3F2B     		cmp	r3, #63
 4110 1146 08D0     		beq	.L256
 4111 1148 02D8     		bhi	.L257
 4112 114a 3E2B     		cmp	r3, #62
 4113 114c 1CD0     		beq	.L258
 4114 114e 37E0     		b	.L255
 4115              	.L257:
 4116 1150 7E2B     		cmp	r3, #126
 4117 1152 26D0     		beq	.L259
 4118 1154 942B     		cmp	r3, #148
 4119 1156 2CD0     		beq	.L260
 4120 1158 32E0     		b	.L255
 4121              	.L256:
1066:.\main.c      **** 					case 0x3F:								//Hora
1067:.\main.c      ****                         set_imagen(1,64);
 4122              		.loc 1 1067 0
 4123 115a 0120     		movs	r0, #1
 4124 115c 4021     		movs	r1, #64
 4125 115e FFF7FEFF 		bl	set_imagen
 4126              	.LVL285:
1068:.\main.c      **** 						teclas1=0;
 4127              		.loc 1 1068 0
 4128 1162 0023     		movs	r3, #0
 4129 1164 6E4A     		ldr	r2, .L624
 4130 1166 1370     		strb	r3, [r2]
1069:.\main.c      **** 						comas1=0;												
 4131              		.loc 1 1069 0
 4132 1168 744A     		ldr	r2, .L624+28
ARM GAS  C:\Users\IN-002~1\AppData\Local\Temp\ccN5KMQc.s 			page 93


 4133 116a 1370     		strb	r3, [r2]
1070:.\main.c      **** 						write_LCD(1,'a',6);						
 4134              		.loc 1 1070 0
 4135 116c 0120     		movs	r0, #1
 4136 116e 6121     		movs	r1, #97
 4137 1170 0622     		movs	r2, #6
 4138 1172 FFF7FEFF 		bl	write_LCD
 4139              	.LVL286:
1071:.\main.c      **** 						write_LCD(1,'m',7);
 4140              		.loc 1 1071 0
 4141 1176 0120     		movs	r0, #1
 4142 1178 6D21     		movs	r1, #109
 4143 117a 0722     		movs	r2, #7
 4144 117c FFF7FEFF 		bl	write_LCD
 4145              	.LVL287:
1072:.\main.c      ****                         flujo_LCD = 21;
 4146              		.loc 1 1072 0
 4147 1180 1522     		movs	r2, #21
 4148 1182 6D4B     		ldr	r3, .L624+24
 4149 1184 1A70     		strb	r2, [r3]
1073:.\main.c      **** 					break;
 4150              		.loc 1 1073 0
 4151 1186 1BE0     		b	.L255
 4152              	.L258:
1074:.\main.c      **** 					
1075:.\main.c      **** 					case 0x3E:								//Fecha
1076:.\main.c      **** 						set_imagen(1,63);
 4153              		.loc 1 1076 0
 4154 1188 0120     		movs	r0, #1
 4155 118a 3F21     		movs	r1, #63
 4156 118c FFF7FEFF 		bl	set_imagen
 4157              	.LVL288:
1077:.\main.c      ****                         teclas1=0;
 4158              		.loc 1 1077 0
 4159 1190 0023     		movs	r3, #0
 4160 1192 634A     		ldr	r2, .L624
 4161 1194 1370     		strb	r3, [r2]
1078:.\main.c      **** 						comas1=0;
 4162              		.loc 1 1078 0
 4163 1196 694A     		ldr	r2, .L624+28
 4164 1198 1370     		strb	r3, [r2]
1079:.\main.c      **** 						flujo_LCD = 22;
 4165              		.loc 1 1079 0
 4166 119a 1622     		movs	r2, #22
 4167 119c 664B     		ldr	r3, .L624+24
 4168 119e 1A70     		strb	r2, [r3]
1080:.\main.c      **** 											
1081:.\main.c      **** 					break;
 4169              		.loc 1 1081 0
 4170 11a0 0EE0     		b	.L255
 4171              	.L259:
1082:.\main.c      **** 						
1083:.\main.c      ****                     case 0x7E:								//ir a menu
1084:.\main.c      **** 					  set_imagen(1,46);	
 4172              		.loc 1 1084 0
 4173 11a2 0120     		movs	r0, #1
 4174 11a4 2E21     		movs	r1, #46
ARM GAS  C:\Users\IN-002~1\AppData\Local\Temp\ccN5KMQc.s 			page 94


 4175 11a6 FFF7FEFF 		bl	set_imagen
 4176              	.LVL289:
1085:.\main.c      ****                       flujo_LCD = 0;     
 4177              		.loc 1 1085 0
 4178 11aa 0022     		movs	r2, #0
 4179 11ac 624B     		ldr	r3, .L624+24
 4180 11ae 1A70     		strb	r2, [r3]
1086:.\main.c      ****                     break;	
 4181              		.loc 1 1086 0
 4182 11b0 06E0     		b	.L255
 4183              	.L260:
1087:.\main.c      ****                     
1088:.\main.c      ****                     case 0x94:									//Volver a menu de opciones
1089:.\main.c      **** 					  set_imagen(1,112);
 4184              		.loc 1 1089 0
 4185 11b2 0120     		movs	r0, #1
 4186 11b4 7021     		movs	r1, #112
 4187 11b6 FFF7FEFF 		bl	set_imagen
 4188              	.LVL290:
1090:.\main.c      ****                       flujo_LCD = 14;     
 4189              		.loc 1 1090 0
 4190 11ba 0E22     		movs	r2, #14
 4191 11bc 5E4B     		ldr	r3, .L624+24
 4192 11be 1A70     		strb	r2, [r3]
 4193              	.L255:
1091:.\main.c      ****                     break;
1092:.\main.c      ****                 }
1093:.\main.c      ****             }
1094:.\main.c      ****             CyDelay(100);            
 4194              		.loc 1 1094 0
 4195 11c0 6420     		movs	r0, #100
 4196 11c2 FFF7FEFF 		bl	CyDelay
 4197              	.LVL291:
1095:.\main.c      ****             LCD_1_ClearRxBuffer();
 4198              		.loc 1 1095 0
 4199 11c6 FFF7FEFF 		bl	LCD_1_ClearRxBuffer
 4200              	.LVL292:
 4201 11ca 38BD     		pop	{r3, r4, r5, pc}
 4202              	.L114:
1096:.\main.c      ****          } 
1097:.\main.c      ****         break;
1098:.\main.c      ****         
1099:.\main.c      ****         case 18:
1100:.\main.c      ****          if(LCD_1_GetRxBufferSize()==8){
 4203              		.loc 1 1100 0
 4204 11cc FFF7FEFF 		bl	LCD_1_GetRxBufferSize
 4205              	.LVL293:
 4206 11d0 0828     		cmp	r0, #8
 4207 11d2 42F06B86 		bne	.L95
1101:.\main.c      ****             if((LCD_1_rxBuffer[0]==0xAA) && (LCD_1_rxBuffer[6]==0xC3) && (LCD_1_rxBuffer[7]==0x3C))
 4208              		.loc 1 1101 0
 4209 11d6 534B     		ldr	r3, .L624+4
 4210 11d8 1B78     		ldrb	r3, [r3]	@ zero_extendqisi2
 4211 11da DBB2     		uxtb	r3, r3
 4212 11dc AA2B     		cmp	r3, #170
 4213 11de 40F09980 		bne	.L261
 4214              		.loc 1 1101 0 is_stmt 0 discriminator 1
ARM GAS  C:\Users\IN-002~1\AppData\Local\Temp\ccN5KMQc.s 			page 95


 4215 11e2 504B     		ldr	r3, .L624+4
 4216 11e4 9B79     		ldrb	r3, [r3, #6]	@ zero_extendqisi2
 4217 11e6 DBB2     		uxtb	r3, r3
 4218 11e8 C32B     		cmp	r3, #195
 4219 11ea 40F09380 		bne	.L261
 4220              		.loc 1 1101 0 discriminator 2
 4221 11ee 4D4B     		ldr	r3, .L624+4
 4222 11f0 DB79     		ldrb	r3, [r3, #7]	@ zero_extendqisi2
 4223 11f2 DBB2     		uxtb	r3, r3
 4224 11f4 3C2B     		cmp	r3, #60
 4225 11f6 40F08D80 		bne	.L261
1102:.\main.c      ****                 switch(LCD_1_rxBuffer[3]){
 4226              		.loc 1 1102 0 is_stmt 1
 4227 11fa 4A4B     		ldr	r3, .L624+4
 4228 11fc DB78     		ldrb	r3, [r3, #3]	@ zero_extendqisi2
 4229 11fe DBB2     		uxtb	r3, r3
 4230 1200 7E2B     		cmp	r3, #126
 4231 1202 78D0     		beq	.L262
 4232 1204 0AD8     		bhi	.L263
 4233 1206 772B     		cmp	r3, #119
 4234 1208 42D0     		beq	.L264
 4235 120a 02D8     		bhi	.L265
 4236 120c 762B     		cmp	r3, #118
 4237 120e 10D0     		beq	.L266
 4238 1210 80E0     		b	.L261
 4239              	.L265:
 4240 1212 782B     		cmp	r3, #120
 4241 1214 4CD0     		beq	.L267
 4242 1216 7A2B     		cmp	r3, #122
 4243 1218 58D0     		beq	.L268
 4244 121a 7BE0     		b	.L261
 4245              	.L263:
 4246 121c 832B     		cmp	r3, #131
 4247 121e 27D0     		beq	.L269
 4248 1220 02D8     		bhi	.L270
 4249 1222 822B     		cmp	r3, #130
 4250 1224 14D0     		beq	.L271
 4251 1226 75E0     		b	.L261
 4252              	.L270:
 4253 1228 942B     		cmp	r3, #148
 4254 122a 6CD0     		beq	.L272
 4255 122c 952B     		cmp	r3, #149
 4256 122e 5AD0     		beq	.L273
 4257 1230 70E0     		b	.L261
 4258              	.L266:
1103:.\main.c      ****                     case 0x76:								 	 //Cambiar Nombre	             
1104:.\main.c      ****                       set_imagen(1,48);
 4259              		.loc 1 1104 0
 4260 1232 0120     		movs	r0, #1
 4261 1234 3021     		movs	r1, #48
 4262 1236 FFF7FEFF 		bl	set_imagen
 4263              	.LVL294:
1105:.\main.c      **** 					  teclado=0;
 4264              		.loc 1 1105 0
 4265 123a 0023     		movs	r3, #0
 4266 123c 404A     		ldr	r2, .L624+32
 4267 123e 1370     		strb	r3, [r2]
ARM GAS  C:\Users\IN-002~1\AppData\Local\Temp\ccN5KMQc.s 			page 96


1106:.\main.c      ****                       teclas1=0;                            	 //Inicia el contador de teclas 
 4268              		.loc 1 1106 0
 4269 1240 374A     		ldr	r2, .L624
 4270 1242 1370     		strb	r3, [r2]
1107:.\main.c      ****                       nombreproducto = 0;
 4271              		.loc 1 1107 0
 4272 1244 3F4A     		ldr	r2, .L624+36
 4273 1246 1370     		strb	r3, [r2]
1108:.\main.c      ****                       flujo_LCD = 24;
 4274              		.loc 1 1108 0
 4275 1248 1822     		movs	r2, #24
 4276 124a 3B4B     		ldr	r3, .L624+24
 4277 124c 1A70     		strb	r2, [r3]
1109:.\main.c      ****                     break;
 4278              		.loc 1 1109 0
 4279 124e 61E0     		b	.L261
 4280              	.L271:
1110:.\main.c      **** 					
1111:.\main.c      ****                     case 0x82:								 	 //Cambiar Lema1	
1112:.\main.c      ****                       set_imagen(1,121);                       
 4281              		.loc 1 1112 0
 4282 1250 0120     		movs	r0, #1
 4283 1252 7921     		movs	r1, #121
 4284 1254 FFF7FEFF 		bl	set_imagen
 4285              	.LVL295:
1113:.\main.c      **** 					  teclado=2;
 4286              		.loc 1 1113 0
 4287 1258 0222     		movs	r2, #2
 4288 125a 394B     		ldr	r3, .L624+32
 4289 125c 1A70     		strb	r2, [r3]
1114:.\main.c      ****                       teclas1=0;                            	 //Inicia el contador de teclas  
 4290              		.loc 1 1114 0
 4291 125e 0023     		movs	r3, #0
 4292 1260 2F4A     		ldr	r2, .L624
 4293 1262 1370     		strb	r3, [r2]
1115:.\main.c      ****                       nombreproducto = 0;
 4294              		.loc 1 1115 0
 4295 1264 374A     		ldr	r2, .L624+36
 4296 1266 1370     		strb	r3, [r2]
1116:.\main.c      ****                       flujo_LCD = 24;  					
 4297              		.loc 1 1116 0
 4298 1268 1822     		movs	r2, #24
 4299 126a 334B     		ldr	r3, .L624+24
 4300 126c 1A70     		strb	r2, [r3]
1117:.\main.c      ****                     break;
 4301              		.loc 1 1117 0
 4302 126e 51E0     		b	.L261
 4303              	.L269:
1118:.\main.c      **** 					
1119:.\main.c      ****                     case 0x83:								 	 //Cambiar Lema2	             
1120:.\main.c      ****                       set_imagen(1,122);
 4304              		.loc 1 1120 0
 4305 1270 0120     		movs	r0, #1
 4306 1272 7A21     		movs	r1, #122
 4307 1274 FFF7FEFF 		bl	set_imagen
 4308              	.LVL296:
1121:.\main.c      **** 					  teclado=3;
ARM GAS  C:\Users\IN-002~1\AppData\Local\Temp\ccN5KMQc.s 			page 97


 4309              		.loc 1 1121 0
 4310 1278 0322     		movs	r2, #3
 4311 127a 314B     		ldr	r3, .L624+32
 4312 127c 1A70     		strb	r2, [r3]
1122:.\main.c      ****                       teclas1=0;                            	 //Inicia el contador de teclas 
 4313              		.loc 1 1122 0
 4314 127e 0023     		movs	r3, #0
 4315 1280 274A     		ldr	r2, .L624
 4316 1282 1370     		strb	r3, [r2]
1123:.\main.c      ****                       nombreproducto = 0;
 4317              		.loc 1 1123 0
 4318 1284 2F4A     		ldr	r2, .L624+36
 4319 1286 1370     		strb	r3, [r2]
1124:.\main.c      ****                       flujo_LCD = 24;
 4320              		.loc 1 1124 0
 4321 1288 1822     		movs	r2, #24
 4322 128a 2B4B     		ldr	r3, .L624+24
 4323 128c 1A70     		strb	r2, [r3]
1125:.\main.c      ****                     break;					
 4324              		.loc 1 1125 0
 4325 128e 41E0     		b	.L261
 4326              	.L264:
1126:.\main.c      ****                     
1127:.\main.c      ****                     case 0x77:  								//Cambiar Direccion                      
1128:.\main.c      **** 					  set_imagen(1,120);
 4327              		.loc 1 1128 0
 4328 1290 0120     		movs	r0, #1
 4329 1292 7821     		movs	r1, #120
 4330 1294 FFF7FEFF 		bl	set_imagen
 4331              	.LVL297:
1129:.\main.c      ****                       teclado=1;                      
 4332              		.loc 1 1129 0
 4333 1298 0122     		movs	r2, #1
 4334 129a 294B     		ldr	r3, .L624+32
 4335 129c 1A70     		strb	r2, [r3]
1130:.\main.c      ****                       teclas1=0;                            	 //Inicia el contador de teclas 
 4336              		.loc 1 1130 0
 4337 129e 0023     		movs	r3, #0
 4338 12a0 1F4A     		ldr	r2, .L624
 4339 12a2 1370     		strb	r3, [r2]
1131:.\main.c      ****                       nombreproducto = 0;
 4340              		.loc 1 1131 0
 4341 12a4 274A     		ldr	r2, .L624+36
 4342 12a6 1370     		strb	r3, [r2]
1132:.\main.c      ****                       flujo_LCD = 24;
 4343              		.loc 1 1132 0
 4344 12a8 1822     		movs	r2, #24
 4345 12aa 234B     		ldr	r3, .L624+24
 4346 12ac 1A70     		strb	r2, [r3]
1133:.\main.c      ****                     break;
 4347              		.loc 1 1133 0
 4348 12ae 31E0     		b	.L261
 4349              	.L267:
1134:.\main.c      ****                     
1135:.\main.c      ****                     case 0x78:  								//Cambiar telefono
1136:.\main.c      ****                       set_imagen(1,101);
 4350              		.loc 1 1136 0
ARM GAS  C:\Users\IN-002~1\AppData\Local\Temp\ccN5KMQc.s 			page 98


 4351 12b0 0120     		movs	r0, #1
 4352 12b2 6521     		movs	r1, #101
 4353 12b4 FFF7FEFF 		bl	set_imagen
 4354              	.LVL298:
1137:.\main.c      **** 					  teclado=1;                      
 4355              		.loc 1 1137 0
 4356 12b8 0122     		movs	r2, #1
 4357 12ba 214B     		ldr	r3, .L624+32
 4358 12bc 1A70     		strb	r2, [r3]
1138:.\main.c      ****                       teclas1=0;                            	 //Inicia el contador de teclas
 4359              		.loc 1 1138 0
 4360 12be 0022     		movs	r2, #0
 4361 12c0 174B     		ldr	r3, .L624
 4362 12c2 1A70     		strb	r2, [r3]
1139:.\main.c      ****                       flujo_LCD = 23;	
 4363              		.loc 1 1139 0
 4364 12c4 1722     		movs	r2, #23
 4365 12c6 1C4B     		ldr	r3, .L624+24
 4366 12c8 1A70     		strb	r2, [r3]
1140:.\main.c      ****                     break;
 4367              		.loc 1 1140 0
 4368 12ca 23E0     		b	.L261
 4369              	.L268:
1141:.\main.c      ****                     
1142:.\main.c      ****                     case 0x7A:                         			//Cambiar NIT                     
1143:.\main.c      ****                       set_imagen(1,50);
 4370              		.loc 1 1143 0
 4371 12cc 0120     		movs	r0, #1
 4372 12ce 3221     		movs	r1, #50
 4373 12d0 FFF7FEFF 		bl	set_imagen
 4374              	.LVL299:
1144:.\main.c      **** 					  teclado=0;					 
 4375              		.loc 1 1144 0
 4376 12d4 0023     		movs	r3, #0
 4377 12d6 1A4A     		ldr	r2, .L624+32
 4378 12d8 1370     		strb	r3, [r2]
1145:.\main.c      ****                       teclas1=0;                            	 //Inicia el contador de teclas
 4379              		.loc 1 1145 0
 4380 12da 114A     		ldr	r2, .L624
 4381 12dc 1370     		strb	r3, [r2]
1146:.\main.c      ****                       flujo_LCD = 23;
 4382              		.loc 1 1146 0
 4383 12de 1722     		movs	r2, #23
 4384 12e0 154B     		ldr	r3, .L624+24
 4385 12e2 1A70     		strb	r2, [r3]
1147:.\main.c      ****                     break;   
 4386              		.loc 1 1147 0
 4387 12e4 16E0     		b	.L261
 4388              	.L273:
1148:.\main.c      **** 
1149:.\main.c      ****                     case 0x95:                         			//Cambiar Bandera 	
1150:.\main.c      ****                         set_imagen(1,102);
 4389              		.loc 1 1150 0
 4390 12e6 0120     		movs	r0, #1
 4391 12e8 6621     		movs	r1, #102
 4392 12ea FFF7FEFF 		bl	set_imagen
 4393              	.LVL300:
ARM GAS  C:\Users\IN-002~1\AppData\Local\Temp\ccN5KMQc.s 			page 99


1151:.\main.c      **** 	                    flujo_LCD = 32;
 4394              		.loc 1 1151 0
 4395 12ee 2022     		movs	r2, #32
 4396 12f0 114B     		ldr	r3, .L624+24
 4397 12f2 1A70     		strb	r2, [r3]
1152:.\main.c      **** 						
1153:.\main.c      ****                     break; 
 4398              		.loc 1 1153 0
 4399 12f4 0EE0     		b	.L261
 4400              	.L262:
1154:.\main.c      **** 					
1155:.\main.c      ****                     case 0x7E:						//ir a menu
1156:.\main.c      **** 					  set_imagen(1,46);            //Volver a otras opciones Maicol
 4401              		.loc 1 1156 0
 4402 12f6 0120     		movs	r0, #1
 4403 12f8 2E21     		movs	r1, #46
 4404 12fa FFF7FEFF 		bl	set_imagen
 4405              	.LVL301:
1157:.\main.c      ****                       flujo_LCD = 0;     
 4406              		.loc 1 1157 0
 4407 12fe 0022     		movs	r2, #0
 4408 1300 0D4B     		ldr	r3, .L624+24
 4409 1302 1A70     		strb	r2, [r3]
1158:.\main.c      ****                     break;
 4410              		.loc 1 1158 0
 4411 1304 06E0     		b	.L261
 4412              	.L272:
1159:.\main.c      ****                     
1160:.\main.c      ****                     case 0x94:						//ir a menu
1161:.\main.c      **** 					  set_imagen(1,112);            //Volver a otras opciones Maicol
 4413              		.loc 1 1161 0
 4414 1306 0120     		movs	r0, #1
 4415 1308 7021     		movs	r1, #112
 4416 130a FFF7FEFF 		bl	set_imagen
 4417              	.LVL302:
1162:.\main.c      ****                       flujo_LCD = 14;     
 4418              		.loc 1 1162 0
 4419 130e 0E22     		movs	r2, #14
 4420 1310 094B     		ldr	r3, .L624+24
 4421 1312 1A70     		strb	r2, [r3]
 4422              	.L261:
1163:.\main.c      ****                     break;
1164:.\main.c      ****                 }					
1165:.\main.c      ****             }
1166:.\main.c      ****             CyDelay(100);            
 4423              		.loc 1 1166 0
 4424 1314 6420     		movs	r0, #100
 4425 1316 FFF7FEFF 		bl	CyDelay
 4426              	.LVL303:
1167:.\main.c      ****             LCD_1_ClearRxBuffer();
 4427              		.loc 1 1167 0
 4428 131a FFF7FEFF 		bl	LCD_1_ClearRxBuffer
 4429              	.LVL304:
 4430 131e 38BD     		pop	{r3, r4, r5, pc}
 4431              	.L625:
 4432              		.align	2
 4433              	.L624:
ARM GAS  C:\Users\IN-002~1\AppData\Local\Temp\ccN5KMQc.s 			page 100


 4434 1320 00000000 		.word	teclas1
 4435 1324 00000000 		.word	LCD_1_rxBuffer
 4436 1328 00000000 		.word	rventa
 4437 132c 00000000 		.word	x
 4438 1330 00000000 		.word	Buffer_LCD1
 4439 1334 D7000000 		.word	rventa+215
 4440 1338 00000000 		.word	flujo_LCD
 4441 133c 00000000 		.word	comas1
 4442 1340 00000000 		.word	teclado
 4443 1344 00000000 		.word	nombreproducto
 4444              	.L115:
1168:.\main.c      ****          }	
1169:.\main.c      ****         break;
1170:.\main.c      ****         
1171:.\main.c      ****         case 19:
1172:.\main.c      ****         if(LCD_1_GetRxBufferSize()==8){
 4445              		.loc 1 1172 0
 4446 1348 FFF7FEFF 		bl	LCD_1_GetRxBufferSize
 4447              	.LVL305:
 4448 134c 0828     		cmp	r0, #8
 4449 134e 42F0AD85 		bne	.L95
1173:.\main.c      ****             if((LCD_1_rxBuffer[0]==0xAA) && (LCD_1_rxBuffer[6]==0xC3) && (LCD_1_rxBuffer[7]==0x3C))
 4450              		.loc 1 1173 0
 4451 1352 B24B     		ldr	r3, .L626
 4452 1354 1B78     		ldrb	r3, [r3]	@ zero_extendqisi2
 4453 1356 DBB2     		uxtb	r3, r3
 4454 1358 AA2B     		cmp	r3, #170
 4455 135a 79D1     		bne	.L274
 4456              		.loc 1 1173 0 is_stmt 0 discriminator 1
 4457 135c AF4B     		ldr	r3, .L626
 4458 135e 9B79     		ldrb	r3, [r3, #6]	@ zero_extendqisi2
 4459 1360 DBB2     		uxtb	r3, r3
 4460 1362 C32B     		cmp	r3, #195
 4461 1364 74D1     		bne	.L274
 4462              		.loc 1 1173 0 discriminator 2
 4463 1366 AD4B     		ldr	r3, .L626
 4464 1368 DB79     		ldrb	r3, [r3, #7]	@ zero_extendqisi2
 4465 136a DBB2     		uxtb	r3, r3
 4466 136c 3C2B     		cmp	r3, #60
 4467 136e 6FD1     		bne	.L274
1174:.\main.c      ****                 switch(LCD_1_rxBuffer[3]){
 4468              		.loc 1 1174 0 is_stmt 1
 4469 1370 AA4B     		ldr	r3, .L626
 4470 1372 DB78     		ldrb	r3, [r3, #3]	@ zero_extendqisi2
 4471 1374 DBB2     		uxtb	r3, r3
 4472 1376 802B     		cmp	r3, #128
 4473 1378 1FD0     		beq	.L275
 4474 137a 04D8     		bhi	.L276
 4475 137c 7E2B     		cmp	r3, #126
 4476 137e 58D0     		beq	.L277
 4477 1380 7F2B     		cmp	r3, #127
 4478 1382 06D0     		beq	.L278
 4479 1384 64E0     		b	.L274
 4480              	.L276:
 4481 1386 822B     		cmp	r3, #130
 4482 1388 3FD0     		beq	.L279
 4483 138a 2AD3     		bcc	.L280
ARM GAS  C:\Users\IN-002~1\AppData\Local\Temp\ccN5KMQc.s 			page 101


 4484 138c 942B     		cmp	r3, #148
 4485 138e 58D0     		beq	.L281
 4486 1390 5EE0     		b	.L274
 4487              	.L278:
1175:.\main.c      ****                     case 0x7F:		
1176:.\main.c      ****                       set_imagen(1,6);   
 4488              		.loc 1 1176 0
 4489 1392 0120     		movs	r0, #1
 4490 1394 0621     		movs	r1, #6
 4491 1396 FFF7FEFF 		bl	set_imagen
 4492              	.LVL306:
1177:.\main.c      ****                       teclas1=0;                            	 //Inicia el contador de teclas 
 4493              		.loc 1 1177 0
 4494 139a 0022     		movs	r2, #0
 4495 139c A04B     		ldr	r3, .L626+4
 4496 139e 1A70     		strb	r2, [r3]
1178:.\main.c      **** 					  rventa.producto=producto1;	
 4497              		.loc 1 1178 0
 4498 13a0 A04B     		ldr	r3, .L626+8
 4499 13a2 1978     		ldrb	r1, [r3]	@ zero_extendqisi2
 4500 13a4 A04B     		ldr	r3, .L626+12
 4501 13a6 83F8A310 		strb	r1, [r3, #163]
1179:.\main.c      **** 					  write_LCD(1,'$',teclas1);							 	 //Producto 1	                               
 4502              		.loc 1 1179 0
 4503 13aa 0120     		movs	r0, #1
 4504 13ac 2421     		movs	r1, #36
 4505 13ae FFF7FEFF 		bl	write_LCD
 4506              	.LVL307:
1180:.\main.c      ****                       flujo_LCD = 26; 
 4507              		.loc 1 1180 0
 4508 13b2 1A22     		movs	r2, #26
 4509 13b4 9D4B     		ldr	r3, .L626+16
 4510 13b6 1A70     		strb	r2, [r3]
1181:.\main.c      ****                     break;
 4511              		.loc 1 1181 0
 4512 13b8 4AE0     		b	.L274
 4513              	.L275:
1182:.\main.c      ****                     
1183:.\main.c      ****                     case 0x80:  	
1184:.\main.c      ****                       set_imagen(1,6);		
 4514              		.loc 1 1184 0
 4515 13ba 0120     		movs	r0, #1
 4516 13bc 0621     		movs	r1, #6
 4517 13be FFF7FEFF 		bl	set_imagen
 4518              	.LVL308:
1185:.\main.c      ****                       teclas1=0;                            	 //Inicia el contador de teclas 
 4519              		.loc 1 1185 0
 4520 13c2 0022     		movs	r2, #0
 4521 13c4 964B     		ldr	r3, .L626+4
 4522 13c6 1A70     		strb	r2, [r3]
1186:.\main.c      **** 					  rventa.producto=producto2;
 4523              		.loc 1 1186 0
 4524 13c8 994B     		ldr	r3, .L626+20
 4525 13ca 1978     		ldrb	r1, [r3]	@ zero_extendqisi2
 4526 13cc 964B     		ldr	r3, .L626+12
 4527 13ce 83F8A310 		strb	r1, [r3, #163]
1187:.\main.c      **** 					  write_LCD(1,'$',teclas1);						 //Producto 2
ARM GAS  C:\Users\IN-002~1\AppData\Local\Temp\ccN5KMQc.s 			page 102


 4528              		.loc 1 1187 0
 4529 13d2 0120     		movs	r0, #1
 4530 13d4 2421     		movs	r1, #36
 4531 13d6 FFF7FEFF 		bl	write_LCD
 4532              	.LVL309:
1188:.\main.c      ****                       flujo_LCD = 26;              
 4533              		.loc 1 1188 0
 4534 13da 1A22     		movs	r2, #26
 4535 13dc 934B     		ldr	r3, .L626+16
 4536 13de 1A70     		strb	r2, [r3]
1189:.\main.c      ****                     break;
 4537              		.loc 1 1189 0
 4538 13e0 36E0     		b	.L274
 4539              	.L280:
1190:.\main.c      ****                     
1191:.\main.c      ****                     case 0x81:  
1192:.\main.c      ****                       set_imagen(1,6);			
 4540              		.loc 1 1192 0
 4541 13e2 0120     		movs	r0, #1
 4542 13e4 0621     		movs	r1, #6
 4543 13e6 FFF7FEFF 		bl	set_imagen
 4544              	.LVL310:
1193:.\main.c      ****                       teclas1=0;                            	//Inicia el contador de teclas 
 4545              		.loc 1 1193 0
 4546 13ea 0022     		movs	r2, #0
 4547 13ec 8C4B     		ldr	r3, .L626+4
 4548 13ee 1A70     		strb	r2, [r3]
1194:.\main.c      **** 					  rventa.producto=producto3;
 4549              		.loc 1 1194 0
 4550 13f0 904B     		ldr	r3, .L626+24
 4551 13f2 1978     		ldrb	r1, [r3]	@ zero_extendqisi2
 4552 13f4 8C4B     		ldr	r3, .L626+12
 4553 13f6 83F8A310 		strb	r1, [r3, #163]
1195:.\main.c      **** 					  write_LCD(1,'$',teclas1);						//Producto 3
 4554              		.loc 1 1195 0
 4555 13fa 0120     		movs	r0, #1
 4556 13fc 2421     		movs	r1, #36
 4557 13fe FFF7FEFF 		bl	write_LCD
 4558              	.LVL311:
1196:.\main.c      ****                       flujo_LCD = 26;	
 4559              		.loc 1 1196 0
 4560 1402 1A22     		movs	r2, #26
 4561 1404 894B     		ldr	r3, .L626+16
 4562 1406 1A70     		strb	r2, [r3]
1197:.\main.c      ****                     break;
 4563              		.loc 1 1197 0
 4564 1408 22E0     		b	.L274
 4565              	.L279:
1198:.\main.c      ****                     
1199:.\main.c      ****                     case 0x82:  	
1200:.\main.c      ****                       set_imagen(1,6); 			
 4566              		.loc 1 1200 0
 4567 140a 0120     		movs	r0, #1
 4568 140c 0621     		movs	r1, #6
 4569 140e FFF7FEFF 		bl	set_imagen
 4570              	.LVL312:
1201:.\main.c      ****                       teclas1=0;                            	//Inicia el contador de teclas 
ARM GAS  C:\Users\IN-002~1\AppData\Local\Temp\ccN5KMQc.s 			page 103


 4571              		.loc 1 1201 0
 4572 1412 0022     		movs	r2, #0
 4573 1414 824B     		ldr	r3, .L626+4
 4574 1416 1A70     		strb	r2, [r3]
1202:.\main.c      **** 					  rventa.producto=producto4;
 4575              		.loc 1 1202 0
 4576 1418 874B     		ldr	r3, .L626+28
 4577 141a 1978     		ldrb	r1, [r3]	@ zero_extendqisi2
 4578 141c 824B     		ldr	r3, .L626+12
 4579 141e 83F8A310 		strb	r1, [r3, #163]
1203:.\main.c      **** 					  write_LCD(1,'$',teclas1);					//Otro producto
 4580              		.loc 1 1203 0
 4581 1422 0120     		movs	r0, #1
 4582 1424 2421     		movs	r1, #36
 4583 1426 FFF7FEFF 		bl	write_LCD
 4584              	.LVL313:
1204:.\main.c      ****                       flujo_LCD=26;		
 4585              		.loc 1 1204 0
 4586 142a 1A22     		movs	r2, #26
 4587 142c 7F4B     		ldr	r3, .L626+16
 4588 142e 1A70     		strb	r2, [r3]
1205:.\main.c      ****                     break;
 4589              		.loc 1 1205 0
 4590 1430 0EE0     		b	.L274
 4591              	.L277:
1206:.\main.c      ****                    										
1207:.\main.c      ****                     case 0x7E:									//ir a menu
1208:.\main.c      **** 					  set_imagen(1,46);            //Otras Opciones
 4592              		.loc 1 1208 0
 4593 1432 0120     		movs	r0, #1
 4594 1434 2E21     		movs	r1, #46
 4595 1436 FFF7FEFF 		bl	set_imagen
 4596              	.LVL314:
1209:.\main.c      ****                       flujo_LCD = 0;     
 4597              		.loc 1 1209 0
 4598 143a 0022     		movs	r2, #0
 4599 143c 7B4B     		ldr	r3, .L626+16
 4600 143e 1A70     		strb	r2, [r3]
1210:.\main.c      ****                     break;
 4601              		.loc 1 1210 0
 4602 1440 06E0     		b	.L274
 4603              	.L281:
1211:.\main.c      ****                     
1212:.\main.c      ****                     case 0x94:
1213:.\main.c      ****                         set_imagen(1,112);
 4604              		.loc 1 1213 0
 4605 1442 0120     		movs	r0, #1
 4606 1444 7021     		movs	r1, #112
 4607 1446 FFF7FEFF 		bl	set_imagen
 4608              	.LVL315:
1214:.\main.c      ****                         flujo_LCD = 14;
