ARM GAS  C:\Users\diego\AppData\Local\Temp\ccvEcbYb.s 			page 1


   1              		.syntax unified
   2              		.cpu cortex-m3
   3              		.fpu softvfp
   4              		.eabi_attribute 20, 1
   5              		.eabi_attribute 21, 1
   6              		.eabi_attribute 23, 3
   7              		.eabi_attribute 24, 1
   8              		.eabi_attribute 25, 1
   9              		.eabi_attribute 26, 1
  10              		.eabi_attribute 30, 1
  11              		.eabi_attribute 34, 1
  12              		.eabi_attribute 18, 4
  13              		.thumb
  14              		.file	"protocolo.c"
  15              		.text
  16              	.Ltext0:
  17              		.cfi_sections	.debug_frame
  18              		.section	.text.ver_pos,"ax",%progbits
  19              		.align	2
  20              		.global	ver_pos
  21              		.thumb
  22              		.thumb_func
  23              		.type	ver_pos, %function
  24              	ver_pos:
  25              	.LFB63:
  26              		.file 1 ".\\protocolo.c"
   1:.\protocolo.c **** /*
   2:.\protocolo.c **** ***************************************************************************************************
   3:.\protocolo.c **** *                                           GRP550/700 CODE
   4:.\protocolo.c **** *
   5:.\protocolo.c **** *                             (c) Copyright 2013; Sistemas Insepet LTDA
   6:.\protocolo.c **** *
   7:.\protocolo.c **** *               All rights reserved.  Protected by international copyright laws.
   8:.\protocolo.c **** *               Knowledge of the source code may NOT be used to develop a similar product.
   9:.\protocolo.c **** *               Please help us continue to provide the Embedded community with the finest
  10:.\protocolo.c **** *               software available.  Your honesty is greatly appreciated.
  11:.\protocolo.c **** ***************************************************************************************************
  12:.\protocolo.c **** */
  13:.\protocolo.c **** 
  14:.\protocolo.c **** /*
  15:.\protocolo.c **** ***************************************************************************************************
  16:.\protocolo.c **** *
  17:.\protocolo.c **** *                                             GRP550/700 CODE
  18:.\protocolo.c **** *
  19:.\protocolo.c **** *                                             CYPRESS PSoC5LP
  20:.\protocolo.c **** *                                                with the
  21:.\protocolo.c **** *                                            CY8C5969AXI-LP035
  22:.\protocolo.c **** *
  23:.\protocolo.c **** * Filename      : Protocolo.c
  24:.\protocolo.c **** * Version       : V1.00
  25:.\protocolo.c **** * Programmer(s) : 
  26:.\protocolo.c ****                   
  27:.\protocolo.c **** ***************************************************************************************************
  28:.\protocolo.c **** */
  29:.\protocolo.c **** 
  30:.\protocolo.c **** 
  31:.\protocolo.c **** /*
ARM GAS  C:\Users\diego\AppData\Local\Temp\ccvEcbYb.s 			page 2


  32:.\protocolo.c **** ***************************************************************************************************
  33:.\protocolo.c **** *                                             INCLUDE FILES
  34:.\protocolo.c **** ***************************************************************************************************
  35:.\protocolo.c **** */
  36:.\protocolo.c **** 
  37:.\protocolo.c **** #include "VariablesG.h"
  38:.\protocolo.c **** #include "I2C.h"
  39:.\protocolo.c **** #include "Print.h"
  40:.\protocolo.c **** #include <string.h>
  41:.\protocolo.c **** 
  42:.\protocolo.c **** /*
  43:.\protocolo.c **** ***************************************************************************************************
  44:.\protocolo.c **** *                                            	MENSAJES
  45:.\protocolo.c **** ***************************************************************************************************
  46:.\protocolo.c **** */
  47:.\protocolo.c **** 
  48:.\protocolo.c **** uint8 msn_tc[6]="TOTAL";
  49:.\protocolo.c **** uint8 msn_lecact[15]="Valor actual: ";
  50:.\protocolo.c **** uint8 msn_lecaan[17]="Valor anterior:  ";
  51:.\protocolo.c **** uint8 msn_tventas[18]="Dinero total: $   ";
  52:.\protocolo.c **** uint8 msn_totalcero[15]="No toma totales";
  53:.\protocolo.c **** 
  54:.\protocolo.c **** 
  55:.\protocolo.c **** /*
  56:.\protocolo.c **** ***************************************************************************************************
  57:.\protocolo.c **** *                                         ver_pos( void )
  58:.\protocolo.c **** *
  59:.\protocolo.c **** * Description : 
  60:.\protocolo.c **** *               
  61:.\protocolo.c **** *
  62:.\protocolo.c **** * Argument(s) : none
  63:.\protocolo.c **** *
  64:.\protocolo.c **** * Return(s)   : none
  65:.\protocolo.c **** *
  66:.\protocolo.c **** * Caller(s)   : 
  67:.\protocolo.c **** *
  68:.\protocolo.c **** * Note(s)     : none.
  69:.\protocolo.c **** ***************************************************************************************************
  70:.\protocolo.c **** */
  71:.\protocolo.c **** uint8 ver_pos (void){
  27              		.loc 1 71 0
  28              		.cfi_startproc
  29              		@ args = 0, pretend = 0, frame = 0
  30              		@ frame_needed = 0, uses_anonymous_args = 0
  31 0000 10B5     		push	{r4, lr}
  32              		.cfi_def_cfa_offset 8
  33              		.cfi_offset 4, -8
  34              		.cfi_offset 14, -4
  72:.\protocolo.c **** uint8 x;
  73:.\protocolo.c ****     a.dir = 0xff;
  35              		.loc 1 73 0
  36 0002 FF23     		movs	r3, #255
  37 0004 3F4A     		ldr	r2, .L16
  38 0006 1370     		strb	r3, [r2]
  74:.\protocolo.c ****     b.dir = 0xff;
  39              		.loc 1 74 0
  40 0008 3F4A     		ldr	r2, .L16+4
ARM GAS  C:\Users\diego\AppData\Local\Temp\ccvEcbYb.s 			page 3


  41 000a 1370     		strb	r3, [r2]
  75:.\protocolo.c ****     c.dir = 0xff;
  42              		.loc 1 75 0
  43 000c 3F4A     		ldr	r2, .L16+8
  44 000e 1370     		strb	r3, [r2]
  76:.\protocolo.c ****     d.dir = 0xff;
  45              		.loc 1 76 0
  46 0010 3F4A     		ldr	r2, .L16+12
  47 0012 1370     		strb	r3, [r2]
  48              	.LVL0:
  77:.\protocolo.c ****      for(x=0;x<=15;x++){
  49              		.loc 1 77 0
  50 0014 0024     		movs	r4, #0
  51 0016 49E0     		b	.L2
  52              	.LVL1:
  53              	.L7:
  78:.\protocolo.c ****         Surtidor_PutChar(x);
  54              		.loc 1 78 0
  55 0018 2046     		mov	r0, r4
  56 001a FFF7FEFF 		bl	Surtidor_PutChar
  57              	.LVL2:
  79:.\protocolo.c ****         CyDelay(100);
  58              		.loc 1 79 0
  59 001e 6420     		movs	r0, #100
  60 0020 FFF7FEFF 		bl	CyDelay
  61              	.LVL3:
  80:.\protocolo.c ****         if((Surtidor_GetRxBufferSize()>=1)&&(a.dir==0xff)){
  62              		.loc 1 80 0
  63 0024 FFF7FEFF 		bl	Surtidor_GetRxBufferSize
  64              	.LVL4:
  65 0028 38B1     		cbz	r0, .L3
  66              		.loc 1 80 0 is_stmt 0 discriminator 1
  67 002a 364B     		ldr	r3, .L16
  68 002c 1B78     		ldrb	r3, [r3]	@ zero_extendqisi2
  69 002e FF2B     		cmp	r3, #255
  70 0030 03D1     		bne	.L3
  81:.\protocolo.c ****            a.dir=x;	
  71              		.loc 1 81 0 is_stmt 1
  72 0032 344B     		ldr	r3, .L16
  73 0034 1C70     		strb	r4, [r3]
  82:.\protocolo.c ****            Surtidor_ClearRxBuffer();
  74              		.loc 1 82 0
  75 0036 FFF7FEFF 		bl	Surtidor_ClearRxBuffer
  76              	.LVL5:
  77              	.L3:
  83:.\protocolo.c ****         }
  84:.\protocolo.c ****         if((Surtidor_GetRxBufferSize()>=1)&&(x!=a.dir)&&(c.dir==0xff)){
  78              		.loc 1 84 0
  79 003a FFF7FEFF 		bl	Surtidor_GetRxBufferSize
  80              	.LVL6:
  81 003e 58B1     		cbz	r0, .L4
  82              		.loc 1 84 0 is_stmt 0 discriminator 1
  83 0040 304B     		ldr	r3, .L16
  84 0042 1B78     		ldrb	r3, [r3]	@ zero_extendqisi2
  85 0044 A342     		cmp	r3, r4
  86 0046 07D0     		beq	.L4
  87              		.loc 1 84 0 discriminator 2
ARM GAS  C:\Users\diego\AppData\Local\Temp\ccvEcbYb.s 			page 4


  88 0048 304B     		ldr	r3, .L16+8
  89 004a 1B78     		ldrb	r3, [r3]	@ zero_extendqisi2
  90 004c FF2B     		cmp	r3, #255
  91 004e 03D1     		bne	.L4
  85:.\protocolo.c ****            c.dir=x;
  92              		.loc 1 85 0 is_stmt 1
  93 0050 2E4B     		ldr	r3, .L16+8
  94 0052 1C70     		strb	r4, [r3]
  86:.\protocolo.c ****            Surtidor_ClearRxBuffer();
  95              		.loc 1 86 0
  96 0054 FFF7FEFF 		bl	Surtidor_ClearRxBuffer
  97              	.LVL7:
  98              	.L4:
  87:.\protocolo.c ****         }
  88:.\protocolo.c ****         if((Surtidor_GetRxBufferSize()>=1)&&(x!=a.dir)&&(x!=b.dir)&&(b.dir==0xff)){
  99              		.loc 1 88 0
 100 0058 FFF7FEFF 		bl	Surtidor_GetRxBufferSize
 101              	.LVL8:
 102 005c 68B1     		cbz	r0, .L5
 103              		.loc 1 88 0 is_stmt 0 discriminator 1
 104 005e 294B     		ldr	r3, .L16
 105 0060 1B78     		ldrb	r3, [r3]	@ zero_extendqisi2
 106 0062 A342     		cmp	r3, r4
 107 0064 09D0     		beq	.L5
 108              		.loc 1 88 0 discriminator 2
 109 0066 284B     		ldr	r3, .L16+4
 110 0068 1B78     		ldrb	r3, [r3]	@ zero_extendqisi2
 111 006a A342     		cmp	r3, r4
 112 006c 05D0     		beq	.L5
 113              		.loc 1 88 0 discriminator 3
 114 006e FF2B     		cmp	r3, #255
 115 0070 03D1     		bne	.L5
  89:.\protocolo.c ****            b.dir=x;
 116              		.loc 1 89 0 is_stmt 1
 117 0072 254B     		ldr	r3, .L16+4
 118 0074 1C70     		strb	r4, [r3]
  90:.\protocolo.c ****            Surtidor_ClearRxBuffer();
 119              		.loc 1 90 0
 120 0076 FFF7FEFF 		bl	Surtidor_ClearRxBuffer
 121              	.LVL9:
 122              	.L5:
  91:.\protocolo.c ****         }
  92:.\protocolo.c ****         if((Surtidor_GetRxBufferSize()>=1)&&(x!=a.dir)&&(x!=b.dir)&&(x!=c.dir)&&(d.dir==0xff)){
 123              		.loc 1 92 0
 124 007a FFF7FEFF 		bl	Surtidor_GetRxBufferSize
 125              	.LVL10:
 126 007e 98B1     		cbz	r0, .L6
 127              		.loc 1 92 0 is_stmt 0 discriminator 1
 128 0080 204B     		ldr	r3, .L16
 129 0082 1B78     		ldrb	r3, [r3]	@ zero_extendqisi2
 130 0084 A342     		cmp	r3, r4
 131 0086 0FD0     		beq	.L6
 132              		.loc 1 92 0 discriminator 2
 133 0088 1F4B     		ldr	r3, .L16+4
 134 008a 1B78     		ldrb	r3, [r3]	@ zero_extendqisi2
 135 008c A342     		cmp	r3, r4
 136 008e 0BD0     		beq	.L6
ARM GAS  C:\Users\diego\AppData\Local\Temp\ccvEcbYb.s 			page 5


 137              		.loc 1 92 0 discriminator 3
 138 0090 1E4B     		ldr	r3, .L16+8
 139 0092 1B78     		ldrb	r3, [r3]	@ zero_extendqisi2
 140 0094 A342     		cmp	r3, r4
 141 0096 07D0     		beq	.L6
 142              		.loc 1 92 0 discriminator 4
 143 0098 1D4B     		ldr	r3, .L16+12
 144 009a 1B78     		ldrb	r3, [r3]	@ zero_extendqisi2
 145 009c FF2B     		cmp	r3, #255
 146 009e 03D1     		bne	.L6
  93:.\protocolo.c ****            d.dir=x;
 147              		.loc 1 93 0 is_stmt 1
 148 00a0 1B4B     		ldr	r3, .L16+12
 149 00a2 1C70     		strb	r4, [r3]
  94:.\protocolo.c ****            Surtidor_ClearRxBuffer();
 150              		.loc 1 94 0
 151 00a4 FFF7FEFF 		bl	Surtidor_ClearRxBuffer
 152              	.LVL11:
 153              	.L6:
  77:.\protocolo.c ****         Surtidor_PutChar(x);
 154              		.loc 1 77 0 discriminator 2
 155 00a8 0134     		adds	r4, r4, #1
 156              	.LVL12:
 157 00aa E4B2     		uxtb	r4, r4
 158              	.LVL13:
 159              	.L2:
  77:.\protocolo.c ****         Surtidor_PutChar(x);
 160              		.loc 1 77 0 is_stmt 0 discriminator 1
 161 00ac 0F2C     		cmp	r4, #15
 162 00ae B3D9     		bls	.L7
  95:.\protocolo.c ****         }
  96:.\protocolo.c ****     }
  97:.\protocolo.c ****     if((a.dir!=0xff)&&(b.dir!=0xff)&&(d.dir!=0xff)&&(c.dir!=0xff)){        
 163              		.loc 1 97 0 is_stmt 1
 164 00b0 144B     		ldr	r3, .L16
 165 00b2 1B78     		ldrb	r3, [r3]	@ zero_extendqisi2
 166 00b4 FF2B     		cmp	r3, #255
 167 00b6 0BD0     		beq	.L8
 168              		.loc 1 97 0 is_stmt 0 discriminator 1
 169 00b8 134A     		ldr	r2, .L16+4
 170 00ba 1278     		ldrb	r2, [r2]	@ zero_extendqisi2
 171 00bc FF2A     		cmp	r2, #255
 172 00be 07D0     		beq	.L8
 173              		.loc 1 97 0 discriminator 2
 174 00c0 134A     		ldr	r2, .L16+12
 175 00c2 1278     		ldrb	r2, [r2]	@ zero_extendqisi2
 176 00c4 FF2A     		cmp	r2, #255
 177 00c6 03D0     		beq	.L8
 178              		.loc 1 97 0 discriminator 3
 179 00c8 104A     		ldr	r2, .L16+8
 180 00ca 1278     		ldrb	r2, [r2]	@ zero_extendqisi2
 181 00cc FF2A     		cmp	r2, #255
 182 00ce 0FD1     		bne	.L10
 183              	.L8:
  98:.\protocolo.c ****         return 2;
  99:.\protocolo.c ****     }
 100:.\protocolo.c ****     else{
ARM GAS  C:\Users\diego\AppData\Local\Temp\ccvEcbYb.s 			page 6


 101:.\protocolo.c ****         if((a.dir!=0xff)||(b.dir!=0xff)||(c.dir!=0xff)||(d.dir!=0xff)){
 184              		.loc 1 101 0 is_stmt 1
 185 00d0 FF2B     		cmp	r3, #255
 186 00d2 0FD1     		bne	.L11
 187              		.loc 1 101 0 is_stmt 0 discriminator 1
 188 00d4 0C4B     		ldr	r3, .L16+4
 189 00d6 1B78     		ldrb	r3, [r3]	@ zero_extendqisi2
 190 00d8 FF2B     		cmp	r3, #255
 191 00da 0DD1     		bne	.L12
 192              		.loc 1 101 0 discriminator 2
 193 00dc 0B4B     		ldr	r3, .L16+8
 194 00de 1B78     		ldrb	r3, [r3]	@ zero_extendqisi2
 195 00e0 FF2B     		cmp	r3, #255
 196 00e2 0BD1     		bne	.L13
 197              		.loc 1 101 0 discriminator 3
 198 00e4 0A4B     		ldr	r3, .L16+12
 199 00e6 1B78     		ldrb	r3, [r3]	@ zero_extendqisi2
 200 00e8 FF2B     		cmp	r3, #255
 201 00ea 09D0     		beq	.L14
 102:.\protocolo.c ****             return 1;
 202              		.loc 1 102 0 is_stmt 1
 203 00ec 0120     		movs	r0, #1
 204 00ee 10BD     		pop	{r4, pc}
 205              	.LVL14:
 206              	.L10:
  98:.\protocolo.c ****         return 2;
 207              		.loc 1 98 0
 208 00f0 0220     		movs	r0, #2
 209 00f2 10BD     		pop	{r4, pc}
 210              	.LVL15:
 211              	.L11:
 212              		.loc 1 102 0
 213 00f4 0120     		movs	r0, #1
 214 00f6 10BD     		pop	{r4, pc}
 215              	.LVL16:
 216              	.L12:
 217 00f8 0120     		movs	r0, #1
 218 00fa 10BD     		pop	{r4, pc}
 219              	.LVL17:
 220              	.L13:
 221 00fc 0120     		movs	r0, #1
 222 00fe 10BD     		pop	{r4, pc}
 223              	.LVL18:
 224              	.L14:
 103:.\protocolo.c ****         }
 104:.\protocolo.c ****         else{
 105:.\protocolo.c ****             return 0;
 225              		.loc 1 105 0
 226 0100 0020     		movs	r0, #0
 106:.\protocolo.c ****         }
 107:.\protocolo.c ****     }
 108:.\protocolo.c ****         
 109:.\protocolo.c ****    
 110:.\protocolo.c ****     return 0;
 111:.\protocolo.c **** }
 227              		.loc 1 111 0
 228 0102 10BD     		pop	{r4, pc}
ARM GAS  C:\Users\diego\AppData\Local\Temp\ccvEcbYb.s 			page 7


 229              	.LVL19:
 230              	.L17:
 231              		.align	2
 232              	.L16:
 233 0104 00000000 		.word	a
 234 0108 00000000 		.word	b
 235 010c 00000000 		.word	c
 236 0110 00000000 		.word	d
 237              		.cfi_endproc
 238              	.LFE63:
 239              		.size	ver_pos, .-ver_pos
 240              		.section	.text.get_estado,"ax",%progbits
 241              		.align	2
 242              		.global	get_estado
 243              		.thumb
 244              		.thumb_func
 245              		.type	get_estado, %function
 246              	get_estado:
 247              	.LFB64:
 112:.\protocolo.c **** 
 113:.\protocolo.c **** /*
 114:.\protocolo.c **** ***************************************************************************************************
 115:.\protocolo.c **** *                                         ver_estado( void )
 116:.\protocolo.c **** *
 117:.\protocolo.c **** * Description : 
 118:.\protocolo.c **** *               
 119:.\protocolo.c **** *
 120:.\protocolo.c **** * Argument(s) : none
 121:.\protocolo.c **** *
 122:.\protocolo.c **** * Return(s)   : none
 123:.\protocolo.c **** *
 124:.\protocolo.c **** * Caller(s)   : 
 125:.\protocolo.c **** *
 126:.\protocolo.c **** * Note(s)     : none.
 127:.\protocolo.c **** ***************************************************************************************************
 128:.\protocolo.c **** */
 129:.\protocolo.c **** 
 130:.\protocolo.c **** uint8 get_estado(uint8 dir){
 248              		.loc 1 130 0
 249              		.cfi_startproc
 250              		@ args = 0, pretend = 0, frame = 0
 251              		@ frame_needed = 0, uses_anonymous_args = 0
 252              	.LVL20:
 253 0000 10B5     		push	{r4, lr}
 254              		.cfi_def_cfa_offset 8
 255              		.cfi_offset 4, -8
 256              		.cfi_offset 14, -4
 131:.\protocolo.c ****     uint8 estado;
 132:.\protocolo.c ****     Surtidor_PutChar(dir);
 257              		.loc 1 132 0
 258 0002 FFF7FEFF 		bl	Surtidor_PutChar
 259              	.LVL21:
 133:.\protocolo.c ****     CyDelay(50);
 260              		.loc 1 133 0
 261 0006 3220     		movs	r0, #50
 262 0008 FFF7FEFF 		bl	CyDelay
 263              	.LVL22:
ARM GAS  C:\Users\diego\AppData\Local\Temp\ccvEcbYb.s 			page 8


 134:.\protocolo.c ****     if(Surtidor_GetRxBufferSize()>=1){
 264              		.loc 1 134 0
 265 000c FFF7FEFF 		bl	Surtidor_GetRxBufferSize
 266              	.LVL23:
 267 0010 38B1     		cbz	r0, .L20
 135:.\protocolo.c ****        estado=(Surtidor_ReadRxData()&0xF0)>>4;
 268              		.loc 1 135 0
 269 0012 FFF7FEFF 		bl	Surtidor_ReadRxData
 270              	.LVL24:
 271 0016 C0F30714 		ubfx	r4, r0, #4, #8
 272              	.LVL25:
 136:.\protocolo.c ****        Surtidor_ClearRxBuffer();
 273              		.loc 1 136 0
 274 001a FFF7FEFF 		bl	Surtidor_ClearRxBuffer
 275              	.LVL26:
 137:.\protocolo.c ****        return estado;
 276              		.loc 1 137 0
 277 001e 2046     		mov	r0, r4
 278 0020 10BD     		pop	{r4, pc}
 279              	.LVL27:
 280              	.L20:
 138:.\protocolo.c ****     }
 139:.\protocolo.c ****     else{
 140:.\protocolo.c ****         return 0;
 281              		.loc 1 140 0
 282 0022 0020     		movs	r0, #0
 141:.\protocolo.c ****     }
 142:.\protocolo.c **** }
 283              		.loc 1 142 0
 284 0024 10BD     		pop	{r4, pc}
 285              		.cfi_endproc
 286              	.LFE64:
 287              		.size	get_estado, .-get_estado
 288 0026 00BF     		.section	.text.estado_ex,"ax",%progbits
 289              		.align	2
 290              		.global	estado_ex
 291              		.thumb
 292              		.thumb_func
 293              		.type	estado_ex, %function
 294              	estado_ex:
 295              	.LFB65:
 143:.\protocolo.c **** 
 144:.\protocolo.c **** //*
 145:.\protocolo.c **** //*************************************************************************************************
 146:.\protocolo.c **** //*                                         void ver_error(uint8 val)
 147:.\protocolo.c **** //*
 148:.\protocolo.c **** //* Description : 
 149:.\protocolo.c **** //*               
 150:.\protocolo.c **** //*
 151:.\protocolo.c **** //* Argument(s) : none
 152:.\protocolo.c **** //*
 153:.\protocolo.c **** //* Return(s)   : none
 154:.\protocolo.c **** //*
 155:.\protocolo.c **** //* Caller(s)   : 
 156:.\protocolo.c **** //*
 157:.\protocolo.c **** //* Note(s)     : none.
 158:.\protocolo.c **** //*************************************************************************************************
ARM GAS  C:\Users\diego\AppData\Local\Temp\ccvEcbYb.s 			page 9


 159:.\protocolo.c **** //*/
 160:.\protocolo.c **** //void ver_error(uint8 val){
 161:.\protocolo.c **** //    uint8 estado;
 162:.\protocolo.c **** //    Surtidor_PutChar(val);
 163:.\protocolo.c **** //    CyDelay(200);
 164:.\protocolo.c **** //    if(Surtidor_GetRxBufferSize()>=1){
 165:.\protocolo.c **** //       estado=(Surtidor_ReadRxData()&0xF0)>>4;
 166:.\protocolo.c **** //       Surtidor_ClearRxBuffer();
 167:.\protocolo.c **** //       if(estado==0){
 168:.\protocolo.c **** //
 169:.\protocolo.c **** //       }
 170:.\protocolo.c **** //    }    
 171:.\protocolo.c **** //}
 172:.\protocolo.c **** 
 173:.\protocolo.c **** /*
 174:.\protocolo.c **** ***************************************************************************************************
 175:.\protocolo.c **** *                                         estado_ex(uint8 val)
 176:.\protocolo.c **** *
 177:.\protocolo.c **** * Description : 
 178:.\protocolo.c **** *               
 179:.\protocolo.c **** *
 180:.\protocolo.c **** * Argument(s) : none
 181:.\protocolo.c **** *
 182:.\protocolo.c **** * Return(s)   : none
 183:.\protocolo.c **** *
 184:.\protocolo.c **** * Caller(s)   : 
 185:.\protocolo.c **** *
 186:.\protocolo.c **** * Note(s)     : none.
 187:.\protocolo.c **** ***************************************************************************************************
 188:.\protocolo.c **** */
 189:.\protocolo.c **** uint8 estado_ex(uint8 val){
 296              		.loc 1 189 0
 297              		.cfi_startproc
 298              		@ args = 0, pretend = 0, frame = 32
 299              		@ frame_needed = 0, uses_anonymous_args = 0
 300              	.LVL28:
 301 0000 10B5     		push	{r4, lr}
 302              		.cfi_def_cfa_offset 8
 303              		.cfi_offset 4, -8
 304              		.cfi_offset 14, -4
 305 0002 88B0     		sub	sp, sp, #32
 306              		.cfi_def_cfa_offset 40
 307 0004 0446     		mov	r4, r0
 190:.\protocolo.c ****     uint8 rx_extend[19],x,comand_exten[9]={0xFF,0xE9,0xFE,0xE0,0xE1,0xE0,0xFB,0xEE,0xF0};
 308              		.loc 1 190 0
 309 0006 364A     		ldr	r2, .L41
 310 0008 6B46     		mov	r3, sp
 311 000a 1068     		ldr	r0, [r2]	@ unaligned
 312              	.LVL29:
 313 000c 5168     		ldr	r1, [r2, #4]	@ unaligned
 314 000e 03C3     		stmia	r3!, {r0, r1}
 315 0010 127A     		ldrb	r2, [r2, #8]	@ zero_extendqisi2
 316 0012 1A70     		strb	r2, [r3]
 191:.\protocolo.c ****     Surtidor_PutChar(0x20|val);
 317              		.loc 1 191 0
 318 0014 44F02000 		orr	r0, r4, #32
 319 0018 FFF7FEFF 		bl	Surtidor_PutChar
ARM GAS  C:\Users\diego\AppData\Local\Temp\ccvEcbYb.s 			page 10


 320              	.LVL30:
 192:.\protocolo.c ****     producto=0xff;
 321              		.loc 1 192 0
 322 001c FF22     		movs	r2, #255
 323 001e 314B     		ldr	r3, .L41+4
 324 0020 1A70     		strb	r2, [r3]
 193:.\protocolo.c ****     CyDelay(100);
 325              		.loc 1 193 0
 326 0022 6420     		movs	r0, #100
 327 0024 FFF7FEFF 		bl	CyDelay
 328              	.LVL31:
 194:.\protocolo.c ****     if(Surtidor_GetRxBufferSize()>=1){
 329              		.loc 1 194 0
 330 0028 FFF7FEFF 		bl	Surtidor_GetRxBufferSize
 331              	.LVL32:
 332 002c 0028     		cmp	r0, #0
 333 002e 48D0     		beq	.L31
 195:.\protocolo.c ****         if(Surtidor_ReadRxData()==(0xD0|val)){
 334              		.loc 1 195 0
 335 0030 FFF7FEFF 		bl	Surtidor_ReadRxData
 336              	.LVL33:
 337 0034 44F0D004 		orr	r4, r4, #208
 338 0038 A042     		cmp	r0, r4
 339 003a 44D1     		bne	.L32
 196:.\protocolo.c ****             Surtidor_ClearRxBuffer();
 340              		.loc 1 196 0
 341 003c FFF7FEFF 		bl	Surtidor_ClearRxBuffer
 342              	.LVL34:
 197:.\protocolo.c ****             for(x=0;x<=8;x++){
 343              		.loc 1 197 0
 344 0040 0024     		movs	r4, #0
 345 0042 07E0     		b	.L24
 346              	.LVL35:
 347              	.L25:
 198:.\protocolo.c ****                Surtidor_PutChar(comand_exten[x]); 
 348              		.loc 1 198 0 discriminator 3
 349 0044 08AB     		add	r3, sp, #32
 350 0046 2344     		add	r3, r3, r4
 351 0048 13F8200C 		ldrb	r0, [r3, #-32]	@ zero_extendqisi2
 352 004c FFF7FEFF 		bl	Surtidor_PutChar
 353              	.LVL36:
 197:.\protocolo.c ****             for(x=0;x<=8;x++){
 354              		.loc 1 197 0 discriminator 3
 355 0050 0134     		adds	r4, r4, #1
 356              	.LVL37:
 357 0052 E4B2     		uxtb	r4, r4
 358              	.LVL38:
 359              	.L24:
 197:.\protocolo.c ****             for(x=0;x<=8;x++){
 360              		.loc 1 197 0 is_stmt 0 discriminator 1
 361 0054 082C     		cmp	r4, #8
 362 0056 F5D9     		bls	.L25
 199:.\protocolo.c ****             }
 200:.\protocolo.c ****             CyDelay(200);
 363              		.loc 1 200 0 is_stmt 1
 364 0058 C820     		movs	r0, #200
 365 005a FFF7FEFF 		bl	CyDelay
ARM GAS  C:\Users\diego\AppData\Local\Temp\ccvEcbYb.s 			page 11


 366              	.LVL39:
 201:.\protocolo.c ****             if(Surtidor_GetRxBufferSize()>=19){
 367              		.loc 1 201 0
 368 005e FFF7FEFF 		bl	Surtidor_GetRxBufferSize
 369              	.LVL40:
 370 0062 1228     		cmp	r0, #18
 371 0064 0AD8     		bhi	.L33
 202:.\protocolo.c ****                 for(x=0;x<=18;x++){
 203:.\protocolo.c ****                    rx_extend[x]=Surtidor_ReadRxData(); 
 204:.\protocolo.c ****                 }
 205:.\protocolo.c ****                 Surtidor_ClearRxBuffer();
 206:.\protocolo.c ****                 if((rx_extend[0]==0xBA)&&(rx_extend[17]==0x8D)&&(rx_extend[18]==0x8A)&&(rx_extend[1
 207:.\protocolo.c ****                     switch(rx_extend[14]){
 208:.\protocolo.c ****                         case 0xB1:
 209:.\protocolo.c ****                             return 1;
 210:.\protocolo.c ****                             break;
 211:.\protocolo.c ****                         case 0xB2:
 212:.\protocolo.c ****                             return 2;
 213:.\protocolo.c ****                             break;
 214:.\protocolo.c ****                         case 0xB3:
 215:.\protocolo.c ****                             return 3;
 216:.\protocolo.c ****                             break;
 217:.\protocolo.c ****                         default:
 218:.\protocolo.c ****                             return 0;
 219:.\protocolo.c ****                     }
 220:.\protocolo.c ****                 }
 221:.\protocolo.c ****                 else{
 222:.\protocolo.c ****                     return 0;
 223:.\protocolo.c ****                 }
 224:.\protocolo.c ****             }
 225:.\protocolo.c ****             else{
 226:.\protocolo.c ****                 return 0;
 372              		.loc 1 226 0
 373 0066 0020     		movs	r0, #0
 374 0068 38E0     		b	.L23
 375              	.L27:
 203:.\protocolo.c ****                 }
 376              		.loc 1 203 0 discriminator 3
 377 006a FFF7FEFF 		bl	Surtidor_ReadRxData
 378              	.LVL41:
 379 006e 08AB     		add	r3, sp, #32
 380 0070 2344     		add	r3, r3, r4
 381 0072 03F8140C 		strb	r0, [r3, #-20]
 202:.\protocolo.c ****                 for(x=0;x<=18;x++){
 382              		.loc 1 202 0 discriminator 3
 383 0076 0134     		adds	r4, r4, #1
 384              	.LVL42:
 385 0078 E4B2     		uxtb	r4, r4
 386              	.LVL43:
 387 007a 00E0     		b	.L26
 388              	.L33:
 389 007c 0024     		movs	r4, #0
 390              	.LVL44:
 391              	.L26:
 202:.\protocolo.c ****                 for(x=0;x<=18;x++){
 392              		.loc 1 202 0 is_stmt 0 discriminator 1
 393 007e 122C     		cmp	r4, #18
ARM GAS  C:\Users\diego\AppData\Local\Temp\ccvEcbYb.s 			page 12


 394 0080 F3D9     		bls	.L27
 205:.\protocolo.c ****                 if((rx_extend[0]==0xBA)&&(rx_extend[17]==0x8D)&&(rx_extend[18]==0x8A)&&(rx_extend[1
 395              		.loc 1 205 0 is_stmt 1
 396 0082 FFF7FEFF 		bl	Surtidor_ClearRxBuffer
 397              	.LVL45:
 206:.\protocolo.c ****                     switch(rx_extend[14]){
 398              		.loc 1 206 0
 399 0086 9DF80C30 		ldrb	r3, [sp, #12]	@ zero_extendqisi2
 400 008a BA2B     		cmp	r3, #186
 401 008c 1DD1     		bne	.L34
 206:.\protocolo.c ****                     switch(rx_extend[14]){
 402              		.loc 1 206 0 is_stmt 0 discriminator 1
 403 008e 9DF81D30 		ldrb	r3, [sp, #29]	@ zero_extendqisi2
 404 0092 8D2B     		cmp	r3, #141
 405 0094 1BD1     		bne	.L35
 206:.\protocolo.c ****                     switch(rx_extend[14]){
 406              		.loc 1 206 0 discriminator 2
 407 0096 9DF81E30 		ldrb	r3, [sp, #30]	@ zero_extendqisi2
 408 009a 8A2B     		cmp	r3, #138
 409 009c 19D1     		bne	.L36
 206:.\protocolo.c ****                     switch(rx_extend[14]){
 410              		.loc 1 206 0 discriminator 3
 411 009e 9DF81830 		ldrb	r3, [sp, #24]	@ zero_extendqisi2
 412 00a2 B12B     		cmp	r3, #177
 413 00a4 17D1     		bne	.L37
 207:.\protocolo.c ****                         case 0xB1:
 414              		.loc 1 207 0 is_stmt 1
 415 00a6 9DF81A30 		ldrb	r3, [sp, #26]	@ zero_extendqisi2
 416 00aa B22B     		cmp	r3, #178
 417 00ac 15D0     		beq	.L38
 418 00ae B32B     		cmp	r3, #179
 419 00b0 03D0     		beq	.L29
 420 00b2 B12B     		cmp	r3, #177
 421 00b4 03D1     		bne	.L39
 209:.\protocolo.c ****                             break;
 422              		.loc 1 209 0
 423 00b6 0120     		movs	r0, #1
 424 00b8 10E0     		b	.L23
 425              	.L29:
 215:.\protocolo.c ****                             break;
 426              		.loc 1 215 0
 427 00ba 0320     		movs	r0, #3
 428 00bc 0EE0     		b	.L23
 429              	.L39:
 218:.\protocolo.c ****                     }
 430              		.loc 1 218 0
 431 00be 0020     		movs	r0, #0
 432 00c0 0CE0     		b	.L23
 433              	.LVL46:
 434              	.L31:
 227:.\protocolo.c ****             }
 228:.\protocolo.c ****         }
 229:.\protocolo.c ****         else{
 230:.\protocolo.c ****             return 0;
 231:.\protocolo.c ****         }
 232:.\protocolo.c ****     }
 233:.\protocolo.c ****     else{
ARM GAS  C:\Users\diego\AppData\Local\Temp\ccvEcbYb.s 			page 13


 234:.\protocolo.c ****         return 0;
 435              		.loc 1 234 0
 436 00c2 0020     		movs	r0, #0
 437 00c4 0AE0     		b	.L23
 438              	.L32:
 230:.\protocolo.c ****         }
 439              		.loc 1 230 0
 440 00c6 0020     		movs	r0, #0
 441 00c8 08E0     		b	.L23
 442              	.LVL47:
 443              	.L34:
 222:.\protocolo.c ****                 }
 444              		.loc 1 222 0
 445 00ca 0020     		movs	r0, #0
 446 00cc 06E0     		b	.L23
 447              	.L35:
 448 00ce 0020     		movs	r0, #0
 449 00d0 04E0     		b	.L23
 450              	.L36:
 451 00d2 0020     		movs	r0, #0
 452 00d4 02E0     		b	.L23
 453              	.L37:
 454 00d6 0020     		movs	r0, #0
 455 00d8 00E0     		b	.L23
 456              	.L38:
 212:.\protocolo.c ****                             break;
 457              		.loc 1 212 0
 458 00da 0220     		movs	r0, #2
 459              	.LVL48:
 460              	.L23:
 235:.\protocolo.c ****     }
 236:.\protocolo.c **** }
 461              		.loc 1 236 0 discriminator 1
 462 00dc 08B0     		add	sp, sp, #32
 463              		.cfi_def_cfa_offset 8
 464              		@ sp needed
 465 00de 10BD     		pop	{r4, pc}
 466              	.L42:
 467              		.align	2
 468              	.L41:
 469 00e0 00000000 		.word	.LANCHOR0
 470 00e4 00000000 		.word	producto
 471              		.cfi_endproc
 472              	.LFE65:
 473              		.size	estado_ex, .-estado_ex
 474              		.section	.text.venta,"ax",%progbits
 475              		.align	2
 476              		.global	venta
 477              		.thumb
 478              		.thumb_func
 479              		.type	venta, %function
 480              	venta:
 481              	.LFB66:
 237:.\protocolo.c **** 
 238:.\protocolo.c **** ///*
 239:.\protocolo.c **** //*************************************************************************************************
 240:.\protocolo.c **** //*                                         void detener(uint8 val)
ARM GAS  C:\Users\diego\AppData\Local\Temp\ccvEcbYb.s 			page 14


 241:.\protocolo.c **** //*
 242:.\protocolo.c **** //* Description : 
 243:.\protocolo.c **** //*               
 244:.\protocolo.c **** //*
 245:.\protocolo.c **** //* Argument(s) : none
 246:.\protocolo.c **** //*
 247:.\protocolo.c **** //* Return(s)   : none
 248:.\protocolo.c **** //*
 249:.\protocolo.c **** //* Caller(s)   : 
 250:.\protocolo.c **** //*
 251:.\protocolo.c **** //* Note(s)     : none.
 252:.\protocolo.c **** //*************************************************************************************************
 253:.\protocolo.c **** //*/
 254:.\protocolo.c **** //void detener(uint8 val){
 255:.\protocolo.c **** //    Surtidor_PutChar(0x30|val);
 256:.\protocolo.c **** //    CyDelay(200);
 257:.\protocolo.c **** //}
 258:.\protocolo.c **** 
 259:.\protocolo.c **** /*
 260:.\protocolo.c **** ***************************************************************************************************
 261:.\protocolo.c **** *                                         void venta(uint8 val)
 262:.\protocolo.c **** *
 263:.\protocolo.c **** * Description : 
 264:.\protocolo.c **** *               
 265:.\protocolo.c **** *
 266:.\protocolo.c **** * Argument(s) : none
 267:.\protocolo.c **** *
 268:.\protocolo.c **** * Return(s)   : none
 269:.\protocolo.c **** *
 270:.\protocolo.c **** * Caller(s)   : 
 271:.\protocolo.c **** *
 272:.\protocolo.c **** * Note(s)     : none.
 273:.\protocolo.c **** ***************************************************************************************************
 274:.\protocolo.c **** */
 275:.\protocolo.c **** uint8 venta(uint8 val){
 482              		.loc 1 275 0
 483              		.cfi_startproc
 484              		@ args = 0, pretend = 0, frame = 40
 485              		@ frame_needed = 0, uses_anonymous_args = 0
 486              	.LVL49:
 487 0000 30B5     		push	{r4, r5, lr}
 488              		.cfi_def_cfa_offset 12
 489              		.cfi_offset 4, -12
 490              		.cfi_offset 5, -8
 491              		.cfi_offset 14, -4
 492 0002 8BB0     		sub	sp, sp, #44
 493              		.cfi_def_cfa_offset 56
 494 0004 0446     		mov	r4, r0
 495              	.LVL50:
 276:.\protocolo.c ****     uint8 rx_venta[39],x=0,pos,y; 
 277:.\protocolo.c ****     Surtidor_PutChar(0x40|val);
 496              		.loc 1 277 0
 497 0006 40F04000 		orr	r0, r0, #64
 498              	.LVL51:
 499 000a FFF7FEFF 		bl	Surtidor_PutChar
 500              	.LVL52:
 278:.\protocolo.c ****     CyDelay(300);
ARM GAS  C:\Users\diego\AppData\Local\Temp\ccvEcbYb.s 			page 15


 501              		.loc 1 278 0
 502 000e 4FF49670 		mov	r0, #300
 503 0012 FFF7FEFF 		bl	CyDelay
 504              	.LVL53:
 279:.\protocolo.c ****     if(Surtidor_GetRxBufferSize()<=39){
 505              		.loc 1 279 0
 506 0016 FFF7FEFF 		bl	Surtidor_GetRxBufferSize
 507              	.LVL54:
 508 001a 2728     		cmp	r0, #39
 509 001c 0AD9     		bls	.L60
 280:.\protocolo.c ****         while(Surtidor_GetRxBufferSize()>0){
 281:.\protocolo.c ****             rx_venta[x]=Surtidor_ReadRxData();  
 282:.\protocolo.c ****             x++;
 283:.\protocolo.c ****         }
 284:.\protocolo.c ****         Surtidor_ClearRxBuffer();
 285:.\protocolo.c ****         if(val==0){
 286:.\protocolo.c ****             pos=0x10;
 287:.\protocolo.c ****             rventa.posicion=pos;
 288:.\protocolo.c ****         }
 289:.\protocolo.c ****         else{
 290:.\protocolo.c ****             pos=val;
 291:.\protocolo.c ****             rventa.posicion=pos;
 292:.\protocolo.c ****         }
 293:.\protocolo.c ****         if((rx_venta[0]==0xFF)&&(rx_venta[2]==0xF8)&&((rx_venta[4]&0x0F)==(pos-1))){
 294:.\protocolo.c ****             x=0;
 295:.\protocolo.c ****             while((rx_venta[x]!=0xF6)||(x>=39)){
 296:.\protocolo.c ****                 x++;
 297:.\protocolo.c ****             }
 298:.\protocolo.c ****             x++;
 299:.\protocolo.c ****             rventa.producto=(rx_venta[x]&0x0F)+1;
 300:.\protocolo.c ****             while((rx_venta[x]!=0xF7)||(x>=39)){
 301:.\protocolo.c ****                 x++;
 302:.\protocolo.c ****             }
 303:.\protocolo.c ****             x++;
 304:.\protocolo.c ****             y=1;
 305:.\protocolo.c ****             while((rx_venta[x]!=0xF9)||(x>=39)){    
 306:.\protocolo.c ****                 rventa.ppu[y]=(rx_venta[x]&0x0F);
 307:.\protocolo.c ****                 x++;
 308:.\protocolo.c ****                 y++;
 309:.\protocolo.c ****             }
 310:.\protocolo.c **** 			rventa.ppu[0]=y-1;
 311:.\protocolo.c ****             x++;
 312:.\protocolo.c ****             y=1;
 313:.\protocolo.c ****             while((rx_venta[x]!=0xFA)||(x>=39)){
 314:.\protocolo.c ****                 rventa.volumen[y]=(rx_venta[x]&0x0F);
 315:.\protocolo.c ****                 x++;
 316:.\protocolo.c ****                 y++;    
 317:.\protocolo.c ****             }
 318:.\protocolo.c **** 			rventa.volumen[0]=y-1;
 319:.\protocolo.c ****             x++;
 320:.\protocolo.c ****             y=1;
 321:.\protocolo.c ****             while((rx_venta[x]!=0xFB)||(x>=39)){
 322:.\protocolo.c ****                 rventa.dinero[y]=(rx_venta[x]&0x0F);
 323:.\protocolo.c ****                 x++;
 324:.\protocolo.c ****                 y++;    
 325:.\protocolo.c ****             }
 326:.\protocolo.c **** 			rventa.dinero[0]=y-1;
ARM GAS  C:\Users\diego\AppData\Local\Temp\ccvEcbYb.s 			page 16


 327:.\protocolo.c ****             x+=2;
 328:.\protocolo.c ****             if((rx_venta[x]==0xF0)&&(x<=38)){								
 329:.\protocolo.c **** 				if(val==a.dir){
 330:.\protocolo.c **** 					write_eeprom(457,rventa.dinero);
 331:.\protocolo.c **** 					write_eeprom(466,rventa.volumen);
 332:.\protocolo.c **** 					write_eeprom(475,rventa.ppu);
 333:.\protocolo.c **** 				}				
 334:.\protocolo.c **** 				else{
 335:.\protocolo.c **** 					write_eeprom(482,rventa.dinero);
 336:.\protocolo.c **** 					write_eeprom(500,rventa.ppu);
 337:.\protocolo.c **** 					write_eeprom(491,rventa.volumen);				
 338:.\protocolo.c **** 				}
 339:.\protocolo.c ****                 return 1;
 340:.\protocolo.c ****             }
 341:.\protocolo.c ****             else{
 342:.\protocolo.c ****                 return 0;
 343:.\protocolo.c ****             }
 344:.\protocolo.c ****         }
 345:.\protocolo.c ****         else{
 346:.\protocolo.c ****             return 0;
 347:.\protocolo.c ****         }
 348:.\protocolo.c ****     }
 349:.\protocolo.c ****     else{
 350:.\protocolo.c ****         return 0;
 510              		.loc 1 350 0
 511 001e 0020     		movs	r0, #0
 512 0020 D9E0     		b	.L45
 513              	.LVL55:
 514              	.L46:
 281:.\protocolo.c ****             x++;
 515              		.loc 1 281 0
 516 0022 FFF7FEFF 		bl	Surtidor_ReadRxData
 517              	.LVL56:
 518 0026 0AAB     		add	r3, sp, #40
 519 0028 2B44     		add	r3, r3, r5
 520 002a 03F8280C 		strb	r0, [r3, #-40]
 282:.\protocolo.c ****         }
 521              		.loc 1 282 0
 522 002e 0135     		adds	r5, r5, #1
 523              	.LVL57:
 524 0030 EDB2     		uxtb	r5, r5
 525              	.LVL58:
 526 0032 00E0     		b	.L44
 527              	.LVL59:
 528              	.L60:
 529 0034 0025     		movs	r5, #0
 530              	.LVL60:
 531              	.L44:
 280:.\protocolo.c ****         while(Surtidor_GetRxBufferSize()>0){
 532              		.loc 1 280 0
 533 0036 FFF7FEFF 		bl	Surtidor_GetRxBufferSize
 534              	.LVL61:
 535 003a 0028     		cmp	r0, #0
 536 003c F1D1     		bne	.L46
 284:.\protocolo.c ****         if(val==0){
 537              		.loc 1 284 0
 538 003e FFF7FEFF 		bl	Surtidor_ClearRxBuffer
ARM GAS  C:\Users\diego\AppData\Local\Temp\ccvEcbYb.s 			page 17


 539              	.LVL62:
 285:.\protocolo.c ****             pos=0x10;
 540              		.loc 1 285 0
 541 0042 24B9     		cbnz	r4, .L47
 542              	.LVL63:
 287:.\protocolo.c ****         }
 543              		.loc 1 287 0
 544 0044 1023     		movs	r3, #16
 545 0046 654A     		ldr	r2, .L67
 546 0048 82F8A230 		strb	r3, [r2, #162]
 547 004c 03E0     		b	.L48
 548              	.LVL64:
 549              	.L47:
 291:.\protocolo.c ****         }
 550              		.loc 1 291 0
 551 004e 634B     		ldr	r3, .L67
 552 0050 83F8A240 		strb	r4, [r3, #162]
 290:.\protocolo.c ****             rventa.posicion=pos;
 553              		.loc 1 290 0
 554 0054 2346     		mov	r3, r4
 555              	.LVL65:
 556              	.L48:
 293:.\protocolo.c ****             x=0;
 557              		.loc 1 293 0
 558 0056 9DF80020 		ldrb	r2, [sp]	@ zero_extendqisi2
 559 005a FF2A     		cmp	r2, #255
 560 005c 40F0B480 		bne	.L61
 293:.\protocolo.c ****             x=0;
 561              		.loc 1 293 0 is_stmt 0 discriminator 1
 562 0060 9DF80220 		ldrb	r2, [sp, #2]	@ zero_extendqisi2
 563 0064 F82A     		cmp	r2, #248
 564 0066 40F0B180 		bne	.L62
 293:.\protocolo.c ****             x=0;
 565              		.loc 1 293 0 discriminator 2
 566 006a 9DF80420 		ldrb	r2, [sp, #4]	@ zero_extendqisi2
 567 006e 02F00F02 		and	r2, r2, #15
 568 0072 013B     		subs	r3, r3, #1
 569              	.LVL66:
 570 0074 9A42     		cmp	r2, r3
 571 0076 04D0     		beq	.L63
 346:.\protocolo.c ****         }
 572              		.loc 1 346 0 is_stmt 1
 573 0078 0020     		movs	r0, #0
 574 007a ACE0     		b	.L45
 575              	.LVL67:
 576              	.L50:
 296:.\protocolo.c ****             }
 577              		.loc 1 296 0
 578 007c 0133     		adds	r3, r3, #1
 579              	.LVL68:
 580 007e DBB2     		uxtb	r3, r3
 581              	.LVL69:
 582 0080 00E0     		b	.L49
 583              	.LVL70:
 584              	.L63:
 585 0082 0023     		movs	r3, #0
 586              	.LVL71:
ARM GAS  C:\Users\diego\AppData\Local\Temp\ccvEcbYb.s 			page 18


 587              	.L49:
 295:.\protocolo.c ****                 x++;
 588              		.loc 1 295 0
 589 0084 0AAA     		add	r2, sp, #40
 590 0086 1A44     		add	r2, r2, r3
 591 0088 12F8282C 		ldrb	r2, [r2, #-40]	@ zero_extendqisi2
 592 008c F62A     		cmp	r2, #246
 593 008e F5D1     		bne	.L50
 295:.\protocolo.c ****                 x++;
 594              		.loc 1 295 0 is_stmt 0 discriminator 1
 595 0090 262B     		cmp	r3, #38
 596 0092 F3D8     		bhi	.L50
 298:.\protocolo.c ****             rventa.producto=(rx_venta[x]&0x0F)+1;
 597              		.loc 1 298 0 is_stmt 1
 598 0094 0133     		adds	r3, r3, #1
 599              	.LVL72:
 600 0096 DBB2     		uxtb	r3, r3
 601              	.LVL73:
 299:.\protocolo.c ****             while((rx_venta[x]!=0xF7)||(x>=39)){
 602              		.loc 1 299 0
 603 0098 0AAA     		add	r2, sp, #40
 604 009a 1A44     		add	r2, r2, r3
 605 009c 12F8282C 		ldrb	r2, [r2, #-40]	@ zero_extendqisi2
 606 00a0 02F00F02 		and	r2, r2, #15
 607 00a4 0132     		adds	r2, r2, #1
 608 00a6 4D49     		ldr	r1, .L67
 609 00a8 81F8A320 		strb	r2, [r1, #163]
 300:.\protocolo.c ****                 x++;
 610              		.loc 1 300 0
 611 00ac 01E0     		b	.L51
 612              	.L52:
 301:.\protocolo.c ****             }
 613              		.loc 1 301 0
 614 00ae 0133     		adds	r3, r3, #1
 615              	.LVL74:
 616 00b0 DBB2     		uxtb	r3, r3
 617              	.LVL75:
 618              	.L51:
 300:.\protocolo.c ****                 x++;
 619              		.loc 1 300 0
 620 00b2 0AAA     		add	r2, sp, #40
 621 00b4 1A44     		add	r2, r2, r3
 622 00b6 12F8282C 		ldrb	r2, [r2, #-40]	@ zero_extendqisi2
 623 00ba F72A     		cmp	r2, #247
 624 00bc F7D1     		bne	.L52
 300:.\protocolo.c ****                 x++;
 625              		.loc 1 300 0 is_stmt 0 discriminator 1
 626 00be 262B     		cmp	r3, #38
 627 00c0 F5D8     		bhi	.L52
 303:.\protocolo.c ****             y=1;
 628              		.loc 1 303 0 is_stmt 1
 629 00c2 0133     		adds	r3, r3, #1
 630              	.LVL76:
 631 00c4 DBB2     		uxtb	r3, r3
 632              	.LVL77:
 304:.\protocolo.c ****             while((rx_venta[x]!=0xF9)||(x>=39)){    
 633              		.loc 1 304 0
ARM GAS  C:\Users\diego\AppData\Local\Temp\ccvEcbYb.s 			page 19


 634 00c6 0122     		movs	r2, #1
 305:.\protocolo.c ****                 rventa.ppu[y]=(rx_venta[x]&0x0F);
 635              		.loc 1 305 0
 636 00c8 09E0     		b	.L53
 637              	.LVL78:
 638              	.L54:
 306:.\protocolo.c ****                 x++;
 639              		.loc 1 306 0
 640 00ca 4448     		ldr	r0, .L67
 641 00cc 1044     		add	r0, r0, r2
 642 00ce 01F00F01 		and	r1, r1, #15
 643 00d2 80F8A410 		strb	r1, [r0, #164]
 307:.\protocolo.c ****                 y++;
 644              		.loc 1 307 0
 645 00d6 0133     		adds	r3, r3, #1
 646              	.LVL79:
 647 00d8 DBB2     		uxtb	r3, r3
 648              	.LVL80:
 308:.\protocolo.c ****             }
 649              		.loc 1 308 0
 650 00da 0132     		adds	r2, r2, #1
 651              	.LVL81:
 652 00dc D2B2     		uxtb	r2, r2
 653              	.LVL82:
 654              	.L53:
 305:.\protocolo.c ****                 rventa.ppu[y]=(rx_venta[x]&0x0F);
 655              		.loc 1 305 0
 656 00de 0AA9     		add	r1, sp, #40
 657 00e0 1944     		add	r1, r1, r3
 658 00e2 11F8281C 		ldrb	r1, [r1, #-40]	@ zero_extendqisi2
 659 00e6 F929     		cmp	r1, #249
 660 00e8 EFD1     		bne	.L54
 305:.\protocolo.c ****                 rventa.ppu[y]=(rx_venta[x]&0x0F);
 661              		.loc 1 305 0 is_stmt 0 discriminator 1
 662 00ea 262B     		cmp	r3, #38
 663 00ec EDD8     		bhi	.L54
 310:.\protocolo.c ****             x++;
 664              		.loc 1 310 0 is_stmt 1
 665 00ee 013A     		subs	r2, r2, #1
 666              	.LVL83:
 667 00f0 3A49     		ldr	r1, .L67
 668 00f2 81F8A420 		strb	r2, [r1, #164]
 311:.\protocolo.c ****             y=1;
 669              		.loc 1 311 0
 670 00f6 0133     		adds	r3, r3, #1
 671              	.LVL84:
 672 00f8 DBB2     		uxtb	r3, r3
 673              	.LVL85:
 312:.\protocolo.c ****             while((rx_venta[x]!=0xFA)||(x>=39)){
 674              		.loc 1 312 0
 675 00fa 0122     		movs	r2, #1
 313:.\protocolo.c ****                 rventa.volumen[y]=(rx_venta[x]&0x0F);
 676              		.loc 1 313 0
 677 00fc 09E0     		b	.L55
 678              	.LVL86:
 679              	.L56:
 314:.\protocolo.c ****                 x++;
ARM GAS  C:\Users\diego\AppData\Local\Temp\ccvEcbYb.s 			page 20


 680              		.loc 1 314 0
 681 00fe 3748     		ldr	r0, .L67
 682 0100 1044     		add	r0, r0, r2
 683 0102 01F00F01 		and	r1, r1, #15
 684 0106 80F8B410 		strb	r1, [r0, #180]
 315:.\protocolo.c ****                 y++;    
 685              		.loc 1 315 0
 686 010a 0133     		adds	r3, r3, #1
 687              	.LVL87:
 688 010c DBB2     		uxtb	r3, r3
 689              	.LVL88:
 316:.\protocolo.c ****             }
 690              		.loc 1 316 0
 691 010e 0132     		adds	r2, r2, #1
 692              	.LVL89:
 693 0110 D2B2     		uxtb	r2, r2
 694              	.LVL90:
 695              	.L55:
 313:.\protocolo.c ****                 rventa.volumen[y]=(rx_venta[x]&0x0F);
 696              		.loc 1 313 0
 697 0112 0AA9     		add	r1, sp, #40
 698 0114 1944     		add	r1, r1, r3
 699 0116 11F8281C 		ldrb	r1, [r1, #-40]	@ zero_extendqisi2
 700 011a FA29     		cmp	r1, #250
 701 011c EFD1     		bne	.L56
 313:.\protocolo.c ****                 rventa.volumen[y]=(rx_venta[x]&0x0F);
 702              		.loc 1 313 0 is_stmt 0 discriminator 1
 703 011e 262B     		cmp	r3, #38
 704 0120 EDD8     		bhi	.L56
 318:.\protocolo.c ****             x++;
 705              		.loc 1 318 0 is_stmt 1
 706 0122 013A     		subs	r2, r2, #1
 707              	.LVL91:
 708 0124 2D49     		ldr	r1, .L67
 709 0126 81F8B420 		strb	r2, [r1, #180]
 319:.\protocolo.c ****             y=1;
 710              		.loc 1 319 0
 711 012a 0133     		adds	r3, r3, #1
 712              	.LVL92:
 713 012c DBB2     		uxtb	r3, r3
 714              	.LVL93:
 320:.\protocolo.c ****             while((rx_venta[x]!=0xFB)||(x>=39)){
 715              		.loc 1 320 0
 716 012e 0122     		movs	r2, #1
 321:.\protocolo.c ****                 rventa.dinero[y]=(rx_venta[x]&0x0F);
 717              		.loc 1 321 0
 718 0130 09E0     		b	.L57
 719              	.LVL94:
 720              	.L58:
 322:.\protocolo.c ****                 x++;
 721              		.loc 1 322 0
 722 0132 2A48     		ldr	r0, .L67
 723 0134 1044     		add	r0, r0, r2
 724 0136 01F00F01 		and	r1, r1, #15
 725 013a 80F8AB10 		strb	r1, [r0, #171]
 323:.\protocolo.c ****                 y++;    
 726              		.loc 1 323 0
ARM GAS  C:\Users\diego\AppData\Local\Temp\ccvEcbYb.s 			page 21


 727 013e 0133     		adds	r3, r3, #1
 728              	.LVL95:
 729 0140 DBB2     		uxtb	r3, r3
 730              	.LVL96:
 324:.\protocolo.c ****             }
 731              		.loc 1 324 0
 732 0142 0132     		adds	r2, r2, #1
 733              	.LVL97:
 734 0144 D2B2     		uxtb	r2, r2
 735              	.LVL98:
 736              	.L57:
 321:.\protocolo.c ****                 rventa.dinero[y]=(rx_venta[x]&0x0F);
 737              		.loc 1 321 0
 738 0146 0AA9     		add	r1, sp, #40
 739 0148 1944     		add	r1, r1, r3
 740 014a 11F8281C 		ldrb	r1, [r1, #-40]	@ zero_extendqisi2
 741 014e FB29     		cmp	r1, #251
 742 0150 EFD1     		bne	.L58
 321:.\protocolo.c ****                 rventa.dinero[y]=(rx_venta[x]&0x0F);
 743              		.loc 1 321 0 is_stmt 0 discriminator 1
 744 0152 262B     		cmp	r3, #38
 745 0154 EDD8     		bhi	.L58
 326:.\protocolo.c ****             x+=2;
 746              		.loc 1 326 0 is_stmt 1
 747 0156 013A     		subs	r2, r2, #1
 748              	.LVL99:
 749 0158 2049     		ldr	r1, .L67
 750 015a 81F8AB20 		strb	r2, [r1, #171]
 327:.\protocolo.c ****             if((rx_venta[x]==0xF0)&&(x<=38)){								
 751              		.loc 1 327 0
 752 015e 0233     		adds	r3, r3, #2
 753              	.LVL100:
 754 0160 DBB2     		uxtb	r3, r3
 755              	.LVL101:
 328:.\protocolo.c **** 				if(val==a.dir){
 756              		.loc 1 328 0
 757 0162 0AAA     		add	r2, sp, #40
 758 0164 1A44     		add	r2, r2, r3
 759 0166 12F8282C 		ldrb	r2, [r2, #-40]	@ zero_extendqisi2
 760 016a F02A     		cmp	r2, #240
 761 016c 30D1     		bne	.L64
 328:.\protocolo.c **** 				if(val==a.dir){
 762              		.loc 1 328 0 is_stmt 0 discriminator 1
 763 016e 262B     		cmp	r3, #38
 764 0170 30D8     		bhi	.L65
 329:.\protocolo.c **** 					write_eeprom(457,rventa.dinero);
 765              		.loc 1 329 0 is_stmt 1
 766 0172 1B4B     		ldr	r3, .L67+4
 767              	.LVL102:
 768 0174 1B78     		ldrb	r3, [r3]	@ zero_extendqisi2
 769 0176 A342     		cmp	r3, r4
 770 0178 13D1     		bne	.L59
 330:.\protocolo.c **** 					write_eeprom(466,rventa.volumen);
 771              		.loc 1 330 0
 772 017a 01F1AB04 		add	r4, r1, #171
 773 017e 40F2C910 		movw	r0, #457
 774 0182 2146     		mov	r1, r4
ARM GAS  C:\Users\diego\AppData\Local\Temp\ccvEcbYb.s 			page 22


 775 0184 FFF7FEFF 		bl	write_eeprom
 776              	.LVL103:
 331:.\protocolo.c **** 					write_eeprom(475,rventa.ppu);
 777              		.loc 1 331 0
 778 0188 4FF4E970 		mov	r0, #466
 779 018c 04F10901 		add	r1, r4, #9
 780 0190 FFF7FEFF 		bl	write_eeprom
 781              	.LVL104:
 332:.\protocolo.c **** 				}				
 782              		.loc 1 332 0
 783 0194 40F2DB10 		movw	r0, #475
 784 0198 E11F     		subs	r1, r4, #7
 785 019a FFF7FEFF 		bl	write_eeprom
 786              	.LVL105:
 339:.\protocolo.c ****             }
 787              		.loc 1 339 0
 788 019e 0120     		movs	r0, #1
 789 01a0 19E0     		b	.L45
 790              	.L59:
 335:.\protocolo.c **** 					write_eeprom(500,rventa.ppu);
 791              		.loc 1 335 0
 792 01a2 104C     		ldr	r4, .L67+8
 793 01a4 4FF4F170 		mov	r0, #482
 794 01a8 2146     		mov	r1, r4
 795 01aa FFF7FEFF 		bl	write_eeprom
 796              	.LVL106:
 336:.\protocolo.c **** 					write_eeprom(491,rventa.volumen);				
 797              		.loc 1 336 0
 798 01ae 4FF4FA70 		mov	r0, #500
 799 01b2 E11F     		subs	r1, r4, #7
 800 01b4 FFF7FEFF 		bl	write_eeprom
 801              	.LVL107:
 337:.\protocolo.c **** 				}
 802              		.loc 1 337 0
 803 01b8 40F2EB10 		movw	r0, #491
 804 01bc 04F10901 		add	r1, r4, #9
 805 01c0 FFF7FEFF 		bl	write_eeprom
 806              	.LVL108:
 339:.\protocolo.c ****             }
 807              		.loc 1 339 0
 808 01c4 0120     		movs	r0, #1
 809 01c6 06E0     		b	.L45
 810              	.LVL109:
 811              	.L61:
 346:.\protocolo.c ****         }
 812              		.loc 1 346 0
 813 01c8 0020     		movs	r0, #0
 814 01ca 04E0     		b	.L45
 815              	.L62:
 816 01cc 0020     		movs	r0, #0
 817 01ce 02E0     		b	.L45
 818              	.LVL110:
 819              	.L64:
 342:.\protocolo.c ****             }
 820              		.loc 1 342 0
 821 01d0 0020     		movs	r0, #0
 822 01d2 00E0     		b	.L45
ARM GAS  C:\Users\diego\AppData\Local\Temp\ccvEcbYb.s 			page 23


 823              	.L65:
 824 01d4 0020     		movs	r0, #0
 825              	.LVL111:
 826              	.L45:
 351:.\protocolo.c ****     }
 352:.\protocolo.c **** }
 827              		.loc 1 352 0
 828 01d6 0BB0     		add	sp, sp, #44
 829              		.cfi_def_cfa_offset 12
 830              		@ sp needed
 831 01d8 30BD     		pop	{r4, r5, pc}
 832              	.L68:
 833 01da 00BF     		.align	2
 834              	.L67:
 835 01dc 00000000 		.word	rventa
 836 01e0 00000000 		.word	a
 837 01e4 AB000000 		.word	rventa+171
 838              		.cfi_endproc
 839              	.LFE66:
 840              		.size	venta, .-venta
 841              		.section	.text.get_totales,"ax",%progbits
 842              		.align	2
 843              		.global	get_totales
 844              		.thumb
 845              		.thumb_func
 846              		.type	get_totales, %function
 847              	get_totales:
 848              	.LFB67:
 353:.\protocolo.c **** 
 354:.\protocolo.c **** /*
 355:.\protocolo.c **** ***************************************************************************************************
 356:.\protocolo.c **** *                                         uint8 get_totales(uint8 dir)
 357:.\protocolo.c **** *
 358:.\protocolo.c **** * Description : 
 359:.\protocolo.c **** *               
 360:.\protocolo.c **** *
 361:.\protocolo.c **** * Argument(s) : none
 362:.\protocolo.c **** *
 363:.\protocolo.c **** * Return(s)   : none
 364:.\protocolo.c **** *
 365:.\protocolo.c **** * Caller(s)   : 
 366:.\protocolo.c **** *
 367:.\protocolo.c **** * Note(s)     : none.
 368:.\protocolo.c **** ***************************************************************************************************
 369:.\protocolo.c **** */
 370:.\protocolo.c **** uint8 get_totales(uint8 dir,uint8 val){ 
 849              		.loc 1 370 0
 850              		.cfi_startproc
 851              		@ args = 0, pretend = 0, frame = 64
 852              		@ frame_needed = 0, uses_anonymous_args = 0
 853              	.LVL112:
 854 0000 70B5     		push	{r4, r5, r6, lr}
 855              		.cfi_def_cfa_offset 16
 856              		.cfi_offset 4, -16
 857              		.cfi_offset 5, -12
 858              		.cfi_offset 6, -8
 859              		.cfi_offset 14, -4
ARM GAS  C:\Users\diego\AppData\Local\Temp\ccvEcbYb.s 			page 24


 860 0002 90B0     		sub	sp, sp, #64
 861              		.cfi_def_cfa_offset 80
 862 0004 0546     		mov	r5, r0
 863 0006 0C46     		mov	r4, r1
 371:.\protocolo.c **** 	uint8 corte[25], minuendo[14],sustraendo[14]; 
 372:.\protocolo.c ****     uint8 tam;    
 373:.\protocolo.c ****     Surtidor_PutChar(0x50|dir);    
 864              		.loc 1 373 0
 865 0008 40F05000 		orr	r0, r0, #80
 866              	.LVL113:
 867 000c FFF7FEFF 		bl	Surtidor_PutChar
 868              	.LVL114:
 374:.\protocolo.c ****     CyDelay(1000);
 869              		.loc 1 374 0
 870 0010 4FF47A70 		mov	r0, #1000
 871 0014 FFF7FEFF 		bl	CyDelay
 872              	.LVL115:
 375:.\protocolo.c ****     tam = Surtidor_GetRxBufferSize();
 873              		.loc 1 375 0
 874 0018 FFF7FEFF 		bl	Surtidor_GetRxBufferSize
 875              	.LVL116:
 876 001c C0B2     		uxtb	r0, r0
 877              	.LVL117:
 376:.\protocolo.c **** 	switch(tam){
 878              		.loc 1 376 0
 879 001e 4028     		cmp	r0, #64
 880 0020 00F04E84 		beq	.L71
 881 0024 06D8     		bhi	.L72
 882 0026 2228     		cmp	r0, #34
 883 0028 0FD0     		beq	.L73
 884 002a 2E28     		cmp	r0, #46
 885 002c 01F0EC84 		beq	.L74
 886 0030 03F00BBB 		b	.L70
 887              	.L72:
 888 0034 5E28     		cmp	r0, #94
 889 0036 01F09580 		beq	.L75
 890 003a 8228     		cmp	r0, #130
 891 003c 02F0B286 		beq	.L76
 892 0040 5828     		cmp	r0, #88
 893 0042 43F00283 		bne	.L70
 894 0046 02F01DBA 		b	.L77
 895              	.L73:
 377:.\protocolo.c **** 		case 34:
 378:.\protocolo.c **** 			if((Surtidor_rxBuffer[0]==0xFF)&&(Surtidor_rxBuffer[1]==0xF6)&&(Surtidor_rxBuffer[33]==0xF0)&&(S
 896              		.loc 1 378 0
 897 004a A24B     		ldr	r3, .L641
 898 004c 1B78     		ldrb	r3, [r3]	@ zero_extendqisi2
 899 004e DBB2     		uxtb	r3, r3
 900 0050 FF2B     		cmp	r3, #255
 901 0052 43F00F83 		bne	.L616
 902              		.loc 1 378 0 is_stmt 0 discriminator 1
 903 0056 9F4B     		ldr	r3, .L641
 904 0058 5B78     		ldrb	r3, [r3, #1]	@ zero_extendqisi2
 905 005a DBB2     		uxtb	r3, r3
 906 005c F62B     		cmp	r3, #246
 907 005e 43F00B83 		bne	.L617
 908              		.loc 1 378 0 discriminator 2
ARM GAS  C:\Users\diego\AppData\Local\Temp\ccvEcbYb.s 			page 25


 909 0062 9C4B     		ldr	r3, .L641
 910 0064 93F82130 		ldrb	r3, [r3, #33]	@ zero_extendqisi2
 911 0068 DBB2     		uxtb	r3, r3
 912 006a F02B     		cmp	r3, #240
 913 006c 43F00683 		bne	.L618
 914              		.loc 1 378 0 discriminator 3
 915 0070 984B     		ldr	r3, .L641
 916 0072 DB78     		ldrb	r3, [r3, #3]	@ zero_extendqisi2
 917 0074 DBB2     		uxtb	r3, r3
 918 0076 F92B     		cmp	r3, #249
 919 0078 43F00283 		bne	.L619
 379:.\protocolo.c **** 				rventa.manguera=(Surtidor_rxBuffer[2]&0x0F)+1;			
 920              		.loc 1 379 0 is_stmt 1
 921 007c 954B     		ldr	r3, .L641
 922 007e 9978     		ldrb	r1, [r3, #2]	@ zero_extendqisi2
 923 0080 01F00F01 		and	r1, r1, #15
 924 0084 0131     		adds	r1, r1, #1
 925 0086 944B     		ldr	r3, .L641+4
 926 0088 83F8E010 		strb	r1, [r3, #224]
 380:.\protocolo.c **** 				for(x=0;x<=7;x++){												
 927              		.loc 1 380 0
 928 008c 0022     		movs	r2, #0
 929 008e 934B     		ldr	r3, .L641+8
 930 0090 1A60     		str	r2, [r3]
 931 0092 0BE0     		b	.L79
 932              	.LVL118:
 933              	.L80:
 381:.\protocolo.c **** 					rventa.tvolumen[x]=(Surtidor_rxBuffer[x+4]&0x0F);
 934              		.loc 1 381 0 discriminator 3
 935 0094 1A1D     		adds	r2, r3, #4
 936 0096 8F48     		ldr	r0, .L641
 937 0098 805C     		ldrb	r0, [r0, r2]	@ zero_extendqisi2
 938 009a 8F4A     		ldr	r2, .L641+4
 939 009c 1A44     		add	r2, r2, r3
 940 009e 00F00F00 		and	r0, r0, #15
 941 00a2 82F8BD00 		strb	r0, [r2, #189]
 380:.\protocolo.c **** 				for(x=0;x<=7;x++){												
 942              		.loc 1 380 0 discriminator 3
 943 00a6 0133     		adds	r3, r3, #1
 944 00a8 8C4A     		ldr	r2, .L641+8
 945 00aa 1360     		str	r3, [r2]
 946              	.L79:
 380:.\protocolo.c **** 				for(x=0;x<=7;x++){												
 947              		.loc 1 380 0 is_stmt 0 discriminator 1
 948 00ac 8B4B     		ldr	r3, .L641+8
 949 00ae 1B68     		ldr	r3, [r3]
 950 00b0 072B     		cmp	r3, #7
 951 00b2 EFD9     		bls	.L80
 382:.\protocolo.c **** 				}
 383:.\protocolo.c **** 				for(x=0;x<=7;x++){
 952              		.loc 1 383 0 is_stmt 1
 953 00b4 0022     		movs	r2, #0
 954 00b6 894B     		ldr	r3, .L641+8
 955 00b8 1A60     		str	r2, [r3]
 956 00ba 0CE0     		b	.L81
 957              	.L82:
 384:.\protocolo.c **** 					rventa.tdinero[x]=(Surtidor_rxBuffer[x+13]&0x0F);
ARM GAS  C:\Users\diego\AppData\Local\Temp\ccvEcbYb.s 			page 26


 958              		.loc 1 384 0 discriminator 3
 959 00bc 03F10D02 		add	r2, r3, #13
 960 00c0 8448     		ldr	r0, .L641
 961 00c2 805C     		ldrb	r0, [r0, r2]	@ zero_extendqisi2
 962 00c4 844A     		ldr	r2, .L641+4
 963 00c6 1A44     		add	r2, r2, r3
 964 00c8 00F00F00 		and	r0, r0, #15
 965 00cc 82F8CA00 		strb	r0, [r2, #202]
 383:.\protocolo.c **** 					rventa.tdinero[x]=(Surtidor_rxBuffer[x+13]&0x0F);
 966              		.loc 1 383 0 discriminator 3
 967 00d0 0133     		adds	r3, r3, #1
 968 00d2 824A     		ldr	r2, .L641+8
 969 00d4 1360     		str	r3, [r2]
 970              	.L81:
 383:.\protocolo.c **** 					rventa.tdinero[x]=(Surtidor_rxBuffer[x+13]&0x0F);
 971              		.loc 1 383 0 is_stmt 0 discriminator 1
 972 00d6 814B     		ldr	r3, .L641+8
 973 00d8 1B68     		ldr	r3, [r3]
 974 00da 072B     		cmp	r3, #7
 975 00dc EED9     		bls	.L82
 385:.\protocolo.c **** 				}
 386:.\protocolo.c **** 				for(z=0;z<=7;z++){
 976              		.loc 1 386 0 is_stmt 1
 977 00de 0022     		movs	r2, #0
 978 00e0 7F4B     		ldr	r3, .L641+12
 979 00e2 1A60     		str	r2, [r3]
 980 00e4 0AE0     		b	.L83
 981              	.L84:
 387:.\protocolo.c **** 					corte[z+1]=rventa.tvolumen[z];
 982              		.loc 1 387 0 discriminator 3
 983 00e6 5A1C     		adds	r2, r3, #1
 984 00e8 7B48     		ldr	r0, .L641+4
 985 00ea 0344     		add	r3, r3, r0
 986 00ec 93F8BD00 		ldrb	r0, [r3, #189]	@ zero_extendqisi2
 987 00f0 10AB     		add	r3, sp, #64
 988 00f2 1344     		add	r3, r3, r2
 989 00f4 03F81C0C 		strb	r0, [r3, #-28]
 386:.\protocolo.c **** 					corte[z+1]=rventa.tvolumen[z];
 990              		.loc 1 386 0 discriminator 3
 991 00f8 794B     		ldr	r3, .L641+12
 992 00fa 1A60     		str	r2, [r3]
 993              	.L83:
 386:.\protocolo.c **** 					corte[z+1]=rventa.tvolumen[z];
 994              		.loc 1 386 0 is_stmt 0 discriminator 1
 995 00fc 784B     		ldr	r3, .L641+12
 996 00fe 1B68     		ldr	r3, [r3]
 997 0100 072B     		cmp	r3, #7
 998 0102 F0D9     		bls	.L84
 388:.\protocolo.c **** 				}
 389:.\protocolo.c **** 				for(z=9;z<=16;z++){
 999              		.loc 1 389 0 is_stmt 1
 1000 0104 0922     		movs	r2, #9
 1001 0106 764B     		ldr	r3, .L641+12
 1002 0108 1A60     		str	r2, [r3]
 1003 010a 0AE0     		b	.L85
 1004              	.L86:
 390:.\protocolo.c **** 					corte[z]=rventa.tdinero[z-9];
ARM GAS  C:\Users\diego\AppData\Local\Temp\ccvEcbYb.s 			page 27


 1005              		.loc 1 390 0 discriminator 3
 1006 010c 754A     		ldr	r2, .L641+16
 1007 010e 1A44     		add	r2, r2, r3
 1008 0110 92F8CA00 		ldrb	r0, [r2, #202]	@ zero_extendqisi2
 1009 0114 10AA     		add	r2, sp, #64
 1010 0116 1A44     		add	r2, r2, r3
 1011 0118 02F81C0C 		strb	r0, [r2, #-28]
 389:.\protocolo.c **** 					corte[z]=rventa.tdinero[z-9];
 1012              		.loc 1 389 0 discriminator 3
 1013 011c 0133     		adds	r3, r3, #1
 1014 011e 704A     		ldr	r2, .L641+12
 1015 0120 1360     		str	r3, [r2]
 1016              	.L85:
 389:.\protocolo.c **** 					corte[z]=rventa.tdinero[z-9];
 1017              		.loc 1 389 0 is_stmt 0 discriminator 1
 1018 0122 6F4B     		ldr	r3, .L641+12
 1019 0124 1B68     		ldr	r3, [r3]
 1020 0126 102B     		cmp	r3, #16
 1021 0128 F0D9     		bls	.L86
 391:.\protocolo.c **** 				}
 392:.\protocolo.c **** 				corte[0]=16;				
 1022              		.loc 1 392 0 is_stmt 1
 1023 012a 1023     		movs	r3, #16
 1024 012c 8DF82430 		strb	r3, [sp, #36]
 393:.\protocolo.c **** 				if(((rventa.manguera==(producto1&0x0F))&&(dir==a.dir))||((rventa.manguera==(producto1&0x0F))&&(
 1025              		.loc 1 393 0
 1026 0130 6D4B     		ldr	r3, .L641+20
 1027 0132 1B78     		ldrb	r3, [r3]	@ zero_extendqisi2
 1028 0134 03F00F03 		and	r3, r3, #15
 1029 0138 9942     		cmp	r1, r3
 1030 013a 07D1     		bne	.L87
 1031              		.loc 1 393 0 is_stmt 0 discriminator 1
 1032 013c 6B4B     		ldr	r3, .L641+24
 1033 013e 1B78     		ldrb	r3, [r3]	@ zero_extendqisi2
 1034 0140 AB42     		cmp	r3, r5
 1035 0142 15D0     		beq	.L88
 1036              		.loc 1 393 0 discriminator 3
 1037 0144 6A4B     		ldr	r3, .L641+28
 1038 0146 1B78     		ldrb	r3, [r3]	@ zero_extendqisi2
 1039 0148 AB42     		cmp	r3, r5
 1040 014a 11D0     		beq	.L88
 1041              	.L87:
 1042              		.loc 1 393 0 discriminator 4
 1043 014c 694B     		ldr	r3, .L641+32
 1044 014e 1B78     		ldrb	r3, [r3]	@ zero_extendqisi2
 1045 0150 03F00F03 		and	r3, r3, #15
 1046 0154 9942     		cmp	r1, r3
 1047 0156 03D1     		bne	.L89
 1048              		.loc 1 393 0 discriminator 5
 1049 0158 674A     		ldr	r2, .L641+36
 1050 015a 1278     		ldrb	r2, [r2]	@ zero_extendqisi2
 1051 015c AA42     		cmp	r2, r5
 1052 015e 07D0     		beq	.L88
 1053              	.L89:
 1054              		.loc 1 393 0 discriminator 7
 1055 0160 9942     		cmp	r1, r3
 1056 0162 40F0E180 		bne	.L90
ARM GAS  C:\Users\diego\AppData\Local\Temp\ccvEcbYb.s 			page 28


 1057              		.loc 1 393 0 discriminator 8
 1058 0166 654B     		ldr	r3, .L641+40
 1059 0168 1B78     		ldrb	r3, [r3]	@ zero_extendqisi2
 1060 016a AB42     		cmp	r3, r5
 1061 016c 40F0DC80 		bne	.L90
 1062              	.L88:
 394:.\protocolo.c **** 					for(x=0;x<=5;x++){									
 1063              		.loc 1 394 0 is_stmt 1
 1064 0170 0022     		movs	r2, #0
 1065 0172 5A4B     		ldr	r3, .L641+8
 1066 0174 1A60     		str	r2, [r3]
 1067 0176 08E0     		b	.L91
 1068              	.L92:
 395:.\protocolo.c **** 						write_psoc1(val,msn_tc[x]);
 1069              		.loc 1 395 0 discriminator 3
 1070 0178 2046     		mov	r0, r4
 1071 017a 614A     		ldr	r2, .L641+44
 1072 017c D15C     		ldrb	r1, [r2, r3]	@ zero_extendqisi2
 1073 017e FFF7FEFF 		bl	write_psoc1
 1074              	.LVL119:
 394:.\protocolo.c **** 					for(x=0;x<=5;x++){									
 1075              		.loc 1 394 0 discriminator 3
 1076 0182 564A     		ldr	r2, .L641+8
 1077 0184 1368     		ldr	r3, [r2]
 1078 0186 0133     		adds	r3, r3, #1
 1079 0188 1360     		str	r3, [r2]
 1080              	.L91:
 394:.\protocolo.c **** 					for(x=0;x<=5;x++){									
 1081              		.loc 1 394 0 is_stmt 0 discriminator 1
 1082 018a 544B     		ldr	r3, .L641+8
 1083 018c 1B68     		ldr	r3, [r3]
 1084 018e 052B     		cmp	r3, #5
 1085 0190 F2D9     		bls	.L92
 396:.\protocolo.c **** 					}
 397:.\protocolo.c **** 					write_psoc1(val,10);
 1086              		.loc 1 397 0 is_stmt 1
 1087 0192 2046     		mov	r0, r4
 1088 0194 0A21     		movs	r1, #10
 1089 0196 FFF7FEFF 		bl	write_psoc1
 1090              	.LVL120:
 398:.\protocolo.c ****                     for(x=0;x<=10;x++){									
 1091              		.loc 1 398 0
 1092 019a 0022     		movs	r2, #0
 1093 019c 4F4B     		ldr	r3, .L641+8
 1094 019e 1A60     		str	r2, [r3]
 1095 01a0 08E0     		b	.L93
 1096              	.L94:
 399:.\protocolo.c **** 						write_psoc1(val,producto1n[x]);
 1097              		.loc 1 399 0 discriminator 3
 1098 01a2 2046     		mov	r0, r4
 1099 01a4 574A     		ldr	r2, .L641+48
 1100 01a6 D15C     		ldrb	r1, [r2, r3]	@ zero_extendqisi2
 1101 01a8 FFF7FEFF 		bl	write_psoc1
 1102              	.LVL121:
 398:.\protocolo.c ****                     for(x=0;x<=10;x++){									
 1103              		.loc 1 398 0 discriminator 3
 1104 01ac 4B4A     		ldr	r2, .L641+8
ARM GAS  C:\Users\diego\AppData\Local\Temp\ccvEcbYb.s 			page 29


 1105 01ae 1368     		ldr	r3, [r2]
 1106 01b0 0133     		adds	r3, r3, #1
 1107 01b2 1360     		str	r3, [r2]
 1108              	.L93:
 398:.\protocolo.c ****                     for(x=0;x<=10;x++){									
 1109              		.loc 1 398 0 is_stmt 0 discriminator 1
 1110 01b4 494B     		ldr	r3, .L641+8
 1111 01b6 1B68     		ldr	r3, [r3]
 1112 01b8 0A2B     		cmp	r3, #10
 1113 01ba F2D9     		bls	.L94
 400:.\protocolo.c **** 					}
 401:.\protocolo.c ****                     write_psoc1(val,10);
 1114              		.loc 1 401 0 is_stmt 1
 1115 01bc 2046     		mov	r0, r4
 1116 01be 0A21     		movs	r1, #10
 1117 01c0 FFF7FEFF 		bl	write_psoc1
 1118              	.LVL122:
 402:.\protocolo.c **** 					for(x=0;x<=14;x++){									
 1119              		.loc 1 402 0
 1120 01c4 0022     		movs	r2, #0
 1121 01c6 454B     		ldr	r3, .L641+8
 1122 01c8 1A60     		str	r2, [r3]
 1123 01ca 09E0     		b	.L95
 1124              	.L96:
 403:.\protocolo.c **** 						write_psoc1(val,msn_lecact[x]);				//LECTURA ACTUAL
 1125              		.loc 1 403 0 discriminator 3
 1126 01cc 4C4A     		ldr	r2, .L641+44
 1127 01ce 1344     		add	r3, r3, r2
 1128 01d0 2046     		mov	r0, r4
 1129 01d2 197A     		ldrb	r1, [r3, #8]	@ zero_extendqisi2
 1130 01d4 FFF7FEFF 		bl	write_psoc1
 1131              	.LVL123:
 402:.\protocolo.c **** 					for(x=0;x<=14;x++){									
 1132              		.loc 1 402 0 discriminator 3
 1133 01d8 404A     		ldr	r2, .L641+8
 1134 01da 1368     		ldr	r3, [r2]
 1135 01dc 0133     		adds	r3, r3, #1
 1136 01de 1360     		str	r3, [r2]
 1137              	.L95:
 402:.\protocolo.c **** 					for(x=0;x<=14;x++){									
 1138              		.loc 1 402 0 is_stmt 0 discriminator 1
 1139 01e0 3E4B     		ldr	r3, .L641+8
 1140 01e2 1B68     		ldr	r3, [r3]
 1141 01e4 0E2B     		cmp	r3, #14
 1142 01e6 F1D9     		bls	.L96
 404:.\protocolo.c **** 					}
 405:.\protocolo.c **** 					write_psoc1(val,10);
 1143              		.loc 1 405 0 is_stmt 1
 1144 01e8 2046     		mov	r0, r4
 1145 01ea 0A21     		movs	r1, #10
 1146 01ec FFF7FEFF 		bl	write_psoc1
 1147              	.LVL124:
 406:.\protocolo.c **** 					print_totalesac(8,val);	
 1148              		.loc 1 406 0
 1149 01f0 0820     		movs	r0, #8
 1150 01f2 2146     		mov	r1, r4
 1151 01f4 FFF7FEFF 		bl	print_totalesac
ARM GAS  C:\Users\diego\AppData\Local\Temp\ccvEcbYb.s 			page 30


 1152              	.LVL125:
 407:.\protocolo.c **** 					for(x=0;x<=16;x++){												
 1153              		.loc 1 407 0
 1154 01f8 0022     		movs	r2, #0
 1155 01fa 384B     		ldr	r3, .L641+8
 1156 01fc 1A60     		str	r2, [r3]
 1157 01fe 09E0     		b	.L97
 1158              	.L98:
 408:.\protocolo.c **** 						write_psoc1(val,msn_lecaan[x]);				//LECTURA ANTERIOR
 1159              		.loc 1 408 0 discriminator 3
 1160 0200 3F4A     		ldr	r2, .L641+44
 1161 0202 1344     		add	r3, r3, r2
 1162 0204 2046     		mov	r0, r4
 1163 0206 197E     		ldrb	r1, [r3, #24]	@ zero_extendqisi2
 1164 0208 FFF7FEFF 		bl	write_psoc1
 1165              	.LVL126:
 407:.\protocolo.c **** 					for(x=0;x<=16;x++){												
 1166              		.loc 1 407 0 discriminator 3
 1167 020c 334A     		ldr	r2, .L641+8
 1168 020e 1368     		ldr	r3, [r2]
 1169 0210 0133     		adds	r3, r3, #1
 1170 0212 1360     		str	r3, [r2]
 1171              	.L97:
 407:.\protocolo.c **** 					for(x=0;x<=16;x++){												
 1172              		.loc 1 407 0 is_stmt 0 discriminator 1
 1173 0214 314B     		ldr	r3, .L641+8
 1174 0216 1B68     		ldr	r3, [r3]
 1175 0218 102B     		cmp	r3, #16
 1176 021a F1D9     		bls	.L98
 409:.\protocolo.c **** 					}
 410:.\protocolo.c **** 					write_psoc1(val,10);
 1177              		.loc 1 410 0 is_stmt 1
 1178 021c 2046     		mov	r0, r4
 1179 021e 0A21     		movs	r1, #10
 1180 0220 FFF7FEFF 		bl	write_psoc1
 1181              	.LVL127:
 411:.\protocolo.c **** 					if(dir==a.dir){
 1182              		.loc 1 411 0
 1183 0224 314B     		ldr	r3, .L641+24
 1184 0226 1B78     		ldrb	r3, [r3]	@ zero_extendqisi2
 1185 0228 AB42     		cmp	r3, r5
 1186 022a 04D1     		bne	.L99
 412:.\protocolo.c **** 						leer_eeprom(192,25);
 1187              		.loc 1 412 0
 1188 022c C020     		movs	r0, #192
 1189 022e 1921     		movs	r1, #25
 1190 0230 FFF7FEFF 		bl	leer_eeprom
 1191              	.LVL128:
 1192 0234 04E0     		b	.L100
 1193              	.L99:
 413:.\protocolo.c **** 					}
 414:.\protocolo.c **** 					else{
 415:.\protocolo.c **** 						leer_eeprom(281,25);
 1194              		.loc 1 415 0
 1195 0236 40F21910 		movw	r0, #281
 1196 023a 1921     		movs	r1, #25
 1197 023c FFF7FEFF 		bl	leer_eeprom
ARM GAS  C:\Users\diego\AppData\Local\Temp\ccvEcbYb.s 			page 31


 1198              	.LVL129:
 1199              	.L100:
 416:.\protocolo.c **** 					}
 417:.\protocolo.c **** 					print_totales(val);
 1200              		.loc 1 417 0
 1201 0240 2046     		mov	r0, r4
 1202 0242 FFF7FEFF 		bl	print_totales
 1203              	.LVL130:
 418:.\protocolo.c **** 					for(z=1;z<=8;z++){
 1204              		.loc 1 418 0
 1205 0246 0122     		movs	r2, #1
 1206 0248 254B     		ldr	r3, .L641+12
 1207 024a 1A60     		str	r2, [r3]
 1208 024c 10E0     		b	.L101
 1209              	.L102:
 419:.\protocolo.c **** 						minuendo[z]=rventa.tdinero[z-1];
 1210              		.loc 1 419 0 discriminator 3
 1211 024e 2E4A     		ldr	r2, .L641+52
 1212 0250 1A44     		add	r2, r2, r3
 1213 0252 92F8CA10 		ldrb	r1, [r2, #202]	@ zero_extendqisi2
 1214 0256 10AA     		add	r2, sp, #64
 1215 0258 1A44     		add	r2, r2, r3
 1216 025a 02F82C1C 		strb	r1, [r2, #-44]
 420:.\protocolo.c **** 						sustraendo[z]=buffer_i2c[z+8];
 1217              		.loc 1 420 0 discriminator 3
 1218 025e 03F10801 		add	r1, r3, #8
 1219 0262 2A48     		ldr	r0, .L641+56
 1220 0264 415C     		ldrb	r1, [r0, r1]	@ zero_extendqisi2
 1221 0266 02F83C1C 		strb	r1, [r2, #-60]
 418:.\protocolo.c **** 					for(z=1;z<=8;z++){
 1222              		.loc 1 418 0 discriminator 3
 1223 026a 0133     		adds	r3, r3, #1
 1224 026c 1C4A     		ldr	r2, .L641+12
 1225 026e 1360     		str	r3, [r2]
 1226              	.L101:
 418:.\protocolo.c **** 					for(z=1;z<=8;z++){
 1227              		.loc 1 418 0 is_stmt 0 discriminator 1
 1228 0270 1B4B     		ldr	r3, .L641+12
 1229 0272 1B68     		ldr	r3, [r3]
 1230 0274 082B     		cmp	r3, #8
 1231 0276 EAD9     		bls	.L102
 421:.\protocolo.c **** 					}
 422:.\protocolo.c **** 					minuendo[0]=8;
 1232              		.loc 1 422 0 is_stmt 1
 1233 0278 10A9     		add	r1, sp, #64
 1234 027a 0823     		movs	r3, #8
 1235 027c 01F82C3D 		strb	r3, [r1, #-44]!
 423:.\protocolo.c **** 					operacion(2,minuendo,sustraendo);
 1236              		.loc 1 423 0
 1237 0280 0220     		movs	r0, #2
 1238 0282 01AA     		add	r2, sp, #4
 1239 0284 FFF7FEFF 		bl	operacion
 1240              	.LVL131:
 424:.\protocolo.c **** 					for(x=0;x<=17;x++){									
 1241              		.loc 1 424 0
 1242 0288 0022     		movs	r2, #0
 1243 028a 144B     		ldr	r3, .L641+8
ARM GAS  C:\Users\diego\AppData\Local\Temp\ccvEcbYb.s 			page 32


 1244 028c 1A60     		str	r2, [r3]
 1245 028e 0AE0     		b	.L103
 1246              	.L104:
 425:.\protocolo.c **** 						write_psoc1(val,msn_tventas[x]);				//Total de ventas
 1247              		.loc 1 425 0 discriminator 3
 1248 0290 1B4A     		ldr	r2, .L641+44
 1249 0292 1344     		add	r3, r3, r2
 1250 0294 2046     		mov	r0, r4
 1251 0296 93F82C10 		ldrb	r1, [r3, #44]	@ zero_extendqisi2
 1252 029a FFF7FEFF 		bl	write_psoc1
 1253              	.LVL132:
 424:.\protocolo.c **** 					for(x=0;x<=17;x++){									
 1254              		.loc 1 424 0 discriminator 3
 1255 029e 0F4A     		ldr	r2, .L641+8
 1256 02a0 1368     		ldr	r3, [r2]
 1257 02a2 0133     		adds	r3, r3, #1
 1258 02a4 1360     		str	r3, [r2]
 1259              	.L103:
 424:.\protocolo.c **** 					for(x=0;x<=17;x++){									
 1260              		.loc 1 424 0 is_stmt 0 discriminator 1
 1261 02a6 0D4B     		ldr	r3, .L641+8
 1262 02a8 1B68     		ldr	r3, [r3]
 1263 02aa 112B     		cmp	r3, #17
 1264 02ac F0D9     		bls	.L104
 426:.\protocolo.c **** 					}
 427:.\protocolo.c **** 					print_valor(resultado,val);
 1265              		.loc 1 427 0 is_stmt 1
 1266 02ae 1848     		ldr	r0, .L641+60
 1267 02b0 2146     		mov	r1, r4
 1268 02b2 FFF7FEFF 		bl	print_valor
 1269              	.LVL133:
 428:.\protocolo.c **** 					if(dir==a.dir){
 1270              		.loc 1 428 0
 1271 02b6 0D4B     		ldr	r3, .L641+24
 1272 02b8 1B78     		ldrb	r3, [r3]	@ zero_extendqisi2
 1273 02ba AB42     		cmp	r3, r5
 1274 02bc 2AD1     		bne	.L105
 429:.\protocolo.c **** 						write_eeprom(192,corte);	
 1275              		.loc 1 429 0
 1276 02be C020     		movs	r0, #192
 1277 02c0 09A9     		add	r1, sp, #36
 1278 02c2 FFF7FEFF 		bl	write_eeprom
 1279              	.LVL134:
 430:.\protocolo.c **** 						write_eeprom(512,resultado);
 1280              		.loc 1 430 0
 1281 02c6 4FF40070 		mov	r0, #512
 1282 02ca 1149     		ldr	r1, .L641+60
 1283 02cc FFF7FEFF 		bl	write_eeprom
 1284              	.LVL135:
 1285 02d0 2AE0     		b	.L90
 1286              	.L642:
 1287 02d2 00BF     		.align	2
 1288              	.L641:
 1289 02d4 00000000 		.word	Surtidor_rxBuffer
 1290 02d8 00000000 		.word	rventa
 1291 02dc 00000000 		.word	x
 1292 02e0 00000000 		.word	z
ARM GAS  C:\Users\diego\AppData\Local\Temp\ccvEcbYb.s 			page 33


 1293 02e4 F7FFFFFF 		.word	rventa-9
 1294 02e8 00000000 		.word	producto1
 1295 02ec 00000000 		.word	a
 1296 02f0 00000000 		.word	b
 1297 02f4 00000000 		.word	producto1b
 1298 02f8 00000000 		.word	c
 1299 02fc 00000000 		.word	d
 1300 0300 00000000 		.word	.LANCHOR1
 1301 0304 00000000 		.word	producto1n
 1302 0308 FFFFFFFF 		.word	rventa-1
 1303 030c 00000000 		.word	buffer_i2c
 1304 0310 00000000 		.word	resultado
 1305              	.L105:
 431:.\protocolo.c **** 					}
 432:.\protocolo.c **** 					else{
 433:.\protocolo.c **** 						write_eeprom(281,corte);
 1306              		.loc 1 433 0
 1307 0314 40F21910 		movw	r0, #281
 1308 0318 09A9     		add	r1, sp, #36
 1309 031a FFF7FEFF 		bl	write_eeprom
 1310              	.LVL136:
 434:.\protocolo.c **** 						write_eeprom(551,resultado);
 1311              		.loc 1 434 0
 1312 031e 40F22720 		movw	r0, #551
 1313 0322 A249     		ldr	r1, .L643
 1314 0324 FFF7FEFF 		bl	write_eeprom
 1315              	.LVL137:
 1316              	.L90:
 435:.\protocolo.c **** 					}
 436:.\protocolo.c **** 				}
 437:.\protocolo.c **** 				if(((rventa.manguera==(producto2&0x0F))&&(dir==a.dir))||((rventa.manguera==(producto2b&0x0F))&&
 1317              		.loc 1 437 0
 1318 0328 A14B     		ldr	r3, .L643+4
 1319 032a 93F8E030 		ldrb	r3, [r3, #224]	@ zero_extendqisi2
 1320 032e A14A     		ldr	r2, .L643+8
 1321 0330 1278     		ldrb	r2, [r2]	@ zero_extendqisi2
 1322 0332 02F00F02 		and	r2, r2, #15
 1323 0336 9A42     		cmp	r2, r3
 1324 0338 03D1     		bne	.L106
 1325              		.loc 1 437 0 is_stmt 0 discriminator 1
 1326 033a 9F49     		ldr	r1, .L643+12
 1327 033c 0978     		ldrb	r1, [r1]	@ zero_extendqisi2
 1328 033e A942     		cmp	r1, r5
 1329 0340 17D0     		beq	.L107
 1330              	.L106:
 1331              		.loc 1 437 0 discriminator 3
 1332 0342 9E49     		ldr	r1, .L643+16
 1333 0344 0978     		ldrb	r1, [r1]	@ zero_extendqisi2
 1334 0346 01F00F01 		and	r1, r1, #15
 1335 034a 8B42     		cmp	r3, r1
 1336 034c 03D1     		bne	.L108
 1337              		.loc 1 437 0 discriminator 4
 1338 034e 9C48     		ldr	r0, .L643+20
 1339 0350 0078     		ldrb	r0, [r0]	@ zero_extendqisi2
 1340 0352 A842     		cmp	r0, r5
 1341 0354 0DD0     		beq	.L107
 1342              	.L108:
ARM GAS  C:\Users\diego\AppData\Local\Temp\ccvEcbYb.s 			page 34


 1343              		.loc 1 437 0 discriminator 6
 1344 0356 8B42     		cmp	r3, r1
 1345 0358 03D1     		bne	.L109
 1346              		.loc 1 437 0 discriminator 7
 1347 035a 9A49     		ldr	r1, .L643+24
 1348 035c 0978     		ldrb	r1, [r1]	@ zero_extendqisi2
 1349 035e A942     		cmp	r1, r5
 1350 0360 07D0     		beq	.L107
 1351              	.L109:
 1352              		.loc 1 437 0 discriminator 9
 1353 0362 9A42     		cmp	r2, r3
 1354 0364 40F0C080 		bne	.L110
 1355              		.loc 1 437 0 discriminator 10
 1356 0368 974B     		ldr	r3, .L643+28
 1357 036a 1B78     		ldrb	r3, [r3]	@ zero_extendqisi2
 1358 036c AB42     		cmp	r3, r5
 1359 036e 40F0BB80 		bne	.L110
 1360              	.L107:
 438:.\protocolo.c **** 					for(x=0;x<=5;x++){									
 1361              		.loc 1 438 0 is_stmt 1
 1362 0372 0022     		movs	r2, #0
 1363 0374 954B     		ldr	r3, .L643+32
 1364 0376 1A60     		str	r2, [r3]
 1365 0378 08E0     		b	.L111
 1366              	.L112:
 439:.\protocolo.c **** 						write_psoc1(val,msn_tc[x]);
 1367              		.loc 1 439 0 discriminator 3
 1368 037a 2046     		mov	r0, r4
 1369 037c 944A     		ldr	r2, .L643+36
 1370 037e D15C     		ldrb	r1, [r2, r3]	@ zero_extendqisi2
 1371 0380 FFF7FEFF 		bl	write_psoc1
 1372              	.LVL138:
 438:.\protocolo.c **** 					for(x=0;x<=5;x++){									
 1373              		.loc 1 438 0 discriminator 3
 1374 0384 914A     		ldr	r2, .L643+32
 1375 0386 1368     		ldr	r3, [r2]
 1376 0388 0133     		adds	r3, r3, #1
 1377 038a 1360     		str	r3, [r2]
 1378              	.L111:
 438:.\protocolo.c **** 					for(x=0;x<=5;x++){									
 1379              		.loc 1 438 0 is_stmt 0 discriminator 1
 1380 038c 8F4B     		ldr	r3, .L643+32
 1381 038e 1B68     		ldr	r3, [r3]
 1382 0390 052B     		cmp	r3, #5
 1383 0392 F2D9     		bls	.L112
 440:.\protocolo.c **** 					}
 441:.\protocolo.c **** 					write_psoc1(val,10);
 1384              		.loc 1 441 0 is_stmt 1
 1385 0394 2046     		mov	r0, r4
 1386 0396 0A21     		movs	r1, #10
 1387 0398 FFF7FEFF 		bl	write_psoc1
 1388              	.LVL139:
 442:.\protocolo.c ****                     for(x=0;x<=10;x++){									
 1389              		.loc 1 442 0
 1390 039c 0022     		movs	r2, #0
 1391 039e 8B4B     		ldr	r3, .L643+32
 1392 03a0 1A60     		str	r2, [r3]
ARM GAS  C:\Users\diego\AppData\Local\Temp\ccvEcbYb.s 			page 35


 1393 03a2 08E0     		b	.L113
 1394              	.L114:
 443:.\protocolo.c **** 						write_psoc1(val,producto2n[x]);
 1395              		.loc 1 443 0 discriminator 3
 1396 03a4 2046     		mov	r0, r4
 1397 03a6 8B4A     		ldr	r2, .L643+40
 1398 03a8 D15C     		ldrb	r1, [r2, r3]	@ zero_extendqisi2
 1399 03aa FFF7FEFF 		bl	write_psoc1
 1400              	.LVL140:
 442:.\protocolo.c ****                     for(x=0;x<=10;x++){									
 1401              		.loc 1 442 0 discriminator 3
 1402 03ae 874A     		ldr	r2, .L643+32
 1403 03b0 1368     		ldr	r3, [r2]
 1404 03b2 0133     		adds	r3, r3, #1
 1405 03b4 1360     		str	r3, [r2]
 1406              	.L113:
 442:.\protocolo.c ****                     for(x=0;x<=10;x++){									
 1407              		.loc 1 442 0 is_stmt 0 discriminator 1
 1408 03b6 854B     		ldr	r3, .L643+32
 1409 03b8 1B68     		ldr	r3, [r3]
 1410 03ba 0A2B     		cmp	r3, #10
 1411 03bc F2D9     		bls	.L114
 444:.\protocolo.c **** 					}                    
 445:.\protocolo.c **** 					write_psoc1(val,10);
 1412              		.loc 1 445 0 is_stmt 1
 1413 03be 2046     		mov	r0, r4
 1414 03c0 0A21     		movs	r1, #10
 1415 03c2 FFF7FEFF 		bl	write_psoc1
 1416              	.LVL141:
 446:.\protocolo.c **** 					for(x=0;x<=14;x++){									
 1417              		.loc 1 446 0
 1418 03c6 0022     		movs	r2, #0
 1419 03c8 804B     		ldr	r3, .L643+32
 1420 03ca 1A60     		str	r2, [r3]
 1421 03cc 09E0     		b	.L115
 1422              	.L116:
 447:.\protocolo.c **** 						write_psoc1(val,msn_lecact[x]);				//LECTURA ACTUAL
 1423              		.loc 1 447 0 discriminator 3
 1424 03ce 804A     		ldr	r2, .L643+36
 1425 03d0 1344     		add	r3, r3, r2
 1426 03d2 2046     		mov	r0, r4
 1427 03d4 197A     		ldrb	r1, [r3, #8]	@ zero_extendqisi2
 1428 03d6 FFF7FEFF 		bl	write_psoc1
 1429              	.LVL142:
 446:.\protocolo.c **** 					for(x=0;x<=14;x++){									
 1430              		.loc 1 446 0 discriminator 3
 1431 03da 7C4A     		ldr	r2, .L643+32
 1432 03dc 1368     		ldr	r3, [r2]
 1433 03de 0133     		adds	r3, r3, #1
 1434 03e0 1360     		str	r3, [r2]
 1435              	.L115:
 446:.\protocolo.c **** 					for(x=0;x<=14;x++){									
 1436              		.loc 1 446 0 is_stmt 0 discriminator 1
 1437 03e2 7A4B     		ldr	r3, .L643+32
 1438 03e4 1B68     		ldr	r3, [r3]
 1439 03e6 0E2B     		cmp	r3, #14
 1440 03e8 F1D9     		bls	.L116
ARM GAS  C:\Users\diego\AppData\Local\Temp\ccvEcbYb.s 			page 36


 448:.\protocolo.c **** 					}
 449:.\protocolo.c **** 					write_psoc1(val,10);
 1441              		.loc 1 449 0 is_stmt 1
 1442 03ea 2046     		mov	r0, r4
 1443 03ec 0A21     		movs	r1, #10
 1444 03ee FFF7FEFF 		bl	write_psoc1
 1445              	.LVL143:
 450:.\protocolo.c **** 					print_totalesac(8,val);	
 1446              		.loc 1 450 0
 1447 03f2 0820     		movs	r0, #8
 1448 03f4 2146     		mov	r1, r4
 1449 03f6 FFF7FEFF 		bl	print_totalesac
 1450              	.LVL144:
 451:.\protocolo.c **** 					for(x=0;x<=16;x++){												
 1451              		.loc 1 451 0
 1452 03fa 0022     		movs	r2, #0
 1453 03fc 734B     		ldr	r3, .L643+32
 1454 03fe 1A60     		str	r2, [r3]
 1455 0400 09E0     		b	.L117
 1456              	.L118:
 452:.\protocolo.c **** 						write_psoc1(val,msn_lecaan[x]);				//LECTURA ANTERIOR
 1457              		.loc 1 452 0 discriminator 3
 1458 0402 734A     		ldr	r2, .L643+36
 1459 0404 1344     		add	r3, r3, r2
 1460 0406 2046     		mov	r0, r4
 1461 0408 197E     		ldrb	r1, [r3, #24]	@ zero_extendqisi2
 1462 040a FFF7FEFF 		bl	write_psoc1
 1463              	.LVL145:
 451:.\protocolo.c **** 					for(x=0;x<=16;x++){												
 1464              		.loc 1 451 0 discriminator 3
 1465 040e 6F4A     		ldr	r2, .L643+32
 1466 0410 1368     		ldr	r3, [r2]
 1467 0412 0133     		adds	r3, r3, #1
 1468 0414 1360     		str	r3, [r2]
 1469              	.L117:
 451:.\protocolo.c **** 					for(x=0;x<=16;x++){												
 1470              		.loc 1 451 0 is_stmt 0 discriminator 1
 1471 0416 6D4B     		ldr	r3, .L643+32
 1472 0418 1B68     		ldr	r3, [r3]
 1473 041a 102B     		cmp	r3, #16
 1474 041c F1D9     		bls	.L118
 453:.\protocolo.c **** 					}
 454:.\protocolo.c **** 					write_psoc1(val,10);
 1475              		.loc 1 454 0 is_stmt 1
 1476 041e 2046     		mov	r0, r4
 1477 0420 0A21     		movs	r1, #10
 1478 0422 FFF7FEFF 		bl	write_psoc1
 1479              	.LVL146:
 455:.\protocolo.c **** 					if(dir==a.dir){
 1480              		.loc 1 455 0
 1481 0426 644B     		ldr	r3, .L643+12
 1482 0428 1B78     		ldrb	r3, [r3]	@ zero_extendqisi2
 1483 042a AB42     		cmp	r3, r5
 1484 042c 04D1     		bne	.L119
 456:.\protocolo.c **** 						leer_eeprom(217,25);
 1485              		.loc 1 456 0
 1486 042e D920     		movs	r0, #217
ARM GAS  C:\Users\diego\AppData\Local\Temp\ccvEcbYb.s 			page 37


 1487 0430 1921     		movs	r1, #25
 1488 0432 FFF7FEFF 		bl	leer_eeprom
 1489              	.LVL147:
 1490 0436 04E0     		b	.L120
 1491              	.L119:
 457:.\protocolo.c **** 					}
 458:.\protocolo.c **** 					else{
 459:.\protocolo.c **** 						leer_eeprom(320,25);
 1492              		.loc 1 459 0
 1493 0438 4FF4A070 		mov	r0, #320
 1494 043c 1921     		movs	r1, #25
 1495 043e FFF7FEFF 		bl	leer_eeprom
 1496              	.LVL148:
 1497              	.L120:
 460:.\protocolo.c **** 					}
 461:.\protocolo.c **** 					print_totales(val);
 1498              		.loc 1 461 0
 1499 0442 2046     		mov	r0, r4
 1500 0444 FFF7FEFF 		bl	print_totales
 1501              	.LVL149:
 462:.\protocolo.c **** 					for(z=1;z<=8;z++){
 1502              		.loc 1 462 0
 1503 0448 0122     		movs	r2, #1
 1504 044a 634B     		ldr	r3, .L643+44
 1505 044c 1A60     		str	r2, [r3]
 1506 044e 10E0     		b	.L121
 1507              	.L122:
 463:.\protocolo.c **** 						minuendo[z]=rventa.tdinero[z-1];
 1508              		.loc 1 463 0 discriminator 3
 1509 0450 624A     		ldr	r2, .L643+48
 1510 0452 1A44     		add	r2, r2, r3
 1511 0454 92F8CA10 		ldrb	r1, [r2, #202]	@ zero_extendqisi2
 1512 0458 10AA     		add	r2, sp, #64
 1513 045a 1A44     		add	r2, r2, r3
 1514 045c 02F82C1C 		strb	r1, [r2, #-44]
 464:.\protocolo.c **** 						sustraendo[z]=buffer_i2c[z+8];
 1515              		.loc 1 464 0 discriminator 3
 1516 0460 03F10801 		add	r1, r3, #8
 1517 0464 5E48     		ldr	r0, .L643+52
 1518 0466 415C     		ldrb	r1, [r0, r1]	@ zero_extendqisi2
 1519 0468 02F83C1C 		strb	r1, [r2, #-60]
 462:.\protocolo.c **** 					for(z=1;z<=8;z++){
 1520              		.loc 1 462 0 discriminator 3
 1521 046c 0133     		adds	r3, r3, #1
 1522 046e 5A4A     		ldr	r2, .L643+44
 1523 0470 1360     		str	r3, [r2]
 1524              	.L121:
 462:.\protocolo.c **** 					for(z=1;z<=8;z++){
 1525              		.loc 1 462 0 is_stmt 0 discriminator 1
 1526 0472 594B     		ldr	r3, .L643+44
 1527 0474 1B68     		ldr	r3, [r3]
 1528 0476 082B     		cmp	r3, #8
 1529 0478 EAD9     		bls	.L122
 465:.\protocolo.c **** 					}
 466:.\protocolo.c **** 					minuendo[0]=8;
 1530              		.loc 1 466 0 is_stmt 1
 1531 047a 10A9     		add	r1, sp, #64
ARM GAS  C:\Users\diego\AppData\Local\Temp\ccvEcbYb.s 			page 38


 1532 047c 0823     		movs	r3, #8
 1533 047e 01F82C3D 		strb	r3, [r1, #-44]!
 467:.\protocolo.c **** 					operacion(2,minuendo,sustraendo);
 1534              		.loc 1 467 0
 1535 0482 0220     		movs	r0, #2
 1536 0484 01AA     		add	r2, sp, #4
 1537 0486 FFF7FEFF 		bl	operacion
 1538              	.LVL150:
 468:.\protocolo.c **** 					for(x=0;x<=17;x++){									
 1539              		.loc 1 468 0
 1540 048a 0022     		movs	r2, #0
 1541 048c 4F4B     		ldr	r3, .L643+32
 1542 048e 1A60     		str	r2, [r3]
 1543 0490 0AE0     		b	.L123
 1544              	.L124:
 469:.\protocolo.c **** 						write_psoc1(val,msn_tventas[x]);				//Total de ventas
 1545              		.loc 1 469 0 discriminator 3
 1546 0492 4F4A     		ldr	r2, .L643+36
 1547 0494 1344     		add	r3, r3, r2
 1548 0496 2046     		mov	r0, r4
 1549 0498 93F82C10 		ldrb	r1, [r3, #44]	@ zero_extendqisi2
 1550 049c FFF7FEFF 		bl	write_psoc1
 1551              	.LVL151:
 468:.\protocolo.c **** 					for(x=0;x<=17;x++){									
 1552              		.loc 1 468 0 discriminator 3
 1553 04a0 4A4A     		ldr	r2, .L643+32
 1554 04a2 1368     		ldr	r3, [r2]
 1555 04a4 0133     		adds	r3, r3, #1
 1556 04a6 1360     		str	r3, [r2]
 1557              	.L123:
 468:.\protocolo.c **** 					for(x=0;x<=17;x++){									
 1558              		.loc 1 468 0 is_stmt 0 discriminator 1
 1559 04a8 484B     		ldr	r3, .L643+32
 1560 04aa 1B68     		ldr	r3, [r3]
 1561 04ac 112B     		cmp	r3, #17
 1562 04ae F0D9     		bls	.L124
 470:.\protocolo.c **** 					}
 471:.\protocolo.c **** 					print_valor(resultado,val);				
 1563              		.loc 1 471 0 is_stmt 1
 1564 04b0 3E48     		ldr	r0, .L643
 1565 04b2 2146     		mov	r1, r4
 1566 04b4 FFF7FEFF 		bl	print_valor
 1567              	.LVL152:
 472:.\protocolo.c **** 					if(dir==a.dir){
 1568              		.loc 1 472 0
 1569 04b8 3F4B     		ldr	r3, .L643+12
 1570 04ba 1B78     		ldrb	r3, [r3]	@ zero_extendqisi2
 1571 04bc AB42     		cmp	r3, r5
 1572 04be 09D1     		bne	.L125
 473:.\protocolo.c **** 						write_eeprom(217,corte);
 1573              		.loc 1 473 0
 1574 04c0 D920     		movs	r0, #217
 1575 04c2 09A9     		add	r1, sp, #36
 1576 04c4 FFF7FEFF 		bl	write_eeprom
 1577              	.LVL153:
 474:.\protocolo.c **** 						write_eeprom(538,resultado);
 1578              		.loc 1 474 0
ARM GAS  C:\Users\diego\AppData\Local\Temp\ccvEcbYb.s 			page 39


 1579 04c8 40F21A20 		movw	r0, #538
 1580 04cc 3749     		ldr	r1, .L643
 1581 04ce FFF7FEFF 		bl	write_eeprom
 1582              	.LVL154:
 1583 04d2 09E0     		b	.L110
 1584              	.L125:
 475:.\protocolo.c **** 					}
 476:.\protocolo.c **** 					else{
 477:.\protocolo.c **** 						write_eeprom(320,corte);
 1585              		.loc 1 477 0
 1586 04d4 4FF4A070 		mov	r0, #320
 1587 04d8 09A9     		add	r1, sp, #36
 1588 04da FFF7FEFF 		bl	write_eeprom
 1589              	.LVL155:
 478:.\protocolo.c **** 						write_eeprom(576,resultado);
 1590              		.loc 1 478 0
 1591 04de 4FF41070 		mov	r0, #576
 1592 04e2 3249     		ldr	r1, .L643
 1593 04e4 FFF7FEFF 		bl	write_eeprom
 1594              	.LVL156:
 1595              	.L110:
 479:.\protocolo.c **** 					}				
 480:.\protocolo.c **** 				}
 481:.\protocolo.c **** 				if(((rventa.manguera==(producto3&0x0F))&&(dir==a.dir))||((rventa.manguera==(producto3b&0x0F))&&
 1596              		.loc 1 481 0
 1597 04e8 314B     		ldr	r3, .L643+4
 1598 04ea 93F8E020 		ldrb	r2, [r3, #224]	@ zero_extendqisi2
 1599 04ee 3D4B     		ldr	r3, .L643+56
 1600 04f0 1B78     		ldrb	r3, [r3]	@ zero_extendqisi2
 1601 04f2 03F00F03 		and	r3, r3, #15
 1602 04f6 9342     		cmp	r3, r2
 1603 04f8 03D1     		bne	.L126
 1604              		.loc 1 481 0 is_stmt 0 discriminator 1
 1605 04fa 2F4B     		ldr	r3, .L643+12
 1606 04fc 1B78     		ldrb	r3, [r3]	@ zero_extendqisi2
 1607 04fe AB42     		cmp	r3, r5
 1608 0500 0BD0     		beq	.L127
 1609              	.L126:
 1610              		.loc 1 481 0 discriminator 3
 1611 0502 394B     		ldr	r3, .L643+60
 1612 0504 1B78     		ldrb	r3, [r3]	@ zero_extendqisi2
 1613 0506 03F00F03 		and	r3, r3, #15
 1614 050a 9A42     		cmp	r2, r3
 1615 050c 40F0E580 		bne	.L128
 1616              		.loc 1 481 0 discriminator 4
 1617 0510 2B4B     		ldr	r3, .L643+20
 1618 0512 1B78     		ldrb	r3, [r3]	@ zero_extendqisi2
 1619 0514 AB42     		cmp	r3, r5
 1620 0516 40F0E080 		bne	.L128
 1621              	.L127:
 482:.\protocolo.c **** 					for(x=0;x<=5;x++){									
 1622              		.loc 1 482 0 is_stmt 1
 1623 051a 0022     		movs	r2, #0
 1624 051c 2B4B     		ldr	r3, .L643+32
 1625 051e 1A60     		str	r2, [r3]
 1626 0520 08E0     		b	.L129
 1627              	.L130:
ARM GAS  C:\Users\diego\AppData\Local\Temp\ccvEcbYb.s 			page 40


 483:.\protocolo.c **** 						    write_psoc1(val,msn_tc[x]);
 1628              		.loc 1 483 0 discriminator 3
 1629 0522 2046     		mov	r0, r4
 1630 0524 2A4A     		ldr	r2, .L643+36
 1631 0526 D15C     		ldrb	r1, [r2, r3]	@ zero_extendqisi2
 1632 0528 FFF7FEFF 		bl	write_psoc1
 1633              	.LVL157:
 482:.\protocolo.c **** 					for(x=0;x<=5;x++){									
 1634              		.loc 1 482 0 discriminator 3
 1635 052c 274A     		ldr	r2, .L643+32
 1636 052e 1368     		ldr	r3, [r2]
 1637 0530 0133     		adds	r3, r3, #1
 1638 0532 1360     		str	r3, [r2]
 1639              	.L129:
 482:.\protocolo.c **** 					for(x=0;x<=5;x++){									
 1640              		.loc 1 482 0 is_stmt 0 discriminator 1
 1641 0534 254B     		ldr	r3, .L643+32
 1642 0536 1B68     		ldr	r3, [r3]
 1643 0538 052B     		cmp	r3, #5
 1644 053a F2D9     		bls	.L130
 484:.\protocolo.c **** 					    }
 485:.\protocolo.c **** 					    write_psoc1(val,10);
 1645              		.loc 1 485 0 is_stmt 1
 1646 053c 2046     		mov	r0, r4
 1647 053e 0A21     		movs	r1, #10
 1648 0540 FFF7FEFF 		bl	write_psoc1
 1649              	.LVL158:
 486:.\protocolo.c ****                     for(x=0;x<=10;x++){									
 1650              		.loc 1 486 0
 1651 0544 0022     		movs	r2, #0
 1652 0546 214B     		ldr	r3, .L643+32
 1653 0548 1A60     		str	r2, [r3]
 1654 054a 08E0     		b	.L131
 1655              	.L132:
 487:.\protocolo.c **** 						    write_psoc1(val,producto3n[x]);
 1656              		.loc 1 487 0 discriminator 3
 1657 054c 2046     		mov	r0, r4
 1658 054e 274A     		ldr	r2, .L643+64
 1659 0550 D15C     		ldrb	r1, [r2, r3]	@ zero_extendqisi2
 1660 0552 FFF7FEFF 		bl	write_psoc1
 1661              	.LVL159:
 486:.\protocolo.c ****                     for(x=0;x<=10;x++){									
 1662              		.loc 1 486 0 discriminator 3
 1663 0556 1D4A     		ldr	r2, .L643+32
 1664 0558 1368     		ldr	r3, [r2]
 1665 055a 0133     		adds	r3, r3, #1
 1666 055c 1360     		str	r3, [r2]
 1667              	.L131:
 486:.\protocolo.c ****                     for(x=0;x<=10;x++){									
 1668              		.loc 1 486 0 is_stmt 0 discriminator 1
 1669 055e 1B4B     		ldr	r3, .L643+32
 1670 0560 1B68     		ldr	r3, [r3]
 1671 0562 0A2B     		cmp	r3, #10
 1672 0564 F2D9     		bls	.L132
 488:.\protocolo.c **** 					    }
 489:.\protocolo.c ****                     write_psoc1(val,10);
 1673              		.loc 1 489 0 is_stmt 1
ARM GAS  C:\Users\diego\AppData\Local\Temp\ccvEcbYb.s 			page 41


 1674 0566 2046     		mov	r0, r4
 1675 0568 0A21     		movs	r1, #10
 1676 056a FFF7FEFF 		bl	write_psoc1
 1677              	.LVL160:
 490:.\protocolo.c **** 					for(x=0;x<=14;x++){									
 1678              		.loc 1 490 0
 1679 056e 0022     		movs	r2, #0
 1680 0570 164B     		ldr	r3, .L643+32
 1681 0572 1A60     		str	r2, [r3]
 1682 0574 09E0     		b	.L133
 1683              	.L134:
 491:.\protocolo.c **** 						write_psoc1(val,msn_lecact[x]);				//LECTURA ACTUAL
 1684              		.loc 1 491 0 discriminator 3
 1685 0576 164A     		ldr	r2, .L643+36
 1686 0578 1344     		add	r3, r3, r2
 1687 057a 2046     		mov	r0, r4
 1688 057c 197A     		ldrb	r1, [r3, #8]	@ zero_extendqisi2
 1689 057e FFF7FEFF 		bl	write_psoc1
 1690              	.LVL161:
 490:.\protocolo.c **** 					for(x=0;x<=14;x++){									
 1691              		.loc 1 490 0 discriminator 3
 1692 0582 124A     		ldr	r2, .L643+32
 1693 0584 1368     		ldr	r3, [r2]
 1694 0586 0133     		adds	r3, r3, #1
 1695 0588 1360     		str	r3, [r2]
 1696              	.L133:
 490:.\protocolo.c **** 					for(x=0;x<=14;x++){									
 1697              		.loc 1 490 0 is_stmt 0 discriminator 1
 1698 058a 104B     		ldr	r3, .L643+32
 1699 058c 1B68     		ldr	r3, [r3]
 1700 058e 0E2B     		cmp	r3, #14
 1701 0590 F1D9     		bls	.L134
 492:.\protocolo.c **** 					}
 493:.\protocolo.c **** 					write_psoc1(val,10);
 1702              		.loc 1 493 0 is_stmt 1
 1703 0592 2046     		mov	r0, r4
 1704 0594 0A21     		movs	r1, #10
 1705 0596 FFF7FEFF 		bl	write_psoc1
 1706              	.LVL162:
 494:.\protocolo.c **** 					print_totalesac(8,val);	
 1707              		.loc 1 494 0
 1708 059a 0820     		movs	r0, #8
 1709 059c 2146     		mov	r1, r4
 1710 059e FFF7FEFF 		bl	print_totalesac
 1711              	.LVL163:
 495:.\protocolo.c **** 					for(x=0;x<=16;x++){												
 1712              		.loc 1 495 0
 1713 05a2 0022     		movs	r2, #0
 1714 05a4 094B     		ldr	r3, .L643+32
 1715 05a6 1A60     		str	r2, [r3]
 1716 05a8 2CE0     		b	.L135
 1717              	.L644:
 1718 05aa 00BF     		.align	2
 1719              	.L643:
 1720 05ac 00000000 		.word	resultado
 1721 05b0 00000000 		.word	rventa
 1722 05b4 00000000 		.word	producto2
ARM GAS  C:\Users\diego\AppData\Local\Temp\ccvEcbYb.s 			page 42


 1723 05b8 00000000 		.word	a
 1724 05bc 00000000 		.word	producto2b
 1725 05c0 00000000 		.word	b
 1726 05c4 00000000 		.word	d
 1727 05c8 00000000 		.word	c
 1728 05cc 00000000 		.word	x
 1729 05d0 00000000 		.word	.LANCHOR1
 1730 05d4 00000000 		.word	producto2n
 1731 05d8 00000000 		.word	z
 1732 05dc FFFFFFFF 		.word	rventa-1
 1733 05e0 00000000 		.word	buffer_i2c
 1734 05e4 00000000 		.word	producto3
 1735 05e8 00000000 		.word	producto3b
 1736 05ec 00000000 		.word	producto3n
 1737              	.L136:
 496:.\protocolo.c **** 						write_psoc1(val,msn_lecaan[x]);				//LECTURA ANTERIOR
 1738              		.loc 1 496 0 discriminator 3
 1739 05f0 A74A     		ldr	r2, .L645
 1740 05f2 1344     		add	r3, r3, r2
 1741 05f4 2046     		mov	r0, r4
 1742 05f6 197E     		ldrb	r1, [r3, #24]	@ zero_extendqisi2
 1743 05f8 FFF7FEFF 		bl	write_psoc1
 1744              	.LVL164:
 495:.\protocolo.c **** 					for(x=0;x<=16;x++){												
 1745              		.loc 1 495 0 discriminator 3
 1746 05fc A54A     		ldr	r2, .L645+4
 1747 05fe 1368     		ldr	r3, [r2]
 1748 0600 0133     		adds	r3, r3, #1
 1749 0602 1360     		str	r3, [r2]
 1750              	.L135:
 495:.\protocolo.c **** 					for(x=0;x<=16;x++){												
 1751              		.loc 1 495 0 is_stmt 0 discriminator 1
 1752 0604 A34B     		ldr	r3, .L645+4
 1753 0606 1B68     		ldr	r3, [r3]
 1754 0608 102B     		cmp	r3, #16
 1755 060a F1D9     		bls	.L136
 497:.\protocolo.c **** 					}
 498:.\protocolo.c **** 					write_psoc1(val,10);
 1756              		.loc 1 498 0 is_stmt 1
 1757 060c 2046     		mov	r0, r4
 1758 060e 0A21     		movs	r1, #10
 1759 0610 FFF7FEFF 		bl	write_psoc1
 1760              	.LVL165:
 499:.\protocolo.c **** 					if(dir==a.dir){
 1761              		.loc 1 499 0
 1762 0614 A04B     		ldr	r3, .L645+8
 1763 0616 1B78     		ldrb	r3, [r3]	@ zero_extendqisi2
 1764 0618 AB42     		cmp	r3, r5
 1765 061a 05D1     		bne	.L137
 500:.\protocolo.c **** 						leer_eeprom(256,25);
 1766              		.loc 1 500 0
 1767 061c 4FF48070 		mov	r0, #256
 1768 0620 1921     		movs	r1, #25
 1769 0622 FFF7FEFF 		bl	leer_eeprom
 1770              	.LVL166:
 1771 0626 04E0     		b	.L138
 1772              	.L137:
ARM GAS  C:\Users\diego\AppData\Local\Temp\ccvEcbYb.s 			page 43


 501:.\protocolo.c **** 					}
 502:.\protocolo.c **** 					else{
 503:.\protocolo.c **** 						leer_eeprom(345,25);
 1773              		.loc 1 503 0
 1774 0628 40F25910 		movw	r0, #345
 1775 062c 1921     		movs	r1, #25
 1776 062e FFF7FEFF 		bl	leer_eeprom
 1777              	.LVL167:
 1778              	.L138:
 504:.\protocolo.c **** 					}
 505:.\protocolo.c **** 					print_totales(val);
 1779              		.loc 1 505 0
 1780 0632 2046     		mov	r0, r4
 1781 0634 FFF7FEFF 		bl	print_totales
 1782              	.LVL168:
 506:.\protocolo.c **** 					for(z=1;z<=8;z++){
 1783              		.loc 1 506 0
 1784 0638 0122     		movs	r2, #1
 1785 063a 984B     		ldr	r3, .L645+12
 1786 063c 1A60     		str	r2, [r3]
 1787 063e 10E0     		b	.L139
 1788              	.L140:
 507:.\protocolo.c **** 						minuendo[z]=rventa.tdinero[z-1];
 1789              		.loc 1 507 0 discriminator 3
 1790 0640 974A     		ldr	r2, .L645+16
 1791 0642 1A44     		add	r2, r2, r3
 1792 0644 92F8CA10 		ldrb	r1, [r2, #202]	@ zero_extendqisi2
 1793 0648 10AA     		add	r2, sp, #64
 1794 064a 1A44     		add	r2, r2, r3
 1795 064c 02F82C1C 		strb	r1, [r2, #-44]
 508:.\protocolo.c **** 						sustraendo[z]=buffer_i2c[z+8];
 1796              		.loc 1 508 0 discriminator 3
 1797 0650 03F10801 		add	r1, r3, #8
 1798 0654 9348     		ldr	r0, .L645+20
 1799 0656 415C     		ldrb	r1, [r0, r1]	@ zero_extendqisi2
 1800 0658 02F83C1C 		strb	r1, [r2, #-60]
 506:.\protocolo.c **** 					for(z=1;z<=8;z++){
 1801              		.loc 1 506 0 discriminator 3
 1802 065c 0133     		adds	r3, r3, #1
 1803 065e 8F4A     		ldr	r2, .L645+12
 1804 0660 1360     		str	r3, [r2]
 1805              	.L139:
 506:.\protocolo.c **** 					for(z=1;z<=8;z++){
 1806              		.loc 1 506 0 is_stmt 0 discriminator 1
 1807 0662 8E4B     		ldr	r3, .L645+12
 1808 0664 1B68     		ldr	r3, [r3]
 1809 0666 082B     		cmp	r3, #8
 1810 0668 EAD9     		bls	.L140
 509:.\protocolo.c **** 					}
 510:.\protocolo.c **** 					minuendo[0]=8;
 1811              		.loc 1 510 0 is_stmt 1
 1812 066a 10A9     		add	r1, sp, #64
 1813 066c 0823     		movs	r3, #8
 1814 066e 01F82C3D 		strb	r3, [r1, #-44]!
 511:.\protocolo.c **** 					operacion(2,minuendo,sustraendo);
 1815              		.loc 1 511 0
 1816 0672 0220     		movs	r0, #2
ARM GAS  C:\Users\diego\AppData\Local\Temp\ccvEcbYb.s 			page 44


 1817 0674 01AA     		add	r2, sp, #4
 1818 0676 FFF7FEFF 		bl	operacion
 1819              	.LVL169:
 512:.\protocolo.c **** 					for(x=0;x<=17;x++){									
 1820              		.loc 1 512 0
 1821 067a 0022     		movs	r2, #0
 1822 067c 854B     		ldr	r3, .L645+4
 1823 067e 1A60     		str	r2, [r3]
 1824 0680 0AE0     		b	.L141
 1825              	.L142:
 513:.\protocolo.c **** 						write_psoc1(val,msn_tventas[x]);				//Total de ventas
 1826              		.loc 1 513 0 discriminator 3
 1827 0682 834A     		ldr	r2, .L645
 1828 0684 1344     		add	r3, r3, r2
 1829 0686 2046     		mov	r0, r4
 1830 0688 93F82C10 		ldrb	r1, [r3, #44]	@ zero_extendqisi2
 1831 068c FFF7FEFF 		bl	write_psoc1
 1832              	.LVL170:
 512:.\protocolo.c **** 					for(x=0;x<=17;x++){									
 1833              		.loc 1 512 0 discriminator 3
 1834 0690 804A     		ldr	r2, .L645+4
 1835 0692 1368     		ldr	r3, [r2]
 1836 0694 0133     		adds	r3, r3, #1
 1837 0696 1360     		str	r3, [r2]
 1838              	.L141:
 512:.\protocolo.c **** 					for(x=0;x<=17;x++){									
 1839              		.loc 1 512 0 is_stmt 0 discriminator 1
 1840 0698 7E4B     		ldr	r3, .L645+4
 1841 069a 1B68     		ldr	r3, [r3]
 1842 069c 112B     		cmp	r3, #17
 1843 069e F0D9     		bls	.L142
 514:.\protocolo.c **** 					}
 515:.\protocolo.c **** 					print_valor(resultado,val);							
 1844              		.loc 1 515 0 is_stmt 1
 1845 06a0 8148     		ldr	r0, .L645+24
 1846 06a2 2146     		mov	r1, r4
 1847 06a4 FFF7FEFF 		bl	print_valor
 1848              	.LVL171:
 516:.\protocolo.c **** 					if(dir==a.dir){
 1849              		.loc 1 516 0
 1850 06a8 7B4B     		ldr	r3, .L645+8
 1851 06aa 1B78     		ldrb	r3, [r3]	@ zero_extendqisi2
 1852 06ac AB42     		cmp	r3, r5
 1853 06ae 0AD1     		bne	.L143
 517:.\protocolo.c **** 						write_eeprom(256,corte);
 1854              		.loc 1 517 0
 1855 06b0 4FF48070 		mov	r0, #256
 1856 06b4 09A9     		add	r1, sp, #36
 1857 06b6 FFF7FEFF 		bl	write_eeprom
 1858              	.LVL172:
 518:.\protocolo.c **** 						write_eeprom(525,resultado);
 1859              		.loc 1 518 0
 1860 06ba 40F20D20 		movw	r0, #525
 1861 06be 7A49     		ldr	r1, .L645+24
 1862 06c0 FFF7FEFF 		bl	write_eeprom
 1863              	.LVL173:
 1864 06c4 09E0     		b	.L128
ARM GAS  C:\Users\diego\AppData\Local\Temp\ccvEcbYb.s 			page 45


 1865              	.L143:
 519:.\protocolo.c **** 					}
 520:.\protocolo.c **** 					else{
 521:.\protocolo.c **** 						write_eeprom(345,corte);
 1866              		.loc 1 521 0
 1867 06c6 40F25910 		movw	r0, #345
 1868 06ca 09A9     		add	r1, sp, #36
 1869 06cc FFF7FEFF 		bl	write_eeprom
 1870              	.LVL174:
 522:.\protocolo.c **** 						write_eeprom(589,resultado);
 1871              		.loc 1 522 0
 1872 06d0 40F24D20 		movw	r0, #589
 1873 06d4 7449     		ldr	r1, .L645+24
 1874 06d6 FFF7FEFF 		bl	write_eeprom
 1875              	.LVL175:
 1876              	.L128:
 523:.\protocolo.c **** 					}					
 524:.\protocolo.c **** 				}
 525:.\protocolo.c ****                 
 526:.\protocolo.c ****                 if(((rventa.manguera==(producto4&0x0F))&&(dir==a.dir))||((rventa.manguera==(product
 1877              		.loc 1 526 0
 1878 06da 744B     		ldr	r3, .L645+28
 1879 06dc 93F8E020 		ldrb	r2, [r3, #224]	@ zero_extendqisi2
 1880 06e0 734B     		ldr	r3, .L645+32
 1881 06e2 1B78     		ldrb	r3, [r3]	@ zero_extendqisi2
 1882 06e4 03F00F03 		and	r3, r3, #15
 1883 06e8 9342     		cmp	r3, r2
 1884 06ea 03D1     		bne	.L144
 1885              		.loc 1 526 0 is_stmt 0 discriminator 1
 1886 06ec 6A4B     		ldr	r3, .L645+8
 1887 06ee 1B78     		ldrb	r3, [r3]	@ zero_extendqisi2
 1888 06f0 AB42     		cmp	r3, r5
 1889 06f2 0BD0     		beq	.L145
 1890              	.L144:
 1891              		.loc 1 526 0 discriminator 3
 1892 06f4 6F4B     		ldr	r3, .L645+36
 1893 06f6 1B78     		ldrb	r3, [r3]	@ zero_extendqisi2
 1894 06f8 03F00F03 		and	r3, r3, #15
 1895 06fc 9A42     		cmp	r2, r3
 1896 06fe 40F0C280 		bne	.L146
 1897              		.loc 1 526 0 discriminator 4
 1898 0702 6D4B     		ldr	r3, .L645+40
 1899 0704 1B78     		ldrb	r3, [r3]	@ zero_extendqisi2
 1900 0706 AB42     		cmp	r3, r5
 1901 0708 40F0BD80 		bne	.L146
 1902              	.L145:
 527:.\protocolo.c **** 					for(x=0;x<=5;x++){									
 1903              		.loc 1 527 0 is_stmt 1
 1904 070c 0022     		movs	r2, #0
 1905 070e 614B     		ldr	r3, .L645+4
 1906 0710 1A60     		str	r2, [r3]
 1907 0712 08E0     		b	.L147
 1908              	.L148:
 528:.\protocolo.c **** 						    write_psoc1(val,msn_tc[x]);
 1909              		.loc 1 528 0 discriminator 3
 1910 0714 2046     		mov	r0, r4
 1911 0716 5E4A     		ldr	r2, .L645
ARM GAS  C:\Users\diego\AppData\Local\Temp\ccvEcbYb.s 			page 46


 1912 0718 D15C     		ldrb	r1, [r2, r3]	@ zero_extendqisi2
 1913 071a FFF7FEFF 		bl	write_psoc1
 1914              	.LVL176:
 527:.\protocolo.c **** 					for(x=0;x<=5;x++){									
 1915              		.loc 1 527 0 discriminator 3
 1916 071e 5D4A     		ldr	r2, .L645+4
 1917 0720 1368     		ldr	r3, [r2]
 1918 0722 0133     		adds	r3, r3, #1
 1919 0724 1360     		str	r3, [r2]
 1920              	.L147:
 527:.\protocolo.c **** 					for(x=0;x<=5;x++){									
 1921              		.loc 1 527 0 is_stmt 0 discriminator 1
 1922 0726 5B4B     		ldr	r3, .L645+4
 1923 0728 1B68     		ldr	r3, [r3]
 1924 072a 052B     		cmp	r3, #5
 1925 072c F2D9     		bls	.L148
 529:.\protocolo.c **** 					    }
 530:.\protocolo.c **** 					    write_psoc1(val,10);
 1926              		.loc 1 530 0 is_stmt 1
 1927 072e 2046     		mov	r0, r4
 1928 0730 0A21     		movs	r1, #10
 1929 0732 FFF7FEFF 		bl	write_psoc1
 1930              	.LVL177:
 531:.\protocolo.c ****                     for(x=0;x<=10;x++){									
 1931              		.loc 1 531 0
 1932 0736 0022     		movs	r2, #0
 1933 0738 564B     		ldr	r3, .L645+4
 1934 073a 1A60     		str	r2, [r3]
 1935 073c 08E0     		b	.L149
 1936              	.L150:
 532:.\protocolo.c **** 						    write_psoc1(val,producto4n[x]);
 1937              		.loc 1 532 0 discriminator 3
 1938 073e 2046     		mov	r0, r4
 1939 0740 5E4A     		ldr	r2, .L645+44
 1940 0742 D15C     		ldrb	r1, [r2, r3]	@ zero_extendqisi2
 1941 0744 FFF7FEFF 		bl	write_psoc1
 1942              	.LVL178:
 531:.\protocolo.c ****                     for(x=0;x<=10;x++){									
 1943              		.loc 1 531 0 discriminator 3
 1944 0748 524A     		ldr	r2, .L645+4
 1945 074a 1368     		ldr	r3, [r2]
 1946 074c 0133     		adds	r3, r3, #1
 1947 074e 1360     		str	r3, [r2]
 1948              	.L149:
 531:.\protocolo.c ****                     for(x=0;x<=10;x++){									
 1949              		.loc 1 531 0 is_stmt 0 discriminator 1
 1950 0750 504B     		ldr	r3, .L645+4
 1951 0752 1B68     		ldr	r3, [r3]
 1952 0754 0A2B     		cmp	r3, #10
 1953 0756 F2D9     		bls	.L150
 533:.\protocolo.c **** 					    }
 534:.\protocolo.c ****                     write_psoc1(val,10);
 1954              		.loc 1 534 0 is_stmt 1
 1955 0758 2046     		mov	r0, r4
 1956 075a 0A21     		movs	r1, #10
 1957 075c FFF7FEFF 		bl	write_psoc1
 1958              	.LVL179:
ARM GAS  C:\Users\diego\AppData\Local\Temp\ccvEcbYb.s 			page 47


 535:.\protocolo.c **** 					for(x=0;x<=14;x++){									
 1959              		.loc 1 535 0
 1960 0760 0022     		movs	r2, #0
 1961 0762 4C4B     		ldr	r3, .L645+4
 1962 0764 1A60     		str	r2, [r3]
 1963 0766 09E0     		b	.L151
 1964              	.L152:
 536:.\protocolo.c **** 						write_psoc1(val,msn_lecact[x]);				//LECTURA ACTUAL
 1965              		.loc 1 536 0 discriminator 3
 1966 0768 494A     		ldr	r2, .L645
 1967 076a 1344     		add	r3, r3, r2
 1968 076c 2046     		mov	r0, r4
 1969 076e 197A     		ldrb	r1, [r3, #8]	@ zero_extendqisi2
 1970 0770 FFF7FEFF 		bl	write_psoc1
 1971              	.LVL180:
 535:.\protocolo.c **** 					for(x=0;x<=14;x++){									
 1972              		.loc 1 535 0 discriminator 3
 1973 0774 474A     		ldr	r2, .L645+4
 1974 0776 1368     		ldr	r3, [r2]
 1975 0778 0133     		adds	r3, r3, #1
 1976 077a 1360     		str	r3, [r2]
 1977              	.L151:
 535:.\protocolo.c **** 					for(x=0;x<=14;x++){									
 1978              		.loc 1 535 0 is_stmt 0 discriminator 1
 1979 077c 454B     		ldr	r3, .L645+4
 1980 077e 1B68     		ldr	r3, [r3]
 1981 0780 0E2B     		cmp	r3, #14
 1982 0782 F1D9     		bls	.L152
 537:.\protocolo.c **** 					}
 538:.\protocolo.c **** 					write_psoc1(val,10);
 1983              		.loc 1 538 0 is_stmt 1
 1984 0784 2046     		mov	r0, r4
 1985 0786 0A21     		movs	r1, #10
 1986 0788 FFF7FEFF 		bl	write_psoc1
 1987              	.LVL181:
 539:.\protocolo.c **** 					print_totalesac(8,val);	
 1988              		.loc 1 539 0
 1989 078c 0820     		movs	r0, #8
 1990 078e 2146     		mov	r1, r4
 1991 0790 FFF7FEFF 		bl	print_totalesac
 1992              	.LVL182:
 540:.\protocolo.c **** 					for(x=0;x<=16;x++){												
 1993              		.loc 1 540 0
 1994 0794 0022     		movs	r2, #0
 1995 0796 3F4B     		ldr	r3, .L645+4
 1996 0798 1A60     		str	r2, [r3]
 1997 079a 09E0     		b	.L153
 1998              	.L154:
 541:.\protocolo.c **** 						write_psoc1(val,msn_lecaan[x]);				//LECTURA ANTERIOR
 1999              		.loc 1 541 0 discriminator 3
 2000 079c 3C4A     		ldr	r2, .L645
 2001 079e 1344     		add	r3, r3, r2
 2002 07a0 2046     		mov	r0, r4
 2003 07a2 197E     		ldrb	r1, [r3, #24]	@ zero_extendqisi2
 2004 07a4 FFF7FEFF 		bl	write_psoc1
 2005              	.LVL183:
 540:.\protocolo.c **** 					for(x=0;x<=16;x++){												
ARM GAS  C:\Users\diego\AppData\Local\Temp\ccvEcbYb.s 			page 48


 2006              		.loc 1 540 0 discriminator 3
 2007 07a8 3A4A     		ldr	r2, .L645+4
 2008 07aa 1368     		ldr	r3, [r2]
 2009 07ac 0133     		adds	r3, r3, #1
 2010 07ae 1360     		str	r3, [r2]
 2011              	.L153:
 540:.\protocolo.c **** 					for(x=0;x<=16;x++){												
 2012              		.loc 1 540 0 is_stmt 0 discriminator 1
 2013 07b0 384B     		ldr	r3, .L645+4
 2014 07b2 1B68     		ldr	r3, [r3]
 2015 07b4 102B     		cmp	r3, #16
 2016 07b6 F1D9     		bls	.L154
 542:.\protocolo.c **** 					}
 543:.\protocolo.c **** 					write_psoc1(val,10);
 2017              		.loc 1 543 0 is_stmt 1
 2018 07b8 2046     		mov	r0, r4
 2019 07ba 0A21     		movs	r1, #10
 2020 07bc FFF7FEFF 		bl	write_psoc1
 2021              	.LVL184:
 544:.\protocolo.c **** 					if(dir==a.dir){
 2022              		.loc 1 544 0
 2023 07c0 354B     		ldr	r3, .L645+8
 2024 07c2 1B78     		ldrb	r3, [r3]	@ zero_extendqisi2
 2025 07c4 AB42     		cmp	r3, r5
 2026 07c6 05D1     		bne	.L155
 545:.\protocolo.c **** 						leer_eeprom(1096,25);
 2027              		.loc 1 545 0
 2028 07c8 4FF48960 		mov	r0, #1096
 2029 07cc 1921     		movs	r1, #25
 2030 07ce FFF7FEFF 		bl	leer_eeprom
 2031              	.LVL185:
 2032 07d2 04E0     		b	.L156
 2033              	.L155:
 546:.\protocolo.c **** 					}
 547:.\protocolo.c **** 					else{
 548:.\protocolo.c **** 						leer_eeprom(1054,25);
 2034              		.loc 1 548 0
 2035 07d4 40F21E40 		movw	r0, #1054
 2036 07d8 1921     		movs	r1, #25
 2037 07da FFF7FEFF 		bl	leer_eeprom
 2038              	.LVL186:
 2039              	.L156:
 549:.\protocolo.c **** 					}
 550:.\protocolo.c **** 					print_totales(val);
 2040              		.loc 1 550 0
 2041 07de 2046     		mov	r0, r4
 2042 07e0 FFF7FEFF 		bl	print_totales
 2043              	.LVL187:
 551:.\protocolo.c **** 					for(z=1;z<=8;z++){
 2044              		.loc 1 551 0
 2045 07e4 0122     		movs	r2, #1
 2046 07e6 2D4B     		ldr	r3, .L645+12
 2047 07e8 1A60     		str	r2, [r3]
 2048 07ea 10E0     		b	.L157
 2049              	.L158:
 552:.\protocolo.c **** 						minuendo[z]=rventa.tdinero[z-1];
 2050              		.loc 1 552 0 discriminator 3
ARM GAS  C:\Users\diego\AppData\Local\Temp\ccvEcbYb.s 			page 49


 2051 07ec 2C4A     		ldr	r2, .L645+16
 2052 07ee 1A44     		add	r2, r2, r3
 2053 07f0 92F8CA10 		ldrb	r1, [r2, #202]	@ zero_extendqisi2
 2054 07f4 10AA     		add	r2, sp, #64
 2055 07f6 1A44     		add	r2, r2, r3
 2056 07f8 02F82C1C 		strb	r1, [r2, #-44]
 553:.\protocolo.c **** 						sustraendo[z]=buffer_i2c[z+8];
 2057              		.loc 1 553 0 discriminator 3
 2058 07fc 03F10801 		add	r1, r3, #8
 2059 0800 2848     		ldr	r0, .L645+20
 2060 0802 415C     		ldrb	r1, [r0, r1]	@ zero_extendqisi2
 2061 0804 02F83C1C 		strb	r1, [r2, #-60]
 551:.\protocolo.c **** 					for(z=1;z<=8;z++){
 2062              		.loc 1 551 0 discriminator 3
 2063 0808 0133     		adds	r3, r3, #1
 2064 080a 244A     		ldr	r2, .L645+12
 2065 080c 1360     		str	r3, [r2]
 2066              	.L157:
 551:.\protocolo.c **** 					for(z=1;z<=8;z++){
 2067              		.loc 1 551 0 is_stmt 0 discriminator 1
 2068 080e 234B     		ldr	r3, .L645+12
 2069 0810 1B68     		ldr	r3, [r3]
 2070 0812 082B     		cmp	r3, #8
 2071 0814 EAD9     		bls	.L158
 554:.\protocolo.c **** 					}
 555:.\protocolo.c **** 					minuendo[0]=8;
 2072              		.loc 1 555 0 is_stmt 1
 2073 0816 10A9     		add	r1, sp, #64
 2074 0818 0823     		movs	r3, #8
 2075 081a 01F82C3D 		strb	r3, [r1, #-44]!
 556:.\protocolo.c **** 					operacion(2,minuendo,sustraendo);
 2076              		.loc 1 556 0
 2077 081e 0220     		movs	r0, #2
 2078 0820 01AA     		add	r2, sp, #4
 2079 0822 FFF7FEFF 		bl	operacion
 2080              	.LVL188:
 557:.\protocolo.c **** 					for(x=0;x<=17;x++){									
 2081              		.loc 1 557 0
 2082 0826 0022     		movs	r2, #0
 2083 0828 1A4B     		ldr	r3, .L645+4
 2084 082a 1A60     		str	r2, [r3]
 2085 082c 0AE0     		b	.L159
 2086              	.L160:
 558:.\protocolo.c **** 						write_psoc1(val,msn_tventas[x]);				//Total de ventas
 2087              		.loc 1 558 0 discriminator 3
 2088 082e 184A     		ldr	r2, .L645
 2089 0830 1344     		add	r3, r3, r2
 2090 0832 2046     		mov	r0, r4
 2091 0834 93F82C10 		ldrb	r1, [r3, #44]	@ zero_extendqisi2
 2092 0838 FFF7FEFF 		bl	write_psoc1
 2093              	.LVL189:
 557:.\protocolo.c **** 					for(x=0;x<=17;x++){									
 2094              		.loc 1 557 0 discriminator 3
 2095 083c 154A     		ldr	r2, .L645+4
 2096 083e 1368     		ldr	r3, [r2]
 2097 0840 0133     		adds	r3, r3, #1
 2098 0842 1360     		str	r3, [r2]
ARM GAS  C:\Users\diego\AppData\Local\Temp\ccvEcbYb.s 			page 50


 2099              	.L159:
 557:.\protocolo.c **** 					for(x=0;x<=17;x++){									
 2100              		.loc 1 557 0 is_stmt 0 discriminator 1
 2101 0844 134B     		ldr	r3, .L645+4
 2102 0846 1B68     		ldr	r3, [r3]
 2103 0848 112B     		cmp	r3, #17
 2104 084a F0D9     		bls	.L160
 559:.\protocolo.c **** 					}
 560:.\protocolo.c **** 					print_valor(resultado,val);							
 2105              		.loc 1 560 0 is_stmt 1
 2106 084c 1648     		ldr	r0, .L645+24
 2107 084e 2146     		mov	r1, r4
 2108 0850 FFF7FEFF 		bl	print_valor
 2109              	.LVL190:
 561:.\protocolo.c **** 					if(dir==a.dir){
 2110              		.loc 1 561 0
 2111 0854 104B     		ldr	r3, .L645+8
 2112 0856 1B78     		ldrb	r3, [r3]	@ zero_extendqisi2
 2113 0858 AB42     		cmp	r3, r5
 2114 085a 0AD1     		bne	.L161
 562:.\protocolo.c **** 						write_eeprom(1096,corte);
 2115              		.loc 1 562 0
 2116 085c 4FF48960 		mov	r0, #1096
 2117 0860 09A9     		add	r1, sp, #36
 2118 0862 FFF7FEFF 		bl	write_eeprom
 2119              	.LVL191:
 563:.\protocolo.c **** 						write_eeprom(1038,resultado);
 2120              		.loc 1 563 0
 2121 0866 40F20E40 		movw	r0, #1038
 2122 086a 0F49     		ldr	r1, .L645+24
 2123 086c FFF7FEFF 		bl	write_eeprom
 2124              	.LVL192:
 2125 0870 09E0     		b	.L146
 2126              	.L161:
 564:.\protocolo.c **** 					}
 565:.\protocolo.c **** 					else{
 566:.\protocolo.c **** 						write_eeprom(1054,corte);
 2127              		.loc 1 566 0
 2128 0872 40F21E40 		movw	r0, #1054
 2129 0876 09A9     		add	r1, sp, #36
 2130 0878 FFF7FEFF 		bl	write_eeprom
 2131              	.LVL193:
 567:.\protocolo.c **** 						write_eeprom(1081,resultado);
 2132              		.loc 1 567 0
 2133 087c 40F23940 		movw	r0, #1081
 2134 0880 0949     		ldr	r1, .L645+24
 2135 0882 FFF7FEFF 		bl	write_eeprom
 2136              	.LVL194:
 2137              	.L146:
 568:.\protocolo.c **** 					}					
 569:.\protocolo.c **** 				}
 570:.\protocolo.c **** 				
 571:.\protocolo.c **** 				Surtidor_ClearRxBuffer();
 2138              		.loc 1 571 0
 2139 0886 FFF7FEFF 		bl	Surtidor_ClearRxBuffer
 2140              	.LVL195:
 572:.\protocolo.c **** 				return 1;
ARM GAS  C:\Users\diego\AppData\Local\Temp\ccvEcbYb.s 			page 51


 2141              		.loc 1 572 0
 2142 088a 0120     		movs	r0, #1
 2143 088c 02F021BF 		b	.L78
 2144              	.L646:
 2145              		.align	2
 2146              	.L645:
 2147 0890 00000000 		.word	.LANCHOR1
 2148 0894 00000000 		.word	x
 2149 0898 00000000 		.word	a
 2150 089c 00000000 		.word	z
 2151 08a0 FFFFFFFF 		.word	rventa-1
 2152 08a4 00000000 		.word	buffer_i2c
 2153 08a8 00000000 		.word	resultado
 2154 08ac 00000000 		.word	rventa
 2155 08b0 00000000 		.word	producto4
 2156 08b4 00000000 		.word	producto4b
 2157 08b8 00000000 		.word	b
 2158 08bc 00000000 		.word	producto4n
 2159              	.LVL196:
 2160              	.L71:
 573:.\protocolo.c **** 			}
 574:.\protocolo.c **** 			else{
 575:.\protocolo.c **** 				return 0;
 576:.\protocolo.c **** 			}
 577:.\protocolo.c **** 		break;
 578:.\protocolo.c **** 
 579:.\protocolo.c **** 		case 64:
 580:.\protocolo.c **** 			if((Surtidor_rxBuffer[0]==0xFF)&&(Surtidor_rxBuffer[1]==0xF6)&&(Surtidor_rxBuffer[63]==0xF0)&&(S
 2161              		.loc 1 580 0
 2162 08c0 A64B     		ldr	r3, .L647
 2163 08c2 1B78     		ldrb	r3, [r3]	@ zero_extendqisi2
 2164 08c4 DBB2     		uxtb	r3, r3
 2165 08c6 FF2B     		cmp	r3, #255
 2166 08c8 42F0DC86 		bne	.L620
 2167              		.loc 1 580 0 is_stmt 0 discriminator 1
 2168 08cc A34B     		ldr	r3, .L647
 2169 08ce 5B78     		ldrb	r3, [r3, #1]	@ zero_extendqisi2
 2170 08d0 DBB2     		uxtb	r3, r3
 2171 08d2 F62B     		cmp	r3, #246
 2172 08d4 42F0D886 		bne	.L621
 2173              		.loc 1 580 0 discriminator 2
 2174 08d8 A04B     		ldr	r3, .L647
 2175 08da 93F83F30 		ldrb	r3, [r3, #63]	@ zero_extendqisi2
 2176 08de DBB2     		uxtb	r3, r3
 2177 08e0 F02B     		cmp	r3, #240
 2178 08e2 42F0D386 		bne	.L622
 2179              		.loc 1 580 0 discriminator 3
 2180 08e6 9D4B     		ldr	r3, .L647
 2181 08e8 DB78     		ldrb	r3, [r3, #3]	@ zero_extendqisi2
 2182 08ea DBB2     		uxtb	r3, r3
 2183 08ec F92B     		cmp	r3, #249
 2184 08ee 42F0CF86 		bne	.L623
 581:.\protocolo.c **** 				for(y=0;y<=30;y+=30){
 2185              		.loc 1 581 0 is_stmt 1
 2186 08f2 0022     		movs	r2, #0
 2187 08f4 9A4B     		ldr	r3, .L647+4
 2188 08f6 1A60     		str	r2, [r3]
ARM GAS  C:\Users\diego\AppData\Local\Temp\ccvEcbYb.s 			page 52


 2189 08f8 00F00FBC 		b	.L162
 2190              	.LVL197:
 2191              	.L247:
 582:.\protocolo.c **** 					rventa.manguera=(Surtidor_rxBuffer[y+2]&0x0F)+1;
 2192              		.loc 1 582 0
 2193 08fc B31C     		adds	r3, r6, #2
 2194 08fe 974A     		ldr	r2, .L647
 2195 0900 D15C     		ldrb	r1, [r2, r3]	@ zero_extendqisi2
 2196 0902 01F00F01 		and	r1, r1, #15
 2197 0906 0131     		adds	r1, r1, #1
 2198 0908 964B     		ldr	r3, .L647+8
 2199 090a 83F8E010 		strb	r1, [r3, #224]
 583:.\protocolo.c **** 					for(x=0;x<=7;x++){
 2200              		.loc 1 583 0
 2201 090e 0022     		movs	r2, #0
 2202 0910 954B     		ldr	r3, .L647+12
 2203 0912 1A60     		str	r2, [r3]
 2204 0914 0CE0     		b	.L163
 2205              	.L164:
 584:.\protocolo.c **** 						rventa.tvolumen[x]=(Surtidor_rxBuffer[y+4+x]&0x0F);
 2206              		.loc 1 584 0 discriminator 3
 2207 0916 F218     		adds	r2, r6, r3
 2208 0918 0432     		adds	r2, r2, #4
 2209 091a 9048     		ldr	r0, .L647
 2210 091c 805C     		ldrb	r0, [r0, r2]	@ zero_extendqisi2
 2211 091e 914A     		ldr	r2, .L647+8
 2212 0920 1A44     		add	r2, r2, r3
 2213 0922 00F00F00 		and	r0, r0, #15
 2214 0926 82F8BD00 		strb	r0, [r2, #189]
 583:.\protocolo.c **** 					for(x=0;x<=7;x++){
 2215              		.loc 1 583 0 discriminator 3
 2216 092a 0133     		adds	r3, r3, #1
 2217 092c 8E4A     		ldr	r2, .L647+12
 2218 092e 1360     		str	r3, [r2]
 2219              	.L163:
 583:.\protocolo.c **** 					for(x=0;x<=7;x++){
 2220              		.loc 1 583 0 is_stmt 0 discriminator 1
 2221 0930 8D4B     		ldr	r3, .L647+12
 2222 0932 1B68     		ldr	r3, [r3]
 2223 0934 072B     		cmp	r3, #7
 2224 0936 EED9     		bls	.L164
 585:.\protocolo.c **** 					}
 586:.\protocolo.c **** 					for(x=0;x<=7;x++){
 2225              		.loc 1 586 0 is_stmt 1
 2226 0938 0022     		movs	r2, #0
 2227 093a 8B4B     		ldr	r3, .L647+12
 2228 093c 1A60     		str	r2, [r3]
 2229 093e 0CE0     		b	.L165
 2230              	.L166:
 587:.\protocolo.c **** 						rventa.tdinero[x]=(Surtidor_rxBuffer[y+13+x]&0x0F);
 2231              		.loc 1 587 0 discriminator 3
 2232 0940 F218     		adds	r2, r6, r3
 2233 0942 0D32     		adds	r2, r2, #13
 2234 0944 8548     		ldr	r0, .L647
 2235 0946 805C     		ldrb	r0, [r0, r2]	@ zero_extendqisi2
 2236 0948 864A     		ldr	r2, .L647+8
 2237 094a 1A44     		add	r2, r2, r3
ARM GAS  C:\Users\diego\AppData\Local\Temp\ccvEcbYb.s 			page 53


 2238 094c 00F00F00 		and	r0, r0, #15
 2239 0950 82F8CA00 		strb	r0, [r2, #202]
 586:.\protocolo.c **** 						rventa.tdinero[x]=(Surtidor_rxBuffer[y+13+x]&0x0F);
 2240              		.loc 1 586 0 discriminator 3
 2241 0954 0133     		adds	r3, r3, #1
 2242 0956 844A     		ldr	r2, .L647+12
 2243 0958 1360     		str	r3, [r2]
 2244              	.L165:
 586:.\protocolo.c **** 						rventa.tdinero[x]=(Surtidor_rxBuffer[y+13+x]&0x0F);
 2245              		.loc 1 586 0 is_stmt 0 discriminator 1
 2246 095a 834B     		ldr	r3, .L647+12
 2247 095c 1B68     		ldr	r3, [r3]
 2248 095e 072B     		cmp	r3, #7
 2249 0960 EED9     		bls	.L166
 588:.\protocolo.c ****                         
 589:.\protocolo.c **** 					}
 590:.\protocolo.c **** 					for(z=0;z<=7;z++){
 2250              		.loc 1 590 0 is_stmt 1
 2251 0962 0022     		movs	r2, #0
 2252 0964 814B     		ldr	r3, .L647+16
 2253 0966 1A60     		str	r2, [r3]
 2254 0968 0AE0     		b	.L167
 2255              	.L168:
 591:.\protocolo.c **** 						corte[z+1]=rventa.tvolumen[z];
 2256              		.loc 1 591 0 discriminator 3
 2257 096a 5A1C     		adds	r2, r3, #1
 2258 096c 7D48     		ldr	r0, .L647+8
 2259 096e 0344     		add	r3, r3, r0
 2260 0970 93F8BD00 		ldrb	r0, [r3, #189]	@ zero_extendqisi2
 2261 0974 10AB     		add	r3, sp, #64
 2262 0976 1344     		add	r3, r3, r2
 2263 0978 03F81C0C 		strb	r0, [r3, #-28]
 590:.\protocolo.c **** 						corte[z+1]=rventa.tvolumen[z];
 2264              		.loc 1 590 0 discriminator 3
 2265 097c 7B4B     		ldr	r3, .L647+16
 2266 097e 1A60     		str	r2, [r3]
 2267              	.L167:
 590:.\protocolo.c **** 						corte[z+1]=rventa.tvolumen[z];
 2268              		.loc 1 590 0 is_stmt 0 discriminator 1
 2269 0980 7A4B     		ldr	r3, .L647+16
 2270 0982 1B68     		ldr	r3, [r3]
 2271 0984 072B     		cmp	r3, #7
 2272 0986 F0D9     		bls	.L168
 592:.\protocolo.c **** 					}
 593:.\protocolo.c **** 					for(z=9;z<=16;z++){
 2273              		.loc 1 593 0 is_stmt 1
 2274 0988 0922     		movs	r2, #9
 2275 098a 784B     		ldr	r3, .L647+16
 2276 098c 1A60     		str	r2, [r3]
 2277 098e 0AE0     		b	.L169
 2278              	.L170:
 594:.\protocolo.c **** 						corte[z]=rventa.tdinero[z-9];
 2279              		.loc 1 594 0 discriminator 3
 2280 0990 774A     		ldr	r2, .L647+20
 2281 0992 1A44     		add	r2, r2, r3
 2282 0994 92F8CA00 		ldrb	r0, [r2, #202]	@ zero_extendqisi2
 2283 0998 10AA     		add	r2, sp, #64
ARM GAS  C:\Users\diego\AppData\Local\Temp\ccvEcbYb.s 			page 54


 2284 099a 1A44     		add	r2, r2, r3
 2285 099c 02F81C0C 		strb	r0, [r2, #-28]
 593:.\protocolo.c **** 						corte[z]=rventa.tdinero[z-9];
 2286              		.loc 1 593 0 discriminator 3
 2287 09a0 0133     		adds	r3, r3, #1
 2288 09a2 724A     		ldr	r2, .L647+16
 2289 09a4 1360     		str	r3, [r2]
 2290              	.L169:
 593:.\protocolo.c **** 						corte[z]=rventa.tdinero[z-9];
 2291              		.loc 1 593 0 is_stmt 0 discriminator 1
 2292 09a6 714B     		ldr	r3, .L647+16
 2293 09a8 1B68     		ldr	r3, [r3]
 2294 09aa 102B     		cmp	r3, #16
 2295 09ac F0D9     		bls	.L170
 595:.\protocolo.c **** 					}
 596:.\protocolo.c **** 					corte[0]=16;							
 2296              		.loc 1 596 0 is_stmt 1
 2297 09ae 1023     		movs	r3, #16
 2298 09b0 8DF82430 		strb	r3, [sp, #36]
 597:.\protocolo.c **** 					if(((rventa.manguera==(producto1&0x0F))&&(dir==a.dir))||((rventa.manguera==(producto1b&0x0F))&
 2299              		.loc 1 597 0
 2300 09b4 6F4B     		ldr	r3, .L647+24
 2301 09b6 1B78     		ldrb	r3, [r3]	@ zero_extendqisi2
 2302 09b8 03F00F03 		and	r3, r3, #15
 2303 09bc 8B42     		cmp	r3, r1
 2304 09be 03D1     		bne	.L171
 2305              		.loc 1 597 0 is_stmt 0 discriminator 1
 2306 09c0 6D4A     		ldr	r2, .L647+28
 2307 09c2 1278     		ldrb	r2, [r2]	@ zero_extendqisi2
 2308 09c4 AA42     		cmp	r2, r5
 2309 09c6 17D0     		beq	.L172
 2310              	.L171:
 2311              		.loc 1 597 0 discriminator 3
 2312 09c8 6C4A     		ldr	r2, .L647+32
 2313 09ca 1278     		ldrb	r2, [r2]	@ zero_extendqisi2
 2314 09cc 02F00F02 		and	r2, r2, #15
 2315 09d0 9142     		cmp	r1, r2
 2316 09d2 03D1     		bne	.L173
 2317              		.loc 1 597 0 discriminator 4
 2318 09d4 6A48     		ldr	r0, .L647+36
 2319 09d6 0078     		ldrb	r0, [r0]	@ zero_extendqisi2
 2320 09d8 A842     		cmp	r0, r5
 2321 09da 0DD0     		beq	.L172
 2322              	.L173:
 2323              		.loc 1 597 0 discriminator 6
 2324 09dc 8B42     		cmp	r3, r1
 2325 09de 03D1     		bne	.L174
 2326              		.loc 1 597 0 discriminator 7
 2327 09e0 684B     		ldr	r3, .L647+40
 2328 09e2 1B78     		ldrb	r3, [r3]	@ zero_extendqisi2
 2329 09e4 AB42     		cmp	r3, r5
 2330 09e6 07D0     		beq	.L172
 2331              	.L174:
 2332              		.loc 1 597 0 discriminator 9
 2333 09e8 9142     		cmp	r1, r2
 2334 09ea 40F0E380 		bne	.L175
 2335              		.loc 1 597 0 discriminator 10
ARM GAS  C:\Users\diego\AppData\Local\Temp\ccvEcbYb.s 			page 55


 2336 09ee 664B     		ldr	r3, .L647+44
 2337 09f0 1B78     		ldrb	r3, [r3]	@ zero_extendqisi2
 2338 09f2 AB42     		cmp	r3, r5
 2339 09f4 40F0DE80 		bne	.L175
 2340              	.L172:
 598:.\protocolo.c **** 						for(x=0;x<=5;x++){									
 2341              		.loc 1 598 0 is_stmt 1
 2342 09f8 0022     		movs	r2, #0
 2343 09fa 5B4B     		ldr	r3, .L647+12
 2344 09fc 1A60     		str	r2, [r3]
 2345 09fe 08E0     		b	.L176
 2346              	.L177:
 599:.\protocolo.c **** 							write_psoc1(val,msn_tc[x]);
 2347              		.loc 1 599 0 discriminator 3
 2348 0a00 2046     		mov	r0, r4
 2349 0a02 624A     		ldr	r2, .L647+48
 2350 0a04 D15C     		ldrb	r1, [r2, r3]	@ zero_extendqisi2
 2351 0a06 FFF7FEFF 		bl	write_psoc1
 2352              	.LVL198:
 598:.\protocolo.c **** 						for(x=0;x<=5;x++){									
 2353              		.loc 1 598 0 discriminator 3
 2354 0a0a 574A     		ldr	r2, .L647+12
 2355 0a0c 1368     		ldr	r3, [r2]
 2356 0a0e 0133     		adds	r3, r3, #1
 2357 0a10 1360     		str	r3, [r2]
 2358              	.L176:
 598:.\protocolo.c **** 						for(x=0;x<=5;x++){									
 2359              		.loc 1 598 0 is_stmt 0 discriminator 1
 2360 0a12 554B     		ldr	r3, .L647+12
 2361 0a14 1B68     		ldr	r3, [r3]
 2362 0a16 052B     		cmp	r3, #5
 2363 0a18 F2D9     		bls	.L177
 600:.\protocolo.c **** 						}
 601:.\protocolo.c **** 						write_psoc1(val,10);
 2364              		.loc 1 601 0 is_stmt 1
 2365 0a1a 2046     		mov	r0, r4
 2366 0a1c 0A21     		movs	r1, #10
 2367 0a1e FFF7FEFF 		bl	write_psoc1
 2368              	.LVL199:
 602:.\protocolo.c ****                         for(x=0;x<=10;x++){									
 2369              		.loc 1 602 0
 2370 0a22 0022     		movs	r2, #0
 2371 0a24 504B     		ldr	r3, .L647+12
 2372 0a26 1A60     		str	r2, [r3]
 2373 0a28 08E0     		b	.L178
 2374              	.L179:
 603:.\protocolo.c **** 						write_psoc1(val,producto1n[x]);
 2375              		.loc 1 603 0 discriminator 3
 2376 0a2a 2046     		mov	r0, r4
 2377 0a2c 584A     		ldr	r2, .L647+52
 2378 0a2e D15C     		ldrb	r1, [r2, r3]	@ zero_extendqisi2
 2379 0a30 FFF7FEFF 		bl	write_psoc1
 2380              	.LVL200:
 602:.\protocolo.c ****                         for(x=0;x<=10;x++){									
 2381              		.loc 1 602 0 discriminator 3
 2382 0a34 4C4A     		ldr	r2, .L647+12
 2383 0a36 1368     		ldr	r3, [r2]
ARM GAS  C:\Users\diego\AppData\Local\Temp\ccvEcbYb.s 			page 56


 2384 0a38 0133     		adds	r3, r3, #1
 2385 0a3a 1360     		str	r3, [r2]
 2386              	.L178:
 602:.\protocolo.c ****                         for(x=0;x<=10;x++){									
 2387              		.loc 1 602 0 is_stmt 0 discriminator 1
 2388 0a3c 4A4B     		ldr	r3, .L647+12
 2389 0a3e 1B68     		ldr	r3, [r3]
 2390 0a40 0A2B     		cmp	r3, #10
 2391 0a42 F2D9     		bls	.L179
 604:.\protocolo.c **** 					    }
 605:.\protocolo.c ****                         write_psoc1(val,10);
 2392              		.loc 1 605 0 is_stmt 1
 2393 0a44 2046     		mov	r0, r4
 2394 0a46 0A21     		movs	r1, #10
 2395 0a48 FFF7FEFF 		bl	write_psoc1
 2396              	.LVL201:
 606:.\protocolo.c **** 						for(x=0;x<=14;x++){									
 2397              		.loc 1 606 0
 2398 0a4c 0022     		movs	r2, #0
 2399 0a4e 464B     		ldr	r3, .L647+12
 2400 0a50 1A60     		str	r2, [r3]
 2401 0a52 09E0     		b	.L180
 2402              	.L181:
 607:.\protocolo.c **** 							write_psoc1(val,msn_lecact[x]);				//LECTURA ACTUAL
 2403              		.loc 1 607 0 discriminator 3
 2404 0a54 4D4A     		ldr	r2, .L647+48
 2405 0a56 1344     		add	r3, r3, r2
 2406 0a58 2046     		mov	r0, r4
 2407 0a5a 197A     		ldrb	r1, [r3, #8]	@ zero_extendqisi2
 2408 0a5c FFF7FEFF 		bl	write_psoc1
 2409              	.LVL202:
 606:.\protocolo.c **** 						for(x=0;x<=14;x++){									
 2410              		.loc 1 606 0 discriminator 3
 2411 0a60 414A     		ldr	r2, .L647+12
 2412 0a62 1368     		ldr	r3, [r2]
 2413 0a64 0133     		adds	r3, r3, #1
 2414 0a66 1360     		str	r3, [r2]
 2415              	.L180:
 606:.\protocolo.c **** 						for(x=0;x<=14;x++){									
 2416              		.loc 1 606 0 is_stmt 0 discriminator 1
 2417 0a68 3F4B     		ldr	r3, .L647+12
 2418 0a6a 1B68     		ldr	r3, [r3]
 2419 0a6c 0E2B     		cmp	r3, #14
 2420 0a6e F1D9     		bls	.L181
 608:.\protocolo.c **** 						}
 609:.\protocolo.c **** 						write_psoc1(val,10);
 2421              		.loc 1 609 0 is_stmt 1
 2422 0a70 2046     		mov	r0, r4
 2423 0a72 0A21     		movs	r1, #10
 2424 0a74 FFF7FEFF 		bl	write_psoc1
 2425              	.LVL203:
 610:.\protocolo.c **** 						print_totalesac(8,val);	
 2426              		.loc 1 610 0
 2427 0a78 0820     		movs	r0, #8
 2428 0a7a 2146     		mov	r1, r4
 2429 0a7c FFF7FEFF 		bl	print_totalesac
 2430              	.LVL204:
ARM GAS  C:\Users\diego\AppData\Local\Temp\ccvEcbYb.s 			page 57


 611:.\protocolo.c **** 						for(x=0;x<=16;x++){												
 2431              		.loc 1 611 0
 2432 0a80 0022     		movs	r2, #0
 2433 0a82 394B     		ldr	r3, .L647+12
 2434 0a84 1A60     		str	r2, [r3]
 2435 0a86 09E0     		b	.L182
 2436              	.L183:
 612:.\protocolo.c **** 							write_psoc1(val,msn_lecaan[x]);				//LECTURA ANTERIOR
 2437              		.loc 1 612 0 discriminator 3
 2438 0a88 404A     		ldr	r2, .L647+48
 2439 0a8a 1344     		add	r3, r3, r2
 2440 0a8c 2046     		mov	r0, r4
 2441 0a8e 197E     		ldrb	r1, [r3, #24]	@ zero_extendqisi2
 2442 0a90 FFF7FEFF 		bl	write_psoc1
 2443              	.LVL205:
 611:.\protocolo.c **** 						for(x=0;x<=16;x++){												
 2444              		.loc 1 611 0 discriminator 3
 2445 0a94 344A     		ldr	r2, .L647+12
 2446 0a96 1368     		ldr	r3, [r2]
 2447 0a98 0133     		adds	r3, r3, #1
 2448 0a9a 1360     		str	r3, [r2]
 2449              	.L182:
 611:.\protocolo.c **** 						for(x=0;x<=16;x++){												
 2450              		.loc 1 611 0 is_stmt 0 discriminator 1
 2451 0a9c 324B     		ldr	r3, .L647+12
 2452 0a9e 1B68     		ldr	r3, [r3]
 2453 0aa0 102B     		cmp	r3, #16
 2454 0aa2 F1D9     		bls	.L183
 613:.\protocolo.c **** 						}
 614:.\protocolo.c **** 						write_psoc1(val,10);
 2455              		.loc 1 614 0 is_stmt 1
 2456 0aa4 2046     		mov	r0, r4
 2457 0aa6 0A21     		movs	r1, #10
 2458 0aa8 FFF7FEFF 		bl	write_psoc1
 2459              	.LVL206:
 615:.\protocolo.c **** 						if(dir==a.dir){
 2460              		.loc 1 615 0
 2461 0aac 324B     		ldr	r3, .L647+28
 2462 0aae 1B78     		ldrb	r3, [r3]	@ zero_extendqisi2
 2463 0ab0 AB42     		cmp	r3, r5
 2464 0ab2 04D1     		bne	.L184
 616:.\protocolo.c **** 							leer_eeprom(192,25);
 2465              		.loc 1 616 0
 2466 0ab4 C020     		movs	r0, #192
 2467 0ab6 1921     		movs	r1, #25
 2468 0ab8 FFF7FEFF 		bl	leer_eeprom
 2469              	.LVL207:
 2470 0abc 04E0     		b	.L185
 2471              	.L184:
 617:.\protocolo.c **** 						}
 618:.\protocolo.c **** 						else{
 619:.\protocolo.c **** 							leer_eeprom(281,25);
 2472              		.loc 1 619 0
 2473 0abe 40F21910 		movw	r0, #281
 2474 0ac2 1921     		movs	r1, #25
 2475 0ac4 FFF7FEFF 		bl	leer_eeprom
 2476              	.LVL208:
ARM GAS  C:\Users\diego\AppData\Local\Temp\ccvEcbYb.s 			page 58


 2477              	.L185:
 620:.\protocolo.c **** 						}
 621:.\protocolo.c **** 						print_totales(val);
 2478              		.loc 1 621 0
 2479 0ac8 2046     		mov	r0, r4
 2480 0aca FFF7FEFF 		bl	print_totales
 2481              	.LVL209:
 622:.\protocolo.c **** 						for(z=1;z<=8;z++){
 2482              		.loc 1 622 0
 2483 0ace 0122     		movs	r2, #1
 2484 0ad0 264B     		ldr	r3, .L647+16
 2485 0ad2 1A60     		str	r2, [r3]
 2486 0ad4 10E0     		b	.L186
 2487              	.L187:
 623:.\protocolo.c **** 							minuendo[z]=rventa.tdinero[z-1];
 2488              		.loc 1 623 0 discriminator 3
 2489 0ad6 2F4A     		ldr	r2, .L647+56
 2490 0ad8 1A44     		add	r2, r2, r3
 2491 0ada 92F8CA10 		ldrb	r1, [r2, #202]	@ zero_extendqisi2
 2492 0ade 10AA     		add	r2, sp, #64
 2493 0ae0 1A44     		add	r2, r2, r3
 2494 0ae2 02F82C1C 		strb	r1, [r2, #-44]
 624:.\protocolo.c **** 							sustraendo[z]=buffer_i2c[z+8];
 2495              		.loc 1 624 0 discriminator 3
 2496 0ae6 03F10801 		add	r1, r3, #8
 2497 0aea 2B48     		ldr	r0, .L647+60
 2498 0aec 415C     		ldrb	r1, [r0, r1]	@ zero_extendqisi2
 2499 0aee 02F83C1C 		strb	r1, [r2, #-60]
 622:.\protocolo.c **** 						for(z=1;z<=8;z++){
 2500              		.loc 1 622 0 discriminator 3
 2501 0af2 0133     		adds	r3, r3, #1
 2502 0af4 1D4A     		ldr	r2, .L647+16
 2503 0af6 1360     		str	r3, [r2]
 2504              	.L186:
 622:.\protocolo.c **** 						for(z=1;z<=8;z++){
 2505              		.loc 1 622 0 is_stmt 0 discriminator 1
 2506 0af8 1C4B     		ldr	r3, .L647+16
 2507 0afa 1B68     		ldr	r3, [r3]
 2508 0afc 082B     		cmp	r3, #8
 2509 0afe EAD9     		bls	.L187
 625:.\protocolo.c **** 						}
 626:.\protocolo.c **** 						minuendo[0]=8;
 2510              		.loc 1 626 0 is_stmt 1
 2511 0b00 10A9     		add	r1, sp, #64
 2512 0b02 0823     		movs	r3, #8
 2513 0b04 01F82C3D 		strb	r3, [r1, #-44]!
 627:.\protocolo.c **** 						operacion(2,minuendo,sustraendo);
 2514              		.loc 1 627 0
 2515 0b08 0220     		movs	r0, #2
 2516 0b0a 01AA     		add	r2, sp, #4
 2517 0b0c FFF7FEFF 		bl	operacion
 2518              	.LVL210:
 628:.\protocolo.c **** 						for(x=0;x<=17;x++){									
 2519              		.loc 1 628 0
 2520 0b10 0022     		movs	r2, #0
 2521 0b12 154B     		ldr	r3, .L647+12
 2522 0b14 1A60     		str	r2, [r3]
ARM GAS  C:\Users\diego\AppData\Local\Temp\ccvEcbYb.s 			page 59


 2523 0b16 0AE0     		b	.L188
 2524              	.L189:
 629:.\protocolo.c **** 							write_psoc1(val,msn_tventas[x]);				//Total de ventas
 2525              		.loc 1 629 0 discriminator 3
 2526 0b18 1C4A     		ldr	r2, .L647+48
 2527 0b1a 1344     		add	r3, r3, r2
 2528 0b1c 2046     		mov	r0, r4
 2529 0b1e 93F82C10 		ldrb	r1, [r3, #44]	@ zero_extendqisi2
 2530 0b22 FFF7FEFF 		bl	write_psoc1
 2531              	.LVL211:
 628:.\protocolo.c **** 						for(x=0;x<=17;x++){									
 2532              		.loc 1 628 0 discriminator 3
 2533 0b26 104A     		ldr	r2, .L647+12
 2534 0b28 1368     		ldr	r3, [r2]
 2535 0b2a 0133     		adds	r3, r3, #1
 2536 0b2c 1360     		str	r3, [r2]
 2537              	.L188:
 628:.\protocolo.c **** 						for(x=0;x<=17;x++){									
 2538              		.loc 1 628 0 is_stmt 0 discriminator 1
 2539 0b2e 0E4B     		ldr	r3, .L647+12
 2540 0b30 1B68     		ldr	r3, [r3]
 2541 0b32 112B     		cmp	r3, #17
 2542 0b34 F0D9     		bls	.L189
 630:.\protocolo.c **** 						}
 631:.\protocolo.c **** 						print_valor(resultado,val);
 2543              		.loc 1 631 0 is_stmt 1
 2544 0b36 1948     		ldr	r0, .L647+64
 2545 0b38 2146     		mov	r1, r4
 2546 0b3a FFF7FEFF 		bl	print_valor
 2547              	.LVL212:
 632:.\protocolo.c **** 						if(dir==a.dir){
 2548              		.loc 1 632 0
 2549 0b3e 0E4B     		ldr	r3, .L647+28
 2550 0b40 1B78     		ldrb	r3, [r3]	@ zero_extendqisi2
 2551 0b42 AB42     		cmp	r3, r5
 2552 0b44 2CD1     		bne	.L190
 633:.\protocolo.c **** 							write_eeprom(192,corte);	
 2553              		.loc 1 633 0
 2554 0b46 C020     		movs	r0, #192
 2555 0b48 09A9     		add	r1, sp, #36
 2556 0b4a FFF7FEFF 		bl	write_eeprom
 2557              	.LVL213:
 634:.\protocolo.c **** 							write_eeprom(512,resultado);
 2558              		.loc 1 634 0
 2559 0b4e 4FF40070 		mov	r0, #512
 2560 0b52 1249     		ldr	r1, .L647+64
 2561 0b54 FFF7FEFF 		bl	write_eeprom
 2562              	.LVL214:
 2563 0b58 2CE0     		b	.L175
 2564              	.L648:
 2565 0b5a 00BF     		.align	2
 2566              	.L647:
 2567 0b5c 00000000 		.word	Surtidor_rxBuffer
 2568 0b60 00000000 		.word	y
 2569 0b64 00000000 		.word	rventa
 2570 0b68 00000000 		.word	x
 2571 0b6c 00000000 		.word	z
ARM GAS  C:\Users\diego\AppData\Local\Temp\ccvEcbYb.s 			page 60


 2572 0b70 F7FFFFFF 		.word	rventa-9
 2573 0b74 00000000 		.word	producto1
 2574 0b78 00000000 		.word	a
 2575 0b7c 00000000 		.word	producto1b
 2576 0b80 00000000 		.word	b
 2577 0b84 00000000 		.word	c
 2578 0b88 00000000 		.word	d
 2579 0b8c 00000000 		.word	.LANCHOR1
 2580 0b90 00000000 		.word	producto1n
 2581 0b94 FFFFFFFF 		.word	rventa-1
 2582 0b98 00000000 		.word	buffer_i2c
 2583 0b9c 00000000 		.word	resultado
 2584              	.L190:
 635:.\protocolo.c **** 						}
 636:.\protocolo.c **** 						else{
 637:.\protocolo.c **** 							write_eeprom(281,corte);
 2585              		.loc 1 637 0
 2586 0ba0 40F21910 		movw	r0, #281
 2587 0ba4 09A9     		add	r1, sp, #36
 2588 0ba6 FFF7FEFF 		bl	write_eeprom
 2589              	.LVL215:
 638:.\protocolo.c **** 							write_eeprom(551,resultado);
 2590              		.loc 1 638 0
 2591 0baa 40F22720 		movw	r0, #551
 2592 0bae A249     		ldr	r1, .L649
 2593 0bb0 FFF7FEFF 		bl	write_eeprom
 2594              	.LVL216:
 2595              	.L175:
 639:.\protocolo.c **** 						}
 640:.\protocolo.c **** 					}
 641:.\protocolo.c **** 					if(((rventa.manguera==(producto2&0x0F))&&(dir==a.dir))||((rventa.manguera==(producto2b&0x0F))&
 2596              		.loc 1 641 0
 2597 0bb4 A14B     		ldr	r3, .L649+4
 2598 0bb6 93F8E010 		ldrb	r1, [r3, #224]	@ zero_extendqisi2
 2599 0bba A14B     		ldr	r3, .L649+8
 2600 0bbc 1B78     		ldrb	r3, [r3]	@ zero_extendqisi2
 2601 0bbe 03F00F03 		and	r3, r3, #15
 2602 0bc2 8B42     		cmp	r3, r1
 2603 0bc4 03D1     		bne	.L191
 2604              		.loc 1 641 0 is_stmt 0 discriminator 1
 2605 0bc6 9F4A     		ldr	r2, .L649+12
 2606 0bc8 1278     		ldrb	r2, [r2]	@ zero_extendqisi2
 2607 0bca AA42     		cmp	r2, r5
 2608 0bcc 17D0     		beq	.L192
 2609              	.L191:
 2610              		.loc 1 641 0 discriminator 3
 2611 0bce 9E4A     		ldr	r2, .L649+16
 2612 0bd0 1278     		ldrb	r2, [r2]	@ zero_extendqisi2
 2613 0bd2 02F00F02 		and	r2, r2, #15
 2614 0bd6 9142     		cmp	r1, r2
 2615 0bd8 03D1     		bne	.L193
 2616              		.loc 1 641 0 discriminator 4
 2617 0bda 9C48     		ldr	r0, .L649+20
 2618 0bdc 0078     		ldrb	r0, [r0]	@ zero_extendqisi2
 2619 0bde A842     		cmp	r0, r5
 2620 0be0 0DD0     		beq	.L192
 2621              	.L193:
ARM GAS  C:\Users\diego\AppData\Local\Temp\ccvEcbYb.s 			page 61


 2622              		.loc 1 641 0 discriminator 6
 2623 0be2 9142     		cmp	r1, r2
 2624 0be4 03D1     		bne	.L194
 2625              		.loc 1 641 0 discriminator 7
 2626 0be6 9A4A     		ldr	r2, .L649+24
 2627 0be8 1278     		ldrb	r2, [r2]	@ zero_extendqisi2
 2628 0bea AA42     		cmp	r2, r5
 2629 0bec 07D0     		beq	.L192
 2630              	.L194:
 2631              		.loc 1 641 0 discriminator 9
 2632 0bee 8B42     		cmp	r3, r1
 2633 0bf0 40F0C080 		bne	.L195
 2634              		.loc 1 641 0 discriminator 10
 2635 0bf4 974B     		ldr	r3, .L649+28
 2636 0bf6 1B78     		ldrb	r3, [r3]	@ zero_extendqisi2
 2637 0bf8 AB42     		cmp	r3, r5
 2638 0bfa 40F0BB80 		bne	.L195
 2639              	.L192:
 642:.\protocolo.c **** 						for(x=0;x<=5;x++){									
 2640              		.loc 1 642 0 is_stmt 1
 2641 0bfe 0022     		movs	r2, #0
 2642 0c00 954B     		ldr	r3, .L649+32
 2643 0c02 1A60     		str	r2, [r3]
 2644 0c04 08E0     		b	.L196
 2645              	.L197:
 643:.\protocolo.c **** 						    write_psoc1(val,msn_tc[x]);
 2646              		.loc 1 643 0 discriminator 3
 2647 0c06 2046     		mov	r0, r4
 2648 0c08 944A     		ldr	r2, .L649+36
 2649 0c0a D15C     		ldrb	r1, [r2, r3]	@ zero_extendqisi2
 2650 0c0c FFF7FEFF 		bl	write_psoc1
 2651              	.LVL217:
 642:.\protocolo.c **** 						for(x=0;x<=5;x++){									
 2652              		.loc 1 642 0 discriminator 3
 2653 0c10 914A     		ldr	r2, .L649+32
 2654 0c12 1368     		ldr	r3, [r2]
 2655 0c14 0133     		adds	r3, r3, #1
 2656 0c16 1360     		str	r3, [r2]
 2657              	.L196:
 642:.\protocolo.c **** 						for(x=0;x<=5;x++){									
 2658              		.loc 1 642 0 is_stmt 0 discriminator 1
 2659 0c18 8F4B     		ldr	r3, .L649+32
 2660 0c1a 1B68     		ldr	r3, [r3]
 2661 0c1c 052B     		cmp	r3, #5
 2662 0c1e F2D9     		bls	.L197
 644:.\protocolo.c **** 					    }
 645:.\protocolo.c **** 					    write_psoc1(val,10);
 2663              		.loc 1 645 0 is_stmt 1
 2664 0c20 2046     		mov	r0, r4
 2665 0c22 0A21     		movs	r1, #10
 2666 0c24 FFF7FEFF 		bl	write_psoc1
 2667              	.LVL218:
 646:.\protocolo.c ****                         for(x=0;x<=10;x++){									
 2668              		.loc 1 646 0
 2669 0c28 0022     		movs	r2, #0
 2670 0c2a 8B4B     		ldr	r3, .L649+32
 2671 0c2c 1A60     		str	r2, [r3]
ARM GAS  C:\Users\diego\AppData\Local\Temp\ccvEcbYb.s 			page 62


 2672 0c2e 08E0     		b	.L198
 2673              	.L199:
 647:.\protocolo.c **** 						    write_psoc1(val,producto2n[x]);
 2674              		.loc 1 647 0 discriminator 3
 2675 0c30 2046     		mov	r0, r4
 2676 0c32 8B4A     		ldr	r2, .L649+40
 2677 0c34 D15C     		ldrb	r1, [r2, r3]	@ zero_extendqisi2
 2678 0c36 FFF7FEFF 		bl	write_psoc1
 2679              	.LVL219:
 646:.\protocolo.c ****                         for(x=0;x<=10;x++){									
 2680              		.loc 1 646 0 discriminator 3
 2681 0c3a 874A     		ldr	r2, .L649+32
 2682 0c3c 1368     		ldr	r3, [r2]
 2683 0c3e 0133     		adds	r3, r3, #1
 2684 0c40 1360     		str	r3, [r2]
 2685              	.L198:
 646:.\protocolo.c ****                         for(x=0;x<=10;x++){									
 2686              		.loc 1 646 0 is_stmt 0 discriminator 1
 2687 0c42 854B     		ldr	r3, .L649+32
 2688 0c44 1B68     		ldr	r3, [r3]
 2689 0c46 0A2B     		cmp	r3, #10
 2690 0c48 F2D9     		bls	.L199
 648:.\protocolo.c **** 					    }
 649:.\protocolo.c ****                         write_psoc1(val,10);
 2691              		.loc 1 649 0 is_stmt 1
 2692 0c4a 2046     		mov	r0, r4
 2693 0c4c 0A21     		movs	r1, #10
 2694 0c4e FFF7FEFF 		bl	write_psoc1
 2695              	.LVL220:
 650:.\protocolo.c **** 						for(x=0;x<=14;x++){									
 2696              		.loc 1 650 0
 2697 0c52 0022     		movs	r2, #0
 2698 0c54 804B     		ldr	r3, .L649+32
 2699 0c56 1A60     		str	r2, [r3]
 2700 0c58 09E0     		b	.L200
 2701              	.L201:
 651:.\protocolo.c **** 							write_psoc1(val,msn_lecact[x]);				//LECTURA ACTUAL
 2702              		.loc 1 651 0 discriminator 3
 2703 0c5a 804A     		ldr	r2, .L649+36
 2704 0c5c 1344     		add	r3, r3, r2
 2705 0c5e 2046     		mov	r0, r4
 2706 0c60 197A     		ldrb	r1, [r3, #8]	@ zero_extendqisi2
 2707 0c62 FFF7FEFF 		bl	write_psoc1
 2708              	.LVL221:
 650:.\protocolo.c **** 						for(x=0;x<=14;x++){									
 2709              		.loc 1 650 0 discriminator 3
 2710 0c66 7C4A     		ldr	r2, .L649+32
 2711 0c68 1368     		ldr	r3, [r2]
 2712 0c6a 0133     		adds	r3, r3, #1
 2713 0c6c 1360     		str	r3, [r2]
 2714              	.L200:
 650:.\protocolo.c **** 						for(x=0;x<=14;x++){									
 2715              		.loc 1 650 0 is_stmt 0 discriminator 1
 2716 0c6e 7A4B     		ldr	r3, .L649+32
 2717 0c70 1B68     		ldr	r3, [r3]
 2718 0c72 0E2B     		cmp	r3, #14
 2719 0c74 F1D9     		bls	.L201
ARM GAS  C:\Users\diego\AppData\Local\Temp\ccvEcbYb.s 			page 63


 652:.\protocolo.c **** 						}
 653:.\protocolo.c **** 						write_psoc1(val,10);
 2720              		.loc 1 653 0 is_stmt 1
 2721 0c76 2046     		mov	r0, r4
 2722 0c78 0A21     		movs	r1, #10
 2723 0c7a FFF7FEFF 		bl	write_psoc1
 2724              	.LVL222:
 654:.\protocolo.c **** 						print_totalesac(8,val);	
 2725              		.loc 1 654 0
 2726 0c7e 0820     		movs	r0, #8
 2727 0c80 2146     		mov	r1, r4
 2728 0c82 FFF7FEFF 		bl	print_totalesac
 2729              	.LVL223:
 655:.\protocolo.c **** 						for(x=0;x<=16;x++){												
 2730              		.loc 1 655 0
 2731 0c86 0022     		movs	r2, #0
 2732 0c88 734B     		ldr	r3, .L649+32
 2733 0c8a 1A60     		str	r2, [r3]
 2734 0c8c 09E0     		b	.L202
 2735              	.L203:
 656:.\protocolo.c **** 							write_psoc1(val,msn_lecaan[x]);				//LECTURA ANTERIOR
 2736              		.loc 1 656 0 discriminator 3
 2737 0c8e 734A     		ldr	r2, .L649+36
 2738 0c90 1344     		add	r3, r3, r2
 2739 0c92 2046     		mov	r0, r4
 2740 0c94 197E     		ldrb	r1, [r3, #24]	@ zero_extendqisi2
 2741 0c96 FFF7FEFF 		bl	write_psoc1
 2742              	.LVL224:
 655:.\protocolo.c **** 						for(x=0;x<=16;x++){												
 2743              		.loc 1 655 0 discriminator 3
 2744 0c9a 6F4A     		ldr	r2, .L649+32
 2745 0c9c 1368     		ldr	r3, [r2]
 2746 0c9e 0133     		adds	r3, r3, #1
 2747 0ca0 1360     		str	r3, [r2]
 2748              	.L202:
 655:.\protocolo.c **** 						for(x=0;x<=16;x++){												
 2749              		.loc 1 655 0 is_stmt 0 discriminator 1
 2750 0ca2 6D4B     		ldr	r3, .L649+32
 2751 0ca4 1B68     		ldr	r3, [r3]
 2752 0ca6 102B     		cmp	r3, #16
 2753 0ca8 F1D9     		bls	.L203
 657:.\protocolo.c **** 						}
 658:.\protocolo.c **** 						write_psoc1(val,10);
 2754              		.loc 1 658 0 is_stmt 1
 2755 0caa 2046     		mov	r0, r4
 2756 0cac 0A21     		movs	r1, #10
 2757 0cae FFF7FEFF 		bl	write_psoc1
 2758              	.LVL225:
 659:.\protocolo.c **** 						if(dir==a.dir){
 2759              		.loc 1 659 0
 2760 0cb2 644B     		ldr	r3, .L649+12
 2761 0cb4 1B78     		ldrb	r3, [r3]	@ zero_extendqisi2
 2762 0cb6 AB42     		cmp	r3, r5
 2763 0cb8 04D1     		bne	.L204
 660:.\protocolo.c **** 							leer_eeprom(217,25);
 2764              		.loc 1 660 0
 2765 0cba D920     		movs	r0, #217
ARM GAS  C:\Users\diego\AppData\Local\Temp\ccvEcbYb.s 			page 64


 2766 0cbc 1921     		movs	r1, #25
 2767 0cbe FFF7FEFF 		bl	leer_eeprom
 2768              	.LVL226:
 2769 0cc2 04E0     		b	.L205
 2770              	.L204:
 661:.\protocolo.c **** 						}
 662:.\protocolo.c **** 						else{
 663:.\protocolo.c **** 							leer_eeprom(320,25);
 2771              		.loc 1 663 0
 2772 0cc4 4FF4A070 		mov	r0, #320
 2773 0cc8 1921     		movs	r1, #25
 2774 0cca FFF7FEFF 		bl	leer_eeprom
 2775              	.LVL227:
 2776              	.L205:
 664:.\protocolo.c **** 						}
 665:.\protocolo.c **** 						print_totales(val);
 2777              		.loc 1 665 0
 2778 0cce 2046     		mov	r0, r4
 2779 0cd0 FFF7FEFF 		bl	print_totales
 2780              	.LVL228:
 666:.\protocolo.c **** 						for(z=1;z<=8;z++){
 2781              		.loc 1 666 0
 2782 0cd4 0122     		movs	r2, #1
 2783 0cd6 634B     		ldr	r3, .L649+44
 2784 0cd8 1A60     		str	r2, [r3]
 2785 0cda 10E0     		b	.L206
 2786              	.L207:
 667:.\protocolo.c **** 							minuendo[z]=rventa.tdinero[z-1];
 2787              		.loc 1 667 0 discriminator 3
 2788 0cdc 624A     		ldr	r2, .L649+48
 2789 0cde 1A44     		add	r2, r2, r3
 2790 0ce0 92F8CA10 		ldrb	r1, [r2, #202]	@ zero_extendqisi2
 2791 0ce4 10AA     		add	r2, sp, #64
 2792 0ce6 1A44     		add	r2, r2, r3
 2793 0ce8 02F82C1C 		strb	r1, [r2, #-44]
 668:.\protocolo.c **** 							sustraendo[z]=buffer_i2c[z+8];
 2794              		.loc 1 668 0 discriminator 3
 2795 0cec 03F10801 		add	r1, r3, #8
 2796 0cf0 5E48     		ldr	r0, .L649+52
 2797 0cf2 415C     		ldrb	r1, [r0, r1]	@ zero_extendqisi2
 2798 0cf4 02F83C1C 		strb	r1, [r2, #-60]
 666:.\protocolo.c **** 						for(z=1;z<=8;z++){
 2799              		.loc 1 666 0 discriminator 3
 2800 0cf8 0133     		adds	r3, r3, #1
 2801 0cfa 5A4A     		ldr	r2, .L649+44
 2802 0cfc 1360     		str	r3, [r2]
 2803              	.L206:
 666:.\protocolo.c **** 						for(z=1;z<=8;z++){
 2804              		.loc 1 666 0 is_stmt 0 discriminator 1
 2805 0cfe 594B     		ldr	r3, .L649+44
 2806 0d00 1B68     		ldr	r3, [r3]
 2807 0d02 082B     		cmp	r3, #8
 2808 0d04 EAD9     		bls	.L207
 669:.\protocolo.c **** 						}
 670:.\protocolo.c **** 						minuendo[0]=8;
 2809              		.loc 1 670 0 is_stmt 1
 2810 0d06 10A9     		add	r1, sp, #64
ARM GAS  C:\Users\diego\AppData\Local\Temp\ccvEcbYb.s 			page 65


 2811 0d08 0823     		movs	r3, #8
 2812 0d0a 01F82C3D 		strb	r3, [r1, #-44]!
 671:.\protocolo.c **** 						operacion(2,minuendo,sustraendo);
 2813              		.loc 1 671 0
 2814 0d0e 0220     		movs	r0, #2
 2815 0d10 01AA     		add	r2, sp, #4
 2816 0d12 FFF7FEFF 		bl	operacion
 2817              	.LVL229:
 672:.\protocolo.c **** 						for(x=0;x<=17;x++){									
 2818              		.loc 1 672 0
 2819 0d16 0022     		movs	r2, #0
 2820 0d18 4F4B     		ldr	r3, .L649+32
 2821 0d1a 1A60     		str	r2, [r3]
 2822 0d1c 0AE0     		b	.L208
 2823              	.L209:
 673:.\protocolo.c **** 							write_psoc1(val,msn_tventas[x]);				//Total de ventas
 2824              		.loc 1 673 0 discriminator 3
 2825 0d1e 4F4A     		ldr	r2, .L649+36
 2826 0d20 1344     		add	r3, r3, r2
 2827 0d22 2046     		mov	r0, r4
 2828 0d24 93F82C10 		ldrb	r1, [r3, #44]	@ zero_extendqisi2
 2829 0d28 FFF7FEFF 		bl	write_psoc1
 2830              	.LVL230:
 672:.\protocolo.c **** 						for(x=0;x<=17;x++){									
 2831              		.loc 1 672 0 discriminator 3
 2832 0d2c 4A4A     		ldr	r2, .L649+32
 2833 0d2e 1368     		ldr	r3, [r2]
 2834 0d30 0133     		adds	r3, r3, #1
 2835 0d32 1360     		str	r3, [r2]
 2836              	.L208:
 672:.\protocolo.c **** 						for(x=0;x<=17;x++){									
 2837              		.loc 1 672 0 is_stmt 0 discriminator 1
 2838 0d34 484B     		ldr	r3, .L649+32
 2839 0d36 1B68     		ldr	r3, [r3]
 2840 0d38 112B     		cmp	r3, #17
 2841 0d3a F0D9     		bls	.L209
 674:.\protocolo.c **** 						}
 675:.\protocolo.c **** 						print_valor(resultado,val);				
 2842              		.loc 1 675 0 is_stmt 1
 2843 0d3c 3E48     		ldr	r0, .L649
 2844 0d3e 2146     		mov	r1, r4
 2845 0d40 FFF7FEFF 		bl	print_valor
 2846              	.LVL231:
 676:.\protocolo.c **** 						if(dir==a.dir){
 2847              		.loc 1 676 0
 2848 0d44 3F4B     		ldr	r3, .L649+12
 2849 0d46 1B78     		ldrb	r3, [r3]	@ zero_extendqisi2
 2850 0d48 AB42     		cmp	r3, r5
 2851 0d4a 09D1     		bne	.L210
 677:.\protocolo.c **** 							write_eeprom(217,corte);
 2852              		.loc 1 677 0
 2853 0d4c D920     		movs	r0, #217
 2854 0d4e 09A9     		add	r1, sp, #36
 2855 0d50 FFF7FEFF 		bl	write_eeprom
 2856              	.LVL232:
 678:.\protocolo.c **** 							write_eeprom(538,resultado);
 2857              		.loc 1 678 0
ARM GAS  C:\Users\diego\AppData\Local\Temp\ccvEcbYb.s 			page 66


 2858 0d54 40F21A20 		movw	r0, #538
 2859 0d58 3749     		ldr	r1, .L649
 2860 0d5a FFF7FEFF 		bl	write_eeprom
 2861              	.LVL233:
 2862 0d5e 09E0     		b	.L195
 2863              	.L210:
 679:.\protocolo.c **** 						}
 680:.\protocolo.c **** 						else{
 681:.\protocolo.c **** 							write_eeprom(320,corte);
 2864              		.loc 1 681 0
 2865 0d60 4FF4A070 		mov	r0, #320
 2866 0d64 09A9     		add	r1, sp, #36
 2867 0d66 FFF7FEFF 		bl	write_eeprom
 2868              	.LVL234:
 682:.\protocolo.c **** 							write_eeprom(576,resultado);
 2869              		.loc 1 682 0
 2870 0d6a 4FF41070 		mov	r0, #576
 2871 0d6e 3249     		ldr	r1, .L649
 2872 0d70 FFF7FEFF 		bl	write_eeprom
 2873              	.LVL235:
 2874              	.L195:
 683:.\protocolo.c **** 						}				
 684:.\protocolo.c **** 					}
 685:.\protocolo.c **** 					if(((rventa.manguera==(producto3&0x0F))&&(dir==a.dir))||((rventa.manguera==(producto3b&0x0F))&
 2875              		.loc 1 685 0
 2876 0d74 314B     		ldr	r3, .L649+4
 2877 0d76 93F8E020 		ldrb	r2, [r3, #224]	@ zero_extendqisi2
 2878 0d7a 3D4B     		ldr	r3, .L649+56
 2879 0d7c 1B78     		ldrb	r3, [r3]	@ zero_extendqisi2
 2880 0d7e 03F00F03 		and	r3, r3, #15
 2881 0d82 9342     		cmp	r3, r2
 2882 0d84 03D1     		bne	.L211
 2883              		.loc 1 685 0 is_stmt 0 discriminator 1
 2884 0d86 2F4B     		ldr	r3, .L649+12
 2885 0d88 1B78     		ldrb	r3, [r3]	@ zero_extendqisi2
 2886 0d8a AB42     		cmp	r3, r5
 2887 0d8c 0BD0     		beq	.L212
 2888              	.L211:
 2889              		.loc 1 685 0 discriminator 3
 2890 0d8e 394B     		ldr	r3, .L649+60
 2891 0d90 1B78     		ldrb	r3, [r3]	@ zero_extendqisi2
 2892 0d92 03F00F03 		and	r3, r3, #15
 2893 0d96 9A42     		cmp	r2, r3
 2894 0d98 40F0E580 		bne	.L213
 2895              		.loc 1 685 0 discriminator 4
 2896 0d9c 2B4B     		ldr	r3, .L649+20
 2897 0d9e 1B78     		ldrb	r3, [r3]	@ zero_extendqisi2
 2898 0da0 AB42     		cmp	r3, r5
 2899 0da2 40F0E080 		bne	.L213
 2900              	.L212:
 686:.\protocolo.c **** 						for(x=0;x<=5;x++){									
 2901              		.loc 1 686 0 is_stmt 1
 2902 0da6 0022     		movs	r2, #0
 2903 0da8 2B4B     		ldr	r3, .L649+32
 2904 0daa 1A60     		str	r2, [r3]
 2905 0dac 08E0     		b	.L214
 2906              	.L215:
ARM GAS  C:\Users\diego\AppData\Local\Temp\ccvEcbYb.s 			page 67


 687:.\protocolo.c **** 						    write_psoc1(val,msn_tc[x]);
 2907              		.loc 1 687 0 discriminator 3
 2908 0dae 2046     		mov	r0, r4
 2909 0db0 2A4A     		ldr	r2, .L649+36
 2910 0db2 D15C     		ldrb	r1, [r2, r3]	@ zero_extendqisi2
 2911 0db4 FFF7FEFF 		bl	write_psoc1
 2912              	.LVL236:
 686:.\protocolo.c **** 						for(x=0;x<=5;x++){									
 2913              		.loc 1 686 0 discriminator 3
 2914 0db8 274A     		ldr	r2, .L649+32
 2915 0dba 1368     		ldr	r3, [r2]
 2916 0dbc 0133     		adds	r3, r3, #1
 2917 0dbe 1360     		str	r3, [r2]
 2918              	.L214:
 686:.\protocolo.c **** 						for(x=0;x<=5;x++){									
 2919              		.loc 1 686 0 is_stmt 0 discriminator 1
 2920 0dc0 254B     		ldr	r3, .L649+32
 2921 0dc2 1B68     		ldr	r3, [r3]
 2922 0dc4 052B     		cmp	r3, #5
 2923 0dc6 F2D9     		bls	.L215
 688:.\protocolo.c **** 					    }
 689:.\protocolo.c **** 					    write_psoc1(val,10);
 2924              		.loc 1 689 0 is_stmt 1
 2925 0dc8 2046     		mov	r0, r4
 2926 0dca 0A21     		movs	r1, #10
 2927 0dcc FFF7FEFF 		bl	write_psoc1
 2928              	.LVL237:
 690:.\protocolo.c ****                         for(x=0;x<=10;x++){									
 2929              		.loc 1 690 0
 2930 0dd0 0022     		movs	r2, #0
 2931 0dd2 214B     		ldr	r3, .L649+32
 2932 0dd4 1A60     		str	r2, [r3]
 2933 0dd6 08E0     		b	.L216
 2934              	.L217:
 691:.\protocolo.c **** 						    write_psoc1(val,producto3n[x]);
 2935              		.loc 1 691 0 discriminator 3
 2936 0dd8 2046     		mov	r0, r4
 2937 0dda 274A     		ldr	r2, .L649+64
 2938 0ddc D15C     		ldrb	r1, [r2, r3]	@ zero_extendqisi2
 2939 0dde FFF7FEFF 		bl	write_psoc1
 2940              	.LVL238:
 690:.\protocolo.c ****                         for(x=0;x<=10;x++){									
 2941              		.loc 1 690 0 discriminator 3
 2942 0de2 1D4A     		ldr	r2, .L649+32
 2943 0de4 1368     		ldr	r3, [r2]
 2944 0de6 0133     		adds	r3, r3, #1
 2945 0de8 1360     		str	r3, [r2]
 2946              	.L216:
 690:.\protocolo.c ****                         for(x=0;x<=10;x++){									
 2947              		.loc 1 690 0 is_stmt 0 discriminator 1
 2948 0dea 1B4B     		ldr	r3, .L649+32
 2949 0dec 1B68     		ldr	r3, [r3]
 2950 0dee 0A2B     		cmp	r3, #10
 2951 0df0 F2D9     		bls	.L217
 692:.\protocolo.c **** 					    }
 693:.\protocolo.c ****                         write_psoc1(val,10);
 2952              		.loc 1 693 0 is_stmt 1
ARM GAS  C:\Users\diego\AppData\Local\Temp\ccvEcbYb.s 			page 68


 2953 0df2 2046     		mov	r0, r4
 2954 0df4 0A21     		movs	r1, #10
 2955 0df6 FFF7FEFF 		bl	write_psoc1
 2956              	.LVL239:
 694:.\protocolo.c **** 						for(x=0;x<=14;x++){									
 2957              		.loc 1 694 0
 2958 0dfa 0022     		movs	r2, #0
 2959 0dfc 164B     		ldr	r3, .L649+32
 2960 0dfe 1A60     		str	r2, [r3]
 2961 0e00 09E0     		b	.L218
 2962              	.L219:
 695:.\protocolo.c **** 							write_psoc1(val,msn_lecact[x]);				//LECTURA ACTUAL
 2963              		.loc 1 695 0 discriminator 3
 2964 0e02 164A     		ldr	r2, .L649+36
 2965 0e04 1344     		add	r3, r3, r2
 2966 0e06 2046     		mov	r0, r4
 2967 0e08 197A     		ldrb	r1, [r3, #8]	@ zero_extendqisi2
 2968 0e0a FFF7FEFF 		bl	write_psoc1
 2969              	.LVL240:
 694:.\protocolo.c **** 						for(x=0;x<=14;x++){									
 2970              		.loc 1 694 0 discriminator 3
 2971 0e0e 124A     		ldr	r2, .L649+32
 2972 0e10 1368     		ldr	r3, [r2]
 2973 0e12 0133     		adds	r3, r3, #1
 2974 0e14 1360     		str	r3, [r2]
 2975              	.L218:
 694:.\protocolo.c **** 						for(x=0;x<=14;x++){									
 2976              		.loc 1 694 0 is_stmt 0 discriminator 1
 2977 0e16 104B     		ldr	r3, .L649+32
 2978 0e18 1B68     		ldr	r3, [r3]
 2979 0e1a 0E2B     		cmp	r3, #14
 2980 0e1c F1D9     		bls	.L219
 696:.\protocolo.c **** 						}
 697:.\protocolo.c **** 						write_psoc1(val,10);
 2981              		.loc 1 697 0 is_stmt 1
 2982 0e1e 2046     		mov	r0, r4
 2983 0e20 0A21     		movs	r1, #10
 2984 0e22 FFF7FEFF 		bl	write_psoc1
 2985              	.LVL241:
 698:.\protocolo.c **** 						print_totalesac(8,val);	
 2986              		.loc 1 698 0
 2987 0e26 0820     		movs	r0, #8
 2988 0e28 2146     		mov	r1, r4
 2989 0e2a FFF7FEFF 		bl	print_totalesac
 2990              	.LVL242:
 699:.\protocolo.c **** 						for(x=0;x<=16;x++){												
 2991              		.loc 1 699 0
 2992 0e2e 0022     		movs	r2, #0
 2993 0e30 094B     		ldr	r3, .L649+32
 2994 0e32 1A60     		str	r2, [r3]
 2995 0e34 2CE0     		b	.L220
 2996              	.L650:
 2997 0e36 00BF     		.align	2
 2998              	.L649:
 2999 0e38 00000000 		.word	resultado
 3000 0e3c 00000000 		.word	rventa
 3001 0e40 00000000 		.word	producto2
ARM GAS  C:\Users\diego\AppData\Local\Temp\ccvEcbYb.s 			page 69


 3002 0e44 00000000 		.word	a
 3003 0e48 00000000 		.word	producto2b
 3004 0e4c 00000000 		.word	b
 3005 0e50 00000000 		.word	d
 3006 0e54 00000000 		.word	c
 3007 0e58 00000000 		.word	x
 3008 0e5c 00000000 		.word	.LANCHOR1
 3009 0e60 00000000 		.word	producto2n
 3010 0e64 00000000 		.word	z
 3011 0e68 FFFFFFFF 		.word	rventa-1
 3012 0e6c 00000000 		.word	buffer_i2c
 3013 0e70 00000000 		.word	producto3
 3014 0e74 00000000 		.word	producto3b
 3015 0e78 00000000 		.word	producto3n
 3016              	.L221:
 700:.\protocolo.c **** 							write_psoc1(val,msn_lecaan[x]);				//LECTURA ANTERIOR
 3017              		.loc 1 700 0 discriminator 3
 3018 0e7c AC4A     		ldr	r2, .L651
 3019 0e7e 1344     		add	r3, r3, r2
 3020 0e80 2046     		mov	r0, r4
 3021 0e82 197E     		ldrb	r1, [r3, #24]	@ zero_extendqisi2
 3022 0e84 FFF7FEFF 		bl	write_psoc1
 3023              	.LVL243:
 699:.\protocolo.c **** 						for(x=0;x<=16;x++){												
 3024              		.loc 1 699 0 discriminator 3
 3025 0e88 AA4A     		ldr	r2, .L651+4
 3026 0e8a 1368     		ldr	r3, [r2]
 3027 0e8c 0133     		adds	r3, r3, #1
 3028 0e8e 1360     		str	r3, [r2]
 3029              	.L220:
 699:.\protocolo.c **** 						for(x=0;x<=16;x++){												
 3030              		.loc 1 699 0 is_stmt 0 discriminator 1
 3031 0e90 A84B     		ldr	r3, .L651+4
 3032 0e92 1B68     		ldr	r3, [r3]
 3033 0e94 102B     		cmp	r3, #16
 3034 0e96 F1D9     		bls	.L221
 701:.\protocolo.c **** 						}
 702:.\protocolo.c **** 						write_psoc1(val,10);
 3035              		.loc 1 702 0 is_stmt 1
 3036 0e98 2046     		mov	r0, r4
 3037 0e9a 0A21     		movs	r1, #10
 3038 0e9c FFF7FEFF 		bl	write_psoc1
 3039              	.LVL244:
 703:.\protocolo.c **** 						if(dir==a.dir){
 3040              		.loc 1 703 0
 3041 0ea0 A54B     		ldr	r3, .L651+8
 3042 0ea2 1B78     		ldrb	r3, [r3]	@ zero_extendqisi2
 3043 0ea4 AB42     		cmp	r3, r5
 3044 0ea6 05D1     		bne	.L222
 704:.\protocolo.c **** 							leer_eeprom(256,25);
 3045              		.loc 1 704 0
 3046 0ea8 4FF48070 		mov	r0, #256
 3047 0eac 1921     		movs	r1, #25
 3048 0eae FFF7FEFF 		bl	leer_eeprom
 3049              	.LVL245:
 3050 0eb2 04E0     		b	.L223
 3051              	.L222:
ARM GAS  C:\Users\diego\AppData\Local\Temp\ccvEcbYb.s 			page 70


 705:.\protocolo.c **** 						}
 706:.\protocolo.c **** 						else{
 707:.\protocolo.c **** 							leer_eeprom(345,25);
 3052              		.loc 1 707 0
 3053 0eb4 40F25910 		movw	r0, #345
 3054 0eb8 1921     		movs	r1, #25
 3055 0eba FFF7FEFF 		bl	leer_eeprom
 3056              	.LVL246:
 3057              	.L223:
 708:.\protocolo.c **** 						}
 709:.\protocolo.c **** 						print_totales(val);
 3058              		.loc 1 709 0
 3059 0ebe 2046     		mov	r0, r4
 3060 0ec0 FFF7FEFF 		bl	print_totales
 3061              	.LVL247:
 710:.\protocolo.c **** 						for(z=1;z<=8;z++){
 3062              		.loc 1 710 0
 3063 0ec4 0122     		movs	r2, #1
 3064 0ec6 9D4B     		ldr	r3, .L651+12
 3065 0ec8 1A60     		str	r2, [r3]
 3066 0eca 10E0     		b	.L224
 3067              	.L225:
 711:.\protocolo.c **** 							minuendo[z]=rventa.tdinero[z-1];
 3068              		.loc 1 711 0 discriminator 3
 3069 0ecc 9C4A     		ldr	r2, .L651+16
 3070 0ece 1A44     		add	r2, r2, r3
 3071 0ed0 92F8CA10 		ldrb	r1, [r2, #202]	@ zero_extendqisi2
 3072 0ed4 10AA     		add	r2, sp, #64
 3073 0ed6 1A44     		add	r2, r2, r3
 3074 0ed8 02F82C1C 		strb	r1, [r2, #-44]
 712:.\protocolo.c **** 							sustraendo[z]=buffer_i2c[z+8];
 3075              		.loc 1 712 0 discriminator 3
 3076 0edc 03F10801 		add	r1, r3, #8
 3077 0ee0 9848     		ldr	r0, .L651+20
 3078 0ee2 415C     		ldrb	r1, [r0, r1]	@ zero_extendqisi2
 3079 0ee4 02F83C1C 		strb	r1, [r2, #-60]
 710:.\protocolo.c **** 						for(z=1;z<=8;z++){
 3080              		.loc 1 710 0 discriminator 3
 3081 0ee8 0133     		adds	r3, r3, #1
 3082 0eea 944A     		ldr	r2, .L651+12
 3083 0eec 1360     		str	r3, [r2]
 3084              	.L224:
 710:.\protocolo.c **** 						for(z=1;z<=8;z++){
 3085              		.loc 1 710 0 is_stmt 0 discriminator 1
 3086 0eee 934B     		ldr	r3, .L651+12
 3087 0ef0 1B68     		ldr	r3, [r3]
 3088 0ef2 082B     		cmp	r3, #8
 3089 0ef4 EAD9     		bls	.L225
 713:.\protocolo.c **** 						}
 714:.\protocolo.c **** 						minuendo[0]=8;
 3090              		.loc 1 714 0 is_stmt 1
 3091 0ef6 10A9     		add	r1, sp, #64
 3092 0ef8 0823     		movs	r3, #8
 3093 0efa 01F82C3D 		strb	r3, [r1, #-44]!
 715:.\protocolo.c **** 						operacion(2,minuendo,sustraendo);
 3094              		.loc 1 715 0
 3095 0efe 0220     		movs	r0, #2
ARM GAS  C:\Users\diego\AppData\Local\Temp\ccvEcbYb.s 			page 71


 3096 0f00 01AA     		add	r2, sp, #4
 3097 0f02 FFF7FEFF 		bl	operacion
 3098              	.LVL248:
 716:.\protocolo.c **** 						for(x=0;x<=17;x++){									
 3099              		.loc 1 716 0
 3100 0f06 0022     		movs	r2, #0
 3101 0f08 8A4B     		ldr	r3, .L651+4
 3102 0f0a 1A60     		str	r2, [r3]
 3103 0f0c 0AE0     		b	.L226
 3104              	.L227:
 717:.\protocolo.c **** 							write_psoc1(val,msn_tventas[x]);				//Total de ventas
 3105              		.loc 1 717 0 discriminator 3
 3106 0f0e 884A     		ldr	r2, .L651
 3107 0f10 1344     		add	r3, r3, r2
 3108 0f12 2046     		mov	r0, r4
 3109 0f14 93F82C10 		ldrb	r1, [r3, #44]	@ zero_extendqisi2
 3110 0f18 FFF7FEFF 		bl	write_psoc1
 3111              	.LVL249:
 716:.\protocolo.c **** 						for(x=0;x<=17;x++){									
 3112              		.loc 1 716 0 discriminator 3
 3113 0f1c 854A     		ldr	r2, .L651+4
 3114 0f1e 1368     		ldr	r3, [r2]
 3115 0f20 0133     		adds	r3, r3, #1
 3116 0f22 1360     		str	r3, [r2]
 3117              	.L226:
 716:.\protocolo.c **** 						for(x=0;x<=17;x++){									
 3118              		.loc 1 716 0 is_stmt 0 discriminator 1
 3119 0f24 834B     		ldr	r3, .L651+4
 3120 0f26 1B68     		ldr	r3, [r3]
 3121 0f28 112B     		cmp	r3, #17
 3122 0f2a F0D9     		bls	.L227
 718:.\protocolo.c **** 						}
 719:.\protocolo.c **** 						print_valor(resultado,val);							
 3123              		.loc 1 719 0 is_stmt 1
 3124 0f2c 8648     		ldr	r0, .L651+24
 3125 0f2e 2146     		mov	r1, r4
 3126 0f30 FFF7FEFF 		bl	print_valor
 3127              	.LVL250:
 720:.\protocolo.c **** 						if(dir==a.dir){
 3128              		.loc 1 720 0
 3129 0f34 804B     		ldr	r3, .L651+8
 3130 0f36 1B78     		ldrb	r3, [r3]	@ zero_extendqisi2
 3131 0f38 AB42     		cmp	r3, r5
 3132 0f3a 0AD1     		bne	.L228
 721:.\protocolo.c **** 							write_eeprom(256,corte);
 3133              		.loc 1 721 0
 3134 0f3c 4FF48070 		mov	r0, #256
 3135 0f40 09A9     		add	r1, sp, #36
 3136 0f42 FFF7FEFF 		bl	write_eeprom
 3137              	.LVL251:
 722:.\protocolo.c **** 							write_eeprom(525,resultado);
 3138              		.loc 1 722 0
 3139 0f46 40F20D20 		movw	r0, #525
 3140 0f4a 7F49     		ldr	r1, .L651+24
 3141 0f4c FFF7FEFF 		bl	write_eeprom
 3142              	.LVL252:
 3143 0f50 09E0     		b	.L213
ARM GAS  C:\Users\diego\AppData\Local\Temp\ccvEcbYb.s 			page 72


 3144              	.L228:
 723:.\protocolo.c **** 						}
 724:.\protocolo.c **** 						else{
 725:.\protocolo.c **** 							write_eeprom(345,corte);
 3145              		.loc 1 725 0
 3146 0f52 40F25910 		movw	r0, #345
 3147 0f56 09A9     		add	r1, sp, #36
 3148 0f58 FFF7FEFF 		bl	write_eeprom
 3149              	.LVL253:
 726:.\protocolo.c **** 							write_eeprom(589,resultado);
 3150              		.loc 1 726 0
 3151 0f5c 40F24D20 		movw	r0, #589
 3152 0f60 7949     		ldr	r1, .L651+24
 3153 0f62 FFF7FEFF 		bl	write_eeprom
 3154              	.LVL254:
 3155              	.L213:
 727:.\protocolo.c **** 						}					
 728:.\protocolo.c **** 					}	
 729:.\protocolo.c ****                     
 730:.\protocolo.c ****                     if(((rventa.manguera==(producto4&0x0F))&&(dir==a.dir))||((rventa.manguera==(pro
 3156              		.loc 1 730 0
 3157 0f66 794B     		ldr	r3, .L651+28
 3158 0f68 93F8E020 		ldrb	r2, [r3, #224]	@ zero_extendqisi2
 3159 0f6c 784B     		ldr	r3, .L651+32
 3160 0f6e 1B78     		ldrb	r3, [r3]	@ zero_extendqisi2
 3161 0f70 03F00F03 		and	r3, r3, #15
 3162 0f74 9342     		cmp	r3, r2
 3163 0f76 03D1     		bne	.L229
 3164              		.loc 1 730 0 is_stmt 0 discriminator 1
 3165 0f78 6F4B     		ldr	r3, .L651+8
 3166 0f7a 1B78     		ldrb	r3, [r3]	@ zero_extendqisi2
 3167 0f7c AB42     		cmp	r3, r5
 3168 0f7e 0BD0     		beq	.L230
 3169              	.L229:
 3170              		.loc 1 730 0 discriminator 3
 3171 0f80 744B     		ldr	r3, .L651+36
 3172 0f82 1B78     		ldrb	r3, [r3]	@ zero_extendqisi2
 3173 0f84 03F00F03 		and	r3, r3, #15
 3174 0f88 9A42     		cmp	r2, r3
 3175 0f8a 40F0C280 		bne	.L231
 3176              		.loc 1 730 0 discriminator 4
 3177 0f8e 724B     		ldr	r3, .L651+40
 3178 0f90 1B78     		ldrb	r3, [r3]	@ zero_extendqisi2
 3179 0f92 AB42     		cmp	r3, r5
 3180 0f94 40F0BD80 		bne	.L231
 3181              	.L230:
 731:.\protocolo.c **** 						for(x=0;x<=5;x++){									
 3182              		.loc 1 731 0 is_stmt 1
 3183 0f98 0022     		movs	r2, #0
 3184 0f9a 664B     		ldr	r3, .L651+4
 3185 0f9c 1A60     		str	r2, [r3]
 3186 0f9e 08E0     		b	.L232
 3187              	.L233:
 732:.\protocolo.c **** 						    write_psoc1(val,msn_tc[x]);
 3188              		.loc 1 732 0 discriminator 3
 3189 0fa0 2046     		mov	r0, r4
 3190 0fa2 634A     		ldr	r2, .L651
ARM GAS  C:\Users\diego\AppData\Local\Temp\ccvEcbYb.s 			page 73


 3191 0fa4 D15C     		ldrb	r1, [r2, r3]	@ zero_extendqisi2
 3192 0fa6 FFF7FEFF 		bl	write_psoc1
 3193              	.LVL255:
 731:.\protocolo.c **** 						for(x=0;x<=5;x++){									
 3194              		.loc 1 731 0 discriminator 3
 3195 0faa 624A     		ldr	r2, .L651+4
 3196 0fac 1368     		ldr	r3, [r2]
 3197 0fae 0133     		adds	r3, r3, #1
 3198 0fb0 1360     		str	r3, [r2]
 3199              	.L232:
 731:.\protocolo.c **** 						for(x=0;x<=5;x++){									
 3200              		.loc 1 731 0 is_stmt 0 discriminator 1
 3201 0fb2 604B     		ldr	r3, .L651+4
 3202 0fb4 1B68     		ldr	r3, [r3]
 3203 0fb6 052B     		cmp	r3, #5
 3204 0fb8 F2D9     		bls	.L233
 733:.\protocolo.c **** 					    }
 734:.\protocolo.c **** 					    write_psoc1(val,10);
 3205              		.loc 1 734 0 is_stmt 1
 3206 0fba 2046     		mov	r0, r4
 3207 0fbc 0A21     		movs	r1, #10
 3208 0fbe FFF7FEFF 		bl	write_psoc1
 3209              	.LVL256:
 735:.\protocolo.c ****                         for(x=0;x<=10;x++){									
 3210              		.loc 1 735 0
 3211 0fc2 0022     		movs	r2, #0
 3212 0fc4 5B4B     		ldr	r3, .L651+4
 3213 0fc6 1A60     		str	r2, [r3]
 3214 0fc8 08E0     		b	.L234
 3215              	.L235:
 736:.\protocolo.c **** 						    write_psoc1(val,producto4n[x]);
 3216              		.loc 1 736 0 discriminator 3
 3217 0fca 2046     		mov	r0, r4
 3218 0fcc 634A     		ldr	r2, .L651+44
 3219 0fce D15C     		ldrb	r1, [r2, r3]	@ zero_extendqisi2
 3220 0fd0 FFF7FEFF 		bl	write_psoc1
 3221              	.LVL257:
 735:.\protocolo.c ****                         for(x=0;x<=10;x++){									
 3222              		.loc 1 735 0 discriminator 3
 3223 0fd4 574A     		ldr	r2, .L651+4
 3224 0fd6 1368     		ldr	r3, [r2]
 3225 0fd8 0133     		adds	r3, r3, #1
 3226 0fda 1360     		str	r3, [r2]
 3227              	.L234:
 735:.\protocolo.c ****                         for(x=0;x<=10;x++){									
 3228              		.loc 1 735 0 is_stmt 0 discriminator 1
 3229 0fdc 554B     		ldr	r3, .L651+4
 3230 0fde 1B68     		ldr	r3, [r3]
 3231 0fe0 0A2B     		cmp	r3, #10
 3232 0fe2 F2D9     		bls	.L235
 737:.\protocolo.c **** 					    }
 738:.\protocolo.c ****                         write_psoc1(val,10);
 3233              		.loc 1 738 0 is_stmt 1
 3234 0fe4 2046     		mov	r0, r4
 3235 0fe6 0A21     		movs	r1, #10
 3236 0fe8 FFF7FEFF 		bl	write_psoc1
 3237              	.LVL258:
ARM GAS  C:\Users\diego\AppData\Local\Temp\ccvEcbYb.s 			page 74


 739:.\protocolo.c **** 						for(x=0;x<=14;x++){									
 3238              		.loc 1 739 0
 3239 0fec 0022     		movs	r2, #0
 3240 0fee 514B     		ldr	r3, .L651+4
 3241 0ff0 1A60     		str	r2, [r3]
 3242 0ff2 09E0     		b	.L236
 3243              	.L237:
 740:.\protocolo.c **** 							write_psoc1(val,msn_lecact[x]);				//LECTURA ACTUAL
 3244              		.loc 1 740 0 discriminator 3
 3245 0ff4 4E4A     		ldr	r2, .L651
 3246 0ff6 1344     		add	r3, r3, r2
 3247 0ff8 2046     		mov	r0, r4
 3248 0ffa 197A     		ldrb	r1, [r3, #8]	@ zero_extendqisi2
 3249 0ffc FFF7FEFF 		bl	write_psoc1
 3250              	.LVL259:
 739:.\protocolo.c **** 						for(x=0;x<=14;x++){									
 3251              		.loc 1 739 0 discriminator 3
 3252 1000 4C4A     		ldr	r2, .L651+4
 3253 1002 1368     		ldr	r3, [r2]
 3254 1004 0133     		adds	r3, r3, #1
 3255 1006 1360     		str	r3, [r2]
 3256              	.L236:
 739:.\protocolo.c **** 						for(x=0;x<=14;x++){									
 3257              		.loc 1 739 0 is_stmt 0 discriminator 1
 3258 1008 4A4B     		ldr	r3, .L651+4
 3259 100a 1B68     		ldr	r3, [r3]
 3260 100c 0E2B     		cmp	r3, #14
 3261 100e F1D9     		bls	.L237
 741:.\protocolo.c **** 						}
 742:.\protocolo.c **** 						write_psoc1(val,10);
 3262              		.loc 1 742 0 is_stmt 1
 3263 1010 2046     		mov	r0, r4
 3264 1012 0A21     		movs	r1, #10
 3265 1014 FFF7FEFF 		bl	write_psoc1
 3266              	.LVL260:
 743:.\protocolo.c **** 						print_totalesac(8,val);	
 3267              		.loc 1 743 0
 3268 1018 0820     		movs	r0, #8
 3269 101a 2146     		mov	r1, r4
 3270 101c FFF7FEFF 		bl	print_totalesac
 3271              	.LVL261:
 744:.\protocolo.c **** 						for(x=0;x<=16;x++){												
 3272              		.loc 1 744 0
 3273 1020 0022     		movs	r2, #0
 3274 1022 444B     		ldr	r3, .L651+4
 3275 1024 1A60     		str	r2, [r3]
 3276 1026 09E0     		b	.L238
 3277              	.L239:
 745:.\protocolo.c **** 							write_psoc1(val,msn_lecaan[x]);				//LECTURA ANTERIOR
 3278              		.loc 1 745 0 discriminator 3
 3279 1028 414A     		ldr	r2, .L651
 3280 102a 1344     		add	r3, r3, r2
 3281 102c 2046     		mov	r0, r4
 3282 102e 197E     		ldrb	r1, [r3, #24]	@ zero_extendqisi2
 3283 1030 FFF7FEFF 		bl	write_psoc1
 3284              	.LVL262:
 744:.\protocolo.c **** 						for(x=0;x<=16;x++){												
ARM GAS  C:\Users\diego\AppData\Local\Temp\ccvEcbYb.s 			page 75


 3285              		.loc 1 744 0 discriminator 3
 3286 1034 3F4A     		ldr	r2, .L651+4
 3287 1036 1368     		ldr	r3, [r2]
 3288 1038 0133     		adds	r3, r3, #1
 3289 103a 1360     		str	r3, [r2]
 3290              	.L238:
 744:.\protocolo.c **** 						for(x=0;x<=16;x++){												
 3291              		.loc 1 744 0 is_stmt 0 discriminator 1
 3292 103c 3D4B     		ldr	r3, .L651+4
 3293 103e 1B68     		ldr	r3, [r3]
 3294 1040 102B     		cmp	r3, #16
 3295 1042 F1D9     		bls	.L239
 746:.\protocolo.c **** 						}
 747:.\protocolo.c **** 						write_psoc1(val,10);
 3296              		.loc 1 747 0 is_stmt 1
 3297 1044 2046     		mov	r0, r4
 3298 1046 0A21     		movs	r1, #10
 3299 1048 FFF7FEFF 		bl	write_psoc1
 3300              	.LVL263:
 748:.\protocolo.c **** 						if(dir==a.dir){
 3301              		.loc 1 748 0
 3302 104c 3A4B     		ldr	r3, .L651+8
 3303 104e 1B78     		ldrb	r3, [r3]	@ zero_extendqisi2
 3304 1050 AB42     		cmp	r3, r5
 3305 1052 05D1     		bne	.L240
 749:.\protocolo.c **** 							leer_eeprom(1096,25);
 3306              		.loc 1 749 0
 3307 1054 4FF48960 		mov	r0, #1096
 3308 1058 1921     		movs	r1, #25
 3309 105a FFF7FEFF 		bl	leer_eeprom
 3310              	.LVL264:
 3311 105e 04E0     		b	.L241
 3312              	.L240:
 750:.\protocolo.c **** 						}
 751:.\protocolo.c **** 						else{
 752:.\protocolo.c **** 							leer_eeprom(1054,25);
 3313              		.loc 1 752 0
 3314 1060 40F21E40 		movw	r0, #1054
 3315 1064 1921     		movs	r1, #25
 3316 1066 FFF7FEFF 		bl	leer_eeprom
 3317              	.LVL265:
 3318              	.L241:
 753:.\protocolo.c **** 						}
 754:.\protocolo.c **** 						print_totales(val);
 3319              		.loc 1 754 0
 3320 106a 2046     		mov	r0, r4
 3321 106c FFF7FEFF 		bl	print_totales
 3322              	.LVL266:
 755:.\protocolo.c **** 						for(z=1;z<=8;z++){
 3323              		.loc 1 755 0
 3324 1070 0122     		movs	r2, #1
 3325 1072 324B     		ldr	r3, .L651+12
 3326 1074 1A60     		str	r2, [r3]
 3327 1076 10E0     		b	.L242
 3328              	.L243:
 756:.\protocolo.c **** 							minuendo[z]=rventa.tdinero[z-1];
 3329              		.loc 1 756 0 discriminator 3
ARM GAS  C:\Users\diego\AppData\Local\Temp\ccvEcbYb.s 			page 76


 3330 1078 314A     		ldr	r2, .L651+16
 3331 107a 1A44     		add	r2, r2, r3
 3332 107c 92F8CA10 		ldrb	r1, [r2, #202]	@ zero_extendqisi2
 3333 1080 10AA     		add	r2, sp, #64
 3334 1082 1A44     		add	r2, r2, r3
 3335 1084 02F82C1C 		strb	r1, [r2, #-44]
 757:.\protocolo.c **** 							sustraendo[z]=buffer_i2c[z+8];
 3336              		.loc 1 757 0 discriminator 3
 3337 1088 03F10801 		add	r1, r3, #8
 3338 108c 2D48     		ldr	r0, .L651+20
 3339 108e 415C     		ldrb	r1, [r0, r1]	@ zero_extendqisi2
 3340 1090 02F83C1C 		strb	r1, [r2, #-60]
 755:.\protocolo.c **** 						for(z=1;z<=8;z++){
 3341              		.loc 1 755 0 discriminator 3
 3342 1094 0133     		adds	r3, r3, #1
 3343 1096 294A     		ldr	r2, .L651+12
 3344 1098 1360     		str	r3, [r2]
 3345              	.L242:
 755:.\protocolo.c **** 						for(z=1;z<=8;z++){
 3346              		.loc 1 755 0 is_stmt 0 discriminator 1
 3347 109a 284B     		ldr	r3, .L651+12
 3348 109c 1B68     		ldr	r3, [r3]
 3349 109e 082B     		cmp	r3, #8
 3350 10a0 EAD9     		bls	.L243
 758:.\protocolo.c **** 						}
 759:.\protocolo.c **** 						minuendo[0]=8;
 3351              		.loc 1 759 0 is_stmt 1
 3352 10a2 10A9     		add	r1, sp, #64
 3353 10a4 0823     		movs	r3, #8
 3354 10a6 01F82C3D 		strb	r3, [r1, #-44]!
 760:.\protocolo.c **** 						operacion(2,minuendo,sustraendo);
 3355              		.loc 1 760 0
 3356 10aa 0220     		movs	r0, #2
 3357 10ac 01AA     		add	r2, sp, #4
 3358 10ae FFF7FEFF 		bl	operacion
 3359              	.LVL267:
 761:.\protocolo.c **** 						for(x=0;x<=17;x++){									
 3360              		.loc 1 761 0
 3361 10b2 0022     		movs	r2, #0
 3362 10b4 1F4B     		ldr	r3, .L651+4
 3363 10b6 1A60     		str	r2, [r3]
 3364 10b8 0AE0     		b	.L244
 3365              	.L245:
 762:.\protocolo.c **** 							write_psoc1(val,msn_tventas[x]);				//Total de ventas
 3366              		.loc 1 762 0 discriminator 3
 3367 10ba 1D4A     		ldr	r2, .L651
 3368 10bc 1344     		add	r3, r3, r2
 3369 10be 2046     		mov	r0, r4
 3370 10c0 93F82C10 		ldrb	r1, [r3, #44]	@ zero_extendqisi2
 3371 10c4 FFF7FEFF 		bl	write_psoc1
 3372              	.LVL268:
 761:.\protocolo.c **** 						for(x=0;x<=17;x++){									
 3373              		.loc 1 761 0 discriminator 3
 3374 10c8 1A4A     		ldr	r2, .L651+4
 3375 10ca 1368     		ldr	r3, [r2]
 3376 10cc 0133     		adds	r3, r3, #1
 3377 10ce 1360     		str	r3, [r2]
ARM GAS  C:\Users\diego\AppData\Local\Temp\ccvEcbYb.s 			page 77


 3378              	.L244:
 761:.\protocolo.c **** 						for(x=0;x<=17;x++){									
 3379              		.loc 1 761 0 is_stmt 0 discriminator 1
 3380 10d0 184B     		ldr	r3, .L651+4
 3381 10d2 1B68     		ldr	r3, [r3]
 3382 10d4 112B     		cmp	r3, #17
 3383 10d6 F0D9     		bls	.L245
 763:.\protocolo.c **** 						}
 764:.\protocolo.c **** 						print_valor(resultado,val);							
 3384              		.loc 1 764 0 is_stmt 1
 3385 10d8 1B48     		ldr	r0, .L651+24
 3386 10da 2146     		mov	r1, r4
 3387 10dc FFF7FEFF 		bl	print_valor
 3388              	.LVL269:
 765:.\protocolo.c **** 						if(dir==a.dir){
 3389              		.loc 1 765 0
 3390 10e0 154B     		ldr	r3, .L651+8
 3391 10e2 1B78     		ldrb	r3, [r3]	@ zero_extendqisi2
 3392 10e4 AB42     		cmp	r3, r5
 3393 10e6 0AD1     		bne	.L246
 766:.\protocolo.c **** 						    write_eeprom(1096,corte);
 3394              		.loc 1 766 0
 3395 10e8 4FF48960 		mov	r0, #1096
 3396 10ec 09A9     		add	r1, sp, #36
 3397 10ee FFF7FEFF 		bl	write_eeprom
 3398              	.LVL270:
 767:.\protocolo.c **** 						    write_eeprom(1038,resultado);
 3399              		.loc 1 767 0
 3400 10f2 40F20E40 		movw	r0, #1038
 3401 10f6 1449     		ldr	r1, .L651+24
 3402 10f8 FFF7FEFF 		bl	write_eeprom
 3403              	.LVL271:
 3404 10fc 09E0     		b	.L231
 3405              	.L246:
 768:.\protocolo.c **** 					    }
 769:.\protocolo.c **** 					    else{
 770:.\protocolo.c **** 						    write_eeprom(1054,corte);
 3406              		.loc 1 770 0
 3407 10fe 40F21E40 		movw	r0, #1054
 3408 1102 09A9     		add	r1, sp, #36
 3409 1104 FFF7FEFF 		bl	write_eeprom
 3410              	.LVL272:
 771:.\protocolo.c **** 						    write_eeprom(1081,resultado);
 3411              		.loc 1 771 0
 3412 1108 40F23940 		movw	r0, #1081
 3413 110c 0E49     		ldr	r1, .L651+24
 3414 110e FFF7FEFF 		bl	write_eeprom
 3415              	.LVL273:
 3416              	.L231:
 581:.\protocolo.c **** 					rventa.manguera=(Surtidor_rxBuffer[y+2]&0x0F)+1;
 3417              		.loc 1 581 0 discriminator 2
 3418 1112 134A     		ldr	r2, .L651+48
 3419 1114 1368     		ldr	r3, [r2]
 3420 1116 1E33     		adds	r3, r3, #30
 3421 1118 1360     		str	r3, [r2]
 3422              	.L162:
 581:.\protocolo.c **** 					rventa.manguera=(Surtidor_rxBuffer[y+2]&0x0F)+1;
ARM GAS  C:\Users\diego\AppData\Local\Temp\ccvEcbYb.s 			page 78


 3423              		.loc 1 581 0 is_stmt 0 discriminator 1
 3424 111a 114B     		ldr	r3, .L651+48
 3425 111c 1E68     		ldr	r6, [r3]
 3426 111e 1E2E     		cmp	r6, #30
 3427 1120 7FF6ECAB 		bls	.L247
 772:.\protocolo.c **** 						}					
 773:.\protocolo.c **** 					}
 774:.\protocolo.c **** 				}
 775:.\protocolo.c **** 				Surtidor_ClearRxBuffer();
 3428              		.loc 1 775 0 is_stmt 1
 3429 1124 FFF7FEFF 		bl	Surtidor_ClearRxBuffer
 3430              	.LVL274:
 776:.\protocolo.c **** 				return 2;					
 3431              		.loc 1 776 0
 3432 1128 0220     		movs	r0, #2
 3433 112a 02F0D2BA 		b	.L78
 3434              	.L652:
 3435 112e 00BF     		.align	2
 3436              	.L651:
 3437 1130 00000000 		.word	.LANCHOR1
 3438 1134 00000000 		.word	x
 3439 1138 00000000 		.word	a
 3440 113c 00000000 		.word	z
 3441 1140 FFFFFFFF 		.word	rventa-1
 3442 1144 00000000 		.word	buffer_i2c
 3443 1148 00000000 		.word	resultado
 3444 114c 00000000 		.word	rventa
 3445 1150 00000000 		.word	producto4
 3446 1154 00000000 		.word	producto4b
 3447 1158 00000000 		.word	b
 3448 115c 00000000 		.word	producto4n
 3449 1160 00000000 		.word	y
 3450              	.LVL275:
 3451              	.L75:
 777:.\protocolo.c **** 			}			
 778:.\protocolo.c **** 			else{
 779:.\protocolo.c **** 				return 0;
 780:.\protocolo.c **** 			}
 781:.\protocolo.c **** 		break;
 782:.\protocolo.c **** 		
 783:.\protocolo.c **** 		case 94:
 784:.\protocolo.c **** 			if((Surtidor_rxBuffer[0]==0xFF)&&(Surtidor_rxBuffer[1]==0xF6)&&(Surtidor_rxBuffer[93]==0xF0)&&(S
 3452              		.loc 1 784 0
 3453 1164 A64B     		ldr	r3, .L653
 3454 1166 1B78     		ldrb	r3, [r3]	@ zero_extendqisi2
 3455 1168 DBB2     		uxtb	r3, r3
 3456 116a FF2B     		cmp	r3, #255
 3457 116c 42F09282 		bne	.L624
 3458              		.loc 1 784 0 is_stmt 0 discriminator 1
 3459 1170 A34B     		ldr	r3, .L653
 3460 1172 5B78     		ldrb	r3, [r3, #1]	@ zero_extendqisi2
 3461 1174 DBB2     		uxtb	r3, r3
 3462 1176 F62B     		cmp	r3, #246
 3463 1178 42F08E82 		bne	.L625
 3464              		.loc 1 784 0 discriminator 2
 3465 117c A04B     		ldr	r3, .L653
 3466 117e 93F85D30 		ldrb	r3, [r3, #93]	@ zero_extendqisi2
ARM GAS  C:\Users\diego\AppData\Local\Temp\ccvEcbYb.s 			page 79


 3467 1182 DBB2     		uxtb	r3, r3
 3468 1184 F02B     		cmp	r3, #240
 3469 1186 42F08982 		bne	.L626
 3470              		.loc 1 784 0 discriminator 3
 3471 118a 9D4B     		ldr	r3, .L653
 3472 118c DB78     		ldrb	r3, [r3, #3]	@ zero_extendqisi2
 3473 118e DBB2     		uxtb	r3, r3
 3474 1190 F92B     		cmp	r3, #249
 3475 1192 42F08582 		bne	.L627
 785:.\protocolo.c **** 				for(y=0;y<=60;y+=30){
 3476              		.loc 1 785 0 is_stmt 1
 3477 1196 0022     		movs	r2, #0
 3478 1198 9A4B     		ldr	r3, .L653+4
 3479 119a 1A60     		str	r2, [r3]
 3480 119c 00F00FBC 		b	.L248
 3481              	.LVL276:
 3482              	.L333:
 786:.\protocolo.c **** 					rventa.manguera=(Surtidor_rxBuffer[y+2]&0x0F)+1;
 3483              		.loc 1 786 0
 3484 11a0 B31C     		adds	r3, r6, #2
 3485 11a2 974A     		ldr	r2, .L653
 3486 11a4 D15C     		ldrb	r1, [r2, r3]	@ zero_extendqisi2
 3487 11a6 01F00F01 		and	r1, r1, #15
 3488 11aa 0131     		adds	r1, r1, #1
 3489 11ac 964B     		ldr	r3, .L653+8
 3490 11ae 83F8E010 		strb	r1, [r3, #224]
 787:.\protocolo.c **** 					for(x=0;x<=7;x++){
 3491              		.loc 1 787 0
 3492 11b2 0022     		movs	r2, #0
 3493 11b4 954B     		ldr	r3, .L653+12
 3494 11b6 1A60     		str	r2, [r3]
 3495 11b8 0CE0     		b	.L249
 3496              	.L250:
 788:.\protocolo.c **** 						rventa.tvolumen[x]=(Surtidor_rxBuffer[y+4+x]&0x0F);						
 3497              		.loc 1 788 0 discriminator 3
 3498 11ba F218     		adds	r2, r6, r3
 3499 11bc 0432     		adds	r2, r2, #4
 3500 11be 9048     		ldr	r0, .L653
 3501 11c0 805C     		ldrb	r0, [r0, r2]	@ zero_extendqisi2
 3502 11c2 914A     		ldr	r2, .L653+8
 3503 11c4 1A44     		add	r2, r2, r3
 3504 11c6 00F00F00 		and	r0, r0, #15
 3505 11ca 82F8BD00 		strb	r0, [r2, #189]
 787:.\protocolo.c **** 					for(x=0;x<=7;x++){
 3506              		.loc 1 787 0 discriminator 3
 3507 11ce 0133     		adds	r3, r3, #1
 3508 11d0 8E4A     		ldr	r2, .L653+12
 3509 11d2 1360     		str	r3, [r2]
 3510              	.L249:
 787:.\protocolo.c **** 					for(x=0;x<=7;x++){
 3511              		.loc 1 787 0 is_stmt 0 discriminator 1
 3512 11d4 8D4B     		ldr	r3, .L653+12
 3513 11d6 1B68     		ldr	r3, [r3]
 3514 11d8 072B     		cmp	r3, #7
 3515 11da EED9     		bls	.L250
 789:.\protocolo.c **** 					}
 790:.\protocolo.c **** 					for(x=0;x<=7;x++){
ARM GAS  C:\Users\diego\AppData\Local\Temp\ccvEcbYb.s 			page 80


 3516              		.loc 1 790 0 is_stmt 1
 3517 11dc 0022     		movs	r2, #0
 3518 11de 8B4B     		ldr	r3, .L653+12
 3519 11e0 1A60     		str	r2, [r3]
 3520 11e2 0CE0     		b	.L251
 3521              	.L252:
 791:.\protocolo.c **** 						rventa.tdinero[x]=(Surtidor_rxBuffer[y+13+x]&0x0F);					
 3522              		.loc 1 791 0 discriminator 3
 3523 11e4 F218     		adds	r2, r6, r3
 3524 11e6 0D32     		adds	r2, r2, #13
 3525 11e8 8548     		ldr	r0, .L653
 3526 11ea 805C     		ldrb	r0, [r0, r2]	@ zero_extendqisi2
 3527 11ec 864A     		ldr	r2, .L653+8
 3528 11ee 1A44     		add	r2, r2, r3
 3529 11f0 00F00F00 		and	r0, r0, #15
 3530 11f4 82F8CA00 		strb	r0, [r2, #202]
 790:.\protocolo.c **** 						rventa.tdinero[x]=(Surtidor_rxBuffer[y+13+x]&0x0F);					
 3531              		.loc 1 790 0 discriminator 3
 3532 11f8 0133     		adds	r3, r3, #1
 3533 11fa 844A     		ldr	r2, .L653+12
 3534 11fc 1360     		str	r3, [r2]
 3535              	.L251:
 790:.\protocolo.c **** 						rventa.tdinero[x]=(Surtidor_rxBuffer[y+13+x]&0x0F);					
 3536              		.loc 1 790 0 is_stmt 0 discriminator 1
 3537 11fe 834B     		ldr	r3, .L653+12
 3538 1200 1B68     		ldr	r3, [r3]
 3539 1202 072B     		cmp	r3, #7
 3540 1204 EED9     		bls	.L252
 792:.\protocolo.c **** 					}
 793:.\protocolo.c **** 					for(z=0;z<=7;z++){
 3541              		.loc 1 793 0 is_stmt 1
 3542 1206 0022     		movs	r2, #0
 3543 1208 814B     		ldr	r3, .L653+16
 3544 120a 1A60     		str	r2, [r3]
 3545 120c 0AE0     		b	.L253
 3546              	.L254:
 794:.\protocolo.c **** 						corte[z+1]=rventa.tvolumen[z];
 3547              		.loc 1 794 0 discriminator 3
 3548 120e 5A1C     		adds	r2, r3, #1
 3549 1210 7D48     		ldr	r0, .L653+8
 3550 1212 0344     		add	r3, r3, r0
 3551 1214 93F8BD00 		ldrb	r0, [r3, #189]	@ zero_extendqisi2
 3552 1218 10AB     		add	r3, sp, #64
 3553 121a 1344     		add	r3, r3, r2
 3554 121c 03F81C0C 		strb	r0, [r3, #-28]
 793:.\protocolo.c **** 						corte[z+1]=rventa.tvolumen[z];
 3555              		.loc 1 793 0 discriminator 3
 3556 1220 7B4B     		ldr	r3, .L653+16
 3557 1222 1A60     		str	r2, [r3]
 3558              	.L253:
 793:.\protocolo.c **** 						corte[z+1]=rventa.tvolumen[z];
 3559              		.loc 1 793 0 is_stmt 0 discriminator 1
 3560 1224 7A4B     		ldr	r3, .L653+16
 3561 1226 1B68     		ldr	r3, [r3]
 3562 1228 072B     		cmp	r3, #7
 3563 122a F0D9     		bls	.L254
 795:.\protocolo.c **** 					}
ARM GAS  C:\Users\diego\AppData\Local\Temp\ccvEcbYb.s 			page 81


 796:.\protocolo.c **** 					for(z=9;z<=16;z++){
 3564              		.loc 1 796 0 is_stmt 1
 3565 122c 0922     		movs	r2, #9
 3566 122e 784B     		ldr	r3, .L653+16
 3567 1230 1A60     		str	r2, [r3]
 3568 1232 0AE0     		b	.L255
 3569              	.L256:
 797:.\protocolo.c **** 						corte[z]=rventa.tdinero[z-9];
 3570              		.loc 1 797 0 discriminator 3
 3571 1234 774A     		ldr	r2, .L653+20
 3572 1236 1A44     		add	r2, r2, r3
 3573 1238 92F8CA00 		ldrb	r0, [r2, #202]	@ zero_extendqisi2
 3574 123c 10AA     		add	r2, sp, #64
 3575 123e 1A44     		add	r2, r2, r3
 3576 1240 02F81C0C 		strb	r0, [r2, #-28]
 796:.\protocolo.c **** 						corte[z]=rventa.tdinero[z-9];
 3577              		.loc 1 796 0 discriminator 3
 3578 1244 0133     		adds	r3, r3, #1
 3579 1246 724A     		ldr	r2, .L653+16
 3580 1248 1360     		str	r3, [r2]
 3581              	.L255:
 796:.\protocolo.c **** 						corte[z]=rventa.tdinero[z-9];
 3582              		.loc 1 796 0 is_stmt 0 discriminator 1
 3583 124a 714B     		ldr	r3, .L653+16
 3584 124c 1B68     		ldr	r3, [r3]
 3585 124e 102B     		cmp	r3, #16
 3586 1250 F0D9     		bls	.L256
 798:.\protocolo.c **** 					}
 799:.\protocolo.c **** 					corte[0]=16;		
 3587              		.loc 1 799 0 is_stmt 1
 3588 1252 1023     		movs	r3, #16
 3589 1254 8DF82430 		strb	r3, [sp, #36]
 800:.\protocolo.c **** 					if(((rventa.manguera==(producto1&0x0F))&&(dir==a.dir))||((rventa.manguera==(producto1b&0x0F))&
 3590              		.loc 1 800 0
 3591 1258 6F4B     		ldr	r3, .L653+24
 3592 125a 1B78     		ldrb	r3, [r3]	@ zero_extendqisi2
 3593 125c 03F00F03 		and	r3, r3, #15
 3594 1260 8B42     		cmp	r3, r1
 3595 1262 03D1     		bne	.L257
 3596              		.loc 1 800 0 is_stmt 0 discriminator 1
 3597 1264 6D4A     		ldr	r2, .L653+28
 3598 1266 1278     		ldrb	r2, [r2]	@ zero_extendqisi2
 3599 1268 AA42     		cmp	r2, r5
 3600 126a 17D0     		beq	.L258
 3601              	.L257:
 3602              		.loc 1 800 0 discriminator 3
 3603 126c 6C4A     		ldr	r2, .L653+32
 3604 126e 1278     		ldrb	r2, [r2]	@ zero_extendqisi2
 3605 1270 02F00F02 		and	r2, r2, #15
 3606 1274 9142     		cmp	r1, r2
 3607 1276 03D1     		bne	.L259
 3608              		.loc 1 800 0 discriminator 4
 3609 1278 6A48     		ldr	r0, .L653+36
 3610 127a 0078     		ldrb	r0, [r0]	@ zero_extendqisi2
 3611 127c A842     		cmp	r0, r5
 3612 127e 0DD0     		beq	.L258
 3613              	.L259:
ARM GAS  C:\Users\diego\AppData\Local\Temp\ccvEcbYb.s 			page 82


 3614              		.loc 1 800 0 discriminator 6
 3615 1280 8B42     		cmp	r3, r1
 3616 1282 03D1     		bne	.L260
 3617              		.loc 1 800 0 discriminator 7
 3618 1284 684B     		ldr	r3, .L653+40
 3619 1286 1B78     		ldrb	r3, [r3]	@ zero_extendqisi2
 3620 1288 AB42     		cmp	r3, r5
 3621 128a 07D0     		beq	.L258
 3622              	.L260:
 3623              		.loc 1 800 0 discriminator 9
 3624 128c 9142     		cmp	r1, r2
 3625 128e 40F0E380 		bne	.L261
 3626              		.loc 1 800 0 discriminator 10
 3627 1292 664B     		ldr	r3, .L653+44
 3628 1294 1B78     		ldrb	r3, [r3]	@ zero_extendqisi2
 3629 1296 AB42     		cmp	r3, r5
 3630 1298 40F0DE80 		bne	.L261
 3631              	.L258:
 801:.\protocolo.c **** 						for(x=0;x<=5;x++){									
 3632              		.loc 1 801 0 is_stmt 1
 3633 129c 0022     		movs	r2, #0
 3634 129e 5B4B     		ldr	r3, .L653+12
 3635 12a0 1A60     		str	r2, [r3]
 3636 12a2 08E0     		b	.L262
 3637              	.L263:
 802:.\protocolo.c **** 							write_psoc1(val,msn_tc[x]);
 3638              		.loc 1 802 0 discriminator 3
 3639 12a4 2046     		mov	r0, r4
 3640 12a6 624A     		ldr	r2, .L653+48
 3641 12a8 D15C     		ldrb	r1, [r2, r3]	@ zero_extendqisi2
 3642 12aa FFF7FEFF 		bl	write_psoc1
 3643              	.LVL277:
 801:.\protocolo.c **** 						for(x=0;x<=5;x++){									
 3644              		.loc 1 801 0 discriminator 3
 3645 12ae 574A     		ldr	r2, .L653+12
 3646 12b0 1368     		ldr	r3, [r2]
 3647 12b2 0133     		adds	r3, r3, #1
 3648 12b4 1360     		str	r3, [r2]
 3649              	.L262:
 801:.\protocolo.c **** 						for(x=0;x<=5;x++){									
 3650              		.loc 1 801 0 is_stmt 0 discriminator 1
 3651 12b6 554B     		ldr	r3, .L653+12
 3652 12b8 1B68     		ldr	r3, [r3]
 3653 12ba 052B     		cmp	r3, #5
 3654 12bc F2D9     		bls	.L263
 803:.\protocolo.c **** 						}
 804:.\protocolo.c **** 						write_psoc1(val,10);
 3655              		.loc 1 804 0 is_stmt 1
 3656 12be 2046     		mov	r0, r4
 3657 12c0 0A21     		movs	r1, #10
 3658 12c2 FFF7FEFF 		bl	write_psoc1
 3659              	.LVL278:
 805:.\protocolo.c ****                         for(x=0;x<=10;x++){									
 3660              		.loc 1 805 0
 3661 12c6 0022     		movs	r2, #0
 3662 12c8 504B     		ldr	r3, .L653+12
 3663 12ca 1A60     		str	r2, [r3]
ARM GAS  C:\Users\diego\AppData\Local\Temp\ccvEcbYb.s 			page 83


 3664 12cc 08E0     		b	.L264
 3665              	.L265:
 806:.\protocolo.c **** 						write_psoc1(val,producto1n[x]);
 3666              		.loc 1 806 0 discriminator 3
 3667 12ce 2046     		mov	r0, r4
 3668 12d0 584A     		ldr	r2, .L653+52
 3669 12d2 D15C     		ldrb	r1, [r2, r3]	@ zero_extendqisi2
 3670 12d4 FFF7FEFF 		bl	write_psoc1
 3671              	.LVL279:
 805:.\protocolo.c ****                         for(x=0;x<=10;x++){									
 3672              		.loc 1 805 0 discriminator 3
 3673 12d8 4C4A     		ldr	r2, .L653+12
 3674 12da 1368     		ldr	r3, [r2]
 3675 12dc 0133     		adds	r3, r3, #1
 3676 12de 1360     		str	r3, [r2]
 3677              	.L264:
 805:.\protocolo.c ****                         for(x=0;x<=10;x++){									
 3678              		.loc 1 805 0 is_stmt 0 discriminator 1
 3679 12e0 4A4B     		ldr	r3, .L653+12
 3680 12e2 1B68     		ldr	r3, [r3]
 3681 12e4 0A2B     		cmp	r3, #10
 3682 12e6 F2D9     		bls	.L265
 807:.\protocolo.c **** 					    }
 808:.\protocolo.c ****                         write_psoc1(val,10);
 3683              		.loc 1 808 0 is_stmt 1
 3684 12e8 2046     		mov	r0, r4
 3685 12ea 0A21     		movs	r1, #10
 3686 12ec FFF7FEFF 		bl	write_psoc1
 3687              	.LVL280:
 809:.\protocolo.c **** 						for(x=0;x<=14;x++){									
 3688              		.loc 1 809 0
 3689 12f0 0022     		movs	r2, #0
 3690 12f2 464B     		ldr	r3, .L653+12
 3691 12f4 1A60     		str	r2, [r3]
 3692 12f6 09E0     		b	.L266
 3693              	.L267:
 810:.\protocolo.c **** 							write_psoc1(val,msn_lecact[x]);				//LECTURA ACTUAL
 3694              		.loc 1 810 0 discriminator 3
 3695 12f8 4D4A     		ldr	r2, .L653+48
 3696 12fa 1344     		add	r3, r3, r2
 3697 12fc 2046     		mov	r0, r4
 3698 12fe 197A     		ldrb	r1, [r3, #8]	@ zero_extendqisi2
 3699 1300 FFF7FEFF 		bl	write_psoc1
 3700              	.LVL281:
 809:.\protocolo.c **** 						for(x=0;x<=14;x++){									
 3701              		.loc 1 809 0 discriminator 3
 3702 1304 414A     		ldr	r2, .L653+12
 3703 1306 1368     		ldr	r3, [r2]
 3704 1308 0133     		adds	r3, r3, #1
 3705 130a 1360     		str	r3, [r2]
 3706              	.L266:
 809:.\protocolo.c **** 						for(x=0;x<=14;x++){									
 3707              		.loc 1 809 0 is_stmt 0 discriminator 1
 3708 130c 3F4B     		ldr	r3, .L653+12
 3709 130e 1B68     		ldr	r3, [r3]
 3710 1310 0E2B     		cmp	r3, #14
 3711 1312 F1D9     		bls	.L267
ARM GAS  C:\Users\diego\AppData\Local\Temp\ccvEcbYb.s 			page 84


 811:.\protocolo.c **** 						}
 812:.\protocolo.c **** 						write_psoc1(val,10);
 3712              		.loc 1 812 0 is_stmt 1
 3713 1314 2046     		mov	r0, r4
 3714 1316 0A21     		movs	r1, #10
 3715 1318 FFF7FEFF 		bl	write_psoc1
 3716              	.LVL282:
 813:.\protocolo.c **** 						print_totalesac(8,val);	
 3717              		.loc 1 813 0
 3718 131c 0820     		movs	r0, #8
 3719 131e 2146     		mov	r1, r4
 3720 1320 FFF7FEFF 		bl	print_totalesac
 3721              	.LVL283:
 814:.\protocolo.c **** 						for(x=0;x<=16;x++){												
 3722              		.loc 1 814 0
 3723 1324 0022     		movs	r2, #0
 3724 1326 394B     		ldr	r3, .L653+12
 3725 1328 1A60     		str	r2, [r3]
 3726 132a 09E0     		b	.L268
 3727              	.L269:
 815:.\protocolo.c **** 							write_psoc1(val,msn_lecaan[x]);				//LECTURA ANTERIOR
 3728              		.loc 1 815 0 discriminator 3
 3729 132c 404A     		ldr	r2, .L653+48
 3730 132e 1344     		add	r3, r3, r2
 3731 1330 2046     		mov	r0, r4
 3732 1332 197E     		ldrb	r1, [r3, #24]	@ zero_extendqisi2
 3733 1334 FFF7FEFF 		bl	write_psoc1
 3734              	.LVL284:
 814:.\protocolo.c **** 						for(x=0;x<=16;x++){												
 3735              		.loc 1 814 0 discriminator 3
 3736 1338 344A     		ldr	r2, .L653+12
 3737 133a 1368     		ldr	r3, [r2]
 3738 133c 0133     		adds	r3, r3, #1
 3739 133e 1360     		str	r3, [r2]
 3740              	.L268:
 814:.\protocolo.c **** 						for(x=0;x<=16;x++){												
 3741              		.loc 1 814 0 is_stmt 0 discriminator 1
 3742 1340 324B     		ldr	r3, .L653+12
 3743 1342 1B68     		ldr	r3, [r3]
 3744 1344 102B     		cmp	r3, #16
 3745 1346 F1D9     		bls	.L269
 816:.\protocolo.c **** 						}
 817:.\protocolo.c **** 						write_psoc1(val,10);
 3746              		.loc 1 817 0 is_stmt 1
 3747 1348 2046     		mov	r0, r4
 3748 134a 0A21     		movs	r1, #10
 3749 134c FFF7FEFF 		bl	write_psoc1
 3750              	.LVL285:
 818:.\protocolo.c **** 						if(dir==a.dir){
 3751              		.loc 1 818 0
 3752 1350 324B     		ldr	r3, .L653+28
 3753 1352 1B78     		ldrb	r3, [r3]	@ zero_extendqisi2
 3754 1354 AB42     		cmp	r3, r5
 3755 1356 04D1     		bne	.L270
 819:.\protocolo.c **** 							leer_eeprom(192,25);
 3756              		.loc 1 819 0
 3757 1358 C020     		movs	r0, #192
ARM GAS  C:\Users\diego\AppData\Local\Temp\ccvEcbYb.s 			page 85


 3758 135a 1921     		movs	r1, #25
 3759 135c FFF7FEFF 		bl	leer_eeprom
 3760              	.LVL286:
 3761 1360 04E0     		b	.L271
 3762              	.L270:
 820:.\protocolo.c **** 						}
 821:.\protocolo.c **** 						else{
 822:.\protocolo.c **** 							leer_eeprom(281,25);
 3763              		.loc 1 822 0
 3764 1362 40F21910 		movw	r0, #281
 3765 1366 1921     		movs	r1, #25
 3766 1368 FFF7FEFF 		bl	leer_eeprom
 3767              	.LVL287:
 3768              	.L271:
 823:.\protocolo.c **** 						}
 824:.\protocolo.c **** 						print_totales(val);
 3769              		.loc 1 824 0
 3770 136c 2046     		mov	r0, r4
 3771 136e FFF7FEFF 		bl	print_totales
 3772              	.LVL288:
 825:.\protocolo.c **** 						for(z=1;z<=8;z++){
 3773              		.loc 1 825 0
 3774 1372 0122     		movs	r2, #1
 3775 1374 264B     		ldr	r3, .L653+16
 3776 1376 1A60     		str	r2, [r3]
 3777 1378 10E0     		b	.L272
 3778              	.L273:
 826:.\protocolo.c **** 							minuendo[z]=rventa.tdinero[z-1];
 3779              		.loc 1 826 0 discriminator 3
 3780 137a 2F4A     		ldr	r2, .L653+56
 3781 137c 1A44     		add	r2, r2, r3
 3782 137e 92F8CA10 		ldrb	r1, [r2, #202]	@ zero_extendqisi2
 3783 1382 10AA     		add	r2, sp, #64
 3784 1384 1A44     		add	r2, r2, r3
 3785 1386 02F82C1C 		strb	r1, [r2, #-44]
 827:.\protocolo.c **** 							sustraendo[z]=buffer_i2c[z+8];
 3786              		.loc 1 827 0 discriminator 3
 3787 138a 03F10801 		add	r1, r3, #8
 3788 138e 2B48     		ldr	r0, .L653+60
 3789 1390 415C     		ldrb	r1, [r0, r1]	@ zero_extendqisi2
 3790 1392 02F83C1C 		strb	r1, [r2, #-60]
 825:.\protocolo.c **** 						for(z=1;z<=8;z++){
 3791              		.loc 1 825 0 discriminator 3
 3792 1396 0133     		adds	r3, r3, #1
 3793 1398 1D4A     		ldr	r2, .L653+16
 3794 139a 1360     		str	r3, [r2]
 3795              	.L272:
 825:.\protocolo.c **** 						for(z=1;z<=8;z++){
 3796              		.loc 1 825 0 is_stmt 0 discriminator 1
 3797 139c 1C4B     		ldr	r3, .L653+16
 3798 139e 1B68     		ldr	r3, [r3]
 3799 13a0 082B     		cmp	r3, #8
 3800 13a2 EAD9     		bls	.L273
 828:.\protocolo.c **** 						}
 829:.\protocolo.c **** 						minuendo[0]=8;
 3801              		.loc 1 829 0 is_stmt 1
 3802 13a4 10A9     		add	r1, sp, #64
ARM GAS  C:\Users\diego\AppData\Local\Temp\ccvEcbYb.s 			page 86


 3803 13a6 0823     		movs	r3, #8
 3804 13a8 01F82C3D 		strb	r3, [r1, #-44]!
 830:.\protocolo.c **** 						operacion(2,minuendo,sustraendo);
 3805              		.loc 1 830 0
 3806 13ac 0220     		movs	r0, #2
 3807 13ae 01AA     		add	r2, sp, #4
 3808 13b0 FFF7FEFF 		bl	operacion
 3809              	.LVL289:
 831:.\protocolo.c **** 						for(x=0;x<=17;x++){									
 3810              		.loc 1 831 0
 3811 13b4 0022     		movs	r2, #0
 3812 13b6 154B     		ldr	r3, .L653+12
 3813 13b8 1A60     		str	r2, [r3]
 3814 13ba 0AE0     		b	.L274
 3815              	.L275:
 832:.\protocolo.c **** 							write_psoc1(val,msn_tventas[x]);				//Total de ventas
 3816              		.loc 1 832 0 discriminator 3
 3817 13bc 1C4A     		ldr	r2, .L653+48
 3818 13be 1344     		add	r3, r3, r2
 3819 13c0 2046     		mov	r0, r4
 3820 13c2 93F82C10 		ldrb	r1, [r3, #44]	@ zero_extendqisi2
 3821 13c6 FFF7FEFF 		bl	write_psoc1
 3822              	.LVL290:
 831:.\protocolo.c **** 						for(x=0;x<=17;x++){									
 3823              		.loc 1 831 0 discriminator 3
 3824 13ca 104A     		ldr	r2, .L653+12
 3825 13cc 1368     		ldr	r3, [r2]
 3826 13ce 0133     		adds	r3, r3, #1
 3827 13d0 1360     		str	r3, [r2]
 3828              	.L274:
 831:.\protocolo.c **** 						for(x=0;x<=17;x++){									
 3829              		.loc 1 831 0 is_stmt 0 discriminator 1
 3830 13d2 0E4B     		ldr	r3, .L653+12
 3831 13d4 1B68     		ldr	r3, [r3]
 3832 13d6 112B     		cmp	r3, #17
 3833 13d8 F0D9     		bls	.L275
 833:.\protocolo.c **** 						}
 834:.\protocolo.c **** 						print_valor(resultado,val);
 3834              		.loc 1 834 0 is_stmt 1
 3835 13da 1948     		ldr	r0, .L653+64
 3836 13dc 2146     		mov	r1, r4
 3837 13de FFF7FEFF 		bl	print_valor
 3838              	.LVL291:
 835:.\protocolo.c **** 						if(dir==a.dir){
 3839              		.loc 1 835 0
 3840 13e2 0E4B     		ldr	r3, .L653+28
 3841 13e4 1B78     		ldrb	r3, [r3]	@ zero_extendqisi2
 3842 13e6 AB42     		cmp	r3, r5
 3843 13e8 2CD1     		bne	.L276
 836:.\protocolo.c **** 							write_eeprom(192,corte);	
 3844              		.loc 1 836 0
 3845 13ea C020     		movs	r0, #192
 3846 13ec 09A9     		add	r1, sp, #36
 3847 13ee FFF7FEFF 		bl	write_eeprom
 3848              	.LVL292:
 837:.\protocolo.c **** 							write_eeprom(512,resultado);
 3849              		.loc 1 837 0
ARM GAS  C:\Users\diego\AppData\Local\Temp\ccvEcbYb.s 			page 87


 3850 13f2 4FF40070 		mov	r0, #512
 3851 13f6 1249     		ldr	r1, .L653+64
 3852 13f8 FFF7FEFF 		bl	write_eeprom
 3853              	.LVL293:
 3854 13fc 2CE0     		b	.L261
 3855              	.L654:
 3856 13fe 00BF     		.align	2
 3857              	.L653:
 3858 1400 00000000 		.word	Surtidor_rxBuffer
 3859 1404 00000000 		.word	y
 3860 1408 00000000 		.word	rventa
 3861 140c 00000000 		.word	x
 3862 1410 00000000 		.word	z
 3863 1414 F7FFFFFF 		.word	rventa-9
 3864 1418 00000000 		.word	producto1
 3865 141c 00000000 		.word	a
 3866 1420 00000000 		.word	producto1b
 3867 1424 00000000 		.word	b
 3868 1428 00000000 		.word	c
 3869 142c 00000000 		.word	d
 3870 1430 00000000 		.word	.LANCHOR1
 3871 1434 00000000 		.word	producto1n
 3872 1438 FFFFFFFF 		.word	rventa-1
 3873 143c 00000000 		.word	buffer_i2c
 3874 1440 00000000 		.word	resultado
 3875              	.L276:
 838:.\protocolo.c **** 						}
 839:.\protocolo.c **** 						else{
 840:.\protocolo.c **** 							write_eeprom(281,corte);
 3876              		.loc 1 840 0
 3877 1444 40F21910 		movw	r0, #281
 3878 1448 09A9     		add	r1, sp, #36
 3879 144a FFF7FEFF 		bl	write_eeprom
 3880              	.LVL294:
 841:.\protocolo.c **** 							write_eeprom(551,resultado);
 3881              		.loc 1 841 0
 3882 144e 40F22720 		movw	r0, #551
 3883 1452 A249     		ldr	r1, .L655
 3884 1454 FFF7FEFF 		bl	write_eeprom
 3885              	.LVL295:
 3886              	.L261:
 842:.\protocolo.c **** 						}
 843:.\protocolo.c **** 					}
 844:.\protocolo.c **** 					if(((rventa.manguera==(producto2&0x0F))&&(dir==a.dir))||((rventa.manguera==(producto2b&0x0F))&
 3887              		.loc 1 844 0
 3888 1458 A14B     		ldr	r3, .L655+4
 3889 145a 93F8E010 		ldrb	r1, [r3, #224]	@ zero_extendqisi2
 3890 145e A14B     		ldr	r3, .L655+8
 3891 1460 1B78     		ldrb	r3, [r3]	@ zero_extendqisi2
 3892 1462 03F00F03 		and	r3, r3, #15
 3893 1466 8B42     		cmp	r3, r1
 3894 1468 03D1     		bne	.L277
 3895              		.loc 1 844 0 is_stmt 0 discriminator 1
 3896 146a 9F4A     		ldr	r2, .L655+12
 3897 146c 1278     		ldrb	r2, [r2]	@ zero_extendqisi2
 3898 146e AA42     		cmp	r2, r5
 3899 1470 17D0     		beq	.L278
ARM GAS  C:\Users\diego\AppData\Local\Temp\ccvEcbYb.s 			page 88


 3900              	.L277:
 3901              		.loc 1 844 0 discriminator 3
 3902 1472 9E4A     		ldr	r2, .L655+16
 3903 1474 1278     		ldrb	r2, [r2]	@ zero_extendqisi2
 3904 1476 02F00F02 		and	r2, r2, #15
 3905 147a 9142     		cmp	r1, r2
 3906 147c 03D1     		bne	.L279
 3907              		.loc 1 844 0 discriminator 4
 3908 147e 9C48     		ldr	r0, .L655+20
 3909 1480 0078     		ldrb	r0, [r0]	@ zero_extendqisi2
 3910 1482 A842     		cmp	r0, r5
 3911 1484 0DD0     		beq	.L278
 3912              	.L279:
 3913              		.loc 1 844 0 discriminator 6
 3914 1486 9142     		cmp	r1, r2
 3915 1488 03D1     		bne	.L280
 3916              		.loc 1 844 0 discriminator 7
 3917 148a 9A4A     		ldr	r2, .L655+24
 3918 148c 1278     		ldrb	r2, [r2]	@ zero_extendqisi2
 3919 148e AA42     		cmp	r2, r5
 3920 1490 07D0     		beq	.L278
 3921              	.L280:
 3922              		.loc 1 844 0 discriminator 9
 3923 1492 8B42     		cmp	r3, r1
 3924 1494 40F0C080 		bne	.L281
 3925              		.loc 1 844 0 discriminator 10
 3926 1498 974B     		ldr	r3, .L655+28
 3927 149a 1B78     		ldrb	r3, [r3]	@ zero_extendqisi2
 3928 149c AB42     		cmp	r3, r5
 3929 149e 40F0BB80 		bne	.L281
 3930              	.L278:
 845:.\protocolo.c **** 						for(x=0;x<=5;x++){									
 3931              		.loc 1 845 0 is_stmt 1
 3932 14a2 0022     		movs	r2, #0
 3933 14a4 954B     		ldr	r3, .L655+32
 3934 14a6 1A60     		str	r2, [r3]
 3935 14a8 08E0     		b	.L282
 3936              	.L283:
 846:.\protocolo.c **** 						    write_psoc1(val,msn_tc[x]);
 3937              		.loc 1 846 0 discriminator 3
 3938 14aa 2046     		mov	r0, r4
 3939 14ac 944A     		ldr	r2, .L655+36
 3940 14ae D15C     		ldrb	r1, [r2, r3]	@ zero_extendqisi2
 3941 14b0 FFF7FEFF 		bl	write_psoc1
 3942              	.LVL296:
 845:.\protocolo.c **** 						for(x=0;x<=5;x++){									
 3943              		.loc 1 845 0 discriminator 3
 3944 14b4 914A     		ldr	r2, .L655+32
 3945 14b6 1368     		ldr	r3, [r2]
 3946 14b8 0133     		adds	r3, r3, #1
 3947 14ba 1360     		str	r3, [r2]
 3948              	.L282:
 845:.\protocolo.c **** 						for(x=0;x<=5;x++){									
 3949              		.loc 1 845 0 is_stmt 0 discriminator 1
 3950 14bc 8F4B     		ldr	r3, .L655+32
 3951 14be 1B68     		ldr	r3, [r3]
 3952 14c0 052B     		cmp	r3, #5
ARM GAS  C:\Users\diego\AppData\Local\Temp\ccvEcbYb.s 			page 89


 3953 14c2 F2D9     		bls	.L283
 847:.\protocolo.c **** 					    }
 848:.\protocolo.c **** 					    write_psoc1(val,10);
 3954              		.loc 1 848 0 is_stmt 1
 3955 14c4 2046     		mov	r0, r4
 3956 14c6 0A21     		movs	r1, #10
 3957 14c8 FFF7FEFF 		bl	write_psoc1
 3958              	.LVL297:
 849:.\protocolo.c ****                         for(x=0;x<=10;x++){									
 3959              		.loc 1 849 0
 3960 14cc 0022     		movs	r2, #0
 3961 14ce 8B4B     		ldr	r3, .L655+32
 3962 14d0 1A60     		str	r2, [r3]
 3963 14d2 08E0     		b	.L284
 3964              	.L285:
 850:.\protocolo.c **** 						    write_psoc1(val,producto2n[x]);
 3965              		.loc 1 850 0 discriminator 3
 3966 14d4 2046     		mov	r0, r4
 3967 14d6 8B4A     		ldr	r2, .L655+40
 3968 14d8 D15C     		ldrb	r1, [r2, r3]	@ zero_extendqisi2
 3969 14da FFF7FEFF 		bl	write_psoc1
 3970              	.LVL298:
 849:.\protocolo.c ****                         for(x=0;x<=10;x++){									
 3971              		.loc 1 849 0 discriminator 3
 3972 14de 874A     		ldr	r2, .L655+32
 3973 14e0 1368     		ldr	r3, [r2]
 3974 14e2 0133     		adds	r3, r3, #1
 3975 14e4 1360     		str	r3, [r2]
 3976              	.L284:
 849:.\protocolo.c ****                         for(x=0;x<=10;x++){									
 3977              		.loc 1 849 0 is_stmt 0 discriminator 1
 3978 14e6 854B     		ldr	r3, .L655+32
 3979 14e8 1B68     		ldr	r3, [r3]
 3980 14ea 0A2B     		cmp	r3, #10
 3981 14ec F2D9     		bls	.L285
 851:.\protocolo.c **** 					    }
 852:.\protocolo.c ****                         write_psoc1(val,10);
 3982              		.loc 1 852 0 is_stmt 1
 3983 14ee 2046     		mov	r0, r4
 3984 14f0 0A21     		movs	r1, #10
 3985 14f2 FFF7FEFF 		bl	write_psoc1
 3986              	.LVL299:
 853:.\protocolo.c **** 						for(x=0;x<=14;x++){									
 3987              		.loc 1 853 0
 3988 14f6 0022     		movs	r2, #0
 3989 14f8 804B     		ldr	r3, .L655+32
 3990 14fa 1A60     		str	r2, [r3]
 3991 14fc 09E0     		b	.L286
 3992              	.L287:
 854:.\protocolo.c **** 							write_psoc1(val,msn_lecact[x]);				//LECTURA ACTUAL
 3993              		.loc 1 854 0 discriminator 3
 3994 14fe 804A     		ldr	r2, .L655+36
 3995 1500 1344     		add	r3, r3, r2
 3996 1502 2046     		mov	r0, r4
 3997 1504 197A     		ldrb	r1, [r3, #8]	@ zero_extendqisi2
 3998 1506 FFF7FEFF 		bl	write_psoc1
 3999              	.LVL300:
ARM GAS  C:\Users\diego\AppData\Local\Temp\ccvEcbYb.s 			page 90


 853:.\protocolo.c **** 						for(x=0;x<=14;x++){									
 4000              		.loc 1 853 0 discriminator 3
 4001 150a 7C4A     		ldr	r2, .L655+32
 4002 150c 1368     		ldr	r3, [r2]
 4003 150e 0133     		adds	r3, r3, #1
 4004 1510 1360     		str	r3, [r2]
 4005              	.L286:
 853:.\protocolo.c **** 						for(x=0;x<=14;x++){									
 4006              		.loc 1 853 0 is_stmt 0 discriminator 1
 4007 1512 7A4B     		ldr	r3, .L655+32
 4008 1514 1B68     		ldr	r3, [r3]
 4009 1516 0E2B     		cmp	r3, #14
 4010 1518 F1D9     		bls	.L287
 855:.\protocolo.c **** 						}
 856:.\protocolo.c **** 						write_psoc1(val,10);
 4011              		.loc 1 856 0 is_stmt 1
 4012 151a 2046     		mov	r0, r4
 4013 151c 0A21     		movs	r1, #10
 4014 151e FFF7FEFF 		bl	write_psoc1
 4015              	.LVL301:
 857:.\protocolo.c **** 						print_totalesac(8,val);	
 4016              		.loc 1 857 0
 4017 1522 0820     		movs	r0, #8
 4018 1524 2146     		mov	r1, r4
 4019 1526 FFF7FEFF 		bl	print_totalesac
 4020              	.LVL302:
 858:.\protocolo.c **** 						for(x=0;x<=16;x++){												
 4021              		.loc 1 858 0
 4022 152a 0022     		movs	r2, #0
 4023 152c 734B     		ldr	r3, .L655+32
 4024 152e 1A60     		str	r2, [r3]
 4025 1530 09E0     		b	.L288
 4026              	.L289:
 859:.\protocolo.c **** 							write_psoc1(val,msn_lecaan[x]);				//LECTURA ANTERIOR
 4027              		.loc 1 859 0 discriminator 3
 4028 1532 734A     		ldr	r2, .L655+36
 4029 1534 1344     		add	r3, r3, r2
 4030 1536 2046     		mov	r0, r4
 4031 1538 197E     		ldrb	r1, [r3, #24]	@ zero_extendqisi2
 4032 153a FFF7FEFF 		bl	write_psoc1
 4033              	.LVL303:
 858:.\protocolo.c **** 						for(x=0;x<=16;x++){												
 4034              		.loc 1 858 0 discriminator 3
 4035 153e 6F4A     		ldr	r2, .L655+32
 4036 1540 1368     		ldr	r3, [r2]
 4037 1542 0133     		adds	r3, r3, #1
 4038 1544 1360     		str	r3, [r2]
 4039              	.L288:
 858:.\protocolo.c **** 						for(x=0;x<=16;x++){												
 4040              		.loc 1 858 0 is_stmt 0 discriminator 1
 4041 1546 6D4B     		ldr	r3, .L655+32
 4042 1548 1B68     		ldr	r3, [r3]
 4043 154a 102B     		cmp	r3, #16
 4044 154c F1D9     		bls	.L289
 860:.\protocolo.c **** 						}
 861:.\protocolo.c **** 						write_psoc1(val,10);
 4045              		.loc 1 861 0 is_stmt 1
ARM GAS  C:\Users\diego\AppData\Local\Temp\ccvEcbYb.s 			page 91


 4046 154e 2046     		mov	r0, r4
 4047 1550 0A21     		movs	r1, #10
 4048 1552 FFF7FEFF 		bl	write_psoc1
 4049              	.LVL304:
 862:.\protocolo.c **** 						if(dir==a.dir){
 4050              		.loc 1 862 0
 4051 1556 644B     		ldr	r3, .L655+12
 4052 1558 1B78     		ldrb	r3, [r3]	@ zero_extendqisi2
 4053 155a AB42     		cmp	r3, r5
 4054 155c 04D1     		bne	.L290
 863:.\protocolo.c **** 							leer_eeprom(217,25);
 4055              		.loc 1 863 0
 4056 155e D920     		movs	r0, #217
 4057 1560 1921     		movs	r1, #25
 4058 1562 FFF7FEFF 		bl	leer_eeprom
 4059              	.LVL305:
 4060 1566 04E0     		b	.L291
 4061              	.L290:
 864:.\protocolo.c **** 						}
 865:.\protocolo.c **** 						else{
 866:.\protocolo.c **** 							leer_eeprom(320,25);
 4062              		.loc 1 866 0
 4063 1568 4FF4A070 		mov	r0, #320
 4064 156c 1921     		movs	r1, #25
 4065 156e FFF7FEFF 		bl	leer_eeprom
 4066              	.LVL306:
 4067              	.L291:
 867:.\protocolo.c **** 						}
 868:.\protocolo.c **** 						print_totales(val);
 4068              		.loc 1 868 0
 4069 1572 2046     		mov	r0, r4
 4070 1574 FFF7FEFF 		bl	print_totales
 4071              	.LVL307:
 869:.\protocolo.c **** 						for(z=1;z<=8;z++){
 4072              		.loc 1 869 0
 4073 1578 0122     		movs	r2, #1
 4074 157a 634B     		ldr	r3, .L655+44
 4075 157c 1A60     		str	r2, [r3]
 4076 157e 10E0     		b	.L292
 4077              	.L293:
 870:.\protocolo.c **** 							minuendo[z]=rventa.tdinero[z-1];
 4078              		.loc 1 870 0 discriminator 3
 4079 1580 624A     		ldr	r2, .L655+48
 4080 1582 1A44     		add	r2, r2, r3
 4081 1584 92F8CA10 		ldrb	r1, [r2, #202]	@ zero_extendqisi2
 4082 1588 10AA     		add	r2, sp, #64
 4083 158a 1A44     		add	r2, r2, r3
 4084 158c 02F82C1C 		strb	r1, [r2, #-44]
 871:.\protocolo.c **** 							sustraendo[z]=buffer_i2c[z+8];
 4085              		.loc 1 871 0 discriminator 3
 4086 1590 03F10801 		add	r1, r3, #8
 4087 1594 5E48     		ldr	r0, .L655+52
 4088 1596 415C     		ldrb	r1, [r0, r1]	@ zero_extendqisi2
 4089 1598 02F83C1C 		strb	r1, [r2, #-60]
 869:.\protocolo.c **** 						for(z=1;z<=8;z++){
 4090              		.loc 1 869 0 discriminator 3
 4091 159c 0133     		adds	r3, r3, #1
ARM GAS  C:\Users\diego\AppData\Local\Temp\ccvEcbYb.s 			page 92


 4092 159e 5A4A     		ldr	r2, .L655+44
 4093 15a0 1360     		str	r3, [r2]
 4094              	.L292:
 869:.\protocolo.c **** 						for(z=1;z<=8;z++){
 4095              		.loc 1 869 0 is_stmt 0 discriminator 1
 4096 15a2 594B     		ldr	r3, .L655+44
 4097 15a4 1B68     		ldr	r3, [r3]
 4098 15a6 082B     		cmp	r3, #8
 4099 15a8 EAD9     		bls	.L293
 872:.\protocolo.c **** 						}
 873:.\protocolo.c **** 						minuendo[0]=8;
 4100              		.loc 1 873 0 is_stmt 1
 4101 15aa 10A9     		add	r1, sp, #64
 4102 15ac 0823     		movs	r3, #8
 4103 15ae 01F82C3D 		strb	r3, [r1, #-44]!
 874:.\protocolo.c **** 						operacion(2,minuendo,sustraendo);
 4104              		.loc 1 874 0
 4105 15b2 0220     		movs	r0, #2
 4106 15b4 01AA     		add	r2, sp, #4
 4107 15b6 FFF7FEFF 		bl	operacion
 4108              	.LVL308:
 875:.\protocolo.c **** 						for(x=0;x<=17;x++){									
 4109              		.loc 1 875 0
 4110 15ba 0022     		movs	r2, #0
 4111 15bc 4F4B     		ldr	r3, .L655+32
 4112 15be 1A60     		str	r2, [r3]
 4113 15c0 0AE0     		b	.L294
 4114              	.L295:
 876:.\protocolo.c **** 							write_psoc1(val,msn_tventas[x]);				//Total de ventas
 4115              		.loc 1 876 0 discriminator 3
 4116 15c2 4F4A     		ldr	r2, .L655+36
 4117 15c4 1344     		add	r3, r3, r2
 4118 15c6 2046     		mov	r0, r4
 4119 15c8 93F82C10 		ldrb	r1, [r3, #44]	@ zero_extendqisi2
 4120 15cc FFF7FEFF 		bl	write_psoc1
 4121              	.LVL309:
 875:.\protocolo.c **** 						for(x=0;x<=17;x++){									
 4122              		.loc 1 875 0 discriminator 3
 4123 15d0 4A4A     		ldr	r2, .L655+32
 4124 15d2 1368     		ldr	r3, [r2]
 4125 15d4 0133     		adds	r3, r3, #1
 4126 15d6 1360     		str	r3, [r2]
 4127              	.L294:
 875:.\protocolo.c **** 						for(x=0;x<=17;x++){									
 4128              		.loc 1 875 0 is_stmt 0 discriminator 1
 4129 15d8 484B     		ldr	r3, .L655+32
 4130 15da 1B68     		ldr	r3, [r3]
 4131 15dc 112B     		cmp	r3, #17
 4132 15de F0D9     		bls	.L295
 877:.\protocolo.c **** 						}
 878:.\protocolo.c **** 						print_valor(resultado,val);				
 4133              		.loc 1 878 0 is_stmt 1
 4134 15e0 3E48     		ldr	r0, .L655
 4135 15e2 2146     		mov	r1, r4
 4136 15e4 FFF7FEFF 		bl	print_valor
 4137              	.LVL310:
 879:.\protocolo.c **** 						if(dir==a.dir){
ARM GAS  C:\Users\diego\AppData\Local\Temp\ccvEcbYb.s 			page 93


 4138              		.loc 1 879 0
 4139 15e8 3F4B     		ldr	r3, .L655+12
 4140 15ea 1B78     		ldrb	r3, [r3]	@ zero_extendqisi2
 4141 15ec AB42     		cmp	r3, r5
 4142 15ee 09D1     		bne	.L296
 880:.\protocolo.c **** 							write_eeprom(217,corte);
 4143              		.loc 1 880 0
 4144 15f0 D920     		movs	r0, #217
 4145 15f2 09A9     		add	r1, sp, #36
 4146 15f4 FFF7FEFF 		bl	write_eeprom
 4147              	.LVL311:
 881:.\protocolo.c **** 							write_eeprom(538,resultado);
 4148              		.loc 1 881 0
 4149 15f8 40F21A20 		movw	r0, #538
 4150 15fc 3749     		ldr	r1, .L655
 4151 15fe FFF7FEFF 		bl	write_eeprom
 4152              	.LVL312:
 4153 1602 09E0     		b	.L281
 4154              	.L296:
 882:.\protocolo.c **** 						}
 883:.\protocolo.c **** 						else{
 884:.\protocolo.c **** 							write_eeprom(320,corte);
 4155              		.loc 1 884 0
 4156 1604 4FF4A070 		mov	r0, #320
 4157 1608 09A9     		add	r1, sp, #36
 4158 160a FFF7FEFF 		bl	write_eeprom
 4159              	.LVL313:
 885:.\protocolo.c **** 							write_eeprom(576,resultado);
 4160              		.loc 1 885 0
 4161 160e 4FF41070 		mov	r0, #576
 4162 1612 3249     		ldr	r1, .L655
 4163 1614 FFF7FEFF 		bl	write_eeprom
 4164              	.LVL314:
 4165              	.L281:
 886:.\protocolo.c **** 						}				
 887:.\protocolo.c **** 					}
 888:.\protocolo.c **** 					if(((rventa.manguera==(producto3&0x0F))&&(dir==a.dir))||((rventa.manguera==(producto3b&0x0F))&
 4166              		.loc 1 888 0
 4167 1618 314B     		ldr	r3, .L655+4
 4168 161a 93F8E020 		ldrb	r2, [r3, #224]	@ zero_extendqisi2
 4169 161e 3D4B     		ldr	r3, .L655+56
 4170 1620 1B78     		ldrb	r3, [r3]	@ zero_extendqisi2
 4171 1622 03F00F03 		and	r3, r3, #15
 4172 1626 9342     		cmp	r3, r2
 4173 1628 03D1     		bne	.L297
 4174              		.loc 1 888 0 is_stmt 0 discriminator 1
 4175 162a 2F4B     		ldr	r3, .L655+12
 4176 162c 1B78     		ldrb	r3, [r3]	@ zero_extendqisi2
 4177 162e AB42     		cmp	r3, r5
 4178 1630 0BD0     		beq	.L298
 4179              	.L297:
 4180              		.loc 1 888 0 discriminator 3
 4181 1632 394B     		ldr	r3, .L655+60
 4182 1634 1B78     		ldrb	r3, [r3]	@ zero_extendqisi2
 4183 1636 03F00F03 		and	r3, r3, #15
 4184 163a 9A42     		cmp	r2, r3
 4185 163c 40F0E580 		bne	.L299
ARM GAS  C:\Users\diego\AppData\Local\Temp\ccvEcbYb.s 			page 94


 4186              		.loc 1 888 0 discriminator 4
 4187 1640 2B4B     		ldr	r3, .L655+20
 4188 1642 1B78     		ldrb	r3, [r3]	@ zero_extendqisi2
 4189 1644 AB42     		cmp	r3, r5
 4190 1646 40F0E080 		bne	.L299
 4191              	.L298:
 889:.\protocolo.c **** 						for(x=0;x<=5;x++){									
 4192              		.loc 1 889 0 is_stmt 1
 4193 164a 0022     		movs	r2, #0
 4194 164c 2B4B     		ldr	r3, .L655+32
 4195 164e 1A60     		str	r2, [r3]
 4196 1650 08E0     		b	.L300
 4197              	.L301:
 890:.\protocolo.c **** 						    write_psoc1(val,msn_tc[x]);
 4198              		.loc 1 890 0 discriminator 3
 4199 1652 2046     		mov	r0, r4
 4200 1654 2A4A     		ldr	r2, .L655+36
 4201 1656 D15C     		ldrb	r1, [r2, r3]	@ zero_extendqisi2
 4202 1658 FFF7FEFF 		bl	write_psoc1
 4203              	.LVL315:
 889:.\protocolo.c **** 						for(x=0;x<=5;x++){									
 4204              		.loc 1 889 0 discriminator 3
 4205 165c 274A     		ldr	r2, .L655+32
 4206 165e 1368     		ldr	r3, [r2]
 4207 1660 0133     		adds	r3, r3, #1
 4208 1662 1360     		str	r3, [r2]
 4209              	.L300:
 889:.\protocolo.c **** 						for(x=0;x<=5;x++){									
 4210              		.loc 1 889 0 is_stmt 0 discriminator 1
 4211 1664 254B     		ldr	r3, .L655+32
 4212 1666 1B68     		ldr	r3, [r3]
 4213 1668 052B     		cmp	r3, #5
 4214 166a F2D9     		bls	.L301
 891:.\protocolo.c **** 					    }
 892:.\protocolo.c **** 					    write_psoc1(val,10);
 4215              		.loc 1 892 0 is_stmt 1
 4216 166c 2046     		mov	r0, r4
 4217 166e 0A21     		movs	r1, #10
 4218 1670 FFF7FEFF 		bl	write_psoc1
 4219              	.LVL316:
 893:.\protocolo.c ****                         for(x=0;x<=10;x++){									
 4220              		.loc 1 893 0
 4221 1674 0022     		movs	r2, #0
 4222 1676 214B     		ldr	r3, .L655+32
 4223 1678 1A60     		str	r2, [r3]
 4224 167a 08E0     		b	.L302
 4225              	.L303:
 894:.\protocolo.c **** 						    write_psoc1(val,producto3n[x]);
 4226              		.loc 1 894 0 discriminator 3
 4227 167c 2046     		mov	r0, r4
 4228 167e 274A     		ldr	r2, .L655+64
 4229 1680 D15C     		ldrb	r1, [r2, r3]	@ zero_extendqisi2
 4230 1682 FFF7FEFF 		bl	write_psoc1
 4231              	.LVL317:
 893:.\protocolo.c ****                         for(x=0;x<=10;x++){									
 4232              		.loc 1 893 0 discriminator 3
 4233 1686 1D4A     		ldr	r2, .L655+32
ARM GAS  C:\Users\diego\AppData\Local\Temp\ccvEcbYb.s 			page 95


 4234 1688 1368     		ldr	r3, [r2]
 4235 168a 0133     		adds	r3, r3, #1
 4236 168c 1360     		str	r3, [r2]
 4237              	.L302:
 893:.\protocolo.c ****                         for(x=0;x<=10;x++){									
 4238              		.loc 1 893 0 is_stmt 0 discriminator 1
 4239 168e 1B4B     		ldr	r3, .L655+32
 4240 1690 1B68     		ldr	r3, [r3]
 4241 1692 0A2B     		cmp	r3, #10
 4242 1694 F2D9     		bls	.L303
 895:.\protocolo.c **** 					    }
 896:.\protocolo.c ****                         write_psoc1(val,10);
 4243              		.loc 1 896 0 is_stmt 1
 4244 1696 2046     		mov	r0, r4
 4245 1698 0A21     		movs	r1, #10
 4246 169a FFF7FEFF 		bl	write_psoc1
 4247              	.LVL318:
 897:.\protocolo.c **** 						for(x=0;x<=14;x++){									
 4248              		.loc 1 897 0
 4249 169e 0022     		movs	r2, #0
 4250 16a0 164B     		ldr	r3, .L655+32
 4251 16a2 1A60     		str	r2, [r3]
 4252 16a4 09E0     		b	.L304
 4253              	.L305:
 898:.\protocolo.c **** 							write_psoc1(val,msn_lecact[x]);				//LECTURA ACTUAL
 4254              		.loc 1 898 0 discriminator 3
 4255 16a6 164A     		ldr	r2, .L655+36
 4256 16a8 1344     		add	r3, r3, r2
 4257 16aa 2046     		mov	r0, r4
 4258 16ac 197A     		ldrb	r1, [r3, #8]	@ zero_extendqisi2
 4259 16ae FFF7FEFF 		bl	write_psoc1
 4260              	.LVL319:
 897:.\protocolo.c **** 						for(x=0;x<=14;x++){									
 4261              		.loc 1 897 0 discriminator 3
 4262 16b2 124A     		ldr	r2, .L655+32
 4263 16b4 1368     		ldr	r3, [r2]
 4264 16b6 0133     		adds	r3, r3, #1
 4265 16b8 1360     		str	r3, [r2]
 4266              	.L304:
 897:.\protocolo.c **** 						for(x=0;x<=14;x++){									
 4267              		.loc 1 897 0 is_stmt 0 discriminator 1
 4268 16ba 104B     		ldr	r3, .L655+32
 4269 16bc 1B68     		ldr	r3, [r3]
 4270 16be 0E2B     		cmp	r3, #14
 4271 16c0 F1D9     		bls	.L305
 899:.\protocolo.c **** 						}
 900:.\protocolo.c **** 						write_psoc1(val,10);
 4272              		.loc 1 900 0 is_stmt 1
 4273 16c2 2046     		mov	r0, r4
 4274 16c4 0A21     		movs	r1, #10
 4275 16c6 FFF7FEFF 		bl	write_psoc1
 4276              	.LVL320:
 901:.\protocolo.c **** 						print_totalesac(8,val);	
 4277              		.loc 1 901 0
 4278 16ca 0820     		movs	r0, #8
 4279 16cc 2146     		mov	r1, r4
 4280 16ce FFF7FEFF 		bl	print_totalesac
ARM GAS  C:\Users\diego\AppData\Local\Temp\ccvEcbYb.s 			page 96


 4281              	.LVL321:
 902:.\protocolo.c **** 						for(x=0;x<=16;x++){												
 4282              		.loc 1 902 0
 4283 16d2 0022     		movs	r2, #0
 4284 16d4 094B     		ldr	r3, .L655+32
 4285 16d6 1A60     		str	r2, [r3]
 4286 16d8 2CE0     		b	.L306
 4287              	.L656:
 4288 16da 00BF     		.align	2
 4289              	.L655:
 4290 16dc 00000000 		.word	resultado
 4291 16e0 00000000 		.word	rventa
 4292 16e4 00000000 		.word	producto2
 4293 16e8 00000000 		.word	a
 4294 16ec 00000000 		.word	producto2b
 4295 16f0 00000000 		.word	b
 4296 16f4 00000000 		.word	d
 4297 16f8 00000000 		.word	c
 4298 16fc 00000000 		.word	x
 4299 1700 00000000 		.word	.LANCHOR1
 4300 1704 00000000 		.word	producto2n
 4301 1708 00000000 		.word	z
 4302 170c FFFFFFFF 		.word	rventa-1
 4303 1710 00000000 		.word	buffer_i2c
 4304 1714 00000000 		.word	producto3
 4305 1718 00000000 		.word	producto3b
 4306 171c 00000000 		.word	producto3n
 4307              	.L307:
 903:.\protocolo.c **** 							write_psoc1(val,msn_lecaan[x]);				//LECTURA ANTERIOR
 4308              		.loc 1 903 0 discriminator 3
 4309 1720 AC4A     		ldr	r2, .L657
 4310 1722 1344     		add	r3, r3, r2
 4311 1724 2046     		mov	r0, r4
 4312 1726 197E     		ldrb	r1, [r3, #24]	@ zero_extendqisi2
 4313 1728 FFF7FEFF 		bl	write_psoc1
 4314              	.LVL322:
 902:.\protocolo.c **** 						for(x=0;x<=16;x++){												
 4315              		.loc 1 902 0 discriminator 3
 4316 172c AA4A     		ldr	r2, .L657+4
 4317 172e 1368     		ldr	r3, [r2]
 4318 1730 0133     		adds	r3, r3, #1
 4319 1732 1360     		str	r3, [r2]
 4320              	.L306:
 902:.\protocolo.c **** 						for(x=0;x<=16;x++){												
 4321              		.loc 1 902 0 is_stmt 0 discriminator 1
 4322 1734 A84B     		ldr	r3, .L657+4
 4323 1736 1B68     		ldr	r3, [r3]
 4324 1738 102B     		cmp	r3, #16
 4325 173a F1D9     		bls	.L307
 904:.\protocolo.c **** 						}
 905:.\protocolo.c **** 						write_psoc1(val,10);
 4326              		.loc 1 905 0 is_stmt 1
 4327 173c 2046     		mov	r0, r4
 4328 173e 0A21     		movs	r1, #10
 4329 1740 FFF7FEFF 		bl	write_psoc1
 4330              	.LVL323:
 906:.\protocolo.c **** 						if(dir==a.dir){
ARM GAS  C:\Users\diego\AppData\Local\Temp\ccvEcbYb.s 			page 97


 4331              		.loc 1 906 0
 4332 1744 A54B     		ldr	r3, .L657+8
 4333 1746 1B78     		ldrb	r3, [r3]	@ zero_extendqisi2
 4334 1748 AB42     		cmp	r3, r5
 4335 174a 05D1     		bne	.L308
 907:.\protocolo.c **** 							leer_eeprom(256,25);
 4336              		.loc 1 907 0
 4337 174c 4FF48070 		mov	r0, #256
 4338 1750 1921     		movs	r1, #25
 4339 1752 FFF7FEFF 		bl	leer_eeprom
 4340              	.LVL324:
 4341 1756 04E0     		b	.L309
 4342              	.L308:
 908:.\protocolo.c **** 						}
 909:.\protocolo.c **** 						else{
 910:.\protocolo.c **** 							leer_eeprom(345,25);
 4343              		.loc 1 910 0
 4344 1758 40F25910 		movw	r0, #345
 4345 175c 1921     		movs	r1, #25
 4346 175e FFF7FEFF 		bl	leer_eeprom
 4347              	.LVL325:
 4348              	.L309:
 911:.\protocolo.c **** 						}
 912:.\protocolo.c **** 						print_totales(val);
 4349              		.loc 1 912 0
 4350 1762 2046     		mov	r0, r4
 4351 1764 FFF7FEFF 		bl	print_totales
 4352              	.LVL326:
 913:.\protocolo.c **** 						for(z=1;z<=8;z++){
 4353              		.loc 1 913 0
 4354 1768 0122     		movs	r2, #1
 4355 176a 9D4B     		ldr	r3, .L657+12
 4356 176c 1A60     		str	r2, [r3]
 4357 176e 10E0     		b	.L310
 4358              	.L311:
 914:.\protocolo.c **** 							minuendo[z]=rventa.tdinero[z-1];
 4359              		.loc 1 914 0 discriminator 3
 4360 1770 9C4A     		ldr	r2, .L657+16
 4361 1772 1A44     		add	r2, r2, r3
 4362 1774 92F8CA10 		ldrb	r1, [r2, #202]	@ zero_extendqisi2
 4363 1778 10AA     		add	r2, sp, #64
 4364 177a 1A44     		add	r2, r2, r3
 4365 177c 02F82C1C 		strb	r1, [r2, #-44]
 915:.\protocolo.c **** 							sustraendo[z]=buffer_i2c[z+8];
 4366              		.loc 1 915 0 discriminator 3
 4367 1780 03F10801 		add	r1, r3, #8
 4368 1784 9848     		ldr	r0, .L657+20
 4369 1786 415C     		ldrb	r1, [r0, r1]	@ zero_extendqisi2
 4370 1788 02F83C1C 		strb	r1, [r2, #-60]
 913:.\protocolo.c **** 						for(z=1;z<=8;z++){
 4371              		.loc 1 913 0 discriminator 3
 4372 178c 0133     		adds	r3, r3, #1
 4373 178e 944A     		ldr	r2, .L657+12
 4374 1790 1360     		str	r3, [r2]
 4375              	.L310:
 913:.\protocolo.c **** 						for(z=1;z<=8;z++){
 4376              		.loc 1 913 0 is_stmt 0 discriminator 1
ARM GAS  C:\Users\diego\AppData\Local\Temp\ccvEcbYb.s 			page 98


 4377 1792 934B     		ldr	r3, .L657+12
 4378 1794 1B68     		ldr	r3, [r3]
 4379 1796 082B     		cmp	r3, #8
 4380 1798 EAD9     		bls	.L311
 916:.\protocolo.c **** 						}
 917:.\protocolo.c **** 						minuendo[0]=8;
 4381              		.loc 1 917 0 is_stmt 1
 4382 179a 10A9     		add	r1, sp, #64
 4383 179c 0823     		movs	r3, #8
 4384 179e 01F82C3D 		strb	r3, [r1, #-44]!
 918:.\protocolo.c **** 						operacion(2,minuendo,sustraendo);
 4385              		.loc 1 918 0
 4386 17a2 0220     		movs	r0, #2
 4387 17a4 01AA     		add	r2, sp, #4
 4388 17a6 FFF7FEFF 		bl	operacion
 4389              	.LVL327:
 919:.\protocolo.c **** 						for(x=0;x<=17;x++){									
 4390              		.loc 1 919 0
 4391 17aa 0022     		movs	r2, #0
 4392 17ac 8A4B     		ldr	r3, .L657+4
 4393 17ae 1A60     		str	r2, [r3]
 4394 17b0 0AE0     		b	.L312
 4395              	.L313:
 920:.\protocolo.c **** 							write_psoc1(val,msn_tventas[x]);				//Total de ventas
 4396              		.loc 1 920 0 discriminator 3
 4397 17b2 884A     		ldr	r2, .L657
 4398 17b4 1344     		add	r3, r3, r2
 4399 17b6 2046     		mov	r0, r4
 4400 17b8 93F82C10 		ldrb	r1, [r3, #44]	@ zero_extendqisi2
 4401 17bc FFF7FEFF 		bl	write_psoc1
 4402              	.LVL328:
 919:.\protocolo.c **** 						for(x=0;x<=17;x++){									
 4403              		.loc 1 919 0 discriminator 3
 4404 17c0 854A     		ldr	r2, .L657+4
 4405 17c2 1368     		ldr	r3, [r2]
 4406 17c4 0133     		adds	r3, r3, #1
 4407 17c6 1360     		str	r3, [r2]
 4408              	.L312:
 919:.\protocolo.c **** 						for(x=0;x<=17;x++){									
 4409              		.loc 1 919 0 is_stmt 0 discriminator 1
 4410 17c8 834B     		ldr	r3, .L657+4
 4411 17ca 1B68     		ldr	r3, [r3]
 4412 17cc 112B     		cmp	r3, #17
 4413 17ce F0D9     		bls	.L313
 921:.\protocolo.c **** 						}
 922:.\protocolo.c **** 						print_valor(resultado,val);							
 4414              		.loc 1 922 0 is_stmt 1
 4415 17d0 8648     		ldr	r0, .L657+24
 4416 17d2 2146     		mov	r1, r4
 4417 17d4 FFF7FEFF 		bl	print_valor
 4418              	.LVL329:
 923:.\protocolo.c **** 						if(dir==a.dir){
 4419              		.loc 1 923 0
 4420 17d8 804B     		ldr	r3, .L657+8
 4421 17da 1B78     		ldrb	r3, [r3]	@ zero_extendqisi2
 4422 17dc AB42     		cmp	r3, r5
 4423 17de 0AD1     		bne	.L314
ARM GAS  C:\Users\diego\AppData\Local\Temp\ccvEcbYb.s 			page 99


 924:.\protocolo.c **** 							write_eeprom(256,corte);
 4424              		.loc 1 924 0
 4425 17e0 4FF48070 		mov	r0, #256
 4426 17e4 09A9     		add	r1, sp, #36
 4427 17e6 FFF7FEFF 		bl	write_eeprom
 4428              	.LVL330:
 925:.\protocolo.c **** 							write_eeprom(525,resultado);
 4429              		.loc 1 925 0
 4430 17ea 40F20D20 		movw	r0, #525
 4431 17ee 7F49     		ldr	r1, .L657+24
 4432 17f0 FFF7FEFF 		bl	write_eeprom
 4433              	.LVL331:
 4434 17f4 09E0     		b	.L299
 4435              	.L314:
 926:.\protocolo.c **** 						}
 927:.\protocolo.c **** 						else{
 928:.\protocolo.c **** 							write_eeprom(345,corte);
 4436              		.loc 1 928 0
 4437 17f6 40F25910 		movw	r0, #345
 4438 17fa 09A9     		add	r1, sp, #36
 4439 17fc FFF7FEFF 		bl	write_eeprom
 4440              	.LVL332:
 929:.\protocolo.c **** 							write_eeprom(589,resultado);
 4441              		.loc 1 929 0
 4442 1800 40F24D20 		movw	r0, #589
 4443 1804 7949     		ldr	r1, .L657+24
 4444 1806 FFF7FEFF 		bl	write_eeprom
 4445              	.LVL333:
 4446              	.L299:
 930:.\protocolo.c **** 						}					
 931:.\protocolo.c **** 					}
 932:.\protocolo.c ****                     
 933:.\protocolo.c ****                     if(((rventa.manguera==(producto4&0x0F))&&(dir==a.dir))||((rventa.manguera==(pro
 4447              		.loc 1 933 0
 4448 180a 794B     		ldr	r3, .L657+28
 4449 180c 93F8E020 		ldrb	r2, [r3, #224]	@ zero_extendqisi2
 4450 1810 784B     		ldr	r3, .L657+32
 4451 1812 1B78     		ldrb	r3, [r3]	@ zero_extendqisi2
 4452 1814 03F00F03 		and	r3, r3, #15
 4453 1818 9342     		cmp	r3, r2
 4454 181a 03D1     		bne	.L315
 4455              		.loc 1 933 0 is_stmt 0 discriminator 1
 4456 181c 6F4B     		ldr	r3, .L657+8
 4457 181e 1B78     		ldrb	r3, [r3]	@ zero_extendqisi2
 4458 1820 AB42     		cmp	r3, r5
 4459 1822 0BD0     		beq	.L316
 4460              	.L315:
 4461              		.loc 1 933 0 discriminator 3
 4462 1824 744B     		ldr	r3, .L657+36
 4463 1826 1B78     		ldrb	r3, [r3]	@ zero_extendqisi2
 4464 1828 03F00F03 		and	r3, r3, #15
 4465 182c 9A42     		cmp	r2, r3
 4466 182e 40F0C280 		bne	.L317
 4467              		.loc 1 933 0 discriminator 4
 4468 1832 724B     		ldr	r3, .L657+40
 4469 1834 1B78     		ldrb	r3, [r3]	@ zero_extendqisi2
 4470 1836 AB42     		cmp	r3, r5
ARM GAS  C:\Users\diego\AppData\Local\Temp\ccvEcbYb.s 			page 100


 4471 1838 40F0BD80 		bne	.L317
 4472              	.L316:
 934:.\protocolo.c **** 						for(x=0;x<=5;x++){									
 4473              		.loc 1 934 0 is_stmt 1
 4474 183c 0022     		movs	r2, #0
 4475 183e 664B     		ldr	r3, .L657+4
 4476 1840 1A60     		str	r2, [r3]
 4477 1842 08E0     		b	.L318
 4478              	.L319:
 935:.\protocolo.c **** 						    write_psoc1(val,msn_tc[x]);
 4479              		.loc 1 935 0 discriminator 3
 4480 1844 2046     		mov	r0, r4
 4481 1846 634A     		ldr	r2, .L657
 4482 1848 D15C     		ldrb	r1, [r2, r3]	@ zero_extendqisi2
 4483 184a FFF7FEFF 		bl	write_psoc1
 4484              	.LVL334:
 934:.\protocolo.c **** 						for(x=0;x<=5;x++){									
 4485              		.loc 1 934 0 discriminator 3
 4486 184e 624A     		ldr	r2, .L657+4
 4487 1850 1368     		ldr	r3, [r2]
 4488 1852 0133     		adds	r3, r3, #1
 4489 1854 1360     		str	r3, [r2]
 4490              	.L318:
 934:.\protocolo.c **** 						for(x=0;x<=5;x++){									
 4491              		.loc 1 934 0 is_stmt 0 discriminator 1
 4492 1856 604B     		ldr	r3, .L657+4
 4493 1858 1B68     		ldr	r3, [r3]
 4494 185a 052B     		cmp	r3, #5
 4495 185c F2D9     		bls	.L319
 936:.\protocolo.c **** 					    }
 937:.\protocolo.c **** 					    write_psoc1(val,10);
 4496              		.loc 1 937 0 is_stmt 1
 4497 185e 2046     		mov	r0, r4
 4498 1860 0A21     		movs	r1, #10
 4499 1862 FFF7FEFF 		bl	write_psoc1
 4500              	.LVL335:
 938:.\protocolo.c ****                         for(x=0;x<=10;x++){									
 4501              		.loc 1 938 0
 4502 1866 0022     		movs	r2, #0
 4503 1868 5B4B     		ldr	r3, .L657+4
 4504 186a 1A60     		str	r2, [r3]
 4505 186c 08E0     		b	.L320
 4506              	.L321:
 939:.\protocolo.c **** 						    write_psoc1(val,producto4n[x]);
 4507              		.loc 1 939 0 discriminator 3
 4508 186e 2046     		mov	r0, r4
 4509 1870 634A     		ldr	r2, .L657+44
 4510 1872 D15C     		ldrb	r1, [r2, r3]	@ zero_extendqisi2
 4511 1874 FFF7FEFF 		bl	write_psoc1
 4512              	.LVL336:
 938:.\protocolo.c ****                         for(x=0;x<=10;x++){									
 4513              		.loc 1 938 0 discriminator 3
 4514 1878 574A     		ldr	r2, .L657+4
 4515 187a 1368     		ldr	r3, [r2]
 4516 187c 0133     		adds	r3, r3, #1
 4517 187e 1360     		str	r3, [r2]
 4518              	.L320:
ARM GAS  C:\Users\diego\AppData\Local\Temp\ccvEcbYb.s 			page 101


 938:.\protocolo.c ****                         for(x=0;x<=10;x++){									
 4519              		.loc 1 938 0 is_stmt 0 discriminator 1
 4520 1880 554B     		ldr	r3, .L657+4
 4521 1882 1B68     		ldr	r3, [r3]
 4522 1884 0A2B     		cmp	r3, #10
 4523 1886 F2D9     		bls	.L321
 940:.\protocolo.c **** 					    }
 941:.\protocolo.c ****                         write_psoc1(val,10);
 4524              		.loc 1 941 0 is_stmt 1
 4525 1888 2046     		mov	r0, r4
 4526 188a 0A21     		movs	r1, #10
 4527 188c FFF7FEFF 		bl	write_psoc1
 4528              	.LVL337:
 942:.\protocolo.c **** 						for(x=0;x<=14;x++){									
 4529              		.loc 1 942 0
 4530 1890 0022     		movs	r2, #0
 4531 1892 514B     		ldr	r3, .L657+4
 4532 1894 1A60     		str	r2, [r3]
 4533 1896 09E0     		b	.L322
 4534              	.L323:
 943:.\protocolo.c **** 							write_psoc1(val,msn_lecact[x]);				//LECTURA ACTUAL
 4535              		.loc 1 943 0 discriminator 3
 4536 1898 4E4A     		ldr	r2, .L657
 4537 189a 1344     		add	r3, r3, r2
 4538 189c 2046     		mov	r0, r4
 4539 189e 197A     		ldrb	r1, [r3, #8]	@ zero_extendqisi2
 4540 18a0 FFF7FEFF 		bl	write_psoc1
 4541              	.LVL338:
 942:.\protocolo.c **** 						for(x=0;x<=14;x++){									
 4542              		.loc 1 942 0 discriminator 3
 4543 18a4 4C4A     		ldr	r2, .L657+4
 4544 18a6 1368     		ldr	r3, [r2]
 4545 18a8 0133     		adds	r3, r3, #1
 4546 18aa 1360     		str	r3, [r2]
 4547              	.L322:
 942:.\protocolo.c **** 						for(x=0;x<=14;x++){									
 4548              		.loc 1 942 0 is_stmt 0 discriminator 1
 4549 18ac 4A4B     		ldr	r3, .L657+4
 4550 18ae 1B68     		ldr	r3, [r3]
 4551 18b0 0E2B     		cmp	r3, #14
 4552 18b2 F1D9     		bls	.L323
 944:.\protocolo.c **** 						}
 945:.\protocolo.c **** 						write_psoc1(val,10);
 4553              		.loc 1 945 0 is_stmt 1
 4554 18b4 2046     		mov	r0, r4
 4555 18b6 0A21     		movs	r1, #10
 4556 18b8 FFF7FEFF 		bl	write_psoc1
 4557              	.LVL339:
 946:.\protocolo.c **** 						print_totalesac(8,val);	
 4558              		.loc 1 946 0
 4559 18bc 0820     		movs	r0, #8
 4560 18be 2146     		mov	r1, r4
 4561 18c0 FFF7FEFF 		bl	print_totalesac
 4562              	.LVL340:
 947:.\protocolo.c **** 						for(x=0;x<=16;x++){												
 4563              		.loc 1 947 0
 4564 18c4 0022     		movs	r2, #0
ARM GAS  C:\Users\diego\AppData\Local\Temp\ccvEcbYb.s 			page 102


 4565 18c6 444B     		ldr	r3, .L657+4
 4566 18c8 1A60     		str	r2, [r3]
 4567 18ca 09E0     		b	.L324
 4568              	.L325:
 948:.\protocolo.c **** 							write_psoc1(val,msn_lecaan[x]);				//LECTURA ANTERIOR
 4569              		.loc 1 948 0 discriminator 3
 4570 18cc 414A     		ldr	r2, .L657
 4571 18ce 1344     		add	r3, r3, r2
 4572 18d0 2046     		mov	r0, r4
 4573 18d2 197E     		ldrb	r1, [r3, #24]	@ zero_extendqisi2
 4574 18d4 FFF7FEFF 		bl	write_psoc1
 4575              	.LVL341:
 947:.\protocolo.c **** 						for(x=0;x<=16;x++){												
 4576              		.loc 1 947 0 discriminator 3
 4577 18d8 3F4A     		ldr	r2, .L657+4
 4578 18da 1368     		ldr	r3, [r2]
 4579 18dc 0133     		adds	r3, r3, #1
 4580 18de 1360     		str	r3, [r2]
 4581              	.L324:
 947:.\protocolo.c **** 						for(x=0;x<=16;x++){												
 4582              		.loc 1 947 0 is_stmt 0 discriminator 1
 4583 18e0 3D4B     		ldr	r3, .L657+4
 4584 18e2 1B68     		ldr	r3, [r3]
 4585 18e4 102B     		cmp	r3, #16
 4586 18e6 F1D9     		bls	.L325
 949:.\protocolo.c **** 						}
 950:.\protocolo.c **** 						write_psoc1(val,10);
 4587              		.loc 1 950 0 is_stmt 1
 4588 18e8 2046     		mov	r0, r4
 4589 18ea 0A21     		movs	r1, #10
 4590 18ec FFF7FEFF 		bl	write_psoc1
 4591              	.LVL342:
 951:.\protocolo.c **** 						if(dir==a.dir){
 4592              		.loc 1 951 0
 4593 18f0 3A4B     		ldr	r3, .L657+8
 4594 18f2 1B78     		ldrb	r3, [r3]	@ zero_extendqisi2
 4595 18f4 AB42     		cmp	r3, r5
 4596 18f6 05D1     		bne	.L326
 952:.\protocolo.c **** 							leer_eeprom(1096,25);
 4597              		.loc 1 952 0
 4598 18f8 4FF48960 		mov	r0, #1096
 4599 18fc 1921     		movs	r1, #25
 4600 18fe FFF7FEFF 		bl	leer_eeprom
 4601              	.LVL343:
 4602 1902 04E0     		b	.L327
 4603              	.L326:
 953:.\protocolo.c **** 						}
 954:.\protocolo.c **** 						else{
 955:.\protocolo.c **** 							leer_eeprom(1054,25);
 4604              		.loc 1 955 0
 4605 1904 40F21E40 		movw	r0, #1054
 4606 1908 1921     		movs	r1, #25
 4607 190a FFF7FEFF 		bl	leer_eeprom
 4608              	.LVL344:
 4609              	.L327:
 956:.\protocolo.c **** 						}
 957:.\protocolo.c **** 						print_totales(val);
ARM GAS  C:\Users\diego\AppData\Local\Temp\ccvEcbYb.s 			page 103


 4610              		.loc 1 957 0
 4611 190e 2046     		mov	r0, r4
 4612 1910 FFF7FEFF 		bl	print_totales
 4613              	.LVL345:
 958:.\protocolo.c **** 						for(z=1;z<=8;z++){
 4614              		.loc 1 958 0
 4615 1914 0122     		movs	r2, #1
 4616 1916 324B     		ldr	r3, .L657+12
 4617 1918 1A60     		str	r2, [r3]
 4618 191a 10E0     		b	.L328
 4619              	.L329:
 959:.\protocolo.c **** 							minuendo[z]=rventa.tdinero[z-1];
 4620              		.loc 1 959 0 discriminator 3
 4621 191c 314A     		ldr	r2, .L657+16
 4622 191e 1A44     		add	r2, r2, r3
 4623 1920 92F8CA10 		ldrb	r1, [r2, #202]	@ zero_extendqisi2
 4624 1924 10AA     		add	r2, sp, #64
 4625 1926 1A44     		add	r2, r2, r3
 4626 1928 02F82C1C 		strb	r1, [r2, #-44]
 960:.\protocolo.c **** 							sustraendo[z]=buffer_i2c[z+8];
 4627              		.loc 1 960 0 discriminator 3
 4628 192c 03F10801 		add	r1, r3, #8
 4629 1930 2D48     		ldr	r0, .L657+20
 4630 1932 415C     		ldrb	r1, [r0, r1]	@ zero_extendqisi2
 4631 1934 02F83C1C 		strb	r1, [r2, #-60]
 958:.\protocolo.c **** 						for(z=1;z<=8;z++){
 4632              		.loc 1 958 0 discriminator 3
 4633 1938 0133     		adds	r3, r3, #1
 4634 193a 294A     		ldr	r2, .L657+12
 4635 193c 1360     		str	r3, [r2]
 4636              	.L328:
 958:.\protocolo.c **** 						for(z=1;z<=8;z++){
 4637              		.loc 1 958 0 is_stmt 0 discriminator 1
 4638 193e 284B     		ldr	r3, .L657+12
 4639 1940 1B68     		ldr	r3, [r3]
 4640 1942 082B     		cmp	r3, #8
 4641 1944 EAD9     		bls	.L329
 961:.\protocolo.c **** 						}
 962:.\protocolo.c **** 						minuendo[0]=8;
 4642              		.loc 1 962 0 is_stmt 1
 4643 1946 10A9     		add	r1, sp, #64
 4644 1948 0823     		movs	r3, #8
 4645 194a 01F82C3D 		strb	r3, [r1, #-44]!
 963:.\protocolo.c **** 						operacion(2,minuendo,sustraendo);
 4646              		.loc 1 963 0
 4647 194e 0220     		movs	r0, #2
 4648 1950 01AA     		add	r2, sp, #4
 4649 1952 FFF7FEFF 		bl	operacion
 4650              	.LVL346:
 964:.\protocolo.c **** 						for(x=0;x<=17;x++){									
 4651              		.loc 1 964 0
 4652 1956 0022     		movs	r2, #0
 4653 1958 1F4B     		ldr	r3, .L657+4
 4654 195a 1A60     		str	r2, [r3]
 4655 195c 0AE0     		b	.L330
 4656              	.L331:
 965:.\protocolo.c **** 							write_psoc1(val,msn_tventas[x]);				//Total de ventas
ARM GAS  C:\Users\diego\AppData\Local\Temp\ccvEcbYb.s 			page 104


 4657              		.loc 1 965 0 discriminator 3
 4658 195e 1D4A     		ldr	r2, .L657
 4659 1960 1344     		add	r3, r3, r2
 4660 1962 2046     		mov	r0, r4
 4661 1964 93F82C10 		ldrb	r1, [r3, #44]	@ zero_extendqisi2
 4662 1968 FFF7FEFF 		bl	write_psoc1
 4663              	.LVL347:
 964:.\protocolo.c **** 						for(x=0;x<=17;x++){									
 4664              		.loc 1 964 0 discriminator 3
 4665 196c 1A4A     		ldr	r2, .L657+4
 4666 196e 1368     		ldr	r3, [r2]
 4667 1970 0133     		adds	r3, r3, #1
 4668 1972 1360     		str	r3, [r2]
 4669              	.L330:
 964:.\protocolo.c **** 						for(x=0;x<=17;x++){									
 4670              		.loc 1 964 0 is_stmt 0 discriminator 1
 4671 1974 184B     		ldr	r3, .L657+4
 4672 1976 1B68     		ldr	r3, [r3]
 4673 1978 112B     		cmp	r3, #17
 4674 197a F0D9     		bls	.L331
 966:.\protocolo.c **** 						}
 967:.\protocolo.c **** 						print_valor(resultado,val);							
 4675              		.loc 1 967 0 is_stmt 1
 4676 197c 1B48     		ldr	r0, .L657+24
 4677 197e 2146     		mov	r1, r4
 4678 1980 FFF7FEFF 		bl	print_valor
 4679              	.LVL348:
 968:.\protocolo.c **** 						if(dir==a.dir){
 4680              		.loc 1 968 0
 4681 1984 154B     		ldr	r3, .L657+8
 4682 1986 1B78     		ldrb	r3, [r3]	@ zero_extendqisi2
 4683 1988 AB42     		cmp	r3, r5
 4684 198a 0AD1     		bne	.L332
 969:.\protocolo.c **** 						    write_eeprom(1096,corte);
 4685              		.loc 1 969 0
 4686 198c 4FF48960 		mov	r0, #1096
 4687 1990 09A9     		add	r1, sp, #36
 4688 1992 FFF7FEFF 		bl	write_eeprom
 4689              	.LVL349:
 970:.\protocolo.c **** 						    write_eeprom(1038,resultado);
 4690              		.loc 1 970 0
 4691 1996 40F20E40 		movw	r0, #1038
 4692 199a 1449     		ldr	r1, .L657+24
 4693 199c FFF7FEFF 		bl	write_eeprom
 4694              	.LVL350:
 4695 19a0 09E0     		b	.L317
 4696              	.L332:
 971:.\protocolo.c **** 					    }
 972:.\protocolo.c **** 					    else{
 973:.\protocolo.c **** 						    write_eeprom(1054,corte);
 4697              		.loc 1 973 0
 4698 19a2 40F21E40 		movw	r0, #1054
 4699 19a6 09A9     		add	r1, sp, #36
 4700 19a8 FFF7FEFF 		bl	write_eeprom
 4701              	.LVL351:
 974:.\protocolo.c **** 						    write_eeprom(1081,resultado);
 4702              		.loc 1 974 0
ARM GAS  C:\Users\diego\AppData\Local\Temp\ccvEcbYb.s 			page 105


 4703 19ac 40F23940 		movw	r0, #1081
 4704 19b0 0E49     		ldr	r1, .L657+24
 4705 19b2 FFF7FEFF 		bl	write_eeprom
 4706              	.LVL352:
 4707              	.L317:
 785:.\protocolo.c **** 					rventa.manguera=(Surtidor_rxBuffer[y+2]&0x0F)+1;
 4708              		.loc 1 785 0 discriminator 2
 4709 19b6 134A     		ldr	r2, .L657+48
 4710 19b8 1368     		ldr	r3, [r2]
 4711 19ba 1E33     		adds	r3, r3, #30
 4712 19bc 1360     		str	r3, [r2]
 4713              	.L248:
 785:.\protocolo.c **** 					rventa.manguera=(Surtidor_rxBuffer[y+2]&0x0F)+1;
 4714              		.loc 1 785 0 is_stmt 0 discriminator 1
 4715 19be 114B     		ldr	r3, .L657+48
 4716 19c0 1E68     		ldr	r6, [r3]
 4717 19c2 3C2E     		cmp	r6, #60
 4718 19c4 7FF6ECAB 		bls	.L333
 975:.\protocolo.c **** 						}					
 976:.\protocolo.c **** 					}
 977:.\protocolo.c ****                     
 978:.\protocolo.c **** 				}
 979:.\protocolo.c **** 				Surtidor_ClearRxBuffer();
 4719              		.loc 1 979 0 is_stmt 1
 4720 19c8 FFF7FEFF 		bl	Surtidor_ClearRxBuffer
 4721              	.LVL353:
 980:.\protocolo.c **** 				return 3;					
 4722              		.loc 1 980 0
 4723 19cc 0320     		movs	r0, #3
 4724 19ce 01F080BE 		b	.L78
 4725              	.L658:
 4726 19d2 00BF     		.align	2
 4727              	.L657:
 4728 19d4 00000000 		.word	.LANCHOR1
 4729 19d8 00000000 		.word	x
 4730 19dc 00000000 		.word	a
 4731 19e0 00000000 		.word	z
 4732 19e4 FFFFFFFF 		.word	rventa-1
 4733 19e8 00000000 		.word	buffer_i2c
 4734 19ec 00000000 		.word	resultado
 4735 19f0 00000000 		.word	rventa
 4736 19f4 00000000 		.word	producto4
 4737 19f8 00000000 		.word	producto4b
 4738 19fc 00000000 		.word	b
 4739 1a00 00000000 		.word	producto4n
 4740 1a04 00000000 		.word	y
 4741              	.LVL354:
 4742              	.L74:
 981:.\protocolo.c **** 			}			
 982:.\protocolo.c **** 			else{
 983:.\protocolo.c **** 				return 0;
 984:.\protocolo.c **** 			}			
 985:.\protocolo.c **** 		break;
 986:.\protocolo.c **** 
 987:.\protocolo.c **** 		case 46:
 988:.\protocolo.c **** 			if((Surtidor_rxBuffer[0]==0xFF)&&(Surtidor_rxBuffer[1]==0xF6)&&(Surtidor_rxBuffer[45]==0xF0)&&(S
 4743              		.loc 1 988 0
ARM GAS  C:\Users\diego\AppData\Local\Temp\ccvEcbYb.s 			page 106


 4744 1a08 9F4B     		ldr	r3, .L659
 4745 1a0a 1B78     		ldrb	r3, [r3]	@ zero_extendqisi2
 4746 1a0c DBB2     		uxtb	r3, r3
 4747 1a0e FF2B     		cmp	r3, #255
 4748 1a10 41F04886 		bne	.L628
 4749              		.loc 1 988 0 is_stmt 0 discriminator 1
 4750 1a14 9C4B     		ldr	r3, .L659
 4751 1a16 5B78     		ldrb	r3, [r3, #1]	@ zero_extendqisi2
 4752 1a18 DBB2     		uxtb	r3, r3
 4753 1a1a F62B     		cmp	r3, #246
 4754 1a1c 41F04486 		bne	.L629
 4755              		.loc 1 988 0 discriminator 2
 4756 1a20 994B     		ldr	r3, .L659
 4757 1a22 93F82D30 		ldrb	r3, [r3, #45]	@ zero_extendqisi2
 4758 1a26 DBB2     		uxtb	r3, r3
 4759 1a28 F02B     		cmp	r3, #240
 4760 1a2a 41F03F86 		bne	.L630
 4761              		.loc 1 988 0 discriminator 3
 4762 1a2e 964B     		ldr	r3, .L659
 4763 1a30 DB78     		ldrb	r3, [r3, #3]	@ zero_extendqisi2
 4764 1a32 DBB2     		uxtb	r3, r3
 4765 1a34 F92B     		cmp	r3, #249
 4766 1a36 41F03B86 		bne	.L631
 989:.\protocolo.c **** 				rventa.manguera=(Surtidor_rxBuffer[2]&0x0F)+ 1;
 4767              		.loc 1 989 0 is_stmt 1
 4768 1a3a 934B     		ldr	r3, .L659
 4769 1a3c 9978     		ldrb	r1, [r3, #2]	@ zero_extendqisi2
 4770 1a3e 01F00F01 		and	r1, r1, #15
 4771 1a42 0131     		adds	r1, r1, #1
 4772 1a44 914B     		ldr	r3, .L659+4
 4773 1a46 83F8E010 		strb	r1, [r3, #224]
 990:.\protocolo.c **** 				for(x=0;x<=11;x++){
 4774              		.loc 1 990 0
 4775 1a4a 0022     		movs	r2, #0
 4776 1a4c 904B     		ldr	r3, .L659+8
 4777 1a4e 1A60     		str	r2, [r3]
 4778 1a50 0BE0     		b	.L334
 4779              	.LVL355:
 4780              	.L335:
 991:.\protocolo.c **** 					rventa.tvolumen[x]=(Surtidor_rxBuffer[x+4]&0x0F);
 4781              		.loc 1 991 0 discriminator 3
 4782 1a52 1A1D     		adds	r2, r3, #4
 4783 1a54 8C48     		ldr	r0, .L659
 4784 1a56 805C     		ldrb	r0, [r0, r2]	@ zero_extendqisi2
 4785 1a58 8C4A     		ldr	r2, .L659+4
 4786 1a5a 1A44     		add	r2, r2, r3
 4787 1a5c 00F00F00 		and	r0, r0, #15
 4788 1a60 82F8BD00 		strb	r0, [r2, #189]
 990:.\protocolo.c **** 				for(x=0;x<=11;x++){
 4789              		.loc 1 990 0 discriminator 3
 4790 1a64 0133     		adds	r3, r3, #1
 4791 1a66 8A4A     		ldr	r2, .L659+8
 4792 1a68 1360     		str	r3, [r2]
 4793              	.L334:
 990:.\protocolo.c **** 				for(x=0;x<=11;x++){
 4794              		.loc 1 990 0 is_stmt 0 discriminator 1
 4795 1a6a 894B     		ldr	r3, .L659+8
ARM GAS  C:\Users\diego\AppData\Local\Temp\ccvEcbYb.s 			page 107


 4796 1a6c 1B68     		ldr	r3, [r3]
 4797 1a6e 0B2B     		cmp	r3, #11
 4798 1a70 EFD9     		bls	.L335
 992:.\protocolo.c **** 				}
 993:.\protocolo.c **** 				for(x=0;x<=11;x++){
 4799              		.loc 1 993 0 is_stmt 1
 4800 1a72 0022     		movs	r2, #0
 4801 1a74 864B     		ldr	r3, .L659+8
 4802 1a76 1A60     		str	r2, [r3]
 4803 1a78 0CE0     		b	.L336
 4804              	.L337:
 994:.\protocolo.c **** 					rventa.tdinero[x]=(Surtidor_rxBuffer[x+17]&0x0F);
 4805              		.loc 1 994 0 discriminator 3
 4806 1a7a 03F11102 		add	r2, r3, #17
 4807 1a7e 8248     		ldr	r0, .L659
 4808 1a80 805C     		ldrb	r0, [r0, r2]	@ zero_extendqisi2
 4809 1a82 824A     		ldr	r2, .L659+4
 4810 1a84 1A44     		add	r2, r2, r3
 4811 1a86 00F00F00 		and	r0, r0, #15
 4812 1a8a 82F8CA00 		strb	r0, [r2, #202]
 993:.\protocolo.c **** 					rventa.tdinero[x]=(Surtidor_rxBuffer[x+17]&0x0F);
 4813              		.loc 1 993 0 discriminator 3
 4814 1a8e 0133     		adds	r3, r3, #1
 4815 1a90 7F4A     		ldr	r2, .L659+8
 4816 1a92 1360     		str	r3, [r2]
 4817              	.L336:
 993:.\protocolo.c **** 					rventa.tdinero[x]=(Surtidor_rxBuffer[x+17]&0x0F);
 4818              		.loc 1 993 0 is_stmt 0 discriminator 1
 4819 1a94 7E4B     		ldr	r3, .L659+8
 4820 1a96 1B68     		ldr	r3, [r3]
 4821 1a98 0B2B     		cmp	r3, #11
 4822 1a9a EED9     		bls	.L337
 995:.\protocolo.c **** 				}
 996:.\protocolo.c **** 				for(z=0;z<=11;z++){
 4823              		.loc 1 996 0 is_stmt 1
 4824 1a9c 0022     		movs	r2, #0
 4825 1a9e 7D4B     		ldr	r3, .L659+12
 4826 1aa0 1A60     		str	r2, [r3]
 4827 1aa2 0AE0     		b	.L338
 4828              	.L339:
 997:.\protocolo.c **** 					corte[z+1]=rventa.tvolumen[z];
 4829              		.loc 1 997 0 discriminator 3
 4830 1aa4 5A1C     		adds	r2, r3, #1
 4831 1aa6 7948     		ldr	r0, .L659+4
 4832 1aa8 0344     		add	r3, r3, r0
 4833 1aaa 93F8BD00 		ldrb	r0, [r3, #189]	@ zero_extendqisi2
 4834 1aae 10AB     		add	r3, sp, #64
 4835 1ab0 1344     		add	r3, r3, r2
 4836 1ab2 03F81C0C 		strb	r0, [r3, #-28]
 996:.\protocolo.c **** 					corte[z+1]=rventa.tvolumen[z];
 4837              		.loc 1 996 0 discriminator 3
 4838 1ab6 774B     		ldr	r3, .L659+12
 4839 1ab8 1A60     		str	r2, [r3]
 4840              	.L338:
 996:.\protocolo.c **** 					corte[z+1]=rventa.tvolumen[z];
 4841              		.loc 1 996 0 is_stmt 0 discriminator 1
 4842 1aba 764B     		ldr	r3, .L659+12
ARM GAS  C:\Users\diego\AppData\Local\Temp\ccvEcbYb.s 			page 108


 4843 1abc 1B68     		ldr	r3, [r3]
 4844 1abe 0B2B     		cmp	r3, #11
 4845 1ac0 F0D9     		bls	.L339
 998:.\protocolo.c **** 				}
 999:.\protocolo.c **** 				for(z=13;z<=24;z++){
 4846              		.loc 1 999 0 is_stmt 1
 4847 1ac2 0D22     		movs	r2, #13
 4848 1ac4 734B     		ldr	r3, .L659+12
 4849 1ac6 1A60     		str	r2, [r3]
 4850 1ac8 0AE0     		b	.L340
 4851              	.L341:
1000:.\protocolo.c **** 					corte[z]=rventa.tdinero[z-13];
 4852              		.loc 1 1000 0 discriminator 3
 4853 1aca 734A     		ldr	r2, .L659+16
 4854 1acc 1A44     		add	r2, r2, r3
 4855 1ace 92F8CA00 		ldrb	r0, [r2, #202]	@ zero_extendqisi2
 4856 1ad2 10AA     		add	r2, sp, #64
 4857 1ad4 1A44     		add	r2, r2, r3
 4858 1ad6 02F81C0C 		strb	r0, [r2, #-28]
 999:.\protocolo.c **** 					corte[z]=rventa.tdinero[z-13];
 4859              		.loc 1 999 0 discriminator 3
 4860 1ada 0133     		adds	r3, r3, #1
 4861 1adc 6D4A     		ldr	r2, .L659+12
 4862 1ade 1360     		str	r3, [r2]
 4863              	.L340:
 999:.\protocolo.c **** 					corte[z]=rventa.tdinero[z-13];
 4864              		.loc 1 999 0 is_stmt 0 discriminator 1
 4865 1ae0 6C4B     		ldr	r3, .L659+12
 4866 1ae2 1B68     		ldr	r3, [r3]
 4867 1ae4 182B     		cmp	r3, #24
 4868 1ae6 F0D9     		bls	.L341
1001:.\protocolo.c **** 				}
1002:.\protocolo.c **** 				corte[0]=24;				
 4869              		.loc 1 1002 0 is_stmt 1
 4870 1ae8 1823     		movs	r3, #24
 4871 1aea 8DF82430 		strb	r3, [sp, #36]
1003:.\protocolo.c **** 				if(((rventa.manguera==(producto1&0x0F))&&(dir==a.dir))||((rventa.manguera==(producto1b&0x0F))&&
 4872              		.loc 1 1003 0
 4873 1aee 6B4B     		ldr	r3, .L659+20
 4874 1af0 1B78     		ldrb	r3, [r3]	@ zero_extendqisi2
 4875 1af2 03F00F03 		and	r3, r3, #15
 4876 1af6 8B42     		cmp	r3, r1
 4877 1af8 03D1     		bne	.L342
 4878              		.loc 1 1003 0 is_stmt 0 discriminator 1
 4879 1afa 694B     		ldr	r3, .L659+24
 4880 1afc 1B78     		ldrb	r3, [r3]	@ zero_extendqisi2
 4881 1afe AB42     		cmp	r3, r5
 4882 1b00 1FD0     		beq	.L343
 4883              	.L342:
 4884              		.loc 1 1003 0 discriminator 3
 4885 1b02 684B     		ldr	r3, .L659+28
 4886 1b04 1B78     		ldrb	r3, [r3]	@ zero_extendqisi2
 4887 1b06 03F00F03 		and	r3, r3, #15
 4888 1b0a 9942     		cmp	r1, r3
 4889 1b0c 03D1     		bne	.L344
 4890              		.loc 1 1003 0 discriminator 4
 4891 1b0e 664B     		ldr	r3, .L659+32
ARM GAS  C:\Users\diego\AppData\Local\Temp\ccvEcbYb.s 			page 109


 4892 1b10 1B78     		ldrb	r3, [r3]	@ zero_extendqisi2
 4893 1b12 AB42     		cmp	r3, r5
 4894 1b14 15D0     		beq	.L343
 4895              	.L344:
 4896              		.loc 1 1003 0 discriminator 6
 4897 1b16 654B     		ldr	r3, .L659+36
 4898 1b18 1B78     		ldrb	r3, [r3]	@ zero_extendqisi2
 4899 1b1a 03F00F03 		and	r3, r3, #15
 4900 1b1e 9942     		cmp	r1, r3
 4901 1b20 03D1     		bne	.L345
 4902              		.loc 1 1003 0 discriminator 7
 4903 1b22 634B     		ldr	r3, .L659+40
 4904 1b24 1B78     		ldrb	r3, [r3]	@ zero_extendqisi2
 4905 1b26 AB42     		cmp	r3, r5
 4906 1b28 0BD0     		beq	.L343
 4907              	.L345:
 4908              		.loc 1 1003 0 discriminator 9
 4909 1b2a 624B     		ldr	r3, .L659+44
 4910 1b2c 1B78     		ldrb	r3, [r3]	@ zero_extendqisi2
 4911 1b2e 03F00F03 		and	r3, r3, #15
 4912 1b32 9942     		cmp	r1, r3
 4913 1b34 40F01181 		bne	.L346
 4914              		.loc 1 1003 0 discriminator 10
 4915 1b38 5F4B     		ldr	r3, .L659+48
 4916 1b3a 1B78     		ldrb	r3, [r3]	@ zero_extendqisi2
 4917 1b3c AB42     		cmp	r3, r5
 4918 1b3e 40F00C81 		bne	.L346
 4919              	.L343:
1004:.\protocolo.c **** 					for(x=0;x<=5;x++){									
 4920              		.loc 1 1004 0 is_stmt 1
 4921 1b42 0022     		movs	r2, #0
 4922 1b44 524B     		ldr	r3, .L659+8
 4923 1b46 1A60     		str	r2, [r3]
 4924 1b48 08E0     		b	.L347
 4925              	.L348:
1005:.\protocolo.c **** 						write_psoc1(val,msn_tc[x]);
 4926              		.loc 1 1005 0 discriminator 3
 4927 1b4a 2046     		mov	r0, r4
 4928 1b4c 5B4A     		ldr	r2, .L659+52
 4929 1b4e D15C     		ldrb	r1, [r2, r3]	@ zero_extendqisi2
 4930 1b50 FFF7FEFF 		bl	write_psoc1
 4931              	.LVL356:
1004:.\protocolo.c **** 					for(x=0;x<=5;x++){									
 4932              		.loc 1 1004 0 discriminator 3
 4933 1b54 4E4A     		ldr	r2, .L659+8
 4934 1b56 1368     		ldr	r3, [r2]
 4935 1b58 0133     		adds	r3, r3, #1
 4936 1b5a 1360     		str	r3, [r2]
 4937              	.L347:
1004:.\protocolo.c **** 					for(x=0;x<=5;x++){									
 4938              		.loc 1 1004 0 is_stmt 0 discriminator 1
 4939 1b5c 4C4B     		ldr	r3, .L659+8
 4940 1b5e 1B68     		ldr	r3, [r3]
 4941 1b60 052B     		cmp	r3, #5
 4942 1b62 F2D9     		bls	.L348
1006:.\protocolo.c **** 					}
1007:.\protocolo.c **** 					write_psoc1(val,10);
ARM GAS  C:\Users\diego\AppData\Local\Temp\ccvEcbYb.s 			page 110


 4943              		.loc 1 1007 0 is_stmt 1
 4944 1b64 2046     		mov	r0, r4
 4945 1b66 0A21     		movs	r1, #10
 4946 1b68 FFF7FEFF 		bl	write_psoc1
 4947              	.LVL357:
1008:.\protocolo.c ****                     for(x=0;x<=10;x++){									
 4948              		.loc 1 1008 0
 4949 1b6c 0022     		movs	r2, #0
 4950 1b6e 484B     		ldr	r3, .L659+8
 4951 1b70 1A60     		str	r2, [r3]
 4952 1b72 08E0     		b	.L349
 4953              	.L350:
1009:.\protocolo.c **** 						write_psoc1(val,producto1n[x]);
 4954              		.loc 1 1009 0 discriminator 3
 4955 1b74 2046     		mov	r0, r4
 4956 1b76 524A     		ldr	r2, .L659+56
 4957 1b78 D15C     		ldrb	r1, [r2, r3]	@ zero_extendqisi2
 4958 1b7a FFF7FEFF 		bl	write_psoc1
 4959              	.LVL358:
1008:.\protocolo.c ****                     for(x=0;x<=10;x++){									
 4960              		.loc 1 1008 0 discriminator 3
 4961 1b7e 444A     		ldr	r2, .L659+8
 4962 1b80 1368     		ldr	r3, [r2]
 4963 1b82 0133     		adds	r3, r3, #1
 4964 1b84 1360     		str	r3, [r2]
 4965              	.L349:
1008:.\protocolo.c ****                     for(x=0;x<=10;x++){									
 4966              		.loc 1 1008 0 is_stmt 0 discriminator 1
 4967 1b86 424B     		ldr	r3, .L659+8
 4968 1b88 1B68     		ldr	r3, [r3]
 4969 1b8a 0A2B     		cmp	r3, #10
 4970 1b8c F2D9     		bls	.L350
1010:.\protocolo.c **** 					}
1011:.\protocolo.c ****                     write_psoc1(val,10);
 4971              		.loc 1 1011 0 is_stmt 1
 4972 1b8e 2046     		mov	r0, r4
 4973 1b90 0A21     		movs	r1, #10
 4974 1b92 FFF7FEFF 		bl	write_psoc1
 4975              	.LVL359:
1012:.\protocolo.c **** 					for(x=0;x<=14;x++){									
 4976              		.loc 1 1012 0
 4977 1b96 0022     		movs	r2, #0
 4978 1b98 3D4B     		ldr	r3, .L659+8
 4979 1b9a 1A60     		str	r2, [r3]
 4980 1b9c 09E0     		b	.L351
 4981              	.L352:
1013:.\protocolo.c **** 						write_psoc1(val,msn_lecact[x]);				//LECTURA ACTUAL
 4982              		.loc 1 1013 0 discriminator 3
 4983 1b9e 474A     		ldr	r2, .L659+52
 4984 1ba0 1344     		add	r3, r3, r2
 4985 1ba2 2046     		mov	r0, r4
 4986 1ba4 197A     		ldrb	r1, [r3, #8]	@ zero_extendqisi2
 4987 1ba6 FFF7FEFF 		bl	write_psoc1
 4988              	.LVL360:
1012:.\protocolo.c **** 					for(x=0;x<=14;x++){									
 4989              		.loc 1 1012 0 discriminator 3
 4990 1baa 394A     		ldr	r2, .L659+8
ARM GAS  C:\Users\diego\AppData\Local\Temp\ccvEcbYb.s 			page 111


 4991 1bac 1368     		ldr	r3, [r2]
 4992 1bae 0133     		adds	r3, r3, #1
 4993 1bb0 1360     		str	r3, [r2]
 4994              	.L351:
1012:.\protocolo.c **** 					for(x=0;x<=14;x++){									
 4995              		.loc 1 1012 0 is_stmt 0 discriminator 1
 4996 1bb2 374B     		ldr	r3, .L659+8
 4997 1bb4 1B68     		ldr	r3, [r3]
 4998 1bb6 0E2B     		cmp	r3, #14
 4999 1bb8 F1D9     		bls	.L352
1014:.\protocolo.c **** 					}
1015:.\protocolo.c **** 					write_psoc1(val,10);
 5000              		.loc 1 1015 0 is_stmt 1
 5001 1bba 2046     		mov	r0, r4
 5002 1bbc 0A21     		movs	r1, #10
 5003 1bbe FFF7FEFF 		bl	write_psoc1
 5004              	.LVL361:
1016:.\protocolo.c **** 					print_totalesac(12,val);	
 5005              		.loc 1 1016 0
 5006 1bc2 0C20     		movs	r0, #12
 5007 1bc4 2146     		mov	r1, r4
 5008 1bc6 FFF7FEFF 		bl	print_totalesac
 5009              	.LVL362:
1017:.\protocolo.c **** 					for(x=0;x<=16;x++){												
 5010              		.loc 1 1017 0
 5011 1bca 0022     		movs	r2, #0
 5012 1bcc 304B     		ldr	r3, .L659+8
 5013 1bce 1A60     		str	r2, [r3]
 5014 1bd0 09E0     		b	.L353
 5015              	.L354:
1018:.\protocolo.c **** 						write_psoc1(val,msn_lecaan[x]);				//LECTURA ANTERIOR
 5016              		.loc 1 1018 0 discriminator 3
 5017 1bd2 3A4A     		ldr	r2, .L659+52
 5018 1bd4 1344     		add	r3, r3, r2
 5019 1bd6 2046     		mov	r0, r4
 5020 1bd8 197E     		ldrb	r1, [r3, #24]	@ zero_extendqisi2
 5021 1bda FFF7FEFF 		bl	write_psoc1
 5022              	.LVL363:
1017:.\protocolo.c **** 					for(x=0;x<=16;x++){												
 5023              		.loc 1 1017 0 discriminator 3
 5024 1bde 2C4A     		ldr	r2, .L659+8
 5025 1be0 1368     		ldr	r3, [r2]
 5026 1be2 0133     		adds	r3, r3, #1
 5027 1be4 1360     		str	r3, [r2]
 5028              	.L353:
1017:.\protocolo.c **** 					for(x=0;x<=16;x++){												
 5029              		.loc 1 1017 0 is_stmt 0 discriminator 1
 5030 1be6 2A4B     		ldr	r3, .L659+8
 5031 1be8 1B68     		ldr	r3, [r3]
 5032 1bea 102B     		cmp	r3, #16
 5033 1bec F1D9     		bls	.L354
1019:.\protocolo.c **** 					}
1020:.\protocolo.c **** 					write_psoc1(val,10);
 5034              		.loc 1 1020 0 is_stmt 1
 5035 1bee 2046     		mov	r0, r4
 5036 1bf0 0A21     		movs	r1, #10
 5037 1bf2 FFF7FEFF 		bl	write_psoc1
ARM GAS  C:\Users\diego\AppData\Local\Temp\ccvEcbYb.s 			page 112


 5038              	.LVL364:
1021:.\protocolo.c **** 					if(dir==a.dir){
 5039              		.loc 1 1021 0
 5040 1bf6 2A4B     		ldr	r3, .L659+24
 5041 1bf8 1B78     		ldrb	r3, [r3]	@ zero_extendqisi2
 5042 1bfa AB42     		cmp	r3, r5
 5043 1bfc 03D1     		bne	.L355
1022:.\protocolo.c **** 						leer_eeprom(192,25);
 5044              		.loc 1 1022 0
 5045 1bfe C020     		movs	r0, #192
 5046 1c00 1921     		movs	r1, #25
 5047 1c02 FFF7FEFF 		bl	leer_eeprom
 5048              	.LVL365:
 5049              	.L355:
1023:.\protocolo.c **** 					}
1024:.\protocolo.c ****                     if(dir==b.dir){
 5050              		.loc 1 1024 0
 5051 1c06 284B     		ldr	r3, .L659+32
 5052 1c08 1B78     		ldrb	r3, [r3]	@ zero_extendqisi2
 5053 1c0a AB42     		cmp	r3, r5
 5054 1c0c 04D1     		bne	.L356
1025:.\protocolo.c **** 						leer_eeprom(1192,25);
 5055              		.loc 1 1025 0
 5056 1c0e 4FF49560 		mov	r0, #1192
 5057 1c12 1921     		movs	r1, #25
 5058 1c14 FFF7FEFF 		bl	leer_eeprom
 5059              	.LVL366:
 5060              	.L356:
1026:.\protocolo.c **** 					}
1027:.\protocolo.c ****                     if(dir==d.dir){
 5061              		.loc 1 1027 0
 5062 1c18 274B     		ldr	r3, .L659+48
 5063 1c1a 1B78     		ldrb	r3, [r3]	@ zero_extendqisi2
 5064 1c1c AB42     		cmp	r3, r5
 5065 1c1e 05D1     		bne	.L357
1028:.\protocolo.c **** 						leer_eeprom(1292,25);
 5066              		.loc 1 1028 0
 5067 1c20 40F20C50 		movw	r0, #1292
 5068 1c24 1921     		movs	r1, #25
 5069 1c26 FFF7FEFF 		bl	leer_eeprom
 5070              	.LVL367:
 5071 1c2a 04E0     		b	.L358
 5072              	.L357:
1029:.\protocolo.c **** 					}
1030:.\protocolo.c **** 					else{
1031:.\protocolo.c **** 						leer_eeprom(281,25);
 5073              		.loc 1 1031 0
 5074 1c2c 40F21910 		movw	r0, #281
 5075 1c30 1921     		movs	r1, #25
 5076 1c32 FFF7FEFF 		bl	leer_eeprom
 5077              	.LVL368:
 5078              	.L358:
1032:.\protocolo.c **** 					}
1033:.\protocolo.c **** 					print_totales(val);
 5079              		.loc 1 1033 0
 5080 1c36 2046     		mov	r0, r4
 5081 1c38 FFF7FEFF 		bl	print_totales
ARM GAS  C:\Users\diego\AppData\Local\Temp\ccvEcbYb.s 			page 113


 5082              	.LVL369:
1034:.\protocolo.c **** 					for(z=1;z<=12;z++){
 5083              		.loc 1 1034 0
 5084 1c3c 0122     		movs	r2, #1
 5085 1c3e 154B     		ldr	r3, .L659+12
 5086 1c40 1A60     		str	r2, [r3]
 5087 1c42 10E0     		b	.L359
 5088              	.L360:
1035:.\protocolo.c **** 						minuendo[z]=rventa.tdinero[z-1];
 5089              		.loc 1 1035 0 discriminator 3
 5090 1c44 1F4A     		ldr	r2, .L659+60
 5091 1c46 1A44     		add	r2, r2, r3
 5092 1c48 92F8CA10 		ldrb	r1, [r2, #202]	@ zero_extendqisi2
 5093 1c4c 10AA     		add	r2, sp, #64
 5094 1c4e 1A44     		add	r2, r2, r3
 5095 1c50 02F82C1C 		strb	r1, [r2, #-44]
1036:.\protocolo.c **** 						sustraendo[z]=buffer_i2c[z+12];
 5096              		.loc 1 1036 0 discriminator 3
 5097 1c54 03F10C01 		add	r1, r3, #12
 5098 1c58 1B48     		ldr	r0, .L659+64
 5099 1c5a 415C     		ldrb	r1, [r0, r1]	@ zero_extendqisi2
 5100 1c5c 02F83C1C 		strb	r1, [r2, #-60]
1034:.\protocolo.c **** 					for(z=1;z<=12;z++){
 5101              		.loc 1 1034 0 discriminator 3
 5102 1c60 0133     		adds	r3, r3, #1
 5103 1c62 0C4A     		ldr	r2, .L659+12
 5104 1c64 1360     		str	r3, [r2]
 5105              	.L359:
1034:.\protocolo.c **** 					for(z=1;z<=12;z++){
 5106              		.loc 1 1034 0 is_stmt 0 discriminator 1
 5107 1c66 0B4B     		ldr	r3, .L659+12
 5108 1c68 1B68     		ldr	r3, [r3]
 5109 1c6a 0C2B     		cmp	r3, #12
 5110 1c6c EAD9     		bls	.L360
1037:.\protocolo.c **** 					}
1038:.\protocolo.c **** 					minuendo[0]=12;
 5111              		.loc 1 1038 0 is_stmt 1
 5112 1c6e 10A9     		add	r1, sp, #64
 5113 1c70 0C23     		movs	r3, #12
 5114 1c72 01F82C3D 		strb	r3, [r1, #-44]!
1039:.\protocolo.c **** 					operacion(2,minuendo,sustraendo);
 5115              		.loc 1 1039 0
 5116 1c76 0220     		movs	r0, #2
 5117 1c78 01AA     		add	r2, sp, #4
 5118 1c7a FFF7FEFF 		bl	operacion
 5119              	.LVL370:
1040:.\protocolo.c **** 					for(x=0;x<=17;x++){									
 5120              		.loc 1 1040 0
 5121 1c7e 0022     		movs	r2, #0
 5122 1c80 034B     		ldr	r3, .L659+8
 5123 1c82 1A60     		str	r2, [r3]
 5124 1c84 2DE0     		b	.L361
 5125              	.L660:
 5126 1c86 00BF     		.align	2
 5127              	.L659:
 5128 1c88 00000000 		.word	Surtidor_rxBuffer
 5129 1c8c 00000000 		.word	rventa
ARM GAS  C:\Users\diego\AppData\Local\Temp\ccvEcbYb.s 			page 114


 5130 1c90 00000000 		.word	x
 5131 1c94 00000000 		.word	z
 5132 1c98 F3FFFFFF 		.word	rventa-13
 5133 1c9c 00000000 		.word	producto1
 5134 1ca0 00000000 		.word	a
 5135 1ca4 00000000 		.word	producto1b
 5136 1ca8 00000000 		.word	b
 5137 1cac 00000000 		.word	producto1c
 5138 1cb0 00000000 		.word	c
 5139 1cb4 00000000 		.word	producto1d
 5140 1cb8 00000000 		.word	d
 5141 1cbc 00000000 		.word	.LANCHOR1
 5142 1cc0 00000000 		.word	producto1n
 5143 1cc4 FFFFFFFF 		.word	rventa-1
 5144 1cc8 00000000 		.word	buffer_i2c
 5145              	.L362:
1041:.\protocolo.c **** 						write_psoc1(val,msn_tventas[x]);				//Total de ventas
 5146              		.loc 1 1041 0 discriminator 3
 5147 1ccc A94A     		ldr	r2, .L661
 5148 1cce 1344     		add	r3, r3, r2
 5149 1cd0 2046     		mov	r0, r4
 5150 1cd2 93F82C10 		ldrb	r1, [r3, #44]	@ zero_extendqisi2
 5151 1cd6 FFF7FEFF 		bl	write_psoc1
 5152              	.LVL371:
1040:.\protocolo.c **** 					for(x=0;x<=17;x++){									
 5153              		.loc 1 1040 0 discriminator 3
 5154 1cda A74A     		ldr	r2, .L661+4
 5155 1cdc 1368     		ldr	r3, [r2]
 5156 1cde 0133     		adds	r3, r3, #1
 5157 1ce0 1360     		str	r3, [r2]
 5158              	.L361:
1040:.\protocolo.c **** 					for(x=0;x<=17;x++){									
 5159              		.loc 1 1040 0 is_stmt 0 discriminator 1
 5160 1ce2 A54B     		ldr	r3, .L661+4
 5161 1ce4 1B68     		ldr	r3, [r3]
 5162 1ce6 112B     		cmp	r3, #17
 5163 1ce8 F0D9     		bls	.L362
1042:.\protocolo.c **** 					}
1043:.\protocolo.c **** 					print_valor(resultado,val);
 5164              		.loc 1 1043 0 is_stmt 1
 5165 1cea A448     		ldr	r0, .L661+8
 5166 1cec 2146     		mov	r1, r4
 5167 1cee FFF7FEFF 		bl	print_valor
 5168              	.LVL372:
1044:.\protocolo.c **** 					if(dir==a.dir){
 5169              		.loc 1 1044 0
 5170 1cf2 A34B     		ldr	r3, .L661+12
 5171 1cf4 1B78     		ldrb	r3, [r3]	@ zero_extendqisi2
 5172 1cf6 AB42     		cmp	r3, r5
 5173 1cf8 08D1     		bne	.L363
1045:.\protocolo.c **** 						write_eeprom(192,corte);	
 5174              		.loc 1 1045 0
 5175 1cfa C020     		movs	r0, #192
 5176 1cfc 09A9     		add	r1, sp, #36
 5177 1cfe FFF7FEFF 		bl	write_eeprom
 5178              	.LVL373:
1046:.\protocolo.c **** 						write_eeprom(512,resultado);
ARM GAS  C:\Users\diego\AppData\Local\Temp\ccvEcbYb.s 			page 115


 5179              		.loc 1 1046 0
 5180 1d02 4FF40070 		mov	r0, #512
 5181 1d06 9D49     		ldr	r1, .L661+8
 5182 1d08 FFF7FEFF 		bl	write_eeprom
 5183              	.LVL374:
 5184              	.L363:
1047:.\protocolo.c **** 					}
1048:.\protocolo.c ****                     if(dir==b.dir){
 5185              		.loc 1 1048 0
 5186 1d0c 9D4B     		ldr	r3, .L661+16
 5187 1d0e 1B78     		ldrb	r3, [r3]	@ zero_extendqisi2
 5188 1d10 AB42     		cmp	r3, r5
 5189 1d12 09D1     		bne	.L364
1049:.\protocolo.c **** 						write_eeprom(1192,corte);	
 5190              		.loc 1 1049 0
 5191 1d14 4FF49560 		mov	r0, #1192
 5192 1d18 09A9     		add	r1, sp, #36
 5193 1d1a FFF7FEFF 		bl	write_eeprom
 5194              	.LVL375:
1050:.\protocolo.c **** 						write_eeprom(1392,resultado);
 5195              		.loc 1 1050 0
 5196 1d1e 4FF4AE60 		mov	r0, #1392
 5197 1d22 9649     		ldr	r1, .L661+8
 5198 1d24 FFF7FEFF 		bl	write_eeprom
 5199              	.LVL376:
 5200              	.L364:
1051:.\protocolo.c **** 					}
1052:.\protocolo.c ****                     if(dir==d.dir){
 5201              		.loc 1 1052 0
 5202 1d28 974B     		ldr	r3, .L661+20
 5203 1d2a 1B78     		ldrb	r3, [r3]	@ zero_extendqisi2
 5204 1d2c AB42     		cmp	r3, r5
 5205 1d2e 0AD1     		bne	.L365
1053:.\protocolo.c **** 						write_eeprom(1292,corte);	
 5206              		.loc 1 1053 0
 5207 1d30 40F20C50 		movw	r0, #1292
 5208 1d34 09A9     		add	r1, sp, #36
 5209 1d36 FFF7FEFF 		bl	write_eeprom
 5210              	.LVL377:
1054:.\protocolo.c **** 						write_eeprom(1405,resultado);
 5211              		.loc 1 1054 0
 5212 1d3a 40F27D50 		movw	r0, #1405
 5213 1d3e 8F49     		ldr	r1, .L661+8
 5214 1d40 FFF7FEFF 		bl	write_eeprom
 5215              	.LVL378:
 5216 1d44 09E0     		b	.L346
 5217              	.L365:
1055:.\protocolo.c **** 					}
1056:.\protocolo.c **** 					else{
1057:.\protocolo.c **** 						write_eeprom(281,corte);
 5218              		.loc 1 1057 0
 5219 1d46 40F21910 		movw	r0, #281
 5220 1d4a 09A9     		add	r1, sp, #36
 5221 1d4c FFF7FEFF 		bl	write_eeprom
 5222              	.LVL379:
1058:.\protocolo.c **** 						write_eeprom(551,resultado);
 5223              		.loc 1 1058 0
ARM GAS  C:\Users\diego\AppData\Local\Temp\ccvEcbYb.s 			page 116


 5224 1d50 40F22720 		movw	r0, #551
 5225 1d54 8949     		ldr	r1, .L661+8
 5226 1d56 FFF7FEFF 		bl	write_eeprom
 5227              	.LVL380:
 5228              	.L346:
1059:.\protocolo.c **** 					}
1060:.\protocolo.c **** 				}
1061:.\protocolo.c **** 				if(((rventa.manguera==(producto2&0x0F))&&(dir==a.dir))||((rventa.manguera==(producto2b&0x0F))&&
 5229              		.loc 1 1061 0
 5230 1d5a 8C4B     		ldr	r3, .L661+24
 5231 1d5c 93F8E030 		ldrb	r3, [r3, #224]	@ zero_extendqisi2
 5232 1d60 8B4A     		ldr	r2, .L661+28
 5233 1d62 1278     		ldrb	r2, [r2]	@ zero_extendqisi2
 5234 1d64 02F00F02 		and	r2, r2, #15
 5235 1d68 9A42     		cmp	r2, r3
 5236 1d6a 03D1     		bne	.L366
 5237              		.loc 1 1061 0 is_stmt 0 discriminator 1
 5238 1d6c 844A     		ldr	r2, .L661+12
 5239 1d6e 1278     		ldrb	r2, [r2]	@ zero_extendqisi2
 5240 1d70 AA42     		cmp	r2, r5
 5241 1d72 1FD0     		beq	.L367
 5242              	.L366:
 5243              		.loc 1 1061 0 discriminator 3
 5244 1d74 874A     		ldr	r2, .L661+32
 5245 1d76 1278     		ldrb	r2, [r2]	@ zero_extendqisi2
 5246 1d78 02F00F02 		and	r2, r2, #15
 5247 1d7c 9342     		cmp	r3, r2
 5248 1d7e 03D1     		bne	.L368
 5249              		.loc 1 1061 0 discriminator 4
 5250 1d80 804A     		ldr	r2, .L661+16
 5251 1d82 1278     		ldrb	r2, [r2]	@ zero_extendqisi2
 5252 1d84 AA42     		cmp	r2, r5
 5253 1d86 15D0     		beq	.L367
 5254              	.L368:
 5255              		.loc 1 1061 0 discriminator 6
 5256 1d88 834A     		ldr	r2, .L661+36
 5257 1d8a 1278     		ldrb	r2, [r2]	@ zero_extendqisi2
 5258 1d8c 02F00F02 		and	r2, r2, #15
 5259 1d90 9342     		cmp	r3, r2
 5260 1d92 03D1     		bne	.L369
 5261              		.loc 1 1061 0 discriminator 7
 5262 1d94 7C4A     		ldr	r2, .L661+20
 5263 1d96 1278     		ldrb	r2, [r2]	@ zero_extendqisi2
 5264 1d98 AA42     		cmp	r2, r5
 5265 1d9a 0BD0     		beq	.L367
 5266              	.L369:
 5267              		.loc 1 1061 0 discriminator 9
 5268 1d9c 7F4A     		ldr	r2, .L661+40
 5269 1d9e 1278     		ldrb	r2, [r2]	@ zero_extendqisi2
 5270 1da0 02F00F02 		and	r2, r2, #15
 5271 1da4 9342     		cmp	r3, r2
 5272 1da6 40F00F81 		bne	.L370
 5273              		.loc 1 1061 0 discriminator 10
 5274 1daa 7D4B     		ldr	r3, .L661+44
 5275 1dac 1B78     		ldrb	r3, [r3]	@ zero_extendqisi2
 5276 1dae AB42     		cmp	r3, r5
 5277 1db0 40F00A81 		bne	.L370
ARM GAS  C:\Users\diego\AppData\Local\Temp\ccvEcbYb.s 			page 117


 5278              	.L367:
1062:.\protocolo.c **** 					for(x=0;x<=5;x++){									
 5279              		.loc 1 1062 0 is_stmt 1
 5280 1db4 0022     		movs	r2, #0
 5281 1db6 704B     		ldr	r3, .L661+4
 5282 1db8 1A60     		str	r2, [r3]
 5283 1dba 08E0     		b	.L371
 5284              	.L372:
1063:.\protocolo.c **** 						    write_psoc1(val,msn_tc[x]);
 5285              		.loc 1 1063 0 discriminator 3
 5286 1dbc 2046     		mov	r0, r4
 5287 1dbe 6D4A     		ldr	r2, .L661
 5288 1dc0 D15C     		ldrb	r1, [r2, r3]	@ zero_extendqisi2
 5289 1dc2 FFF7FEFF 		bl	write_psoc1
 5290              	.LVL381:
1062:.\protocolo.c **** 					for(x=0;x<=5;x++){									
 5291              		.loc 1 1062 0 discriminator 3
 5292 1dc6 6C4A     		ldr	r2, .L661+4
 5293 1dc8 1368     		ldr	r3, [r2]
 5294 1dca 0133     		adds	r3, r3, #1
 5295 1dcc 1360     		str	r3, [r2]
 5296              	.L371:
1062:.\protocolo.c **** 					for(x=0;x<=5;x++){									
 5297              		.loc 1 1062 0 is_stmt 0 discriminator 1
 5298 1dce 6A4B     		ldr	r3, .L661+4
 5299 1dd0 1B68     		ldr	r3, [r3]
 5300 1dd2 052B     		cmp	r3, #5
 5301 1dd4 F2D9     		bls	.L372
1064:.\protocolo.c **** 					    }
1065:.\protocolo.c **** 					    write_psoc1(val,10);
 5302              		.loc 1 1065 0 is_stmt 1
 5303 1dd6 2046     		mov	r0, r4
 5304 1dd8 0A21     		movs	r1, #10
 5305 1dda FFF7FEFF 		bl	write_psoc1
 5306              	.LVL382:
1066:.\protocolo.c ****                     for(x=0;x<=10;x++){									
 5307              		.loc 1 1066 0
 5308 1dde 0022     		movs	r2, #0
 5309 1de0 654B     		ldr	r3, .L661+4
 5310 1de2 1A60     		str	r2, [r3]
 5311 1de4 08E0     		b	.L373
 5312              	.L374:
1067:.\protocolo.c **** 						    write_psoc1(val,producto2n[x]);
 5313              		.loc 1 1067 0 discriminator 3
 5314 1de6 2046     		mov	r0, r4
 5315 1de8 6E4A     		ldr	r2, .L661+48
 5316 1dea D15C     		ldrb	r1, [r2, r3]	@ zero_extendqisi2
 5317 1dec FFF7FEFF 		bl	write_psoc1
 5318              	.LVL383:
1066:.\protocolo.c ****                     for(x=0;x<=10;x++){									
 5319              		.loc 1 1066 0 discriminator 3
 5320 1df0 614A     		ldr	r2, .L661+4
 5321 1df2 1368     		ldr	r3, [r2]
 5322 1df4 0133     		adds	r3, r3, #1
 5323 1df6 1360     		str	r3, [r2]
 5324              	.L373:
1066:.\protocolo.c ****                     for(x=0;x<=10;x++){									
ARM GAS  C:\Users\diego\AppData\Local\Temp\ccvEcbYb.s 			page 118


 5325              		.loc 1 1066 0 is_stmt 0 discriminator 1
 5326 1df8 5F4B     		ldr	r3, .L661+4
 5327 1dfa 1B68     		ldr	r3, [r3]
 5328 1dfc 0A2B     		cmp	r3, #10
 5329 1dfe F2D9     		bls	.L374
1068:.\protocolo.c **** 					    }
1069:.\protocolo.c ****                     write_psoc1(val,10);
 5330              		.loc 1 1069 0 is_stmt 1
 5331 1e00 2046     		mov	r0, r4
 5332 1e02 0A21     		movs	r1, #10
 5333 1e04 FFF7FEFF 		bl	write_psoc1
 5334              	.LVL384:
1070:.\protocolo.c **** 					for(x=0;x<=14;x++){									
 5335              		.loc 1 1070 0
 5336 1e08 0022     		movs	r2, #0
 5337 1e0a 5B4B     		ldr	r3, .L661+4
 5338 1e0c 1A60     		str	r2, [r3]
 5339 1e0e 09E0     		b	.L375
 5340              	.L376:
1071:.\protocolo.c **** 						write_psoc1(val,msn_lecact[x]);				//LECTURA ACTUAL
 5341              		.loc 1 1071 0 discriminator 3
 5342 1e10 584A     		ldr	r2, .L661
 5343 1e12 1344     		add	r3, r3, r2
 5344 1e14 2046     		mov	r0, r4
 5345 1e16 197A     		ldrb	r1, [r3, #8]	@ zero_extendqisi2
 5346 1e18 FFF7FEFF 		bl	write_psoc1
 5347              	.LVL385:
1070:.\protocolo.c **** 					for(x=0;x<=14;x++){									
 5348              		.loc 1 1070 0 discriminator 3
 5349 1e1c 564A     		ldr	r2, .L661+4
 5350 1e1e 1368     		ldr	r3, [r2]
 5351 1e20 0133     		adds	r3, r3, #1
 5352 1e22 1360     		str	r3, [r2]
 5353              	.L375:
1070:.\protocolo.c **** 					for(x=0;x<=14;x++){									
 5354              		.loc 1 1070 0 is_stmt 0 discriminator 1
 5355 1e24 544B     		ldr	r3, .L661+4
 5356 1e26 1B68     		ldr	r3, [r3]
 5357 1e28 0E2B     		cmp	r3, #14
 5358 1e2a F1D9     		bls	.L376
1072:.\protocolo.c **** 					}
1073:.\protocolo.c **** 					write_psoc1(val,10);
 5359              		.loc 1 1073 0 is_stmt 1
 5360 1e2c 2046     		mov	r0, r4
 5361 1e2e 0A21     		movs	r1, #10
 5362 1e30 FFF7FEFF 		bl	write_psoc1
 5363              	.LVL386:
1074:.\protocolo.c **** 					print_totalesac(12,val);	
 5364              		.loc 1 1074 0
 5365 1e34 0C20     		movs	r0, #12
 5366 1e36 2146     		mov	r1, r4
 5367 1e38 FFF7FEFF 		bl	print_totalesac
 5368              	.LVL387:
1075:.\protocolo.c **** 					for(x=0;x<=16;x++){												
 5369              		.loc 1 1075 0
 5370 1e3c 0022     		movs	r2, #0
 5371 1e3e 4E4B     		ldr	r3, .L661+4
ARM GAS  C:\Users\diego\AppData\Local\Temp\ccvEcbYb.s 			page 119


 5372 1e40 1A60     		str	r2, [r3]
 5373 1e42 09E0     		b	.L377
 5374              	.L378:
1076:.\protocolo.c **** 						write_psoc1(val,msn_lecaan[x]);				//LECTURA ANTERIOR
 5375              		.loc 1 1076 0 discriminator 3
 5376 1e44 4B4A     		ldr	r2, .L661
 5377 1e46 1344     		add	r3, r3, r2
 5378 1e48 2046     		mov	r0, r4
 5379 1e4a 197E     		ldrb	r1, [r3, #24]	@ zero_extendqisi2
 5380 1e4c FFF7FEFF 		bl	write_psoc1
 5381              	.LVL388:
1075:.\protocolo.c **** 					for(x=0;x<=16;x++){												
 5382              		.loc 1 1075 0 discriminator 3
 5383 1e50 494A     		ldr	r2, .L661+4
 5384 1e52 1368     		ldr	r3, [r2]
 5385 1e54 0133     		adds	r3, r3, #1
 5386 1e56 1360     		str	r3, [r2]
 5387              	.L377:
1075:.\protocolo.c **** 					for(x=0;x<=16;x++){												
 5388              		.loc 1 1075 0 is_stmt 0 discriminator 1
 5389 1e58 474B     		ldr	r3, .L661+4
 5390 1e5a 1B68     		ldr	r3, [r3]
 5391 1e5c 102B     		cmp	r3, #16
 5392 1e5e F1D9     		bls	.L378
1077:.\protocolo.c **** 					}
1078:.\protocolo.c **** 					write_psoc1(val,10);
 5393              		.loc 1 1078 0 is_stmt 1
 5394 1e60 2046     		mov	r0, r4
 5395 1e62 0A21     		movs	r1, #10
 5396 1e64 FFF7FEFF 		bl	write_psoc1
 5397              	.LVL389:
1079:.\protocolo.c **** 					if(dir==a.dir){
 5398              		.loc 1 1079 0
 5399 1e68 454B     		ldr	r3, .L661+12
 5400 1e6a 1B78     		ldrb	r3, [r3]	@ zero_extendqisi2
 5401 1e6c AB42     		cmp	r3, r5
 5402 1e6e 03D1     		bne	.L379
1080:.\protocolo.c **** 						leer_eeprom(217,25);
 5403              		.loc 1 1080 0
 5404 1e70 D920     		movs	r0, #217
 5405 1e72 1921     		movs	r1, #25
 5406 1e74 FFF7FEFF 		bl	leer_eeprom
 5407              	.LVL390:
 5408              	.L379:
1081:.\protocolo.c **** 					}
1082:.\protocolo.c ****                     if(dir==b.dir){
 5409              		.loc 1 1082 0
 5410 1e78 424B     		ldr	r3, .L661+16
 5411 1e7a 1B78     		ldrb	r3, [r3]	@ zero_extendqisi2
 5412 1e7c AB42     		cmp	r3, r5
 5413 1e7e 04D1     		bne	.L380
1083:.\protocolo.c **** 						leer_eeprom(1217,25);
 5414              		.loc 1 1083 0
 5415 1e80 40F2C140 		movw	r0, #1217
 5416 1e84 1921     		movs	r1, #25
 5417 1e86 FFF7FEFF 		bl	leer_eeprom
 5418              	.LVL391:
ARM GAS  C:\Users\diego\AppData\Local\Temp\ccvEcbYb.s 			page 120


 5419              	.L380:
1084:.\protocolo.c **** 					}
1085:.\protocolo.c ****                     if(dir==d.dir){
 5420              		.loc 1 1085 0
 5421 1e8a 3F4B     		ldr	r3, .L661+20
 5422 1e8c 1B78     		ldrb	r3, [r3]	@ zero_extendqisi2
 5423 1e8e AB42     		cmp	r3, r5
 5424 1e90 05D1     		bne	.L381
1086:.\protocolo.c **** 						leer_eeprom(1317,25);
 5425              		.loc 1 1086 0
 5426 1e92 40F22550 		movw	r0, #1317
 5427 1e96 1921     		movs	r1, #25
 5428 1e98 FFF7FEFF 		bl	leer_eeprom
 5429              	.LVL392:
 5430 1e9c 04E0     		b	.L382
 5431              	.L381:
1087:.\protocolo.c **** 					}
1088:.\protocolo.c **** 					else{
1089:.\protocolo.c **** 						leer_eeprom(320,25);
 5432              		.loc 1 1089 0
 5433 1e9e 4FF4A070 		mov	r0, #320
 5434 1ea2 1921     		movs	r1, #25
 5435 1ea4 FFF7FEFF 		bl	leer_eeprom
 5436              	.LVL393:
 5437              	.L382:
1090:.\protocolo.c **** 					}
1091:.\protocolo.c **** 					print_totales(val);
 5438              		.loc 1 1091 0
 5439 1ea8 2046     		mov	r0, r4
 5440 1eaa FFF7FEFF 		bl	print_totales
 5441              	.LVL394:
1092:.\protocolo.c **** 					for(z=1;z<=12;z++){
 5442              		.loc 1 1092 0
 5443 1eae 0122     		movs	r2, #1
 5444 1eb0 3D4B     		ldr	r3, .L661+52
 5445 1eb2 1A60     		str	r2, [r3]
 5446 1eb4 10E0     		b	.L383
 5447              	.L384:
1093:.\protocolo.c **** 						minuendo[z]=rventa.tdinero[z-1];
 5448              		.loc 1 1093 0 discriminator 3
 5449 1eb6 3D4A     		ldr	r2, .L661+56
 5450 1eb8 1A44     		add	r2, r2, r3
 5451 1eba 92F8CA10 		ldrb	r1, [r2, #202]	@ zero_extendqisi2
 5452 1ebe 10AA     		add	r2, sp, #64
 5453 1ec0 1A44     		add	r2, r2, r3
 5454 1ec2 02F82C1C 		strb	r1, [r2, #-44]
1094:.\protocolo.c **** 						sustraendo[z]=buffer_i2c[z+12];
 5455              		.loc 1 1094 0 discriminator 3
 5456 1ec6 03F10C01 		add	r1, r3, #12
 5457 1eca 3948     		ldr	r0, .L661+60
 5458 1ecc 415C     		ldrb	r1, [r0, r1]	@ zero_extendqisi2
 5459 1ece 02F83C1C 		strb	r1, [r2, #-60]
1092:.\protocolo.c **** 					for(z=1;z<=12;z++){
 5460              		.loc 1 1092 0 discriminator 3
 5461 1ed2 0133     		adds	r3, r3, #1
 5462 1ed4 344A     		ldr	r2, .L661+52
 5463 1ed6 1360     		str	r3, [r2]
ARM GAS  C:\Users\diego\AppData\Local\Temp\ccvEcbYb.s 			page 121


 5464              	.L383:
1092:.\protocolo.c **** 					for(z=1;z<=12;z++){
 5465              		.loc 1 1092 0 is_stmt 0 discriminator 1
 5466 1ed8 334B     		ldr	r3, .L661+52
 5467 1eda 1B68     		ldr	r3, [r3]
 5468 1edc 0C2B     		cmp	r3, #12
 5469 1ede EAD9     		bls	.L384
1095:.\protocolo.c **** 					}
1096:.\protocolo.c **** 					minuendo[0]=12;
 5470              		.loc 1 1096 0 is_stmt 1
 5471 1ee0 10A9     		add	r1, sp, #64
 5472 1ee2 0C23     		movs	r3, #12
 5473 1ee4 01F82C3D 		strb	r3, [r1, #-44]!
1097:.\protocolo.c **** 					operacion(2,minuendo,sustraendo);
 5474              		.loc 1 1097 0
 5475 1ee8 0220     		movs	r0, #2
 5476 1eea 01AA     		add	r2, sp, #4
 5477 1eec FFF7FEFF 		bl	operacion
 5478              	.LVL395:
1098:.\protocolo.c **** 					for(x=0;x<=17;x++){									
 5479              		.loc 1 1098 0
 5480 1ef0 0022     		movs	r2, #0
 5481 1ef2 214B     		ldr	r3, .L661+4
 5482 1ef4 1A60     		str	r2, [r3]
 5483 1ef6 0AE0     		b	.L385
 5484              	.L386:
1099:.\protocolo.c **** 						write_psoc1(val,msn_tventas[x]);				//Total de ventas
 5485              		.loc 1 1099 0 discriminator 3
 5486 1ef8 1E4A     		ldr	r2, .L661
 5487 1efa 1344     		add	r3, r3, r2
 5488 1efc 2046     		mov	r0, r4
 5489 1efe 93F82C10 		ldrb	r1, [r3, #44]	@ zero_extendqisi2
 5490 1f02 FFF7FEFF 		bl	write_psoc1
 5491              	.LVL396:
1098:.\protocolo.c **** 					for(x=0;x<=17;x++){									
 5492              		.loc 1 1098 0 discriminator 3
 5493 1f06 1C4A     		ldr	r2, .L661+4
 5494 1f08 1368     		ldr	r3, [r2]
 5495 1f0a 0133     		adds	r3, r3, #1
 5496 1f0c 1360     		str	r3, [r2]
 5497              	.L385:
1098:.\protocolo.c **** 					for(x=0;x<=17;x++){									
 5498              		.loc 1 1098 0 is_stmt 0 discriminator 1
 5499 1f0e 1A4B     		ldr	r3, .L661+4
 5500 1f10 1B68     		ldr	r3, [r3]
 5501 1f12 112B     		cmp	r3, #17
 5502 1f14 F0D9     		bls	.L386
1100:.\protocolo.c **** 					}
1101:.\protocolo.c **** 					print_valor(resultado,val);				
 5503              		.loc 1 1101 0 is_stmt 1
 5504 1f16 1948     		ldr	r0, .L661+8
 5505 1f18 2146     		mov	r1, r4
 5506 1f1a FFF7FEFF 		bl	print_valor
 5507              	.LVL397:
1102:.\protocolo.c **** 					if(dir==a.dir){
 5508              		.loc 1 1102 0
 5509 1f1e 184B     		ldr	r3, .L661+12
ARM GAS  C:\Users\diego\AppData\Local\Temp\ccvEcbYb.s 			page 122


 5510 1f20 1B78     		ldrb	r3, [r3]	@ zero_extendqisi2
 5511 1f22 AB42     		cmp	r3, r5
 5512 1f24 08D1     		bne	.L387
1103:.\protocolo.c **** 						write_eeprom(217,corte);
 5513              		.loc 1 1103 0
 5514 1f26 D920     		movs	r0, #217
 5515 1f28 09A9     		add	r1, sp, #36
 5516 1f2a FFF7FEFF 		bl	write_eeprom
 5517              	.LVL398:
1104:.\protocolo.c **** 						write_eeprom(538,resultado);
 5518              		.loc 1 1104 0
 5519 1f2e 40F21A20 		movw	r0, #538
 5520 1f32 1249     		ldr	r1, .L661+8
 5521 1f34 FFF7FEFF 		bl	write_eeprom
 5522              	.LVL399:
 5523              	.L387:
1105:.\protocolo.c **** 					}
1106:.\protocolo.c ****                     if(dir==b.dir){
 5524              		.loc 1 1106 0
 5525 1f38 124B     		ldr	r3, .L661+16
 5526 1f3a 1B78     		ldrb	r3, [r3]	@ zero_extendqisi2
 5527 1f3c AB42     		cmp	r3, r5
 5528 1f3e 09D1     		bne	.L388
1107:.\protocolo.c **** 						write_eeprom(1217,corte);
 5529              		.loc 1 1107 0
 5530 1f40 40F2C140 		movw	r0, #1217
 5531 1f44 09A9     		add	r1, sp, #36
 5532 1f46 FFF7FEFF 		bl	write_eeprom
 5533              	.LVL400:
1108:.\protocolo.c **** 						write_eeprom(1418,resultado);
 5534              		.loc 1 1108 0
 5535 1f4a 40F28A50 		movw	r0, #1418
 5536 1f4e 0B49     		ldr	r1, .L661+8
 5537 1f50 FFF7FEFF 		bl	write_eeprom
 5538              	.LVL401:
 5539              	.L388:
1109:.\protocolo.c **** 					}
1110:.\protocolo.c ****                     if(dir==d.dir){
 5540              		.loc 1 1110 0
 5541 1f54 0C4B     		ldr	r3, .L661+20
 5542 1f56 1B78     		ldrb	r3, [r3]	@ zero_extendqisi2
 5543 1f58 AB42     		cmp	r3, r5
 5544 1f5a 2BD1     		bne	.L389
1111:.\protocolo.c **** 						write_eeprom(1317,corte);
 5545              		.loc 1 1111 0
 5546 1f5c 40F22550 		movw	r0, #1317
 5547 1f60 09A9     		add	r1, sp, #36
 5548 1f62 FFF7FEFF 		bl	write_eeprom
 5549              	.LVL402:
1112:.\protocolo.c **** 						write_eeprom(1431,resultado);
 5550              		.loc 1 1112 0
 5551 1f66 40F29750 		movw	r0, #1431
 5552 1f6a 0449     		ldr	r1, .L661+8
 5553 1f6c FFF7FEFF 		bl	write_eeprom
 5554              	.LVL403:
 5555 1f70 2AE0     		b	.L370
 5556              	.L662:
ARM GAS  C:\Users\diego\AppData\Local\Temp\ccvEcbYb.s 			page 123


 5557 1f72 00BF     		.align	2
 5558              	.L661:
 5559 1f74 00000000 		.word	.LANCHOR1
 5560 1f78 00000000 		.word	x
 5561 1f7c 00000000 		.word	resultado
 5562 1f80 00000000 		.word	a
 5563 1f84 00000000 		.word	b
 5564 1f88 00000000 		.word	d
 5565 1f8c 00000000 		.word	rventa
 5566 1f90 00000000 		.word	producto2
 5567 1f94 00000000 		.word	producto2b
 5568 1f98 00000000 		.word	producto2d
 5569 1f9c 00000000 		.word	producto2c
 5570 1fa0 00000000 		.word	c
 5571 1fa4 00000000 		.word	producto2n
 5572 1fa8 00000000 		.word	z
 5573 1fac FFFFFFFF 		.word	rventa-1
 5574 1fb0 00000000 		.word	buffer_i2c
 5575              	.L389:
1113:.\protocolo.c **** 					}
1114:.\protocolo.c **** 					else{
1115:.\protocolo.c **** 						write_eeprom(320,corte);
 5576              		.loc 1 1115 0
 5577 1fb4 4FF4A070 		mov	r0, #320
 5578 1fb8 09A9     		add	r1, sp, #36
 5579 1fba FFF7FEFF 		bl	write_eeprom
 5580              	.LVL404:
1116:.\protocolo.c **** 						write_eeprom(576,resultado);
 5581              		.loc 1 1116 0
 5582 1fbe 4FF41070 		mov	r0, #576
 5583 1fc2 A649     		ldr	r1, .L663
 5584 1fc4 FFF7FEFF 		bl	write_eeprom
 5585              	.LVL405:
 5586              	.L370:
1117:.\protocolo.c **** 					}				
1118:.\protocolo.c **** 				}
1119:.\protocolo.c **** 				if(((rventa.manguera==(producto3&0x0F))&&(dir==a.dir))||((rventa.manguera==(producto3b&0x0F))&&
 5587              		.loc 1 1119 0
 5588 1fc8 A54B     		ldr	r3, .L663+4
 5589 1fca 93F8E030 		ldrb	r3, [r3, #224]	@ zero_extendqisi2
 5590 1fce A54A     		ldr	r2, .L663+8
 5591 1fd0 1278     		ldrb	r2, [r2]	@ zero_extendqisi2
 5592 1fd2 02F00F02 		and	r2, r2, #15
 5593 1fd6 9A42     		cmp	r2, r3
 5594 1fd8 03D1     		bne	.L390
 5595              		.loc 1 1119 0 is_stmt 0 discriminator 1
 5596 1fda A34A     		ldr	r2, .L663+12
 5597 1fdc 1278     		ldrb	r2, [r2]	@ zero_extendqisi2
 5598 1fde AA42     		cmp	r2, r5
 5599 1fe0 1FD0     		beq	.L391
 5600              	.L390:
 5601              		.loc 1 1119 0 discriminator 3
 5602 1fe2 A24A     		ldr	r2, .L663+16
 5603 1fe4 1278     		ldrb	r2, [r2]	@ zero_extendqisi2
 5604 1fe6 02F00F02 		and	r2, r2, #15
 5605 1fea 9342     		cmp	r3, r2
 5606 1fec 03D1     		bne	.L392
ARM GAS  C:\Users\diego\AppData\Local\Temp\ccvEcbYb.s 			page 124


 5607              		.loc 1 1119 0 discriminator 4
 5608 1fee A04A     		ldr	r2, .L663+20
 5609 1ff0 1278     		ldrb	r2, [r2]	@ zero_extendqisi2
 5610 1ff2 AA42     		cmp	r2, r5
 5611 1ff4 15D0     		beq	.L391
 5612              	.L392:
 5613              		.loc 1 1119 0 discriminator 6
 5614 1ff6 9F4A     		ldr	r2, .L663+24
 5615 1ff8 1278     		ldrb	r2, [r2]	@ zero_extendqisi2
 5616 1ffa 02F00F02 		and	r2, r2, #15
 5617 1ffe 9342     		cmp	r3, r2
 5618 2000 03D1     		bne	.L393
 5619              		.loc 1 1119 0 discriminator 7
 5620 2002 9D4A     		ldr	r2, .L663+28
 5621 2004 1278     		ldrb	r2, [r2]	@ zero_extendqisi2
 5622 2006 AA42     		cmp	r2, r5
 5623 2008 0BD0     		beq	.L391
 5624              	.L393:
 5625              		.loc 1 1119 0 discriminator 9
 5626 200a 9C4A     		ldr	r2, .L663+32
 5627 200c 1278     		ldrb	r2, [r2]	@ zero_extendqisi2
 5628 200e 02F00F02 		and	r2, r2, #15
 5629 2012 9342     		cmp	r3, r2
 5630 2014 40F0F080 		bne	.L394
 5631              		.loc 1 1119 0 discriminator 10
 5632 2018 994B     		ldr	r3, .L663+36
 5633 201a 1B78     		ldrb	r3, [r3]	@ zero_extendqisi2
 5634 201c AB42     		cmp	r3, r5
 5635 201e 40F0EB80 		bne	.L394
 5636              	.L391:
1120:.\protocolo.c **** 					for(x=0;x<=5;x++){									
 5637              		.loc 1 1120 0 is_stmt 1
 5638 2022 0022     		movs	r2, #0
 5639 2024 974B     		ldr	r3, .L663+40
 5640 2026 1A60     		str	r2, [r3]
 5641 2028 08E0     		b	.L395
 5642              	.L396:
1121:.\protocolo.c **** 						    write_psoc1(val,msn_tc[x]);
 5643              		.loc 1 1121 0 discriminator 3
 5644 202a 2046     		mov	r0, r4
 5645 202c 964A     		ldr	r2, .L663+44
 5646 202e D15C     		ldrb	r1, [r2, r3]	@ zero_extendqisi2
 5647 2030 FFF7FEFF 		bl	write_psoc1
 5648              	.LVL406:
1120:.\protocolo.c **** 					for(x=0;x<=5;x++){									
 5649              		.loc 1 1120 0 discriminator 3
 5650 2034 934A     		ldr	r2, .L663+40
 5651 2036 1368     		ldr	r3, [r2]
 5652 2038 0133     		adds	r3, r3, #1
 5653 203a 1360     		str	r3, [r2]
 5654              	.L395:
1120:.\protocolo.c **** 					for(x=0;x<=5;x++){									
 5655              		.loc 1 1120 0 is_stmt 0 discriminator 1
 5656 203c 914B     		ldr	r3, .L663+40
 5657 203e 1B68     		ldr	r3, [r3]
 5658 2040 052B     		cmp	r3, #5
 5659 2042 F2D9     		bls	.L396
ARM GAS  C:\Users\diego\AppData\Local\Temp\ccvEcbYb.s 			page 125


1122:.\protocolo.c **** 					    }
1123:.\protocolo.c **** 					    write_psoc1(val,10);
 5660              		.loc 1 1123 0 is_stmt 1
 5661 2044 2046     		mov	r0, r4
 5662 2046 0A21     		movs	r1, #10
 5663 2048 FFF7FEFF 		bl	write_psoc1
 5664              	.LVL407:
1124:.\protocolo.c ****                     for(x=0;x<=10;x++){									
 5665              		.loc 1 1124 0
 5666 204c 0022     		movs	r2, #0
 5667 204e 8D4B     		ldr	r3, .L663+40
 5668 2050 1A60     		str	r2, [r3]
 5669 2052 08E0     		b	.L397
 5670              	.L398:
1125:.\protocolo.c **** 						    write_psoc1(val,producto3n[x]);
 5671              		.loc 1 1125 0 discriminator 3
 5672 2054 2046     		mov	r0, r4
 5673 2056 8D4A     		ldr	r2, .L663+48
 5674 2058 D15C     		ldrb	r1, [r2, r3]	@ zero_extendqisi2
 5675 205a FFF7FEFF 		bl	write_psoc1
 5676              	.LVL408:
1124:.\protocolo.c ****                     for(x=0;x<=10;x++){									
 5677              		.loc 1 1124 0 discriminator 3
 5678 205e 894A     		ldr	r2, .L663+40
 5679 2060 1368     		ldr	r3, [r2]
 5680 2062 0133     		adds	r3, r3, #1
 5681 2064 1360     		str	r3, [r2]
 5682              	.L397:
1124:.\protocolo.c ****                     for(x=0;x<=10;x++){									
 5683              		.loc 1 1124 0 is_stmt 0 discriminator 1
 5684 2066 874B     		ldr	r3, .L663+40
 5685 2068 1B68     		ldr	r3, [r3]
 5686 206a 0A2B     		cmp	r3, #10
 5687 206c F2D9     		bls	.L398
1126:.\protocolo.c **** 					    }
1127:.\protocolo.c ****                     write_psoc1(val,10);
 5688              		.loc 1 1127 0 is_stmt 1
 5689 206e 2046     		mov	r0, r4
 5690 2070 0A21     		movs	r1, #10
 5691 2072 FFF7FEFF 		bl	write_psoc1
 5692              	.LVL409:
1128:.\protocolo.c **** 					for(x=0;x<=14;x++){									
 5693              		.loc 1 1128 0
 5694 2076 0022     		movs	r2, #0
 5695 2078 824B     		ldr	r3, .L663+40
 5696 207a 1A60     		str	r2, [r3]
 5697 207c 09E0     		b	.L399
 5698              	.L400:
1129:.\protocolo.c **** 						write_psoc1(val,msn_lecact[x]);				//LECTURA ACTUAL
 5699              		.loc 1 1129 0 discriminator 3
 5700 207e 824A     		ldr	r2, .L663+44
 5701 2080 1344     		add	r3, r3, r2
 5702 2082 2046     		mov	r0, r4
 5703 2084 197A     		ldrb	r1, [r3, #8]	@ zero_extendqisi2
 5704 2086 FFF7FEFF 		bl	write_psoc1
 5705              	.LVL410:
1128:.\protocolo.c **** 					for(x=0;x<=14;x++){									
ARM GAS  C:\Users\diego\AppData\Local\Temp\ccvEcbYb.s 			page 126


 5706              		.loc 1 1128 0 discriminator 3
 5707 208a 7E4A     		ldr	r2, .L663+40
 5708 208c 1368     		ldr	r3, [r2]
 5709 208e 0133     		adds	r3, r3, #1
 5710 2090 1360     		str	r3, [r2]
 5711              	.L399:
1128:.\protocolo.c **** 					for(x=0;x<=14;x++){									
 5712              		.loc 1 1128 0 is_stmt 0 discriminator 1
 5713 2092 7C4B     		ldr	r3, .L663+40
 5714 2094 1B68     		ldr	r3, [r3]
 5715 2096 0E2B     		cmp	r3, #14
 5716 2098 F1D9     		bls	.L400
1130:.\protocolo.c **** 					}
1131:.\protocolo.c **** 					write_psoc1(val,10);
 5717              		.loc 1 1131 0 is_stmt 1
 5718 209a 2046     		mov	r0, r4
 5719 209c 0A21     		movs	r1, #10
 5720 209e FFF7FEFF 		bl	write_psoc1
 5721              	.LVL411:
1132:.\protocolo.c **** 					print_totalesac(12,val);	
 5722              		.loc 1 1132 0
 5723 20a2 0C20     		movs	r0, #12
 5724 20a4 2146     		mov	r1, r4
 5725 20a6 FFF7FEFF 		bl	print_totalesac
 5726              	.LVL412:
1133:.\protocolo.c **** 					for(x=0;x<=16;x++){												
 5727              		.loc 1 1133 0
 5728 20aa 0022     		movs	r2, #0
 5729 20ac 754B     		ldr	r3, .L663+40
 5730 20ae 1A60     		str	r2, [r3]
 5731 20b0 09E0     		b	.L401
 5732              	.L402:
1134:.\protocolo.c **** 						write_psoc1(val,msn_lecaan[x]);				//LECTURA ANTERIOR
 5733              		.loc 1 1134 0 discriminator 3
 5734 20b2 754A     		ldr	r2, .L663+44
 5735 20b4 1344     		add	r3, r3, r2
 5736 20b6 2046     		mov	r0, r4
 5737 20b8 197E     		ldrb	r1, [r3, #24]	@ zero_extendqisi2
 5738 20ba FFF7FEFF 		bl	write_psoc1
 5739              	.LVL413:
1133:.\protocolo.c **** 					for(x=0;x<=16;x++){												
 5740              		.loc 1 1133 0 discriminator 3
 5741 20be 714A     		ldr	r2, .L663+40
 5742 20c0 1368     		ldr	r3, [r2]
 5743 20c2 0133     		adds	r3, r3, #1
 5744 20c4 1360     		str	r3, [r2]
 5745              	.L401:
1133:.\protocolo.c **** 					for(x=0;x<=16;x++){												
 5746              		.loc 1 1133 0 is_stmt 0 discriminator 1
 5747 20c6 6F4B     		ldr	r3, .L663+40
 5748 20c8 1B68     		ldr	r3, [r3]
 5749 20ca 102B     		cmp	r3, #16
 5750 20cc F1D9     		bls	.L402
1135:.\protocolo.c **** 					}
1136:.\protocolo.c **** 					write_psoc1(val,10);
 5751              		.loc 1 1136 0 is_stmt 1
 5752 20ce 2046     		mov	r0, r4
ARM GAS  C:\Users\diego\AppData\Local\Temp\ccvEcbYb.s 			page 127


 5753 20d0 0A21     		movs	r1, #10
 5754 20d2 FFF7FEFF 		bl	write_psoc1
 5755              	.LVL414:
1137:.\protocolo.c **** 					if(dir==a.dir){
 5756              		.loc 1 1137 0
 5757 20d6 644B     		ldr	r3, .L663+12
 5758 20d8 1B78     		ldrb	r3, [r3]	@ zero_extendqisi2
 5759 20da AB42     		cmp	r3, r5
 5760 20dc 04D1     		bne	.L403
1138:.\protocolo.c **** 						leer_eeprom(256,25);
 5761              		.loc 1 1138 0
 5762 20de 4FF48070 		mov	r0, #256
 5763 20e2 1921     		movs	r1, #25
 5764 20e4 FFF7FEFF 		bl	leer_eeprom
 5765              	.LVL415:
 5766              	.L403:
1139:.\protocolo.c **** 					}
1140:.\protocolo.c ****                     if(dir==b.dir){
 5767              		.loc 1 1140 0
 5768 20e8 614B     		ldr	r3, .L663+20
 5769 20ea 1B78     		ldrb	r3, [r3]	@ zero_extendqisi2
 5770 20ec AB42     		cmp	r3, r5
 5771 20ee 04D1     		bne	.L404
1141:.\protocolo.c **** 						leer_eeprom(1342,25);
 5772              		.loc 1 1141 0
 5773 20f0 40F23E50 		movw	r0, #1342
 5774 20f4 1921     		movs	r1, #25
 5775 20f6 FFF7FEFF 		bl	leer_eeprom
 5776              	.LVL416:
 5777              	.L404:
1142:.\protocolo.c **** 					}
1143:.\protocolo.c ****                     if(dir==d.dir){
 5778              		.loc 1 1143 0
 5779 20fa 614B     		ldr	r3, .L663+36
 5780 20fc 1B78     		ldrb	r3, [r3]	@ zero_extendqisi2
 5781 20fe AB42     		cmp	r3, r5
 5782 2100 05D1     		bne	.L405
1144:.\protocolo.c **** 						leer_eeprom(1242,25);
 5783              		.loc 1 1144 0
 5784 2102 40F2DA40 		movw	r0, #1242
 5785 2106 1921     		movs	r1, #25
 5786 2108 FFF7FEFF 		bl	leer_eeprom
 5787              	.LVL417:
 5788 210c 04E0     		b	.L406
 5789              	.L405:
1145:.\protocolo.c **** 					}
1146:.\protocolo.c **** 					else{
1147:.\protocolo.c **** 						leer_eeprom(345,25);
 5790              		.loc 1 1147 0
 5791 210e 40F25910 		movw	r0, #345
 5792 2112 1921     		movs	r1, #25
 5793 2114 FFF7FEFF 		bl	leer_eeprom
 5794              	.LVL418:
 5795              	.L406:
1148:.\protocolo.c **** 					}
1149:.\protocolo.c **** 					print_totales(val);
 5796              		.loc 1 1149 0
ARM GAS  C:\Users\diego\AppData\Local\Temp\ccvEcbYb.s 			page 128


 5797 2118 2046     		mov	r0, r4
 5798 211a FFF7FEFF 		bl	print_totales
 5799              	.LVL419:
1150:.\protocolo.c **** 					for(z=1;z<=12;z++){
 5800              		.loc 1 1150 0
 5801 211e 0122     		movs	r2, #1
 5802 2120 5B4B     		ldr	r3, .L663+52
 5803 2122 1A60     		str	r2, [r3]
 5804 2124 10E0     		b	.L407
 5805              	.L408:
1151:.\protocolo.c **** 						minuendo[z]=rventa.tdinero[z-1];
 5806              		.loc 1 1151 0 discriminator 3
 5807 2126 5B4A     		ldr	r2, .L663+56
 5808 2128 1A44     		add	r2, r2, r3
 5809 212a 92F8CA10 		ldrb	r1, [r2, #202]	@ zero_extendqisi2
 5810 212e 10AA     		add	r2, sp, #64
 5811 2130 1A44     		add	r2, r2, r3
 5812 2132 02F82C1C 		strb	r1, [r2, #-44]
1152:.\protocolo.c **** 						sustraendo[z]=buffer_i2c[z+12];
 5813              		.loc 1 1152 0 discriminator 3
 5814 2136 03F10C01 		add	r1, r3, #12
 5815 213a 5748     		ldr	r0, .L663+60
 5816 213c 415C     		ldrb	r1, [r0, r1]	@ zero_extendqisi2
 5817 213e 02F83C1C 		strb	r1, [r2, #-60]
1150:.\protocolo.c **** 					for(z=1;z<=12;z++){
 5818              		.loc 1 1150 0 discriminator 3
 5819 2142 0133     		adds	r3, r3, #1
 5820 2144 524A     		ldr	r2, .L663+52
 5821 2146 1360     		str	r3, [r2]
 5822              	.L407:
1150:.\protocolo.c **** 					for(z=1;z<=12;z++){
 5823              		.loc 1 1150 0 is_stmt 0 discriminator 1
 5824 2148 514B     		ldr	r3, .L663+52
 5825 214a 1B68     		ldr	r3, [r3]
 5826 214c 0C2B     		cmp	r3, #12
 5827 214e EAD9     		bls	.L408
1153:.\protocolo.c **** 					}
1154:.\protocolo.c **** 					minuendo[0]=12;
 5828              		.loc 1 1154 0 is_stmt 1
 5829 2150 10A9     		add	r1, sp, #64
 5830 2152 0C23     		movs	r3, #12
 5831 2154 01F82C3D 		strb	r3, [r1, #-44]!
1155:.\protocolo.c **** 					operacion(2,minuendo,sustraendo);
 5832              		.loc 1 1155 0
 5833 2158 0220     		movs	r0, #2
 5834 215a 01AA     		add	r2, sp, #4
 5835 215c FFF7FEFF 		bl	operacion
 5836              	.LVL420:
1156:.\protocolo.c **** 					for(x=0;x<=17;x++){									
 5837              		.loc 1 1156 0
 5838 2160 0022     		movs	r2, #0
 5839 2162 484B     		ldr	r3, .L663+40
 5840 2164 1A60     		str	r2, [r3]
 5841 2166 0AE0     		b	.L409
 5842              	.L410:
1157:.\protocolo.c **** 						write_psoc1(val,msn_tventas[x]);				//Total de ventas
 5843              		.loc 1 1157 0 discriminator 3
ARM GAS  C:\Users\diego\AppData\Local\Temp\ccvEcbYb.s 			page 129


 5844 2168 474A     		ldr	r2, .L663+44
 5845 216a 1344     		add	r3, r3, r2
 5846 216c 2046     		mov	r0, r4
 5847 216e 93F82C10 		ldrb	r1, [r3, #44]	@ zero_extendqisi2
 5848 2172 FFF7FEFF 		bl	write_psoc1
 5849              	.LVL421:
1156:.\protocolo.c **** 					for(x=0;x<=17;x++){									
 5850              		.loc 1 1156 0 discriminator 3
 5851 2176 434A     		ldr	r2, .L663+40
 5852 2178 1368     		ldr	r3, [r2]
 5853 217a 0133     		adds	r3, r3, #1
 5854 217c 1360     		str	r3, [r2]
 5855              	.L409:
1156:.\protocolo.c **** 					for(x=0;x<=17;x++){									
 5856              		.loc 1 1156 0 is_stmt 0 discriminator 1
 5857 217e 414B     		ldr	r3, .L663+40
 5858 2180 1B68     		ldr	r3, [r3]
 5859 2182 112B     		cmp	r3, #17
 5860 2184 F0D9     		bls	.L410
1158:.\protocolo.c **** 					}
1159:.\protocolo.c **** 					print_valor(resultado,val);							
 5861              		.loc 1 1159 0 is_stmt 1
 5862 2186 3548     		ldr	r0, .L663
 5863 2188 2146     		mov	r1, r4
 5864 218a FFF7FEFF 		bl	print_valor
 5865              	.LVL422:
1160:.\protocolo.c **** 					if(dir==a.dir){
 5866              		.loc 1 1160 0
 5867 218e 364B     		ldr	r3, .L663+12
 5868 2190 1B78     		ldrb	r3, [r3]	@ zero_extendqisi2
 5869 2192 AB42     		cmp	r3, r5
 5870 2194 09D1     		bne	.L411
1161:.\protocolo.c **** 						write_eeprom(256,corte);
 5871              		.loc 1 1161 0
 5872 2196 4FF48070 		mov	r0, #256
 5873 219a 09A9     		add	r1, sp, #36
 5874 219c FFF7FEFF 		bl	write_eeprom
 5875              	.LVL423:
1162:.\protocolo.c **** 						write_eeprom(525,resultado);
 5876              		.loc 1 1162 0
 5877 21a0 40F20D20 		movw	r0, #525
 5878 21a4 2D49     		ldr	r1, .L663
 5879 21a6 FFF7FEFF 		bl	write_eeprom
 5880              	.LVL424:
 5881              	.L411:
1163:.\protocolo.c **** 					}
1164:.\protocolo.c ****                     if(dir==b.dir){
 5882              		.loc 1 1164 0
 5883 21aa 314B     		ldr	r3, .L663+20
 5884 21ac 1B78     		ldrb	r3, [r3]	@ zero_extendqisi2
 5885 21ae AB42     		cmp	r3, r5
 5886 21b0 09D1     		bne	.L412
1165:.\protocolo.c **** 						write_eeprom(1342,corte);
 5887              		.loc 1 1165 0
 5888 21b2 40F23E50 		movw	r0, #1342
 5889 21b6 09A9     		add	r1, sp, #36
 5890 21b8 FFF7FEFF 		bl	write_eeprom
ARM GAS  C:\Users\diego\AppData\Local\Temp\ccvEcbYb.s 			page 130


 5891              	.LVL425:
1166:.\protocolo.c **** 						write_eeprom(1443,resultado);
 5892              		.loc 1 1166 0
 5893 21bc 40F2A350 		movw	r0, #1443
 5894 21c0 2649     		ldr	r1, .L663
 5895 21c2 FFF7FEFF 		bl	write_eeprom
 5896              	.LVL426:
 5897              	.L412:
1167:.\protocolo.c **** 					}
1168:.\protocolo.c ****                     if(dir==d.dir){
 5898              		.loc 1 1168 0
 5899 21c6 2E4B     		ldr	r3, .L663+36
 5900 21c8 1B78     		ldrb	r3, [r3]	@ zero_extendqisi2
 5901 21ca AB42     		cmp	r3, r5
 5902 21cc 0AD1     		bne	.L413
1169:.\protocolo.c **** 						write_eeprom(1242,corte);
 5903              		.loc 1 1169 0
 5904 21ce 40F2DA40 		movw	r0, #1242
 5905 21d2 09A9     		add	r1, sp, #36
 5906 21d4 FFF7FEFF 		bl	write_eeprom
 5907              	.LVL427:
1170:.\protocolo.c **** 						write_eeprom(1456,resultado);
 5908              		.loc 1 1170 0
 5909 21d8 4FF4B660 		mov	r0, #1456
 5910 21dc 1F49     		ldr	r1, .L663
 5911 21de FFF7FEFF 		bl	write_eeprom
 5912              	.LVL428:
 5913 21e2 09E0     		b	.L394
 5914              	.L413:
1171:.\protocolo.c **** 					}
1172:.\protocolo.c **** 					else{
1173:.\protocolo.c **** 						write_eeprom(345,corte);
 5915              		.loc 1 1173 0
 5916 21e4 40F25910 		movw	r0, #345
 5917 21e8 09A9     		add	r1, sp, #36
 5918 21ea FFF7FEFF 		bl	write_eeprom
 5919              	.LVL429:
1174:.\protocolo.c **** 						write_eeprom(589,resultado);
 5920              		.loc 1 1174 0
 5921 21ee 40F24D20 		movw	r0, #589
 5922 21f2 1A49     		ldr	r1, .L663
 5923 21f4 FFF7FEFF 		bl	write_eeprom
 5924              	.LVL430:
 5925              	.L394:
1175:.\protocolo.c **** 					}					
1176:.\protocolo.c **** 				}
1177:.\protocolo.c ****                 
1178:.\protocolo.c ****                 if(((rventa.manguera==(producto4&0x0F))&&(dir==a.dir))||((rventa.manguera==(product
 5926              		.loc 1 1178 0
 5927 21f8 194B     		ldr	r3, .L663+4
 5928 21fa 93F8E030 		ldrb	r3, [r3, #224]	@ zero_extendqisi2
 5929 21fe 274A     		ldr	r2, .L663+64
 5930 2200 1278     		ldrb	r2, [r2]	@ zero_extendqisi2
 5931 2202 02F00F02 		and	r2, r2, #15
 5932 2206 9A42     		cmp	r2, r3
 5933 2208 03D1     		bne	.L414
 5934              		.loc 1 1178 0 is_stmt 0 discriminator 1
ARM GAS  C:\Users\diego\AppData\Local\Temp\ccvEcbYb.s 			page 131


 5935 220a 174A     		ldr	r2, .L663+12
 5936 220c 1278     		ldrb	r2, [r2]	@ zero_extendqisi2
 5937 220e AA42     		cmp	r2, r5
 5938 2210 1FD0     		beq	.L415
 5939              	.L414:
 5940              		.loc 1 1178 0 discriminator 3
 5941 2212 234A     		ldr	r2, .L663+68
 5942 2214 1278     		ldrb	r2, [r2]	@ zero_extendqisi2
 5943 2216 02F00F02 		and	r2, r2, #15
 5944 221a 9342     		cmp	r3, r2
 5945 221c 03D1     		bne	.L416
 5946              		.loc 1 1178 0 discriminator 4
 5947 221e 144A     		ldr	r2, .L663+20
 5948 2220 1278     		ldrb	r2, [r2]	@ zero_extendqisi2
 5949 2222 AA42     		cmp	r2, r5
 5950 2224 15D0     		beq	.L415
 5951              	.L416:
 5952              		.loc 1 1178 0 discriminator 6
 5953 2226 1F4A     		ldr	r2, .L663+72
 5954 2228 1278     		ldrb	r2, [r2]	@ zero_extendqisi2
 5955 222a 02F00F02 		and	r2, r2, #15
 5956 222e 9342     		cmp	r3, r2
 5957 2230 03D1     		bne	.L417
 5958              		.loc 1 1178 0 discriminator 7
 5959 2232 114A     		ldr	r2, .L663+28
 5960 2234 1278     		ldrb	r2, [r2]	@ zero_extendqisi2
 5961 2236 AA42     		cmp	r2, r5
 5962 2238 0BD0     		beq	.L415
 5963              	.L417:
 5964              		.loc 1 1178 0 discriminator 9
 5965 223a 1B4A     		ldr	r2, .L663+76
 5966 223c 1278     		ldrb	r2, [r2]	@ zero_extendqisi2
 5967 223e 02F00F02 		and	r2, r2, #15
 5968 2242 9342     		cmp	r3, r2
 5969 2244 40F01981 		bne	.L418
 5970              		.loc 1 1178 0 discriminator 10
 5971 2248 0D4B     		ldr	r3, .L663+36
 5972 224a 1B78     		ldrb	r3, [r3]	@ zero_extendqisi2
 5973 224c AB42     		cmp	r3, r5
 5974 224e 40F01481 		bne	.L418
 5975              	.L415:
1179:.\protocolo.c **** 					for(x=0;x<=5;x++){									
 5976              		.loc 1 1179 0 is_stmt 1
 5977 2252 0022     		movs	r2, #0
 5978 2254 0B4B     		ldr	r3, .L663+40
 5979 2256 1A60     		str	r2, [r3]
 5980 2258 31E0     		b	.L419
 5981              	.L664:
 5982 225a 00BF     		.align	2
 5983              	.L663:
 5984 225c 00000000 		.word	resultado
 5985 2260 00000000 		.word	rventa
 5986 2264 00000000 		.word	producto3
 5987 2268 00000000 		.word	a
 5988 226c 00000000 		.word	producto3b
 5989 2270 00000000 		.word	b
 5990 2274 00000000 		.word	producto3c
ARM GAS  C:\Users\diego\AppData\Local\Temp\ccvEcbYb.s 			page 132


 5991 2278 00000000 		.word	c
 5992 227c 00000000 		.word	producto3d
 5993 2280 00000000 		.word	d
 5994 2284 00000000 		.word	x
 5995 2288 00000000 		.word	.LANCHOR1
 5996 228c 00000000 		.word	producto3n
 5997 2290 00000000 		.word	z
 5998 2294 FFFFFFFF 		.word	rventa-1
 5999 2298 00000000 		.word	buffer_i2c
 6000 229c 00000000 		.word	producto4
 6001 22a0 00000000 		.word	producto4b
 6002 22a4 00000000 		.word	producto4c
 6003 22a8 00000000 		.word	producto4d
 6004              	.L420:
1180:.\protocolo.c **** 						    write_psoc1(val,msn_tc[x]);
 6005              		.loc 1 1180 0 discriminator 3
 6006 22ac 2046     		mov	r0, r4
 6007 22ae A94A     		ldr	r2, .L665
 6008 22b0 D15C     		ldrb	r1, [r2, r3]	@ zero_extendqisi2
 6009 22b2 FFF7FEFF 		bl	write_psoc1
 6010              	.LVL431:
1179:.\protocolo.c **** 					for(x=0;x<=5;x++){									
 6011              		.loc 1 1179 0 discriminator 3
 6012 22b6 A84A     		ldr	r2, .L665+4
 6013 22b8 1368     		ldr	r3, [r2]
 6014 22ba 0133     		adds	r3, r3, #1
 6015 22bc 1360     		str	r3, [r2]
 6016              	.L419:
1179:.\protocolo.c **** 					for(x=0;x<=5;x++){									
 6017              		.loc 1 1179 0 is_stmt 0 discriminator 1
 6018 22be A64B     		ldr	r3, .L665+4
 6019 22c0 1B68     		ldr	r3, [r3]
 6020 22c2 052B     		cmp	r3, #5
 6021 22c4 F2D9     		bls	.L420
1181:.\protocolo.c **** 					    }
1182:.\protocolo.c **** 					    write_psoc1(val,10);
 6022              		.loc 1 1182 0 is_stmt 1
 6023 22c6 2046     		mov	r0, r4
 6024 22c8 0A21     		movs	r1, #10
 6025 22ca FFF7FEFF 		bl	write_psoc1
 6026              	.LVL432:
1183:.\protocolo.c ****                     for(x=0;x<=10;x++){									
 6027              		.loc 1 1183 0
 6028 22ce 0022     		movs	r2, #0
 6029 22d0 A14B     		ldr	r3, .L665+4
 6030 22d2 1A60     		str	r2, [r3]
 6031 22d4 08E0     		b	.L421
 6032              	.L422:
1184:.\protocolo.c **** 						    write_psoc1(val,producto4n[x]);
 6033              		.loc 1 1184 0 discriminator 3
 6034 22d6 2046     		mov	r0, r4
 6035 22d8 A04A     		ldr	r2, .L665+8
 6036 22da D15C     		ldrb	r1, [r2, r3]	@ zero_extendqisi2
 6037 22dc FFF7FEFF 		bl	write_psoc1
 6038              	.LVL433:
1183:.\protocolo.c ****                     for(x=0;x<=10;x++){									
 6039              		.loc 1 1183 0 discriminator 3
ARM GAS  C:\Users\diego\AppData\Local\Temp\ccvEcbYb.s 			page 133


 6040 22e0 9D4A     		ldr	r2, .L665+4
 6041 22e2 1368     		ldr	r3, [r2]
 6042 22e4 0133     		adds	r3, r3, #1
 6043 22e6 1360     		str	r3, [r2]
 6044              	.L421:
1183:.\protocolo.c ****                     for(x=0;x<=10;x++){									
 6045              		.loc 1 1183 0 is_stmt 0 discriminator 1
 6046 22e8 9B4B     		ldr	r3, .L665+4
 6047 22ea 1B68     		ldr	r3, [r3]
 6048 22ec 0A2B     		cmp	r3, #10
 6049 22ee F2D9     		bls	.L422
1185:.\protocolo.c **** 					    }
1186:.\protocolo.c ****                     write_psoc1(val,10);
 6050              		.loc 1 1186 0 is_stmt 1
 6051 22f0 2046     		mov	r0, r4
 6052 22f2 0A21     		movs	r1, #10
 6053 22f4 FFF7FEFF 		bl	write_psoc1
 6054              	.LVL434:
1187:.\protocolo.c **** 					for(x=0;x<=14;x++){									
 6055              		.loc 1 1187 0
 6056 22f8 0022     		movs	r2, #0
 6057 22fa 974B     		ldr	r3, .L665+4
 6058 22fc 1A60     		str	r2, [r3]
 6059 22fe 09E0     		b	.L423
 6060              	.L424:
1188:.\protocolo.c **** 						write_psoc1(val,msn_lecact[x]);				//LECTURA ACTUAL
 6061              		.loc 1 1188 0 discriminator 3
 6062 2300 944A     		ldr	r2, .L665
 6063 2302 1344     		add	r3, r3, r2
 6064 2304 2046     		mov	r0, r4
 6065 2306 197A     		ldrb	r1, [r3, #8]	@ zero_extendqisi2
 6066 2308 FFF7FEFF 		bl	write_psoc1
 6067              	.LVL435:
1187:.\protocolo.c **** 					for(x=0;x<=14;x++){									
 6068              		.loc 1 1187 0 discriminator 3
 6069 230c 924A     		ldr	r2, .L665+4
 6070 230e 1368     		ldr	r3, [r2]
 6071 2310 0133     		adds	r3, r3, #1
 6072 2312 1360     		str	r3, [r2]
 6073              	.L423:
1187:.\protocolo.c **** 					for(x=0;x<=14;x++){									
 6074              		.loc 1 1187 0 is_stmt 0 discriminator 1
 6075 2314 904B     		ldr	r3, .L665+4
 6076 2316 1B68     		ldr	r3, [r3]
 6077 2318 0E2B     		cmp	r3, #14
 6078 231a F1D9     		bls	.L424
1189:.\protocolo.c **** 					}
1190:.\protocolo.c **** 					write_psoc1(val,10);
 6079              		.loc 1 1190 0 is_stmt 1
 6080 231c 2046     		mov	r0, r4
 6081 231e 0A21     		movs	r1, #10
 6082 2320 FFF7FEFF 		bl	write_psoc1
 6083              	.LVL436:
1191:.\protocolo.c **** 					print_totalesac(12,val);	
 6084              		.loc 1 1191 0
 6085 2324 0C20     		movs	r0, #12
 6086 2326 2146     		mov	r1, r4
ARM GAS  C:\Users\diego\AppData\Local\Temp\ccvEcbYb.s 			page 134


 6087 2328 FFF7FEFF 		bl	print_totalesac
 6088              	.LVL437:
1192:.\protocolo.c **** 					for(x=0;x<=16;x++){												
 6089              		.loc 1 1192 0
 6090 232c 0022     		movs	r2, #0
 6091 232e 8A4B     		ldr	r3, .L665+4
 6092 2330 1A60     		str	r2, [r3]
 6093 2332 09E0     		b	.L425
 6094              	.L426:
1193:.\protocolo.c **** 						write_psoc1(val,msn_lecaan[x]);				//LECTURA ANTERIOR
 6095              		.loc 1 1193 0 discriminator 3
 6096 2334 874A     		ldr	r2, .L665
 6097 2336 1344     		add	r3, r3, r2
 6098 2338 2046     		mov	r0, r4
 6099 233a 197E     		ldrb	r1, [r3, #24]	@ zero_extendqisi2
 6100 233c FFF7FEFF 		bl	write_psoc1
 6101              	.LVL438:
1192:.\protocolo.c **** 					for(x=0;x<=16;x++){												
 6102              		.loc 1 1192 0 discriminator 3
 6103 2340 854A     		ldr	r2, .L665+4
 6104 2342 1368     		ldr	r3, [r2]
 6105 2344 0133     		adds	r3, r3, #1
 6106 2346 1360     		str	r3, [r2]
 6107              	.L425:
1192:.\protocolo.c **** 					for(x=0;x<=16;x++){												
 6108              		.loc 1 1192 0 is_stmt 0 discriminator 1
 6109 2348 834B     		ldr	r3, .L665+4
 6110 234a 1B68     		ldr	r3, [r3]
 6111 234c 102B     		cmp	r3, #16
 6112 234e F1D9     		bls	.L426
1194:.\protocolo.c **** 					}
1195:.\protocolo.c **** 					write_psoc1(val,10);
 6113              		.loc 1 1195 0 is_stmt 1
 6114 2350 2046     		mov	r0, r4
 6115 2352 0A21     		movs	r1, #10
 6116 2354 FFF7FEFF 		bl	write_psoc1
 6117              	.LVL439:
1196:.\protocolo.c **** 					if(dir==a.dir){
 6118              		.loc 1 1196 0
 6119 2358 814B     		ldr	r3, .L665+12
 6120 235a 1B78     		ldrb	r3, [r3]	@ zero_extendqisi2
 6121 235c AB42     		cmp	r3, r5
 6122 235e 04D1     		bne	.L427
1197:.\protocolo.c **** 						leer_eeprom(1096,25);
 6123              		.loc 1 1197 0
 6124 2360 4FF48960 		mov	r0, #1096
 6125 2364 1921     		movs	r1, #25
 6126 2366 FFF7FEFF 		bl	leer_eeprom
 6127              	.LVL440:
 6128              	.L427:
1198:.\protocolo.c **** 					}
1199:.\protocolo.c ****                     if(dir==b.dir){
 6129              		.loc 1 1199 0
 6130 236a 7E4B     		ldr	r3, .L665+16
 6131 236c 1B78     		ldrb	r3, [r3]	@ zero_extendqisi2
 6132 236e AB42     		cmp	r3, r5
 6133 2370 04D1     		bne	.L428
ARM GAS  C:\Users\diego\AppData\Local\Temp\ccvEcbYb.s 			page 135


1200:.\protocolo.c **** 						leer_eeprom(1267,25);
 6134              		.loc 1 1200 0
 6135 2372 40F2F340 		movw	r0, #1267
 6136 2376 1921     		movs	r1, #25
 6137 2378 FFF7FEFF 		bl	leer_eeprom
 6138              	.LVL441:
 6139              	.L428:
1201:.\protocolo.c **** 					}
1202:.\protocolo.c ****                     if(dir==d.dir){
 6140              		.loc 1 1202 0
 6141 237c 7A4B     		ldr	r3, .L665+20
 6142 237e 1B78     		ldrb	r3, [r3]	@ zero_extendqisi2
 6143 2380 AB42     		cmp	r3, r5
 6144 2382 05D1     		bne	.L429
1203:.\protocolo.c **** 						leer_eeprom(1367,25);
 6145              		.loc 1 1203 0
 6146 2384 40F25750 		movw	r0, #1367
 6147 2388 1921     		movs	r1, #25
 6148 238a FFF7FEFF 		bl	leer_eeprom
 6149              	.LVL442:
 6150 238e 04E0     		b	.L430
 6151              	.L429:
1204:.\protocolo.c **** 					}
1205:.\protocolo.c **** 					else{
1206:.\protocolo.c **** 						leer_eeprom(1054,25);
 6152              		.loc 1 1206 0
 6153 2390 40F21E40 		movw	r0, #1054
 6154 2394 1921     		movs	r1, #25
 6155 2396 FFF7FEFF 		bl	leer_eeprom
 6156              	.LVL443:
 6157              	.L430:
1207:.\protocolo.c **** 					}
1208:.\protocolo.c **** 					print_totales(val);
 6158              		.loc 1 1208 0
 6159 239a 2046     		mov	r0, r4
 6160 239c FFF7FEFF 		bl	print_totales
 6161              	.LVL444:
1209:.\protocolo.c **** 					for(z=1;z<=12;z++){
 6162              		.loc 1 1209 0
 6163 23a0 0122     		movs	r2, #1
 6164 23a2 724B     		ldr	r3, .L665+24
 6165 23a4 1A60     		str	r2, [r3]
 6166 23a6 10E0     		b	.L431
 6167              	.L432:
1210:.\protocolo.c **** 						minuendo[z]=rventa.tdinero[z-1];
 6168              		.loc 1 1210 0 discriminator 3
 6169 23a8 714A     		ldr	r2, .L665+28
 6170 23aa 1A44     		add	r2, r2, r3
 6171 23ac 92F8CA10 		ldrb	r1, [r2, #202]	@ zero_extendqisi2
 6172 23b0 10AA     		add	r2, sp, #64
 6173 23b2 1A44     		add	r2, r2, r3
 6174 23b4 02F82C1C 		strb	r1, [r2, #-44]
1211:.\protocolo.c **** 						sustraendo[z]=buffer_i2c[z+12];
 6175              		.loc 1 1211 0 discriminator 3
 6176 23b8 03F10C01 		add	r1, r3, #12
 6177 23bc 6D48     		ldr	r0, .L665+32
 6178 23be 415C     		ldrb	r1, [r0, r1]	@ zero_extendqisi2
ARM GAS  C:\Users\diego\AppData\Local\Temp\ccvEcbYb.s 			page 136


 6179 23c0 02F83C1C 		strb	r1, [r2, #-60]
1209:.\protocolo.c **** 					for(z=1;z<=12;z++){
 6180              		.loc 1 1209 0 discriminator 3
 6181 23c4 0133     		adds	r3, r3, #1
 6182 23c6 694A     		ldr	r2, .L665+24
 6183 23c8 1360     		str	r3, [r2]
 6184              	.L431:
1209:.\protocolo.c **** 					for(z=1;z<=12;z++){
 6185              		.loc 1 1209 0 is_stmt 0 discriminator 1
 6186 23ca 684B     		ldr	r3, .L665+24
 6187 23cc 1B68     		ldr	r3, [r3]
 6188 23ce 0C2B     		cmp	r3, #12
 6189 23d0 EAD9     		bls	.L432
1212:.\protocolo.c **** 					}
1213:.\protocolo.c **** 					minuendo[0]=12;
 6190              		.loc 1 1213 0 is_stmt 1
 6191 23d2 10A9     		add	r1, sp, #64
 6192 23d4 0C23     		movs	r3, #12
 6193 23d6 01F82C3D 		strb	r3, [r1, #-44]!
1214:.\protocolo.c **** 					operacion(2,minuendo,sustraendo);
 6194              		.loc 1 1214 0
 6195 23da 0220     		movs	r0, #2
 6196 23dc 01AA     		add	r2, sp, #4
 6197 23de FFF7FEFF 		bl	operacion
 6198              	.LVL445:
1215:.\protocolo.c **** 					for(x=0;x<=17;x++){									
 6199              		.loc 1 1215 0
 6200 23e2 0022     		movs	r2, #0
 6201 23e4 5C4B     		ldr	r3, .L665+4
 6202 23e6 1A60     		str	r2, [r3]
 6203 23e8 0AE0     		b	.L433
 6204              	.L434:
1216:.\protocolo.c **** 						write_psoc1(val,msn_tventas[x]);				//Total de ventas
 6205              		.loc 1 1216 0 discriminator 3
 6206 23ea 5A4A     		ldr	r2, .L665
 6207 23ec 1344     		add	r3, r3, r2
 6208 23ee 2046     		mov	r0, r4
 6209 23f0 93F82C10 		ldrb	r1, [r3, #44]	@ zero_extendqisi2
 6210 23f4 FFF7FEFF 		bl	write_psoc1
 6211              	.LVL446:
1215:.\protocolo.c **** 					for(x=0;x<=17;x++){									
 6212              		.loc 1 1215 0 discriminator 3
 6213 23f8 574A     		ldr	r2, .L665+4
 6214 23fa 1368     		ldr	r3, [r2]
 6215 23fc 0133     		adds	r3, r3, #1
 6216 23fe 1360     		str	r3, [r2]
 6217              	.L433:
1215:.\protocolo.c **** 					for(x=0;x<=17;x++){									
 6218              		.loc 1 1215 0 is_stmt 0 discriminator 1
 6219 2400 554B     		ldr	r3, .L665+4
 6220 2402 1B68     		ldr	r3, [r3]
 6221 2404 112B     		cmp	r3, #17
 6222 2406 F0D9     		bls	.L434
1217:.\protocolo.c **** 					}
1218:.\protocolo.c **** 					print_valor(resultado,val);							
 6223              		.loc 1 1218 0 is_stmt 1
 6224 2408 5B48     		ldr	r0, .L665+36
ARM GAS  C:\Users\diego\AppData\Local\Temp\ccvEcbYb.s 			page 137


 6225 240a 2146     		mov	r1, r4
 6226 240c FFF7FEFF 		bl	print_valor
 6227              	.LVL447:
1219:.\protocolo.c **** 					if(dir==a.dir){
 6228              		.loc 1 1219 0
 6229 2410 534B     		ldr	r3, .L665+12
 6230 2412 1B78     		ldrb	r3, [r3]	@ zero_extendqisi2
 6231 2414 AB42     		cmp	r3, r5
 6232 2416 09D1     		bne	.L435
1220:.\protocolo.c **** 						write_eeprom(1096,corte);
 6233              		.loc 1 1220 0
 6234 2418 4FF48960 		mov	r0, #1096
 6235 241c 09A9     		add	r1, sp, #36
 6236 241e FFF7FEFF 		bl	write_eeprom
 6237              	.LVL448:
1221:.\protocolo.c **** 						write_eeprom(1038,resultado);
 6238              		.loc 1 1221 0
 6239 2422 40F20E40 		movw	r0, #1038
 6240 2426 5449     		ldr	r1, .L665+36
 6241 2428 FFF7FEFF 		bl	write_eeprom
 6242              	.LVL449:
 6243              	.L435:
1222:.\protocolo.c **** 					}
1223:.\protocolo.c ****                     if(dir==b.dir){
 6244              		.loc 1 1223 0
 6245 242c 4D4B     		ldr	r3, .L665+16
 6246 242e 1B78     		ldrb	r3, [r3]	@ zero_extendqisi2
 6247 2430 AB42     		cmp	r3, r5
 6248 2432 09D1     		bne	.L436
1224:.\protocolo.c **** 						write_eeprom(1267,corte);
 6249              		.loc 1 1224 0
 6250 2434 40F2F340 		movw	r0, #1267
 6251 2438 09A9     		add	r1, sp, #36
 6252 243a FFF7FEFF 		bl	write_eeprom
 6253              	.LVL450:
1225:.\protocolo.c **** 						write_eeprom(1470,resultado);
 6254              		.loc 1 1225 0
 6255 243e 40F2BE50 		movw	r0, #1470
 6256 2442 4D49     		ldr	r1, .L665+36
 6257 2444 FFF7FEFF 		bl	write_eeprom
 6258              	.LVL451:
 6259              	.L436:
1226:.\protocolo.c **** 					}
1227:.\protocolo.c ****                     if(dir==d.dir){
 6260              		.loc 1 1227 0
 6261 2448 474B     		ldr	r3, .L665+20
 6262 244a 1B78     		ldrb	r3, [r3]	@ zero_extendqisi2
 6263 244c AB42     		cmp	r3, r5
 6264 244e 0AD1     		bne	.L437
1228:.\protocolo.c **** 						write_eeprom(1367,corte);
 6265              		.loc 1 1228 0
 6266 2450 40F25750 		movw	r0, #1367
 6267 2454 09A9     		add	r1, sp, #36
 6268 2456 FFF7FEFF 		bl	write_eeprom
 6269              	.LVL452:
1229:.\protocolo.c **** 						write_eeprom(1483,resultado);
 6270              		.loc 1 1229 0
ARM GAS  C:\Users\diego\AppData\Local\Temp\ccvEcbYb.s 			page 138


 6271 245a 40F2CB50 		movw	r0, #1483
 6272 245e 4649     		ldr	r1, .L665+36
 6273 2460 FFF7FEFF 		bl	write_eeprom
 6274              	.LVL453:
 6275 2464 09E0     		b	.L418
 6276              	.L437:
1230:.\protocolo.c **** 					}
1231:.\protocolo.c **** 					else{
1232:.\protocolo.c **** 						write_eeprom(1054,corte);
 6277              		.loc 1 1232 0
 6278 2466 40F21E40 		movw	r0, #1054
 6279 246a 09A9     		add	r1, sp, #36
 6280 246c FFF7FEFF 		bl	write_eeprom
 6281              	.LVL454:
1233:.\protocolo.c **** 						write_eeprom(1081,resultado);
 6282              		.loc 1 1233 0
 6283 2470 40F23940 		movw	r0, #1081
 6284 2474 4049     		ldr	r1, .L665+36
 6285 2476 FFF7FEFF 		bl	write_eeprom
 6286              	.LVL455:
 6287              	.L418:
1234:.\protocolo.c **** 				    }						
1235:.\protocolo.c **** 				}
1236:.\protocolo.c **** 				Surtidor_ClearRxBuffer();
 6288              		.loc 1 1236 0
 6289 247a FFF7FEFF 		bl	Surtidor_ClearRxBuffer
 6290              	.LVL456:
1237:.\protocolo.c **** 				return 1;
 6291              		.loc 1 1237 0
 6292 247e 0120     		movs	r0, #1
 6293 2480 01F027B9 		b	.L78
 6294              	.LVL457:
 6295              	.L77:
1238:.\protocolo.c **** 			}
1239:.\protocolo.c **** 			else{
1240:.\protocolo.c **** 				return 0;
1241:.\protocolo.c **** 			}			
1242:.\protocolo.c **** 		break;
1243:.\protocolo.c **** 		
1244:.\protocolo.c **** 		case 88:
1245:.\protocolo.c **** 			if((Surtidor_rxBuffer[0]==0xFF)&&(Surtidor_rxBuffer[1]==0xF6)&&(Surtidor_rxBuffer[87]==0xF0)&&(S
 6296              		.loc 1 1245 0
 6297 2484 3D4B     		ldr	r3, .L665+40
 6298 2486 1B78     		ldrb	r3, [r3]	@ zero_extendqisi2
 6299 2488 DBB2     		uxtb	r3, r3
 6300 248a FF2B     		cmp	r3, #255
 6301 248c 41F01281 		bne	.L632
 6302              		.loc 1 1245 0 is_stmt 0 discriminator 1
 6303 2490 3A4B     		ldr	r3, .L665+40
 6304 2492 5B78     		ldrb	r3, [r3, #1]	@ zero_extendqisi2
 6305 2494 DBB2     		uxtb	r3, r3
 6306 2496 F62B     		cmp	r3, #246
 6307 2498 41F00E81 		bne	.L633
 6308              		.loc 1 1245 0 discriminator 2
 6309 249c 374B     		ldr	r3, .L665+40
 6310 249e 93F85730 		ldrb	r3, [r3, #87]	@ zero_extendqisi2
 6311 24a2 DBB2     		uxtb	r3, r3
ARM GAS  C:\Users\diego\AppData\Local\Temp\ccvEcbYb.s 			page 139


 6312 24a4 F02B     		cmp	r3, #240
 6313 24a6 41F00981 		bne	.L634
 6314              		.loc 1 1245 0 discriminator 3
 6315 24aa 344B     		ldr	r3, .L665+40
 6316 24ac DB78     		ldrb	r3, [r3, #3]	@ zero_extendqisi2
 6317 24ae DBB2     		uxtb	r3, r3
 6318 24b0 F92B     		cmp	r3, #249
 6319 24b2 41F00581 		bne	.L635
1246:.\protocolo.c **** 				for(y=0;y<=42;y+=42){
 6320              		.loc 1 1246 0 is_stmt 1
 6321 24b6 0022     		movs	r2, #0
 6322 24b8 314B     		ldr	r3, .L665+44
 6323 24ba 1A60     		str	r2, [r3]
 6324 24bc 00F068BC 		b	.L438
 6325              	.LVL458:
 6326              	.L527:
1247:.\protocolo.c **** 					rventa.manguera=(Surtidor_rxBuffer[y+2]&0x0F)+1;
 6327              		.loc 1 1247 0
 6328 24c0 B31C     		adds	r3, r6, #2
 6329 24c2 2E4A     		ldr	r2, .L665+40
 6330 24c4 D15C     		ldrb	r1, [r2, r3]	@ zero_extendqisi2
 6331 24c6 01F00F01 		and	r1, r1, #15
 6332 24ca 0131     		adds	r1, r1, #1
 6333 24cc 2D4B     		ldr	r3, .L665+48
 6334 24ce 83F8E010 		strb	r1, [r3, #224]
1248:.\protocolo.c **** 					for(x=0;x<=11;x++){
 6335              		.loc 1 1248 0
 6336 24d2 0022     		movs	r2, #0
 6337 24d4 204B     		ldr	r3, .L665+4
 6338 24d6 1A60     		str	r2, [r3]
 6339 24d8 0CE0     		b	.L439
 6340              	.L440:
1249:.\protocolo.c **** 						rventa.tvolumen[x]=(Surtidor_rxBuffer[y+4+x]&0x0F);
 6341              		.loc 1 1249 0 discriminator 3
 6342 24da F218     		adds	r2, r6, r3
 6343 24dc 0432     		adds	r2, r2, #4
 6344 24de 2748     		ldr	r0, .L665+40
 6345 24e0 805C     		ldrb	r0, [r0, r2]	@ zero_extendqisi2
 6346 24e2 284A     		ldr	r2, .L665+48
 6347 24e4 1A44     		add	r2, r2, r3
 6348 24e6 00F00F00 		and	r0, r0, #15
 6349 24ea 82F8BD00 		strb	r0, [r2, #189]
1248:.\protocolo.c **** 					for(x=0;x<=11;x++){
 6350              		.loc 1 1248 0 discriminator 3
 6351 24ee 0133     		adds	r3, r3, #1
 6352 24f0 194A     		ldr	r2, .L665+4
 6353 24f2 1360     		str	r3, [r2]
 6354              	.L439:
1248:.\protocolo.c **** 					for(x=0;x<=11;x++){
 6355              		.loc 1 1248 0 is_stmt 0 discriminator 1
 6356 24f4 184B     		ldr	r3, .L665+4
 6357 24f6 1B68     		ldr	r3, [r3]
 6358 24f8 0B2B     		cmp	r3, #11
 6359 24fa EED9     		bls	.L440
1250:.\protocolo.c **** 					}
1251:.\protocolo.c **** 					for(x=0;x<=11;x++){
 6360              		.loc 1 1251 0 is_stmt 1
ARM GAS  C:\Users\diego\AppData\Local\Temp\ccvEcbYb.s 			page 140


 6361 24fc 0022     		movs	r2, #0
 6362 24fe 164B     		ldr	r3, .L665+4
 6363 2500 1A60     		str	r2, [r3]
 6364 2502 0CE0     		b	.L441
 6365              	.L442:
1252:.\protocolo.c **** 						rventa.tdinero[x]=(Surtidor_rxBuffer[y+17+x]&0x0F);
 6366              		.loc 1 1252 0 discriminator 3
 6367 2504 F218     		adds	r2, r6, r3
 6368 2506 1132     		adds	r2, r2, #17
 6369 2508 1C48     		ldr	r0, .L665+40
 6370 250a 805C     		ldrb	r0, [r0, r2]	@ zero_extendqisi2
 6371 250c 1D4A     		ldr	r2, .L665+48
 6372 250e 1A44     		add	r2, r2, r3
 6373 2510 00F00F00 		and	r0, r0, #15
 6374 2514 82F8CA00 		strb	r0, [r2, #202]
1251:.\protocolo.c **** 						rventa.tdinero[x]=(Surtidor_rxBuffer[y+17+x]&0x0F);
 6375              		.loc 1 1251 0 discriminator 3
 6376 2518 0133     		adds	r3, r3, #1
 6377 251a 0F4A     		ldr	r2, .L665+4
 6378 251c 1360     		str	r3, [r2]
 6379              	.L441:
1251:.\protocolo.c **** 						rventa.tdinero[x]=(Surtidor_rxBuffer[y+17+x]&0x0F);
 6380              		.loc 1 1251 0 is_stmt 0 discriminator 1
 6381 251e 0E4B     		ldr	r3, .L665+4
 6382 2520 1B68     		ldr	r3, [r3]
 6383 2522 0B2B     		cmp	r3, #11
 6384 2524 EED9     		bls	.L442
1253:.\protocolo.c **** 					}
1254:.\protocolo.c **** 					for(z=0;z<=11;z++){
 6385              		.loc 1 1254 0 is_stmt 1
 6386 2526 0022     		movs	r2, #0
 6387 2528 104B     		ldr	r3, .L665+24
 6388 252a 1A60     		str	r2, [r3]
 6389 252c 0AE0     		b	.L443
 6390              	.L444:
1255:.\protocolo.c **** 						corte[z+1]=rventa.tvolumen[z];
 6391              		.loc 1 1255 0 discriminator 3
 6392 252e 5A1C     		adds	r2, r3, #1
 6393 2530 1448     		ldr	r0, .L665+48
 6394 2532 0344     		add	r3, r3, r0
 6395 2534 93F8BD00 		ldrb	r0, [r3, #189]	@ zero_extendqisi2
 6396 2538 10AB     		add	r3, sp, #64
 6397 253a 1344     		add	r3, r3, r2
 6398 253c 03F81C0C 		strb	r0, [r3, #-28]
1254:.\protocolo.c **** 						corte[z+1]=rventa.tvolumen[z];
 6399              		.loc 1 1254 0 discriminator 3
 6400 2540 0A4B     		ldr	r3, .L665+24
 6401 2542 1A60     		str	r2, [r3]
 6402              	.L443:
1254:.\protocolo.c **** 						corte[z+1]=rventa.tvolumen[z];
 6403              		.loc 1 1254 0 is_stmt 0 discriminator 1
 6404 2544 094B     		ldr	r3, .L665+24
 6405 2546 1B68     		ldr	r3, [r3]
 6406 2548 0B2B     		cmp	r3, #11
 6407 254a F0D9     		bls	.L444
1256:.\protocolo.c **** 					}
1257:.\protocolo.c **** 					for(z=13;z<=24;z++){
ARM GAS  C:\Users\diego\AppData\Local\Temp\ccvEcbYb.s 			page 141


 6408              		.loc 1 1257 0 is_stmt 1
 6409 254c 0D22     		movs	r2, #13
 6410 254e 074B     		ldr	r3, .L665+24
 6411 2550 1A60     		str	r2, [r3]
 6412 2552 24E0     		b	.L445
 6413              	.L666:
 6414              		.align	2
 6415              	.L665:
 6416 2554 00000000 		.word	.LANCHOR1
 6417 2558 00000000 		.word	x
 6418 255c 00000000 		.word	producto4n
 6419 2560 00000000 		.word	a
 6420 2564 00000000 		.word	b
 6421 2568 00000000 		.word	d
 6422 256c 00000000 		.word	z
 6423 2570 FFFFFFFF 		.word	rventa-1
 6424 2574 00000000 		.word	buffer_i2c
 6425 2578 00000000 		.word	resultado
 6426 257c 00000000 		.word	Surtidor_rxBuffer
 6427 2580 00000000 		.word	y
 6428 2584 00000000 		.word	rventa
 6429              	.L446:
1258:.\protocolo.c **** 						corte[z]=rventa.tdinero[z-13];
 6430              		.loc 1 1258 0 discriminator 3
 6431 2588 A84A     		ldr	r2, .L667
 6432 258a 1A44     		add	r2, r2, r3
 6433 258c 92F8CA00 		ldrb	r0, [r2, #202]	@ zero_extendqisi2
 6434 2590 10AA     		add	r2, sp, #64
 6435 2592 1A44     		add	r2, r2, r3
 6436 2594 02F81C0C 		strb	r0, [r2, #-28]
1257:.\protocolo.c **** 						corte[z]=rventa.tdinero[z-13];
 6437              		.loc 1 1257 0 discriminator 3
 6438 2598 0133     		adds	r3, r3, #1
 6439 259a A54A     		ldr	r2, .L667+4
 6440 259c 1360     		str	r3, [r2]
 6441              	.L445:
1257:.\protocolo.c **** 						corte[z]=rventa.tdinero[z-13];
 6442              		.loc 1 1257 0 is_stmt 0 discriminator 1
 6443 259e A44B     		ldr	r3, .L667+4
 6444 25a0 1B68     		ldr	r3, [r3]
 6445 25a2 182B     		cmp	r3, #24
 6446 25a4 F0D9     		bls	.L446
1259:.\protocolo.c **** 					}
1260:.\protocolo.c **** 					corte[0]=24;				
 6447              		.loc 1 1260 0 is_stmt 1
 6448 25a6 1823     		movs	r3, #24
 6449 25a8 8DF82430 		strb	r3, [sp, #36]
1261:.\protocolo.c **** 					if(((rventa.manguera==(producto1&0x0F))&&(dir==a.dir))||((rventa.manguera==(producto1b&0x0F))&
 6450              		.loc 1 1261 0
 6451 25ac A14B     		ldr	r3, .L667+8
 6452 25ae 1B78     		ldrb	r3, [r3]	@ zero_extendqisi2
 6453 25b0 03F00F03 		and	r3, r3, #15
 6454 25b4 8B42     		cmp	r3, r1
 6455 25b6 03D1     		bne	.L447
 6456              		.loc 1 1261 0 is_stmt 0 discriminator 1
 6457 25b8 9F4B     		ldr	r3, .L667+12
 6458 25ba 1B78     		ldrb	r3, [r3]	@ zero_extendqisi2
ARM GAS  C:\Users\diego\AppData\Local\Temp\ccvEcbYb.s 			page 142


 6459 25bc AB42     		cmp	r3, r5
 6460 25be 1FD0     		beq	.L448
 6461              	.L447:
 6462              		.loc 1 1261 0 discriminator 3
 6463 25c0 9E4B     		ldr	r3, .L667+16
 6464 25c2 1B78     		ldrb	r3, [r3]	@ zero_extendqisi2
 6465 25c4 03F00F03 		and	r3, r3, #15
 6466 25c8 9942     		cmp	r1, r3
 6467 25ca 03D1     		bne	.L449
 6468              		.loc 1 1261 0 discriminator 4
 6469 25cc 9C4B     		ldr	r3, .L667+20
 6470 25ce 1B78     		ldrb	r3, [r3]	@ zero_extendqisi2
 6471 25d0 AB42     		cmp	r3, r5
 6472 25d2 15D0     		beq	.L448
 6473              	.L449:
 6474              		.loc 1 1261 0 discriminator 6
 6475 25d4 9B4B     		ldr	r3, .L667+24
 6476 25d6 1B78     		ldrb	r3, [r3]	@ zero_extendqisi2
 6477 25d8 03F00F03 		and	r3, r3, #15
 6478 25dc 9942     		cmp	r1, r3
 6479 25de 03D1     		bne	.L450
 6480              		.loc 1 1261 0 discriminator 7
 6481 25e0 994B     		ldr	r3, .L667+28
 6482 25e2 1B78     		ldrb	r3, [r3]	@ zero_extendqisi2
 6483 25e4 AB42     		cmp	r3, r5
 6484 25e6 0BD0     		beq	.L448
 6485              	.L450:
 6486              		.loc 1 1261 0 discriminator 9
 6487 25e8 984B     		ldr	r3, .L667+32
 6488 25ea 1B78     		ldrb	r3, [r3]	@ zero_extendqisi2
 6489 25ec 03F00F03 		and	r3, r3, #15
 6490 25f0 9942     		cmp	r1, r3
 6491 25f2 40F0C080 		bne	.L451
 6492              		.loc 1 1261 0 discriminator 10
 6493 25f6 964B     		ldr	r3, .L667+36
 6494 25f8 1B78     		ldrb	r3, [r3]	@ zero_extendqisi2
 6495 25fa AB42     		cmp	r3, r5
 6496 25fc 40F0BB80 		bne	.L451
 6497              	.L448:
1262:.\protocolo.c **** 						for(x=0;x<=5;x++){									
 6498              		.loc 1 1262 0 is_stmt 1
 6499 2600 0022     		movs	r2, #0
 6500 2602 944B     		ldr	r3, .L667+40
 6501 2604 1A60     		str	r2, [r3]
 6502 2606 08E0     		b	.L452
 6503              	.L453:
1263:.\protocolo.c **** 							write_psoc1(val,msn_tc[x]);
 6504              		.loc 1 1263 0 discriminator 3
 6505 2608 2046     		mov	r0, r4
 6506 260a 934A     		ldr	r2, .L667+44
 6507 260c D15C     		ldrb	r1, [r2, r3]	@ zero_extendqisi2
 6508 260e FFF7FEFF 		bl	write_psoc1
 6509              	.LVL459:
1262:.\protocolo.c **** 						for(x=0;x<=5;x++){									
 6510              		.loc 1 1262 0 discriminator 3
 6511 2612 904A     		ldr	r2, .L667+40
 6512 2614 1368     		ldr	r3, [r2]
ARM GAS  C:\Users\diego\AppData\Local\Temp\ccvEcbYb.s 			page 143


 6513 2616 0133     		adds	r3, r3, #1
 6514 2618 1360     		str	r3, [r2]
 6515              	.L452:
1262:.\protocolo.c **** 						for(x=0;x<=5;x++){									
 6516              		.loc 1 1262 0 is_stmt 0 discriminator 1
 6517 261a 8E4B     		ldr	r3, .L667+40
 6518 261c 1B68     		ldr	r3, [r3]
 6519 261e 052B     		cmp	r3, #5
 6520 2620 F2D9     		bls	.L453
1264:.\protocolo.c **** 						}
1265:.\protocolo.c ****                         write_psoc1(val,10);
 6521              		.loc 1 1265 0 is_stmt 1
 6522 2622 2046     		mov	r0, r4
 6523 2624 0A21     		movs	r1, #10
 6524 2626 FFF7FEFF 		bl	write_psoc1
 6525              	.LVL460:
1266:.\protocolo.c ****                         for(x=0;x<=10;x++){									
 6526              		.loc 1 1266 0
 6527 262a 0022     		movs	r2, #0
 6528 262c 894B     		ldr	r3, .L667+40
 6529 262e 1A60     		str	r2, [r3]
 6530 2630 08E0     		b	.L454
 6531              	.L455:
1267:.\protocolo.c **** 						write_psoc1(val,producto1n[x]);
 6532              		.loc 1 1267 0 discriminator 3
 6533 2632 2046     		mov	r0, r4
 6534 2634 894A     		ldr	r2, .L667+48
 6535 2636 D15C     		ldrb	r1, [r2, r3]	@ zero_extendqisi2
 6536 2638 FFF7FEFF 		bl	write_psoc1
 6537              	.LVL461:
1266:.\protocolo.c ****                         for(x=0;x<=10;x++){									
 6538              		.loc 1 1266 0 discriminator 3
 6539 263c 854A     		ldr	r2, .L667+40
 6540 263e 1368     		ldr	r3, [r2]
 6541 2640 0133     		adds	r3, r3, #1
 6542 2642 1360     		str	r3, [r2]
 6543              	.L454:
1266:.\protocolo.c ****                         for(x=0;x<=10;x++){									
 6544              		.loc 1 1266 0 is_stmt 0 discriminator 1
 6545 2644 834B     		ldr	r3, .L667+40
 6546 2646 1B68     		ldr	r3, [r3]
 6547 2648 0A2B     		cmp	r3, #10
 6548 264a F2D9     		bls	.L455
1268:.\protocolo.c **** 					    }
1269:.\protocolo.c ****                         write_psoc1(val,10);						
 6549              		.loc 1 1269 0 is_stmt 1
 6550 264c 2046     		mov	r0, r4
 6551 264e 0A21     		movs	r1, #10
 6552 2650 FFF7FEFF 		bl	write_psoc1
 6553              	.LVL462:
1270:.\protocolo.c **** 						for(x=0;x<=14;x++){									
 6554              		.loc 1 1270 0
 6555 2654 0022     		movs	r2, #0
 6556 2656 7F4B     		ldr	r3, .L667+40
 6557 2658 1A60     		str	r2, [r3]
 6558 265a 09E0     		b	.L456
 6559              	.L457:
ARM GAS  C:\Users\diego\AppData\Local\Temp\ccvEcbYb.s 			page 144


1271:.\protocolo.c **** 							write_psoc1(val,msn_lecact[x]);				//LECTURA ACTUAL
 6560              		.loc 1 1271 0 discriminator 3
 6561 265c 7E4A     		ldr	r2, .L667+44
 6562 265e 1344     		add	r3, r3, r2
 6563 2660 2046     		mov	r0, r4
 6564 2662 197A     		ldrb	r1, [r3, #8]	@ zero_extendqisi2
 6565 2664 FFF7FEFF 		bl	write_psoc1
 6566              	.LVL463:
1270:.\protocolo.c **** 						for(x=0;x<=14;x++){									
 6567              		.loc 1 1270 0 discriminator 3
 6568 2668 7A4A     		ldr	r2, .L667+40
 6569 266a 1368     		ldr	r3, [r2]
 6570 266c 0133     		adds	r3, r3, #1
 6571 266e 1360     		str	r3, [r2]
 6572              	.L456:
1270:.\protocolo.c **** 						for(x=0;x<=14;x++){									
 6573              		.loc 1 1270 0 is_stmt 0 discriminator 1
 6574 2670 784B     		ldr	r3, .L667+40
 6575 2672 1B68     		ldr	r3, [r3]
 6576 2674 0E2B     		cmp	r3, #14
 6577 2676 F1D9     		bls	.L457
1272:.\protocolo.c **** 						}
1273:.\protocolo.c **** 						write_psoc1(val,10);
 6578              		.loc 1 1273 0 is_stmt 1
 6579 2678 2046     		mov	r0, r4
 6580 267a 0A21     		movs	r1, #10
 6581 267c FFF7FEFF 		bl	write_psoc1
 6582              	.LVL464:
1274:.\protocolo.c **** 						print_totalesac(12,val);	
 6583              		.loc 1 1274 0
 6584 2680 0C20     		movs	r0, #12
 6585 2682 2146     		mov	r1, r4
 6586 2684 FFF7FEFF 		bl	print_totalesac
 6587              	.LVL465:
1275:.\protocolo.c **** 						for(x=0;x<=16;x++){												
 6588              		.loc 1 1275 0
 6589 2688 0022     		movs	r2, #0
 6590 268a 724B     		ldr	r3, .L667+40
 6591 268c 1A60     		str	r2, [r3]
 6592 268e 09E0     		b	.L458
 6593              	.L459:
1276:.\protocolo.c **** 							write_psoc1(val,msn_lecaan[x]);				//LECTURA ANTERIOR
 6594              		.loc 1 1276 0 discriminator 3
 6595 2690 714A     		ldr	r2, .L667+44
 6596 2692 1344     		add	r3, r3, r2
 6597 2694 2046     		mov	r0, r4
 6598 2696 197E     		ldrb	r1, [r3, #24]	@ zero_extendqisi2
 6599 2698 FFF7FEFF 		bl	write_psoc1
 6600              	.LVL466:
1275:.\protocolo.c **** 						for(x=0;x<=16;x++){												
 6601              		.loc 1 1275 0 discriminator 3
 6602 269c 6D4A     		ldr	r2, .L667+40
 6603 269e 1368     		ldr	r3, [r2]
 6604 26a0 0133     		adds	r3, r3, #1
 6605 26a2 1360     		str	r3, [r2]
 6606              	.L458:
1275:.\protocolo.c **** 						for(x=0;x<=16;x++){												
ARM GAS  C:\Users\diego\AppData\Local\Temp\ccvEcbYb.s 			page 145


 6607              		.loc 1 1275 0 is_stmt 0 discriminator 1
 6608 26a4 6B4B     		ldr	r3, .L667+40
 6609 26a6 1B68     		ldr	r3, [r3]
 6610 26a8 102B     		cmp	r3, #16
 6611 26aa F1D9     		bls	.L459
1277:.\protocolo.c **** 						}
1278:.\protocolo.c **** 						write_psoc1(val,10);
 6612              		.loc 1 1278 0 is_stmt 1
 6613 26ac 2046     		mov	r0, r4
 6614 26ae 0A21     		movs	r1, #10
 6615 26b0 FFF7FEFF 		bl	write_psoc1
 6616              	.LVL467:
1279:.\protocolo.c **** 						if(dir==a.dir){
 6617              		.loc 1 1279 0
 6618 26b4 604B     		ldr	r3, .L667+12
 6619 26b6 1B78     		ldrb	r3, [r3]	@ zero_extendqisi2
 6620 26b8 AB42     		cmp	r3, r5
 6621 26ba 04D1     		bne	.L460
1280:.\protocolo.c **** 							leer_eeprom(192,25);
 6622              		.loc 1 1280 0
 6623 26bc C020     		movs	r0, #192
 6624 26be 1921     		movs	r1, #25
 6625 26c0 FFF7FEFF 		bl	leer_eeprom
 6626              	.LVL468:
 6627 26c4 04E0     		b	.L461
 6628              	.L460:
1281:.\protocolo.c **** 						}
1282:.\protocolo.c **** 						else{
1283:.\protocolo.c **** 							leer_eeprom(281,25);
 6629              		.loc 1 1283 0
 6630 26c6 40F21910 		movw	r0, #281
 6631 26ca 1921     		movs	r1, #25
 6632 26cc FFF7FEFF 		bl	leer_eeprom
 6633              	.LVL469:
 6634              	.L461:
1284:.\protocolo.c **** 						}
1285:.\protocolo.c **** 						print_totales(val);
 6635              		.loc 1 1285 0
 6636 26d0 2046     		mov	r0, r4
 6637 26d2 FFF7FEFF 		bl	print_totales
 6638              	.LVL470:
1286:.\protocolo.c **** 						for(z=1;z<=12;z++){
 6639              		.loc 1 1286 0
 6640 26d6 0122     		movs	r2, #1
 6641 26d8 554B     		ldr	r3, .L667+4
 6642 26da 1A60     		str	r2, [r3]
 6643 26dc 10E0     		b	.L462
 6644              	.L463:
1287:.\protocolo.c **** 							minuendo[z]=rventa.tdinero[z-1];
 6645              		.loc 1 1287 0 discriminator 3
 6646 26de 604A     		ldr	r2, .L667+52
 6647 26e0 1A44     		add	r2, r2, r3
 6648 26e2 92F8CA10 		ldrb	r1, [r2, #202]	@ zero_extendqisi2
 6649 26e6 10AA     		add	r2, sp, #64
 6650 26e8 1A44     		add	r2, r2, r3
 6651 26ea 02F82C1C 		strb	r1, [r2, #-44]
1288:.\protocolo.c **** 							sustraendo[z]=buffer_i2c[z+12];
ARM GAS  C:\Users\diego\AppData\Local\Temp\ccvEcbYb.s 			page 146


 6652              		.loc 1 1288 0 discriminator 3
 6653 26ee 03F10C01 		add	r1, r3, #12
 6654 26f2 5C48     		ldr	r0, .L667+56
 6655 26f4 415C     		ldrb	r1, [r0, r1]	@ zero_extendqisi2
 6656 26f6 02F83C1C 		strb	r1, [r2, #-60]
1286:.\protocolo.c **** 						for(z=1;z<=12;z++){
 6657              		.loc 1 1286 0 discriminator 3
 6658 26fa 0133     		adds	r3, r3, #1
 6659 26fc 4C4A     		ldr	r2, .L667+4
 6660 26fe 1360     		str	r3, [r2]
 6661              	.L462:
1286:.\protocolo.c **** 						for(z=1;z<=12;z++){
 6662              		.loc 1 1286 0 is_stmt 0 discriminator 1
 6663 2700 4B4B     		ldr	r3, .L667+4
 6664 2702 1B68     		ldr	r3, [r3]
 6665 2704 0C2B     		cmp	r3, #12
 6666 2706 EAD9     		bls	.L463
1289:.\protocolo.c **** 						}
1290:.\protocolo.c **** 						minuendo[0]=12;
 6667              		.loc 1 1290 0 is_stmt 1
 6668 2708 10A9     		add	r1, sp, #64
 6669 270a 0C23     		movs	r3, #12
 6670 270c 01F82C3D 		strb	r3, [r1, #-44]!
1291:.\protocolo.c **** 						operacion(2,minuendo,sustraendo);
 6671              		.loc 1 1291 0
 6672 2710 0220     		movs	r0, #2
 6673 2712 01AA     		add	r2, sp, #4
 6674 2714 FFF7FEFF 		bl	operacion
 6675              	.LVL471:
1292:.\protocolo.c **** 						for(x=0;x<=17;x++){									
 6676              		.loc 1 1292 0
 6677 2718 0022     		movs	r2, #0
 6678 271a 4E4B     		ldr	r3, .L667+40
 6679 271c 1A60     		str	r2, [r3]
 6680 271e 0AE0     		b	.L464
 6681              	.L465:
1293:.\protocolo.c **** 							write_psoc1(val,msn_tventas[x]);				//Total de ventas
 6682              		.loc 1 1293 0 discriminator 3
 6683 2720 4D4A     		ldr	r2, .L667+44
 6684 2722 1344     		add	r3, r3, r2
 6685 2724 2046     		mov	r0, r4
 6686 2726 93F82C10 		ldrb	r1, [r3, #44]	@ zero_extendqisi2
 6687 272a FFF7FEFF 		bl	write_psoc1
 6688              	.LVL472:
1292:.\protocolo.c **** 						for(x=0;x<=17;x++){									
 6689              		.loc 1 1292 0 discriminator 3
 6690 272e 494A     		ldr	r2, .L667+40
 6691 2730 1368     		ldr	r3, [r2]
 6692 2732 0133     		adds	r3, r3, #1
 6693 2734 1360     		str	r3, [r2]
 6694              	.L464:
1292:.\protocolo.c **** 						for(x=0;x<=17;x++){									
 6695              		.loc 1 1292 0 is_stmt 0 discriminator 1
 6696 2736 474B     		ldr	r3, .L667+40
 6697 2738 1B68     		ldr	r3, [r3]
 6698 273a 112B     		cmp	r3, #17
 6699 273c F0D9     		bls	.L465
ARM GAS  C:\Users\diego\AppData\Local\Temp\ccvEcbYb.s 			page 147


1294:.\protocolo.c **** 						}
1295:.\protocolo.c **** 						print_valor(resultado,val);
 6700              		.loc 1 1295 0 is_stmt 1
 6701 273e 4A48     		ldr	r0, .L667+60
 6702 2740 2146     		mov	r1, r4
 6703 2742 FFF7FEFF 		bl	print_valor
 6704              	.LVL473:
1296:.\protocolo.c **** 						if(dir==a.dir){
 6705              		.loc 1 1296 0
 6706 2746 3C4B     		ldr	r3, .L667+12
 6707 2748 1B78     		ldrb	r3, [r3]	@ zero_extendqisi2
 6708 274a AB42     		cmp	r3, r5
 6709 274c 09D1     		bne	.L466
1297:.\protocolo.c **** 							write_eeprom(192,corte);	
 6710              		.loc 1 1297 0
 6711 274e C020     		movs	r0, #192
 6712 2750 09A9     		add	r1, sp, #36
 6713 2752 FFF7FEFF 		bl	write_eeprom
 6714              	.LVL474:
1298:.\protocolo.c **** 							write_eeprom(512,resultado);
 6715              		.loc 1 1298 0
 6716 2756 4FF40070 		mov	r0, #512
 6717 275a 4349     		ldr	r1, .L667+60
 6718 275c FFF7FEFF 		bl	write_eeprom
 6719              	.LVL475:
 6720 2760 09E0     		b	.L451
 6721              	.L466:
1299:.\protocolo.c **** 						}
1300:.\protocolo.c **** 						else{
1301:.\protocolo.c **** 							write_eeprom(281,corte);
 6722              		.loc 1 1301 0
 6723 2762 40F21910 		movw	r0, #281
 6724 2766 09A9     		add	r1, sp, #36
 6725 2768 FFF7FEFF 		bl	write_eeprom
 6726              	.LVL476:
1302:.\protocolo.c **** 							write_eeprom(551,resultado);
 6727              		.loc 1 1302 0
 6728 276c 40F22720 		movw	r0, #551
 6729 2770 3D49     		ldr	r1, .L667+60
 6730 2772 FFF7FEFF 		bl	write_eeprom
 6731              	.LVL477:
 6732              	.L451:
1303:.\protocolo.c **** 						}
1304:.\protocolo.c **** 					}
1305:.\protocolo.c **** 					if(((rventa.manguera==(producto2&0x0F))&&(dir==a.dir))||((rventa.manguera==(producto2b&0x0F))&
 6733              		.loc 1 1305 0
 6734 2776 3D4B     		ldr	r3, .L667+64
 6735 2778 93F8E030 		ldrb	r3, [r3, #224]	@ zero_extendqisi2
 6736 277c 3C4A     		ldr	r2, .L667+68
 6737 277e 1278     		ldrb	r2, [r2]	@ zero_extendqisi2
 6738 2780 02F00F02 		and	r2, r2, #15
 6739 2784 9A42     		cmp	r2, r3
 6740 2786 03D1     		bne	.L467
 6741              		.loc 1 1305 0 is_stmt 0 discriminator 1
 6742 2788 2B4A     		ldr	r2, .L667+12
 6743 278a 1278     		ldrb	r2, [r2]	@ zero_extendqisi2
 6744 278c AA42     		cmp	r2, r5
ARM GAS  C:\Users\diego\AppData\Local\Temp\ccvEcbYb.s 			page 148


 6745 278e 1FD0     		beq	.L468
 6746              	.L467:
 6747              		.loc 1 1305 0 discriminator 3
 6748 2790 384A     		ldr	r2, .L667+72
 6749 2792 1278     		ldrb	r2, [r2]	@ zero_extendqisi2
 6750 2794 02F00F02 		and	r2, r2, #15
 6751 2798 9342     		cmp	r3, r2
 6752 279a 03D1     		bne	.L469
 6753              		.loc 1 1305 0 discriminator 4
 6754 279c 284A     		ldr	r2, .L667+20
 6755 279e 1278     		ldrb	r2, [r2]	@ zero_extendqisi2
 6756 27a0 AA42     		cmp	r2, r5
 6757 27a2 15D0     		beq	.L468
 6758              	.L469:
 6759              		.loc 1 1305 0 discriminator 6
 6760 27a4 344A     		ldr	r2, .L667+76
 6761 27a6 1278     		ldrb	r2, [r2]	@ zero_extendqisi2
 6762 27a8 02F00F02 		and	r2, r2, #15
 6763 27ac 9342     		cmp	r3, r2
 6764 27ae 03D1     		bne	.L470
 6765              		.loc 1 1305 0 discriminator 7
 6766 27b0 274A     		ldr	r2, .L667+36
 6767 27b2 1278     		ldrb	r2, [r2]	@ zero_extendqisi2
 6768 27b4 AA42     		cmp	r2, r5
 6769 27b6 0BD0     		beq	.L468
 6770              	.L470:
 6771              		.loc 1 1305 0 discriminator 9
 6772 27b8 304A     		ldr	r2, .L667+80
 6773 27ba 1278     		ldrb	r2, [r2]	@ zero_extendqisi2
 6774 27bc 02F00F02 		and	r2, r2, #15
 6775 27c0 9342     		cmp	r3, r2
 6776 27c2 40F0EC80 		bne	.L471
 6777              		.loc 1 1305 0 discriminator 10
 6778 27c6 204B     		ldr	r3, .L667+28
 6779 27c8 1B78     		ldrb	r3, [r3]	@ zero_extendqisi2
 6780 27ca AB42     		cmp	r3, r5
 6781 27cc 40F0E780 		bne	.L471
 6782              	.L468:
1306:.\protocolo.c **** 						for(x=0;x<=5;x++){									
 6783              		.loc 1 1306 0 is_stmt 1
 6784 27d0 0022     		movs	r2, #0
 6785 27d2 204B     		ldr	r3, .L667+40
 6786 27d4 1A60     		str	r2, [r3]
 6787 27d6 08E0     		b	.L472
 6788              	.L473:
1307:.\protocolo.c **** 						    write_psoc1(val,msn_tc[x]);
 6789              		.loc 1 1307 0 discriminator 3
 6790 27d8 2046     		mov	r0, r4
 6791 27da 1F4A     		ldr	r2, .L667+44
 6792 27dc D15C     		ldrb	r1, [r2, r3]	@ zero_extendqisi2
 6793 27de FFF7FEFF 		bl	write_psoc1
 6794              	.LVL478:
1306:.\protocolo.c **** 						for(x=0;x<=5;x++){									
 6795              		.loc 1 1306 0 discriminator 3
 6796 27e2 1C4A     		ldr	r2, .L667+40
 6797 27e4 1368     		ldr	r3, [r2]
 6798 27e6 0133     		adds	r3, r3, #1
ARM GAS  C:\Users\diego\AppData\Local\Temp\ccvEcbYb.s 			page 149


 6799 27e8 1360     		str	r3, [r2]
 6800              	.L472:
1306:.\protocolo.c **** 						for(x=0;x<=5;x++){									
 6801              		.loc 1 1306 0 is_stmt 0 discriminator 1
 6802 27ea 1A4B     		ldr	r3, .L667+40
 6803 27ec 1B68     		ldr	r3, [r3]
 6804 27ee 052B     		cmp	r3, #5
 6805 27f0 F2D9     		bls	.L473
1308:.\protocolo.c **** 					    }
1309:.\protocolo.c **** 					    write_psoc1(val,10);
 6806              		.loc 1 1309 0 is_stmt 1
 6807 27f2 2046     		mov	r0, r4
 6808 27f4 0A21     		movs	r1, #10
 6809 27f6 FFF7FEFF 		bl	write_psoc1
 6810              	.LVL479:
1310:.\protocolo.c ****                         for(x=0;x<=10;x++){									
 6811              		.loc 1 1310 0
 6812 27fa 0022     		movs	r2, #0
 6813 27fc 154B     		ldr	r3, .L667+40
 6814 27fe 1A60     		str	r2, [r3]
 6815 2800 08E0     		b	.L474
 6816              	.L475:
1311:.\protocolo.c **** 						    write_psoc1(val,producto2n[x]);
 6817              		.loc 1 1311 0 discriminator 3
 6818 2802 2046     		mov	r0, r4
 6819 2804 1E4A     		ldr	r2, .L667+84
 6820 2806 D15C     		ldrb	r1, [r2, r3]	@ zero_extendqisi2
 6821 2808 FFF7FEFF 		bl	write_psoc1
 6822              	.LVL480:
1310:.\protocolo.c ****                         for(x=0;x<=10;x++){									
 6823              		.loc 1 1310 0 discriminator 3
 6824 280c 114A     		ldr	r2, .L667+40
 6825 280e 1368     		ldr	r3, [r2]
 6826 2810 0133     		adds	r3, r3, #1
 6827 2812 1360     		str	r3, [r2]
 6828              	.L474:
1310:.\protocolo.c ****                         for(x=0;x<=10;x++){									
 6829              		.loc 1 1310 0 is_stmt 0 discriminator 1
 6830 2814 0F4B     		ldr	r3, .L667+40
 6831 2816 1B68     		ldr	r3, [r3]
 6832 2818 0A2B     		cmp	r3, #10
 6833 281a F2D9     		bls	.L475
1312:.\protocolo.c **** 					    }
1313:.\protocolo.c ****                         write_psoc1(val,10);
 6834              		.loc 1 1313 0 is_stmt 1
 6835 281c 2046     		mov	r0, r4
 6836 281e 0A21     		movs	r1, #10
 6837 2820 FFF7FEFF 		bl	write_psoc1
 6838              	.LVL481:
1314:.\protocolo.c **** 						for(x=0;x<=14;x++){									
 6839              		.loc 1 1314 0
 6840 2824 0022     		movs	r2, #0
 6841 2826 0B4B     		ldr	r3, .L667+40
 6842 2828 1A60     		str	r2, [r3]
 6843 282a 35E0     		b	.L476
 6844              	.L668:
 6845              		.align	2
ARM GAS  C:\Users\diego\AppData\Local\Temp\ccvEcbYb.s 			page 150


 6846              	.L667:
 6847 282c F3FFFFFF 		.word	rventa-13
 6848 2830 00000000 		.word	z
 6849 2834 00000000 		.word	producto1
 6850 2838 00000000 		.word	a
 6851 283c 00000000 		.word	producto1b
 6852 2840 00000000 		.word	b
 6853 2844 00000000 		.word	producto1c
 6854 2848 00000000 		.word	c
 6855 284c 00000000 		.word	producto1d
 6856 2850 00000000 		.word	d
 6857 2854 00000000 		.word	x
 6858 2858 00000000 		.word	.LANCHOR1
 6859 285c 00000000 		.word	producto1n
 6860 2860 FFFFFFFF 		.word	rventa-1
 6861 2864 00000000 		.word	buffer_i2c
 6862 2868 00000000 		.word	resultado
 6863 286c 00000000 		.word	rventa
 6864 2870 00000000 		.word	producto2
 6865 2874 00000000 		.word	producto2b
 6866 2878 00000000 		.word	producto2d
 6867 287c 00000000 		.word	producto2c
 6868 2880 00000000 		.word	producto2n
 6869              	.L477:
1315:.\protocolo.c **** 							write_psoc1(val,msn_lecact[x]);				//LECTURA ACTUAL
 6870              		.loc 1 1315 0 discriminator 3
 6871 2884 A54A     		ldr	r2, .L669
 6872 2886 1344     		add	r3, r3, r2
 6873 2888 2046     		mov	r0, r4
 6874 288a 197A     		ldrb	r1, [r3, #8]	@ zero_extendqisi2
 6875 288c FFF7FEFF 		bl	write_psoc1
 6876              	.LVL482:
1314:.\protocolo.c **** 						for(x=0;x<=14;x++){									
 6877              		.loc 1 1314 0 discriminator 3
 6878 2890 A34A     		ldr	r2, .L669+4
 6879 2892 1368     		ldr	r3, [r2]
 6880 2894 0133     		adds	r3, r3, #1
 6881 2896 1360     		str	r3, [r2]
 6882              	.L476:
1314:.\protocolo.c **** 						for(x=0;x<=14;x++){									
 6883              		.loc 1 1314 0 is_stmt 0 discriminator 1
 6884 2898 A14B     		ldr	r3, .L669+4
 6885 289a 1B68     		ldr	r3, [r3]
 6886 289c 0E2B     		cmp	r3, #14
 6887 289e F1D9     		bls	.L477
1316:.\protocolo.c **** 						}
1317:.\protocolo.c **** 						write_psoc1(val,10);
 6888              		.loc 1 1317 0 is_stmt 1
 6889 28a0 2046     		mov	r0, r4
 6890 28a2 0A21     		movs	r1, #10
 6891 28a4 FFF7FEFF 		bl	write_psoc1
 6892              	.LVL483:
1318:.\protocolo.c **** 						print_totalesac(12,val);	
 6893              		.loc 1 1318 0
 6894 28a8 0C20     		movs	r0, #12
 6895 28aa 2146     		mov	r1, r4
 6896 28ac FFF7FEFF 		bl	print_totalesac
ARM GAS  C:\Users\diego\AppData\Local\Temp\ccvEcbYb.s 			page 151


 6897              	.LVL484:
1319:.\protocolo.c **** 						for(x=0;x<=16;x++){												
 6898              		.loc 1 1319 0
 6899 28b0 0022     		movs	r2, #0
 6900 28b2 9B4B     		ldr	r3, .L669+4
 6901 28b4 1A60     		str	r2, [r3]
 6902 28b6 09E0     		b	.L478
 6903              	.L479:
1320:.\protocolo.c **** 							write_psoc1(val,msn_lecaan[x]);				//LECTURA ANTERIOR
 6904              		.loc 1 1320 0 discriminator 3
 6905 28b8 984A     		ldr	r2, .L669
 6906 28ba 1344     		add	r3, r3, r2
 6907 28bc 2046     		mov	r0, r4
 6908 28be 197E     		ldrb	r1, [r3, #24]	@ zero_extendqisi2
 6909 28c0 FFF7FEFF 		bl	write_psoc1
 6910              	.LVL485:
1319:.\protocolo.c **** 						for(x=0;x<=16;x++){												
 6911              		.loc 1 1319 0 discriminator 3
 6912 28c4 964A     		ldr	r2, .L669+4
 6913 28c6 1368     		ldr	r3, [r2]
 6914 28c8 0133     		adds	r3, r3, #1
 6915 28ca 1360     		str	r3, [r2]
 6916              	.L478:
1319:.\protocolo.c **** 						for(x=0;x<=16;x++){												
 6917              		.loc 1 1319 0 is_stmt 0 discriminator 1
 6918 28cc 944B     		ldr	r3, .L669+4
 6919 28ce 1B68     		ldr	r3, [r3]
 6920 28d0 102B     		cmp	r3, #16
 6921 28d2 F1D9     		bls	.L479
1321:.\protocolo.c **** 						}
1322:.\protocolo.c **** 						write_psoc1(val,10);
 6922              		.loc 1 1322 0 is_stmt 1
 6923 28d4 2046     		mov	r0, r4
 6924 28d6 0A21     		movs	r1, #10
 6925 28d8 FFF7FEFF 		bl	write_psoc1
 6926              	.LVL486:
1323:.\protocolo.c **** 						if(dir==a.dir){
 6927              		.loc 1 1323 0
 6928 28dc 914B     		ldr	r3, .L669+8
 6929 28de 1B78     		ldrb	r3, [r3]	@ zero_extendqisi2
 6930 28e0 AB42     		cmp	r3, r5
 6931 28e2 04D1     		bne	.L480
1324:.\protocolo.c **** 							leer_eeprom(217,25);
 6932              		.loc 1 1324 0
 6933 28e4 D920     		movs	r0, #217
 6934 28e6 1921     		movs	r1, #25
 6935 28e8 FFF7FEFF 		bl	leer_eeprom
 6936              	.LVL487:
 6937 28ec 04E0     		b	.L481
 6938              	.L480:
1325:.\protocolo.c **** 						}
1326:.\protocolo.c **** 						else{
1327:.\protocolo.c **** 							leer_eeprom(320,25);
 6939              		.loc 1 1327 0
 6940 28ee 4FF4A070 		mov	r0, #320
 6941 28f2 1921     		movs	r1, #25
 6942 28f4 FFF7FEFF 		bl	leer_eeprom
ARM GAS  C:\Users\diego\AppData\Local\Temp\ccvEcbYb.s 			page 152


 6943              	.LVL488:
 6944              	.L481:
1328:.\protocolo.c **** 						}
1329:.\protocolo.c **** 						print_totales(val);
 6945              		.loc 1 1329 0
 6946 28f8 2046     		mov	r0, r4
 6947 28fa FFF7FEFF 		bl	print_totales
 6948              	.LVL489:
1330:.\protocolo.c **** 						for(z=1;z<=12;z++){
 6949              		.loc 1 1330 0
 6950 28fe 0122     		movs	r2, #1
 6951 2900 894B     		ldr	r3, .L669+12
 6952 2902 1A60     		str	r2, [r3]
 6953 2904 10E0     		b	.L482
 6954              	.L483:
1331:.\protocolo.c **** 							minuendo[z]=rventa.tdinero[z-1];
 6955              		.loc 1 1331 0 discriminator 3
 6956 2906 894A     		ldr	r2, .L669+16
 6957 2908 1A44     		add	r2, r2, r3
 6958 290a 92F8CA10 		ldrb	r1, [r2, #202]	@ zero_extendqisi2
 6959 290e 10AA     		add	r2, sp, #64
 6960 2910 1A44     		add	r2, r2, r3
 6961 2912 02F82C1C 		strb	r1, [r2, #-44]
1332:.\protocolo.c **** 							sustraendo[z]=buffer_i2c[z+12];
 6962              		.loc 1 1332 0 discriminator 3
 6963 2916 03F10C01 		add	r1, r3, #12
 6964 291a 8548     		ldr	r0, .L669+20
 6965 291c 415C     		ldrb	r1, [r0, r1]	@ zero_extendqisi2
 6966 291e 02F83C1C 		strb	r1, [r2, #-60]
1330:.\protocolo.c **** 						for(z=1;z<=12;z++){
 6967              		.loc 1 1330 0 discriminator 3
 6968 2922 0133     		adds	r3, r3, #1
 6969 2924 804A     		ldr	r2, .L669+12
 6970 2926 1360     		str	r3, [r2]
 6971              	.L482:
1330:.\protocolo.c **** 						for(z=1;z<=12;z++){
 6972              		.loc 1 1330 0 is_stmt 0 discriminator 1
 6973 2928 7F4B     		ldr	r3, .L669+12
 6974 292a 1B68     		ldr	r3, [r3]
 6975 292c 0C2B     		cmp	r3, #12
 6976 292e EAD9     		bls	.L483
1333:.\protocolo.c **** 						}
1334:.\protocolo.c **** 						minuendo[0]=12;
 6977              		.loc 1 1334 0 is_stmt 1
 6978 2930 10A9     		add	r1, sp, #64
 6979 2932 0C23     		movs	r3, #12
 6980 2934 01F82C3D 		strb	r3, [r1, #-44]!
1335:.\protocolo.c **** 						operacion(2,minuendo,sustraendo);
 6981              		.loc 1 1335 0
 6982 2938 0220     		movs	r0, #2
 6983 293a 01AA     		add	r2, sp, #4
 6984 293c FFF7FEFF 		bl	operacion
 6985              	.LVL490:
1336:.\protocolo.c **** 						for(x=0;x<=17;x++){									
 6986              		.loc 1 1336 0
 6987 2940 0022     		movs	r2, #0
 6988 2942 774B     		ldr	r3, .L669+4
ARM GAS  C:\Users\diego\AppData\Local\Temp\ccvEcbYb.s 			page 153


 6989 2944 1A60     		str	r2, [r3]
 6990 2946 0AE0     		b	.L484
 6991              	.L485:
1337:.\protocolo.c **** 							write_psoc1(val,msn_tventas[x]);				//Total de ventas
 6992              		.loc 1 1337 0 discriminator 3
 6993 2948 744A     		ldr	r2, .L669
 6994 294a 1344     		add	r3, r3, r2
 6995 294c 2046     		mov	r0, r4
 6996 294e 93F82C10 		ldrb	r1, [r3, #44]	@ zero_extendqisi2
 6997 2952 FFF7FEFF 		bl	write_psoc1
 6998              	.LVL491:
1336:.\protocolo.c **** 						for(x=0;x<=17;x++){									
 6999              		.loc 1 1336 0 discriminator 3
 7000 2956 724A     		ldr	r2, .L669+4
 7001 2958 1368     		ldr	r3, [r2]
 7002 295a 0133     		adds	r3, r3, #1
 7003 295c 1360     		str	r3, [r2]
 7004              	.L484:
1336:.\protocolo.c **** 						for(x=0;x<=17;x++){									
 7005              		.loc 1 1336 0 is_stmt 0 discriminator 1
 7006 295e 704B     		ldr	r3, .L669+4
 7007 2960 1B68     		ldr	r3, [r3]
 7008 2962 112B     		cmp	r3, #17
 7009 2964 F0D9     		bls	.L485
1338:.\protocolo.c **** 						}
1339:.\protocolo.c **** 						print_valor(resultado,val);				
 7010              		.loc 1 1339 0 is_stmt 1
 7011 2966 7348     		ldr	r0, .L669+24
 7012 2968 2146     		mov	r1, r4
 7013 296a FFF7FEFF 		bl	print_valor
 7014              	.LVL492:
1340:.\protocolo.c **** 						if(dir==a.dir){
 7015              		.loc 1 1340 0
 7016 296e 6D4B     		ldr	r3, .L669+8
 7017 2970 1B78     		ldrb	r3, [r3]	@ zero_extendqisi2
 7018 2972 AB42     		cmp	r3, r5
 7019 2974 09D1     		bne	.L486
1341:.\protocolo.c **** 							write_eeprom(217,corte);
 7020              		.loc 1 1341 0
 7021 2976 D920     		movs	r0, #217
 7022 2978 09A9     		add	r1, sp, #36
 7023 297a FFF7FEFF 		bl	write_eeprom
 7024              	.LVL493:
1342:.\protocolo.c **** 							write_eeprom(538,resultado);
 7025              		.loc 1 1342 0
 7026 297e 40F21A20 		movw	r0, #538
 7027 2982 6C49     		ldr	r1, .L669+24
 7028 2984 FFF7FEFF 		bl	write_eeprom
 7029              	.LVL494:
 7030 2988 09E0     		b	.L471
 7031              	.L486:
1343:.\protocolo.c **** 						}
1344:.\protocolo.c **** 						else{
1345:.\protocolo.c **** 							write_eeprom(320,corte);
 7032              		.loc 1 1345 0
 7033 298a 4FF4A070 		mov	r0, #320
 7034 298e 09A9     		add	r1, sp, #36
ARM GAS  C:\Users\diego\AppData\Local\Temp\ccvEcbYb.s 			page 154


 7035 2990 FFF7FEFF 		bl	write_eeprom
 7036              	.LVL495:
1346:.\protocolo.c **** 							write_eeprom(576,resultado);
 7037              		.loc 1 1346 0
 7038 2994 4FF41070 		mov	r0, #576
 7039 2998 6649     		ldr	r1, .L669+24
 7040 299a FFF7FEFF 		bl	write_eeprom
 7041              	.LVL496:
 7042              	.L471:
1347:.\protocolo.c **** 						}				
1348:.\protocolo.c **** 					}
1349:.\protocolo.c **** 					if(((rventa.manguera==(producto3&0x0F))&&(dir==a.dir))||((rventa.manguera==(producto3b&0x0F))&
 7043              		.loc 1 1349 0
 7044 299e 664B     		ldr	r3, .L669+28
 7045 29a0 93F8E030 		ldrb	r3, [r3, #224]	@ zero_extendqisi2
 7046 29a4 654A     		ldr	r2, .L669+32
 7047 29a6 1278     		ldrb	r2, [r2]	@ zero_extendqisi2
 7048 29a8 02F00F02 		and	r2, r2, #15
 7049 29ac 9A42     		cmp	r2, r3
 7050 29ae 03D1     		bne	.L487
 7051              		.loc 1 1349 0 is_stmt 0 discriminator 1
 7052 29b0 5C4A     		ldr	r2, .L669+8
 7053 29b2 1278     		ldrb	r2, [r2]	@ zero_extendqisi2
 7054 29b4 AA42     		cmp	r2, r5
 7055 29b6 1FD0     		beq	.L488
 7056              	.L487:
 7057              		.loc 1 1349 0 discriminator 3
 7058 29b8 614A     		ldr	r2, .L669+36
 7059 29ba 1278     		ldrb	r2, [r2]	@ zero_extendqisi2
 7060 29bc 02F00F02 		and	r2, r2, #15
 7061 29c0 9342     		cmp	r3, r2
 7062 29c2 03D1     		bne	.L489
 7063              		.loc 1 1349 0 discriminator 4
 7064 29c4 5F4A     		ldr	r2, .L669+40
 7065 29c6 1278     		ldrb	r2, [r2]	@ zero_extendqisi2
 7066 29c8 AA42     		cmp	r2, r5
 7067 29ca 15D0     		beq	.L488
 7068              	.L489:
 7069              		.loc 1 1349 0 discriminator 6
 7070 29cc 5E4A     		ldr	r2, .L669+44
 7071 29ce 1278     		ldrb	r2, [r2]	@ zero_extendqisi2
 7072 29d0 02F00F02 		and	r2, r2, #15
 7073 29d4 9342     		cmp	r3, r2
 7074 29d6 03D1     		bne	.L490
 7075              		.loc 1 1349 0 discriminator 7
 7076 29d8 5C4A     		ldr	r2, .L669+48
 7077 29da 1278     		ldrb	r2, [r2]	@ zero_extendqisi2
 7078 29dc AA42     		cmp	r2, r5
 7079 29de 0BD0     		beq	.L488
 7080              	.L490:
 7081              		.loc 1 1349 0 discriminator 9
 7082 29e0 5B4A     		ldr	r2, .L669+52
 7083 29e2 1278     		ldrb	r2, [r2]	@ zero_extendqisi2
 7084 29e4 02F00F02 		and	r2, r2, #15
 7085 29e8 9342     		cmp	r3, r2
 7086 29ea 40F0E380 		bne	.L491
 7087              		.loc 1 1349 0 discriminator 10
ARM GAS  C:\Users\diego\AppData\Local\Temp\ccvEcbYb.s 			page 155


 7088 29ee 594B     		ldr	r3, .L669+56
 7089 29f0 1B78     		ldrb	r3, [r3]	@ zero_extendqisi2
 7090 29f2 AB42     		cmp	r3, r5
 7091 29f4 40F0DE80 		bne	.L491
 7092              	.L488:
1350:.\protocolo.c **** 						for(x=0;x<=5;x++){									
 7093              		.loc 1 1350 0 is_stmt 1
 7094 29f8 0022     		movs	r2, #0
 7095 29fa 494B     		ldr	r3, .L669+4
 7096 29fc 1A60     		str	r2, [r3]
 7097 29fe 08E0     		b	.L492
 7098              	.L493:
1351:.\protocolo.c **** 						    write_psoc1(val,msn_tc[x]);
 7099              		.loc 1 1351 0 discriminator 3
 7100 2a00 2046     		mov	r0, r4
 7101 2a02 464A     		ldr	r2, .L669
 7102 2a04 D15C     		ldrb	r1, [r2, r3]	@ zero_extendqisi2
 7103 2a06 FFF7FEFF 		bl	write_psoc1
 7104              	.LVL497:
1350:.\protocolo.c **** 						for(x=0;x<=5;x++){									
 7105              		.loc 1 1350 0 discriminator 3
 7106 2a0a 454A     		ldr	r2, .L669+4
 7107 2a0c 1368     		ldr	r3, [r2]
 7108 2a0e 0133     		adds	r3, r3, #1
 7109 2a10 1360     		str	r3, [r2]
 7110              	.L492:
1350:.\protocolo.c **** 						for(x=0;x<=5;x++){									
 7111              		.loc 1 1350 0 is_stmt 0 discriminator 1
 7112 2a12 434B     		ldr	r3, .L669+4
 7113 2a14 1B68     		ldr	r3, [r3]
 7114 2a16 052B     		cmp	r3, #5
 7115 2a18 F2D9     		bls	.L493
1352:.\protocolo.c **** 					    }
1353:.\protocolo.c **** 					    write_psoc1(val,10);
 7116              		.loc 1 1353 0 is_stmt 1
 7117 2a1a 2046     		mov	r0, r4
 7118 2a1c 0A21     		movs	r1, #10
 7119 2a1e FFF7FEFF 		bl	write_psoc1
 7120              	.LVL498:
1354:.\protocolo.c ****                         for(x=0;x<=10;x++){									
 7121              		.loc 1 1354 0
 7122 2a22 0022     		movs	r2, #0
 7123 2a24 3E4B     		ldr	r3, .L669+4
 7124 2a26 1A60     		str	r2, [r3]
 7125 2a28 08E0     		b	.L494
 7126              	.L495:
1355:.\protocolo.c **** 						    write_psoc1(val,producto3n[x]);
 7127              		.loc 1 1355 0 discriminator 3
 7128 2a2a 2046     		mov	r0, r4
 7129 2a2c 4A4A     		ldr	r2, .L669+60
 7130 2a2e D15C     		ldrb	r1, [r2, r3]	@ zero_extendqisi2
 7131 2a30 FFF7FEFF 		bl	write_psoc1
 7132              	.LVL499:
1354:.\protocolo.c ****                         for(x=0;x<=10;x++){									
 7133              		.loc 1 1354 0 discriminator 3
 7134 2a34 3A4A     		ldr	r2, .L669+4
 7135 2a36 1368     		ldr	r3, [r2]
ARM GAS  C:\Users\diego\AppData\Local\Temp\ccvEcbYb.s 			page 156


 7136 2a38 0133     		adds	r3, r3, #1
 7137 2a3a 1360     		str	r3, [r2]
 7138              	.L494:
1354:.\protocolo.c ****                         for(x=0;x<=10;x++){									
 7139              		.loc 1 1354 0 is_stmt 0 discriminator 1
 7140 2a3c 384B     		ldr	r3, .L669+4
 7141 2a3e 1B68     		ldr	r3, [r3]
 7142 2a40 0A2B     		cmp	r3, #10
 7143 2a42 F2D9     		bls	.L495
1356:.\protocolo.c **** 					    }
1357:.\protocolo.c ****                         write_psoc1(val,10);
 7144              		.loc 1 1357 0 is_stmt 1
 7145 2a44 2046     		mov	r0, r4
 7146 2a46 0A21     		movs	r1, #10
 7147 2a48 FFF7FEFF 		bl	write_psoc1
 7148              	.LVL500:
1358:.\protocolo.c **** 						for(x=0;x<=14;x++){									
 7149              		.loc 1 1358 0
 7150 2a4c 0022     		movs	r2, #0
 7151 2a4e 344B     		ldr	r3, .L669+4
 7152 2a50 1A60     		str	r2, [r3]
 7153 2a52 09E0     		b	.L496
 7154              	.L497:
1359:.\protocolo.c **** 							write_psoc1(val,msn_lecact[x]);				//LECTURA ACTUAL
 7155              		.loc 1 1359 0 discriminator 3
 7156 2a54 314A     		ldr	r2, .L669
 7157 2a56 1344     		add	r3, r3, r2
 7158 2a58 2046     		mov	r0, r4
 7159 2a5a 197A     		ldrb	r1, [r3, #8]	@ zero_extendqisi2
 7160 2a5c FFF7FEFF 		bl	write_psoc1
 7161              	.LVL501:
1358:.\protocolo.c **** 						for(x=0;x<=14;x++){									
 7162              		.loc 1 1358 0 discriminator 3
 7163 2a60 2F4A     		ldr	r2, .L669+4
 7164 2a62 1368     		ldr	r3, [r2]
 7165 2a64 0133     		adds	r3, r3, #1
 7166 2a66 1360     		str	r3, [r2]
 7167              	.L496:
1358:.\protocolo.c **** 						for(x=0;x<=14;x++){									
 7168              		.loc 1 1358 0 is_stmt 0 discriminator 1
 7169 2a68 2D4B     		ldr	r3, .L669+4
 7170 2a6a 1B68     		ldr	r3, [r3]
 7171 2a6c 0E2B     		cmp	r3, #14
 7172 2a6e F1D9     		bls	.L497
1360:.\protocolo.c **** 						}
1361:.\protocolo.c **** 						write_psoc1(val,10);
 7173              		.loc 1 1361 0 is_stmt 1
 7174 2a70 2046     		mov	r0, r4
 7175 2a72 0A21     		movs	r1, #10
 7176 2a74 FFF7FEFF 		bl	write_psoc1
 7177              	.LVL502:
1362:.\protocolo.c **** 						print_totalesac(12,val);	
 7178              		.loc 1 1362 0
 7179 2a78 0C20     		movs	r0, #12
 7180 2a7a 2146     		mov	r1, r4
 7181 2a7c FFF7FEFF 		bl	print_totalesac
 7182              	.LVL503:
ARM GAS  C:\Users\diego\AppData\Local\Temp\ccvEcbYb.s 			page 157


1363:.\protocolo.c **** 						for(x=0;x<=16;x++){												
 7183              		.loc 1 1363 0
 7184 2a80 0022     		movs	r2, #0
 7185 2a82 274B     		ldr	r3, .L669+4
 7186 2a84 1A60     		str	r2, [r3]
 7187 2a86 09E0     		b	.L498
 7188              	.L499:
1364:.\protocolo.c **** 							write_psoc1(val,msn_lecaan[x]);				//LECTURA ANTERIOR
 7189              		.loc 1 1364 0 discriminator 3
 7190 2a88 244A     		ldr	r2, .L669
 7191 2a8a 1344     		add	r3, r3, r2
 7192 2a8c 2046     		mov	r0, r4
 7193 2a8e 197E     		ldrb	r1, [r3, #24]	@ zero_extendqisi2
 7194 2a90 FFF7FEFF 		bl	write_psoc1
 7195              	.LVL504:
1363:.\protocolo.c **** 						for(x=0;x<=16;x++){												
 7196              		.loc 1 1363 0 discriminator 3
 7197 2a94 224A     		ldr	r2, .L669+4
 7198 2a96 1368     		ldr	r3, [r2]
 7199 2a98 0133     		adds	r3, r3, #1
 7200 2a9a 1360     		str	r3, [r2]
 7201              	.L498:
1363:.\protocolo.c **** 						for(x=0;x<=16;x++){												
 7202              		.loc 1 1363 0 is_stmt 0 discriminator 1
 7203 2a9c 204B     		ldr	r3, .L669+4
 7204 2a9e 1B68     		ldr	r3, [r3]
 7205 2aa0 102B     		cmp	r3, #16
 7206 2aa2 F1D9     		bls	.L499
1365:.\protocolo.c **** 						}
1366:.\protocolo.c **** 						write_psoc1(val,10);
 7207              		.loc 1 1366 0 is_stmt 1
 7208 2aa4 2046     		mov	r0, r4
 7209 2aa6 0A21     		movs	r1, #10
 7210 2aa8 FFF7FEFF 		bl	write_psoc1
 7211              	.LVL505:
1367:.\protocolo.c **** 						if(dir==a.dir){
 7212              		.loc 1 1367 0
 7213 2aac 1D4B     		ldr	r3, .L669+8
 7214 2aae 1B78     		ldrb	r3, [r3]	@ zero_extendqisi2
 7215 2ab0 AB42     		cmp	r3, r5
 7216 2ab2 05D1     		bne	.L500
1368:.\protocolo.c **** 							leer_eeprom(256,25);
 7217              		.loc 1 1368 0
 7218 2ab4 4FF48070 		mov	r0, #256
 7219 2ab8 1921     		movs	r1, #25
 7220 2aba FFF7FEFF 		bl	leer_eeprom
 7221              	.LVL506:
 7222 2abe 04E0     		b	.L501
 7223              	.L500:
1369:.\protocolo.c **** 						}
1370:.\protocolo.c **** 						else{
1371:.\protocolo.c **** 							leer_eeprom(345,25);
 7224              		.loc 1 1371 0
 7225 2ac0 40F25910 		movw	r0, #345
 7226 2ac4 1921     		movs	r1, #25
 7227 2ac6 FFF7FEFF 		bl	leer_eeprom
 7228              	.LVL507:
ARM GAS  C:\Users\diego\AppData\Local\Temp\ccvEcbYb.s 			page 158


 7229              	.L501:
1372:.\protocolo.c **** 						}
1373:.\protocolo.c **** 						print_totales(val);
 7230              		.loc 1 1373 0
 7231 2aca 2046     		mov	r0, r4
 7232 2acc FFF7FEFF 		bl	print_totales
 7233              	.LVL508:
1374:.\protocolo.c **** 						for(z=1;z<=12;z++){
 7234              		.loc 1 1374 0
 7235 2ad0 0122     		movs	r2, #1
 7236 2ad2 154B     		ldr	r3, .L669+12
 7237 2ad4 1A60     		str	r2, [r3]
 7238 2ad6 10E0     		b	.L502
 7239              	.L503:
1375:.\protocolo.c **** 							minuendo[z]=rventa.tdinero[z-1];
 7240              		.loc 1 1375 0 discriminator 3
 7241 2ad8 144A     		ldr	r2, .L669+16
 7242 2ada 1A44     		add	r2, r2, r3
 7243 2adc 92F8CA10 		ldrb	r1, [r2, #202]	@ zero_extendqisi2
 7244 2ae0 10AA     		add	r2, sp, #64
 7245 2ae2 1A44     		add	r2, r2, r3
 7246 2ae4 02F82C1C 		strb	r1, [r2, #-44]
1376:.\protocolo.c **** 							sustraendo[z]=buffer_i2c[z+12];
 7247              		.loc 1 1376 0 discriminator 3
 7248 2ae8 03F10C01 		add	r1, r3, #12
 7249 2aec 1048     		ldr	r0, .L669+20
 7250 2aee 415C     		ldrb	r1, [r0, r1]	@ zero_extendqisi2
 7251 2af0 02F83C1C 		strb	r1, [r2, #-60]
1374:.\protocolo.c **** 						for(z=1;z<=12;z++){
 7252              		.loc 1 1374 0 discriminator 3
 7253 2af4 0133     		adds	r3, r3, #1
 7254 2af6 0C4A     		ldr	r2, .L669+12
 7255 2af8 1360     		str	r3, [r2]
 7256              	.L502:
1374:.\protocolo.c **** 						for(z=1;z<=12;z++){
 7257              		.loc 1 1374 0 is_stmt 0 discriminator 1
 7258 2afa 0B4B     		ldr	r3, .L669+12
 7259 2afc 1B68     		ldr	r3, [r3]
 7260 2afe 0C2B     		cmp	r3, #12
 7261 2b00 EAD9     		bls	.L503
1377:.\protocolo.c **** 						}
1378:.\protocolo.c **** 						minuendo[0]=12;
 7262              		.loc 1 1378 0 is_stmt 1
 7263 2b02 10A9     		add	r1, sp, #64
 7264 2b04 0C23     		movs	r3, #12
 7265 2b06 01F82C3D 		strb	r3, [r1, #-44]!
1379:.\protocolo.c **** 						operacion(2,minuendo,sustraendo);
 7266              		.loc 1 1379 0
 7267 2b0a 0220     		movs	r0, #2
 7268 2b0c 01AA     		add	r2, sp, #4
 7269 2b0e FFF7FEFF 		bl	operacion
 7270              	.LVL509:
1380:.\protocolo.c **** 						for(x=0;x<=17;x++){									
 7271              		.loc 1 1380 0
 7272 2b12 0022     		movs	r2, #0
 7273 2b14 024B     		ldr	r3, .L669+4
 7274 2b16 1A60     		str	r2, [r3]
ARM GAS  C:\Users\diego\AppData\Local\Temp\ccvEcbYb.s 			page 159


 7275 2b18 2BE0     		b	.L504
 7276              	.L670:
 7277 2b1a 00BF     		.align	2
 7278              	.L669:
 7279 2b1c 00000000 		.word	.LANCHOR1
 7280 2b20 00000000 		.word	x
 7281 2b24 00000000 		.word	a
 7282 2b28 00000000 		.word	z
 7283 2b2c FFFFFFFF 		.word	rventa-1
 7284 2b30 00000000 		.word	buffer_i2c
 7285 2b34 00000000 		.word	resultado
 7286 2b38 00000000 		.word	rventa
 7287 2b3c 00000000 		.word	producto3
 7288 2b40 00000000 		.word	producto3b
 7289 2b44 00000000 		.word	b
 7290 2b48 00000000 		.word	producto3c
 7291 2b4c 00000000 		.word	c
 7292 2b50 00000000 		.word	producto3d
 7293 2b54 00000000 		.word	d
 7294 2b58 00000000 		.word	producto3n
 7295              	.L505:
1381:.\protocolo.c **** 							write_psoc1(val,msn_tventas[x]);				//Total de ventas
 7296              		.loc 1 1381 0 discriminator 3
 7297 2b5c A74A     		ldr	r2, .L671
 7298 2b5e 1344     		add	r3, r3, r2
 7299 2b60 2046     		mov	r0, r4
 7300 2b62 93F82C10 		ldrb	r1, [r3, #44]	@ zero_extendqisi2
 7301 2b66 FFF7FEFF 		bl	write_psoc1
 7302              	.LVL510:
1380:.\protocolo.c **** 						for(x=0;x<=17;x++){									
 7303              		.loc 1 1380 0 discriminator 3
 7304 2b6a A54A     		ldr	r2, .L671+4
 7305 2b6c 1368     		ldr	r3, [r2]
 7306 2b6e 0133     		adds	r3, r3, #1
 7307 2b70 1360     		str	r3, [r2]
 7308              	.L504:
1380:.\protocolo.c **** 						for(x=0;x<=17;x++){									
 7309              		.loc 1 1380 0 is_stmt 0 discriminator 1
 7310 2b72 A34B     		ldr	r3, .L671+4
 7311 2b74 1B68     		ldr	r3, [r3]
 7312 2b76 112B     		cmp	r3, #17
 7313 2b78 F0D9     		bls	.L505
1382:.\protocolo.c **** 						}
1383:.\protocolo.c **** 						print_valor(resultado,val);							
 7314              		.loc 1 1383 0 is_stmt 1
 7315 2b7a A248     		ldr	r0, .L671+8
 7316 2b7c 2146     		mov	r1, r4
 7317 2b7e FFF7FEFF 		bl	print_valor
 7318              	.LVL511:
1384:.\protocolo.c **** 						if(dir==a.dir){
 7319              		.loc 1 1384 0
 7320 2b82 A14B     		ldr	r3, .L671+12
 7321 2b84 1B78     		ldrb	r3, [r3]	@ zero_extendqisi2
 7322 2b86 AB42     		cmp	r3, r5
 7323 2b88 0AD1     		bne	.L506
1385:.\protocolo.c **** 							write_eeprom(256,corte);
 7324              		.loc 1 1385 0
ARM GAS  C:\Users\diego\AppData\Local\Temp\ccvEcbYb.s 			page 160


 7325 2b8a 4FF48070 		mov	r0, #256
 7326 2b8e 09A9     		add	r1, sp, #36
 7327 2b90 FFF7FEFF 		bl	write_eeprom
 7328              	.LVL512:
1386:.\protocolo.c **** 							write_eeprom(525,resultado);
 7329              		.loc 1 1386 0
 7330 2b94 40F20D20 		movw	r0, #525
 7331 2b98 9A49     		ldr	r1, .L671+8
 7332 2b9a FFF7FEFF 		bl	write_eeprom
 7333              	.LVL513:
 7334 2b9e 09E0     		b	.L491
 7335              	.L506:
1387:.\protocolo.c **** 						}
1388:.\protocolo.c **** 						else{
1389:.\protocolo.c **** 							write_eeprom(345,corte);
 7336              		.loc 1 1389 0
 7337 2ba0 40F25910 		movw	r0, #345
 7338 2ba4 09A9     		add	r1, sp, #36
 7339 2ba6 FFF7FEFF 		bl	write_eeprom
 7340              	.LVL514:
1390:.\protocolo.c **** 							write_eeprom(589,resultado);
 7341              		.loc 1 1390 0
 7342 2baa 40F24D20 		movw	r0, #589
 7343 2bae 9549     		ldr	r1, .L671+8
 7344 2bb0 FFF7FEFF 		bl	write_eeprom
 7345              	.LVL515:
 7346              	.L491:
1391:.\protocolo.c **** 						}					
1392:.\protocolo.c **** 					}
1393:.\protocolo.c ****                     
1394:.\protocolo.c ****                     
1395:.\protocolo.c ****                     if(((rventa.manguera==(producto4&0x0F))&&(dir==a.dir))||((rventa.manguera==(pro
 7347              		.loc 1 1395 0
 7348 2bb4 954B     		ldr	r3, .L671+16
 7349 2bb6 93F8E030 		ldrb	r3, [r3, #224]	@ zero_extendqisi2
 7350 2bba 954A     		ldr	r2, .L671+20
 7351 2bbc 1278     		ldrb	r2, [r2]	@ zero_extendqisi2
 7352 2bbe 02F00F02 		and	r2, r2, #15
 7353 2bc2 9A42     		cmp	r2, r3
 7354 2bc4 03D1     		bne	.L507
 7355              		.loc 1 1395 0 is_stmt 0 discriminator 1
 7356 2bc6 904A     		ldr	r2, .L671+12
 7357 2bc8 1278     		ldrb	r2, [r2]	@ zero_extendqisi2
 7358 2bca AA42     		cmp	r2, r5
 7359 2bcc 1FD0     		beq	.L508
 7360              	.L507:
 7361              		.loc 1 1395 0 discriminator 3
 7362 2bce 914A     		ldr	r2, .L671+24
 7363 2bd0 1278     		ldrb	r2, [r2]	@ zero_extendqisi2
 7364 2bd2 02F00F02 		and	r2, r2, #15
 7365 2bd6 9342     		cmp	r3, r2
 7366 2bd8 03D1     		bne	.L509
 7367              		.loc 1 1395 0 discriminator 4
 7368 2bda 8F4A     		ldr	r2, .L671+28
 7369 2bdc 1278     		ldrb	r2, [r2]	@ zero_extendqisi2
 7370 2bde AA42     		cmp	r2, r5
 7371 2be0 15D0     		beq	.L508
ARM GAS  C:\Users\diego\AppData\Local\Temp\ccvEcbYb.s 			page 161


 7372              	.L509:
 7373              		.loc 1 1395 0 discriminator 6
 7374 2be2 8E4A     		ldr	r2, .L671+32
 7375 2be4 1278     		ldrb	r2, [r2]	@ zero_extendqisi2
 7376 2be6 02F00F02 		and	r2, r2, #15
 7377 2bea 9342     		cmp	r3, r2
 7378 2bec 03D1     		bne	.L510
 7379              		.loc 1 1395 0 discriminator 7
 7380 2bee 8C4A     		ldr	r2, .L671+36
 7381 2bf0 1278     		ldrb	r2, [r2]	@ zero_extendqisi2
 7382 2bf2 AA42     		cmp	r2, r5
 7383 2bf4 0BD0     		beq	.L508
 7384              	.L510:
 7385              		.loc 1 1395 0 discriminator 9
 7386 2bf6 8B4A     		ldr	r2, .L671+40
 7387 2bf8 1278     		ldrb	r2, [r2]	@ zero_extendqisi2
 7388 2bfa 02F00F02 		and	r2, r2, #15
 7389 2bfe 9342     		cmp	r3, r2
 7390 2c00 40F0C280 		bne	.L511
 7391              		.loc 1 1395 0 discriminator 10
 7392 2c04 864B     		ldr	r3, .L671+36
 7393 2c06 1B78     		ldrb	r3, [r3]	@ zero_extendqisi2
 7394 2c08 AB42     		cmp	r3, r5
 7395 2c0a 40F0BD80 		bne	.L511
 7396              	.L508:
1396:.\protocolo.c **** 						for(x=0;x<=5;x++){									
 7397              		.loc 1 1396 0 is_stmt 1
 7398 2c0e 0022     		movs	r2, #0
 7399 2c10 7B4B     		ldr	r3, .L671+4
 7400 2c12 1A60     		str	r2, [r3]
 7401 2c14 08E0     		b	.L512
 7402              	.L513:
1397:.\protocolo.c **** 						    write_psoc1(val,msn_tc[x]);
 7403              		.loc 1 1397 0 discriminator 3
 7404 2c16 2046     		mov	r0, r4
 7405 2c18 784A     		ldr	r2, .L671
 7406 2c1a D15C     		ldrb	r1, [r2, r3]	@ zero_extendqisi2
 7407 2c1c FFF7FEFF 		bl	write_psoc1
 7408              	.LVL516:
1396:.\protocolo.c **** 						for(x=0;x<=5;x++){									
 7409              		.loc 1 1396 0 discriminator 3
 7410 2c20 774A     		ldr	r2, .L671+4
 7411 2c22 1368     		ldr	r3, [r2]
 7412 2c24 0133     		adds	r3, r3, #1
 7413 2c26 1360     		str	r3, [r2]
 7414              	.L512:
1396:.\protocolo.c **** 						for(x=0;x<=5;x++){									
 7415              		.loc 1 1396 0 is_stmt 0 discriminator 1
 7416 2c28 754B     		ldr	r3, .L671+4
 7417 2c2a 1B68     		ldr	r3, [r3]
 7418 2c2c 052B     		cmp	r3, #5
 7419 2c2e F2D9     		bls	.L513
1398:.\protocolo.c **** 					    }
1399:.\protocolo.c **** 					    write_psoc1(val,10);
 7420              		.loc 1 1399 0 is_stmt 1
 7421 2c30 2046     		mov	r0, r4
 7422 2c32 0A21     		movs	r1, #10
ARM GAS  C:\Users\diego\AppData\Local\Temp\ccvEcbYb.s 			page 162


 7423 2c34 FFF7FEFF 		bl	write_psoc1
 7424              	.LVL517:
1400:.\protocolo.c ****                         for(x=0;x<=10;x++){									
 7425              		.loc 1 1400 0
 7426 2c38 0022     		movs	r2, #0
 7427 2c3a 714B     		ldr	r3, .L671+4
 7428 2c3c 1A60     		str	r2, [r3]
 7429 2c3e 08E0     		b	.L514
 7430              	.L515:
1401:.\protocolo.c **** 						    write_psoc1(val,producto4n[x]);
 7431              		.loc 1 1401 0 discriminator 3
 7432 2c40 2046     		mov	r0, r4
 7433 2c42 794A     		ldr	r2, .L671+44
 7434 2c44 D15C     		ldrb	r1, [r2, r3]	@ zero_extendqisi2
 7435 2c46 FFF7FEFF 		bl	write_psoc1
 7436              	.LVL518:
1400:.\protocolo.c ****                         for(x=0;x<=10;x++){									
 7437              		.loc 1 1400 0 discriminator 3
 7438 2c4a 6D4A     		ldr	r2, .L671+4
 7439 2c4c 1368     		ldr	r3, [r2]
 7440 2c4e 0133     		adds	r3, r3, #1
 7441 2c50 1360     		str	r3, [r2]
 7442              	.L514:
1400:.\protocolo.c ****                         for(x=0;x<=10;x++){									
 7443              		.loc 1 1400 0 is_stmt 0 discriminator 1
 7444 2c52 6B4B     		ldr	r3, .L671+4
 7445 2c54 1B68     		ldr	r3, [r3]
 7446 2c56 0A2B     		cmp	r3, #10
 7447 2c58 F2D9     		bls	.L515
1402:.\protocolo.c **** 					    }
1403:.\protocolo.c ****                         write_psoc1(val,10);
 7448              		.loc 1 1403 0 is_stmt 1
 7449 2c5a 2046     		mov	r0, r4
 7450 2c5c 0A21     		movs	r1, #10
 7451 2c5e FFF7FEFF 		bl	write_psoc1
 7452              	.LVL519:
1404:.\protocolo.c **** 						for(x=0;x<=14;x++){									
 7453              		.loc 1 1404 0
 7454 2c62 0022     		movs	r2, #0
 7455 2c64 664B     		ldr	r3, .L671+4
 7456 2c66 1A60     		str	r2, [r3]
 7457 2c68 09E0     		b	.L516
 7458              	.L517:
1405:.\protocolo.c **** 							write_psoc1(val,msn_lecact[x]);				//LECTURA ACTUAL
 7459              		.loc 1 1405 0 discriminator 3
 7460 2c6a 644A     		ldr	r2, .L671
 7461 2c6c 1344     		add	r3, r3, r2
 7462 2c6e 2046     		mov	r0, r4
 7463 2c70 197A     		ldrb	r1, [r3, #8]	@ zero_extendqisi2
 7464 2c72 FFF7FEFF 		bl	write_psoc1
 7465              	.LVL520:
1404:.\protocolo.c **** 						for(x=0;x<=14;x++){									
 7466              		.loc 1 1404 0 discriminator 3
 7467 2c76 624A     		ldr	r2, .L671+4
 7468 2c78 1368     		ldr	r3, [r2]
 7469 2c7a 0133     		adds	r3, r3, #1
 7470 2c7c 1360     		str	r3, [r2]
ARM GAS  C:\Users\diego\AppData\Local\Temp\ccvEcbYb.s 			page 163


 7471              	.L516:
1404:.\protocolo.c **** 						for(x=0;x<=14;x++){									
 7472              		.loc 1 1404 0 is_stmt 0 discriminator 1
 7473 2c7e 604B     		ldr	r3, .L671+4
 7474 2c80 1B68     		ldr	r3, [r3]
 7475 2c82 0E2B     		cmp	r3, #14
 7476 2c84 F1D9     		bls	.L517
1406:.\protocolo.c **** 						}
1407:.\protocolo.c **** 						write_psoc1(val,10);
 7477              		.loc 1 1407 0 is_stmt 1
 7478 2c86 2046     		mov	r0, r4
 7479 2c88 0A21     		movs	r1, #10
 7480 2c8a FFF7FEFF 		bl	write_psoc1
 7481              	.LVL521:
1408:.\protocolo.c **** 						print_totalesac(12,val);	
 7482              		.loc 1 1408 0
 7483 2c8e 0C20     		movs	r0, #12
 7484 2c90 2146     		mov	r1, r4
 7485 2c92 FFF7FEFF 		bl	print_totalesac
 7486              	.LVL522:
1409:.\protocolo.c **** 						for(x=0;x<=16;x++){												
 7487              		.loc 1 1409 0
 7488 2c96 0022     		movs	r2, #0
 7489 2c98 594B     		ldr	r3, .L671+4
 7490 2c9a 1A60     		str	r2, [r3]
 7491 2c9c 09E0     		b	.L518
 7492              	.L519:
1410:.\protocolo.c **** 							write_psoc1(val,msn_lecaan[x]);				//LECTURA ANTERIOR
 7493              		.loc 1 1410 0 discriminator 3
 7494 2c9e 574A     		ldr	r2, .L671
 7495 2ca0 1344     		add	r3, r3, r2
 7496 2ca2 2046     		mov	r0, r4
 7497 2ca4 197E     		ldrb	r1, [r3, #24]	@ zero_extendqisi2
 7498 2ca6 FFF7FEFF 		bl	write_psoc1
 7499              	.LVL523:
1409:.\protocolo.c **** 						for(x=0;x<=16;x++){												
 7500              		.loc 1 1409 0 discriminator 3
 7501 2caa 554A     		ldr	r2, .L671+4
 7502 2cac 1368     		ldr	r3, [r2]
 7503 2cae 0133     		adds	r3, r3, #1
 7504 2cb0 1360     		str	r3, [r2]
 7505              	.L518:
1409:.\protocolo.c **** 						for(x=0;x<=16;x++){												
 7506              		.loc 1 1409 0 is_stmt 0 discriminator 1
 7507 2cb2 534B     		ldr	r3, .L671+4
 7508 2cb4 1B68     		ldr	r3, [r3]
 7509 2cb6 102B     		cmp	r3, #16
 7510 2cb8 F1D9     		bls	.L519
1411:.\protocolo.c **** 						}
1412:.\protocolo.c **** 						write_psoc1(val,10);
 7511              		.loc 1 1412 0 is_stmt 1
 7512 2cba 2046     		mov	r0, r4
 7513 2cbc 0A21     		movs	r1, #10
 7514 2cbe FFF7FEFF 		bl	write_psoc1
 7515              	.LVL524:
1413:.\protocolo.c **** 						if(dir==a.dir){
 7516              		.loc 1 1413 0
ARM GAS  C:\Users\diego\AppData\Local\Temp\ccvEcbYb.s 			page 164


 7517 2cc2 514B     		ldr	r3, .L671+12
 7518 2cc4 1B78     		ldrb	r3, [r3]	@ zero_extendqisi2
 7519 2cc6 AB42     		cmp	r3, r5
 7520 2cc8 05D1     		bne	.L520
1414:.\protocolo.c **** 							leer_eeprom(1096,25);
 7521              		.loc 1 1414 0
 7522 2cca 4FF48960 		mov	r0, #1096
 7523 2cce 1921     		movs	r1, #25
 7524 2cd0 FFF7FEFF 		bl	leer_eeprom
 7525              	.LVL525:
 7526 2cd4 04E0     		b	.L521
 7527              	.L520:
1415:.\protocolo.c **** 						}
1416:.\protocolo.c **** 						else{
1417:.\protocolo.c **** 							leer_eeprom(1054,25);
 7528              		.loc 1 1417 0
 7529 2cd6 40F21E40 		movw	r0, #1054
 7530 2cda 1921     		movs	r1, #25
 7531 2cdc FFF7FEFF 		bl	leer_eeprom
 7532              	.LVL526:
 7533              	.L521:
1418:.\protocolo.c **** 						}
1419:.\protocolo.c **** 						print_totales(val);
 7534              		.loc 1 1419 0
 7535 2ce0 2046     		mov	r0, r4
 7536 2ce2 FFF7FEFF 		bl	print_totales
 7537              	.LVL527:
1420:.\protocolo.c **** 						for(z=1;z<=12;z++){
 7538              		.loc 1 1420 0
 7539 2ce6 0122     		movs	r2, #1
 7540 2ce8 504B     		ldr	r3, .L671+48
 7541 2cea 1A60     		str	r2, [r3]
 7542 2cec 10E0     		b	.L522
 7543              	.L523:
1421:.\protocolo.c **** 							minuendo[z]=rventa.tdinero[z-1];
 7544              		.loc 1 1421 0 discriminator 3
 7545 2cee 504A     		ldr	r2, .L671+52
 7546 2cf0 1A44     		add	r2, r2, r3
 7547 2cf2 92F8CA10 		ldrb	r1, [r2, #202]	@ zero_extendqisi2
 7548 2cf6 10AA     		add	r2, sp, #64
 7549 2cf8 1A44     		add	r2, r2, r3
 7550 2cfa 02F82C1C 		strb	r1, [r2, #-44]
1422:.\protocolo.c **** 							sustraendo[z]=buffer_i2c[z+12];
 7551              		.loc 1 1422 0 discriminator 3
 7552 2cfe 03F10C01 		add	r1, r3, #12
 7553 2d02 4C48     		ldr	r0, .L671+56
 7554 2d04 415C     		ldrb	r1, [r0, r1]	@ zero_extendqisi2
 7555 2d06 02F83C1C 		strb	r1, [r2, #-60]
1420:.\protocolo.c **** 						for(z=1;z<=12;z++){
 7556              		.loc 1 1420 0 discriminator 3
 7557 2d0a 0133     		adds	r3, r3, #1
 7558 2d0c 474A     		ldr	r2, .L671+48
 7559 2d0e 1360     		str	r3, [r2]
 7560              	.L522:
1420:.\protocolo.c **** 						for(z=1;z<=12;z++){
 7561              		.loc 1 1420 0 is_stmt 0 discriminator 1
 7562 2d10 464B     		ldr	r3, .L671+48
ARM GAS  C:\Users\diego\AppData\Local\Temp\ccvEcbYb.s 			page 165


 7563 2d12 1B68     		ldr	r3, [r3]
 7564 2d14 0C2B     		cmp	r3, #12
 7565 2d16 EAD9     		bls	.L523
1423:.\protocolo.c **** 						}
1424:.\protocolo.c **** 						minuendo[0]=12;
 7566              		.loc 1 1424 0 is_stmt 1
 7567 2d18 10A9     		add	r1, sp, #64
 7568 2d1a 0C23     		movs	r3, #12
 7569 2d1c 01F82C3D 		strb	r3, [r1, #-44]!
1425:.\protocolo.c **** 						operacion(2,minuendo,sustraendo);
 7570              		.loc 1 1425 0
 7571 2d20 0220     		movs	r0, #2
 7572 2d22 01AA     		add	r2, sp, #4
 7573 2d24 FFF7FEFF 		bl	operacion
 7574              	.LVL528:
1426:.\protocolo.c **** 						for(x=0;x<=17;x++){									
 7575              		.loc 1 1426 0
 7576 2d28 0022     		movs	r2, #0
 7577 2d2a 354B     		ldr	r3, .L671+4
 7578 2d2c 1A60     		str	r2, [r3]
 7579 2d2e 0AE0     		b	.L524
 7580              	.L525:
1427:.\protocolo.c **** 							write_psoc1(val,msn_tventas[x]);				//Total de ventas
 7581              		.loc 1 1427 0 discriminator 3
 7582 2d30 324A     		ldr	r2, .L671
 7583 2d32 1344     		add	r3, r3, r2
 7584 2d34 2046     		mov	r0, r4
 7585 2d36 93F82C10 		ldrb	r1, [r3, #44]	@ zero_extendqisi2
 7586 2d3a FFF7FEFF 		bl	write_psoc1
 7587              	.LVL529:
1426:.\protocolo.c **** 						for(x=0;x<=17;x++){									
 7588              		.loc 1 1426 0 discriminator 3
 7589 2d3e 304A     		ldr	r2, .L671+4
 7590 2d40 1368     		ldr	r3, [r2]
 7591 2d42 0133     		adds	r3, r3, #1
 7592 2d44 1360     		str	r3, [r2]
 7593              	.L524:
1426:.\protocolo.c **** 						for(x=0;x<=17;x++){									
 7594              		.loc 1 1426 0 is_stmt 0 discriminator 1
 7595 2d46 2E4B     		ldr	r3, .L671+4
 7596 2d48 1B68     		ldr	r3, [r3]
 7597 2d4a 112B     		cmp	r3, #17
 7598 2d4c F0D9     		bls	.L525
1428:.\protocolo.c **** 						}
1429:.\protocolo.c **** 						print_valor(resultado,val);							
 7599              		.loc 1 1429 0 is_stmt 1
 7600 2d4e 2D48     		ldr	r0, .L671+8
 7601 2d50 2146     		mov	r1, r4
 7602 2d52 FFF7FEFF 		bl	print_valor
 7603              	.LVL530:
1430:.\protocolo.c **** 						if(dir==a.dir){
 7604              		.loc 1 1430 0
 7605 2d56 2C4B     		ldr	r3, .L671+12
 7606 2d58 1B78     		ldrb	r3, [r3]	@ zero_extendqisi2
 7607 2d5a AB42     		cmp	r3, r5
 7608 2d5c 0AD1     		bne	.L526
1431:.\protocolo.c **** 						    write_eeprom(1096,corte);
ARM GAS  C:\Users\diego\AppData\Local\Temp\ccvEcbYb.s 			page 166


 7609              		.loc 1 1431 0
 7610 2d5e 4FF48960 		mov	r0, #1096
 7611 2d62 09A9     		add	r1, sp, #36
 7612 2d64 FFF7FEFF 		bl	write_eeprom
 7613              	.LVL531:
1432:.\protocolo.c **** 						    write_eeprom(1038,resultado);
 7614              		.loc 1 1432 0
 7615 2d68 40F20E40 		movw	r0, #1038
 7616 2d6c 2549     		ldr	r1, .L671+8
 7617 2d6e FFF7FEFF 		bl	write_eeprom
 7618              	.LVL532:
 7619 2d72 09E0     		b	.L511
 7620              	.L526:
1433:.\protocolo.c **** 					    }
1434:.\protocolo.c **** 					    else{
1435:.\protocolo.c **** 						    write_eeprom(1054,corte);
 7621              		.loc 1 1435 0
 7622 2d74 40F21E40 		movw	r0, #1054
 7623 2d78 09A9     		add	r1, sp, #36
 7624 2d7a FFF7FEFF 		bl	write_eeprom
 7625              	.LVL533:
1436:.\protocolo.c **** 						    write_eeprom(1081,resultado);
 7626              		.loc 1 1436 0
 7627 2d7e 40F23940 		movw	r0, #1081
 7628 2d82 2049     		ldr	r1, .L671+8
 7629 2d84 FFF7FEFF 		bl	write_eeprom
 7630              	.LVL534:
 7631              	.L511:
1246:.\protocolo.c **** 					rventa.manguera=(Surtidor_rxBuffer[y+2]&0x0F)+1;
 7632              		.loc 1 1246 0 discriminator 2
 7633 2d88 2B4A     		ldr	r2, .L671+60
 7634 2d8a 1368     		ldr	r3, [r2]
 7635 2d8c 2A33     		adds	r3, r3, #42
 7636 2d8e 1360     		str	r3, [r2]
 7637              	.L438:
1246:.\protocolo.c **** 					rventa.manguera=(Surtidor_rxBuffer[y+2]&0x0F)+1;
 7638              		.loc 1 1246 0 is_stmt 0 discriminator 1
 7639 2d90 294B     		ldr	r3, .L671+60
 7640 2d92 1E68     		ldr	r6, [r3]
 7641 2d94 2A2E     		cmp	r6, #42
 7642 2d96 7FF693AB 		bls	.L527
1437:.\protocolo.c **** 				        }					
1438:.\protocolo.c **** 					}
1439:.\protocolo.c **** 				}
1440:.\protocolo.c **** 				Surtidor_ClearRxBuffer();
 7643              		.loc 1 1440 0 is_stmt 1
 7644 2d9a FFF7FEFF 		bl	Surtidor_ClearRxBuffer
 7645              	.LVL535:
1441:.\protocolo.c **** 				return 2;					
 7646              		.loc 1 1441 0
 7647 2d9e 0220     		movs	r0, #2
 7648 2da0 00F097BC 		b	.L78
 7649              	.LVL536:
 7650              	.L76:
1442:.\protocolo.c **** 			}			
1443:.\protocolo.c **** 			else{
1444:.\protocolo.c **** 				return 0;
ARM GAS  C:\Users\diego\AppData\Local\Temp\ccvEcbYb.s 			page 167


1445:.\protocolo.c **** 			}			
1446:.\protocolo.c **** 		break;
1447:.\protocolo.c **** 		
1448:.\protocolo.c **** 		case 130:
1449:.\protocolo.c **** 			if((Surtidor_rxBuffer[0]==0xFF)&&(Surtidor_rxBuffer[1]==0xF6)&&(Surtidor_rxBuffer[129]==0xF0)&&(
 7651              		.loc 1 1449 0
 7652 2da4 254B     		ldr	r3, .L671+64
 7653 2da6 1B78     		ldrb	r3, [r3]	@ zero_extendqisi2
 7654 2da8 DBB2     		uxtb	r3, r3
 7655 2daa FF2B     		cmp	r3, #255
 7656 2dac 40F08A84 		bne	.L636
 7657              		.loc 1 1449 0 is_stmt 0 discriminator 1
 7658 2db0 224B     		ldr	r3, .L671+64
 7659 2db2 5B78     		ldrb	r3, [r3, #1]	@ zero_extendqisi2
 7660 2db4 DBB2     		uxtb	r3, r3
 7661 2db6 F62B     		cmp	r3, #246
 7662 2db8 40F08684 		bne	.L637
 7663              		.loc 1 1449 0 discriminator 2
 7664 2dbc 1F4B     		ldr	r3, .L671+64
 7665 2dbe 93F88130 		ldrb	r3, [r3, #129]	@ zero_extendqisi2
 7666 2dc2 DBB2     		uxtb	r3, r3
 7667 2dc4 F02B     		cmp	r3, #240
 7668 2dc6 40F08184 		bne	.L638
 7669              		.loc 1 1449 0 discriminator 3
 7670 2dca 1C4B     		ldr	r3, .L671+64
 7671 2dcc DB78     		ldrb	r3, [r3, #3]	@ zero_extendqisi2
 7672 2dce DBB2     		uxtb	r3, r3
 7673 2dd0 F92B     		cmp	r3, #249
 7674 2dd2 40F07D84 		bne	.L639
1450:.\protocolo.c **** 				for(y=0;y<=84;y+=42){
 7675              		.loc 1 1450 0 is_stmt 1
 7676 2dd6 0022     		movs	r2, #0
 7677 2dd8 174B     		ldr	r3, .L671+60
 7678 2dda 1A60     		str	r2, [r3]
 7679 2ddc 00F02CBC 		b	.L528
 7680              	.LVL537:
 7681              	.L613:
1451:.\protocolo.c **** 					rventa.manguera=(Surtidor_rxBuffer[y+2]&0x0F)+1;
 7682              		.loc 1 1451 0
 7683 2de0 B31C     		adds	r3, r6, #2
 7684 2de2 164A     		ldr	r2, .L671+64
 7685 2de4 D15C     		ldrb	r1, [r2, r3]	@ zero_extendqisi2
 7686 2de6 01F00F01 		and	r1, r1, #15
 7687 2dea 0131     		adds	r1, r1, #1
 7688 2dec 074B     		ldr	r3, .L671+16
 7689 2dee 83F8E010 		strb	r1, [r3, #224]
1452:.\protocolo.c **** 					for(x=0;x<=11;x++){
 7690              		.loc 1 1452 0
 7691 2df2 0022     		movs	r2, #0
 7692 2df4 024B     		ldr	r3, .L671+4
 7693 2df6 1A60     		str	r2, [r3]
 7694 2df8 2FE0     		b	.L529
 7695              	.L672:
 7696 2dfa 00BF     		.align	2
 7697              	.L671:
 7698 2dfc 00000000 		.word	.LANCHOR1
 7699 2e00 00000000 		.word	x
ARM GAS  C:\Users\diego\AppData\Local\Temp\ccvEcbYb.s 			page 168


 7700 2e04 00000000 		.word	resultado
 7701 2e08 00000000 		.word	a
 7702 2e0c 00000000 		.word	rventa
 7703 2e10 00000000 		.word	producto4
 7704 2e14 00000000 		.word	producto4b
 7705 2e18 00000000 		.word	b
 7706 2e1c 00000000 		.word	producto4c
 7707 2e20 00000000 		.word	c
 7708 2e24 00000000 		.word	producto4d
 7709 2e28 00000000 		.word	producto4n
 7710 2e2c 00000000 		.word	z
 7711 2e30 FFFFFFFF 		.word	rventa-1
 7712 2e34 00000000 		.word	buffer_i2c
 7713 2e38 00000000 		.word	y
 7714 2e3c 00000000 		.word	Surtidor_rxBuffer
 7715              	.L530:
1453:.\protocolo.c **** 						rventa.tvolumen[x]=(Surtidor_rxBuffer[y+4+x]&0x0F);
 7716              		.loc 1 1453 0 discriminator 3
 7717 2e40 F218     		adds	r2, r6, r3
 7718 2e42 0432     		adds	r2, r2, #4
 7719 2e44 A948     		ldr	r0, .L673
 7720 2e46 805C     		ldrb	r0, [r0, r2]	@ zero_extendqisi2
 7721 2e48 A94A     		ldr	r2, .L673+4
 7722 2e4a 1A44     		add	r2, r2, r3
 7723 2e4c 00F00F00 		and	r0, r0, #15
 7724 2e50 82F8BD00 		strb	r0, [r2, #189]
1452:.\protocolo.c **** 					for(x=0;x<=11;x++){
 7725              		.loc 1 1452 0 discriminator 3
 7726 2e54 0133     		adds	r3, r3, #1
 7727 2e56 A74A     		ldr	r2, .L673+8
 7728 2e58 1360     		str	r3, [r2]
 7729              	.L529:
1452:.\protocolo.c **** 					for(x=0;x<=11;x++){
 7730              		.loc 1 1452 0 is_stmt 0 discriminator 1
 7731 2e5a A64B     		ldr	r3, .L673+8
 7732 2e5c 1B68     		ldr	r3, [r3]
 7733 2e5e 0B2B     		cmp	r3, #11
 7734 2e60 EED9     		bls	.L530
1454:.\protocolo.c **** 					}
1455:.\protocolo.c **** 					for(x=0;x<=11;x++){
 7735              		.loc 1 1455 0 is_stmt 1
 7736 2e62 0022     		movs	r2, #0
 7737 2e64 A34B     		ldr	r3, .L673+8
 7738 2e66 1A60     		str	r2, [r3]
 7739 2e68 0CE0     		b	.L531
 7740              	.L532:
1456:.\protocolo.c **** 						rventa.tdinero[x]=(Surtidor_rxBuffer[y+17+x]&0x0F);
 7741              		.loc 1 1456 0 discriminator 3
 7742 2e6a F218     		adds	r2, r6, r3
 7743 2e6c 1132     		adds	r2, r2, #17
 7744 2e6e 9F48     		ldr	r0, .L673
 7745 2e70 805C     		ldrb	r0, [r0, r2]	@ zero_extendqisi2
 7746 2e72 9F4A     		ldr	r2, .L673+4
 7747 2e74 1A44     		add	r2, r2, r3
 7748 2e76 00F00F00 		and	r0, r0, #15
 7749 2e7a 82F8CA00 		strb	r0, [r2, #202]
1455:.\protocolo.c **** 						rventa.tdinero[x]=(Surtidor_rxBuffer[y+17+x]&0x0F);
ARM GAS  C:\Users\diego\AppData\Local\Temp\ccvEcbYb.s 			page 169


 7750              		.loc 1 1455 0 discriminator 3
 7751 2e7e 0133     		adds	r3, r3, #1
 7752 2e80 9C4A     		ldr	r2, .L673+8
 7753 2e82 1360     		str	r3, [r2]
 7754              	.L531:
1455:.\protocolo.c **** 						rventa.tdinero[x]=(Surtidor_rxBuffer[y+17+x]&0x0F);
 7755              		.loc 1 1455 0 is_stmt 0 discriminator 1
 7756 2e84 9B4B     		ldr	r3, .L673+8
 7757 2e86 1B68     		ldr	r3, [r3]
 7758 2e88 0B2B     		cmp	r3, #11
 7759 2e8a EED9     		bls	.L532
1457:.\protocolo.c **** 					}
1458:.\protocolo.c **** 					for(z=0;z<=11;z++){
 7760              		.loc 1 1458 0 is_stmt 1
 7761 2e8c 0022     		movs	r2, #0
 7762 2e8e 9A4B     		ldr	r3, .L673+12
 7763 2e90 1A60     		str	r2, [r3]
 7764 2e92 0AE0     		b	.L533
 7765              	.L534:
1459:.\protocolo.c **** 						corte[z+1]=rventa.tvolumen[z];
 7766              		.loc 1 1459 0 discriminator 3
 7767 2e94 5A1C     		adds	r2, r3, #1
 7768 2e96 9648     		ldr	r0, .L673+4
 7769 2e98 0344     		add	r3, r3, r0
 7770 2e9a 93F8BD00 		ldrb	r0, [r3, #189]	@ zero_extendqisi2
 7771 2e9e 10AB     		add	r3, sp, #64
 7772 2ea0 1344     		add	r3, r3, r2
 7773 2ea2 03F81C0C 		strb	r0, [r3, #-28]
1458:.\protocolo.c **** 						corte[z+1]=rventa.tvolumen[z];
 7774              		.loc 1 1458 0 discriminator 3
 7775 2ea6 944B     		ldr	r3, .L673+12
 7776 2ea8 1A60     		str	r2, [r3]
 7777              	.L533:
1458:.\protocolo.c **** 						corte[z+1]=rventa.tvolumen[z];
 7778              		.loc 1 1458 0 is_stmt 0 discriminator 1
 7779 2eaa 934B     		ldr	r3, .L673+12
 7780 2eac 1B68     		ldr	r3, [r3]
 7781 2eae 0B2B     		cmp	r3, #11
 7782 2eb0 F0D9     		bls	.L534
1460:.\protocolo.c **** 					}
1461:.\protocolo.c **** 					for(z=13;z<=24;z++){
 7783              		.loc 1 1461 0 is_stmt 1
 7784 2eb2 0D22     		movs	r2, #13
 7785 2eb4 904B     		ldr	r3, .L673+12
 7786 2eb6 1A60     		str	r2, [r3]
 7787 2eb8 0AE0     		b	.L535
 7788              	.L536:
1462:.\protocolo.c **** 						corte[z]=rventa.tdinero[z-13];
 7789              		.loc 1 1462 0 discriminator 3
 7790 2eba 904A     		ldr	r2, .L673+16
 7791 2ebc 1A44     		add	r2, r2, r3
 7792 2ebe 92F8CA00 		ldrb	r0, [r2, #202]	@ zero_extendqisi2
 7793 2ec2 10AA     		add	r2, sp, #64
 7794 2ec4 1A44     		add	r2, r2, r3
 7795 2ec6 02F81C0C 		strb	r0, [r2, #-28]
1461:.\protocolo.c **** 						corte[z]=rventa.tdinero[z-13];
 7796              		.loc 1 1461 0 discriminator 3
ARM GAS  C:\Users\diego\AppData\Local\Temp\ccvEcbYb.s 			page 170


 7797 2eca 0133     		adds	r3, r3, #1
 7798 2ecc 8A4A     		ldr	r2, .L673+12
 7799 2ece 1360     		str	r3, [r2]
 7800              	.L535:
1461:.\protocolo.c **** 						corte[z]=rventa.tdinero[z-13];
 7801              		.loc 1 1461 0 is_stmt 0 discriminator 1
 7802 2ed0 894B     		ldr	r3, .L673+12
 7803 2ed2 1B68     		ldr	r3, [r3]
 7804 2ed4 182B     		cmp	r3, #24
 7805 2ed6 F0D9     		bls	.L536
1463:.\protocolo.c **** 					}
1464:.\protocolo.c **** 					corte[0]=24;				
 7806              		.loc 1 1464 0 is_stmt 1
 7807 2ed8 1823     		movs	r3, #24
 7808 2eda 8DF82430 		strb	r3, [sp, #36]
1465:.\protocolo.c **** 					if(((rventa.manguera==(producto1&0x0F))&&(dir==a.dir))||((rventa.manguera==(producto1b&0x0F))&
 7809              		.loc 1 1465 0
 7810 2ede 884B     		ldr	r3, .L673+20
 7811 2ee0 1B78     		ldrb	r3, [r3]	@ zero_extendqisi2
 7812 2ee2 03F00F03 		and	r3, r3, #15
 7813 2ee6 8B42     		cmp	r3, r1
 7814 2ee8 03D1     		bne	.L537
 7815              		.loc 1 1465 0 is_stmt 0 discriminator 1
 7816 2eea 864A     		ldr	r2, .L673+24
 7817 2eec 1278     		ldrb	r2, [r2]	@ zero_extendqisi2
 7818 2eee AA42     		cmp	r2, r5
 7819 2ef0 17D0     		beq	.L538
 7820              	.L537:
 7821              		.loc 1 1465 0 discriminator 3
 7822 2ef2 854A     		ldr	r2, .L673+28
 7823 2ef4 1278     		ldrb	r2, [r2]	@ zero_extendqisi2
 7824 2ef6 02F00F02 		and	r2, r2, #15
 7825 2efa 9142     		cmp	r1, r2
 7826 2efc 03D1     		bne	.L539
 7827              		.loc 1 1465 0 discriminator 4
 7828 2efe 8348     		ldr	r0, .L673+32
 7829 2f00 0078     		ldrb	r0, [r0]	@ zero_extendqisi2
 7830 2f02 A842     		cmp	r0, r5
 7831 2f04 0DD0     		beq	.L538
 7832              	.L539:
 7833              		.loc 1 1465 0 discriminator 6
 7834 2f06 8B42     		cmp	r3, r1
 7835 2f08 03D1     		bne	.L540
 7836              		.loc 1 1465 0 discriminator 7
 7837 2f0a 814B     		ldr	r3, .L673+36
 7838 2f0c 1B78     		ldrb	r3, [r3]	@ zero_extendqisi2
 7839 2f0e AB42     		cmp	r3, r5
 7840 2f10 07D0     		beq	.L538
 7841              	.L540:
 7842              		.loc 1 1465 0 discriminator 9
 7843 2f12 9142     		cmp	r1, r2
 7844 2f14 40F0C080 		bne	.L541
 7845              		.loc 1 1465 0 discriminator 10
 7846 2f18 7E4B     		ldr	r3, .L673+40
 7847 2f1a 1B78     		ldrb	r3, [r3]	@ zero_extendqisi2
 7848 2f1c AB42     		cmp	r3, r5
 7849 2f1e 40F0BB80 		bne	.L541
ARM GAS  C:\Users\diego\AppData\Local\Temp\ccvEcbYb.s 			page 171


 7850              	.L538:
1466:.\protocolo.c **** 						for(x=0;x<=5;x++){									
 7851              		.loc 1 1466 0 is_stmt 1
 7852 2f22 0022     		movs	r2, #0
 7853 2f24 734B     		ldr	r3, .L673+8
 7854 2f26 1A60     		str	r2, [r3]
 7855 2f28 08E0     		b	.L542
 7856              	.L543:
1467:.\protocolo.c **** 							write_psoc1(val,msn_tc[x]);
 7857              		.loc 1 1467 0 discriminator 3
 7858 2f2a 2046     		mov	r0, r4
 7859 2f2c 7A4A     		ldr	r2, .L673+44
 7860 2f2e D15C     		ldrb	r1, [r2, r3]	@ zero_extendqisi2
 7861 2f30 FFF7FEFF 		bl	write_psoc1
 7862              	.LVL538:
1466:.\protocolo.c **** 						for(x=0;x<=5;x++){									
 7863              		.loc 1 1466 0 discriminator 3
 7864 2f34 6F4A     		ldr	r2, .L673+8
 7865 2f36 1368     		ldr	r3, [r2]
 7866 2f38 0133     		adds	r3, r3, #1
 7867 2f3a 1360     		str	r3, [r2]
 7868              	.L542:
1466:.\protocolo.c **** 						for(x=0;x<=5;x++){									
 7869              		.loc 1 1466 0 is_stmt 0 discriminator 1
 7870 2f3c 6D4B     		ldr	r3, .L673+8
 7871 2f3e 1B68     		ldr	r3, [r3]
 7872 2f40 052B     		cmp	r3, #5
 7873 2f42 F2D9     		bls	.L543
1468:.\protocolo.c **** 						}
1469:.\protocolo.c **** 						write_psoc1(val,10);
 7874              		.loc 1 1469 0 is_stmt 1
 7875 2f44 2046     		mov	r0, r4
 7876 2f46 0A21     		movs	r1, #10
 7877 2f48 FFF7FEFF 		bl	write_psoc1
 7878              	.LVL539:
1470:.\protocolo.c ****                         for(x=0;x<=10;x++){									
 7879              		.loc 1 1470 0
 7880 2f4c 0022     		movs	r2, #0
 7881 2f4e 694B     		ldr	r3, .L673+8
 7882 2f50 1A60     		str	r2, [r3]
 7883 2f52 08E0     		b	.L544
 7884              	.L545:
1471:.\protocolo.c **** 						write_psoc1(val,producto1n[x]);
 7885              		.loc 1 1471 0 discriminator 3
 7886 2f54 2046     		mov	r0, r4
 7887 2f56 714A     		ldr	r2, .L673+48
 7888 2f58 D15C     		ldrb	r1, [r2, r3]	@ zero_extendqisi2
 7889 2f5a FFF7FEFF 		bl	write_psoc1
 7890              	.LVL540:
1470:.\protocolo.c ****                         for(x=0;x<=10;x++){									
 7891              		.loc 1 1470 0 discriminator 3
 7892 2f5e 654A     		ldr	r2, .L673+8
 7893 2f60 1368     		ldr	r3, [r2]
 7894 2f62 0133     		adds	r3, r3, #1
 7895 2f64 1360     		str	r3, [r2]
 7896              	.L544:
1470:.\protocolo.c ****                         for(x=0;x<=10;x++){									
ARM GAS  C:\Users\diego\AppData\Local\Temp\ccvEcbYb.s 			page 172


 7897              		.loc 1 1470 0 is_stmt 0 discriminator 1
 7898 2f66 634B     		ldr	r3, .L673+8
 7899 2f68 1B68     		ldr	r3, [r3]
 7900 2f6a 0A2B     		cmp	r3, #10
 7901 2f6c F2D9     		bls	.L545
1472:.\protocolo.c **** 					    }
1473:.\protocolo.c ****                         write_psoc1(val,10);
 7902              		.loc 1 1473 0 is_stmt 1
 7903 2f6e 2046     		mov	r0, r4
 7904 2f70 0A21     		movs	r1, #10
 7905 2f72 FFF7FEFF 		bl	write_psoc1
 7906              	.LVL541:
1474:.\protocolo.c **** 						for(x=0;x<=14;x++){									
 7907              		.loc 1 1474 0
 7908 2f76 0022     		movs	r2, #0
 7909 2f78 5E4B     		ldr	r3, .L673+8
 7910 2f7a 1A60     		str	r2, [r3]
 7911 2f7c 09E0     		b	.L546
 7912              	.L547:
1475:.\protocolo.c **** 							write_psoc1(val,msn_lecact[x]);				//LECTURA ACTUAL
 7913              		.loc 1 1475 0 discriminator 3
 7914 2f7e 664A     		ldr	r2, .L673+44
 7915 2f80 1344     		add	r3, r3, r2
 7916 2f82 2046     		mov	r0, r4
 7917 2f84 197A     		ldrb	r1, [r3, #8]	@ zero_extendqisi2
 7918 2f86 FFF7FEFF 		bl	write_psoc1
 7919              	.LVL542:
1474:.\protocolo.c **** 						for(x=0;x<=14;x++){									
 7920              		.loc 1 1474 0 discriminator 3
 7921 2f8a 5A4A     		ldr	r2, .L673+8
 7922 2f8c 1368     		ldr	r3, [r2]
 7923 2f8e 0133     		adds	r3, r3, #1
 7924 2f90 1360     		str	r3, [r2]
 7925              	.L546:
1474:.\protocolo.c **** 						for(x=0;x<=14;x++){									
 7926              		.loc 1 1474 0 is_stmt 0 discriminator 1
 7927 2f92 584B     		ldr	r3, .L673+8
 7928 2f94 1B68     		ldr	r3, [r3]
 7929 2f96 0E2B     		cmp	r3, #14
 7930 2f98 F1D9     		bls	.L547
1476:.\protocolo.c **** 						}
1477:.\protocolo.c **** 						write_psoc1(val,10);
 7931              		.loc 1 1477 0 is_stmt 1
 7932 2f9a 2046     		mov	r0, r4
 7933 2f9c 0A21     		movs	r1, #10
 7934 2f9e FFF7FEFF 		bl	write_psoc1
 7935              	.LVL543:
1478:.\protocolo.c **** 						print_totalesac(12,val);	
 7936              		.loc 1 1478 0
 7937 2fa2 0C20     		movs	r0, #12
 7938 2fa4 2146     		mov	r1, r4
 7939 2fa6 FFF7FEFF 		bl	print_totalesac
 7940              	.LVL544:
1479:.\protocolo.c **** 						for(x=0;x<=16;x++){												
 7941              		.loc 1 1479 0
 7942 2faa 0022     		movs	r2, #0
 7943 2fac 514B     		ldr	r3, .L673+8
ARM GAS  C:\Users\diego\AppData\Local\Temp\ccvEcbYb.s 			page 173


 7944 2fae 1A60     		str	r2, [r3]
 7945 2fb0 09E0     		b	.L548
 7946              	.L549:
1480:.\protocolo.c **** 							write_psoc1(val,msn_lecaan[x]);				//LECTURA ANTERIOR
 7947              		.loc 1 1480 0 discriminator 3
 7948 2fb2 594A     		ldr	r2, .L673+44
 7949 2fb4 1344     		add	r3, r3, r2
 7950 2fb6 2046     		mov	r0, r4
 7951 2fb8 197E     		ldrb	r1, [r3, #24]	@ zero_extendqisi2
 7952 2fba FFF7FEFF 		bl	write_psoc1
 7953              	.LVL545:
1479:.\protocolo.c **** 						for(x=0;x<=16;x++){												
 7954              		.loc 1 1479 0 discriminator 3
 7955 2fbe 4D4A     		ldr	r2, .L673+8
 7956 2fc0 1368     		ldr	r3, [r2]
 7957 2fc2 0133     		adds	r3, r3, #1
 7958 2fc4 1360     		str	r3, [r2]
 7959              	.L548:
1479:.\protocolo.c **** 						for(x=0;x<=16;x++){												
 7960              		.loc 1 1479 0 is_stmt 0 discriminator 1
 7961 2fc6 4B4B     		ldr	r3, .L673+8
 7962 2fc8 1B68     		ldr	r3, [r3]
 7963 2fca 102B     		cmp	r3, #16
 7964 2fcc F1D9     		bls	.L549
1481:.\protocolo.c **** 						}
1482:.\protocolo.c **** 						write_psoc1(val,10);
 7965              		.loc 1 1482 0 is_stmt 1
 7966 2fce 2046     		mov	r0, r4
 7967 2fd0 0A21     		movs	r1, #10
 7968 2fd2 FFF7FEFF 		bl	write_psoc1
 7969              	.LVL546:
1483:.\protocolo.c **** 						if(dir==a.dir){
 7970              		.loc 1 1483 0
 7971 2fd6 4B4B     		ldr	r3, .L673+24
 7972 2fd8 1B78     		ldrb	r3, [r3]	@ zero_extendqisi2
 7973 2fda AB42     		cmp	r3, r5
 7974 2fdc 04D1     		bne	.L550
1484:.\protocolo.c **** 							leer_eeprom(192,25);
 7975              		.loc 1 1484 0
 7976 2fde C020     		movs	r0, #192
 7977 2fe0 1921     		movs	r1, #25
 7978 2fe2 FFF7FEFF 		bl	leer_eeprom
 7979              	.LVL547:
 7980 2fe6 04E0     		b	.L551
 7981              	.L550:
1485:.\protocolo.c **** 						}
1486:.\protocolo.c **** 						else{
1487:.\protocolo.c **** 							leer_eeprom(281,25);
 7982              		.loc 1 1487 0
 7983 2fe8 40F21910 		movw	r0, #281
 7984 2fec 1921     		movs	r1, #25
 7985 2fee FFF7FEFF 		bl	leer_eeprom
 7986              	.LVL548:
 7987              	.L551:
1488:.\protocolo.c **** 						}
1489:.\protocolo.c **** 						print_totales(val);
 7988              		.loc 1 1489 0
ARM GAS  C:\Users\diego\AppData\Local\Temp\ccvEcbYb.s 			page 174


 7989 2ff2 2046     		mov	r0, r4
 7990 2ff4 FFF7FEFF 		bl	print_totales
 7991              	.LVL549:
1490:.\protocolo.c **** 						for(z=1;z<=12;z++){
 7992              		.loc 1 1490 0
 7993 2ff8 0122     		movs	r2, #1
 7994 2ffa 3F4B     		ldr	r3, .L673+12
 7995 2ffc 1A60     		str	r2, [r3]
 7996 2ffe 10E0     		b	.L552
 7997              	.L553:
1491:.\protocolo.c **** 							minuendo[z]=rventa.tdinero[z-1];
 7998              		.loc 1 1491 0 discriminator 3
 7999 3000 474A     		ldr	r2, .L673+52
 8000 3002 1A44     		add	r2, r2, r3
 8001 3004 92F8CA10 		ldrb	r1, [r2, #202]	@ zero_extendqisi2
 8002 3008 10AA     		add	r2, sp, #64
 8003 300a 1A44     		add	r2, r2, r3
 8004 300c 02F82C1C 		strb	r1, [r2, #-44]
1492:.\protocolo.c **** 							sustraendo[z]=buffer_i2c[z+12];
 8005              		.loc 1 1492 0 discriminator 3
 8006 3010 03F10C01 		add	r1, r3, #12
 8007 3014 4348     		ldr	r0, .L673+56
 8008 3016 415C     		ldrb	r1, [r0, r1]	@ zero_extendqisi2
 8009 3018 02F83C1C 		strb	r1, [r2, #-60]
1490:.\protocolo.c **** 						for(z=1;z<=12;z++){
 8010              		.loc 1 1490 0 discriminator 3
 8011 301c 0133     		adds	r3, r3, #1
 8012 301e 364A     		ldr	r2, .L673+12
 8013 3020 1360     		str	r3, [r2]
 8014              	.L552:
1490:.\protocolo.c **** 						for(z=1;z<=12;z++){
 8015              		.loc 1 1490 0 is_stmt 0 discriminator 1
 8016 3022 354B     		ldr	r3, .L673+12
 8017 3024 1B68     		ldr	r3, [r3]
 8018 3026 0C2B     		cmp	r3, #12
 8019 3028 EAD9     		bls	.L553
1493:.\protocolo.c **** 						}
1494:.\protocolo.c **** 						minuendo[0]=12;
 8020              		.loc 1 1494 0 is_stmt 1
 8021 302a 10A9     		add	r1, sp, #64
 8022 302c 0C23     		movs	r3, #12
 8023 302e 01F82C3D 		strb	r3, [r1, #-44]!
1495:.\protocolo.c **** 						operacion(2,minuendo,sustraendo);
 8024              		.loc 1 1495 0
 8025 3032 0220     		movs	r0, #2
 8026 3034 01AA     		add	r2, sp, #4
 8027 3036 FFF7FEFF 		bl	operacion
 8028              	.LVL550:
1496:.\protocolo.c **** 						for(x=0;x<=17;x++){									
 8029              		.loc 1 1496 0
 8030 303a 0022     		movs	r2, #0
 8031 303c 2D4B     		ldr	r3, .L673+8
 8032 303e 1A60     		str	r2, [r3]
 8033 3040 0AE0     		b	.L554
 8034              	.L555:
1497:.\protocolo.c **** 							write_psoc1(val,msn_tventas[x]);				//Total de ventas
 8035              		.loc 1 1497 0 discriminator 3
ARM GAS  C:\Users\diego\AppData\Local\Temp\ccvEcbYb.s 			page 175


 8036 3042 354A     		ldr	r2, .L673+44
 8037 3044 1344     		add	r3, r3, r2
 8038 3046 2046     		mov	r0, r4
 8039 3048 93F82C10 		ldrb	r1, [r3, #44]	@ zero_extendqisi2
 8040 304c FFF7FEFF 		bl	write_psoc1
 8041              	.LVL551:
1496:.\protocolo.c **** 						for(x=0;x<=17;x++){									
 8042              		.loc 1 1496 0 discriminator 3
 8043 3050 284A     		ldr	r2, .L673+8
 8044 3052 1368     		ldr	r3, [r2]
 8045 3054 0133     		adds	r3, r3, #1
 8046 3056 1360     		str	r3, [r2]
 8047              	.L554:
1496:.\protocolo.c **** 						for(x=0;x<=17;x++){									
 8048              		.loc 1 1496 0 is_stmt 0 discriminator 1
 8049 3058 264B     		ldr	r3, .L673+8
 8050 305a 1B68     		ldr	r3, [r3]
 8051 305c 112B     		cmp	r3, #17
 8052 305e F0D9     		bls	.L555
1498:.\protocolo.c **** 						}
1499:.\protocolo.c **** 						print_valor(resultado,val);
 8053              		.loc 1 1499 0 is_stmt 1
 8054 3060 3148     		ldr	r0, .L673+60
 8055 3062 2146     		mov	r1, r4
 8056 3064 FFF7FEFF 		bl	print_valor
 8057              	.LVL552:
1500:.\protocolo.c **** 						if(dir==a.dir){
 8058              		.loc 1 1500 0
 8059 3068 264B     		ldr	r3, .L673+24
 8060 306a 1B78     		ldrb	r3, [r3]	@ zero_extendqisi2
 8061 306c AB42     		cmp	r3, r5
 8062 306e 09D1     		bne	.L556
1501:.\protocolo.c **** 							write_eeprom(192,corte);	
 8063              		.loc 1 1501 0
 8064 3070 C020     		movs	r0, #192
 8065 3072 09A9     		add	r1, sp, #36
 8066 3074 FFF7FEFF 		bl	write_eeprom
 8067              	.LVL553:
1502:.\protocolo.c **** 							write_eeprom(512,resultado);
 8068              		.loc 1 1502 0
 8069 3078 4FF40070 		mov	r0, #512
 8070 307c 2A49     		ldr	r1, .L673+60
 8071 307e FFF7FEFF 		bl	write_eeprom
 8072              	.LVL554:
 8073 3082 09E0     		b	.L541
 8074              	.L556:
1503:.\protocolo.c **** 						}
1504:.\protocolo.c **** 						else{
1505:.\protocolo.c **** 							write_eeprom(281,corte);
 8075              		.loc 1 1505 0
 8076 3084 40F21910 		movw	r0, #281
 8077 3088 09A9     		add	r1, sp, #36
 8078 308a FFF7FEFF 		bl	write_eeprom
 8079              	.LVL555:
1506:.\protocolo.c **** 							write_eeprom(551,resultado);
 8080              		.loc 1 1506 0
 8081 308e 40F22720 		movw	r0, #551
ARM GAS  C:\Users\diego\AppData\Local\Temp\ccvEcbYb.s 			page 176


 8082 3092 2549     		ldr	r1, .L673+60
 8083 3094 FFF7FEFF 		bl	write_eeprom
 8084              	.LVL556:
 8085              	.L541:
1507:.\protocolo.c **** 						}
1508:.\protocolo.c **** 					}
1509:.\protocolo.c **** 					if(((rventa.manguera==(producto2&0x0F))&&(dir==a.dir))||((rventa.manguera==(producto2b&0x0F))&
 8086              		.loc 1 1509 0
 8087 3098 154B     		ldr	r3, .L673+4
 8088 309a 93F8E010 		ldrb	r1, [r3, #224]	@ zero_extendqisi2
 8089 309e 234B     		ldr	r3, .L673+64
 8090 30a0 1B78     		ldrb	r3, [r3]	@ zero_extendqisi2
 8091 30a2 03F00F03 		and	r3, r3, #15
 8092 30a6 8B42     		cmp	r3, r1
 8093 30a8 03D1     		bne	.L557
 8094              		.loc 1 1509 0 is_stmt 0 discriminator 1
 8095 30aa 164A     		ldr	r2, .L673+24
 8096 30ac 1278     		ldrb	r2, [r2]	@ zero_extendqisi2
 8097 30ae AA42     		cmp	r2, r5
 8098 30b0 17D0     		beq	.L558
 8099              	.L557:
 8100              		.loc 1 1509 0 discriminator 3
 8101 30b2 1F4A     		ldr	r2, .L673+68
 8102 30b4 1278     		ldrb	r2, [r2]	@ zero_extendqisi2
 8103 30b6 02F00F02 		and	r2, r2, #15
 8104 30ba 9142     		cmp	r1, r2
 8105 30bc 03D1     		bne	.L559
 8106              		.loc 1 1509 0 discriminator 4
 8107 30be 1348     		ldr	r0, .L673+32
 8108 30c0 0078     		ldrb	r0, [r0]	@ zero_extendqisi2
 8109 30c2 A842     		cmp	r0, r5
 8110 30c4 0DD0     		beq	.L558
 8111              	.L559:
 8112              		.loc 1 1509 0 discriminator 6
 8113 30c6 9142     		cmp	r1, r2
 8114 30c8 03D1     		bne	.L560
 8115              		.loc 1 1509 0 discriminator 7
 8116 30ca 124A     		ldr	r2, .L673+40
 8117 30cc 1278     		ldrb	r2, [r2]	@ zero_extendqisi2
 8118 30ce AA42     		cmp	r2, r5
 8119 30d0 07D0     		beq	.L558
 8120              	.L560:
 8121              		.loc 1 1509 0 discriminator 9
 8122 30d2 8B42     		cmp	r3, r1
 8123 30d4 40F0E580 		bne	.L561
 8124              		.loc 1 1509 0 discriminator 10
 8125 30d8 0D4B     		ldr	r3, .L673+36
 8126 30da 1B78     		ldrb	r3, [r3]	@ zero_extendqisi2
 8127 30dc AB42     		cmp	r3, r5
 8128 30de 40F0E080 		bne	.L561
 8129              	.L558:
1510:.\protocolo.c **** 						for(x=0;x<=5;x++){									
 8130              		.loc 1 1510 0 is_stmt 1
 8131 30e2 0022     		movs	r2, #0
 8132 30e4 034B     		ldr	r3, .L673+8
 8133 30e6 1A60     		str	r2, [r3]
 8134 30e8 2DE0     		b	.L562
ARM GAS  C:\Users\diego\AppData\Local\Temp\ccvEcbYb.s 			page 177


 8135              	.L674:
 8136 30ea 00BF     		.align	2
 8137              	.L673:
 8138 30ec 00000000 		.word	Surtidor_rxBuffer
 8139 30f0 00000000 		.word	rventa
 8140 30f4 00000000 		.word	x
 8141 30f8 00000000 		.word	z
 8142 30fc F3FFFFFF 		.word	rventa-13
 8143 3100 00000000 		.word	producto1
 8144 3104 00000000 		.word	a
 8145 3108 00000000 		.word	producto1b
 8146 310c 00000000 		.word	b
 8147 3110 00000000 		.word	c
 8148 3114 00000000 		.word	d
 8149 3118 00000000 		.word	.LANCHOR1
 8150 311c 00000000 		.word	producto1n
 8151 3120 FFFFFFFF 		.word	rventa-1
 8152 3124 00000000 		.word	buffer_i2c
 8153 3128 00000000 		.word	resultado
 8154 312c 00000000 		.word	producto2
 8155 3130 00000000 		.word	producto2b
 8156              	.L563:
1511:.\protocolo.c **** 						    write_psoc1(val,msn_tc[x]);
 8157              		.loc 1 1511 0 discriminator 3
 8158 3134 2046     		mov	r0, r4
 8159 3136 B04A     		ldr	r2, .L675
 8160 3138 D15C     		ldrb	r1, [r2, r3]	@ zero_extendqisi2
 8161 313a FFF7FEFF 		bl	write_psoc1
 8162              	.LVL557:
1510:.\protocolo.c **** 						for(x=0;x<=5;x++){									
 8163              		.loc 1 1510 0 discriminator 3
 8164 313e AF4A     		ldr	r2, .L675+4
 8165 3140 1368     		ldr	r3, [r2]
 8166 3142 0133     		adds	r3, r3, #1
 8167 3144 1360     		str	r3, [r2]
 8168              	.L562:
1510:.\protocolo.c **** 						for(x=0;x<=5;x++){									
 8169              		.loc 1 1510 0 is_stmt 0 discriminator 1
 8170 3146 AD4B     		ldr	r3, .L675+4
 8171 3148 1B68     		ldr	r3, [r3]
 8172 314a 052B     		cmp	r3, #5
 8173 314c F2D9     		bls	.L563
1512:.\protocolo.c **** 					    }
1513:.\protocolo.c **** 					    write_psoc1(val,10);
 8174              		.loc 1 1513 0 is_stmt 1
 8175 314e 2046     		mov	r0, r4
 8176 3150 0A21     		movs	r1, #10
 8177 3152 FFF7FEFF 		bl	write_psoc1
 8178              	.LVL558:
1514:.\protocolo.c ****                         for(x=0;x<=10;x++){									
 8179              		.loc 1 1514 0
 8180 3156 0022     		movs	r2, #0
 8181 3158 A84B     		ldr	r3, .L675+4
 8182 315a 1A60     		str	r2, [r3]
 8183 315c 08E0     		b	.L564
 8184              	.L565:
1515:.\protocolo.c **** 						    write_psoc1(val,producto2n[x]);
ARM GAS  C:\Users\diego\AppData\Local\Temp\ccvEcbYb.s 			page 178


 8185              		.loc 1 1515 0 discriminator 3
 8186 315e 2046     		mov	r0, r4
 8187 3160 A74A     		ldr	r2, .L675+8
 8188 3162 D15C     		ldrb	r1, [r2, r3]	@ zero_extendqisi2
 8189 3164 FFF7FEFF 		bl	write_psoc1
 8190              	.LVL559:
1514:.\protocolo.c ****                         for(x=0;x<=10;x++){									
 8191              		.loc 1 1514 0 discriminator 3
 8192 3168 A44A     		ldr	r2, .L675+4
 8193 316a 1368     		ldr	r3, [r2]
 8194 316c 0133     		adds	r3, r3, #1
 8195 316e 1360     		str	r3, [r2]
 8196              	.L564:
1514:.\protocolo.c ****                         for(x=0;x<=10;x++){									
 8197              		.loc 1 1514 0 is_stmt 0 discriminator 1
 8198 3170 A24B     		ldr	r3, .L675+4
 8199 3172 1B68     		ldr	r3, [r3]
 8200 3174 0A2B     		cmp	r3, #10
 8201 3176 F2D9     		bls	.L565
1516:.\protocolo.c **** 					    }
1517:.\protocolo.c ****                         write_psoc1(val,10);
 8202              		.loc 1 1517 0 is_stmt 1
 8203 3178 2046     		mov	r0, r4
 8204 317a 0A21     		movs	r1, #10
 8205 317c FFF7FEFF 		bl	write_psoc1
 8206              	.LVL560:
1518:.\protocolo.c **** 						for(x=0;x<=14;x++){									
 8207              		.loc 1 1518 0
 8208 3180 0022     		movs	r2, #0
 8209 3182 9E4B     		ldr	r3, .L675+4
 8210 3184 1A60     		str	r2, [r3]
 8211 3186 09E0     		b	.L566
 8212              	.L567:
1519:.\protocolo.c **** 							write_psoc1(val,msn_lecact[x]);				//LECTURA ACTUAL
 8213              		.loc 1 1519 0 discriminator 3
 8214 3188 9B4A     		ldr	r2, .L675
 8215 318a 1344     		add	r3, r3, r2
 8216 318c 2046     		mov	r0, r4
 8217 318e 197A     		ldrb	r1, [r3, #8]	@ zero_extendqisi2
 8218 3190 FFF7FEFF 		bl	write_psoc1
 8219              	.LVL561:
1518:.\protocolo.c **** 						for(x=0;x<=14;x++){									
 8220              		.loc 1 1518 0 discriminator 3
 8221 3194 994A     		ldr	r2, .L675+4
 8222 3196 1368     		ldr	r3, [r2]
 8223 3198 0133     		adds	r3, r3, #1
 8224 319a 1360     		str	r3, [r2]
 8225              	.L566:
1518:.\protocolo.c **** 						for(x=0;x<=14;x++){									
 8226              		.loc 1 1518 0 is_stmt 0 discriminator 1
 8227 319c 974B     		ldr	r3, .L675+4
 8228 319e 1B68     		ldr	r3, [r3]
 8229 31a0 0E2B     		cmp	r3, #14
 8230 31a2 F1D9     		bls	.L567
1520:.\protocolo.c **** 						}
1521:.\protocolo.c **** 						write_psoc1(val,10);
 8231              		.loc 1 1521 0 is_stmt 1
ARM GAS  C:\Users\diego\AppData\Local\Temp\ccvEcbYb.s 			page 179


 8232 31a4 2046     		mov	r0, r4
 8233 31a6 0A21     		movs	r1, #10
 8234 31a8 FFF7FEFF 		bl	write_psoc1
 8235              	.LVL562:
1522:.\protocolo.c **** 						print_totalesac(12,val);	
 8236              		.loc 1 1522 0
 8237 31ac 0C20     		movs	r0, #12
 8238 31ae 2146     		mov	r1, r4
 8239 31b0 FFF7FEFF 		bl	print_totalesac
 8240              	.LVL563:
1523:.\protocolo.c **** 						for(x=0;x<=16;x++){												
 8241              		.loc 1 1523 0
 8242 31b4 0022     		movs	r2, #0
 8243 31b6 914B     		ldr	r3, .L675+4
 8244 31b8 1A60     		str	r2, [r3]
 8245 31ba 09E0     		b	.L568
 8246              	.L569:
1524:.\protocolo.c **** 							write_psoc1(val,msn_lecaan[x]);				//LECTURA ANTERIOR
 8247              		.loc 1 1524 0 discriminator 3
 8248 31bc 8E4A     		ldr	r2, .L675
 8249 31be 1344     		add	r3, r3, r2
 8250 31c0 2046     		mov	r0, r4
 8251 31c2 197E     		ldrb	r1, [r3, #24]	@ zero_extendqisi2
 8252 31c4 FFF7FEFF 		bl	write_psoc1
 8253              	.LVL564:
1523:.\protocolo.c **** 						for(x=0;x<=16;x++){												
 8254              		.loc 1 1523 0 discriminator 3
 8255 31c8 8C4A     		ldr	r2, .L675+4
 8256 31ca 1368     		ldr	r3, [r2]
 8257 31cc 0133     		adds	r3, r3, #1
 8258 31ce 1360     		str	r3, [r2]
 8259              	.L568:
1523:.\protocolo.c **** 						for(x=0;x<=16;x++){												
 8260              		.loc 1 1523 0 is_stmt 0 discriminator 1
 8261 31d0 8A4B     		ldr	r3, .L675+4
 8262 31d2 1B68     		ldr	r3, [r3]
 8263 31d4 102B     		cmp	r3, #16
 8264 31d6 F1D9     		bls	.L569
1525:.\protocolo.c **** 						}
1526:.\protocolo.c **** 						write_psoc1(val,10);
 8265              		.loc 1 1526 0 is_stmt 1
 8266 31d8 2046     		mov	r0, r4
 8267 31da 0A21     		movs	r1, #10
 8268 31dc FFF7FEFF 		bl	write_psoc1
 8269              	.LVL565:
1527:.\protocolo.c **** 						if(dir==a.dir){
 8270              		.loc 1 1527 0
 8271 31e0 884B     		ldr	r3, .L675+12
 8272 31e2 1B78     		ldrb	r3, [r3]	@ zero_extendqisi2
 8273 31e4 AB42     		cmp	r3, r5
 8274 31e6 04D1     		bne	.L570
1528:.\protocolo.c **** 							leer_eeprom(217,25);
 8275              		.loc 1 1528 0
 8276 31e8 D920     		movs	r0, #217
 8277 31ea 1921     		movs	r1, #25
 8278 31ec FFF7FEFF 		bl	leer_eeprom
 8279              	.LVL566:
ARM GAS  C:\Users\diego\AppData\Local\Temp\ccvEcbYb.s 			page 180


 8280 31f0 04E0     		b	.L571
 8281              	.L570:
1529:.\protocolo.c **** 						}
1530:.\protocolo.c **** 						else{
1531:.\protocolo.c **** 							leer_eeprom(320,25);
 8282              		.loc 1 1531 0
 8283 31f2 4FF4A070 		mov	r0, #320
 8284 31f6 1921     		movs	r1, #25
 8285 31f8 FFF7FEFF 		bl	leer_eeprom
 8286              	.LVL567:
 8287              	.L571:
1532:.\protocolo.c **** 						}
1533:.\protocolo.c **** 						print_totales(val);
 8288              		.loc 1 1533 0
 8289 31fc 2046     		mov	r0, r4
 8290 31fe FFF7FEFF 		bl	print_totales
 8291              	.LVL568:
1534:.\protocolo.c **** 						for(z=1;z<=12;z++){
 8292              		.loc 1 1534 0
 8293 3202 0122     		movs	r2, #1
 8294 3204 804B     		ldr	r3, .L675+16
 8295 3206 1A60     		str	r2, [r3]
 8296 3208 10E0     		b	.L572
 8297              	.L573:
1535:.\protocolo.c **** 							minuendo[z]=rventa.tdinero[z-1];
 8298              		.loc 1 1535 0 discriminator 3
 8299 320a 804A     		ldr	r2, .L675+20
 8300 320c 1A44     		add	r2, r2, r3
 8301 320e 92F8CA10 		ldrb	r1, [r2, #202]	@ zero_extendqisi2
 8302 3212 10AA     		add	r2, sp, #64
 8303 3214 1A44     		add	r2, r2, r3
 8304 3216 02F82C1C 		strb	r1, [r2, #-44]
1536:.\protocolo.c **** 							sustraendo[z]=buffer_i2c[z+12];
 8305              		.loc 1 1536 0 discriminator 3
 8306 321a 03F10C01 		add	r1, r3, #12
 8307 321e 7C48     		ldr	r0, .L675+24
 8308 3220 415C     		ldrb	r1, [r0, r1]	@ zero_extendqisi2
 8309 3222 02F83C1C 		strb	r1, [r2, #-60]
1534:.\protocolo.c **** 						for(z=1;z<=12;z++){
 8310              		.loc 1 1534 0 discriminator 3
 8311 3226 0133     		adds	r3, r3, #1
 8312 3228 774A     		ldr	r2, .L675+16
 8313 322a 1360     		str	r3, [r2]
 8314              	.L572:
1534:.\protocolo.c **** 						for(z=1;z<=12;z++){
 8315              		.loc 1 1534 0 is_stmt 0 discriminator 1
 8316 322c 764B     		ldr	r3, .L675+16
 8317 322e 1B68     		ldr	r3, [r3]
 8318 3230 0C2B     		cmp	r3, #12
 8319 3232 EAD9     		bls	.L573
1537:.\protocolo.c **** 						}
1538:.\protocolo.c **** 						minuendo[0]=12;
 8320              		.loc 1 1538 0 is_stmt 1
 8321 3234 10A9     		add	r1, sp, #64
 8322 3236 0C23     		movs	r3, #12
 8323 3238 01F82C3D 		strb	r3, [r1, #-44]!
1539:.\protocolo.c **** 						operacion(2,minuendo,sustraendo);
ARM GAS  C:\Users\diego\AppData\Local\Temp\ccvEcbYb.s 			page 181


 8324              		.loc 1 1539 0
 8325 323c 0220     		movs	r0, #2
 8326 323e 01AA     		add	r2, sp, #4
 8327 3240 FFF7FEFF 		bl	operacion
 8328              	.LVL569:
1540:.\protocolo.c **** 						for(x=0;x<=17;x++){									
 8329              		.loc 1 1540 0
 8330 3244 0022     		movs	r2, #0
 8331 3246 6D4B     		ldr	r3, .L675+4
 8332 3248 1A60     		str	r2, [r3]
 8333 324a 0AE0     		b	.L574
 8334              	.L575:
1541:.\protocolo.c **** 							write_psoc1(val,msn_tventas[x]);				//Total de ventas
 8335              		.loc 1 1541 0 discriminator 3
 8336 324c 6A4A     		ldr	r2, .L675
 8337 324e 1344     		add	r3, r3, r2
 8338 3250 2046     		mov	r0, r4
 8339 3252 93F82C10 		ldrb	r1, [r3, #44]	@ zero_extendqisi2
 8340 3256 FFF7FEFF 		bl	write_psoc1
 8341              	.LVL570:
1540:.\protocolo.c **** 						for(x=0;x<=17;x++){									
 8342              		.loc 1 1540 0 discriminator 3
 8343 325a 684A     		ldr	r2, .L675+4
 8344 325c 1368     		ldr	r3, [r2]
 8345 325e 0133     		adds	r3, r3, #1
 8346 3260 1360     		str	r3, [r2]
 8347              	.L574:
1540:.\protocolo.c **** 						for(x=0;x<=17;x++){									
 8348              		.loc 1 1540 0 is_stmt 0 discriminator 1
 8349 3262 664B     		ldr	r3, .L675+4
 8350 3264 1B68     		ldr	r3, [r3]
 8351 3266 112B     		cmp	r3, #17
 8352 3268 F0D9     		bls	.L575
1542:.\protocolo.c **** 						}
1543:.\protocolo.c **** 						print_valor(resultado,val);				
 8353              		.loc 1 1543 0 is_stmt 1
 8354 326a 6A48     		ldr	r0, .L675+28
 8355 326c 2146     		mov	r1, r4
 8356 326e FFF7FEFF 		bl	print_valor
 8357              	.LVL571:
1544:.\protocolo.c **** 						if(dir==a.dir){
 8358              		.loc 1 1544 0
 8359 3272 644B     		ldr	r3, .L675+12
 8360 3274 1B78     		ldrb	r3, [r3]	@ zero_extendqisi2
 8361 3276 AB42     		cmp	r3, r5
 8362 3278 09D1     		bne	.L576
1545:.\protocolo.c **** 							write_eeprom(217,corte);
 8363              		.loc 1 1545 0
 8364 327a D920     		movs	r0, #217
 8365 327c 09A9     		add	r1, sp, #36
 8366 327e FFF7FEFF 		bl	write_eeprom
 8367              	.LVL572:
1546:.\protocolo.c **** 							write_eeprom(538,resultado);
 8368              		.loc 1 1546 0
 8369 3282 40F21A20 		movw	r0, #538
 8370 3286 6349     		ldr	r1, .L675+28
 8371 3288 FFF7FEFF 		bl	write_eeprom
ARM GAS  C:\Users\diego\AppData\Local\Temp\ccvEcbYb.s 			page 182


 8372              	.LVL573:
 8373 328c 09E0     		b	.L561
 8374              	.L576:
1547:.\protocolo.c **** 						}
1548:.\protocolo.c **** 						else{
1549:.\protocolo.c **** 							write_eeprom(320,corte);
 8375              		.loc 1 1549 0
 8376 328e 4FF4A070 		mov	r0, #320
 8377 3292 09A9     		add	r1, sp, #36
 8378 3294 FFF7FEFF 		bl	write_eeprom
 8379              	.LVL574:
1550:.\protocolo.c **** 							write_eeprom(576,resultado);
 8380              		.loc 1 1550 0
 8381 3298 4FF41070 		mov	r0, #576
 8382 329c 5D49     		ldr	r1, .L675+28
 8383 329e FFF7FEFF 		bl	write_eeprom
 8384              	.LVL575:
 8385              	.L561:
1551:.\protocolo.c **** 						}				
1552:.\protocolo.c **** 					}
1553:.\protocolo.c **** 					if(((rventa.manguera==(producto3&0x0F))&&(dir==a.dir))||((rventa.manguera==(producto3b&0x0F))&
 8386              		.loc 1 1553 0
 8387 32a2 5D4B     		ldr	r3, .L675+32
 8388 32a4 93F8E020 		ldrb	r2, [r3, #224]	@ zero_extendqisi2
 8389 32a8 5C4B     		ldr	r3, .L675+36
 8390 32aa 1B78     		ldrb	r3, [r3]	@ zero_extendqisi2
 8391 32ac 03F00F03 		and	r3, r3, #15
 8392 32b0 9342     		cmp	r3, r2
 8393 32b2 03D1     		bne	.L577
 8394              		.loc 1 1553 0 is_stmt 0 discriminator 1
 8395 32b4 534B     		ldr	r3, .L675+12
 8396 32b6 1B78     		ldrb	r3, [r3]	@ zero_extendqisi2
 8397 32b8 AB42     		cmp	r3, r5
 8398 32ba 0BD0     		beq	.L578
 8399              	.L577:
 8400              		.loc 1 1553 0 discriminator 3
 8401 32bc 584B     		ldr	r3, .L675+40
 8402 32be 1B78     		ldrb	r3, [r3]	@ zero_extendqisi2
 8403 32c0 03F00F03 		and	r3, r3, #15
 8404 32c4 9A42     		cmp	r2, r3
 8405 32c6 40F0DD80 		bne	.L579
 8406              		.loc 1 1553 0 discriminator 4
 8407 32ca 564B     		ldr	r3, .L675+44
 8408 32cc 1B78     		ldrb	r3, [r3]	@ zero_extendqisi2
 8409 32ce AB42     		cmp	r3, r5
 8410 32d0 40F0D880 		bne	.L579
 8411              	.L578:
1554:.\protocolo.c **** 						for(x=0;x<=5;x++){									
 8412              		.loc 1 1554 0 is_stmt 1
 8413 32d4 0022     		movs	r2, #0
 8414 32d6 494B     		ldr	r3, .L675+4
 8415 32d8 1A60     		str	r2, [r3]
 8416 32da 08E0     		b	.L580
 8417              	.L581:
1555:.\protocolo.c **** 						    write_psoc1(val,msn_tc[x]);
 8418              		.loc 1 1555 0 discriminator 3
 8419 32dc 2046     		mov	r0, r4
ARM GAS  C:\Users\diego\AppData\Local\Temp\ccvEcbYb.s 			page 183


 8420 32de 464A     		ldr	r2, .L675
 8421 32e0 D15C     		ldrb	r1, [r2, r3]	@ zero_extendqisi2
 8422 32e2 FFF7FEFF 		bl	write_psoc1
 8423              	.LVL576:
1554:.\protocolo.c **** 						for(x=0;x<=5;x++){									
 8424              		.loc 1 1554 0 discriminator 3
 8425 32e6 454A     		ldr	r2, .L675+4
 8426 32e8 1368     		ldr	r3, [r2]
 8427 32ea 0133     		adds	r3, r3, #1
 8428 32ec 1360     		str	r3, [r2]
 8429              	.L580:
1554:.\protocolo.c **** 						for(x=0;x<=5;x++){									
 8430              		.loc 1 1554 0 is_stmt 0 discriminator 1
 8431 32ee 434B     		ldr	r3, .L675+4
 8432 32f0 1B68     		ldr	r3, [r3]
 8433 32f2 052B     		cmp	r3, #5
 8434 32f4 F2D9     		bls	.L581
1556:.\protocolo.c **** 					    }
1557:.\protocolo.c **** 					    write_psoc1(val,10);
 8435              		.loc 1 1557 0 is_stmt 1
 8436 32f6 2046     		mov	r0, r4
 8437 32f8 0A21     		movs	r1, #10
 8438 32fa FFF7FEFF 		bl	write_psoc1
 8439              	.LVL577:
1558:.\protocolo.c ****                         for(x=0;x<=10;x++){									
 8440              		.loc 1 1558 0
 8441 32fe 0022     		movs	r2, #0
 8442 3300 3E4B     		ldr	r3, .L675+4
 8443 3302 1A60     		str	r2, [r3]
 8444 3304 08E0     		b	.L582
 8445              	.L583:
1559:.\protocolo.c **** 						    write_psoc1(val,producto3n[x]);
 8446              		.loc 1 1559 0 discriminator 3
 8447 3306 2046     		mov	r0, r4
 8448 3308 474A     		ldr	r2, .L675+48
 8449 330a D15C     		ldrb	r1, [r2, r3]	@ zero_extendqisi2
 8450 330c FFF7FEFF 		bl	write_psoc1
 8451              	.LVL578:
1558:.\protocolo.c ****                         for(x=0;x<=10;x++){									
 8452              		.loc 1 1558 0 discriminator 3
 8453 3310 3A4A     		ldr	r2, .L675+4
 8454 3312 1368     		ldr	r3, [r2]
 8455 3314 0133     		adds	r3, r3, #1
 8456 3316 1360     		str	r3, [r2]
 8457              	.L582:
1558:.\protocolo.c ****                         for(x=0;x<=10;x++){									
 8458              		.loc 1 1558 0 is_stmt 0 discriminator 1
 8459 3318 384B     		ldr	r3, .L675+4
 8460 331a 1B68     		ldr	r3, [r3]
 8461 331c 0A2B     		cmp	r3, #10
 8462 331e F2D9     		bls	.L583
1560:.\protocolo.c **** 					    }
1561:.\protocolo.c ****                         write_psoc1(val,10);
 8463              		.loc 1 1561 0 is_stmt 1
 8464 3320 2046     		mov	r0, r4
 8465 3322 0A21     		movs	r1, #10
 8466 3324 FFF7FEFF 		bl	write_psoc1
ARM GAS  C:\Users\diego\AppData\Local\Temp\ccvEcbYb.s 			page 184


 8467              	.LVL579:
1562:.\protocolo.c **** 						for(x=0;x<=14;x++){									
 8468              		.loc 1 1562 0
 8469 3328 0022     		movs	r2, #0
 8470 332a 344B     		ldr	r3, .L675+4
 8471 332c 1A60     		str	r2, [r3]
 8472 332e 09E0     		b	.L584
 8473              	.L585:
1563:.\protocolo.c **** 							write_psoc1(val,msn_lecact[x]);				//LECTURA ACTUAL
 8474              		.loc 1 1563 0 discriminator 3
 8475 3330 314A     		ldr	r2, .L675
 8476 3332 1344     		add	r3, r3, r2
 8477 3334 2046     		mov	r0, r4
 8478 3336 197A     		ldrb	r1, [r3, #8]	@ zero_extendqisi2
 8479 3338 FFF7FEFF 		bl	write_psoc1
 8480              	.LVL580:
1562:.\protocolo.c **** 						for(x=0;x<=14;x++){									
 8481              		.loc 1 1562 0 discriminator 3
 8482 333c 2F4A     		ldr	r2, .L675+4
 8483 333e 1368     		ldr	r3, [r2]
 8484 3340 0133     		adds	r3, r3, #1
 8485 3342 1360     		str	r3, [r2]
 8486              	.L584:
1562:.\protocolo.c **** 						for(x=0;x<=14;x++){									
 8487              		.loc 1 1562 0 is_stmt 0 discriminator 1
 8488 3344 2D4B     		ldr	r3, .L675+4
 8489 3346 1B68     		ldr	r3, [r3]
 8490 3348 0E2B     		cmp	r3, #14
 8491 334a F1D9     		bls	.L585
1564:.\protocolo.c **** 						}
1565:.\protocolo.c **** 						write_psoc1(val,10);
 8492              		.loc 1 1565 0 is_stmt 1
 8493 334c 2046     		mov	r0, r4
 8494 334e 0A21     		movs	r1, #10
 8495 3350 FFF7FEFF 		bl	write_psoc1
 8496              	.LVL581:
1566:.\protocolo.c **** 						print_totalesac(12,val);	
 8497              		.loc 1 1566 0
 8498 3354 0C20     		movs	r0, #12
 8499 3356 2146     		mov	r1, r4
 8500 3358 FFF7FEFF 		bl	print_totalesac
 8501              	.LVL582:
1567:.\protocolo.c **** 						for(x=0;x<=16;x++){												
 8502              		.loc 1 1567 0
 8503 335c 0022     		movs	r2, #0
 8504 335e 274B     		ldr	r3, .L675+4
 8505 3360 1A60     		str	r2, [r3]
 8506 3362 09E0     		b	.L586
 8507              	.L587:
1568:.\protocolo.c **** 							write_psoc1(val,msn_lecaan[x]);				//LECTURA ANTERIOR
 8508              		.loc 1 1568 0 discriminator 3
 8509 3364 244A     		ldr	r2, .L675
 8510 3366 1344     		add	r3, r3, r2
 8511 3368 2046     		mov	r0, r4
 8512 336a 197E     		ldrb	r1, [r3, #24]	@ zero_extendqisi2
 8513 336c FFF7FEFF 		bl	write_psoc1
 8514              	.LVL583:
ARM GAS  C:\Users\diego\AppData\Local\Temp\ccvEcbYb.s 			page 185


1567:.\protocolo.c **** 						for(x=0;x<=16;x++){												
 8515              		.loc 1 1567 0 discriminator 3
 8516 3370 224A     		ldr	r2, .L675+4
 8517 3372 1368     		ldr	r3, [r2]
 8518 3374 0133     		adds	r3, r3, #1
 8519 3376 1360     		str	r3, [r2]
 8520              	.L586:
1567:.\protocolo.c **** 						for(x=0;x<=16;x++){												
 8521              		.loc 1 1567 0 is_stmt 0 discriminator 1
 8522 3378 204B     		ldr	r3, .L675+4
 8523 337a 1B68     		ldr	r3, [r3]
 8524 337c 102B     		cmp	r3, #16
 8525 337e F1D9     		bls	.L587
1569:.\protocolo.c **** 						}
1570:.\protocolo.c **** 						write_psoc1(val,10);
 8526              		.loc 1 1570 0 is_stmt 1
 8527 3380 2046     		mov	r0, r4
 8528 3382 0A21     		movs	r1, #10
 8529 3384 FFF7FEFF 		bl	write_psoc1
 8530              	.LVL584:
1571:.\protocolo.c **** 						if(dir==a.dir){
 8531              		.loc 1 1571 0
 8532 3388 1E4B     		ldr	r3, .L675+12
 8533 338a 1B78     		ldrb	r3, [r3]	@ zero_extendqisi2
 8534 338c AB42     		cmp	r3, r5
 8535 338e 05D1     		bne	.L588
1572:.\protocolo.c **** 							leer_eeprom(256,25);
 8536              		.loc 1 1572 0
 8537 3390 4FF48070 		mov	r0, #256
 8538 3394 1921     		movs	r1, #25
 8539 3396 FFF7FEFF 		bl	leer_eeprom
 8540              	.LVL585:
 8541 339a 04E0     		b	.L589
 8542              	.L588:
1573:.\protocolo.c **** 						}
1574:.\protocolo.c **** 						else{
1575:.\protocolo.c **** 							leer_eeprom(345,25);
 8543              		.loc 1 1575 0
 8544 339c 40F25910 		movw	r0, #345
 8545 33a0 1921     		movs	r1, #25
 8546 33a2 FFF7FEFF 		bl	leer_eeprom
 8547              	.LVL586:
 8548              	.L589:
1576:.\protocolo.c **** 						}
1577:.\protocolo.c **** 						print_totales(val);
 8549              		.loc 1 1577 0
 8550 33a6 2046     		mov	r0, r4
 8551 33a8 FFF7FEFF 		bl	print_totales
 8552              	.LVL587:
1578:.\protocolo.c **** 						for(z=1;z<=12;z++){
 8553              		.loc 1 1578 0
 8554 33ac 0122     		movs	r2, #1
 8555 33ae 164B     		ldr	r3, .L675+16
 8556 33b0 1A60     		str	r2, [r3]
 8557 33b2 10E0     		b	.L590
 8558              	.L591:
1579:.\protocolo.c **** 							minuendo[z]=rventa.tdinero[z-1];
ARM GAS  C:\Users\diego\AppData\Local\Temp\ccvEcbYb.s 			page 186


 8559              		.loc 1 1579 0 discriminator 3
 8560 33b4 154A     		ldr	r2, .L675+20
 8561 33b6 1A44     		add	r2, r2, r3
 8562 33b8 92F8CA10 		ldrb	r1, [r2, #202]	@ zero_extendqisi2
 8563 33bc 10AA     		add	r2, sp, #64
 8564 33be 1A44     		add	r2, r2, r3
 8565 33c0 02F82C1C 		strb	r1, [r2, #-44]
1580:.\protocolo.c **** 							sustraendo[z]=buffer_i2c[z+12];
 8566              		.loc 1 1580 0 discriminator 3
 8567 33c4 03F10C01 		add	r1, r3, #12
 8568 33c8 1148     		ldr	r0, .L675+24
 8569 33ca 415C     		ldrb	r1, [r0, r1]	@ zero_extendqisi2
 8570 33cc 02F83C1C 		strb	r1, [r2, #-60]
1578:.\protocolo.c **** 						for(z=1;z<=12;z++){
 8571              		.loc 1 1578 0 discriminator 3
 8572 33d0 0133     		adds	r3, r3, #1
 8573 33d2 0D4A     		ldr	r2, .L675+16
 8574 33d4 1360     		str	r3, [r2]
 8575              	.L590:
1578:.\protocolo.c **** 						for(z=1;z<=12;z++){
 8576              		.loc 1 1578 0 is_stmt 0 discriminator 1
 8577 33d6 0C4B     		ldr	r3, .L675+16
 8578 33d8 1B68     		ldr	r3, [r3]
 8579 33da 0C2B     		cmp	r3, #12
 8580 33dc EAD9     		bls	.L591
1581:.\protocolo.c **** 						}
1582:.\protocolo.c **** 						minuendo[0]=12;
 8581              		.loc 1 1582 0 is_stmt 1
 8582 33de 10A9     		add	r1, sp, #64
 8583 33e0 0C23     		movs	r3, #12
 8584 33e2 01F82C3D 		strb	r3, [r1, #-44]!
1583:.\protocolo.c **** 						operacion(2,minuendo,sustraendo);
 8585              		.loc 1 1583 0
 8586 33e6 0220     		movs	r0, #2
 8587 33e8 01AA     		add	r2, sp, #4
 8588 33ea FFF7FEFF 		bl	operacion
 8589              	.LVL588:
1584:.\protocolo.c **** 						for(x=0;x<=17;x++){									
 8590              		.loc 1 1584 0
 8591 33ee 0022     		movs	r2, #0
 8592 33f0 024B     		ldr	r3, .L675+4
 8593 33f2 1A60     		str	r2, [r3]
 8594 33f4 25E0     		b	.L592
 8595              	.L676:
 8596 33f6 00BF     		.align	2
 8597              	.L675:
 8598 33f8 00000000 		.word	.LANCHOR1
 8599 33fc 00000000 		.word	x
 8600 3400 00000000 		.word	producto2n
 8601 3404 00000000 		.word	a
 8602 3408 00000000 		.word	z
 8603 340c FFFFFFFF 		.word	rventa-1
 8604 3410 00000000 		.word	buffer_i2c
 8605 3414 00000000 		.word	resultado
 8606 3418 00000000 		.word	rventa
 8607 341c 00000000 		.word	producto3
 8608 3420 00000000 		.word	producto3b
ARM GAS  C:\Users\diego\AppData\Local\Temp\ccvEcbYb.s 			page 187


 8609 3424 00000000 		.word	b
 8610 3428 00000000 		.word	producto3n
 8611              	.L593:
1585:.\protocolo.c **** 							write_psoc1(val,msn_tventas[x]);				//Total de ventas
 8612              		.loc 1 1585 0 discriminator 3
 8613 342c AA4A     		ldr	r2, .L677
 8614 342e 1344     		add	r3, r3, r2
 8615 3430 2046     		mov	r0, r4
 8616 3432 93F82C10 		ldrb	r1, [r3, #44]	@ zero_extendqisi2
 8617 3436 FFF7FEFF 		bl	write_psoc1
 8618              	.LVL589:
1584:.\protocolo.c **** 						for(x=0;x<=17;x++){									
 8619              		.loc 1 1584 0 discriminator 3
 8620 343a A84A     		ldr	r2, .L677+4
 8621 343c 1368     		ldr	r3, [r2]
 8622 343e 0133     		adds	r3, r3, #1
 8623 3440 1360     		str	r3, [r2]
 8624              	.L592:
1584:.\protocolo.c **** 						for(x=0;x<=17;x++){									
 8625              		.loc 1 1584 0 is_stmt 0 discriminator 1
 8626 3442 A64B     		ldr	r3, .L677+4
 8627 3444 1B68     		ldr	r3, [r3]
 8628 3446 112B     		cmp	r3, #17
 8629 3448 F0D9     		bls	.L593
1586:.\protocolo.c **** 						}
1587:.\protocolo.c **** 						print_valor(resultado,val);							
 8630              		.loc 1 1587 0 is_stmt 1
 8631 344a A548     		ldr	r0, .L677+8
 8632 344c 2146     		mov	r1, r4
 8633 344e FFF7FEFF 		bl	print_valor
 8634              	.LVL590:
1588:.\protocolo.c **** 						if(dir==a.dir){
 8635              		.loc 1 1588 0
 8636 3452 A44B     		ldr	r3, .L677+12
 8637 3454 1B78     		ldrb	r3, [r3]	@ zero_extendqisi2
 8638 3456 AB42     		cmp	r3, r5
 8639 3458 0AD1     		bne	.L594
1589:.\protocolo.c **** 							write_eeprom(256,corte);
 8640              		.loc 1 1589 0
 8641 345a 4FF48070 		mov	r0, #256
 8642 345e 09A9     		add	r1, sp, #36
 8643 3460 FFF7FEFF 		bl	write_eeprom
 8644              	.LVL591:
1590:.\protocolo.c **** 							write_eeprom(525,resultado);
 8645              		.loc 1 1590 0
 8646 3464 40F20D20 		movw	r0, #525
 8647 3468 9D49     		ldr	r1, .L677+8
 8648 346a FFF7FEFF 		bl	write_eeprom
 8649              	.LVL592:
 8650 346e 09E0     		b	.L579
 8651              	.L594:
1591:.\protocolo.c **** 						}
1592:.\protocolo.c **** 						else{
1593:.\protocolo.c **** 							write_eeprom(345,corte);
 8652              		.loc 1 1593 0
 8653 3470 40F25910 		movw	r0, #345
 8654 3474 09A9     		add	r1, sp, #36
ARM GAS  C:\Users\diego\AppData\Local\Temp\ccvEcbYb.s 			page 188


 8655 3476 FFF7FEFF 		bl	write_eeprom
 8656              	.LVL593:
1594:.\protocolo.c **** 							write_eeprom(589,resultado);
 8657              		.loc 1 1594 0
 8658 347a 40F24D20 		movw	r0, #589
 8659 347e 9849     		ldr	r1, .L677+8
 8660 3480 FFF7FEFF 		bl	write_eeprom
 8661              	.LVL594:
 8662              	.L579:
1595:.\protocolo.c **** 						}					
1596:.\protocolo.c **** 					}
1597:.\protocolo.c ****                     
1598:.\protocolo.c ****                     if(((rventa.manguera==(producto4&0x0F))&&(dir==a.dir))||((rventa.manguera==(pro
 8663              		.loc 1 1598 0
 8664 3484 984B     		ldr	r3, .L677+16
 8665 3486 93F8E020 		ldrb	r2, [r3, #224]	@ zero_extendqisi2
 8666 348a 984B     		ldr	r3, .L677+20
 8667 348c 1B78     		ldrb	r3, [r3]	@ zero_extendqisi2
 8668 348e 03F00F03 		and	r3, r3, #15
 8669 3492 9342     		cmp	r3, r2
 8670 3494 03D1     		bne	.L595
 8671              		.loc 1 1598 0 is_stmt 0 discriminator 1
 8672 3496 934B     		ldr	r3, .L677+12
 8673 3498 1B78     		ldrb	r3, [r3]	@ zero_extendqisi2
 8674 349a AB42     		cmp	r3, r5
 8675 349c 0BD0     		beq	.L596
 8676              	.L595:
 8677              		.loc 1 1598 0 discriminator 3
 8678 349e 944B     		ldr	r3, .L677+24
 8679 34a0 1B78     		ldrb	r3, [r3]	@ zero_extendqisi2
 8680 34a2 03F00F03 		and	r3, r3, #15
 8681 34a6 9A42     		cmp	r2, r3
 8682 34a8 40F0C280 		bne	.L597
 8683              		.loc 1 1598 0 discriminator 4
 8684 34ac 914B     		ldr	r3, .L677+28
 8685 34ae 1B78     		ldrb	r3, [r3]	@ zero_extendqisi2
 8686 34b0 AB42     		cmp	r3, r5
 8687 34b2 40F0BD80 		bne	.L597
 8688              	.L596:
1599:.\protocolo.c **** 						for(x=0;x<=5;x++){									
 8689              		.loc 1 1599 0 is_stmt 1
 8690 34b6 0022     		movs	r2, #0
 8691 34b8 884B     		ldr	r3, .L677+4
 8692 34ba 1A60     		str	r2, [r3]
 8693 34bc 08E0     		b	.L598
 8694              	.L599:
1600:.\protocolo.c **** 						    write_psoc1(val,msn_tc[x]);
 8695              		.loc 1 1600 0 discriminator 3
 8696 34be 2046     		mov	r0, r4
 8697 34c0 854A     		ldr	r2, .L677
 8698 34c2 D15C     		ldrb	r1, [r2, r3]	@ zero_extendqisi2
 8699 34c4 FFF7FEFF 		bl	write_psoc1
 8700              	.LVL595:
1599:.\protocolo.c **** 						for(x=0;x<=5;x++){									
 8701              		.loc 1 1599 0 discriminator 3
 8702 34c8 844A     		ldr	r2, .L677+4
 8703 34ca 1368     		ldr	r3, [r2]
ARM GAS  C:\Users\diego\AppData\Local\Temp\ccvEcbYb.s 			page 189


 8704 34cc 0133     		adds	r3, r3, #1
 8705 34ce 1360     		str	r3, [r2]
 8706              	.L598:
1599:.\protocolo.c **** 						for(x=0;x<=5;x++){									
 8707              		.loc 1 1599 0 is_stmt 0 discriminator 1
 8708 34d0 824B     		ldr	r3, .L677+4
 8709 34d2 1B68     		ldr	r3, [r3]
 8710 34d4 052B     		cmp	r3, #5
 8711 34d6 F2D9     		bls	.L599
1601:.\protocolo.c **** 					    }
1602:.\protocolo.c **** 					    write_psoc1(val,10);
 8712              		.loc 1 1602 0 is_stmt 1
 8713 34d8 2046     		mov	r0, r4
 8714 34da 0A21     		movs	r1, #10
 8715 34dc FFF7FEFF 		bl	write_psoc1
 8716              	.LVL596:
1603:.\protocolo.c ****                         for(x=0;x<=10;x++){									
 8717              		.loc 1 1603 0
 8718 34e0 0022     		movs	r2, #0
 8719 34e2 7E4B     		ldr	r3, .L677+4
 8720 34e4 1A60     		str	r2, [r3]
 8721 34e6 08E0     		b	.L600
 8722              	.L601:
1604:.\protocolo.c **** 						    write_psoc1(val,producto4n[x]);
 8723              		.loc 1 1604 0 discriminator 3
 8724 34e8 2046     		mov	r0, r4
 8725 34ea 834A     		ldr	r2, .L677+32
 8726 34ec D15C     		ldrb	r1, [r2, r3]	@ zero_extendqisi2
 8727 34ee FFF7FEFF 		bl	write_psoc1
 8728              	.LVL597:
1603:.\protocolo.c ****                         for(x=0;x<=10;x++){									
 8729              		.loc 1 1603 0 discriminator 3
 8730 34f2 7A4A     		ldr	r2, .L677+4
 8731 34f4 1368     		ldr	r3, [r2]
 8732 34f6 0133     		adds	r3, r3, #1
 8733 34f8 1360     		str	r3, [r2]
 8734              	.L600:
1603:.\protocolo.c ****                         for(x=0;x<=10;x++){									
 8735              		.loc 1 1603 0 is_stmt 0 discriminator 1
 8736 34fa 784B     		ldr	r3, .L677+4
 8737 34fc 1B68     		ldr	r3, [r3]
 8738 34fe 0A2B     		cmp	r3, #10
 8739 3500 F2D9     		bls	.L601
1605:.\protocolo.c **** 					    }
1606:.\protocolo.c ****                         write_psoc1(val,10);
 8740              		.loc 1 1606 0 is_stmt 1
 8741 3502 2046     		mov	r0, r4
 8742 3504 0A21     		movs	r1, #10
 8743 3506 FFF7FEFF 		bl	write_psoc1
 8744              	.LVL598:
1607:.\protocolo.c **** 						for(x=0;x<=14;x++){									
 8745              		.loc 1 1607 0
 8746 350a 0022     		movs	r2, #0
 8747 350c 734B     		ldr	r3, .L677+4
 8748 350e 1A60     		str	r2, [r3]
 8749 3510 09E0     		b	.L602
 8750              	.L603:
ARM GAS  C:\Users\diego\AppData\Local\Temp\ccvEcbYb.s 			page 190


1608:.\protocolo.c **** 							write_psoc1(val,msn_lecact[x]);				//LECTURA ACTUAL
 8751              		.loc 1 1608 0 discriminator 3
 8752 3512 714A     		ldr	r2, .L677
 8753 3514 1344     		add	r3, r3, r2
 8754 3516 2046     		mov	r0, r4
 8755 3518 197A     		ldrb	r1, [r3, #8]	@ zero_extendqisi2
 8756 351a FFF7FEFF 		bl	write_psoc1
 8757              	.LVL599:
1607:.\protocolo.c **** 						for(x=0;x<=14;x++){									
 8758              		.loc 1 1607 0 discriminator 3
 8759 351e 6F4A     		ldr	r2, .L677+4
 8760 3520 1368     		ldr	r3, [r2]
 8761 3522 0133     		adds	r3, r3, #1
 8762 3524 1360     		str	r3, [r2]
 8763              	.L602:
1607:.\protocolo.c **** 						for(x=0;x<=14;x++){									
 8764              		.loc 1 1607 0 is_stmt 0 discriminator 1
 8765 3526 6D4B     		ldr	r3, .L677+4
 8766 3528 1B68     		ldr	r3, [r3]
 8767 352a 0E2B     		cmp	r3, #14
 8768 352c F1D9     		bls	.L603
1609:.\protocolo.c **** 						}
1610:.\protocolo.c **** 						write_psoc1(val,10);
 8769              		.loc 1 1610 0 is_stmt 1
 8770 352e 2046     		mov	r0, r4
 8771 3530 0A21     		movs	r1, #10
 8772 3532 FFF7FEFF 		bl	write_psoc1
 8773              	.LVL600:
1611:.\protocolo.c **** 						print_totalesac(12,val);	
 8774              		.loc 1 1611 0
 8775 3536 0C20     		movs	r0, #12
 8776 3538 2146     		mov	r1, r4
 8777 353a FFF7FEFF 		bl	print_totalesac
 8778              	.LVL601:
1612:.\protocolo.c **** 						for(x=0;x<=16;x++){												
 8779              		.loc 1 1612 0
 8780 353e 0022     		movs	r2, #0
 8781 3540 664B     		ldr	r3, .L677+4
 8782 3542 1A60     		str	r2, [r3]
 8783 3544 09E0     		b	.L604
 8784              	.L605:
1613:.\protocolo.c **** 							write_psoc1(val,msn_lecaan[x]);				//LECTURA ANTERIOR
 8785              		.loc 1 1613 0 discriminator 3
 8786 3546 644A     		ldr	r2, .L677
 8787 3548 1344     		add	r3, r3, r2
 8788 354a 2046     		mov	r0, r4
 8789 354c 197E     		ldrb	r1, [r3, #24]	@ zero_extendqisi2
 8790 354e FFF7FEFF 		bl	write_psoc1
 8791              	.LVL602:
1612:.\protocolo.c **** 						for(x=0;x<=16;x++){												
 8792              		.loc 1 1612 0 discriminator 3
 8793 3552 624A     		ldr	r2, .L677+4
 8794 3554 1368     		ldr	r3, [r2]
 8795 3556 0133     		adds	r3, r3, #1
 8796 3558 1360     		str	r3, [r2]
 8797              	.L604:
1612:.\protocolo.c **** 						for(x=0;x<=16;x++){												
ARM GAS  C:\Users\diego\AppData\Local\Temp\ccvEcbYb.s 			page 191


 8798              		.loc 1 1612 0 is_stmt 0 discriminator 1
 8799 355a 604B     		ldr	r3, .L677+4
 8800 355c 1B68     		ldr	r3, [r3]
 8801 355e 102B     		cmp	r3, #16
 8802 3560 F1D9     		bls	.L605
1614:.\protocolo.c **** 						}
1615:.\protocolo.c **** 						write_psoc1(val,10);
 8803              		.loc 1 1615 0 is_stmt 1
 8804 3562 2046     		mov	r0, r4
 8805 3564 0A21     		movs	r1, #10
 8806 3566 FFF7FEFF 		bl	write_psoc1
 8807              	.LVL603:
1616:.\protocolo.c **** 						if(dir==a.dir){
 8808              		.loc 1 1616 0
 8809 356a 5E4B     		ldr	r3, .L677+12
 8810 356c 1B78     		ldrb	r3, [r3]	@ zero_extendqisi2
 8811 356e AB42     		cmp	r3, r5
 8812 3570 05D1     		bne	.L606
1617:.\protocolo.c **** 							leer_eeprom(1096,25);
 8813              		.loc 1 1617 0
 8814 3572 4FF48960 		mov	r0, #1096
 8815 3576 1921     		movs	r1, #25
 8816 3578 FFF7FEFF 		bl	leer_eeprom
 8817              	.LVL604:
 8818 357c 04E0     		b	.L607
 8819              	.L606:
1618:.\protocolo.c **** 						}
1619:.\protocolo.c **** 						else{
1620:.\protocolo.c **** 							leer_eeprom(1054,25);
 8820              		.loc 1 1620 0
 8821 357e 40F21E40 		movw	r0, #1054
 8822 3582 1921     		movs	r1, #25
 8823 3584 FFF7FEFF 		bl	leer_eeprom
 8824              	.LVL605:
 8825              	.L607:
1621:.\protocolo.c **** 						}
1622:.\protocolo.c **** 						print_totales(val);
 8826              		.loc 1 1622 0
 8827 3588 2046     		mov	r0, r4
 8828 358a FFF7FEFF 		bl	print_totales
 8829              	.LVL606:
1623:.\protocolo.c **** 						for(z=1;z<=12;z++){
 8830              		.loc 1 1623 0
 8831 358e 0122     		movs	r2, #1
 8832 3590 5A4B     		ldr	r3, .L677+36
 8833 3592 1A60     		str	r2, [r3]
 8834 3594 10E0     		b	.L608
 8835              	.L609:
1624:.\protocolo.c **** 							minuendo[z]=rventa.tdinero[z-1];
 8836              		.loc 1 1624 0 discriminator 3
 8837 3596 5A4A     		ldr	r2, .L677+40
 8838 3598 1A44     		add	r2, r2, r3
 8839 359a 92F8CA10 		ldrb	r1, [r2, #202]	@ zero_extendqisi2
 8840 359e 10AA     		add	r2, sp, #64
 8841 35a0 1A44     		add	r2, r2, r3
 8842 35a2 02F82C1C 		strb	r1, [r2, #-44]
1625:.\protocolo.c **** 							sustraendo[z]=buffer_i2c[z+12];
ARM GAS  C:\Users\diego\AppData\Local\Temp\ccvEcbYb.s 			page 192


 8843              		.loc 1 1625 0 discriminator 3
 8844 35a6 03F10C01 		add	r1, r3, #12
 8845 35aa 5648     		ldr	r0, .L677+44
 8846 35ac 415C     		ldrb	r1, [r0, r1]	@ zero_extendqisi2
 8847 35ae 02F83C1C 		strb	r1, [r2, #-60]
1623:.\protocolo.c **** 						for(z=1;z<=12;z++){
 8848              		.loc 1 1623 0 discriminator 3
 8849 35b2 0133     		adds	r3, r3, #1
 8850 35b4 514A     		ldr	r2, .L677+36
 8851 35b6 1360     		str	r3, [r2]
 8852              	.L608:
1623:.\protocolo.c **** 						for(z=1;z<=12;z++){
 8853              		.loc 1 1623 0 is_stmt 0 discriminator 1
 8854 35b8 504B     		ldr	r3, .L677+36
 8855 35ba 1B68     		ldr	r3, [r3]
 8856 35bc 0C2B     		cmp	r3, #12
 8857 35be EAD9     		bls	.L609
1626:.\protocolo.c **** 						}
1627:.\protocolo.c **** 						minuendo[0]=12;
 8858              		.loc 1 1627 0 is_stmt 1
 8859 35c0 10A9     		add	r1, sp, #64
 8860 35c2 0C23     		movs	r3, #12
 8861 35c4 01F82C3D 		strb	r3, [r1, #-44]!
1628:.\protocolo.c **** 						operacion(2,minuendo,sustraendo);
 8862              		.loc 1 1628 0
 8863 35c8 0220     		movs	r0, #2
 8864 35ca 01AA     		add	r2, sp, #4
 8865 35cc FFF7FEFF 		bl	operacion
 8866              	.LVL607:
1629:.\protocolo.c **** 						for(x=0;x<=17;x++){									
 8867              		.loc 1 1629 0
 8868 35d0 0022     		movs	r2, #0
 8869 35d2 424B     		ldr	r3, .L677+4
 8870 35d4 1A60     		str	r2, [r3]
 8871 35d6 0AE0     		b	.L610
 8872              	.L611:
1630:.\protocolo.c **** 							write_psoc1(val,msn_tventas[x]);				//Total de ventas
 8873              		.loc 1 1630 0 discriminator 3
 8874 35d8 3F4A     		ldr	r2, .L677
 8875 35da 1344     		add	r3, r3, r2
 8876 35dc 2046     		mov	r0, r4
 8877 35de 93F82C10 		ldrb	r1, [r3, #44]	@ zero_extendqisi2
 8878 35e2 FFF7FEFF 		bl	write_psoc1
 8879              	.LVL608:
1629:.\protocolo.c **** 						for(x=0;x<=17;x++){									
 8880              		.loc 1 1629 0 discriminator 3
 8881 35e6 3D4A     		ldr	r2, .L677+4
 8882 35e8 1368     		ldr	r3, [r2]
 8883 35ea 0133     		adds	r3, r3, #1
 8884 35ec 1360     		str	r3, [r2]
 8885              	.L610:
1629:.\protocolo.c **** 						for(x=0;x<=17;x++){									
 8886              		.loc 1 1629 0 is_stmt 0 discriminator 1
 8887 35ee 3B4B     		ldr	r3, .L677+4
 8888 35f0 1B68     		ldr	r3, [r3]
 8889 35f2 112B     		cmp	r3, #17
 8890 35f4 F0D9     		bls	.L611
ARM GAS  C:\Users\diego\AppData\Local\Temp\ccvEcbYb.s 			page 193


1631:.\protocolo.c **** 						}
1632:.\protocolo.c **** 						print_valor(resultado,val);							
 8891              		.loc 1 1632 0 is_stmt 1
 8892 35f6 3A48     		ldr	r0, .L677+8
 8893 35f8 2146     		mov	r1, r4
 8894 35fa FFF7FEFF 		bl	print_valor
 8895              	.LVL609:
1633:.\protocolo.c **** 						if(dir==a.dir){
 8896              		.loc 1 1633 0
 8897 35fe 394B     		ldr	r3, .L677+12
 8898 3600 1B78     		ldrb	r3, [r3]	@ zero_extendqisi2
 8899 3602 AB42     		cmp	r3, r5
 8900 3604 0AD1     		bne	.L612
1634:.\protocolo.c **** 						    write_eeprom(1096,corte);
 8901              		.loc 1 1634 0
 8902 3606 4FF48960 		mov	r0, #1096
 8903 360a 09A9     		add	r1, sp, #36
 8904 360c FFF7FEFF 		bl	write_eeprom
 8905              	.LVL610:
1635:.\protocolo.c **** 						    write_eeprom(1038,resultado);
 8906              		.loc 1 1635 0
 8907 3610 40F20E40 		movw	r0, #1038
 8908 3614 3249     		ldr	r1, .L677+8
 8909 3616 FFF7FEFF 		bl	write_eeprom
 8910              	.LVL611:
 8911 361a 09E0     		b	.L597
 8912              	.L612:
1636:.\protocolo.c **** 					    }
1637:.\protocolo.c **** 					    else{
1638:.\protocolo.c **** 						    write_eeprom(1054,corte);
 8913              		.loc 1 1638 0
 8914 361c 40F21E40 		movw	r0, #1054
 8915 3620 09A9     		add	r1, sp, #36
 8916 3622 FFF7FEFF 		bl	write_eeprom
 8917              	.LVL612:
1639:.\protocolo.c **** 						    write_eeprom(1081,resultado);
 8918              		.loc 1 1639 0
 8919 3626 40F23940 		movw	r0, #1081
 8920 362a 2D49     		ldr	r1, .L677+8
 8921 362c FFF7FEFF 		bl	write_eeprom
 8922              	.LVL613:
 8923              	.L597:
1450:.\protocolo.c **** 					rventa.manguera=(Surtidor_rxBuffer[y+2]&0x0F)+1;
 8924              		.loc 1 1450 0 discriminator 2
 8925 3630 354A     		ldr	r2, .L677+48
 8926 3632 1368     		ldr	r3, [r2]
 8927 3634 2A33     		adds	r3, r3, #42
 8928 3636 1360     		str	r3, [r2]
 8929              	.L528:
1450:.\protocolo.c **** 					rventa.manguera=(Surtidor_rxBuffer[y+2]&0x0F)+1;
 8930              		.loc 1 1450 0 is_stmt 0 discriminator 1
 8931 3638 334B     		ldr	r3, .L677+48
 8932 363a 1E68     		ldr	r6, [r3]
 8933 363c 542E     		cmp	r6, #84
 8934 363e 7FF6CFAB 		bls	.L613
1640:.\protocolo.c **** 				        }					
1641:.\protocolo.c **** 					}
ARM GAS  C:\Users\diego\AppData\Local\Temp\ccvEcbYb.s 			page 194


1642:.\protocolo.c **** 				}
1643:.\protocolo.c **** 				Surtidor_ClearRxBuffer();
 8935              		.loc 1 1643 0 is_stmt 1
 8936 3642 FFF7FEFF 		bl	Surtidor_ClearRxBuffer
 8937              	.LVL614:
1644:.\protocolo.c **** 				return 3;					
 8938              		.loc 1 1644 0
 8939 3646 0320     		movs	r0, #3
 8940 3648 43E0     		b	.L78
 8941              	.LVL615:
 8942              	.L70:
1645:.\protocolo.c **** 			}			
1646:.\protocolo.c **** 			else{
1647:.\protocolo.c **** 				return 0;
1648:.\protocolo.c **** 			}			
1649:.\protocolo.c **** 		break;
1650:.\protocolo.c **** 			
1651:.\protocolo.c **** 		default:
1652:.\protocolo.c ****             for(x=0;x<15;x++){									
 8943              		.loc 1 1652 0
 8944 364a 0022     		movs	r2, #0
 8945 364c 234B     		ldr	r3, .L677+4
 8946 364e 1A60     		str	r2, [r3]
 8947 3650 0AE0     		b	.L614
 8948              	.LVL616:
 8949              	.L615:
1653:.\protocolo.c **** 				write_psoc1(val,msn_totalcero[x]);				//Total de ventas
 8950              		.loc 1 1653 0 discriminator 3
 8951 3652 214A     		ldr	r2, .L677
 8952 3654 1344     		add	r3, r3, r2
 8953 3656 2046     		mov	r0, r4
 8954 3658 93F84010 		ldrb	r1, [r3, #64]	@ zero_extendqisi2
 8955 365c FFF7FEFF 		bl	write_psoc1
 8956              	.LVL617:
1652:.\protocolo.c **** 				write_psoc1(val,msn_totalcero[x]);				//Total de ventas
 8957              		.loc 1 1652 0 discriminator 3
 8958 3660 1E4A     		ldr	r2, .L677+4
 8959 3662 1368     		ldr	r3, [r2]
 8960 3664 0133     		adds	r3, r3, #1
 8961 3666 1360     		str	r3, [r2]
 8962              	.L614:
1652:.\protocolo.c **** 				write_psoc1(val,msn_totalcero[x]);				//Total de ventas
 8963              		.loc 1 1652 0 is_stmt 0 discriminator 1
 8964 3668 1C4B     		ldr	r3, .L677+4
 8965 366a 1B68     		ldr	r3, [r3]
 8966 366c 0E2B     		cmp	r3, #14
 8967 366e F0D9     		bls	.L615
1654:.\protocolo.c **** 			}
1655:.\protocolo.c **** 			return 0;	
 8968              		.loc 1 1655 0 is_stmt 1
 8969 3670 0020     		movs	r0, #0
 8970 3672 2EE0     		b	.L78
 8971              	.LVL618:
 8972              	.L616:
 575:.\protocolo.c **** 			}
 8973              		.loc 1 575 0
 8974 3674 0020     		movs	r0, #0
ARM GAS  C:\Users\diego\AppData\Local\Temp\ccvEcbYb.s 			page 195


 8975              	.LVL619:
 8976 3676 2CE0     		b	.L78
 8977              	.LVL620:
 8978              	.L617:
 8979 3678 0020     		movs	r0, #0
 8980              	.LVL621:
 8981 367a 2AE0     		b	.L78
 8982              	.LVL622:
 8983              	.L618:
 8984 367c 0020     		movs	r0, #0
 8985              	.LVL623:
 8986 367e 28E0     		b	.L78
 8987              	.LVL624:
 8988              	.L619:
 8989 3680 0020     		movs	r0, #0
 8990              	.LVL625:
 8991 3682 26E0     		b	.L78
 8992              	.LVL626:
 8993              	.L620:
 779:.\protocolo.c **** 			}
 8994              		.loc 1 779 0
 8995 3684 0020     		movs	r0, #0
 8996              	.LVL627:
 8997 3686 24E0     		b	.L78
 8998              	.LVL628:
 8999              	.L621:
 9000 3688 0020     		movs	r0, #0
 9001              	.LVL629:
 9002 368a 22E0     		b	.L78
 9003              	.LVL630:
 9004              	.L622:
 9005 368c 0020     		movs	r0, #0
 9006              	.LVL631:
 9007 368e 20E0     		b	.L78
 9008              	.LVL632:
 9009              	.L623:
 9010 3690 0020     		movs	r0, #0
 9011              	.LVL633:
 9012 3692 1EE0     		b	.L78
 9013              	.LVL634:
 9014              	.L624:
 983:.\protocolo.c **** 			}			
 9015              		.loc 1 983 0
 9016 3694 0020     		movs	r0, #0
 9017              	.LVL635:
 9018 3696 1CE0     		b	.L78
 9019              	.LVL636:
 9020              	.L625:
 9021 3698 0020     		movs	r0, #0
 9022              	.LVL637:
 9023 369a 1AE0     		b	.L78
 9024              	.LVL638:
 9025              	.L626:
 9026 369c 0020     		movs	r0, #0
 9027              	.LVL639:
 9028 369e 18E0     		b	.L78
 9029              	.LVL640:
ARM GAS  C:\Users\diego\AppData\Local\Temp\ccvEcbYb.s 			page 196


 9030              	.L627:
 9031 36a0 0020     		movs	r0, #0
 9032              	.LVL641:
 9033 36a2 16E0     		b	.L78
 9034              	.LVL642:
 9035              	.L628:
1240:.\protocolo.c **** 			}			
 9036              		.loc 1 1240 0
 9037 36a4 0020     		movs	r0, #0
 9038              	.LVL643:
 9039 36a6 14E0     		b	.L78
 9040              	.LVL644:
 9041              	.L629:
 9042 36a8 0020     		movs	r0, #0
 9043              	.LVL645:
 9044 36aa 12E0     		b	.L78
 9045              	.LVL646:
 9046              	.L630:
 9047 36ac 0020     		movs	r0, #0
 9048              	.LVL647:
 9049 36ae 10E0     		b	.L78
 9050              	.LVL648:
 9051              	.L631:
 9052 36b0 0020     		movs	r0, #0
 9053              	.LVL649:
 9054 36b2 0EE0     		b	.L78
 9055              	.LVL650:
 9056              	.L632:
1444:.\protocolo.c **** 			}			
 9057              		.loc 1 1444 0
 9058 36b4 0020     		movs	r0, #0
 9059              	.LVL651:
 9060 36b6 0CE0     		b	.L78
 9061              	.LVL652:
 9062              	.L633:
 9063 36b8 0020     		movs	r0, #0
 9064              	.LVL653:
 9065 36ba 0AE0     		b	.L78
 9066              	.LVL654:
 9067              	.L634:
 9068 36bc 0020     		movs	r0, #0
 9069              	.LVL655:
 9070 36be 08E0     		b	.L78
 9071              	.LVL656:
 9072              	.L635:
 9073 36c0 0020     		movs	r0, #0
 9074              	.LVL657:
 9075 36c2 06E0     		b	.L78
 9076              	.LVL658:
 9077              	.L636:
1647:.\protocolo.c **** 			}			
 9078              		.loc 1 1647 0
 9079 36c4 0020     		movs	r0, #0
 9080              	.LVL659:
 9081 36c6 04E0     		b	.L78
 9082              	.LVL660:
 9083              	.L637:
ARM GAS  C:\Users\diego\AppData\Local\Temp\ccvEcbYb.s 			page 197


 9084 36c8 0020     		movs	r0, #0
 9085              	.LVL661:
 9086 36ca 02E0     		b	.L78
 9087              	.LVL662:
 9088              	.L638:
 9089 36cc 0020     		movs	r0, #0
 9090              	.LVL663:
 9091 36ce 00E0     		b	.L78
 9092              	.LVL664:
 9093              	.L639:
 9094 36d0 0020     		movs	r0, #0
 9095              	.LVL665:
 9096              	.L78:
1656:.\protocolo.c **** 		break;	
1657:.\protocolo.c **** 	}		
1658:.\protocolo.c **** }
 9097              		.loc 1 1658 0
 9098 36d2 10B0     		add	sp, sp, #64
 9099              		.cfi_def_cfa_offset 16
 9100              		@ sp needed
 9101 36d4 70BD     		pop	{r4, r5, r6, pc}
 9102              	.L678:
 9103 36d6 00BF     		.align	2
 9104              	.L677:
 9105 36d8 00000000 		.word	.LANCHOR1
 9106 36dc 00000000 		.word	x
 9107 36e0 00000000 		.word	resultado
 9108 36e4 00000000 		.word	a
 9109 36e8 00000000 		.word	rventa
 9110 36ec 00000000 		.word	producto4
 9111 36f0 00000000 		.word	producto4b
 9112 36f4 00000000 		.word	b
 9113 36f8 00000000 		.word	producto4n
 9114 36fc 00000000 		.word	z
 9115 3700 FFFFFFFF 		.word	rventa-1
 9116 3704 00000000 		.word	buffer_i2c
 9117 3708 00000000 		.word	y
 9118              		.cfi_endproc
 9119              	.LFE67:
 9120              		.size	get_totales, .-get_totales
 9121              		.section	.text.programar,"ax",%progbits
 9122              		.align	2
 9123              		.global	programar
 9124              		.thumb
 9125              		.thumb_func
 9126              		.type	programar, %function
 9127              	programar:
 9128              	.LFB68:
1659:.\protocolo.c **** 
1660:.\protocolo.c **** /*
1661:.\protocolo.c **** ***************************************************************************************************
1662:.\protocolo.c **** *                                         uint8 programar(uint8 dir)
1663:.\protocolo.c **** *
1664:.\protocolo.c **** * Description : 
1665:.\protocolo.c **** *               
1666:.\protocolo.c **** *
1667:.\protocolo.c **** * Argument(s) : none
ARM GAS  C:\Users\diego\AppData\Local\Temp\ccvEcbYb.s 			page 198


1668:.\protocolo.c **** *
1669:.\protocolo.c **** * Return(s)   : none
1670:.\protocolo.c **** *
1671:.\protocolo.c **** * Caller(s)   : 
1672:.\protocolo.c **** *
1673:.\protocolo.c **** * Note(s)     : none.
1674:.\protocolo.c **** ***************************************************************************************************
1675:.\protocolo.c **** */
1676:.\protocolo.c **** uint8 programar(uint8 dir, uint8 grado, uint8 *valor, uint8 preset){
 9129              		.loc 1 1676 0
 9130              		.cfi_startproc
 9131              		@ args = 0, pretend = 0, frame = 24
 9132              		@ frame_needed = 0, uses_anonymous_args = 0
 9133              	.LVL666:
 9134 0000 2DE9F041 		push	{r4, r5, r6, r7, r8, lr}
 9135              		.cfi_def_cfa_offset 24
 9136              		.cfi_offset 4, -24
 9137              		.cfi_offset 5, -20
 9138              		.cfi_offset 6, -16
 9139              		.cfi_offset 7, -12
 9140              		.cfi_offset 8, -8
 9141              		.cfi_offset 14, -4
 9142 0004 86B0     		sub	sp, sp, #24
 9143              		.cfi_def_cfa_offset 48
1677:.\protocolo.c **** 	uint8 buffer[18]={0,0,0,0,0,0,0,0,0,0,0,0,0,0,0,0,0,0},size,temp,i,j,decimal=0;
 9144              		.loc 1 1677 0
 9145 0006 0024     		movs	r4, #0
 9146 0008 0194     		str	r4, [sp, #4]
 9147 000a 0294     		str	r4, [sp, #8]
 9148 000c 0394     		str	r4, [sp, #12]
 9149 000e 0494     		str	r4, [sp, #16]
 9150 0010 ADF81440 		strh	r4, [sp, #20]	@ movhi
 9151              	.LVL667:
1678:.\protocolo.c **** 	temp=4;
1679:.\protocolo.c **** 	if(((versurt==5)||(versurt==6))&&(preset==1)){
 9152              		.loc 1 1679 0
 9153 0014 C14C     		ldr	r4, .L742
 9154 0016 2478     		ldrb	r4, [r4]	@ zero_extendqisi2
 9155 0018 651F     		subs	r5, r4, #5
 9156 001a EDB2     		uxtb	r5, r5
 9157 001c 012D     		cmp	r5, #1
 9158 001e 04D8     		bhi	.L730
 9159              		.loc 1 1679 0 is_stmt 0 discriminator 1
 9160 0020 012B     		cmp	r3, #1
 9161 0022 05D0     		beq	.L731
1678:.\protocolo.c **** 	temp=4;
 9162              		.loc 1 1678 0 is_stmt 1
 9163 0024 4FF0040E 		mov	lr, #4
 9164 0028 04E0     		b	.L680
 9165              	.L730:
 9166 002a 4FF0040E 		mov	lr, #4
 9167 002e 01E0     		b	.L680
 9168              	.L731:
1680:.\protocolo.c **** 		temp=3;
 9169              		.loc 1 1680 0
 9170 0030 4FF0030E 		mov	lr, #3
 9171              	.L680:
ARM GAS  C:\Users\diego\AppData\Local\Temp\ccvEcbYb.s 			page 199


 9172              	.LVL668:
1681:.\protocolo.c **** 	}
1682:.\protocolo.c **** 	if((versurt==5)&&(preset==2)){
 9173              		.loc 1 1682 0
 9174 0034 052C     		cmp	r4, #5
 9175 0036 03D1     		bne	.L681
 9176              		.loc 1 1682 0 is_stmt 0 discriminator 1
 9177 0038 022B     		cmp	r3, #2
 9178 003a 01D1     		bne	.L681
1683:.\protocolo.c **** 		temp=5;
 9179              		.loc 1 1683 0 is_stmt 1
 9180 003c 4FF0050E 		mov	lr, #5
 9181              	.LVL669:
 9182              	.L681:
1684:.\protocolo.c **** 	}
1685:.\protocolo.c **** 	if((versurt==7)&&(preset==1)){
 9183              		.loc 1 1685 0
 9184 0040 072C     		cmp	r4, #7
 9185 0042 03D1     		bne	.L682
 9186              		.loc 1 1685 0 is_stmt 0 discriminator 1
 9187 0044 012B     		cmp	r3, #1
 9188 0046 01D1     		bne	.L682
1686:.\protocolo.c **** 		temp=0;
 9189              		.loc 1 1686 0 is_stmt 1
 9190 0048 4FF0000E 		mov	lr, #0
 9191              	.LVL670:
 9192              	.L682:
1687:.\protocolo.c **** 	}
1688:.\protocolo.c **** 	if((versurt==7)&&(preset==2)){
 9193              		.loc 1 1688 0
 9194 004c 072C     		cmp	r4, #7
 9195 004e 03D1     		bne	.L683
 9196              		.loc 1 1688 0 is_stmt 0 discriminator 1
 9197 0050 022B     		cmp	r3, #2
 9198 0052 01D1     		bne	.L683
1689:.\protocolo.c **** 		temp=2;
 9199              		.loc 1 1689 0 is_stmt 1
 9200 0054 4FF0020E 		mov	lr, #2
 9201              	.LVL671:
 9202              	.L683:
1690:.\protocolo.c **** 	}	
1691:.\protocolo.c **** 	decimal=0;
 9203              		.loc 1 1691 0
 9204 0058 0025     		movs	r5, #0
1692:.\protocolo.c **** 	for(i=1;i<=valor[0];i++){
 9205              		.loc 1 1692 0
 9206 005a 0124     		movs	r4, #1
 9207 005c 0FE0     		b	.L684
 9208              	.LVL672:
 9209              	.L687:
1693:.\protocolo.c **** 		if(decimal>=1){
 9210              		.loc 1 1693 0
 9211 005e 25B1     		cbz	r5, .L685
1694:.\protocolo.c **** 			decimal++;
 9212              		.loc 1 1694 0
 9213 0060 0135     		adds	r5, r5, #1
 9214              	.LVL673:
ARM GAS  C:\Users\diego\AppData\Local\Temp\ccvEcbYb.s 			page 200


 9215 0062 EDB2     		uxtb	r5, r5
 9216              	.LVL674:
1695:.\protocolo.c **** 			valor[i]=valor[i+1];
 9217              		.loc 1 1695 0
 9218 0064 1719     		adds	r7, r2, r4
 9219 0066 7F78     		ldrb	r7, [r7, #1]	@ zero_extendqisi2
 9220 0068 1755     		strb	r7, [r2, r4]
 9221              	.L685:
1696:.\protocolo.c **** 		}				
1697:.\protocolo.c **** 		if(valor[i]==','){
 9222              		.loc 1 1697 0
 9223 006a 175D     		ldrb	r7, [r2, r4]	@ zero_extendqisi2
 9224 006c 2C2F     		cmp	r7, #44
 9225 006e 04D1     		bne	.L686
1698:.\protocolo.c **** 			decimal++;
 9226              		.loc 1 1698 0
 9227 0070 0135     		adds	r5, r5, #1
 9228              	.LVL675:
 9229 0072 EDB2     		uxtb	r5, r5
 9230              	.LVL676:
1699:.\protocolo.c **** 			valor[i]=valor[i+1];
 9231              		.loc 1 1699 0
 9232 0074 1719     		adds	r7, r2, r4
 9233 0076 7F78     		ldrb	r7, [r7, #1]	@ zero_extendqisi2
 9234 0078 1755     		strb	r7, [r2, r4]
 9235              	.L686:
1692:.\protocolo.c **** 		if(decimal>=1){
 9236              		.loc 1 1692 0 discriminator 2
 9237 007a 0134     		adds	r4, r4, #1
 9238              	.LVL677:
 9239 007c E4B2     		uxtb	r4, r4
 9240              	.LVL678:
 9241              	.L684:
1692:.\protocolo.c **** 		if(decimal>=1){
 9242              		.loc 1 1692 0 is_stmt 0 discriminator 1
 9243 007e 1778     		ldrb	r7, [r2]	@ zero_extendqisi2
 9244 0080 A742     		cmp	r7, r4
 9245 0082 ECD2     		bcs	.L687
1700:.\protocolo.c **** 		}
1701:.\protocolo.c **** 	}
1702:.\protocolo.c **** 	if(decimal>=1){
 9246              		.loc 1 1702 0 is_stmt 1
 9247 0084 1DB1     		cbz	r5, .L688
1703:.\protocolo.c **** 		decimal=decimal-1;
 9248              		.loc 1 1703 0
 9249 0086 013D     		subs	r5, r5, #1
 9250              	.LVL679:
 9251 0088 EDB2     		uxtb	r5, r5
 9252              	.LVL680:
1704:.\protocolo.c **** 		valor[0]=valor[0]-1;
 9253              		.loc 1 1704 0
 9254 008a 013F     		subs	r7, r7, #1
 9255 008c 1770     		strb	r7, [r2]
 9256              	.L688:
1705:.\protocolo.c **** 	}	
1706:.\protocolo.c **** 	if(decimal>=4){
 9257              		.loc 1 1706 0
ARM GAS  C:\Users\diego\AppData\Local\Temp\ccvEcbYb.s 			page 201


 9258 008e 032D     		cmp	r5, #3
 9259 0090 00F2EA81 		bhi	.L735
1707:.\protocolo.c **** 		return 0;
1708:.\protocolo.c **** 	}	
1709:.\protocolo.c **** 	if(versurt!=7){		
 9260              		.loc 1 1709 0
 9261 0094 A14C     		ldr	r4, .L742
 9262              	.LVL681:
 9263 0096 94F800C0 		ldrb	ip, [r4]	@ zero_extendqisi2
 9264 009a BCF1070F 		cmp	ip, #7
 9265 009e 00F0EF80 		beq	.L690
1710:.\protocolo.c **** 		buffer[0]=0xFF;
 9266              		.loc 1 1710 0
 9267 00a2 FF24     		movs	r4, #255
 9268 00a4 8DF80440 		strb	r4, [sp, #4]
1711:.\protocolo.c **** 		buffer[1]=(0xE0|temp);
 9269              		.loc 1 1711 0
 9270 00a8 6EF01F04 		orn	r4, lr, #31
 9271 00ac 8DF80540 		strb	r4, [sp, #5]
1712:.\protocolo.c **** 		buffer[2]=(0xF0|preset);
 9272              		.loc 1 1712 0
 9273 00b0 63F00F04 		orn	r4, r3, #15
 9274 00b4 8DF80640 		strb	r4, [sp, #6]
1713:.\protocolo.c **** 		buffer[3]=0xF4;
 9275              		.loc 1 1713 0
 9276 00b8 F424     		movs	r4, #244
 9277 00ba 8DF80740 		strb	r4, [sp, #7]
1714:.\protocolo.c **** 		buffer[4]=0xF8;	
 9278              		.loc 1 1714 0
 9279 00be F824     		movs	r4, #248
 9280 00c0 8DF80840 		strb	r4, [sp, #8]
 9281              	.LVL682:
1715:.\protocolo.c **** 		for(i=5;i<((5+decimalD)-decimal);i++){
 9282              		.loc 1 1715 0
 9283 00c4 0524     		movs	r4, #5
 9284 00c6 06E0     		b	.L691
 9285              	.LVL683:
 9286              	.L692:
1716:.\protocolo.c **** 			buffer[i]=0xE0;
 9287              		.loc 1 1716 0 discriminator 3
 9288 00c8 06AE     		add	r6, sp, #24
 9289 00ca 2644     		add	r6, r6, r4
 9290 00cc E027     		movs	r7, #224
 9291 00ce 06F8147C 		strb	r7, [r6, #-20]
1715:.\protocolo.c **** 		for(i=5;i<((5+decimalD)-decimal);i++){
 9292              		.loc 1 1715 0 discriminator 3
 9293 00d2 0134     		adds	r4, r4, #1
 9294              	.LVL684:
 9295 00d4 E4B2     		uxtb	r4, r4
 9296              	.LVL685:
 9297              	.L691:
1715:.\protocolo.c **** 		for(i=5;i<((5+decimalD)-decimal);i++){
 9298              		.loc 1 1715 0 is_stmt 0 discriminator 1
 9299 00d6 A046     		mov	r8, r4
 9300 00d8 914E     		ldr	r6, .L742+4
 9301 00da 3678     		ldrb	r6, [r6]	@ zero_extendqisi2
 9302 00dc 0536     		adds	r6, r6, #5
ARM GAS  C:\Users\diego\AppData\Local\Temp\ccvEcbYb.s 			page 202


 9303 00de 761B     		subs	r6, r6, r5
 9304 00e0 B442     		cmp	r4, r6
 9305 00e2 F1DB     		blt	.L692
 9306 00e4 0DE0     		b	.L693
 9307              	.LVL686:
 9308              	.L694:
1717:.\protocolo.c **** 		}
1718:.\protocolo.c **** 		for(j=i;j<(i+valor[0]);j++){
1719:.\protocolo.c **** 			buffer[j]=(0xE0|(valor[valor[0]-(j-i)]&0x0F));	
 9309              		.loc 1 1719 0 is_stmt 1 discriminator 3
 9310 00e6 C4EB0806 		rsb	r6, r4, r8
 9311 00ea 3744     		add	r7, r7, r6
 9312 00ec D65D     		ldrb	r6, [r2, r7]	@ zero_extendqisi2
 9313 00ee 06AF     		add	r7, sp, #24
 9314 00f0 2744     		add	r7, r7, r4
 9315 00f2 06F00F06 		and	r6, r6, #15
 9316 00f6 66F01F06 		orn	r6, r6, #31
 9317 00fa 07F8146C 		strb	r6, [r7, #-20]
1718:.\protocolo.c **** 			buffer[j]=(0xE0|(valor[valor[0]-(j-i)]&0x0F));	
 9318              		.loc 1 1718 0 discriminator 3
 9319 00fe 0134     		adds	r4, r4, #1
 9320              	.LVL687:
 9321 0100 E4B2     		uxtb	r4, r4
 9322              	.LVL688:
 9323              	.L693:
1718:.\protocolo.c **** 			buffer[j]=(0xE0|(valor[valor[0]-(j-i)]&0x0F));	
 9324              		.loc 1 1718 0 is_stmt 0 discriminator 1
 9325 0102 1778     		ldrb	r7, [r2]	@ zero_extendqisi2
 9326 0104 08EB0706 		add	r6, r8, r7
 9327 0108 B442     		cmp	r4, r6
 9328 010a ECDB     		blt	.L694
 9329 010c 07E0     		b	.L695
 9330              	.LVL689:
 9331              	.L696:
1720:.\protocolo.c **** 		}
1721:.\protocolo.c **** 		for(i=j;i<=10;i++){
1722:.\protocolo.c **** 			buffer[i]=0xE0;
 9332              		.loc 1 1722 0 is_stmt 1 discriminator 3
 9333 010e 06AE     		add	r6, sp, #24
 9334 0110 2644     		add	r6, r6, r4
 9335 0112 4FF0E008 		mov	r8, #224
 9336 0116 06F8148C 		strb	r8, [r6, #-20]
1721:.\protocolo.c **** 			buffer[i]=0xE0;
 9337              		.loc 1 1721 0 discriminator 3
 9338 011a 0134     		adds	r4, r4, #1
 9339              	.LVL690:
 9340 011c E4B2     		uxtb	r4, r4
 9341              	.LVL691:
 9342              	.L695:
1721:.\protocolo.c **** 			buffer[i]=0xE0;
 9343              		.loc 1 1721 0 is_stmt 0 discriminator 1
 9344 011e 0A2C     		cmp	r4, #10
 9345 0120 F5D9     		bls	.L696
1723:.\protocolo.c **** 		}
1724:.\protocolo.c **** 		buffer[11]=0xFB;
 9346              		.loc 1 1724 0 is_stmt 1
 9347 0122 FB24     		movs	r4, #251
ARM GAS  C:\Users\diego\AppData\Local\Temp\ccvEcbYb.s 			page 203


 9348              	.LVL692:
 9349 0124 8DF80F40 		strb	r4, [sp, #15]
1725:.\protocolo.c **** 		buffer[12]=0;
 9350              		.loc 1 1725 0
 9351 0128 0024     		movs	r4, #0
 9352 012a 8DF81040 		strb	r4, [sp, #16]
 9353              	.LVL693:
1726:.\protocolo.c **** 		for(i=0;i<=11;i++){
 9354              		.loc 1 1726 0
 9355 012e 0CE0     		b	.L697
 9356              	.LVL694:
 9357              	.L698:
1727:.\protocolo.c **** 			buffer[12]+=(buffer[i]&0x0F);	
 9358              		.loc 1 1727 0 discriminator 3
 9359 0130 06AE     		add	r6, sp, #24
 9360 0132 2644     		add	r6, r6, r4
 9361 0134 16F8146C 		ldrb	r6, [r6, #-20]	@ zero_extendqisi2
 9362 0138 06F00F06 		and	r6, r6, #15
 9363 013c 9DF81080 		ldrb	r8, [sp, #16]	@ zero_extendqisi2
 9364 0140 4644     		add	r6, r6, r8
 9365 0142 8DF81060 		strb	r6, [sp, #16]
1726:.\protocolo.c **** 		for(i=0;i<=11;i++){
 9366              		.loc 1 1726 0 discriminator 3
 9367 0146 0134     		adds	r4, r4, #1
 9368              	.LVL695:
 9369 0148 E4B2     		uxtb	r4, r4
 9370              	.LVL696:
 9371              	.L697:
1726:.\protocolo.c **** 		for(i=0;i<=11;i++){
 9372              		.loc 1 1726 0 is_stmt 0 discriminator 1
 9373 014a 0B2C     		cmp	r4, #11
 9374 014c F0D9     		bls	.L698
1728:.\protocolo.c **** 		}
1729:.\protocolo.c **** 		buffer[12]=(((~buffer[12])+1)&0x0F)|0xE0;
 9375              		.loc 1 1729 0 is_stmt 1
 9376 014e 9DF81040 		ldrb	r4, [sp, #16]	@ zero_extendqisi2
 9377              	.LVL697:
 9378 0152 6442     		negs	r4, r4
 9379 0154 04F00F04 		and	r4, r4, #15
 9380 0158 64F01F04 		orn	r4, r4, #31
 9381 015c 8DF81040 		strb	r4, [sp, #16]
1730:.\protocolo.c **** 		buffer[13]=0xF0;
 9382              		.loc 1 1730 0
 9383 0160 F024     		movs	r4, #240
 9384 0162 8DF81140 		strb	r4, [sp, #17]
 9385              	.LVL698:
1731:.\protocolo.c **** 		size=13;
1732:.\protocolo.c **** 		if(versurt==5){
 9386              		.loc 1 1732 0
 9387 0166 BCF1050F 		cmp	ip, #5
 9388 016a 23D1     		bne	.L736
1733:.\protocolo.c **** 			buffer[10]=0xFB;
 9389              		.loc 1 1733 0
 9390 016c FB24     		movs	r4, #251
 9391 016e 8DF80E40 		strb	r4, [sp, #14]
1734:.\protocolo.c **** 			buffer[11]=0;
 9392              		.loc 1 1734 0
ARM GAS  C:\Users\diego\AppData\Local\Temp\ccvEcbYb.s 			page 204


 9393 0172 0024     		movs	r4, #0
 9394 0174 8DF80F40 		strb	r4, [sp, #15]
 9395              	.LVL699:
1735:.\protocolo.c **** 			for(i=0;i<=10;i++){
 9396              		.loc 1 1735 0
 9397 0178 0CE0     		b	.L700
 9398              	.LVL700:
 9399              	.L701:
1736:.\protocolo.c **** 				buffer[11]+=(buffer[i]&0x0F);	
 9400              		.loc 1 1736 0 discriminator 3
 9401 017a 06AE     		add	r6, sp, #24
 9402 017c 2644     		add	r6, r6, r4
 9403 017e 16F8146C 		ldrb	r6, [r6, #-20]	@ zero_extendqisi2
 9404 0182 06F00F06 		and	r6, r6, #15
 9405 0186 9DF80FC0 		ldrb	ip, [sp, #15]	@ zero_extendqisi2
 9406 018a 6644     		add	r6, r6, ip
 9407 018c 8DF80F60 		strb	r6, [sp, #15]
1735:.\protocolo.c **** 			for(i=0;i<=10;i++){
 9408              		.loc 1 1735 0 discriminator 3
 9409 0190 0134     		adds	r4, r4, #1
 9410              	.LVL701:
 9411 0192 E4B2     		uxtb	r4, r4
 9412              	.LVL702:
 9413              	.L700:
1735:.\protocolo.c **** 			for(i=0;i<=10;i++){
 9414              		.loc 1 1735 0 is_stmt 0 discriminator 1
 9415 0194 0A2C     		cmp	r4, #10
 9416 0196 F0D9     		bls	.L701
1737:.\protocolo.c **** 			}
1738:.\protocolo.c **** 			buffer[11]=(((~buffer[11])+1)&0x0F)|0xE0;
 9417              		.loc 1 1738 0 is_stmt 1
 9418 0198 9DF80F40 		ldrb	r4, [sp, #15]	@ zero_extendqisi2
 9419              	.LVL703:
 9420 019c 6442     		negs	r4, r4
 9421 019e 04F00F04 		and	r4, r4, #15
 9422 01a2 64F01F04 		orn	r4, r4, #31
 9423 01a6 8DF80F40 		strb	r4, [sp, #15]
1739:.\protocolo.c **** 			buffer[12]=0xF0;
 9424              		.loc 1 1739 0
 9425 01aa F024     		movs	r4, #240
 9426 01ac 8DF81040 		strb	r4, [sp, #16]
 9427              	.LVL704:
1740:.\protocolo.c **** 			size=12;		
 9428              		.loc 1 1740 0
 9429 01b0 0C26     		movs	r6, #12
 9430 01b2 00E0     		b	.L699
 9431              	.LVL705:
 9432              	.L736:
1731:.\protocolo.c **** 		if(versurt==5){
 9433              		.loc 1 1731 0
 9434 01b4 0D26     		movs	r6, #13
 9435              	.LVL706:
 9436              	.L699:
1741:.\protocolo.c **** 		}
1742:.\protocolo.c **** 		if(preset==1){
 9437              		.loc 1 1742 0
 9438 01b6 012B     		cmp	r3, #1
ARM GAS  C:\Users\diego\AppData\Local\Temp\ccvEcbYb.s 			page 205


 9439 01b8 62D1     		bne	.L690
1743:.\protocolo.c **** 			if(decimal==3){
 9440              		.loc 1 1743 0
 9441 01ba 032D     		cmp	r5, #3
 9442 01bc 03D1     		bne	.L702
1744:.\protocolo.c **** 				valor[0]=valor[0]-1;
 9443              		.loc 1 1744 0
 9444 01be 013F     		subs	r7, r7, #1
 9445 01c0 1770     		strb	r7, [r2]
1745:.\protocolo.c **** 				decimal=decimal-1;
 9446              		.loc 1 1745 0
 9447 01c2 013D     		subs	r5, r5, #1
 9448              	.LVL707:
 9449 01c4 EDB2     		uxtb	r5, r5
 9450              	.LVL708:
 9451              	.L702:
1746:.\protocolo.c **** 			}
1747:.\protocolo.c **** 			buffer[4]=0xF6;
 9452              		.loc 1 1747 0
 9453 01c6 F624     		movs	r4, #246
 9454 01c8 8DF80840 		strb	r4, [sp, #8]
1748:.\protocolo.c **** 			buffer[5]=(0xE0|(grado-1));
 9455              		.loc 1 1748 0
 9456 01cc 4C1E     		subs	r4, r1, #1
 9457 01ce 64F01F04 		orn	r4, r4, #31
 9458 01d2 8DF80940 		strb	r4, [sp, #9]
1749:.\protocolo.c **** 			buffer[6]=0xF8;
 9459              		.loc 1 1749 0
 9460 01d6 F824     		movs	r4, #248
 9461 01d8 8DF80A40 		strb	r4, [sp, #10]
 9462              	.LVL709:
1750:.\protocolo.c **** 			for(i=7;i<((7+(decimalV-1))-decimal);i++){
 9463              		.loc 1 1750 0
 9464 01dc 0724     		movs	r4, #7
 9465 01de 06E0     		b	.L703
 9466              	.LVL710:
 9467              	.L704:
1751:.\protocolo.c **** 				buffer[i]=0xE0;
 9468              		.loc 1 1751 0 discriminator 3
 9469 01e0 06AE     		add	r6, sp, #24
 9470 01e2 2644     		add	r6, r6, r4
 9471 01e4 E027     		movs	r7, #224
 9472 01e6 06F8147C 		strb	r7, [r6, #-20]
1750:.\protocolo.c **** 			for(i=7;i<((7+(decimalV-1))-decimal);i++){
 9473              		.loc 1 1750 0 discriminator 3
 9474 01ea 0134     		adds	r4, r4, #1
 9475              	.LVL711:
 9476 01ec E4B2     		uxtb	r4, r4
 9477              	.LVL712:
 9478              	.L703:
1750:.\protocolo.c **** 			for(i=7;i<((7+(decimalV-1))-decimal);i++){
 9479              		.loc 1 1750 0 is_stmt 0 discriminator 1
 9480 01ee 2746     		mov	r7, r4
 9481 01f0 4C4E     		ldr	r6, .L742+8
 9482 01f2 3678     		ldrb	r6, [r6]	@ zero_extendqisi2
 9483 01f4 0636     		adds	r6, r6, #6
 9484 01f6 761B     		subs	r6, r6, r5
ARM GAS  C:\Users\diego\AppData\Local\Temp\ccvEcbYb.s 			page 206


 9485 01f8 B442     		cmp	r4, r6
 9486 01fa F1DB     		blt	.L704
 9487 01fc 0DE0     		b	.L705
 9488              	.LVL713:
 9489              	.L706:
1752:.\protocolo.c **** 			}
1753:.\protocolo.c **** 			for(j=i;j<(i+valor[0]);j++){
1754:.\protocolo.c **** 				buffer[j]=(0xE0|(valor[valor[0]-(j-i)]&0x0F));	
 9490              		.loc 1 1754 0 is_stmt 1 discriminator 3
 9491 01fe 3E1B     		subs	r6, r7, r4
 9492 0200 6644     		add	r6, r6, ip
 9493 0202 965D     		ldrb	r6, [r2, r6]	@ zero_extendqisi2
 9494 0204 0DF1180C 		add	ip, sp, #24
 9495 0208 A444     		add	ip, ip, r4
 9496 020a 06F00F06 		and	r6, r6, #15
 9497 020e 66F01F06 		orn	r6, r6, #31
 9498 0212 0CF8146C 		strb	r6, [ip, #-20]
1753:.\protocolo.c **** 				buffer[j]=(0xE0|(valor[valor[0]-(j-i)]&0x0F));	
 9499              		.loc 1 1753 0 discriminator 3
 9500 0216 0134     		adds	r4, r4, #1
 9501              	.LVL714:
 9502 0218 E4B2     		uxtb	r4, r4
 9503              	.LVL715:
 9504              	.L705:
1753:.\protocolo.c **** 				buffer[j]=(0xE0|(valor[valor[0]-(j-i)]&0x0F));	
 9505              		.loc 1 1753 0 is_stmt 0 discriminator 1
 9506 021a 92F800C0 		ldrb	ip, [r2]	@ zero_extendqisi2
 9507 021e 07EB0C06 		add	r6, r7, ip
 9508 0222 B442     		cmp	r4, r6
 9509 0224 EBDB     		blt	.L706
 9510 0226 06E0     		b	.L707
 9511              	.LVL716:
 9512              	.L708:
1755:.\protocolo.c **** 			}
1756:.\protocolo.c **** 			for(i=j;i<=11;i++){
1757:.\protocolo.c **** 				buffer[i]=0xE0;
 9513              		.loc 1 1757 0 is_stmt 1 discriminator 3
 9514 0228 06AE     		add	r6, sp, #24
 9515 022a 2644     		add	r6, r6, r4
 9516 022c E027     		movs	r7, #224
 9517 022e 06F8147C 		strb	r7, [r6, #-20]
1756:.\protocolo.c **** 				buffer[i]=0xE0;
 9518              		.loc 1 1756 0 discriminator 3
 9519 0232 0134     		adds	r4, r4, #1
 9520              	.LVL717:
 9521 0234 E4B2     		uxtb	r4, r4
 9522              	.LVL718:
 9523              	.L707:
1756:.\protocolo.c **** 				buffer[i]=0xE0;
 9524              		.loc 1 1756 0 is_stmt 0 discriminator 1
 9525 0236 0B2C     		cmp	r4, #11
 9526 0238 F6D9     		bls	.L708
1758:.\protocolo.c **** 			}			
1759:.\protocolo.c **** 			buffer[12]=0xFB;
 9527              		.loc 1 1759 0 is_stmt 1
 9528 023a FB24     		movs	r4, #251
 9529              	.LVL719:
ARM GAS  C:\Users\diego\AppData\Local\Temp\ccvEcbYb.s 			page 207


 9530 023c 8DF81040 		strb	r4, [sp, #16]
1760:.\protocolo.c **** 			buffer[13]=0;
 9531              		.loc 1 1760 0
 9532 0240 0024     		movs	r4, #0
 9533 0242 8DF81140 		strb	r4, [sp, #17]
 9534              	.LVL720:
1761:.\protocolo.c **** 			for(i=0;i<=12;i++){
 9535              		.loc 1 1761 0
 9536 0246 0CE0     		b	.L709
 9537              	.LVL721:
 9538              	.L710:
1762:.\protocolo.c **** 				buffer[13]+=(buffer[i]&0x0F);	
 9539              		.loc 1 1762 0 discriminator 3
 9540 0248 06AE     		add	r6, sp, #24
 9541 024a 2644     		add	r6, r6, r4
 9542 024c 16F8146C 		ldrb	r6, [r6, #-20]	@ zero_extendqisi2
 9543 0250 06F00F06 		and	r6, r6, #15
 9544 0254 9DF81170 		ldrb	r7, [sp, #17]	@ zero_extendqisi2
 9545 0258 3E44     		add	r6, r6, r7
 9546 025a 8DF81160 		strb	r6, [sp, #17]
1761:.\protocolo.c **** 			for(i=0;i<=12;i++){
 9547              		.loc 1 1761 0 discriminator 3
 9548 025e 0134     		adds	r4, r4, #1
 9549              	.LVL722:
 9550 0260 E4B2     		uxtb	r4, r4
 9551              	.LVL723:
 9552              	.L709:
1761:.\protocolo.c **** 			for(i=0;i<=12;i++){
 9553              		.loc 1 1761 0 is_stmt 0 discriminator 1
 9554 0262 0C2C     		cmp	r4, #12
 9555 0264 F0D9     		bls	.L710
1763:.\protocolo.c **** 			}
1764:.\protocolo.c **** 			buffer[13]=(((~buffer[13])+1)&0x0F)|0xE0;			
 9556              		.loc 1 1764 0 is_stmt 1
 9557 0266 9DF81140 		ldrb	r4, [sp, #17]	@ zero_extendqisi2
 9558              	.LVL724:
 9559 026a 6442     		negs	r4, r4
 9560 026c 04F00F04 		and	r4, r4, #15
 9561 0270 64F01F04 		orn	r4, r4, #31
 9562 0274 8DF81140 		strb	r4, [sp, #17]
1765:.\protocolo.c **** 			buffer[14]=0xF0;
 9563              		.loc 1 1765 0
 9564 0278 F024     		movs	r4, #240
 9565 027a 8DF81240 		strb	r4, [sp, #18]
 9566              	.LVL725:
1766:.\protocolo.c **** 			size=14;
 9567              		.loc 1 1766 0
 9568 027e 0E26     		movs	r6, #14
 9569              	.LVL726:
 9570              	.L690:
1767:.\protocolo.c **** 		}	
1768:.\protocolo.c **** 	}	
1769:.\protocolo.c **** 	if(versurt==7){
 9571              		.loc 1 1769 0
 9572 0280 264C     		ldr	r4, .L742
 9573 0282 2478     		ldrb	r4, [r4]	@ zero_extendqisi2
 9574 0284 072C     		cmp	r4, #7
ARM GAS  C:\Users\diego\AppData\Local\Temp\ccvEcbYb.s 			page 208


 9575 0286 40F0C780 		bne	.L711
1770:.\protocolo.c **** 		buffer[0]=0xFF;
 9576              		.loc 1 1770 0
 9577 028a FF24     		movs	r4, #255
 9578 028c 8DF80440 		strb	r4, [sp, #4]
1771:.\protocolo.c **** 		buffer[1]=(0xE0|temp);
 9579              		.loc 1 1771 0
 9580 0290 6EF01F0E 		orn	lr, lr, #31
 9581              	.LVL727:
 9582 0294 8DF805E0 		strb	lr, [sp, #5]
1772:.\protocolo.c **** 		buffer[2]=(0xF0|preset);
 9583              		.loc 1 1772 0
 9584 0298 63F00F04 		orn	r4, r3, #15
 9585 029c 8DF80640 		strb	r4, [sp, #6]
1773:.\protocolo.c **** 		buffer[3]=0xF4;
 9586              		.loc 1 1773 0
 9587 02a0 F424     		movs	r4, #244
 9588 02a2 8DF80740 		strb	r4, [sp, #7]
1774:.\protocolo.c **** 		buffer[4]=0xF8;	
 9589              		.loc 1 1774 0
 9590 02a6 F824     		movs	r4, #248
 9591 02a8 8DF80840 		strb	r4, [sp, #8]
 9592              	.LVL728:
1775:.\protocolo.c **** 		for(i=5;i<((5+decimalD)-decimal);i++){
 9593              		.loc 1 1775 0
 9594 02ac 0524     		movs	r4, #5
 9595 02ae 06E0     		b	.L712
 9596              	.LVL729:
 9597              	.L713:
1776:.\protocolo.c **** 			buffer[i]=0xE0;
 9598              		.loc 1 1776 0 discriminator 3
 9599 02b0 06AE     		add	r6, sp, #24
 9600 02b2 2644     		add	r6, r6, r4
 9601 02b4 E027     		movs	r7, #224
 9602 02b6 06F8147C 		strb	r7, [r6, #-20]
1775:.\protocolo.c **** 		for(i=5;i<((5+decimalD)-decimal);i++){
 9603              		.loc 1 1775 0 discriminator 3
 9604 02ba 0134     		adds	r4, r4, #1
 9605              	.LVL730:
 9606 02bc E4B2     		uxtb	r4, r4
 9607              	.LVL731:
 9608              	.L712:
1775:.\protocolo.c **** 		for(i=5;i<((5+decimalD)-decimal);i++){
 9609              		.loc 1 1775 0 is_stmt 0 discriminator 1
 9610 02be A646     		mov	lr, r4
 9611 02c0 174E     		ldr	r6, .L742+4
 9612 02c2 3678     		ldrb	r6, [r6]	@ zero_extendqisi2
 9613 02c4 0536     		adds	r6, r6, #5
 9614 02c6 2F46     		mov	r7, r5
 9615 02c8 761B     		subs	r6, r6, r5
 9616 02ca B442     		cmp	r4, r6
 9617 02cc F0DB     		blt	.L713
 9618 02ce 0DE0     		b	.L714
 9619              	.LVL732:
 9620              	.L715:
1777:.\protocolo.c **** 		}
1778:.\protocolo.c **** 		for(j=i;j<(i+valor[0]);j++){
ARM GAS  C:\Users\diego\AppData\Local\Temp\ccvEcbYb.s 			page 209


1779:.\protocolo.c **** 			buffer[j]=(0xE0|(valor[valor[0]-(j-i)]&0x0F));	
 9621              		.loc 1 1779 0 is_stmt 1 discriminator 3
 9622 02d0 C4EB0E05 		rsb	r5, r4, lr
 9623 02d4 2E44     		add	r6, r6, r5
 9624 02d6 955D     		ldrb	r5, [r2, r6]	@ zero_extendqisi2
 9625 02d8 06AE     		add	r6, sp, #24
 9626 02da 2644     		add	r6, r6, r4
 9627 02dc 05F00F05 		and	r5, r5, #15
 9628 02e0 65F01F05 		orn	r5, r5, #31
 9629 02e4 06F8145C 		strb	r5, [r6, #-20]
1778:.\protocolo.c **** 			buffer[j]=(0xE0|(valor[valor[0]-(j-i)]&0x0F));	
 9630              		.loc 1 1778 0 discriminator 3
 9631 02e8 0134     		adds	r4, r4, #1
 9632              	.LVL733:
 9633 02ea E4B2     		uxtb	r4, r4
 9634              	.LVL734:
 9635              	.L714:
1778:.\protocolo.c **** 			buffer[j]=(0xE0|(valor[valor[0]-(j-i)]&0x0F));	
 9636              		.loc 1 1778 0 is_stmt 0 discriminator 1
 9637 02ec 1678     		ldrb	r6, [r2]	@ zero_extendqisi2
 9638 02ee 0EEB0605 		add	r5, lr, r6
 9639 02f2 AC42     		cmp	r4, r5
 9640 02f4 ECDB     		blt	.L715
 9641 02f6 07E0     		b	.L716
 9642              	.LVL735:
 9643              	.L717:
1780:.\protocolo.c **** 		}
1781:.\protocolo.c **** 		for(i=j;i<=12;i++){
1782:.\protocolo.c **** 			buffer[i]=0xE0;
 9644              		.loc 1 1782 0 is_stmt 1 discriminator 3
 9645 02f8 06AD     		add	r5, sp, #24
 9646 02fa 2544     		add	r5, r5, r4
 9647 02fc 4FF0E00E 		mov	lr, #224
 9648 0300 05F814EC 		strb	lr, [r5, #-20]
1781:.\protocolo.c **** 			buffer[i]=0xE0;
 9649              		.loc 1 1781 0 discriminator 3
 9650 0304 0134     		adds	r4, r4, #1
 9651              	.LVL736:
 9652 0306 E4B2     		uxtb	r4, r4
 9653              	.LVL737:
 9654              	.L716:
1781:.\protocolo.c **** 			buffer[i]=0xE0;
 9655              		.loc 1 1781 0 is_stmt 0 discriminator 1
 9656 0308 0C2C     		cmp	r4, #12
 9657 030a F5D9     		bls	.L717
1783:.\protocolo.c **** 		}
1784:.\protocolo.c **** 		buffer[13]=0xFB;
 9658              		.loc 1 1784 0 is_stmt 1
 9659 030c FB24     		movs	r4, #251
 9660              	.LVL738:
 9661 030e 8DF81140 		strb	r4, [sp, #17]
1785:.\protocolo.c **** 		buffer[14]=0;
 9662              		.loc 1 1785 0
 9663 0312 0024     		movs	r4, #0
 9664 0314 8DF81240 		strb	r4, [sp, #18]
 9665              	.LVL739:
1786:.\protocolo.c **** 		for(i=0;i<=13;i++){
ARM GAS  C:\Users\diego\AppData\Local\Temp\ccvEcbYb.s 			page 210


 9666              		.loc 1 1786 0
 9667 0318 13E0     		b	.L718
 9668              	.L743:
 9669 031a 00BF     		.align	2
 9670              	.L742:
 9671 031c 00000000 		.word	versurt
 9672 0320 00000000 		.word	decimalD
 9673 0324 00000000 		.word	decimalV
 9674              	.LVL740:
 9675              	.L719:
1787:.\protocolo.c **** 			buffer[14]+=(buffer[i]&0x0F);	
 9676              		.loc 1 1787 0 discriminator 3
 9677 0328 06AD     		add	r5, sp, #24
 9678 032a 2544     		add	r5, r5, r4
 9679 032c 15F8145C 		ldrb	r5, [r5, #-20]	@ zero_extendqisi2
 9680 0330 05F00F05 		and	r5, r5, #15
 9681 0334 9DF812E0 		ldrb	lr, [sp, #18]	@ zero_extendqisi2
 9682 0338 7544     		add	r5, r5, lr
 9683 033a 8DF81250 		strb	r5, [sp, #18]
1786:.\protocolo.c **** 		for(i=0;i<=13;i++){
 9684              		.loc 1 1786 0 discriminator 3
 9685 033e 0134     		adds	r4, r4, #1
 9686              	.LVL741:
 9687 0340 E4B2     		uxtb	r4, r4
 9688              	.LVL742:
 9689              	.L718:
1786:.\protocolo.c **** 		for(i=0;i<=13;i++){
 9690              		.loc 1 1786 0 is_stmt 0 discriminator 1
 9691 0342 0D2C     		cmp	r4, #13
 9692 0344 F0D9     		bls	.L719
1788:.\protocolo.c **** 		}
1789:.\protocolo.c **** 		buffer[14]=(((~buffer[14])+1)&0x0F)|0xE0;
 9693              		.loc 1 1789 0 is_stmt 1
 9694 0346 9DF81240 		ldrb	r4, [sp, #18]	@ zero_extendqisi2
 9695              	.LVL743:
 9696 034a 6442     		negs	r4, r4
 9697 034c 04F00F04 		and	r4, r4, #15
 9698 0350 64F01F04 		orn	r4, r4, #31
 9699 0354 8DF81240 		strb	r4, [sp, #18]
1790:.\protocolo.c **** 		buffer[15]=0xF0;
 9700              		.loc 1 1790 0
 9701 0358 F024     		movs	r4, #240
 9702 035a 8DF81340 		strb	r4, [sp, #19]
 9703              	.LVL744:
1791:.\protocolo.c **** 		size=15;
1792:.\protocolo.c **** 		if(preset==1){
 9704              		.loc 1 1792 0
 9705 035e 012B     		cmp	r3, #1
 9706 0360 59D1     		bne	.L737
1793:.\protocolo.c **** 			buffer[4]=0xF6;
 9707              		.loc 1 1793 0
 9708 0362 F623     		movs	r3, #246
 9709              	.LVL745:
 9710 0364 8DF80830 		strb	r3, [sp, #8]
1794:.\protocolo.c **** 			buffer[5]=(0xE0|(grado-1));
 9711              		.loc 1 1794 0
 9712 0368 4B1E     		subs	r3, r1, #1
ARM GAS  C:\Users\diego\AppData\Local\Temp\ccvEcbYb.s 			page 211


 9713 036a 63F01F03 		orn	r3, r3, #31
 9714 036e 8DF80930 		strb	r3, [sp, #9]
1795:.\protocolo.c **** 			buffer[6]=0xF8;
 9715              		.loc 1 1795 0
 9716 0372 F823     		movs	r3, #248
 9717 0374 8DF80A30 		strb	r3, [sp, #10]
 9718              	.LVL746:
1796:.\protocolo.c **** 			for(i=7;i<((7+decimalV)-decimal);i++){
 9719              		.loc 1 1796 0
 9720 0378 0723     		movs	r3, #7
 9721 037a 06E0     		b	.L720
 9722              	.LVL747:
 9723              	.L721:
1797:.\protocolo.c **** 				buffer[i]=0xE0;
 9724              		.loc 1 1797 0 discriminator 3
 9725 037c 06A9     		add	r1, sp, #24
 9726 037e 1944     		add	r1, r1, r3
 9727 0380 E024     		movs	r4, #224
 9728 0382 01F8144C 		strb	r4, [r1, #-20]
1796:.\protocolo.c **** 			for(i=7;i<((7+decimalV)-decimal);i++){
 9729              		.loc 1 1796 0 discriminator 3
 9730 0386 0133     		adds	r3, r3, #1
 9731              	.LVL748:
 9732 0388 DBB2     		uxtb	r3, r3
 9733              	.LVL749:
 9734              	.L720:
1796:.\protocolo.c **** 			for(i=7;i<((7+decimalV)-decimal);i++){
 9735              		.loc 1 1796 0 is_stmt 0 discriminator 1
 9736 038a 1C46     		mov	r4, r3
 9737 038c 3C49     		ldr	r1, .L744
 9738 038e 0978     		ldrb	r1, [r1]	@ zero_extendqisi2
 9739 0390 0731     		adds	r1, r1, #7
 9740 0392 C91B     		subs	r1, r1, r7
 9741 0394 8B42     		cmp	r3, r1
 9742 0396 F1DB     		blt	.L721
 9743 0398 0CE0     		b	.L722
 9744              	.LVL750:
 9745              	.L723:
1798:.\protocolo.c **** 			}
1799:.\protocolo.c **** 			for(j=i;j<(i+valor[0]);j++){
1800:.\protocolo.c **** 				buffer[j]=(0xE0|(valor[valor[0]-(j-i)]&0x0F));	
 9746              		.loc 1 1800 0 is_stmt 1 discriminator 3
 9747 039a E11A     		subs	r1, r4, r3
 9748 039c 3144     		add	r1, r1, r6
 9749 039e 515C     		ldrb	r1, [r2, r1]	@ zero_extendqisi2
 9750 03a0 06AD     		add	r5, sp, #24
 9751 03a2 1D44     		add	r5, r5, r3
 9752 03a4 01F00F01 		and	r1, r1, #15
 9753 03a8 61F01F01 		orn	r1, r1, #31
 9754 03ac 05F8141C 		strb	r1, [r5, #-20]
1799:.\protocolo.c **** 				buffer[j]=(0xE0|(valor[valor[0]-(j-i)]&0x0F));	
 9755              		.loc 1 1799 0 discriminator 3
 9756 03b0 0133     		adds	r3, r3, #1
 9757              	.LVL751:
 9758 03b2 DBB2     		uxtb	r3, r3
 9759              	.LVL752:
 9760              	.L722:
ARM GAS  C:\Users\diego\AppData\Local\Temp\ccvEcbYb.s 			page 212


1799:.\protocolo.c **** 				buffer[j]=(0xE0|(valor[valor[0]-(j-i)]&0x0F));	
 9761              		.loc 1 1799 0 is_stmt 0 discriminator 1
 9762 03b4 3119     		adds	r1, r6, r4
 9763 03b6 8B42     		cmp	r3, r1
 9764 03b8 EFDB     		blt	.L723
 9765 03ba 06E0     		b	.L724
 9766              	.LVL753:
 9767              	.L725:
1801:.\protocolo.c **** 			}
1802:.\protocolo.c **** 			for(i=j;i<=14;i++){
1803:.\protocolo.c **** 				buffer[i]=0xE0;
 9768              		.loc 1 1803 0 is_stmt 1 discriminator 3
 9769 03bc 06AA     		add	r2, sp, #24
 9770 03be 1A44     		add	r2, r2, r3
 9771 03c0 E021     		movs	r1, #224
 9772 03c2 02F8141C 		strb	r1, [r2, #-20]
1802:.\protocolo.c **** 				buffer[i]=0xE0;
 9773              		.loc 1 1802 0 discriminator 3
 9774 03c6 0133     		adds	r3, r3, #1
 9775              	.LVL754:
 9776 03c8 DBB2     		uxtb	r3, r3
 9777              	.LVL755:
 9778              	.L724:
1802:.\protocolo.c **** 				buffer[i]=0xE0;
 9779              		.loc 1 1802 0 is_stmt 0 discriminator 1
 9780 03ca 0E2B     		cmp	r3, #14
 9781 03cc F6D9     		bls	.L725
1804:.\protocolo.c **** 			}			
1805:.\protocolo.c **** 			buffer[15]=0xFB;
 9782              		.loc 1 1805 0 is_stmt 1
 9783 03ce FB23     		movs	r3, #251
 9784              	.LVL756:
 9785 03d0 8DF81330 		strb	r3, [sp, #19]
1806:.\protocolo.c **** 			buffer[16]=0;
 9786              		.loc 1 1806 0
 9787 03d4 0023     		movs	r3, #0
 9788 03d6 8DF81430 		strb	r3, [sp, #20]
 9789              	.LVL757:
1807:.\protocolo.c **** 			for(i=0;i<=15;i++){
 9790              		.loc 1 1807 0
 9791 03da 0CE0     		b	.L726
 9792              	.LVL758:
 9793              	.L727:
1808:.\protocolo.c **** 				buffer[16]+=(buffer[i]&0x0F);	
 9794              		.loc 1 1808 0 discriminator 3
 9795 03dc 06AA     		add	r2, sp, #24
 9796 03de 1A44     		add	r2, r2, r3
 9797 03e0 12F8142C 		ldrb	r2, [r2, #-20]	@ zero_extendqisi2
 9798 03e4 02F00F02 		and	r2, r2, #15
 9799 03e8 9DF81410 		ldrb	r1, [sp, #20]	@ zero_extendqisi2
 9800 03ec 0A44     		add	r2, r2, r1
 9801 03ee 8DF81420 		strb	r2, [sp, #20]
1807:.\protocolo.c **** 			for(i=0;i<=15;i++){
 9802              		.loc 1 1807 0 discriminator 3
 9803 03f2 0133     		adds	r3, r3, #1
 9804              	.LVL759:
 9805 03f4 DBB2     		uxtb	r3, r3
ARM GAS  C:\Users\diego\AppData\Local\Temp\ccvEcbYb.s 			page 213


 9806              	.LVL760:
 9807              	.L726:
1807:.\protocolo.c **** 			for(i=0;i<=15;i++){
 9808              		.loc 1 1807 0 is_stmt 0 discriminator 1
 9809 03f6 0F2B     		cmp	r3, #15
 9810 03f8 F0D9     		bls	.L727
1809:.\protocolo.c **** 			}
1810:.\protocolo.c **** 			buffer[16]=(((~buffer[16])+1)&0x0F)|0xE0;			
 9811              		.loc 1 1810 0 is_stmt 1
 9812 03fa 9DF81430 		ldrb	r3, [sp, #20]	@ zero_extendqisi2
 9813              	.LVL761:
 9814 03fe 5B42     		negs	r3, r3
 9815 0400 03F00F03 		and	r3, r3, #15
 9816 0404 63F01F03 		orn	r3, r3, #31
 9817 0408 8DF81430 		strb	r3, [sp, #20]
1811:.\protocolo.c **** 			buffer[17]=0xF0;
 9818              		.loc 1 1811 0
 9819 040c F023     		movs	r3, #240
 9820 040e 8DF81530 		strb	r3, [sp, #21]
 9821              	.LVL762:
1812:.\protocolo.c **** 			size=17;
 9822              		.loc 1 1812 0
 9823 0412 1126     		movs	r6, #17
 9824 0414 00E0     		b	.L711
 9825              	.LVL763:
 9826              	.L737:
1791:.\protocolo.c **** 		if(preset==1){
 9827              		.loc 1 1791 0
 9828 0416 0F26     		movs	r6, #15
 9829              	.LVL764:
 9830              	.L711:
 9831 0418 0446     		mov	r4, r0
 9832              	.LVL765:
1813:.\protocolo.c **** 		}		
1814:.\protocolo.c **** 	}	
1815:.\protocolo.c **** 	Surtidor_PutChar(0x20|dir);	
 9833              		.loc 1 1815 0
 9834 041a 40F02000 		orr	r0, r0, #32
 9835              	.LVL766:
 9836 041e FFF7FEFF 		bl	Surtidor_PutChar
 9837              	.LVL767:
1816:.\protocolo.c ****     CyDelay(50);
 9838              		.loc 1 1816 0
 9839 0422 3220     		movs	r0, #50
 9840 0424 FFF7FEFF 		bl	CyDelay
 9841              	.LVL768:
1817:.\protocolo.c ****     if(Surtidor_GetRxBufferSize()>=1){
 9842              		.loc 1 1817 0
 9843 0428 FFF7FEFF 		bl	Surtidor_GetRxBufferSize
 9844              	.LVL769:
 9845 042c F0B1     		cbz	r0, .L738
1818:.\protocolo.c **** 		if(Surtidor_ReadRxData()==(0xD0|dir)){
 9846              		.loc 1 1818 0
 9847 042e FFF7FEFF 		bl	Surtidor_ReadRxData
 9848              	.LVL770:
 9849 0432 44F0D003 		orr	r3, r4, #208
 9850 0436 9842     		cmp	r0, r3
ARM GAS  C:\Users\diego\AppData\Local\Temp\ccvEcbYb.s 			page 214


 9851 0438 1AD1     		bne	.L739
1819:.\protocolo.c ****             Surtidor_ClearRxBuffer();
 9852              		.loc 1 1819 0
 9853 043a FFF7FEFF 		bl	Surtidor_ClearRxBuffer
 9854              	.LVL771:
1820:.\protocolo.c ****             for(i=0;i<=size;i++){
 9855              		.loc 1 1820 0
 9856 043e 0025     		movs	r5, #0
 9857 0440 07E0     		b	.L728
 9858              	.LVL772:
 9859              	.L729:
1821:.\protocolo.c ****                	Surtidor_PutChar(buffer[i]);
 9860              		.loc 1 1821 0 discriminator 3
 9861 0442 06AB     		add	r3, sp, #24
 9862 0444 2B44     		add	r3, r3, r5
 9863 0446 13F8140C 		ldrb	r0, [r3, #-20]	@ zero_extendqisi2
 9864 044a FFF7FEFF 		bl	Surtidor_PutChar
 9865              	.LVL773:
1820:.\protocolo.c ****             for(i=0;i<=size;i++){
 9866              		.loc 1 1820 0 discriminator 3
 9867 044e 0135     		adds	r5, r5, #1
 9868              	.LVL774:
 9869 0450 EDB2     		uxtb	r5, r5
 9870              	.LVL775:
 9871              	.L728:
1820:.\protocolo.c ****             for(i=0;i<=size;i++){
 9872              		.loc 1 1820 0 is_stmt 0 discriminator 1
 9873 0452 B542     		cmp	r5, r6
 9874 0454 F5D9     		bls	.L729
1822:.\protocolo.c ****             }
1823:.\protocolo.c **** 			CyDelay(50);
 9875              		.loc 1 1823 0 is_stmt 1
 9876 0456 3220     		movs	r0, #50
 9877 0458 FFF7FEFF 		bl	CyDelay
 9878              	.LVL776:
1824:.\protocolo.c **** 			if(get_estado(dir)==0){
 9879              		.loc 1 1824 0
 9880 045c 2046     		mov	r0, r4
 9881 045e FFF7FEFF 		bl	get_estado
 9882              	.LVL777:
 9883 0462 0346     		mov	r3, r0
 9884 0464 30B9     		cbnz	r0, .L740
 9885 0466 06E0     		b	.L689
 9886              	.LVL778:
 9887              	.L735:
1707:.\protocolo.c **** 	}	
 9888              		.loc 1 1707 0
 9889 0468 0023     		movs	r3, #0
 9890              	.LVL779:
 9891 046a 04E0     		b	.L689
 9892              	.LVL780:
 9893              	.L738:
1825:.\protocolo.c **** 				return 0;
1826:.\protocolo.c **** 			}
1827:.\protocolo.c **** 			else{
1828:.\protocolo.c **** 				return 1;
1829:.\protocolo.c **** 			}
ARM GAS  C:\Users\diego\AppData\Local\Temp\ccvEcbYb.s 			page 215


1830:.\protocolo.c **** 		}
1831:.\protocolo.c **** 		else{
1832:.\protocolo.c **** 			return 0;
1833:.\protocolo.c **** 		}
1834:.\protocolo.c **** 	}
1835:.\protocolo.c **** 	else{
1836:.\protocolo.c **** 		return 0;	
 9894              		.loc 1 1836 0
 9895 046c 0023     		movs	r3, #0
 9896 046e 02E0     		b	.L689
 9897              	.L739:
1832:.\protocolo.c **** 		}
 9898              		.loc 1 1832 0
 9899 0470 0023     		movs	r3, #0
 9900 0472 00E0     		b	.L689
 9901              	.LVL781:
 9902              	.L740:
1828:.\protocolo.c **** 			}
 9903              		.loc 1 1828 0
 9904 0474 0123     		movs	r3, #1
 9905              	.LVL782:
 9906              	.L689:
1837:.\protocolo.c **** 	}
1838:.\protocolo.c **** }
 9907              		.loc 1 1838 0
 9908 0476 1846     		mov	r0, r3
 9909 0478 06B0     		add	sp, sp, #24
 9910              		.cfi_def_cfa_offset 24
 9911              		@ sp needed
 9912 047a BDE8F081 		pop	{r4, r5, r6, r7, r8, pc}
 9913              	.L745:
 9914 047e 00BF     		.align	2
 9915              	.L744:
 9916 0480 00000000 		.word	decimalV
 9917              		.cfi_endproc
 9918              	.LFE68:
 9919              		.size	programar, .-programar
 9920              		.section	.text.cambiar_precio,"ax",%progbits
 9921              		.align	2
 9922              		.global	cambiar_precio
 9923              		.thumb
 9924              		.thumb_func
 9925              		.type	cambiar_precio, %function
 9926              	cambiar_precio:
 9927              	.LFB69:
1839:.\protocolo.c **** /*
1840:.\protocolo.c **** ***************************************************************************************************
1841:.\protocolo.c **** *                                         uint8 cambiar precio(uint8 dir)
1842:.\protocolo.c **** *
1843:.\protocolo.c **** * Description : 
1844:.\protocolo.c **** *               
1845:.\protocolo.c **** *
1846:.\protocolo.c **** * Argument(s) : none
1847:.\protocolo.c **** *
1848:.\protocolo.c **** * Return(s)   : none
1849:.\protocolo.c **** *
1850:.\protocolo.c **** * Caller(s)   : 
ARM GAS  C:\Users\diego\AppData\Local\Temp\ccvEcbYb.s 			page 216


1851:.\protocolo.c **** *
1852:.\protocolo.c **** * Note(s)     : none.
1853:.\protocolo.c **** ***************************************************************************************************
1854:.\protocolo.c **** */
1855:.\protocolo.c **** uint8 cambiar_precio(uint8 dir){
 9928              		.loc 1 1855 0
 9929              		.cfi_startproc
 9930              		@ args = 0, pretend = 0, frame = 16
 9931              		@ frame_needed = 0, uses_anonymous_args = 0
 9932              	.LVL783:
 9933 0000 30B5     		push	{r4, r5, lr}
 9934              		.cfi_def_cfa_offset 12
 9935              		.cfi_offset 4, -12
 9936              		.cfi_offset 5, -8
 9937              		.cfi_offset 14, -4
 9938 0002 85B0     		sub	sp, sp, #20
 9939              		.cfi_def_cfa_offset 32
 9940 0004 0446     		mov	r4, r0
1856:.\protocolo.c **** 	uint8 buffer[15]={0,0,0,0,0,0,0,0,0,0,0,0,0,0,0},size;
 9941              		.loc 1 1856 0
 9942 0006 0023     		movs	r3, #0
 9943 0008 8DF80030 		strb	r3, [sp]
 9944 000c 8DF80130 		strb	r3, [sp, #1]
 9945 0010 8DF80230 		strb	r3, [sp, #2]
 9946 0014 8DF80330 		strb	r3, [sp, #3]
 9947 0018 8DF80430 		strb	r3, [sp, #4]
 9948 001c 8DF80530 		strb	r3, [sp, #5]
 9949 0020 8DF80630 		strb	r3, [sp, #6]
 9950 0024 8DF80730 		strb	r3, [sp, #7]
 9951 0028 8DF80830 		strb	r3, [sp, #8]
 9952 002c 8DF80930 		strb	r3, [sp, #9]
 9953 0030 8DF80A30 		strb	r3, [sp, #10]
 9954 0034 8DF80B30 		strb	r3, [sp, #11]
 9955 0038 8DF80C30 		strb	r3, [sp, #12]
 9956 003c 8DF80D30 		strb	r3, [sp, #13]
 9957 0040 8DF80E30 		strb	r3, [sp, #14]
1857:.\protocolo.c **** 	if(versurt!=7){
 9958              		.loc 1 1857 0
 9959 0044 984B     		ldr	r3, .L773
 9960 0046 1B78     		ldrb	r3, [r3]	@ zero_extendqisi2
 9961 0048 072B     		cmp	r3, #7
 9962 004a 00F08A80 		beq	.L747
1858:.\protocolo.c **** 		buffer[0]=0xFF;
 9963              		.loc 1 1858 0
 9964 004e FF23     		movs	r3, #255
 9965 0050 8DF80030 		strb	r3, [sp]
1859:.\protocolo.c **** 		buffer[1]=0xE5;
 9966              		.loc 1 1859 0
 9967 0054 E523     		movs	r3, #229
 9968 0056 8DF80130 		strb	r3, [sp, #1]
1860:.\protocolo.c **** 		buffer[2]=0xF4;
 9969              		.loc 1 1860 0
 9970 005a F423     		movs	r3, #244
 9971 005c 8DF80230 		strb	r3, [sp, #2]
1861:.\protocolo.c **** 		buffer[3]=0xF6;
 9972              		.loc 1 1861 0
 9973 0060 F623     		movs	r3, #246
ARM GAS  C:\Users\diego\AppData\Local\Temp\ccvEcbYb.s 			page 217


 9974 0062 8DF80330 		strb	r3, [sp, #3]
1862:.\protocolo.c **** 		buffer[4]=(0xE0|((rventa.producto&0x0f)-1));
 9975              		.loc 1 1862 0
 9976 0066 914B     		ldr	r3, .L773+4
 9977 0068 93F8A330 		ldrb	r3, [r3, #163]	@ zero_extendqisi2
 9978 006c 03F00F03 		and	r3, r3, #15
 9979 0070 013B     		subs	r3, r3, #1
 9980 0072 63F01F03 		orn	r3, r3, #31
 9981 0076 8DF80430 		strb	r3, [sp, #4]
1863:.\protocolo.c **** 		buffer[5]=0xF7;	
 9982              		.loc 1 1863 0
 9983 007a F723     		movs	r3, #247
 9984 007c 8DF80530 		strb	r3, [sp, #5]
1864:.\protocolo.c **** 		if(ppux10==0){
 9985              		.loc 1 1864 0
 9986 0080 8B4B     		ldr	r3, .L773+8
 9987 0082 1B78     		ldrb	r3, [r3]	@ zero_extendqisi2
 9988 0084 D3B9     		cbnz	r3, .L748
1865:.\protocolo.c **** 			for(x=6;x<(6+teclas1);x++){
 9989              		.loc 1 1865 0
 9990 0086 0622     		movs	r2, #6
 9991 0088 8A4B     		ldr	r3, .L773+12
 9992 008a 1A60     		str	r2, [r3]
 9993 008c 0EE0     		b	.L749
 9994              	.L750:
1866:.\protocolo.c **** 				buffer[x]=(0xE0|(Buffer_LCD1.valor[teclas1-(x-6)]&0x0F));
 9995              		.loc 1 1866 0 discriminator 3
 9996 008e D21A     		subs	r2, r2, r3
 9997 0090 8949     		ldr	r1, .L773+16
 9998 0092 0A44     		add	r2, r2, r1
 9999 0094 D27A     		ldrb	r2, [r2, #11]	@ zero_extendqisi2
 10000 0096 04A9     		add	r1, sp, #16
 10001 0098 1944     		add	r1, r1, r3
 10002 009a 02F00F02 		and	r2, r2, #15
 10003 009e 62F01F02 		orn	r2, r2, #31
 10004 00a2 01F8102C 		strb	r2, [r1, #-16]
1865:.\protocolo.c **** 			for(x=6;x<(6+teclas1);x++){
 10005              		.loc 1 1865 0 discriminator 3
 10006 00a6 0133     		adds	r3, r3, #1
 10007 00a8 824A     		ldr	r2, .L773+12
 10008 00aa 1360     		str	r3, [r2]
 10009              	.L749:
1865:.\protocolo.c **** 			for(x=6;x<(6+teclas1);x++){
 10010              		.loc 1 1865 0 is_stmt 0 discriminator 1
 10011 00ac 834B     		ldr	r3, .L773+20
 10012 00ae 1A78     		ldrb	r2, [r3]	@ zero_extendqisi2
 10013 00b0 911D     		adds	r1, r2, #6
 10014 00b2 804B     		ldr	r3, .L773+12
 10015 00b4 1B68     		ldr	r3, [r3]
 10016 00b6 9942     		cmp	r1, r3
 10017 00b8 E9D8     		bhi	.L750
 10018 00ba 1CE0     		b	.L751
 10019              	.L748:
1867:.\protocolo.c **** 			}
1868:.\protocolo.c **** 		}
1869:.\protocolo.c **** 		else{
1870:.\protocolo.c **** 			teclas1=teclas1-1;
ARM GAS  C:\Users\diego\AppData\Local\Temp\ccvEcbYb.s 			page 218


 10020              		.loc 1 1870 0 is_stmt 1
 10021 00bc 7F4B     		ldr	r3, .L773+20
 10022 00be 1978     		ldrb	r1, [r3]	@ zero_extendqisi2
 10023 00c0 0139     		subs	r1, r1, #1
 10024 00c2 C9B2     		uxtb	r1, r1
 10025 00c4 1970     		strb	r1, [r3]
1871:.\protocolo.c **** 			for(x=6;x<(6+teclas1);x++){
 10026              		.loc 1 1871 0
 10027 00c6 0622     		movs	r2, #6
 10028 00c8 7A4B     		ldr	r3, .L773+12
 10029 00ca 1A60     		str	r2, [r3]
 10030 00cc 0EE0     		b	.L752
 10031              	.LVL784:
 10032              	.L753:
1872:.\protocolo.c **** 				buffer[x]=(0xE0|(Buffer_LCD1.valor[teclas1-(x-6)]&0x0F));
 10033              		.loc 1 1872 0 discriminator 3
 10034 00ce C81A     		subs	r0, r1, r3
 10035 00d0 794A     		ldr	r2, .L773+16
 10036 00d2 0244     		add	r2, r2, r0
 10037 00d4 D27A     		ldrb	r2, [r2, #11]	@ zero_extendqisi2
 10038 00d6 04A8     		add	r0, sp, #16
 10039 00d8 1844     		add	r0, r0, r3
 10040 00da 02F00F02 		and	r2, r2, #15
 10041 00de 62F01F02 		orn	r2, r2, #31
 10042 00e2 00F8102C 		strb	r2, [r0, #-16]
1871:.\protocolo.c **** 			for(x=6;x<(6+teclas1);x++){
 10043              		.loc 1 1871 0 discriminator 3
 10044 00e6 0133     		adds	r3, r3, #1
 10045 00e8 724A     		ldr	r2, .L773+12
 10046 00ea 1360     		str	r3, [r2]
 10047              	.L752:
1871:.\protocolo.c **** 			for(x=6;x<(6+teclas1);x++){
 10048              		.loc 1 1871 0 is_stmt 0 discriminator 1
 10049 00ec 8A1D     		adds	r2, r1, #6
 10050 00ee 714B     		ldr	r3, .L773+12
 10051 00f0 1B68     		ldr	r3, [r3]
 10052 00f2 9A42     		cmp	r2, r3
 10053 00f4 EBD8     		bhi	.L753
 10054              	.L751:
1873:.\protocolo.c **** 			}	
1874:.\protocolo.c **** 		}
1875:.\protocolo.c **** 		for(y=x;y<=9;y++){
 10055              		.loc 1 1875 0 is_stmt 1
 10056 00f6 6F4B     		ldr	r3, .L773+12
 10057 00f8 1A68     		ldr	r2, [r3]
 10058 00fa 714B     		ldr	r3, .L773+24
 10059 00fc 1A60     		str	r2, [r3]
 10060 00fe 07E0     		b	.L754
 10061              	.L755:
1876:.\protocolo.c **** 			buffer[y]=0xE0;	
 10062              		.loc 1 1876 0 discriminator 3
 10063 0100 04AA     		add	r2, sp, #16
 10064 0102 1A44     		add	r2, r2, r3
 10065 0104 E021     		movs	r1, #224
 10066 0106 02F8101C 		strb	r1, [r2, #-16]
1875:.\protocolo.c **** 			buffer[y]=0xE0;	
 10067              		.loc 1 1875 0 discriminator 3
ARM GAS  C:\Users\diego\AppData\Local\Temp\ccvEcbYb.s 			page 219


 10068 010a 0133     		adds	r3, r3, #1
 10069 010c 6C4A     		ldr	r2, .L773+24
 10070 010e 1360     		str	r3, [r2]
 10071              	.L754:
1875:.\protocolo.c **** 			buffer[y]=0xE0;	
 10072              		.loc 1 1875 0 is_stmt 0 discriminator 1
 10073 0110 6B4B     		ldr	r3, .L773+24
 10074 0112 1B68     		ldr	r3, [r3]
 10075 0114 092B     		cmp	r3, #9
 10076 0116 F3D9     		bls	.L755
1877:.\protocolo.c **** 		}
1878:.\protocolo.c **** 		buffer[10]=0xFB;
 10077              		.loc 1 1878 0 is_stmt 1
 10078 0118 FB23     		movs	r3, #251
 10079 011a 8DF80A30 		strb	r3, [sp, #10]
1879:.\protocolo.c **** 		for(x=0;x<=10;x++){
 10080              		.loc 1 1879 0
 10081 011e 0022     		movs	r2, #0
 10082 0120 644B     		ldr	r3, .L773+12
 10083 0122 1A60     		str	r2, [r3]
 10084 0124 0DE0     		b	.L756
 10085              	.L757:
1880:.\protocolo.c **** 			buffer[11]+=(buffer[x]&0x0F);	
 10086              		.loc 1 1880 0 discriminator 3
 10087 0126 04AA     		add	r2, sp, #16
 10088 0128 1A44     		add	r2, r2, r3
 10089 012a 12F8102C 		ldrb	r2, [r2, #-16]	@ zero_extendqisi2
 10090 012e 02F00F02 		and	r2, r2, #15
 10091 0132 9DF80B10 		ldrb	r1, [sp, #11]	@ zero_extendqisi2
 10092 0136 0A44     		add	r2, r2, r1
 10093 0138 8DF80B20 		strb	r2, [sp, #11]
1879:.\protocolo.c **** 		for(x=0;x<=10;x++){
 10094              		.loc 1 1879 0 discriminator 3
 10095 013c 0133     		adds	r3, r3, #1
 10096 013e 5D4A     		ldr	r2, .L773+12
 10097 0140 1360     		str	r3, [r2]
 10098              	.L756:
1879:.\protocolo.c **** 		for(x=0;x<=10;x++){
 10099              		.loc 1 1879 0 is_stmt 0 discriminator 1
 10100 0142 5C4B     		ldr	r3, .L773+12
 10101 0144 1B68     		ldr	r3, [r3]
 10102 0146 0A2B     		cmp	r3, #10
 10103 0148 EDD9     		bls	.L757
1881:.\protocolo.c **** 		}
1882:.\protocolo.c **** 		buffer[11]=(((~buffer[11])+1)&0x0F)|0xE0;
 10104              		.loc 1 1882 0 is_stmt 1
 10105 014a 9DF80B30 		ldrb	r3, [sp, #11]	@ zero_extendqisi2
 10106 014e 5B42     		negs	r3, r3
 10107 0150 03F00F03 		and	r3, r3, #15
 10108 0154 63F01F03 		orn	r3, r3, #31
 10109 0158 8DF80B30 		strb	r3, [sp, #11]
1883:.\protocolo.c **** 		buffer[12]=0xF0;
 10110              		.loc 1 1883 0
 10111 015c F023     		movs	r3, #240
 10112 015e 8DF80C30 		strb	r3, [sp, #12]
 10113              	.LVL785:
 10114              	.L747:
ARM GAS  C:\Users\diego\AppData\Local\Temp\ccvEcbYb.s 			page 220


1884:.\protocolo.c **** 		size=12;
1885:.\protocolo.c **** 	}
1886:.\protocolo.c **** 	if(versurt==7){
 10115              		.loc 1 1886 0
 10116 0162 514B     		ldr	r3, .L773
 10117 0164 1B78     		ldrb	r3, [r3]	@ zero_extendqisi2
 10118 0166 072B     		cmp	r3, #7
 10119 0168 68D1     		bne	.L768
1887:.\protocolo.c **** 		buffer[0]=0xFF;
 10120              		.loc 1 1887 0
 10121 016a FF23     		movs	r3, #255
 10122 016c 8DF80030 		strb	r3, [sp]
1888:.\protocolo.c **** 		buffer[1]=0xE3;
 10123              		.loc 1 1888 0
 10124 0170 E323     		movs	r3, #227
 10125 0172 8DF80130 		strb	r3, [sp, #1]
1889:.\protocolo.c **** 		buffer[2]=0xF4;
 10126              		.loc 1 1889 0
 10127 0176 F423     		movs	r3, #244
 10128 0178 8DF80230 		strb	r3, [sp, #2]
1890:.\protocolo.c **** 		buffer[3]=0xF6;
 10129              		.loc 1 1890 0
 10130 017c F623     		movs	r3, #246
 10131 017e 8DF80330 		strb	r3, [sp, #3]
1891:.\protocolo.c **** 		buffer[4]=(0xE0|((rventa.producto&0x0f)-1));
 10132              		.loc 1 1891 0
 10133 0182 4A4B     		ldr	r3, .L773+4
 10134 0184 93F8A330 		ldrb	r3, [r3, #163]	@ zero_extendqisi2
 10135 0188 03F00F03 		and	r3, r3, #15
 10136 018c 013B     		subs	r3, r3, #1
 10137 018e 63F01F03 		orn	r3, r3, #31
 10138 0192 8DF80430 		strb	r3, [sp, #4]
1892:.\protocolo.c **** 		buffer[5]=0xF7;		
 10139              		.loc 1 1892 0
 10140 0196 F723     		movs	r3, #247
 10141 0198 8DF80530 		strb	r3, [sp, #5]
1893:.\protocolo.c **** 		for(x=6;x<(6+teclas1);x++){
 10142              		.loc 1 1893 0
 10143 019c 0622     		movs	r2, #6
 10144 019e 454B     		ldr	r3, .L773+12
 10145 01a0 1A60     		str	r2, [r3]
 10146 01a2 0EE0     		b	.L759
 10147              	.L760:
1894:.\protocolo.c **** 			buffer[x]=(0xE0|(Buffer_LCD1.valor[teclas1-(x-6)]&0x0F));
 10148              		.loc 1 1894 0 discriminator 3
 10149 01a4 D21A     		subs	r2, r2, r3
 10150 01a6 4449     		ldr	r1, .L773+16
 10151 01a8 0A44     		add	r2, r2, r1
 10152 01aa D27A     		ldrb	r2, [r2, #11]	@ zero_extendqisi2
 10153 01ac 04A9     		add	r1, sp, #16
 10154 01ae 1944     		add	r1, r1, r3
 10155 01b0 02F00F02 		and	r2, r2, #15
 10156 01b4 62F01F02 		orn	r2, r2, #31
 10157 01b8 01F8102C 		strb	r2, [r1, #-16]
1893:.\protocolo.c **** 		for(x=6;x<(6+teclas1);x++){
 10158              		.loc 1 1893 0 discriminator 3
 10159 01bc 0133     		adds	r3, r3, #1
ARM GAS  C:\Users\diego\AppData\Local\Temp\ccvEcbYb.s 			page 221


 10160 01be 3D4A     		ldr	r2, .L773+12
 10161 01c0 1360     		str	r3, [r2]
 10162              	.L759:
1893:.\protocolo.c **** 		for(x=6;x<(6+teclas1);x++){
 10163              		.loc 1 1893 0 is_stmt 0 discriminator 1
 10164 01c2 3E4B     		ldr	r3, .L773+20
 10165 01c4 1A78     		ldrb	r2, [r3]	@ zero_extendqisi2
 10166 01c6 911D     		adds	r1, r2, #6
 10167 01c8 3A4B     		ldr	r3, .L773+12
 10168 01ca 1B68     		ldr	r3, [r3]
 10169 01cc 9942     		cmp	r1, r3
 10170 01ce E9D8     		bhi	.L760
1895:.\protocolo.c **** 		}	
1896:.\protocolo.c **** 		for(y=x;y<=11;y++){
 10171              		.loc 1 1896 0 is_stmt 1
 10172 01d0 3B4A     		ldr	r2, .L773+24
 10173 01d2 1360     		str	r3, [r2]
 10174 01d4 07E0     		b	.L761
 10175              	.L762:
1897:.\protocolo.c **** 			buffer[y]=0xE0;	
 10176              		.loc 1 1897 0 discriminator 3
 10177 01d6 04AA     		add	r2, sp, #16
 10178 01d8 1A44     		add	r2, r2, r3
 10179 01da E021     		movs	r1, #224
 10180 01dc 02F8101C 		strb	r1, [r2, #-16]
1896:.\protocolo.c **** 			buffer[y]=0xE0;	
 10181              		.loc 1 1896 0 discriminator 3
 10182 01e0 0133     		adds	r3, r3, #1
 10183 01e2 374A     		ldr	r2, .L773+24
 10184 01e4 1360     		str	r3, [r2]
 10185              	.L761:
1896:.\protocolo.c **** 			buffer[y]=0xE0;	
 10186              		.loc 1 1896 0 is_stmt 0 discriminator 1
 10187 01e6 364B     		ldr	r3, .L773+24
 10188 01e8 1B68     		ldr	r3, [r3]
 10189 01ea 0B2B     		cmp	r3, #11
 10190 01ec F3D9     		bls	.L762
1898:.\protocolo.c **** 		}		
1899:.\protocolo.c **** 		buffer[12]=0xFB;
 10191              		.loc 1 1899 0 is_stmt 1
 10192 01ee FB23     		movs	r3, #251
 10193 01f0 8DF80C30 		strb	r3, [sp, #12]
1900:.\protocolo.c **** 		for(x=0;x<=12;x++){
 10194              		.loc 1 1900 0
 10195 01f4 0022     		movs	r2, #0
 10196 01f6 2F4B     		ldr	r3, .L773+12
 10197 01f8 1A60     		str	r2, [r3]
 10198 01fa 0DE0     		b	.L763
 10199              	.L764:
1901:.\protocolo.c **** 			buffer[13]+=(buffer[x]&0x0F);	
 10200              		.loc 1 1901 0 discriminator 3
 10201 01fc 04AA     		add	r2, sp, #16
 10202 01fe 1A44     		add	r2, r2, r3
 10203 0200 12F8102C 		ldrb	r2, [r2, #-16]	@ zero_extendqisi2
 10204 0204 02F00F02 		and	r2, r2, #15
 10205 0208 9DF80D10 		ldrb	r1, [sp, #13]	@ zero_extendqisi2
 10206 020c 0A44     		add	r2, r2, r1
ARM GAS  C:\Users\diego\AppData\Local\Temp\ccvEcbYb.s 			page 222


 10207 020e 8DF80D20 		strb	r2, [sp, #13]
1900:.\protocolo.c **** 		for(x=0;x<=12;x++){
 10208              		.loc 1 1900 0 discriminator 3
 10209 0212 0133     		adds	r3, r3, #1
 10210 0214 274A     		ldr	r2, .L773+12
 10211 0216 1360     		str	r3, [r2]
 10212              	.L763:
1900:.\protocolo.c **** 		for(x=0;x<=12;x++){
 10213              		.loc 1 1900 0 is_stmt 0 discriminator 1
 10214 0218 264B     		ldr	r3, .L773+12
 10215 021a 1B68     		ldr	r3, [r3]
 10216 021c 0C2B     		cmp	r3, #12
 10217 021e EDD9     		bls	.L764
1902:.\protocolo.c **** 		}
1903:.\protocolo.c **** 		buffer[13]=(((~buffer[13])+1)&0x0F)|0xE0;
 10218              		.loc 1 1903 0 is_stmt 1
 10219 0220 9DF80D30 		ldrb	r3, [sp, #13]	@ zero_extendqisi2
 10220 0224 5B42     		negs	r3, r3
 10221 0226 03F00F03 		and	r3, r3, #15
 10222 022a 63F01F03 		orn	r3, r3, #31
 10223 022e 8DF80D30 		strb	r3, [sp, #13]
1904:.\protocolo.c **** 		buffer[14]=0xF0;
 10224              		.loc 1 1904 0
 10225 0232 F023     		movs	r3, #240
 10226 0234 8DF80E30 		strb	r3, [sp, #14]
 10227              	.LVL786:
1905:.\protocolo.c **** 		size=14;
 10228              		.loc 1 1905 0
 10229 0238 0E25     		movs	r5, #14
 10230 023a 00E0     		b	.L758
 10231              	.LVL787:
 10232              	.L768:
 10233 023c 0C25     		movs	r5, #12
 10234              	.LVL788:
 10235              	.L758:
1906:.\protocolo.c **** 	}	
1907:.\protocolo.c **** 	Surtidor_PutChar(0x20|dir);	
 10236              		.loc 1 1907 0
 10237 023e 44F02000 		orr	r0, r4, #32
 10238 0242 FFF7FEFF 		bl	Surtidor_PutChar
 10239              	.LVL789:
1908:.\protocolo.c ****     CyDelay(100);
 10240              		.loc 1 1908 0
 10241 0246 6420     		movs	r0, #100
 10242 0248 FFF7FEFF 		bl	CyDelay
 10243              	.LVL790:
1909:.\protocolo.c ****     if(Surtidor_GetRxBufferSize()>=1){
 10244              		.loc 1 1909 0
 10245 024c FFF7FEFF 		bl	Surtidor_GetRxBufferSize
 10246              	.LVL791:
 10247 0250 10B3     		cbz	r0, .L769
1910:.\protocolo.c **** 		if(Surtidor_ReadRxData()==(0xD0|dir)){
 10248              		.loc 1 1910 0
 10249 0252 FFF7FEFF 		bl	Surtidor_ReadRxData
 10250              	.LVL792:
 10251 0256 44F0D003 		orr	r3, r4, #208
 10252 025a 9842     		cmp	r0, r3
ARM GAS  C:\Users\diego\AppData\Local\Temp\ccvEcbYb.s 			page 223


 10253 025c 1ED1     		bne	.L770
1911:.\protocolo.c ****             Surtidor_ClearRxBuffer();
 10254              		.loc 1 1911 0
 10255 025e FFF7FEFF 		bl	Surtidor_ClearRxBuffer
 10256              	.LVL793:
1912:.\protocolo.c ****             for(x=0;x<=size;x++){
 10257              		.loc 1 1912 0
 10258 0262 0022     		movs	r2, #0
 10259 0264 134B     		ldr	r3, .L773+12
 10260 0266 1A60     		str	r2, [r3]
 10261 0268 09E0     		b	.L766
 10262              	.L767:
1913:.\protocolo.c ****                	Surtidor_PutChar(buffer[x]); 	
 10263              		.loc 1 1913 0 discriminator 3
 10264 026a 04AA     		add	r2, sp, #16
 10265 026c 1344     		add	r3, r3, r2
 10266 026e 13F8100C 		ldrb	r0, [r3, #-16]	@ zero_extendqisi2
 10267 0272 FFF7FEFF 		bl	Surtidor_PutChar
 10268              	.LVL794:
1912:.\protocolo.c ****             for(x=0;x<=size;x++){
 10269              		.loc 1 1912 0 discriminator 3
 10270 0276 0F4A     		ldr	r2, .L773+12
 10271 0278 1368     		ldr	r3, [r2]
 10272 027a 0133     		adds	r3, r3, #1
 10273 027c 1360     		str	r3, [r2]
 10274              	.L766:
1912:.\protocolo.c ****             for(x=0;x<=size;x++){
 10275              		.loc 1 1912 0 is_stmt 0 discriminator 1
 10276 027e 0D4B     		ldr	r3, .L773+12
 10277 0280 1B68     		ldr	r3, [r3]
 10278 0282 9D42     		cmp	r5, r3
 10279 0284 F1D2     		bcs	.L767
1914:.\protocolo.c ****             }
1915:.\protocolo.c **** 			CyDelay(50);
 10280              		.loc 1 1915 0 is_stmt 1
 10281 0286 3220     		movs	r0, #50
 10282 0288 FFF7FEFF 		bl	CyDelay
 10283              	.LVL795:
1916:.\protocolo.c **** 			if(get_estado(dir)==0){
 10284              		.loc 1 1916 0
 10285 028c 2046     		mov	r0, r4
 10286 028e FFF7FEFF 		bl	get_estado
 10287              	.LVL796:
 10288 0292 0346     		mov	r3, r0
 10289 0294 20B9     		cbnz	r0, .L771
 10290 0296 04E0     		b	.L765
 10291              	.L769:
1917:.\protocolo.c **** 				return 0;
1918:.\protocolo.c **** 			}
1919:.\protocolo.c **** 			else{
1920:.\protocolo.c **** 				return 1;
1921:.\protocolo.c **** 			}
1922:.\protocolo.c **** 		}
1923:.\protocolo.c **** 		else{
1924:.\protocolo.c **** 			return 0;
1925:.\protocolo.c **** 		}
1926:.\protocolo.c **** 	}
ARM GAS  C:\Users\diego\AppData\Local\Temp\ccvEcbYb.s 			page 224


1927:.\protocolo.c **** 	else{
1928:.\protocolo.c **** 		return 0;	
 10292              		.loc 1 1928 0
 10293 0298 0023     		movs	r3, #0
 10294 029a 02E0     		b	.L765
 10295              	.L770:
1924:.\protocolo.c **** 		}
 10296              		.loc 1 1924 0
 10297 029c 0023     		movs	r3, #0
 10298 029e 00E0     		b	.L765
 10299              	.L771:
1920:.\protocolo.c **** 			}
 10300              		.loc 1 1920 0
 10301 02a0 0123     		movs	r3, #1
 10302              	.L765:
1929:.\protocolo.c **** 	}
1930:.\protocolo.c **** }
 10303              		.loc 1 1930 0
 10304 02a2 1846     		mov	r0, r3
 10305 02a4 05B0     		add	sp, sp, #20
 10306              		.cfi_def_cfa_offset 12
 10307              		@ sp needed
 10308 02a6 30BD     		pop	{r4, r5, pc}
 10309              	.LVL797:
 10310              	.L774:
 10311              		.align	2
 10312              	.L773:
 10313 02a8 00000000 		.word	versurt
 10314 02ac 00000000 		.word	rventa
 10315 02b0 00000000 		.word	ppux10
 10316 02b4 00000000 		.word	x
 10317 02b8 06000000 		.word	Buffer_LCD1+6
 10318 02bc 00000000 		.word	teclas1
 10319 02c0 00000000 		.word	y
 10320              		.cfi_endproc
 10321              	.LFE69:
 10322              		.size	cambiar_precio, .-cambiar_precio
 10323              		.section	.text.totales,"ax",%progbits
 10324              		.align	2
 10325              		.global	totales
 10326              		.thumb
 10327              		.thumb_func
 10328              		.type	totales, %function
 10329              	totales:
 10330              	.LFB70:
1931:.\protocolo.c **** 
1932:.\protocolo.c **** /*
1933:.\protocolo.c **** ***************************************************************************************************
1934:.\protocolo.c **** *                                         uint8 totales(uint8 dir)
1935:.\protocolo.c **** *
1936:.\protocolo.c **** * Description : 
1937:.\protocolo.c **** *               
1938:.\protocolo.c **** *
1939:.\protocolo.c **** * Argument(s) : none
1940:.\protocolo.c **** *
1941:.\protocolo.c **** * Return(s)   : none
1942:.\protocolo.c **** *
ARM GAS  C:\Users\diego\AppData\Local\Temp\ccvEcbYb.s 			page 225


1943:.\protocolo.c **** * Caller(s)   : 
1944:.\protocolo.c **** *
1945:.\protocolo.c **** * Note(s)     : none.
1946:.\protocolo.c **** ***************************************************************************************************
1947:.\protocolo.c **** */
1948:.\protocolo.c **** uint8 totales (uint8 addr){
 10331              		.loc 1 1948 0
 10332              		.cfi_startproc
 10333              		@ args = 0, pretend = 0, frame = 0
 10334              		@ frame_needed = 0, uses_anonymous_args = 0
 10335              	.LVL798:
 10336 0000 10B5     		push	{r4, lr}
 10337              		.cfi_def_cfa_offset 8
 10338              		.cfi_offset 4, -8
 10339              		.cfi_offset 14, -4
 10340 0002 0446     		mov	r4, r0
1949:.\protocolo.c ****     uint8 x;
1950:.\protocolo.c ****     Surtidor_ClearRxBuffer();
 10341              		.loc 1 1950 0
 10342 0004 FFF7FEFF 		bl	Surtidor_ClearRxBuffer
 10343              	.LVL799:
1951:.\protocolo.c ****     Surtidor_PutChar(0x50|addr);
 10344              		.loc 1 1951 0
 10345 0008 44F05000 		orr	r0, r4, #80
 10346 000c FFF7FEFF 		bl	Surtidor_PutChar
 10347              	.LVL800:
1952:.\protocolo.c ****     CyDelay(100);
 10348              		.loc 1 1952 0
 10349 0010 6420     		movs	r0, #100
 10350 0012 FFF7FEFF 		bl	CyDelay
 10351              	.LVL801:
1953:.\protocolo.c **** 	if(Surtidor_GetRxBufferSize()>=1){
 10352              		.loc 1 1953 0
 10353 0016 FFF7FEFF 		bl	Surtidor_GetRxBufferSize
 10354              	.LVL802:
 10355 001a C0B1     		cbz	r0, .L776
1954:.\protocolo.c ****         if(addr==(a.dir)){
 10356              		.loc 1 1954 0
 10357 001c 0D4B     		ldr	r3, .L779
 10358 001e 1B78     		ldrb	r3, [r3]	@ zero_extendqisi2
 10359 0020 A342     		cmp	r3, r4
 10360 0022 14D1     		bne	.L776
1955:.\protocolo.c ****             x=Surtidor_GetRxBufferSize();
 10361              		.loc 1 1955 0
 10362 0024 FFF7FEFF 		bl	Surtidor_GetRxBufferSize
 10363              	.LVL803:
 10364 0028 C0B2     		uxtb	r0, r0
 10365              	.LVL804:
1956:.\protocolo.c ****             if((x==46)||(x==88)||(x==130)){				
 10366              		.loc 1 1956 0
 10367 002a 2E28     		cmp	r0, #46
 10368 002c 03D0     		beq	.L777
 10369              		.loc 1 1956 0 is_stmt 0 discriminator 1
 10370 002e 5828     		cmp	r0, #88
 10371 0030 01D0     		beq	.L777
 10372              		.loc 1 1956 0 discriminator 2
 10373 0032 8228     		cmp	r0, #130
ARM GAS  C:\Users\diego\AppData\Local\Temp\ccvEcbYb.s 			page 226


 10374 0034 0BD1     		bne	.L776
 10375              	.L777:
1957:.\protocolo.c **** 					if((Surtidor_rxBuffer[0]==0xFF)&&(Surtidor_rxBuffer[1]==0xF6)&&(Surtidor_rxBuffer[3]==0xF9)){
 10376              		.loc 1 1957 0 is_stmt 1
 10377 0036 084B     		ldr	r3, .L779+4
 10378 0038 1B78     		ldrb	r3, [r3]	@ zero_extendqisi2
 10379 003a DBB2     		uxtb	r3, r3
 10380 003c FF2B     		cmp	r3, #255
 10381 003e 06D1     		bne	.L776
 10382              		.loc 1 1957 0 is_stmt 0 discriminator 1
 10383 0040 054B     		ldr	r3, .L779+4
 10384 0042 5B78     		ldrb	r3, [r3, #1]	@ zero_extendqisi2
 10385 0044 DBB2     		uxtb	r3, r3
 10386 0046 F62B     		cmp	r3, #246
 10387 0048 01D1     		bne	.L776
 10388              		.loc 1 1957 0 discriminator 2
 10389 004a 034B     		ldr	r3, .L779+4
 10390 004c DB78     		ldrb	r3, [r3, #3]	@ zero_extendqisi2
 10391              	.LVL805:
 10392              	.L776:
1958:.\protocolo.c ****                     
1959:.\protocolo.c ****                     }
1960:.\protocolo.c ****             }
1961:.\protocolo.c ****         }
1962:.\protocolo.c ****     }
1963:.\protocolo.c ****     
1964:.\protocolo.c ****     return 0;
1965:.\protocolo.c **** }
 10393              		.loc 1 1965 0 is_stmt 1
 10394 004e 0020     		movs	r0, #0
 10395 0050 10BD     		pop	{r4, pc}
 10396              	.L780:
 10397 0052 00BF     		.align	2
 10398              	.L779:
 10399 0054 00000000 		.word	a
 10400 0058 00000000 		.word	Surtidor_rxBuffer
 10401              		.cfi_endproc
 10402              	.LFE70:
 10403              		.size	totales, .-totales
 10404              		.global	msn_totalcero
 10405              		.global	msn_tventas
 10406              		.global	msn_lecaan
 10407              		.global	msn_lecact
 10408              		.global	msn_tc
 10409              		.comm	rventa2,225,4
 10410              		.comm	rventa,225,4
 10411              		.comm	producto,1,1
 10412              		.comm	grado4,1,1
 10413              		.comm	grado3,1,1
 10414              		.comm	grado2,1,1
 10415              		.comm	grado1,1,1
 10416              		.comm	modulo,400,4
 10417              		.comm	w,4,4
 10418              		.comm	z,4,4
 10419              		.comm	y,4,4
 10420              		.comm	x,4,4
 10421              		.comm	d,76,4
ARM GAS  C:\Users\diego\AppData\Local\Temp\ccvEcbYb.s 			page 227


 10422              		.comm	c,76,4
 10423              		.comm	b,76,4
 10424              		.comm	a,76,4
 10425              		.comm	estado_0,1,1
 10426              		.comm	Buffer_LCD4,152,4
 10427              		.comm	Buffer_LCD3,152,4
 10428              		.comm	Buffer_LCD2,152,4
 10429              		.comm	Buffer_LCD1,152,4
 10430              		.comm	no_venta,4,4
 10431              		.comm	id_corte,2,2
 10432              		.comm	venta_activa4,1,1
 10433              		.comm	venta_activa2,1,1
 10434              		.comm	venta_activa3,1,1
 10435              		.comm	venta_activa,1,1
 10436              		.comm	seleccion_pos2,1,1
 10437              		.comm	seleccion_pos,1,1
 10438              		.comm	estado_lcd2,1,1
 10439              		.comm	estado_lcd1,1,1
 10440              		.comm	flujo_pos4,1,1
 10441              		.comm	flujo_pos3,1,1
 10442              		.comm	flujo_pos2,1,1
 10443              		.comm	flujo_pos,1,1
 10444              		.comm	imagen,1,1
 10445              		.comm	no_imprime2,1,1
 10446              		.comm	no_imprime,1,1
 10447              		.comm	n_copias,1,4
 10448              		.comm	a_copias,1,1
 10449              		.comm	producto4n,10,4
 10450              		.comm	producto3n,10,4
 10451              		.comm	producto2n,10,4
 10452              		.comm	producto1n,10,4
 10453              		.comm	nombreproducto,1,1
 10454              		.comm	id_venta,6,4
 10455              		.comm	copia_recibo2,2,4
 10456              		.comm	copia_recibo,2,4
 10457              		.comm	print2,2,4
 10458              		.comm	print1,2,4
 10459              		.comm	crc_total,1,1
 10460              		.comm	pos_ibutton,1,1
 10461              		.comm	fecha_corte,6,4
 10462              		.comm	decimalD,1,1
 10463              		.comm	decimalV,1,1
 10464              		.comm	tipo_imp,2,4
 10465              		.comm	bandera,2,4
 10466              		.comm	ppux10,1,1
 10467              		.comm	teclado2,1,1
 10468              		.comm	teclado,1,1
 10469              		.comm	resultado,14,4
 10470              		.comm	buffer_i2c,64,4
 10471              		.comm	producto4d,1,1
 10472              		.comm	producto3d,1,1
 10473              		.comm	producto2d,1,1
 10474              		.comm	producto1d,1,1
 10475              		.comm	producto4c,1,1
 10476              		.comm	producto3c,1,1
 10477              		.comm	producto2c,1,1
 10478              		.comm	producto1c,1,1
ARM GAS  C:\Users\diego\AppData\Local\Temp\ccvEcbYb.s 			page 228


 10479              		.comm	producto4b,1,1
 10480              		.comm	producto3b,1,1
 10481              		.comm	producto2b,1,1
 10482              		.comm	producto1b,1,1
 10483              		.comm	producto4,1,1
 10484              		.comm	producto3,1,1
 10485              		.comm	producto2,1,1
 10486              		.comm	producto1,1,1
 10487              		.comm	versurt,1,1
 10488              		.comm	comas2,1,1
 10489              		.comm	comas1,1,1
 10490              		.comm	teclas2,1,1
 10491              		.comm	teclas1,1,1
 10492              		.comm	cont1,1,1
 10493              		.comm	flujo_LCD4,1,1
 10494              		.comm	flujo_LCD3,1,1
 10495              		.comm	flujo_LCD2,1,1
 10496              		.comm	flujo_LCD,1,1
 10497              		.section	.rodata
 10498              		.align	2
 10499              		.set	.LANCHOR0,. + 0
 10500              	.LC0:
 10501 0000 FF       		.byte	-1
 10502 0001 E9       		.byte	-23
 10503 0002 FE       		.byte	-2
 10504 0003 E0       		.byte	-32
 10505 0004 E1       		.byte	-31
 10506 0005 E0       		.byte	-32
 10507 0006 FB       		.byte	-5
 10508 0007 EE       		.byte	-18
 10509 0008 F0       		.byte	-16
 10510 0009 000000   		.data
 10511              		.align	2
 10512              		.set	.LANCHOR1,. + 0
 10513              		.type	msn_tc, %object
 10514              		.size	msn_tc, 6
 10515              	msn_tc:
 10516 0000 544F5441 		.ascii	"TOTAL\000"
 10516      4C00
 10517 0006 0000     		.space	2
 10518              		.type	msn_lecact, %object
 10519              		.size	msn_lecact, 15
 10520              	msn_lecact:
 10521 0008 56616C6F 		.ascii	"Valor actual: \000"
 10521      72206163 
 10521      7475616C 
 10521      3A2000
 10522 0017 00       		.space	1
 10523              		.type	msn_lecaan, %object
 10524              		.size	msn_lecaan, 17
 10525              	msn_lecaan:
 10526 0018 56616C6F 		.ascii	"Valor anterior:  "
 10526      7220616E 
 10526      74657269 
 10526      6F723A20 
 10526      20
 10527 0029 000000   		.space	3
ARM GAS  C:\Users\diego\AppData\Local\Temp\ccvEcbYb.s 			page 229


 10528              		.type	msn_tventas, %object
 10529              		.size	msn_tventas, 18
 10530              	msn_tventas:
 10531 002c 44696E65 		.ascii	"Dinero total: $   "
 10531      726F2074 
 10531      6F74616C 
 10531      3A202420 
 10531      2020
 10532 003e 0000     		.space	2
 10533              		.type	msn_totalcero, %object
 10534              		.size	msn_totalcero, 15
 10535              	msn_totalcero:
 10536 0040 4E6F2074 		.ascii	"No toma totales"
 10536      6F6D6120 
 10536      746F7461 
 10536      6C6573
 10537 004f 00       		.text
 10538              	.Letext0:
 10539              		.file 2 "c:\\program files (x86)\\cypress\\psoc creator\\3.3\\psoc creator\\import\\gnu\\arm\\4.9.
 10540              		.file 3 "c:\\program files (x86)\\cypress\\psoc creator\\3.3\\psoc creator\\import\\gnu\\arm\\4.9.
 10541              		.file 4 "Generated_Source\\PSoC5/cytypes.h"
 10542              		.file 5 ".\\VariablesG.h"
 10543              		.file 6 "Generated_Source\\PSoC5/Surtidor.h"
 10544              		.file 7 "Generated_Source\\PSoC5/core_cm3.h"
 10545              		.file 8 "Generated_Source\\PSoC5/CyLib.h"
 10546              		.file 9 ".\\I2C.h"
 10547              		.file 10 ".\\Print.h"
 10548              		.section	.debug_info,"",%progbits
 10549              	.Ldebug_info0:
 10550 0000 89400000 		.4byte	0x4089
 10551 0004 0400     		.2byte	0x4
 10552 0006 00000000 		.4byte	.Ldebug_abbrev0
 10553 000a 04       		.byte	0x4
 10554 000b 01       		.uleb128 0x1
 10555 000c 18060000 		.4byte	.LASF161
 10556 0010 01       		.byte	0x1
 10557 0011 47050000 		.4byte	.LASF162
 10558 0015 89000000 		.4byte	.LASF163
 10559 0019 00000000 		.4byte	.Ldebug_ranges0+0
 10560 001d 00000000 		.4byte	0
 10561 0021 00000000 		.4byte	.Ldebug_line0
 10562 0025 02       		.uleb128 0x2
 10563 0026 01       		.byte	0x1
 10564 0027 06       		.byte	0x6
 10565 0028 BC060000 		.4byte	.LASF0
 10566 002c 02       		.uleb128 0x2
 10567 002d 01       		.byte	0x1
 10568 002e 08       		.byte	0x8
 10569 002f 0A060000 		.4byte	.LASF1
 10570 0033 02       		.uleb128 0x2
 10571 0034 02       		.byte	0x2
 10572 0035 05       		.byte	0x5
 10573 0036 0E050000 		.4byte	.LASF2
 10574 003a 02       		.uleb128 0x2
 10575 003b 02       		.byte	0x2
 10576 003c 07       		.byte	0x7
 10577 003d CE060000 		.4byte	.LASF3
ARM GAS  C:\Users\diego\AppData\Local\Temp\ccvEcbYb.s 			page 230


 10578 0041 03       		.uleb128 0x3
 10579 0042 51000000 		.4byte	.LASF9
 10580 0046 02       		.byte	0x2
 10581 0047 3F       		.byte	0x3f
 10582 0048 4C000000 		.4byte	0x4c
 10583 004c 02       		.uleb128 0x2
 10584 004d 04       		.byte	0x4
 10585 004e 05       		.byte	0x5
 10586 004f 18050000 		.4byte	.LASF4
 10587 0053 02       		.uleb128 0x2
 10588 0054 04       		.byte	0x4
 10589 0055 07       		.byte	0x7
 10590 0056 BC050000 		.4byte	.LASF5
 10591 005a 02       		.uleb128 0x2
 10592 005b 08       		.byte	0x8
 10593 005c 05       		.byte	0x5
 10594 005d 13040000 		.4byte	.LASF6
 10595 0061 02       		.uleb128 0x2
 10596 0062 08       		.byte	0x8
 10597 0063 07       		.byte	0x7
 10598 0064 45020000 		.4byte	.LASF7
 10599 0068 04       		.uleb128 0x4
 10600 0069 04       		.byte	0x4
 10601 006a 05       		.byte	0x5
 10602 006b 696E7400 		.ascii	"int\000"
 10603 006f 02       		.uleb128 0x2
 10604 0070 04       		.byte	0x4
 10605 0071 07       		.byte	0x7
 10606 0072 36000000 		.4byte	.LASF8
 10607 0076 03       		.uleb128 0x3
 10608 0077 EB050000 		.4byte	.LASF10
 10609 007b 03       		.byte	0x3
 10610 007c 2C       		.byte	0x2c
 10611 007d 41000000 		.4byte	0x41
 10612 0081 05       		.uleb128 0x5
 10613 0082 14070000 		.4byte	.LASF11
 10614 0086 04       		.byte	0x4
 10615 0087 3801     		.2byte	0x138
 10616 0089 2C000000 		.4byte	0x2c
 10617 008d 05       		.uleb128 0x5
 10618 008e C1030000 		.4byte	.LASF12
 10619 0092 04       		.byte	0x4
 10620 0093 3901     		.2byte	0x139
 10621 0095 3A000000 		.4byte	0x3a
 10622 0099 05       		.uleb128 0x5
 10623 009a 72040000 		.4byte	.LASF13
 10624 009e 04       		.byte	0x4
 10625 009f 3A01     		.2byte	0x13a
 10626 00a1 53000000 		.4byte	0x53
 10627 00a5 02       		.uleb128 0x2
 10628 00a6 04       		.byte	0x4
 10629 00a7 04       		.byte	0x4
 10630 00a8 E9010000 		.4byte	.LASF14
 10631 00ac 02       		.uleb128 0x2
 10632 00ad 08       		.byte	0x8
 10633 00ae 04       		.byte	0x4
 10634 00af 1A070000 		.4byte	.LASF15
ARM GAS  C:\Users\diego\AppData\Local\Temp\ccvEcbYb.s 			page 231


 10635 00b3 02       		.uleb128 0x2
 10636 00b4 01       		.byte	0x1
 10637 00b5 08       		.byte	0x8
 10638 00b6 A4030000 		.4byte	.LASF16
 10639 00ba 02       		.uleb128 0x2
 10640 00bb 04       		.byte	0x4
 10641 00bc 07       		.byte	0x7
 10642 00bd B3050000 		.4byte	.LASF17
 10643 00c1 06       		.uleb128 0x6
 10644 00c2 2F000000 		.4byte	.LASF28
 10645 00c6 98       		.byte	0x98
 10646 00c7 05       		.byte	0x5
 10647 00c8 98       		.byte	0x98
 10648 00c9 68010000 		.4byte	0x168
 10649 00cd 07       		.uleb128 0x7
 10650 00ce 6D040000 		.4byte	.LASF18
 10651 00d2 05       		.byte	0x5
 10652 00d3 99       		.byte	0x99
 10653 00d4 81000000 		.4byte	0x81
 10654 00d8 00       		.byte	0
 10655 00d9 08       		.uleb128 0x8
 10656 00da 706F7300 		.ascii	"pos\000"
 10657 00de 05       		.byte	0x5
 10658 00df 9A       		.byte	0x9a
 10659 00e0 81000000 		.4byte	0x81
 10660 00e4 01       		.byte	0x1
 10661 00e5 07       		.uleb128 0x7
 10662 00e6 F9000000 		.4byte	.LASF19
 10663 00ea 05       		.byte	0x5
 10664 00eb 9B       		.byte	0x9b
 10665 00ec 81000000 		.4byte	0x81
 10666 00f0 02       		.byte	0x2
 10667 00f1 07       		.uleb128 0x7
 10668 00f2 C2010000 		.4byte	.LASF20
 10669 00f6 05       		.byte	0x5
 10670 00f7 9C       		.byte	0x9c
 10671 00f8 81000000 		.4byte	0x81
 10672 00fc 03       		.byte	0x3
 10673 00fd 08       		.uleb128 0x8
 10674 00fe 6B6D00   		.ascii	"km\000"
 10675 0101 05       		.byte	0x5
 10676 0102 9D       		.byte	0x9d
 10677 0103 68010000 		.4byte	0x168
 10678 0107 04       		.byte	0x4
 10679 0108 07       		.uleb128 0x7
 10680 0109 C8060000 		.4byte	.LASF21
 10681 010d 05       		.byte	0x5
 10682 010e 9E       		.byte	0x9e
 10683 010f 78010000 		.4byte	0x178
 10684 0113 0B       		.byte	0xb
 10685 0114 08       		.uleb128 0x8
 10686 0115 696400   		.ascii	"id\000"
 10687 0118 05       		.byte	0x5
 10688 0119 9F       		.byte	0x9f
 10689 011a 78010000 		.4byte	0x178
 10690 011e 29       		.byte	0x29
 10691 011f 07       		.uleb128 0x7
ARM GAS  C:\Users\diego\AppData\Local\Temp\ccvEcbYb.s 			page 232


 10692 0120 64020000 		.4byte	.LASF22
 10693 0124 05       		.byte	0x5
 10694 0125 A0       		.byte	0xa0
 10695 0126 78010000 		.4byte	0x178
 10696 012a 47       		.byte	0x47
 10697 012b 07       		.uleb128 0x7
 10698 012c CB020000 		.4byte	.LASF23
 10699 0130 05       		.byte	0x5
 10700 0131 A1       		.byte	0xa1
 10701 0132 78010000 		.4byte	0x178
 10702 0136 65       		.byte	0x65
 10703 0137 07       		.uleb128 0x7
 10704 0138 5B000000 		.4byte	.LASF24
 10705 013c 05       		.byte	0x5
 10706 013d A2       		.byte	0xa2
 10707 013e 81000000 		.4byte	0x81
 10708 0142 83       		.byte	0x83
 10709 0143 07       		.uleb128 0x7
 10710 0144 43040000 		.4byte	.LASF25
 10711 0148 05       		.byte	0x5
 10712 0149 A3       		.byte	0xa3
 10713 014a 88010000 		.4byte	0x188
 10714 014e 84       		.byte	0x84
 10715 014f 07       		.uleb128 0x7
 10716 0150 00000000 		.4byte	.LASF26
 10717 0154 05       		.byte	0x5
 10718 0155 A4       		.byte	0xa4
 10719 0156 98010000 		.4byte	0x198
 10720 015a 8E       		.byte	0x8e
 10721 015b 07       		.uleb128 0x7
 10722 015c E2030000 		.4byte	.LASF27
 10723 0160 05       		.byte	0x5
 10724 0161 A5       		.byte	0xa5
 10725 0162 81000000 		.4byte	0x81
 10726 0166 97       		.byte	0x97
 10727 0167 00       		.byte	0
 10728 0168 09       		.uleb128 0x9
 10729 0169 81000000 		.4byte	0x81
 10730 016d 78010000 		.4byte	0x178
 10731 0171 0A       		.uleb128 0xa
 10732 0172 BA000000 		.4byte	0xba
 10733 0176 06       		.byte	0x6
 10734 0177 00       		.byte	0
 10735 0178 09       		.uleb128 0x9
 10736 0179 81000000 		.4byte	0x81
 10737 017d 88010000 		.4byte	0x188
 10738 0181 0A       		.uleb128 0xa
 10739 0182 BA000000 		.4byte	0xba
 10740 0186 1D       		.byte	0x1d
 10741 0187 00       		.byte	0
 10742 0188 09       		.uleb128 0x9
 10743 0189 81000000 		.4byte	0x81
 10744 018d 98010000 		.4byte	0x198
 10745 0191 0A       		.uleb128 0xa
 10746 0192 BA000000 		.4byte	0xba
 10747 0196 09       		.byte	0x9
 10748 0197 00       		.byte	0
ARM GAS  C:\Users\diego\AppData\Local\Temp\ccvEcbYb.s 			page 233


 10749 0198 09       		.uleb128 0x9
 10750 0199 81000000 		.4byte	0x81
 10751 019d A8010000 		.4byte	0x1a8
 10752 01a1 0A       		.uleb128 0xa
 10753 01a2 BA000000 		.4byte	0xba
 10754 01a6 08       		.byte	0x8
 10755 01a7 00       		.byte	0
 10756 01a8 0B       		.uleb128 0xb
 10757 01a9 706F7300 		.ascii	"pos\000"
 10758 01ad 4C       		.byte	0x4c
 10759 01ae 05       		.byte	0x5
 10760 01af AE       		.byte	0xae
 10761 01b0 F1010000 		.4byte	0x1f1
 10762 01b4 08       		.uleb128 0x8
 10763 01b5 64697200 		.ascii	"dir\000"
 10764 01b9 05       		.byte	0x5
 10765 01ba AF       		.byte	0xaf
 10766 01bb 81000000 		.4byte	0x81
 10767 01bf 00       		.byte	0
 10768 01c0 07       		.uleb128 0x7
 10769 01c1 A5040000 		.4byte	.LASF29
 10770 01c5 05       		.byte	0x5
 10771 01c6 B0       		.byte	0xb0
 10772 01c7 81000000 		.4byte	0x81
 10773 01cb 01       		.byte	0x1
 10774 01cc 07       		.uleb128 0x7
 10775 01cd 34070000 		.4byte	.LASF30
 10776 01d1 05       		.byte	0x5
 10777 01d2 B1       		.byte	0xb1
 10778 01d3 81000000 		.4byte	0x81
 10779 01d7 02       		.byte	0x2
 10780 01d8 07       		.uleb128 0x7
 10781 01d9 14000000 		.4byte	.LASF31
 10782 01dd 05       		.byte	0x5
 10783 01de B2       		.byte	0xb2
 10784 01df 81000000 		.4byte	0x81
 10785 01e3 03       		.byte	0x3
 10786 01e4 07       		.uleb128 0x7
 10787 01e5 FF030000 		.4byte	.LASF32
 10788 01e9 05       		.byte	0x5
 10789 01ea B3       		.byte	0xb3
 10790 01eb 07020000 		.4byte	0x207
 10791 01ef 04       		.byte	0x4
 10792 01f0 00       		.byte	0
 10793 01f1 09       		.uleb128 0x9
 10794 01f2 81000000 		.4byte	0x81
 10795 01f6 07020000 		.4byte	0x207
 10796 01fa 0A       		.uleb128 0xa
 10797 01fb BA000000 		.4byte	0xba
 10798 01ff 02       		.byte	0x2
 10799 0200 0A       		.uleb128 0xa
 10800 0201 BA000000 		.4byte	0xba
 10801 0205 17       		.byte	0x17
 10802 0206 00       		.byte	0
 10803 0207 0C       		.uleb128 0xc
 10804 0208 F1010000 		.4byte	0x1f1
 10805 020c 06       		.uleb128 0x6
ARM GAS  C:\Users\diego\AppData\Local\Temp\ccvEcbYb.s 			page 234


 10806 020d 8B040000 		.4byte	.LASF33
 10807 0211 E1       		.byte	0xe1
 10808 0212 05       		.byte	0x5
 10809 0213 BD       		.byte	0xbd
 10810 0214 F1020000 		.4byte	0x2f1
 10811 0218 07       		.uleb128 0x7
 10812 0219 DE040000 		.4byte	.LASF34
 10813 021d 05       		.byte	0x5
 10814 021e BE       		.byte	0xbe
 10815 021f 78010000 		.4byte	0x178
 10816 0223 00       		.byte	0
 10817 0224 08       		.uleb128 0x8
 10818 0225 6E697400 		.ascii	"nit\000"
 10819 0229 05       		.byte	0x5
 10820 022a BF       		.byte	0xbf
 10821 022b F1020000 		.4byte	0x2f1
 10822 022f 1E       		.byte	0x1e
 10823 0230 07       		.uleb128 0x7
 10824 0231 2A040000 		.4byte	.LASF35
 10825 0235 05       		.byte	0x5
 10826 0236 C0       		.byte	0xc0
 10827 0237 01030000 		.4byte	0x301
 10828 023b 2D       		.byte	0x2d
 10829 023c 07       		.uleb128 0x7
 10830 023d 2B030000 		.4byte	.LASF36
 10831 0241 05       		.byte	0x5
 10832 0242 C1       		.byte	0xc1
 10833 0243 11030000 		.4byte	0x311
 10834 0247 2F       		.byte	0x2f
 10835 0248 07       		.uleb128 0x7
 10836 0249 8C010000 		.4byte	.LASF37
 10837 024d 05       		.byte	0x5
 10838 024e C2       		.byte	0xc2
 10839 024f 78010000 		.4byte	0x178
 10840 0253 43       		.byte	0x43
 10841 0254 07       		.uleb128 0x7
 10842 0255 0F020000 		.4byte	.LASF38
 10843 0259 05       		.byte	0x5
 10844 025a C3       		.byte	0xc3
 10845 025b 78010000 		.4byte	0x178
 10846 025f 61       		.byte	0x61
 10847 0260 07       		.uleb128 0x7
 10848 0261 15020000 		.4byte	.LASF39
 10849 0265 05       		.byte	0x5
 10850 0266 C4       		.byte	0xc4
 10851 0267 78010000 		.4byte	0x178
 10852 026b 7F       		.byte	0x7f
 10853 026c 07       		.uleb128 0x7
 10854 026d B1060000 		.4byte	.LASF40
 10855 0271 05       		.byte	0x5
 10856 0272 C5       		.byte	0xc5
 10857 0273 21030000 		.4byte	0x321
 10858 0277 9D       		.byte	0x9d
 10859 0278 07       		.uleb128 0x7
 10860 0279 3C010000 		.4byte	.LASF41
 10861 027d 05       		.byte	0x5
 10862 027e C6       		.byte	0xc6
ARM GAS  C:\Users\diego\AppData\Local\Temp\ccvEcbYb.s 			page 235


 10863 027f 01030000 		.4byte	0x301
 10864 0283 A0       		.byte	0xa0
 10865 0284 07       		.uleb128 0x7
 10866 0285 72010000 		.4byte	.LASF42
 10867 0289 05       		.byte	0x5
 10868 028a C7       		.byte	0xc7
 10869 028b 81000000 		.4byte	0x81
 10870 028f A2       		.byte	0xa2
 10871 0290 07       		.uleb128 0x7
 10872 0291 21040000 		.4byte	.LASF43
 10873 0295 05       		.byte	0x5
 10874 0296 C8       		.byte	0xc8
 10875 0297 81000000 		.4byte	0x81
 10876 029b A3       		.byte	0xa3
 10877 029c 08       		.uleb128 0x8
 10878 029d 70707500 		.ascii	"ppu\000"
 10879 02a1 05       		.byte	0x5
 10880 02a2 C9       		.byte	0xc9
 10881 02a3 68010000 		.4byte	0x168
 10882 02a7 A4       		.byte	0xa4
 10883 02a8 07       		.uleb128 0x7
 10884 02a9 92040000 		.4byte	.LASF44
 10885 02ad 05       		.byte	0x5
 10886 02ae CA       		.byte	0xca
 10887 02af 98010000 		.4byte	0x198
 10888 02b3 AB       		.byte	0xab
 10889 02b4 07       		.uleb128 0x7
 10890 02b5 1D030000 		.4byte	.LASF45
 10891 02b9 05       		.byte	0x5
 10892 02ba CB       		.byte	0xcb
 10893 02bb 98010000 		.4byte	0x198
 10894 02bf B4       		.byte	0xb4
 10895 02c0 07       		.uleb128 0x7
 10896 02c1 5E030000 		.4byte	.LASF46
 10897 02c5 05       		.byte	0x5
 10898 02c6 CC       		.byte	0xcc
 10899 02c7 31030000 		.4byte	0x331
 10900 02cb BD       		.byte	0xbd
 10901 02cc 07       		.uleb128 0x7
 10902 02cd 6A010000 		.4byte	.LASF47
 10903 02d1 05       		.byte	0x5
 10904 02d2 CD       		.byte	0xcd
 10905 02d3 31030000 		.4byte	0x331
 10906 02d7 CA       		.byte	0xca
 10907 02d8 07       		.uleb128 0x7
 10908 02d9 00000000 		.4byte	.LASF26
 10909 02dd 05       		.byte	0x5
 10910 02de CE       		.byte	0xce
 10911 02df 98010000 		.4byte	0x198
 10912 02e3 D7       		.byte	0xd7
 10913 02e4 07       		.uleb128 0x7
 10914 02e5 34070000 		.4byte	.LASF30
 10915 02e9 05       		.byte	0x5
 10916 02ea CF       		.byte	0xcf
 10917 02eb 81000000 		.4byte	0x81
 10918 02ef E0       		.byte	0xe0
 10919 02f0 00       		.byte	0
ARM GAS  C:\Users\diego\AppData\Local\Temp\ccvEcbYb.s 			page 236


 10920 02f1 09       		.uleb128 0x9
 10921 02f2 81000000 		.4byte	0x81
 10922 02f6 01030000 		.4byte	0x301
 10923 02fa 0A       		.uleb128 0xa
 10924 02fb BA000000 		.4byte	0xba
 10925 02ff 0E       		.byte	0xe
 10926 0300 00       		.byte	0
 10927 0301 09       		.uleb128 0x9
 10928 0302 81000000 		.4byte	0x81
 10929 0306 11030000 		.4byte	0x311
 10930 030a 0A       		.uleb128 0xa
 10931 030b BA000000 		.4byte	0xba
 10932 030f 01       		.byte	0x1
 10933 0310 00       		.byte	0
 10934 0311 09       		.uleb128 0x9
 10935 0312 81000000 		.4byte	0x81
 10936 0316 21030000 		.4byte	0x321
 10937 031a 0A       		.uleb128 0xa
 10938 031b BA000000 		.4byte	0xba
 10939 031f 13       		.byte	0x13
 10940 0320 00       		.byte	0
 10941 0321 09       		.uleb128 0x9
 10942 0322 81000000 		.4byte	0x81
 10943 0326 31030000 		.4byte	0x331
 10944 032a 0A       		.uleb128 0xa
 10945 032b BA000000 		.4byte	0xba
 10946 032f 02       		.byte	0x2
 10947 0330 00       		.byte	0
 10948 0331 09       		.uleb128 0x9
 10949 0332 81000000 		.4byte	0x81
 10950 0336 41030000 		.4byte	0x341
 10951 033a 0A       		.uleb128 0xa
 10952 033b BA000000 		.4byte	0xba
 10953 033f 0C       		.byte	0xc
 10954 0340 00       		.byte	0
 10955 0341 0D       		.uleb128 0xd
 10956 0342 15030000 		.4byte	.LASF48
 10957 0346 01       		.byte	0x1
 10958 0347 47       		.byte	0x47
 10959 0348 81000000 		.4byte	0x81
 10960 034c 00000000 		.4byte	.LFB63
 10961 0350 14010000 		.4byte	.LFE63-.LFB63
 10962 0354 01       		.uleb128 0x1
 10963 0355 9C       		.byte	0x9c
 10964 0356 D8030000 		.4byte	0x3d8
 10965 035a 0E       		.uleb128 0xe
 10966 035b 7800     		.ascii	"x\000"
 10967 035d 01       		.byte	0x1
 10968 035e 48       		.byte	0x48
 10969 035f 81000000 		.4byte	0x81
 10970 0363 00000000 		.4byte	.LLST0
 10971 0367 0F       		.uleb128 0xf
 10972 0368 1E000000 		.4byte	.LVL2
 10973 036c AB3F0000 		.4byte	0x3fab
 10974 0370 7B030000 		.4byte	0x37b
 10975 0374 10       		.uleb128 0x10
 10976 0375 01       		.uleb128 0x1
ARM GAS  C:\Users\diego\AppData\Local\Temp\ccvEcbYb.s 			page 237


 10977 0376 50       		.byte	0x50
 10978 0377 02       		.uleb128 0x2
 10979 0378 74       		.byte	0x74
 10980 0379 00       		.sleb128 0
 10981 037a 00       		.byte	0
 10982 037b 0F       		.uleb128 0xf
 10983 037c 24000000 		.4byte	.LVL3
 10984 0380 BC3F0000 		.4byte	0x3fbc
 10985 0384 8F030000 		.4byte	0x38f
 10986 0388 10       		.uleb128 0x10
 10987 0389 01       		.uleb128 0x1
 10988 038a 50       		.byte	0x50
 10989 038b 02       		.uleb128 0x2
 10990 038c 08       		.byte	0x8
 10991 038d 64       		.byte	0x64
 10992 038e 00       		.byte	0
 10993 038f 11       		.uleb128 0x11
 10994 0390 28000000 		.4byte	.LVL4
 10995 0394 CD3F0000 		.4byte	0x3fcd
 10996 0398 11       		.uleb128 0x11
 10997 0399 3A000000 		.4byte	.LVL5
 10998 039d D83F0000 		.4byte	0x3fd8
 10999 03a1 11       		.uleb128 0x11
 11000 03a2 3E000000 		.4byte	.LVL6
 11001 03a6 CD3F0000 		.4byte	0x3fcd
 11002 03aa 11       		.uleb128 0x11
 11003 03ab 58000000 		.4byte	.LVL7
 11004 03af D83F0000 		.4byte	0x3fd8
 11005 03b3 11       		.uleb128 0x11
 11006 03b4 5C000000 		.4byte	.LVL8
 11007 03b8 CD3F0000 		.4byte	0x3fcd
 11008 03bc 11       		.uleb128 0x11
 11009 03bd 7A000000 		.4byte	.LVL9
 11010 03c1 D83F0000 		.4byte	0x3fd8
 11011 03c5 11       		.uleb128 0x11
 11012 03c6 7E000000 		.4byte	.LVL10
 11013 03ca CD3F0000 		.4byte	0x3fcd
 11014 03ce 11       		.uleb128 0x11
 11015 03cf A8000000 		.4byte	.LVL11
 11016 03d3 D83F0000 		.4byte	0x3fd8
 11017 03d7 00       		.byte	0
 11018 03d8 0D       		.uleb128 0xd
 11019 03d9 A6060000 		.4byte	.LASF49
 11020 03dd 01       		.byte	0x1
 11021 03de 82       		.byte	0x82
 11022 03df 81000000 		.4byte	0x81
 11023 03e3 00000000 		.4byte	.LFB64
 11024 03e7 26000000 		.4byte	.LFE64-.LFB64
 11025 03eb 01       		.uleb128 0x1
 11026 03ec 9C       		.byte	0x9c
 11027 03ed 48040000 		.4byte	0x448
 11028 03f1 12       		.uleb128 0x12
 11029 03f2 64697200 		.ascii	"dir\000"
 11030 03f6 01       		.byte	0x1
 11031 03f7 82       		.byte	0x82
 11032 03f8 81000000 		.4byte	0x81
 11033 03fc 2A000000 		.4byte	.LLST1
ARM GAS  C:\Users\diego\AppData\Local\Temp\ccvEcbYb.s 			page 238


 11034 0400 13       		.uleb128 0x13
 11035 0401 A5040000 		.4byte	.LASF29
 11036 0405 01       		.byte	0x1
 11037 0406 83       		.byte	0x83
 11038 0407 81000000 		.4byte	0x81
 11039 040b 4B000000 		.4byte	.LLST2
 11040 040f 11       		.uleb128 0x11
 11041 0410 06000000 		.4byte	.LVL21
 11042 0414 AB3F0000 		.4byte	0x3fab
 11043 0418 0F       		.uleb128 0xf
 11044 0419 0C000000 		.4byte	.LVL22
 11045 041d BC3F0000 		.4byte	0x3fbc
 11046 0421 2C040000 		.4byte	0x42c
 11047 0425 10       		.uleb128 0x10
 11048 0426 01       		.uleb128 0x1
 11049 0427 50       		.byte	0x50
 11050 0428 02       		.uleb128 0x2
 11051 0429 08       		.byte	0x8
 11052 042a 32       		.byte	0x32
 11053 042b 00       		.byte	0
 11054 042c 11       		.uleb128 0x11
 11055 042d 10000000 		.4byte	.LVL23
 11056 0431 CD3F0000 		.4byte	0x3fcd
 11057 0435 11       		.uleb128 0x11
 11058 0436 16000000 		.4byte	.LVL24
 11059 043a DF3F0000 		.4byte	0x3fdf
 11060 043e 11       		.uleb128 0x11
 11061 043f 1E000000 		.4byte	.LVL26
 11062 0443 D83F0000 		.4byte	0x3fd8
 11063 0447 00       		.byte	0
 11064 0448 0D       		.uleb128 0xd
 11065 0449 99050000 		.4byte	.LASF50
 11066 044d 01       		.byte	0x1
 11067 044e BD       		.byte	0xbd
 11068 044f 81000000 		.4byte	0x81
 11069 0453 00000000 		.4byte	.LFB65
 11070 0457 E8000000 		.4byte	.LFE65-.LFB65
 11071 045b 01       		.uleb128 0x1
 11072 045c 9C       		.byte	0x9c
 11073 045d 2B050000 		.4byte	0x52b
 11074 0461 12       		.uleb128 0x12
 11075 0462 76616C00 		.ascii	"val\000"
 11076 0466 01       		.byte	0x1
 11077 0467 BD       		.byte	0xbd
 11078 0468 81000000 		.4byte	0x81
 11079 046c 5E000000 		.4byte	.LLST3
 11080 0470 14       		.uleb128 0x14
 11081 0471 21070000 		.4byte	.LASF51
 11082 0475 01       		.byte	0x1
 11083 0476 BE       		.byte	0xbe
 11084 0477 2B050000 		.4byte	0x52b
 11085 047b 02       		.uleb128 0x2
 11086 047c 91       		.byte	0x91
 11087 047d 64       		.sleb128 -28
 11088 047e 0E       		.uleb128 0xe
 11089 047f 7800     		.ascii	"x\000"
 11090 0481 01       		.byte	0x1
ARM GAS  C:\Users\diego\AppData\Local\Temp\ccvEcbYb.s 			page 239


 11091 0482 BE       		.byte	0xbe
 11092 0483 81000000 		.4byte	0x81
 11093 0487 7F000000 		.4byte	.LLST4
 11094 048b 14       		.uleb128 0x14
 11095 048c 8B030000 		.4byte	.LASF52
 11096 0490 01       		.byte	0x1
 11097 0491 BE       		.byte	0xbe
 11098 0492 98010000 		.4byte	0x198
 11099 0496 02       		.uleb128 0x2
 11100 0497 91       		.byte	0x91
 11101 0498 58       		.sleb128 -40
 11102 0499 0F       		.uleb128 0xf
 11103 049a 1C000000 		.4byte	.LVL30
 11104 049e AB3F0000 		.4byte	0x3fab
 11105 04a2 B0040000 		.4byte	0x4b0
 11106 04a6 10       		.uleb128 0x10
 11107 04a7 01       		.uleb128 0x1
 11108 04a8 50       		.byte	0x50
 11109 04a9 05       		.uleb128 0x5
 11110 04aa 74       		.byte	0x74
 11111 04ab 00       		.sleb128 0
 11112 04ac 08       		.byte	0x8
 11113 04ad 20       		.byte	0x20
 11114 04ae 21       		.byte	0x21
 11115 04af 00       		.byte	0
 11116 04b0 0F       		.uleb128 0xf
 11117 04b1 28000000 		.4byte	.LVL31
 11118 04b5 BC3F0000 		.4byte	0x3fbc
 11119 04b9 C4040000 		.4byte	0x4c4
 11120 04bd 10       		.uleb128 0x10
 11121 04be 01       		.uleb128 0x1
 11122 04bf 50       		.byte	0x50
 11123 04c0 02       		.uleb128 0x2
 11124 04c1 08       		.byte	0x8
 11125 04c2 64       		.byte	0x64
 11126 04c3 00       		.byte	0
 11127 04c4 11       		.uleb128 0x11
 11128 04c5 2C000000 		.4byte	.LVL32
 11129 04c9 CD3F0000 		.4byte	0x3fcd
 11130 04cd 11       		.uleb128 0x11
 11131 04ce 34000000 		.4byte	.LVL33
 11132 04d2 DF3F0000 		.4byte	0x3fdf
 11133 04d6 11       		.uleb128 0x11
 11134 04d7 40000000 		.4byte	.LVL34
 11135 04db D83F0000 		.4byte	0x3fd8
 11136 04df 0F       		.uleb128 0xf
 11137 04e0 50000000 		.4byte	.LVL36
 11138 04e4 AB3F0000 		.4byte	0x3fab
 11139 04e8 FB040000 		.4byte	0x4fb
 11140 04ec 10       		.uleb128 0x10
 11141 04ed 01       		.uleb128 0x1
 11142 04ee 50       		.byte	0x50
 11143 04ef 0A       		.uleb128 0xa
 11144 04f0 91       		.byte	0x91
 11145 04f1 00       		.sleb128 0
 11146 04f2 74       		.byte	0x74
 11147 04f3 00       		.sleb128 0
ARM GAS  C:\Users\diego\AppData\Local\Temp\ccvEcbYb.s 			page 240


 11148 04f4 22       		.byte	0x22
 11149 04f5 08       		.byte	0x8
 11150 04f6 28       		.byte	0x28
 11151 04f7 1C       		.byte	0x1c
 11152 04f8 94       		.byte	0x94
 11153 04f9 01       		.byte	0x1
 11154 04fa 00       		.byte	0
 11155 04fb 0F       		.uleb128 0xf
 11156 04fc 5E000000 		.4byte	.LVL39
 11157 0500 BC3F0000 		.4byte	0x3fbc
 11158 0504 0F050000 		.4byte	0x50f
 11159 0508 10       		.uleb128 0x10
 11160 0509 01       		.uleb128 0x1
 11161 050a 50       		.byte	0x50
 11162 050b 02       		.uleb128 0x2
 11163 050c 08       		.byte	0x8
 11164 050d C8       		.byte	0xc8
 11165 050e 00       		.byte	0
 11166 050f 11       		.uleb128 0x11
 11167 0510 62000000 		.4byte	.LVL40
 11168 0514 CD3F0000 		.4byte	0x3fcd
 11169 0518 11       		.uleb128 0x11
 11170 0519 6E000000 		.4byte	.LVL41
 11171 051d DF3F0000 		.4byte	0x3fdf
 11172 0521 11       		.uleb128 0x11
 11173 0522 86000000 		.4byte	.LVL45
 11174 0526 D83F0000 		.4byte	0x3fd8
 11175 052a 00       		.byte	0
 11176 052b 09       		.uleb128 0x9
 11177 052c 81000000 		.4byte	0x81
 11178 0530 3B050000 		.4byte	0x53b
 11179 0534 0A       		.uleb128 0xa
 11180 0535 BA000000 		.4byte	0xba
 11181 0539 12       		.byte	0x12
 11182 053a 00       		.byte	0
 11183 053b 15       		.uleb128 0x15
 11184 053c 25030000 		.4byte	.LASF53
 11185 0540 01       		.byte	0x1
 11186 0541 1301     		.2byte	0x113
 11187 0543 81000000 		.4byte	0x81
 11188 0547 00000000 		.4byte	.LFB66
 11189 054b E8010000 		.4byte	.LFE66-.LFB66
 11190 054f 01       		.uleb128 0x1
 11191 0550 9C       		.byte	0x9c
 11192 0551 8F060000 		.4byte	0x68f
 11193 0555 16       		.uleb128 0x16
 11194 0556 76616C00 		.ascii	"val\000"
 11195 055a 01       		.byte	0x1
 11196 055b 1301     		.2byte	0x113
 11197 055d 81000000 		.4byte	0x81
 11198 0561 BF000000 		.4byte	.LLST5
 11199 0565 17       		.uleb128 0x17
 11200 0566 CE050000 		.4byte	.LASF54
 11201 056a 01       		.byte	0x1
 11202 056b 1401     		.2byte	0x114
 11203 056d 8F060000 		.4byte	0x68f
 11204 0571 02       		.uleb128 0x2
ARM GAS  C:\Users\diego\AppData\Local\Temp\ccvEcbYb.s 			page 241


 11205 0572 91       		.byte	0x91
 11206 0573 48       		.sleb128 -56
 11207 0574 18       		.uleb128 0x18
 11208 0575 7800     		.ascii	"x\000"
 11209 0577 01       		.byte	0x1
 11210 0578 1401     		.2byte	0x114
 11211 057a 81000000 		.4byte	0x81
 11212 057e E0000000 		.4byte	.LLST6
 11213 0582 18       		.uleb128 0x18
 11214 0583 706F7300 		.ascii	"pos\000"
 11215 0587 01       		.byte	0x1
 11216 0588 1401     		.2byte	0x114
 11217 058a 81000000 		.4byte	0x81
 11218 058e C6010000 		.4byte	.LLST7
 11219 0592 18       		.uleb128 0x18
 11220 0593 7900     		.ascii	"y\000"
 11221 0595 01       		.byte	0x1
 11222 0596 1401     		.2byte	0x114
 11223 0598 81000000 		.4byte	0x81
 11224 059c FB010000 		.4byte	.LLST8
 11225 05a0 0F       		.uleb128 0xf
 11226 05a1 0E000000 		.4byte	.LVL52
 11227 05a5 AB3F0000 		.4byte	0x3fab
 11228 05a9 B7050000 		.4byte	0x5b7
 11229 05ad 10       		.uleb128 0x10
 11230 05ae 01       		.uleb128 0x1
 11231 05af 50       		.byte	0x50
 11232 05b0 05       		.uleb128 0x5
 11233 05b1 74       		.byte	0x74
 11234 05b2 00       		.sleb128 0
 11235 05b3 08       		.byte	0x8
 11236 05b4 40       		.byte	0x40
 11237 05b5 21       		.byte	0x21
 11238 05b6 00       		.byte	0
 11239 05b7 0F       		.uleb128 0xf
 11240 05b8 16000000 		.4byte	.LVL53
 11241 05bc BC3F0000 		.4byte	0x3fbc
 11242 05c0 CC050000 		.4byte	0x5cc
 11243 05c4 10       		.uleb128 0x10
 11244 05c5 01       		.uleb128 0x1
 11245 05c6 50       		.byte	0x50
 11246 05c7 03       		.uleb128 0x3
 11247 05c8 0A       		.byte	0xa
 11248 05c9 2C01     		.2byte	0x12c
 11249 05cb 00       		.byte	0
 11250 05cc 11       		.uleb128 0x11
 11251 05cd 1A000000 		.4byte	.LVL54
 11252 05d1 CD3F0000 		.4byte	0x3fcd
 11253 05d5 11       		.uleb128 0x11
 11254 05d6 26000000 		.4byte	.LVL56
 11255 05da DF3F0000 		.4byte	0x3fdf
 11256 05de 11       		.uleb128 0x11
 11257 05df 3A000000 		.4byte	.LVL61
 11258 05e3 CD3F0000 		.4byte	0x3fcd
 11259 05e7 11       		.uleb128 0x11
 11260 05e8 42000000 		.4byte	.LVL62
 11261 05ec D83F0000 		.4byte	0x3fd8
ARM GAS  C:\Users\diego\AppData\Local\Temp\ccvEcbYb.s 			page 242


 11262 05f0 0F       		.uleb128 0xf
 11263 05f1 88010000 		.4byte	.LVL103
 11264 05f5 EA3F0000 		.4byte	0x3fea
 11265 05f9 0B060000 		.4byte	0x60b
 11266 05fd 10       		.uleb128 0x10
 11267 05fe 01       		.uleb128 0x1
 11268 05ff 51       		.byte	0x51
 11269 0600 02       		.uleb128 0x2
 11270 0601 74       		.byte	0x74
 11271 0602 00       		.sleb128 0
 11272 0603 10       		.uleb128 0x10
 11273 0604 01       		.uleb128 0x1
 11274 0605 50       		.byte	0x50
 11275 0606 03       		.uleb128 0x3
 11276 0607 0A       		.byte	0xa
 11277 0608 C901     		.2byte	0x1c9
 11278 060a 00       		.byte	0
 11279 060b 0F       		.uleb128 0xf
 11280 060c 94010000 		.4byte	.LVL104
 11281 0610 EA3F0000 		.4byte	0x3fea
 11282 0614 26060000 		.4byte	0x626
 11283 0618 10       		.uleb128 0x10
 11284 0619 01       		.uleb128 0x1
 11285 061a 51       		.byte	0x51
 11286 061b 02       		.uleb128 0x2
 11287 061c 74       		.byte	0x74
 11288 061d 09       		.sleb128 9
 11289 061e 10       		.uleb128 0x10
 11290 061f 01       		.uleb128 0x1
 11291 0620 50       		.byte	0x50
 11292 0621 03       		.uleb128 0x3
 11293 0622 0A       		.byte	0xa
 11294 0623 D201     		.2byte	0x1d2
 11295 0625 00       		.byte	0
 11296 0626 0F       		.uleb128 0xf
 11297 0627 9E010000 		.4byte	.LVL105
 11298 062b EA3F0000 		.4byte	0x3fea
 11299 062f 41060000 		.4byte	0x641
 11300 0633 10       		.uleb128 0x10
 11301 0634 01       		.uleb128 0x1
 11302 0635 51       		.byte	0x51
 11303 0636 02       		.uleb128 0x2
 11304 0637 74       		.byte	0x74
 11305 0638 79       		.sleb128 -7
 11306 0639 10       		.uleb128 0x10
 11307 063a 01       		.uleb128 0x1
 11308 063b 50       		.byte	0x50
 11309 063c 03       		.uleb128 0x3
 11310 063d 0A       		.byte	0xa
 11311 063e DB01     		.2byte	0x1db
 11312 0640 00       		.byte	0
 11313 0641 0F       		.uleb128 0xf
 11314 0642 AE010000 		.4byte	.LVL106
 11315 0646 EA3F0000 		.4byte	0x3fea
 11316 064a 5C060000 		.4byte	0x65c
 11317 064e 10       		.uleb128 0x10
 11318 064f 01       		.uleb128 0x1
ARM GAS  C:\Users\diego\AppData\Local\Temp\ccvEcbYb.s 			page 243


 11319 0650 51       		.byte	0x51
 11320 0651 02       		.uleb128 0x2
 11321 0652 74       		.byte	0x74
 11322 0653 00       		.sleb128 0
 11323 0654 10       		.uleb128 0x10
 11324 0655 01       		.uleb128 0x1
 11325 0656 50       		.byte	0x50
 11326 0657 03       		.uleb128 0x3
 11327 0658 0A       		.byte	0xa
 11328 0659 E201     		.2byte	0x1e2
 11329 065b 00       		.byte	0
 11330 065c 0F       		.uleb128 0xf
 11331 065d B8010000 		.4byte	.LVL107
 11332 0661 EA3F0000 		.4byte	0x3fea
 11333 0665 77060000 		.4byte	0x677
 11334 0669 10       		.uleb128 0x10
 11335 066a 01       		.uleb128 0x1
 11336 066b 51       		.byte	0x51
 11337 066c 02       		.uleb128 0x2
 11338 066d 74       		.byte	0x74
 11339 066e 79       		.sleb128 -7
 11340 066f 10       		.uleb128 0x10
 11341 0670 01       		.uleb128 0x1
 11342 0671 50       		.byte	0x50
 11343 0672 03       		.uleb128 0x3
 11344 0673 0A       		.byte	0xa
 11345 0674 F401     		.2byte	0x1f4
 11346 0676 00       		.byte	0
 11347 0677 19       		.uleb128 0x19
 11348 0678 C4010000 		.4byte	.LVL108
 11349 067c EA3F0000 		.4byte	0x3fea
 11350 0680 10       		.uleb128 0x10
 11351 0681 01       		.uleb128 0x1
 11352 0682 51       		.byte	0x51
 11353 0683 02       		.uleb128 0x2
 11354 0684 74       		.byte	0x74
 11355 0685 09       		.sleb128 9
 11356 0686 10       		.uleb128 0x10
 11357 0687 01       		.uleb128 0x1
 11358 0688 50       		.byte	0x50
 11359 0689 03       		.uleb128 0x3
 11360 068a 0A       		.byte	0xa
 11361 068b EB01     		.2byte	0x1eb
 11362 068d 00       		.byte	0
 11363 068e 00       		.byte	0
 11364 068f 09       		.uleb128 0x9
 11365 0690 81000000 		.4byte	0x81
 11366 0694 9F060000 		.4byte	0x69f
 11367 0698 0A       		.uleb128 0xa
 11368 0699 BA000000 		.4byte	0xba
 11369 069d 26       		.byte	0x26
 11370 069e 00       		.byte	0
 11371 069f 15       		.uleb128 0x15
 11372 06a0 3B050000 		.4byte	.LASF55
 11373 06a4 01       		.byte	0x1
 11374 06a5 7201     		.2byte	0x172
 11375 06a7 81000000 		.4byte	0x81
ARM GAS  C:\Users\diego\AppData\Local\Temp\ccvEcbYb.s 			page 244


 11376 06ab 00000000 		.4byte	.LFB67
 11377 06af 0C370000 		.4byte	.LFE67-.LFB67
 11378 06b3 01       		.uleb128 0x1
 11379 06b4 9C       		.byte	0x9c
 11380 06b5 53360000 		.4byte	0x3653
 11381 06b9 16       		.uleb128 0x16
 11382 06ba 64697200 		.ascii	"dir\000"
 11383 06be 01       		.byte	0x1
 11384 06bf 7201     		.2byte	0x172
 11385 06c1 81000000 		.4byte	0x81
 11386 06c5 69020000 		.4byte	.LLST9
 11387 06c9 16       		.uleb128 0x16
 11388 06ca 76616C00 		.ascii	"val\000"
 11389 06ce 01       		.byte	0x1
 11390 06cf 7201     		.2byte	0x172
 11391 06d1 81000000 		.4byte	0x81
 11392 06d5 8A020000 		.4byte	.LLST10
 11393 06d9 17       		.uleb128 0x17
 11394 06da A9030000 		.4byte	.LASF56
 11395 06de 01       		.byte	0x1
 11396 06df 7301     		.2byte	0x173
 11397 06e1 53360000 		.4byte	0x3653
 11398 06e5 02       		.uleb128 0x2
 11399 06e6 91       		.byte	0x91
 11400 06e7 54       		.sleb128 -44
 11401 06e8 17       		.uleb128 0x17
 11402 06e9 E1060000 		.4byte	.LASF57
 11403 06ed 01       		.byte	0x1
 11404 06ee 7301     		.2byte	0x173
 11405 06f0 63360000 		.4byte	0x3663
 11406 06f4 02       		.uleb128 0x2
 11407 06f5 91       		.byte	0x91
 11408 06f6 44       		.sleb128 -60
 11409 06f7 17       		.uleb128 0x17
 11410 06f8 D1020000 		.4byte	.LASF58
 11411 06fc 01       		.byte	0x1
 11412 06fd 7301     		.2byte	0x173
 11413 06ff 63360000 		.4byte	0x3663
 11414 0703 03       		.uleb128 0x3
 11415 0704 91       		.byte	0x91
 11416 0705 B47F     		.sleb128 -76
 11417 0707 18       		.uleb128 0x18
 11418 0708 74616D00 		.ascii	"tam\000"
 11419 070c 01       		.byte	0x1
 11420 070d 7401     		.2byte	0x174
 11421 070f 81000000 		.4byte	0x81
 11422 0713 AB020000 		.4byte	.LLST11
 11423 0717 0F       		.uleb128 0xf
 11424 0718 10000000 		.4byte	.LVL114
 11425 071c AB3F0000 		.4byte	0x3fab
 11426 0720 2E070000 		.4byte	0x72e
 11427 0724 10       		.uleb128 0x10
 11428 0725 01       		.uleb128 0x1
 11429 0726 50       		.byte	0x50
 11430 0727 05       		.uleb128 0x5
 11431 0728 75       		.byte	0x75
 11432 0729 00       		.sleb128 0
ARM GAS  C:\Users\diego\AppData\Local\Temp\ccvEcbYb.s 			page 245


 11433 072a 08       		.byte	0x8
 11434 072b 50       		.byte	0x50
 11435 072c 21       		.byte	0x21
 11436 072d 00       		.byte	0
 11437 072e 0F       		.uleb128 0xf
 11438 072f 18000000 		.4byte	.LVL115
 11439 0733 BC3F0000 		.4byte	0x3fbc
 11440 0737 43070000 		.4byte	0x743
 11441 073b 10       		.uleb128 0x10
 11442 073c 01       		.uleb128 0x1
 11443 073d 50       		.byte	0x50
 11444 073e 03       		.uleb128 0x3
 11445 073f 0A       		.byte	0xa
 11446 0740 E803     		.2byte	0x3e8
 11447 0742 00       		.byte	0
 11448 0743 11       		.uleb128 0x11
 11449 0744 1C000000 		.4byte	.LVL116
 11450 0748 CD3F0000 		.4byte	0x3fcd
 11451 074c 0F       		.uleb128 0xf
 11452 074d 82010000 		.4byte	.LVL119
 11453 0751 04400000 		.4byte	0x4004
 11454 0755 60070000 		.4byte	0x760
 11455 0759 10       		.uleb128 0x10
 11456 075a 01       		.uleb128 0x1
 11457 075b 50       		.byte	0x50
 11458 075c 02       		.uleb128 0x2
 11459 075d 74       		.byte	0x74
 11460 075e 00       		.sleb128 0
 11461 075f 00       		.byte	0
 11462 0760 0F       		.uleb128 0xf
 11463 0761 9A010000 		.4byte	.LVL120
 11464 0765 04400000 		.4byte	0x4004
 11465 0769 79070000 		.4byte	0x779
 11466 076d 10       		.uleb128 0x10
 11467 076e 01       		.uleb128 0x1
 11468 076f 51       		.byte	0x51
 11469 0770 01       		.uleb128 0x1
 11470 0771 3A       		.byte	0x3a
 11471 0772 10       		.uleb128 0x10
 11472 0773 01       		.uleb128 0x1
 11473 0774 50       		.byte	0x50
 11474 0775 02       		.uleb128 0x2
 11475 0776 74       		.byte	0x74
 11476 0777 00       		.sleb128 0
 11477 0778 00       		.byte	0
 11478 0779 0F       		.uleb128 0xf
 11479 077a AC010000 		.4byte	.LVL121
 11480 077e 04400000 		.4byte	0x4004
 11481 0782 8D070000 		.4byte	0x78d
 11482 0786 10       		.uleb128 0x10
 11483 0787 01       		.uleb128 0x1
 11484 0788 50       		.byte	0x50
 11485 0789 02       		.uleb128 0x2
 11486 078a 74       		.byte	0x74
 11487 078b 00       		.sleb128 0
 11488 078c 00       		.byte	0
 11489 078d 0F       		.uleb128 0xf
ARM GAS  C:\Users\diego\AppData\Local\Temp\ccvEcbYb.s 			page 246


 11490 078e C4010000 		.4byte	.LVL122
 11491 0792 04400000 		.4byte	0x4004
 11492 0796 A6070000 		.4byte	0x7a6
 11493 079a 10       		.uleb128 0x10
 11494 079b 01       		.uleb128 0x1
 11495 079c 51       		.byte	0x51
 11496 079d 01       		.uleb128 0x1
 11497 079e 3A       		.byte	0x3a
 11498 079f 10       		.uleb128 0x10
 11499 07a0 01       		.uleb128 0x1
 11500 07a1 50       		.byte	0x50
 11501 07a2 02       		.uleb128 0x2
 11502 07a3 74       		.byte	0x74
 11503 07a4 00       		.sleb128 0
 11504 07a5 00       		.byte	0
 11505 07a6 0F       		.uleb128 0xf
 11506 07a7 D8010000 		.4byte	.LVL123
 11507 07ab 04400000 		.4byte	0x4004
 11508 07af BA070000 		.4byte	0x7ba
 11509 07b3 10       		.uleb128 0x10
 11510 07b4 01       		.uleb128 0x1
 11511 07b5 50       		.byte	0x50
 11512 07b6 02       		.uleb128 0x2
 11513 07b7 74       		.byte	0x74
 11514 07b8 00       		.sleb128 0
 11515 07b9 00       		.byte	0
 11516 07ba 0F       		.uleb128 0xf
 11517 07bb F0010000 		.4byte	.LVL124
 11518 07bf 04400000 		.4byte	0x4004
 11519 07c3 D3070000 		.4byte	0x7d3
 11520 07c7 10       		.uleb128 0x10
 11521 07c8 01       		.uleb128 0x1
 11522 07c9 51       		.byte	0x51
 11523 07ca 01       		.uleb128 0x1
 11524 07cb 3A       		.byte	0x3a
 11525 07cc 10       		.uleb128 0x10
 11526 07cd 01       		.uleb128 0x1
 11527 07ce 50       		.byte	0x50
 11528 07cf 02       		.uleb128 0x2
 11529 07d0 74       		.byte	0x74
 11530 07d1 00       		.sleb128 0
 11531 07d2 00       		.byte	0
 11532 07d3 0F       		.uleb128 0xf
 11533 07d4 F8010000 		.4byte	.LVL125
 11534 07d8 1E400000 		.4byte	0x401e
 11535 07dc EC070000 		.4byte	0x7ec
 11536 07e0 10       		.uleb128 0x10
 11537 07e1 01       		.uleb128 0x1
 11538 07e2 51       		.byte	0x51
 11539 07e3 02       		.uleb128 0x2
 11540 07e4 74       		.byte	0x74
 11541 07e5 00       		.sleb128 0
 11542 07e6 10       		.uleb128 0x10
 11543 07e7 01       		.uleb128 0x1
 11544 07e8 50       		.byte	0x50
 11545 07e9 01       		.uleb128 0x1
 11546 07ea 38       		.byte	0x38
ARM GAS  C:\Users\diego\AppData\Local\Temp\ccvEcbYb.s 			page 247


 11547 07eb 00       		.byte	0
 11548 07ec 0F       		.uleb128 0xf
 11549 07ed 0C020000 		.4byte	.LVL126
 11550 07f1 04400000 		.4byte	0x4004
 11551 07f5 00080000 		.4byte	0x800
 11552 07f9 10       		.uleb128 0x10
 11553 07fa 01       		.uleb128 0x1
 11554 07fb 50       		.byte	0x50
 11555 07fc 02       		.uleb128 0x2
 11556 07fd 74       		.byte	0x74
 11557 07fe 00       		.sleb128 0
 11558 07ff 00       		.byte	0
 11559 0800 0F       		.uleb128 0xf
 11560 0801 24020000 		.4byte	.LVL127
 11561 0805 04400000 		.4byte	0x4004
 11562 0809 19080000 		.4byte	0x819
 11563 080d 10       		.uleb128 0x10
 11564 080e 01       		.uleb128 0x1
 11565 080f 51       		.byte	0x51
 11566 0810 01       		.uleb128 0x1
 11567 0811 3A       		.byte	0x3a
 11568 0812 10       		.uleb128 0x10
 11569 0813 01       		.uleb128 0x1
 11570 0814 50       		.byte	0x50
 11571 0815 02       		.uleb128 0x2
 11572 0816 74       		.byte	0x74
 11573 0817 00       		.sleb128 0
 11574 0818 00       		.byte	0
 11575 0819 0F       		.uleb128 0xf
 11576 081a 34020000 		.4byte	.LVL128
 11577 081e 34400000 		.4byte	0x4034
 11578 0822 32080000 		.4byte	0x832
 11579 0826 10       		.uleb128 0x10
 11580 0827 01       		.uleb128 0x1
 11581 0828 51       		.byte	0x51
 11582 0829 01       		.uleb128 0x1
 11583 082a 49       		.byte	0x49
 11584 082b 10       		.uleb128 0x10
 11585 082c 01       		.uleb128 0x1
 11586 082d 50       		.byte	0x50
 11587 082e 02       		.uleb128 0x2
 11588 082f 08       		.byte	0x8
 11589 0830 C0       		.byte	0xc0
 11590 0831 00       		.byte	0
 11591 0832 0F       		.uleb128 0xf
 11592 0833 40020000 		.4byte	.LVL129
 11593 0837 34400000 		.4byte	0x4034
 11594 083b 4C080000 		.4byte	0x84c
 11595 083f 10       		.uleb128 0x10
 11596 0840 01       		.uleb128 0x1
 11597 0841 51       		.byte	0x51
 11598 0842 01       		.uleb128 0x1
 11599 0843 49       		.byte	0x49
 11600 0844 10       		.uleb128 0x10
 11601 0845 01       		.uleb128 0x1
 11602 0846 50       		.byte	0x50
 11603 0847 03       		.uleb128 0x3
ARM GAS  C:\Users\diego\AppData\Local\Temp\ccvEcbYb.s 			page 248


 11604 0848 0A       		.byte	0xa
 11605 0849 1901     		.2byte	0x119
 11606 084b 00       		.byte	0
 11607 084c 0F       		.uleb128 0xf
 11608 084d 46020000 		.4byte	.LVL130
 11609 0851 4E400000 		.4byte	0x404e
 11610 0855 60080000 		.4byte	0x860
 11611 0859 10       		.uleb128 0x10
 11612 085a 01       		.uleb128 0x1
 11613 085b 50       		.byte	0x50
 11614 085c 02       		.uleb128 0x2
 11615 085d 74       		.byte	0x74
 11616 085e 00       		.sleb128 0
 11617 085f 00       		.byte	0
 11618 0860 0F       		.uleb128 0xf
 11619 0861 88020000 		.4byte	.LVL131
 11620 0865 5F400000 		.4byte	0x405f
 11621 0869 80080000 		.4byte	0x880
 11622 086d 10       		.uleb128 0x10
 11623 086e 01       		.uleb128 0x1
 11624 086f 52       		.byte	0x52
 11625 0870 03       		.uleb128 0x3
 11626 0871 91       		.byte	0x91
 11627 0872 B47F     		.sleb128 -76
 11628 0874 10       		.uleb128 0x10
 11629 0875 01       		.uleb128 0x1
 11630 0876 51       		.byte	0x51
 11631 0877 02       		.uleb128 0x2
 11632 0878 91       		.byte	0x91
 11633 0879 44       		.sleb128 -60
 11634 087a 10       		.uleb128 0x10
 11635 087b 01       		.uleb128 0x1
 11636 087c 50       		.byte	0x50
 11637 087d 01       		.uleb128 0x1
 11638 087e 32       		.byte	0x32
 11639 087f 00       		.byte	0
 11640 0880 0F       		.uleb128 0xf
 11641 0881 9E020000 		.4byte	.LVL132
 11642 0885 04400000 		.4byte	0x4004
 11643 0889 94080000 		.4byte	0x894
 11644 088d 10       		.uleb128 0x10
 11645 088e 01       		.uleb128 0x1
 11646 088f 50       		.byte	0x50
 11647 0890 02       		.uleb128 0x2
 11648 0891 74       		.byte	0x74
 11649 0892 00       		.sleb128 0
 11650 0893 00       		.byte	0
 11651 0894 0F       		.uleb128 0xf
 11652 0895 B6020000 		.4byte	.LVL133
 11653 0899 7A400000 		.4byte	0x407a
 11654 089d B1080000 		.4byte	0x8b1
 11655 08a1 10       		.uleb128 0x10
 11656 08a2 01       		.uleb128 0x1
 11657 08a3 51       		.byte	0x51
 11658 08a4 02       		.uleb128 0x2
 11659 08a5 74       		.byte	0x74
 11660 08a6 00       		.sleb128 0
ARM GAS  C:\Users\diego\AppData\Local\Temp\ccvEcbYb.s 			page 249


 11661 08a7 10       		.uleb128 0x10
 11662 08a8 01       		.uleb128 0x1
 11663 08a9 50       		.byte	0x50
 11664 08aa 05       		.uleb128 0x5
 11665 08ab 03       		.byte	0x3
 11666 08ac 00000000 		.4byte	resultado
 11667 08b0 00       		.byte	0
 11668 08b1 0F       		.uleb128 0xf
 11669 08b2 C6020000 		.4byte	.LVL134
 11670 08b6 EA3F0000 		.4byte	0x3fea
 11671 08ba CB080000 		.4byte	0x8cb
 11672 08be 10       		.uleb128 0x10
 11673 08bf 01       		.uleb128 0x1
 11674 08c0 51       		.byte	0x51
 11675 08c1 02       		.uleb128 0x2
 11676 08c2 91       		.byte	0x91
 11677 08c3 54       		.sleb128 -44
 11678 08c4 10       		.uleb128 0x10
 11679 08c5 01       		.uleb128 0x1
 11680 08c6 50       		.byte	0x50
 11681 08c7 02       		.uleb128 0x2
 11682 08c8 08       		.byte	0x8
 11683 08c9 C0       		.byte	0xc0
 11684 08ca 00       		.byte	0
 11685 08cb 0F       		.uleb128 0xf
 11686 08cc D0020000 		.4byte	.LVL135
 11687 08d0 EA3F0000 		.4byte	0x3fea
 11688 08d4 E9080000 		.4byte	0x8e9
 11689 08d8 10       		.uleb128 0x10
 11690 08d9 01       		.uleb128 0x1
 11691 08da 51       		.byte	0x51
 11692 08db 05       		.uleb128 0x5
 11693 08dc 03       		.byte	0x3
 11694 08dd 00000000 		.4byte	resultado
 11695 08e1 10       		.uleb128 0x10
 11696 08e2 01       		.uleb128 0x1
 11697 08e3 50       		.byte	0x50
 11698 08e4 03       		.uleb128 0x3
 11699 08e5 0A       		.byte	0xa
 11700 08e6 0002     		.2byte	0x200
 11701 08e8 00       		.byte	0
 11702 08e9 0F       		.uleb128 0xf
 11703 08ea 1E030000 		.4byte	.LVL136
 11704 08ee EA3F0000 		.4byte	0x3fea
 11705 08f2 04090000 		.4byte	0x904
 11706 08f6 10       		.uleb128 0x10
 11707 08f7 01       		.uleb128 0x1
 11708 08f8 51       		.byte	0x51
 11709 08f9 02       		.uleb128 0x2
 11710 08fa 91       		.byte	0x91
 11711 08fb 54       		.sleb128 -44
 11712 08fc 10       		.uleb128 0x10
 11713 08fd 01       		.uleb128 0x1
 11714 08fe 50       		.byte	0x50
 11715 08ff 03       		.uleb128 0x3
 11716 0900 0A       		.byte	0xa
 11717 0901 1901     		.2byte	0x119
ARM GAS  C:\Users\diego\AppData\Local\Temp\ccvEcbYb.s 			page 250


 11718 0903 00       		.byte	0
 11719 0904 0F       		.uleb128 0xf
 11720 0905 28030000 		.4byte	.LVL137
 11721 0909 EA3F0000 		.4byte	0x3fea
 11722 090d 22090000 		.4byte	0x922
 11723 0911 10       		.uleb128 0x10
 11724 0912 01       		.uleb128 0x1
 11725 0913 51       		.byte	0x51
 11726 0914 05       		.uleb128 0x5
 11727 0915 03       		.byte	0x3
 11728 0916 00000000 		.4byte	resultado
 11729 091a 10       		.uleb128 0x10
 11730 091b 01       		.uleb128 0x1
 11731 091c 50       		.byte	0x50
 11732 091d 03       		.uleb128 0x3
 11733 091e 0A       		.byte	0xa
 11734 091f 2702     		.2byte	0x227
 11735 0921 00       		.byte	0
 11736 0922 0F       		.uleb128 0xf
 11737 0923 84030000 		.4byte	.LVL138
 11738 0927 04400000 		.4byte	0x4004
 11739 092b 36090000 		.4byte	0x936
 11740 092f 10       		.uleb128 0x10
 11741 0930 01       		.uleb128 0x1
 11742 0931 50       		.byte	0x50
 11743 0932 02       		.uleb128 0x2
 11744 0933 74       		.byte	0x74
 11745 0934 00       		.sleb128 0
 11746 0935 00       		.byte	0
 11747 0936 0F       		.uleb128 0xf
 11748 0937 9C030000 		.4byte	.LVL139
 11749 093b 04400000 		.4byte	0x4004
 11750 093f 4F090000 		.4byte	0x94f
 11751 0943 10       		.uleb128 0x10
 11752 0944 01       		.uleb128 0x1
 11753 0945 51       		.byte	0x51
 11754 0946 01       		.uleb128 0x1
 11755 0947 3A       		.byte	0x3a
 11756 0948 10       		.uleb128 0x10
 11757 0949 01       		.uleb128 0x1
 11758 094a 50       		.byte	0x50
 11759 094b 02       		.uleb128 0x2
 11760 094c 74       		.byte	0x74
 11761 094d 00       		.sleb128 0
 11762 094e 00       		.byte	0
 11763 094f 0F       		.uleb128 0xf
 11764 0950 AE030000 		.4byte	.LVL140
 11765 0954 04400000 		.4byte	0x4004
 11766 0958 63090000 		.4byte	0x963
 11767 095c 10       		.uleb128 0x10
 11768 095d 01       		.uleb128 0x1
 11769 095e 50       		.byte	0x50
 11770 095f 02       		.uleb128 0x2
 11771 0960 74       		.byte	0x74
 11772 0961 00       		.sleb128 0
 11773 0962 00       		.byte	0
 11774 0963 0F       		.uleb128 0xf
ARM GAS  C:\Users\diego\AppData\Local\Temp\ccvEcbYb.s 			page 251


 11775 0964 C6030000 		.4byte	.LVL141
 11776 0968 04400000 		.4byte	0x4004
 11777 096c 7C090000 		.4byte	0x97c
 11778 0970 10       		.uleb128 0x10
 11779 0971 01       		.uleb128 0x1
 11780 0972 51       		.byte	0x51
 11781 0973 01       		.uleb128 0x1
 11782 0974 3A       		.byte	0x3a
 11783 0975 10       		.uleb128 0x10
 11784 0976 01       		.uleb128 0x1
 11785 0977 50       		.byte	0x50
 11786 0978 02       		.uleb128 0x2
 11787 0979 74       		.byte	0x74
 11788 097a 00       		.sleb128 0
 11789 097b 00       		.byte	0
 11790 097c 0F       		.uleb128 0xf
 11791 097d DA030000 		.4byte	.LVL142
 11792 0981 04400000 		.4byte	0x4004
 11793 0985 90090000 		.4byte	0x990
 11794 0989 10       		.uleb128 0x10
 11795 098a 01       		.uleb128 0x1
 11796 098b 50       		.byte	0x50
 11797 098c 02       		.uleb128 0x2
 11798 098d 74       		.byte	0x74
 11799 098e 00       		.sleb128 0
 11800 098f 00       		.byte	0
 11801 0990 0F       		.uleb128 0xf
 11802 0991 F2030000 		.4byte	.LVL143
 11803 0995 04400000 		.4byte	0x4004
 11804 0999 A9090000 		.4byte	0x9a9
 11805 099d 10       		.uleb128 0x10
 11806 099e 01       		.uleb128 0x1
 11807 099f 51       		.byte	0x51
 11808 09a0 01       		.uleb128 0x1
 11809 09a1 3A       		.byte	0x3a
 11810 09a2 10       		.uleb128 0x10
 11811 09a3 01       		.uleb128 0x1
 11812 09a4 50       		.byte	0x50
 11813 09a5 02       		.uleb128 0x2
 11814 09a6 74       		.byte	0x74
 11815 09a7 00       		.sleb128 0
 11816 09a8 00       		.byte	0
 11817 09a9 0F       		.uleb128 0xf
 11818 09aa FA030000 		.4byte	.LVL144
 11819 09ae 1E400000 		.4byte	0x401e
 11820 09b2 C2090000 		.4byte	0x9c2
 11821 09b6 10       		.uleb128 0x10
 11822 09b7 01       		.uleb128 0x1
 11823 09b8 51       		.byte	0x51
 11824 09b9 02       		.uleb128 0x2
 11825 09ba 74       		.byte	0x74
 11826 09bb 00       		.sleb128 0
 11827 09bc 10       		.uleb128 0x10
 11828 09bd 01       		.uleb128 0x1
 11829 09be 50       		.byte	0x50
 11830 09bf 01       		.uleb128 0x1
 11831 09c0 38       		.byte	0x38
ARM GAS  C:\Users\diego\AppData\Local\Temp\ccvEcbYb.s 			page 252


 11832 09c1 00       		.byte	0
 11833 09c2 0F       		.uleb128 0xf
 11834 09c3 0E040000 		.4byte	.LVL145
 11835 09c7 04400000 		.4byte	0x4004
 11836 09cb D6090000 		.4byte	0x9d6
 11837 09cf 10       		.uleb128 0x10
 11838 09d0 01       		.uleb128 0x1
 11839 09d1 50       		.byte	0x50
 11840 09d2 02       		.uleb128 0x2
 11841 09d3 74       		.byte	0x74
 11842 09d4 00       		.sleb128 0
 11843 09d5 00       		.byte	0
 11844 09d6 0F       		.uleb128 0xf
 11845 09d7 26040000 		.4byte	.LVL146
 11846 09db 04400000 		.4byte	0x4004
 11847 09df EF090000 		.4byte	0x9ef
 11848 09e3 10       		.uleb128 0x10
 11849 09e4 01       		.uleb128 0x1
 11850 09e5 51       		.byte	0x51
 11851 09e6 01       		.uleb128 0x1
 11852 09e7 3A       		.byte	0x3a
 11853 09e8 10       		.uleb128 0x10
 11854 09e9 01       		.uleb128 0x1
 11855 09ea 50       		.byte	0x50
 11856 09eb 02       		.uleb128 0x2
 11857 09ec 74       		.byte	0x74
 11858 09ed 00       		.sleb128 0
 11859 09ee 00       		.byte	0
 11860 09ef 0F       		.uleb128 0xf
 11861 09f0 36040000 		.4byte	.LVL147
 11862 09f4 34400000 		.4byte	0x4034
 11863 09f8 080A0000 		.4byte	0xa08
 11864 09fc 10       		.uleb128 0x10
 11865 09fd 01       		.uleb128 0x1
 11866 09fe 51       		.byte	0x51
 11867 09ff 01       		.uleb128 0x1
 11868 0a00 49       		.byte	0x49
 11869 0a01 10       		.uleb128 0x10
 11870 0a02 01       		.uleb128 0x1
 11871 0a03 50       		.byte	0x50
 11872 0a04 02       		.uleb128 0x2
 11873 0a05 08       		.byte	0x8
 11874 0a06 D9       		.byte	0xd9
 11875 0a07 00       		.byte	0
 11876 0a08 0F       		.uleb128 0xf
 11877 0a09 42040000 		.4byte	.LVL148
 11878 0a0d 34400000 		.4byte	0x4034
 11879 0a11 220A0000 		.4byte	0xa22
 11880 0a15 10       		.uleb128 0x10
 11881 0a16 01       		.uleb128 0x1
 11882 0a17 51       		.byte	0x51
 11883 0a18 01       		.uleb128 0x1
 11884 0a19 49       		.byte	0x49
 11885 0a1a 10       		.uleb128 0x10
 11886 0a1b 01       		.uleb128 0x1
 11887 0a1c 50       		.byte	0x50
 11888 0a1d 03       		.uleb128 0x3
ARM GAS  C:\Users\diego\AppData\Local\Temp\ccvEcbYb.s 			page 253


 11889 0a1e 0A       		.byte	0xa
 11890 0a1f 4001     		.2byte	0x140
 11891 0a21 00       		.byte	0
 11892 0a22 0F       		.uleb128 0xf
 11893 0a23 48040000 		.4byte	.LVL149
 11894 0a27 4E400000 		.4byte	0x404e
 11895 0a2b 360A0000 		.4byte	0xa36
 11896 0a2f 10       		.uleb128 0x10
 11897 0a30 01       		.uleb128 0x1
 11898 0a31 50       		.byte	0x50
 11899 0a32 02       		.uleb128 0x2
 11900 0a33 74       		.byte	0x74
 11901 0a34 00       		.sleb128 0
 11902 0a35 00       		.byte	0
 11903 0a36 0F       		.uleb128 0xf
 11904 0a37 8A040000 		.4byte	.LVL150
 11905 0a3b 5F400000 		.4byte	0x405f
 11906 0a3f 560A0000 		.4byte	0xa56
 11907 0a43 10       		.uleb128 0x10
 11908 0a44 01       		.uleb128 0x1
 11909 0a45 52       		.byte	0x52
 11910 0a46 03       		.uleb128 0x3
 11911 0a47 91       		.byte	0x91
 11912 0a48 B47F     		.sleb128 -76
 11913 0a4a 10       		.uleb128 0x10
 11914 0a4b 01       		.uleb128 0x1
 11915 0a4c 51       		.byte	0x51
 11916 0a4d 02       		.uleb128 0x2
 11917 0a4e 91       		.byte	0x91
 11918 0a4f 44       		.sleb128 -60
 11919 0a50 10       		.uleb128 0x10
 11920 0a51 01       		.uleb128 0x1
 11921 0a52 50       		.byte	0x50
 11922 0a53 01       		.uleb128 0x1
 11923 0a54 32       		.byte	0x32
 11924 0a55 00       		.byte	0
 11925 0a56 0F       		.uleb128 0xf
 11926 0a57 A0040000 		.4byte	.LVL151
 11927 0a5b 04400000 		.4byte	0x4004
 11928 0a5f 6A0A0000 		.4byte	0xa6a
 11929 0a63 10       		.uleb128 0x10
 11930 0a64 01       		.uleb128 0x1
 11931 0a65 50       		.byte	0x50
 11932 0a66 02       		.uleb128 0x2
 11933 0a67 74       		.byte	0x74
 11934 0a68 00       		.sleb128 0
 11935 0a69 00       		.byte	0
 11936 0a6a 0F       		.uleb128 0xf
 11937 0a6b B8040000 		.4byte	.LVL152
 11938 0a6f 7A400000 		.4byte	0x407a
 11939 0a73 870A0000 		.4byte	0xa87
 11940 0a77 10       		.uleb128 0x10
 11941 0a78 01       		.uleb128 0x1
 11942 0a79 51       		.byte	0x51
 11943 0a7a 02       		.uleb128 0x2
 11944 0a7b 74       		.byte	0x74
 11945 0a7c 00       		.sleb128 0
ARM GAS  C:\Users\diego\AppData\Local\Temp\ccvEcbYb.s 			page 254


 11946 0a7d 10       		.uleb128 0x10
 11947 0a7e 01       		.uleb128 0x1
 11948 0a7f 50       		.byte	0x50
 11949 0a80 05       		.uleb128 0x5
 11950 0a81 03       		.byte	0x3
 11951 0a82 00000000 		.4byte	resultado
 11952 0a86 00       		.byte	0
 11953 0a87 0F       		.uleb128 0xf
 11954 0a88 C8040000 		.4byte	.LVL153
 11955 0a8c EA3F0000 		.4byte	0x3fea
 11956 0a90 A10A0000 		.4byte	0xaa1
 11957 0a94 10       		.uleb128 0x10
 11958 0a95 01       		.uleb128 0x1
 11959 0a96 51       		.byte	0x51
 11960 0a97 02       		.uleb128 0x2
 11961 0a98 91       		.byte	0x91
 11962 0a99 54       		.sleb128 -44
 11963 0a9a 10       		.uleb128 0x10
 11964 0a9b 01       		.uleb128 0x1
 11965 0a9c 50       		.byte	0x50
 11966 0a9d 02       		.uleb128 0x2
 11967 0a9e 08       		.byte	0x8
 11968 0a9f D9       		.byte	0xd9
 11969 0aa0 00       		.byte	0
 11970 0aa1 0F       		.uleb128 0xf
 11971 0aa2 D2040000 		.4byte	.LVL154
 11972 0aa6 EA3F0000 		.4byte	0x3fea
 11973 0aaa BF0A0000 		.4byte	0xabf
 11974 0aae 10       		.uleb128 0x10
 11975 0aaf 01       		.uleb128 0x1
 11976 0ab0 51       		.byte	0x51
 11977 0ab1 05       		.uleb128 0x5
 11978 0ab2 03       		.byte	0x3
 11979 0ab3 00000000 		.4byte	resultado
 11980 0ab7 10       		.uleb128 0x10
 11981 0ab8 01       		.uleb128 0x1
 11982 0ab9 50       		.byte	0x50
 11983 0aba 03       		.uleb128 0x3
 11984 0abb 0A       		.byte	0xa
 11985 0abc 1A02     		.2byte	0x21a
 11986 0abe 00       		.byte	0
 11987 0abf 0F       		.uleb128 0xf
 11988 0ac0 DE040000 		.4byte	.LVL155
 11989 0ac4 EA3F0000 		.4byte	0x3fea
 11990 0ac8 DA0A0000 		.4byte	0xada
 11991 0acc 10       		.uleb128 0x10
 11992 0acd 01       		.uleb128 0x1
 11993 0ace 51       		.byte	0x51
 11994 0acf 02       		.uleb128 0x2
 11995 0ad0 91       		.byte	0x91
 11996 0ad1 54       		.sleb128 -44
 11997 0ad2 10       		.uleb128 0x10
 11998 0ad3 01       		.uleb128 0x1
 11999 0ad4 50       		.byte	0x50
 12000 0ad5 03       		.uleb128 0x3
 12001 0ad6 0A       		.byte	0xa
 12002 0ad7 4001     		.2byte	0x140
ARM GAS  C:\Users\diego\AppData\Local\Temp\ccvEcbYb.s 			page 255


 12003 0ad9 00       		.byte	0
 12004 0ada 0F       		.uleb128 0xf
 12005 0adb E8040000 		.4byte	.LVL156
 12006 0adf EA3F0000 		.4byte	0x3fea
 12007 0ae3 F80A0000 		.4byte	0xaf8
 12008 0ae7 10       		.uleb128 0x10
 12009 0ae8 01       		.uleb128 0x1
 12010 0ae9 51       		.byte	0x51
 12011 0aea 05       		.uleb128 0x5
 12012 0aeb 03       		.byte	0x3
 12013 0aec 00000000 		.4byte	resultado
 12014 0af0 10       		.uleb128 0x10
 12015 0af1 01       		.uleb128 0x1
 12016 0af2 50       		.byte	0x50
 12017 0af3 03       		.uleb128 0x3
 12018 0af4 0A       		.byte	0xa
 12019 0af5 4002     		.2byte	0x240
 12020 0af7 00       		.byte	0
 12021 0af8 0F       		.uleb128 0xf
 12022 0af9 2C050000 		.4byte	.LVL157
 12023 0afd 04400000 		.4byte	0x4004
 12024 0b01 0C0B0000 		.4byte	0xb0c
 12025 0b05 10       		.uleb128 0x10
 12026 0b06 01       		.uleb128 0x1
 12027 0b07 50       		.byte	0x50
 12028 0b08 02       		.uleb128 0x2
 12029 0b09 74       		.byte	0x74
 12030 0b0a 00       		.sleb128 0
 12031 0b0b 00       		.byte	0
 12032 0b0c 0F       		.uleb128 0xf
 12033 0b0d 44050000 		.4byte	.LVL158
 12034 0b11 04400000 		.4byte	0x4004
 12035 0b15 250B0000 		.4byte	0xb25
 12036 0b19 10       		.uleb128 0x10
 12037 0b1a 01       		.uleb128 0x1
 12038 0b1b 51       		.byte	0x51
 12039 0b1c 01       		.uleb128 0x1
 12040 0b1d 3A       		.byte	0x3a
 12041 0b1e 10       		.uleb128 0x10
 12042 0b1f 01       		.uleb128 0x1
 12043 0b20 50       		.byte	0x50
 12044 0b21 02       		.uleb128 0x2
 12045 0b22 74       		.byte	0x74
 12046 0b23 00       		.sleb128 0
 12047 0b24 00       		.byte	0
 12048 0b25 0F       		.uleb128 0xf
 12049 0b26 56050000 		.4byte	.LVL159
 12050 0b2a 04400000 		.4byte	0x4004
 12051 0b2e 390B0000 		.4byte	0xb39
 12052 0b32 10       		.uleb128 0x10
 12053 0b33 01       		.uleb128 0x1
 12054 0b34 50       		.byte	0x50
 12055 0b35 02       		.uleb128 0x2
 12056 0b36 74       		.byte	0x74
 12057 0b37 00       		.sleb128 0
 12058 0b38 00       		.byte	0
 12059 0b39 0F       		.uleb128 0xf
ARM GAS  C:\Users\diego\AppData\Local\Temp\ccvEcbYb.s 			page 256


 12060 0b3a 6E050000 		.4byte	.LVL160
 12061 0b3e 04400000 		.4byte	0x4004
 12062 0b42 520B0000 		.4byte	0xb52
 12063 0b46 10       		.uleb128 0x10
 12064 0b47 01       		.uleb128 0x1
 12065 0b48 51       		.byte	0x51
 12066 0b49 01       		.uleb128 0x1
 12067 0b4a 3A       		.byte	0x3a
 12068 0b4b 10       		.uleb128 0x10
 12069 0b4c 01       		.uleb128 0x1
 12070 0b4d 50       		.byte	0x50
 12071 0b4e 02       		.uleb128 0x2
 12072 0b4f 74       		.byte	0x74
 12073 0b50 00       		.sleb128 0
 12074 0b51 00       		.byte	0
 12075 0b52 0F       		.uleb128 0xf
 12076 0b53 82050000 		.4byte	.LVL161
 12077 0b57 04400000 		.4byte	0x4004
 12078 0b5b 660B0000 		.4byte	0xb66
 12079 0b5f 10       		.uleb128 0x10
 12080 0b60 01       		.uleb128 0x1
 12081 0b61 50       		.byte	0x50
 12082 0b62 02       		.uleb128 0x2
 12083 0b63 74       		.byte	0x74
 12084 0b64 00       		.sleb128 0
 12085 0b65 00       		.byte	0
 12086 0b66 0F       		.uleb128 0xf
 12087 0b67 9A050000 		.4byte	.LVL162
 12088 0b6b 04400000 		.4byte	0x4004
 12089 0b6f 7F0B0000 		.4byte	0xb7f
 12090 0b73 10       		.uleb128 0x10
 12091 0b74 01       		.uleb128 0x1
 12092 0b75 51       		.byte	0x51
 12093 0b76 01       		.uleb128 0x1
 12094 0b77 3A       		.byte	0x3a
 12095 0b78 10       		.uleb128 0x10
 12096 0b79 01       		.uleb128 0x1
 12097 0b7a 50       		.byte	0x50
 12098 0b7b 02       		.uleb128 0x2
 12099 0b7c 74       		.byte	0x74
 12100 0b7d 00       		.sleb128 0
 12101 0b7e 00       		.byte	0
 12102 0b7f 0F       		.uleb128 0xf
 12103 0b80 A2050000 		.4byte	.LVL163
 12104 0b84 1E400000 		.4byte	0x401e
 12105 0b88 980B0000 		.4byte	0xb98
 12106 0b8c 10       		.uleb128 0x10
 12107 0b8d 01       		.uleb128 0x1
 12108 0b8e 51       		.byte	0x51
 12109 0b8f 02       		.uleb128 0x2
 12110 0b90 74       		.byte	0x74
 12111 0b91 00       		.sleb128 0
 12112 0b92 10       		.uleb128 0x10
 12113 0b93 01       		.uleb128 0x1
 12114 0b94 50       		.byte	0x50
 12115 0b95 01       		.uleb128 0x1
 12116 0b96 38       		.byte	0x38
ARM GAS  C:\Users\diego\AppData\Local\Temp\ccvEcbYb.s 			page 257


 12117 0b97 00       		.byte	0
 12118 0b98 0F       		.uleb128 0xf
 12119 0b99 FC050000 		.4byte	.LVL164
 12120 0b9d 04400000 		.4byte	0x4004
 12121 0ba1 AC0B0000 		.4byte	0xbac
 12122 0ba5 10       		.uleb128 0x10
 12123 0ba6 01       		.uleb128 0x1
 12124 0ba7 50       		.byte	0x50
 12125 0ba8 02       		.uleb128 0x2
 12126 0ba9 74       		.byte	0x74
 12127 0baa 00       		.sleb128 0
 12128 0bab 00       		.byte	0
 12129 0bac 0F       		.uleb128 0xf
 12130 0bad 14060000 		.4byte	.LVL165
 12131 0bb1 04400000 		.4byte	0x4004
 12132 0bb5 C50B0000 		.4byte	0xbc5
 12133 0bb9 10       		.uleb128 0x10
 12134 0bba 01       		.uleb128 0x1
 12135 0bbb 51       		.byte	0x51
 12136 0bbc 01       		.uleb128 0x1
 12137 0bbd 3A       		.byte	0x3a
 12138 0bbe 10       		.uleb128 0x10
 12139 0bbf 01       		.uleb128 0x1
 12140 0bc0 50       		.byte	0x50
 12141 0bc1 02       		.uleb128 0x2
 12142 0bc2 74       		.byte	0x74
 12143 0bc3 00       		.sleb128 0
 12144 0bc4 00       		.byte	0
 12145 0bc5 0F       		.uleb128 0xf
 12146 0bc6 26060000 		.4byte	.LVL166
 12147 0bca 34400000 		.4byte	0x4034
 12148 0bce DF0B0000 		.4byte	0xbdf
 12149 0bd2 10       		.uleb128 0x10
 12150 0bd3 01       		.uleb128 0x1
 12151 0bd4 51       		.byte	0x51
 12152 0bd5 01       		.uleb128 0x1
 12153 0bd6 49       		.byte	0x49
 12154 0bd7 10       		.uleb128 0x10
 12155 0bd8 01       		.uleb128 0x1
 12156 0bd9 50       		.byte	0x50
 12157 0bda 03       		.uleb128 0x3
 12158 0bdb 0A       		.byte	0xa
 12159 0bdc 0001     		.2byte	0x100
 12160 0bde 00       		.byte	0
 12161 0bdf 0F       		.uleb128 0xf
 12162 0be0 32060000 		.4byte	.LVL167
 12163 0be4 34400000 		.4byte	0x4034
 12164 0be8 F90B0000 		.4byte	0xbf9
 12165 0bec 10       		.uleb128 0x10
 12166 0bed 01       		.uleb128 0x1
 12167 0bee 51       		.byte	0x51
 12168 0bef 01       		.uleb128 0x1
 12169 0bf0 49       		.byte	0x49
 12170 0bf1 10       		.uleb128 0x10
 12171 0bf2 01       		.uleb128 0x1
 12172 0bf3 50       		.byte	0x50
 12173 0bf4 03       		.uleb128 0x3
ARM GAS  C:\Users\diego\AppData\Local\Temp\ccvEcbYb.s 			page 258


 12174 0bf5 0A       		.byte	0xa
 12175 0bf6 5901     		.2byte	0x159
 12176 0bf8 00       		.byte	0
 12177 0bf9 0F       		.uleb128 0xf
 12178 0bfa 38060000 		.4byte	.LVL168
 12179 0bfe 4E400000 		.4byte	0x404e
 12180 0c02 0D0C0000 		.4byte	0xc0d
 12181 0c06 10       		.uleb128 0x10
 12182 0c07 01       		.uleb128 0x1
 12183 0c08 50       		.byte	0x50
 12184 0c09 02       		.uleb128 0x2
 12185 0c0a 74       		.byte	0x74
 12186 0c0b 00       		.sleb128 0
 12187 0c0c 00       		.byte	0
 12188 0c0d 0F       		.uleb128 0xf
 12189 0c0e 7A060000 		.4byte	.LVL169
 12190 0c12 5F400000 		.4byte	0x405f
 12191 0c16 2D0C0000 		.4byte	0xc2d
 12192 0c1a 10       		.uleb128 0x10
 12193 0c1b 01       		.uleb128 0x1
 12194 0c1c 52       		.byte	0x52
 12195 0c1d 03       		.uleb128 0x3
 12196 0c1e 91       		.byte	0x91
 12197 0c1f B47F     		.sleb128 -76
 12198 0c21 10       		.uleb128 0x10
 12199 0c22 01       		.uleb128 0x1
 12200 0c23 51       		.byte	0x51
 12201 0c24 02       		.uleb128 0x2
 12202 0c25 91       		.byte	0x91
 12203 0c26 44       		.sleb128 -60
 12204 0c27 10       		.uleb128 0x10
 12205 0c28 01       		.uleb128 0x1
 12206 0c29 50       		.byte	0x50
 12207 0c2a 01       		.uleb128 0x1
 12208 0c2b 32       		.byte	0x32
 12209 0c2c 00       		.byte	0
 12210 0c2d 0F       		.uleb128 0xf
 12211 0c2e 90060000 		.4byte	.LVL170
 12212 0c32 04400000 		.4byte	0x4004
 12213 0c36 410C0000 		.4byte	0xc41
 12214 0c3a 10       		.uleb128 0x10
 12215 0c3b 01       		.uleb128 0x1
 12216 0c3c 50       		.byte	0x50
 12217 0c3d 02       		.uleb128 0x2
 12218 0c3e 74       		.byte	0x74
 12219 0c3f 00       		.sleb128 0
 12220 0c40 00       		.byte	0
 12221 0c41 0F       		.uleb128 0xf
 12222 0c42 A8060000 		.4byte	.LVL171
 12223 0c46 7A400000 		.4byte	0x407a
 12224 0c4a 5E0C0000 		.4byte	0xc5e
 12225 0c4e 10       		.uleb128 0x10
 12226 0c4f 01       		.uleb128 0x1
 12227 0c50 51       		.byte	0x51
 12228 0c51 02       		.uleb128 0x2
 12229 0c52 74       		.byte	0x74
 12230 0c53 00       		.sleb128 0
ARM GAS  C:\Users\diego\AppData\Local\Temp\ccvEcbYb.s 			page 259


 12231 0c54 10       		.uleb128 0x10
 12232 0c55 01       		.uleb128 0x1
 12233 0c56 50       		.byte	0x50
 12234 0c57 05       		.uleb128 0x5
 12235 0c58 03       		.byte	0x3
 12236 0c59 00000000 		.4byte	resultado
 12237 0c5d 00       		.byte	0
 12238 0c5e 0F       		.uleb128 0xf
 12239 0c5f BA060000 		.4byte	.LVL172
 12240 0c63 EA3F0000 		.4byte	0x3fea
 12241 0c67 790C0000 		.4byte	0xc79
 12242 0c6b 10       		.uleb128 0x10
 12243 0c6c 01       		.uleb128 0x1
 12244 0c6d 51       		.byte	0x51
 12245 0c6e 02       		.uleb128 0x2
 12246 0c6f 91       		.byte	0x91
 12247 0c70 54       		.sleb128 -44
 12248 0c71 10       		.uleb128 0x10
 12249 0c72 01       		.uleb128 0x1
 12250 0c73 50       		.byte	0x50
 12251 0c74 03       		.uleb128 0x3
 12252 0c75 0A       		.byte	0xa
 12253 0c76 0001     		.2byte	0x100
 12254 0c78 00       		.byte	0
 12255 0c79 0F       		.uleb128 0xf
 12256 0c7a C4060000 		.4byte	.LVL173
 12257 0c7e EA3F0000 		.4byte	0x3fea
 12258 0c82 970C0000 		.4byte	0xc97
 12259 0c86 10       		.uleb128 0x10
 12260 0c87 01       		.uleb128 0x1
 12261 0c88 51       		.byte	0x51
 12262 0c89 05       		.uleb128 0x5
 12263 0c8a 03       		.byte	0x3
 12264 0c8b 00000000 		.4byte	resultado
 12265 0c8f 10       		.uleb128 0x10
 12266 0c90 01       		.uleb128 0x1
 12267 0c91 50       		.byte	0x50
 12268 0c92 03       		.uleb128 0x3
 12269 0c93 0A       		.byte	0xa
 12270 0c94 0D02     		.2byte	0x20d
 12271 0c96 00       		.byte	0
 12272 0c97 0F       		.uleb128 0xf
 12273 0c98 D0060000 		.4byte	.LVL174
 12274 0c9c EA3F0000 		.4byte	0x3fea
 12275 0ca0 B20C0000 		.4byte	0xcb2
 12276 0ca4 10       		.uleb128 0x10
 12277 0ca5 01       		.uleb128 0x1
 12278 0ca6 51       		.byte	0x51
 12279 0ca7 02       		.uleb128 0x2
 12280 0ca8 91       		.byte	0x91
 12281 0ca9 54       		.sleb128 -44
 12282 0caa 10       		.uleb128 0x10
 12283 0cab 01       		.uleb128 0x1
 12284 0cac 50       		.byte	0x50
 12285 0cad 03       		.uleb128 0x3
 12286 0cae 0A       		.byte	0xa
 12287 0caf 5901     		.2byte	0x159
ARM GAS  C:\Users\diego\AppData\Local\Temp\ccvEcbYb.s 			page 260


 12288 0cb1 00       		.byte	0
 12289 0cb2 0F       		.uleb128 0xf
 12290 0cb3 DA060000 		.4byte	.LVL175
 12291 0cb7 EA3F0000 		.4byte	0x3fea
 12292 0cbb D00C0000 		.4byte	0xcd0
 12293 0cbf 10       		.uleb128 0x10
 12294 0cc0 01       		.uleb128 0x1
 12295 0cc1 51       		.byte	0x51
 12296 0cc2 05       		.uleb128 0x5
 12297 0cc3 03       		.byte	0x3
 12298 0cc4 00000000 		.4byte	resultado
 12299 0cc8 10       		.uleb128 0x10
 12300 0cc9 01       		.uleb128 0x1
 12301 0cca 50       		.byte	0x50
 12302 0ccb 03       		.uleb128 0x3
 12303 0ccc 0A       		.byte	0xa
 12304 0ccd 4D02     		.2byte	0x24d
 12305 0ccf 00       		.byte	0
 12306 0cd0 0F       		.uleb128 0xf
 12307 0cd1 1E070000 		.4byte	.LVL176
 12308 0cd5 04400000 		.4byte	0x4004
 12309 0cd9 E40C0000 		.4byte	0xce4
 12310 0cdd 10       		.uleb128 0x10
 12311 0cde 01       		.uleb128 0x1
 12312 0cdf 50       		.byte	0x50
 12313 0ce0 02       		.uleb128 0x2
 12314 0ce1 74       		.byte	0x74
 12315 0ce2 00       		.sleb128 0
 12316 0ce3 00       		.byte	0
 12317 0ce4 0F       		.uleb128 0xf
 12318 0ce5 36070000 		.4byte	.LVL177
 12319 0ce9 04400000 		.4byte	0x4004
 12320 0ced FD0C0000 		.4byte	0xcfd
 12321 0cf1 10       		.uleb128 0x10
 12322 0cf2 01       		.uleb128 0x1
 12323 0cf3 51       		.byte	0x51
 12324 0cf4 01       		.uleb128 0x1
 12325 0cf5 3A       		.byte	0x3a
 12326 0cf6 10       		.uleb128 0x10
 12327 0cf7 01       		.uleb128 0x1
 12328 0cf8 50       		.byte	0x50
 12329 0cf9 02       		.uleb128 0x2
 12330 0cfa 74       		.byte	0x74
 12331 0cfb 00       		.sleb128 0
 12332 0cfc 00       		.byte	0
 12333 0cfd 0F       		.uleb128 0xf
 12334 0cfe 48070000 		.4byte	.LVL178
 12335 0d02 04400000 		.4byte	0x4004
 12336 0d06 110D0000 		.4byte	0xd11
 12337 0d0a 10       		.uleb128 0x10
 12338 0d0b 01       		.uleb128 0x1
 12339 0d0c 50       		.byte	0x50
 12340 0d0d 02       		.uleb128 0x2
 12341 0d0e 74       		.byte	0x74
 12342 0d0f 00       		.sleb128 0
 12343 0d10 00       		.byte	0
 12344 0d11 0F       		.uleb128 0xf
ARM GAS  C:\Users\diego\AppData\Local\Temp\ccvEcbYb.s 			page 261


 12345 0d12 60070000 		.4byte	.LVL179
 12346 0d16 04400000 		.4byte	0x4004
 12347 0d1a 2A0D0000 		.4byte	0xd2a
 12348 0d1e 10       		.uleb128 0x10
 12349 0d1f 01       		.uleb128 0x1
 12350 0d20 51       		.byte	0x51
 12351 0d21 01       		.uleb128 0x1
 12352 0d22 3A       		.byte	0x3a
 12353 0d23 10       		.uleb128 0x10
 12354 0d24 01       		.uleb128 0x1
 12355 0d25 50       		.byte	0x50
 12356 0d26 02       		.uleb128 0x2
 12357 0d27 74       		.byte	0x74
 12358 0d28 00       		.sleb128 0
 12359 0d29 00       		.byte	0
 12360 0d2a 0F       		.uleb128 0xf
 12361 0d2b 74070000 		.4byte	.LVL180
 12362 0d2f 04400000 		.4byte	0x4004
 12363 0d33 3E0D0000 		.4byte	0xd3e
 12364 0d37 10       		.uleb128 0x10
 12365 0d38 01       		.uleb128 0x1
 12366 0d39 50       		.byte	0x50
 12367 0d3a 02       		.uleb128 0x2
 12368 0d3b 74       		.byte	0x74
 12369 0d3c 00       		.sleb128 0
 12370 0d3d 00       		.byte	0
 12371 0d3e 0F       		.uleb128 0xf
 12372 0d3f 8C070000 		.4byte	.LVL181
 12373 0d43 04400000 		.4byte	0x4004
 12374 0d47 570D0000 		.4byte	0xd57
 12375 0d4b 10       		.uleb128 0x10
 12376 0d4c 01       		.uleb128 0x1
 12377 0d4d 51       		.byte	0x51
 12378 0d4e 01       		.uleb128 0x1
 12379 0d4f 3A       		.byte	0x3a
 12380 0d50 10       		.uleb128 0x10
 12381 0d51 01       		.uleb128 0x1
 12382 0d52 50       		.byte	0x50
 12383 0d53 02       		.uleb128 0x2
 12384 0d54 74       		.byte	0x74
 12385 0d55 00       		.sleb128 0
 12386 0d56 00       		.byte	0
 12387 0d57 0F       		.uleb128 0xf
 12388 0d58 94070000 		.4byte	.LVL182
 12389 0d5c 1E400000 		.4byte	0x401e
 12390 0d60 700D0000 		.4byte	0xd70
 12391 0d64 10       		.uleb128 0x10
 12392 0d65 01       		.uleb128 0x1
 12393 0d66 51       		.byte	0x51
 12394 0d67 02       		.uleb128 0x2
 12395 0d68 74       		.byte	0x74
 12396 0d69 00       		.sleb128 0
 12397 0d6a 10       		.uleb128 0x10
 12398 0d6b 01       		.uleb128 0x1
 12399 0d6c 50       		.byte	0x50
 12400 0d6d 01       		.uleb128 0x1
 12401 0d6e 38       		.byte	0x38
ARM GAS  C:\Users\diego\AppData\Local\Temp\ccvEcbYb.s 			page 262


 12402 0d6f 00       		.byte	0
 12403 0d70 0F       		.uleb128 0xf
 12404 0d71 A8070000 		.4byte	.LVL183
 12405 0d75 04400000 		.4byte	0x4004
 12406 0d79 840D0000 		.4byte	0xd84
 12407 0d7d 10       		.uleb128 0x10
 12408 0d7e 01       		.uleb128 0x1
 12409 0d7f 50       		.byte	0x50
 12410 0d80 02       		.uleb128 0x2
 12411 0d81 74       		.byte	0x74
 12412 0d82 00       		.sleb128 0
 12413 0d83 00       		.byte	0
 12414 0d84 0F       		.uleb128 0xf
 12415 0d85 C0070000 		.4byte	.LVL184
 12416 0d89 04400000 		.4byte	0x4004
 12417 0d8d 9D0D0000 		.4byte	0xd9d
 12418 0d91 10       		.uleb128 0x10
 12419 0d92 01       		.uleb128 0x1
 12420 0d93 51       		.byte	0x51
 12421 0d94 01       		.uleb128 0x1
 12422 0d95 3A       		.byte	0x3a
 12423 0d96 10       		.uleb128 0x10
 12424 0d97 01       		.uleb128 0x1
 12425 0d98 50       		.byte	0x50
 12426 0d99 02       		.uleb128 0x2
 12427 0d9a 74       		.byte	0x74
 12428 0d9b 00       		.sleb128 0
 12429 0d9c 00       		.byte	0
 12430 0d9d 0F       		.uleb128 0xf
 12431 0d9e D2070000 		.4byte	.LVL185
 12432 0da2 34400000 		.4byte	0x4034
 12433 0da6 B70D0000 		.4byte	0xdb7
 12434 0daa 10       		.uleb128 0x10
 12435 0dab 01       		.uleb128 0x1
 12436 0dac 51       		.byte	0x51
 12437 0dad 01       		.uleb128 0x1
 12438 0dae 49       		.byte	0x49
 12439 0daf 10       		.uleb128 0x10
 12440 0db0 01       		.uleb128 0x1
 12441 0db1 50       		.byte	0x50
 12442 0db2 03       		.uleb128 0x3
 12443 0db3 0A       		.byte	0xa
 12444 0db4 4804     		.2byte	0x448
 12445 0db6 00       		.byte	0
 12446 0db7 0F       		.uleb128 0xf
 12447 0db8 DE070000 		.4byte	.LVL186
 12448 0dbc 34400000 		.4byte	0x4034
 12449 0dc0 D10D0000 		.4byte	0xdd1
 12450 0dc4 10       		.uleb128 0x10
 12451 0dc5 01       		.uleb128 0x1
 12452 0dc6 51       		.byte	0x51
 12453 0dc7 01       		.uleb128 0x1
 12454 0dc8 49       		.byte	0x49
 12455 0dc9 10       		.uleb128 0x10
 12456 0dca 01       		.uleb128 0x1
 12457 0dcb 50       		.byte	0x50
 12458 0dcc 03       		.uleb128 0x3
ARM GAS  C:\Users\diego\AppData\Local\Temp\ccvEcbYb.s 			page 263


 12459 0dcd 0A       		.byte	0xa
 12460 0dce 1E04     		.2byte	0x41e
 12461 0dd0 00       		.byte	0
 12462 0dd1 0F       		.uleb128 0xf
 12463 0dd2 E4070000 		.4byte	.LVL187
 12464 0dd6 4E400000 		.4byte	0x404e
 12465 0dda E50D0000 		.4byte	0xde5
 12466 0dde 10       		.uleb128 0x10
 12467 0ddf 01       		.uleb128 0x1
 12468 0de0 50       		.byte	0x50
 12469 0de1 02       		.uleb128 0x2
 12470 0de2 74       		.byte	0x74
 12471 0de3 00       		.sleb128 0
 12472 0de4 00       		.byte	0
 12473 0de5 0F       		.uleb128 0xf
 12474 0de6 26080000 		.4byte	.LVL188
 12475 0dea 5F400000 		.4byte	0x405f
 12476 0dee 050E0000 		.4byte	0xe05
 12477 0df2 10       		.uleb128 0x10
 12478 0df3 01       		.uleb128 0x1
 12479 0df4 52       		.byte	0x52
 12480 0df5 03       		.uleb128 0x3
 12481 0df6 91       		.byte	0x91
 12482 0df7 B47F     		.sleb128 -76
 12483 0df9 10       		.uleb128 0x10
 12484 0dfa 01       		.uleb128 0x1
 12485 0dfb 51       		.byte	0x51
 12486 0dfc 02       		.uleb128 0x2
 12487 0dfd 91       		.byte	0x91
 12488 0dfe 44       		.sleb128 -60
 12489 0dff 10       		.uleb128 0x10
 12490 0e00 01       		.uleb128 0x1
 12491 0e01 50       		.byte	0x50
 12492 0e02 01       		.uleb128 0x1
 12493 0e03 32       		.byte	0x32
 12494 0e04 00       		.byte	0
 12495 0e05 0F       		.uleb128 0xf
 12496 0e06 3C080000 		.4byte	.LVL189
 12497 0e0a 04400000 		.4byte	0x4004
 12498 0e0e 190E0000 		.4byte	0xe19
 12499 0e12 10       		.uleb128 0x10
 12500 0e13 01       		.uleb128 0x1
 12501 0e14 50       		.byte	0x50
 12502 0e15 02       		.uleb128 0x2
 12503 0e16 74       		.byte	0x74
 12504 0e17 00       		.sleb128 0
 12505 0e18 00       		.byte	0
 12506 0e19 0F       		.uleb128 0xf
 12507 0e1a 54080000 		.4byte	.LVL190
 12508 0e1e 7A400000 		.4byte	0x407a
 12509 0e22 360E0000 		.4byte	0xe36
 12510 0e26 10       		.uleb128 0x10
 12511 0e27 01       		.uleb128 0x1
 12512 0e28 51       		.byte	0x51
 12513 0e29 02       		.uleb128 0x2
 12514 0e2a 74       		.byte	0x74
 12515 0e2b 00       		.sleb128 0
ARM GAS  C:\Users\diego\AppData\Local\Temp\ccvEcbYb.s 			page 264


 12516 0e2c 10       		.uleb128 0x10
 12517 0e2d 01       		.uleb128 0x1
 12518 0e2e 50       		.byte	0x50
 12519 0e2f 05       		.uleb128 0x5
 12520 0e30 03       		.byte	0x3
 12521 0e31 00000000 		.4byte	resultado
 12522 0e35 00       		.byte	0
 12523 0e36 0F       		.uleb128 0xf
 12524 0e37 66080000 		.4byte	.LVL191
 12525 0e3b EA3F0000 		.4byte	0x3fea
 12526 0e3f 510E0000 		.4byte	0xe51
 12527 0e43 10       		.uleb128 0x10
 12528 0e44 01       		.uleb128 0x1
 12529 0e45 51       		.byte	0x51
 12530 0e46 02       		.uleb128 0x2
 12531 0e47 91       		.byte	0x91
 12532 0e48 54       		.sleb128 -44
 12533 0e49 10       		.uleb128 0x10
 12534 0e4a 01       		.uleb128 0x1
 12535 0e4b 50       		.byte	0x50
 12536 0e4c 03       		.uleb128 0x3
 12537 0e4d 0A       		.byte	0xa
 12538 0e4e 4804     		.2byte	0x448
 12539 0e50 00       		.byte	0
 12540 0e51 0F       		.uleb128 0xf
 12541 0e52 70080000 		.4byte	.LVL192
 12542 0e56 EA3F0000 		.4byte	0x3fea
 12543 0e5a 6F0E0000 		.4byte	0xe6f
 12544 0e5e 10       		.uleb128 0x10
 12545 0e5f 01       		.uleb128 0x1
 12546 0e60 51       		.byte	0x51
 12547 0e61 05       		.uleb128 0x5
 12548 0e62 03       		.byte	0x3
 12549 0e63 00000000 		.4byte	resultado
 12550 0e67 10       		.uleb128 0x10
 12551 0e68 01       		.uleb128 0x1
 12552 0e69 50       		.byte	0x50
 12553 0e6a 03       		.uleb128 0x3
 12554 0e6b 0A       		.byte	0xa
 12555 0e6c 0E04     		.2byte	0x40e
 12556 0e6e 00       		.byte	0
 12557 0e6f 0F       		.uleb128 0xf
 12558 0e70 7C080000 		.4byte	.LVL193
 12559 0e74 EA3F0000 		.4byte	0x3fea
 12560 0e78 8A0E0000 		.4byte	0xe8a
 12561 0e7c 10       		.uleb128 0x10
 12562 0e7d 01       		.uleb128 0x1
 12563 0e7e 51       		.byte	0x51
 12564 0e7f 02       		.uleb128 0x2
 12565 0e80 91       		.byte	0x91
 12566 0e81 54       		.sleb128 -44
 12567 0e82 10       		.uleb128 0x10
 12568 0e83 01       		.uleb128 0x1
 12569 0e84 50       		.byte	0x50
 12570 0e85 03       		.uleb128 0x3
 12571 0e86 0A       		.byte	0xa
 12572 0e87 1E04     		.2byte	0x41e
ARM GAS  C:\Users\diego\AppData\Local\Temp\ccvEcbYb.s 			page 265


 12573 0e89 00       		.byte	0
 12574 0e8a 0F       		.uleb128 0xf
 12575 0e8b 86080000 		.4byte	.LVL194
 12576 0e8f EA3F0000 		.4byte	0x3fea
 12577 0e93 A80E0000 		.4byte	0xea8
 12578 0e97 10       		.uleb128 0x10
 12579 0e98 01       		.uleb128 0x1
 12580 0e99 51       		.byte	0x51
 12581 0e9a 05       		.uleb128 0x5
 12582 0e9b 03       		.byte	0x3
 12583 0e9c 00000000 		.4byte	resultado
 12584 0ea0 10       		.uleb128 0x10
 12585 0ea1 01       		.uleb128 0x1
 12586 0ea2 50       		.byte	0x50
 12587 0ea3 03       		.uleb128 0x3
 12588 0ea4 0A       		.byte	0xa
 12589 0ea5 3904     		.2byte	0x439
 12590 0ea7 00       		.byte	0
 12591 0ea8 11       		.uleb128 0x11
 12592 0ea9 8A080000 		.4byte	.LVL195
 12593 0ead D83F0000 		.4byte	0x3fd8
 12594 0eb1 0F       		.uleb128 0xf
 12595 0eb2 0A0A0000 		.4byte	.LVL198
 12596 0eb6 04400000 		.4byte	0x4004
 12597 0eba C50E0000 		.4byte	0xec5
 12598 0ebe 10       		.uleb128 0x10
 12599 0ebf 01       		.uleb128 0x1
 12600 0ec0 50       		.byte	0x50
 12601 0ec1 02       		.uleb128 0x2
 12602 0ec2 74       		.byte	0x74
 12603 0ec3 00       		.sleb128 0
 12604 0ec4 00       		.byte	0
 12605 0ec5 0F       		.uleb128 0xf
 12606 0ec6 220A0000 		.4byte	.LVL199
 12607 0eca 04400000 		.4byte	0x4004
 12608 0ece DE0E0000 		.4byte	0xede
 12609 0ed2 10       		.uleb128 0x10
 12610 0ed3 01       		.uleb128 0x1
 12611 0ed4 51       		.byte	0x51
 12612 0ed5 01       		.uleb128 0x1
 12613 0ed6 3A       		.byte	0x3a
 12614 0ed7 10       		.uleb128 0x10
 12615 0ed8 01       		.uleb128 0x1
 12616 0ed9 50       		.byte	0x50
 12617 0eda 02       		.uleb128 0x2
 12618 0edb 74       		.byte	0x74
 12619 0edc 00       		.sleb128 0
 12620 0edd 00       		.byte	0
 12621 0ede 0F       		.uleb128 0xf
 12622 0edf 340A0000 		.4byte	.LVL200
 12623 0ee3 04400000 		.4byte	0x4004
 12624 0ee7 F20E0000 		.4byte	0xef2
 12625 0eeb 10       		.uleb128 0x10
 12626 0eec 01       		.uleb128 0x1
 12627 0eed 50       		.byte	0x50
 12628 0eee 02       		.uleb128 0x2
 12629 0eef 74       		.byte	0x74
ARM GAS  C:\Users\diego\AppData\Local\Temp\ccvEcbYb.s 			page 266


 12630 0ef0 00       		.sleb128 0
 12631 0ef1 00       		.byte	0
 12632 0ef2 0F       		.uleb128 0xf
 12633 0ef3 4C0A0000 		.4byte	.LVL201
 12634 0ef7 04400000 		.4byte	0x4004
 12635 0efb 0B0F0000 		.4byte	0xf0b
 12636 0eff 10       		.uleb128 0x10
 12637 0f00 01       		.uleb128 0x1
 12638 0f01 51       		.byte	0x51
 12639 0f02 01       		.uleb128 0x1
 12640 0f03 3A       		.byte	0x3a
 12641 0f04 10       		.uleb128 0x10
 12642 0f05 01       		.uleb128 0x1
 12643 0f06 50       		.byte	0x50
 12644 0f07 02       		.uleb128 0x2
 12645 0f08 74       		.byte	0x74
 12646 0f09 00       		.sleb128 0
 12647 0f0a 00       		.byte	0
 12648 0f0b 0F       		.uleb128 0xf
 12649 0f0c 600A0000 		.4byte	.LVL202
 12650 0f10 04400000 		.4byte	0x4004
 12651 0f14 1F0F0000 		.4byte	0xf1f
 12652 0f18 10       		.uleb128 0x10
 12653 0f19 01       		.uleb128 0x1
 12654 0f1a 50       		.byte	0x50
 12655 0f1b 02       		.uleb128 0x2
 12656 0f1c 74       		.byte	0x74
 12657 0f1d 00       		.sleb128 0
 12658 0f1e 00       		.byte	0
 12659 0f1f 0F       		.uleb128 0xf
 12660 0f20 780A0000 		.4byte	.LVL203
 12661 0f24 04400000 		.4byte	0x4004
 12662 0f28 380F0000 		.4byte	0xf38
 12663 0f2c 10       		.uleb128 0x10
 12664 0f2d 01       		.uleb128 0x1
 12665 0f2e 51       		.byte	0x51
 12666 0f2f 01       		.uleb128 0x1
 12667 0f30 3A       		.byte	0x3a
 12668 0f31 10       		.uleb128 0x10
 12669 0f32 01       		.uleb128 0x1
 12670 0f33 50       		.byte	0x50
 12671 0f34 02       		.uleb128 0x2
 12672 0f35 74       		.byte	0x74
 12673 0f36 00       		.sleb128 0
 12674 0f37 00       		.byte	0
 12675 0f38 0F       		.uleb128 0xf
 12676 0f39 800A0000 		.4byte	.LVL204
 12677 0f3d 1E400000 		.4byte	0x401e
 12678 0f41 510F0000 		.4byte	0xf51
 12679 0f45 10       		.uleb128 0x10
 12680 0f46 01       		.uleb128 0x1
 12681 0f47 51       		.byte	0x51
 12682 0f48 02       		.uleb128 0x2
 12683 0f49 74       		.byte	0x74
 12684 0f4a 00       		.sleb128 0
 12685 0f4b 10       		.uleb128 0x10
 12686 0f4c 01       		.uleb128 0x1
ARM GAS  C:\Users\diego\AppData\Local\Temp\ccvEcbYb.s 			page 267


 12687 0f4d 50       		.byte	0x50
 12688 0f4e 01       		.uleb128 0x1
 12689 0f4f 38       		.byte	0x38
 12690 0f50 00       		.byte	0
 12691 0f51 0F       		.uleb128 0xf
 12692 0f52 940A0000 		.4byte	.LVL205
 12693 0f56 04400000 		.4byte	0x4004
 12694 0f5a 650F0000 		.4byte	0xf65
 12695 0f5e 10       		.uleb128 0x10
 12696 0f5f 01       		.uleb128 0x1
 12697 0f60 50       		.byte	0x50
 12698 0f61 02       		.uleb128 0x2
 12699 0f62 74       		.byte	0x74
 12700 0f63 00       		.sleb128 0
 12701 0f64 00       		.byte	0
 12702 0f65 0F       		.uleb128 0xf
 12703 0f66 AC0A0000 		.4byte	.LVL206
 12704 0f6a 04400000 		.4byte	0x4004
 12705 0f6e 7E0F0000 		.4byte	0xf7e
 12706 0f72 10       		.uleb128 0x10
 12707 0f73 01       		.uleb128 0x1
 12708 0f74 51       		.byte	0x51
 12709 0f75 01       		.uleb128 0x1
 12710 0f76 3A       		.byte	0x3a
 12711 0f77 10       		.uleb128 0x10
 12712 0f78 01       		.uleb128 0x1
 12713 0f79 50       		.byte	0x50
 12714 0f7a 02       		.uleb128 0x2
 12715 0f7b 74       		.byte	0x74
 12716 0f7c 00       		.sleb128 0
 12717 0f7d 00       		.byte	0
 12718 0f7e 0F       		.uleb128 0xf
 12719 0f7f BC0A0000 		.4byte	.LVL207
 12720 0f83 34400000 		.4byte	0x4034
 12721 0f87 970F0000 		.4byte	0xf97
 12722 0f8b 10       		.uleb128 0x10
 12723 0f8c 01       		.uleb128 0x1
 12724 0f8d 51       		.byte	0x51
 12725 0f8e 01       		.uleb128 0x1
 12726 0f8f 49       		.byte	0x49
 12727 0f90 10       		.uleb128 0x10
 12728 0f91 01       		.uleb128 0x1
 12729 0f92 50       		.byte	0x50
 12730 0f93 02       		.uleb128 0x2
 12731 0f94 08       		.byte	0x8
 12732 0f95 C0       		.byte	0xc0
 12733 0f96 00       		.byte	0
 12734 0f97 0F       		.uleb128 0xf
 12735 0f98 C80A0000 		.4byte	.LVL208
 12736 0f9c 34400000 		.4byte	0x4034
 12737 0fa0 B10F0000 		.4byte	0xfb1
 12738 0fa4 10       		.uleb128 0x10
 12739 0fa5 01       		.uleb128 0x1
 12740 0fa6 51       		.byte	0x51
 12741 0fa7 01       		.uleb128 0x1
 12742 0fa8 49       		.byte	0x49
 12743 0fa9 10       		.uleb128 0x10
ARM GAS  C:\Users\diego\AppData\Local\Temp\ccvEcbYb.s 			page 268


 12744 0faa 01       		.uleb128 0x1
 12745 0fab 50       		.byte	0x50
 12746 0fac 03       		.uleb128 0x3
 12747 0fad 0A       		.byte	0xa
 12748 0fae 1901     		.2byte	0x119
 12749 0fb0 00       		.byte	0
 12750 0fb1 0F       		.uleb128 0xf
 12751 0fb2 CE0A0000 		.4byte	.LVL209
 12752 0fb6 4E400000 		.4byte	0x404e
 12753 0fba C50F0000 		.4byte	0xfc5
 12754 0fbe 10       		.uleb128 0x10
 12755 0fbf 01       		.uleb128 0x1
 12756 0fc0 50       		.byte	0x50
 12757 0fc1 02       		.uleb128 0x2
 12758 0fc2 74       		.byte	0x74
 12759 0fc3 00       		.sleb128 0
 12760 0fc4 00       		.byte	0
 12761 0fc5 0F       		.uleb128 0xf
 12762 0fc6 100B0000 		.4byte	.LVL210
 12763 0fca 5F400000 		.4byte	0x405f
 12764 0fce E50F0000 		.4byte	0xfe5
 12765 0fd2 10       		.uleb128 0x10
 12766 0fd3 01       		.uleb128 0x1
 12767 0fd4 52       		.byte	0x52
 12768 0fd5 03       		.uleb128 0x3
 12769 0fd6 91       		.byte	0x91
 12770 0fd7 B47F     		.sleb128 -76
 12771 0fd9 10       		.uleb128 0x10
 12772 0fda 01       		.uleb128 0x1
 12773 0fdb 51       		.byte	0x51
 12774 0fdc 02       		.uleb128 0x2
 12775 0fdd 91       		.byte	0x91
 12776 0fde 44       		.sleb128 -60
 12777 0fdf 10       		.uleb128 0x10
 12778 0fe0 01       		.uleb128 0x1
 12779 0fe1 50       		.byte	0x50
 12780 0fe2 01       		.uleb128 0x1
 12781 0fe3 32       		.byte	0x32
 12782 0fe4 00       		.byte	0
 12783 0fe5 0F       		.uleb128 0xf
 12784 0fe6 260B0000 		.4byte	.LVL211
 12785 0fea 04400000 		.4byte	0x4004
 12786 0fee F90F0000 		.4byte	0xff9
 12787 0ff2 10       		.uleb128 0x10
 12788 0ff3 01       		.uleb128 0x1
 12789 0ff4 50       		.byte	0x50
 12790 0ff5 02       		.uleb128 0x2
 12791 0ff6 74       		.byte	0x74
 12792 0ff7 00       		.sleb128 0
 12793 0ff8 00       		.byte	0
 12794 0ff9 0F       		.uleb128 0xf
 12795 0ffa 3E0B0000 		.4byte	.LVL212
 12796 0ffe 7A400000 		.4byte	0x407a
 12797 1002 16100000 		.4byte	0x1016
 12798 1006 10       		.uleb128 0x10
 12799 1007 01       		.uleb128 0x1
 12800 1008 51       		.byte	0x51
ARM GAS  C:\Users\diego\AppData\Local\Temp\ccvEcbYb.s 			page 269


 12801 1009 02       		.uleb128 0x2
 12802 100a 74       		.byte	0x74
 12803 100b 00       		.sleb128 0
 12804 100c 10       		.uleb128 0x10
 12805 100d 01       		.uleb128 0x1
 12806 100e 50       		.byte	0x50
 12807 100f 05       		.uleb128 0x5
 12808 1010 03       		.byte	0x3
 12809 1011 00000000 		.4byte	resultado
 12810 1015 00       		.byte	0
 12811 1016 0F       		.uleb128 0xf
 12812 1017 4E0B0000 		.4byte	.LVL213
 12813 101b EA3F0000 		.4byte	0x3fea
 12814 101f 30100000 		.4byte	0x1030
 12815 1023 10       		.uleb128 0x10
 12816 1024 01       		.uleb128 0x1
 12817 1025 51       		.byte	0x51
 12818 1026 02       		.uleb128 0x2
 12819 1027 91       		.byte	0x91
 12820 1028 54       		.sleb128 -44
 12821 1029 10       		.uleb128 0x10
 12822 102a 01       		.uleb128 0x1
 12823 102b 50       		.byte	0x50
 12824 102c 02       		.uleb128 0x2
 12825 102d 08       		.byte	0x8
 12826 102e C0       		.byte	0xc0
 12827 102f 00       		.byte	0
 12828 1030 0F       		.uleb128 0xf
 12829 1031 580B0000 		.4byte	.LVL214
 12830 1035 EA3F0000 		.4byte	0x3fea
 12831 1039 4E100000 		.4byte	0x104e
 12832 103d 10       		.uleb128 0x10
 12833 103e 01       		.uleb128 0x1
 12834 103f 51       		.byte	0x51
 12835 1040 05       		.uleb128 0x5
 12836 1041 03       		.byte	0x3
 12837 1042 00000000 		.4byte	resultado
 12838 1046 10       		.uleb128 0x10
 12839 1047 01       		.uleb128 0x1
 12840 1048 50       		.byte	0x50
 12841 1049 03       		.uleb128 0x3
 12842 104a 0A       		.byte	0xa
 12843 104b 0002     		.2byte	0x200
 12844 104d 00       		.byte	0
 12845 104e 0F       		.uleb128 0xf
 12846 104f AA0B0000 		.4byte	.LVL215
 12847 1053 EA3F0000 		.4byte	0x3fea
 12848 1057 69100000 		.4byte	0x1069
 12849 105b 10       		.uleb128 0x10
 12850 105c 01       		.uleb128 0x1
 12851 105d 51       		.byte	0x51
 12852 105e 02       		.uleb128 0x2
 12853 105f 91       		.byte	0x91
 12854 1060 54       		.sleb128 -44
 12855 1061 10       		.uleb128 0x10
 12856 1062 01       		.uleb128 0x1
 12857 1063 50       		.byte	0x50
ARM GAS  C:\Users\diego\AppData\Local\Temp\ccvEcbYb.s 			page 270


 12858 1064 03       		.uleb128 0x3
 12859 1065 0A       		.byte	0xa
 12860 1066 1901     		.2byte	0x119
 12861 1068 00       		.byte	0
 12862 1069 0F       		.uleb128 0xf
 12863 106a B40B0000 		.4byte	.LVL216
 12864 106e EA3F0000 		.4byte	0x3fea
 12865 1072 87100000 		.4byte	0x1087
 12866 1076 10       		.uleb128 0x10
 12867 1077 01       		.uleb128 0x1
 12868 1078 51       		.byte	0x51
 12869 1079 05       		.uleb128 0x5
 12870 107a 03       		.byte	0x3
 12871 107b 00000000 		.4byte	resultado
 12872 107f 10       		.uleb128 0x10
 12873 1080 01       		.uleb128 0x1
 12874 1081 50       		.byte	0x50
 12875 1082 03       		.uleb128 0x3
 12876 1083 0A       		.byte	0xa
 12877 1084 2702     		.2byte	0x227
 12878 1086 00       		.byte	0
 12879 1087 0F       		.uleb128 0xf
 12880 1088 100C0000 		.4byte	.LVL217
 12881 108c 04400000 		.4byte	0x4004
 12882 1090 9B100000 		.4byte	0x109b
 12883 1094 10       		.uleb128 0x10
 12884 1095 01       		.uleb128 0x1
 12885 1096 50       		.byte	0x50
 12886 1097 02       		.uleb128 0x2
 12887 1098 74       		.byte	0x74
 12888 1099 00       		.sleb128 0
 12889 109a 00       		.byte	0
 12890 109b 0F       		.uleb128 0xf
 12891 109c 280C0000 		.4byte	.LVL218
 12892 10a0 04400000 		.4byte	0x4004
 12893 10a4 B4100000 		.4byte	0x10b4
 12894 10a8 10       		.uleb128 0x10
 12895 10a9 01       		.uleb128 0x1
 12896 10aa 51       		.byte	0x51
 12897 10ab 01       		.uleb128 0x1
 12898 10ac 3A       		.byte	0x3a
 12899 10ad 10       		.uleb128 0x10
 12900 10ae 01       		.uleb128 0x1
 12901 10af 50       		.byte	0x50
 12902 10b0 02       		.uleb128 0x2
 12903 10b1 74       		.byte	0x74
 12904 10b2 00       		.sleb128 0
 12905 10b3 00       		.byte	0
 12906 10b4 0F       		.uleb128 0xf
 12907 10b5 3A0C0000 		.4byte	.LVL219
 12908 10b9 04400000 		.4byte	0x4004
 12909 10bd C8100000 		.4byte	0x10c8
 12910 10c1 10       		.uleb128 0x10
 12911 10c2 01       		.uleb128 0x1
 12912 10c3 50       		.byte	0x50
 12913 10c4 02       		.uleb128 0x2
 12914 10c5 74       		.byte	0x74
ARM GAS  C:\Users\diego\AppData\Local\Temp\ccvEcbYb.s 			page 271


 12915 10c6 00       		.sleb128 0
 12916 10c7 00       		.byte	0
 12917 10c8 0F       		.uleb128 0xf
 12918 10c9 520C0000 		.4byte	.LVL220
 12919 10cd 04400000 		.4byte	0x4004
 12920 10d1 E1100000 		.4byte	0x10e1
 12921 10d5 10       		.uleb128 0x10
 12922 10d6 01       		.uleb128 0x1
 12923 10d7 51       		.byte	0x51
 12924 10d8 01       		.uleb128 0x1
 12925 10d9 3A       		.byte	0x3a
 12926 10da 10       		.uleb128 0x10
 12927 10db 01       		.uleb128 0x1
 12928 10dc 50       		.byte	0x50
 12929 10dd 02       		.uleb128 0x2
 12930 10de 74       		.byte	0x74
 12931 10df 00       		.sleb128 0
 12932 10e0 00       		.byte	0
 12933 10e1 0F       		.uleb128 0xf
 12934 10e2 660C0000 		.4byte	.LVL221
 12935 10e6 04400000 		.4byte	0x4004
 12936 10ea F5100000 		.4byte	0x10f5
 12937 10ee 10       		.uleb128 0x10
 12938 10ef 01       		.uleb128 0x1
 12939 10f0 50       		.byte	0x50
 12940 10f1 02       		.uleb128 0x2
 12941 10f2 74       		.byte	0x74
 12942 10f3 00       		.sleb128 0
 12943 10f4 00       		.byte	0
 12944 10f5 0F       		.uleb128 0xf
 12945 10f6 7E0C0000 		.4byte	.LVL222
 12946 10fa 04400000 		.4byte	0x4004
 12947 10fe 0E110000 		.4byte	0x110e
 12948 1102 10       		.uleb128 0x10
 12949 1103 01       		.uleb128 0x1
 12950 1104 51       		.byte	0x51
 12951 1105 01       		.uleb128 0x1
 12952 1106 3A       		.byte	0x3a
 12953 1107 10       		.uleb128 0x10
 12954 1108 01       		.uleb128 0x1
 12955 1109 50       		.byte	0x50
 12956 110a 02       		.uleb128 0x2
 12957 110b 74       		.byte	0x74
 12958 110c 00       		.sleb128 0
 12959 110d 00       		.byte	0
 12960 110e 0F       		.uleb128 0xf
 12961 110f 860C0000 		.4byte	.LVL223
 12962 1113 1E400000 		.4byte	0x401e
 12963 1117 27110000 		.4byte	0x1127
 12964 111b 10       		.uleb128 0x10
 12965 111c 01       		.uleb128 0x1
 12966 111d 51       		.byte	0x51
 12967 111e 02       		.uleb128 0x2
 12968 111f 74       		.byte	0x74
 12969 1120 00       		.sleb128 0
 12970 1121 10       		.uleb128 0x10
 12971 1122 01       		.uleb128 0x1
ARM GAS  C:\Users\diego\AppData\Local\Temp\ccvEcbYb.s 			page 272


 12972 1123 50       		.byte	0x50
 12973 1124 01       		.uleb128 0x1
 12974 1125 38       		.byte	0x38
 12975 1126 00       		.byte	0
 12976 1127 0F       		.uleb128 0xf
 12977 1128 9A0C0000 		.4byte	.LVL224
 12978 112c 04400000 		.4byte	0x4004
 12979 1130 3B110000 		.4byte	0x113b
 12980 1134 10       		.uleb128 0x10
 12981 1135 01       		.uleb128 0x1
 12982 1136 50       		.byte	0x50
 12983 1137 02       		.uleb128 0x2
 12984 1138 74       		.byte	0x74
 12985 1139 00       		.sleb128 0
 12986 113a 00       		.byte	0
 12987 113b 0F       		.uleb128 0xf
 12988 113c B20C0000 		.4byte	.LVL225
 12989 1140 04400000 		.4byte	0x4004
 12990 1144 54110000 		.4byte	0x1154
 12991 1148 10       		.uleb128 0x10
 12992 1149 01       		.uleb128 0x1
 12993 114a 51       		.byte	0x51
 12994 114b 01       		.uleb128 0x1
 12995 114c 3A       		.byte	0x3a
 12996 114d 10       		.uleb128 0x10
 12997 114e 01       		.uleb128 0x1
 12998 114f 50       		.byte	0x50
 12999 1150 02       		.uleb128 0x2
 13000 1151 74       		.byte	0x74
 13001 1152 00       		.sleb128 0
 13002 1153 00       		.byte	0
 13003 1154 0F       		.uleb128 0xf
 13004 1155 C20C0000 		.4byte	.LVL226
 13005 1159 34400000 		.4byte	0x4034
 13006 115d 6D110000 		.4byte	0x116d
 13007 1161 10       		.uleb128 0x10
 13008 1162 01       		.uleb128 0x1
 13009 1163 51       		.byte	0x51
 13010 1164 01       		.uleb128 0x1
 13011 1165 49       		.byte	0x49
 13012 1166 10       		.uleb128 0x10
 13013 1167 01       		.uleb128 0x1
 13014 1168 50       		.byte	0x50
 13015 1169 02       		.uleb128 0x2
 13016 116a 08       		.byte	0x8
 13017 116b D9       		.byte	0xd9
 13018 116c 00       		.byte	0
 13019 116d 0F       		.uleb128 0xf
 13020 116e CE0C0000 		.4byte	.LVL227
 13021 1172 34400000 		.4byte	0x4034
 13022 1176 87110000 		.4byte	0x1187
 13023 117a 10       		.uleb128 0x10
 13024 117b 01       		.uleb128 0x1
 13025 117c 51       		.byte	0x51
 13026 117d 01       		.uleb128 0x1
 13027 117e 49       		.byte	0x49
 13028 117f 10       		.uleb128 0x10
ARM GAS  C:\Users\diego\AppData\Local\Temp\ccvEcbYb.s 			page 273


 13029 1180 01       		.uleb128 0x1
 13030 1181 50       		.byte	0x50
 13031 1182 03       		.uleb128 0x3
 13032 1183 0A       		.byte	0xa
 13033 1184 4001     		.2byte	0x140
 13034 1186 00       		.byte	0
 13035 1187 0F       		.uleb128 0xf
 13036 1188 D40C0000 		.4byte	.LVL228
 13037 118c 4E400000 		.4byte	0x404e
 13038 1190 9B110000 		.4byte	0x119b
 13039 1194 10       		.uleb128 0x10
 13040 1195 01       		.uleb128 0x1
 13041 1196 50       		.byte	0x50
 13042 1197 02       		.uleb128 0x2
 13043 1198 74       		.byte	0x74
 13044 1199 00       		.sleb128 0
 13045 119a 00       		.byte	0
 13046 119b 0F       		.uleb128 0xf
 13047 119c 160D0000 		.4byte	.LVL229
 13048 11a0 5F400000 		.4byte	0x405f
 13049 11a4 BB110000 		.4byte	0x11bb
 13050 11a8 10       		.uleb128 0x10
 13051 11a9 01       		.uleb128 0x1
 13052 11aa 52       		.byte	0x52
 13053 11ab 03       		.uleb128 0x3
 13054 11ac 91       		.byte	0x91
 13055 11ad B47F     		.sleb128 -76
 13056 11af 10       		.uleb128 0x10
 13057 11b0 01       		.uleb128 0x1
 13058 11b1 51       		.byte	0x51
 13059 11b2 02       		.uleb128 0x2
 13060 11b3 91       		.byte	0x91
 13061 11b4 44       		.sleb128 -60
 13062 11b5 10       		.uleb128 0x10
 13063 11b6 01       		.uleb128 0x1
 13064 11b7 50       		.byte	0x50
 13065 11b8 01       		.uleb128 0x1
 13066 11b9 32       		.byte	0x32
 13067 11ba 00       		.byte	0
 13068 11bb 0F       		.uleb128 0xf
 13069 11bc 2C0D0000 		.4byte	.LVL230
 13070 11c0 04400000 		.4byte	0x4004
 13071 11c4 CF110000 		.4byte	0x11cf
 13072 11c8 10       		.uleb128 0x10
 13073 11c9 01       		.uleb128 0x1
 13074 11ca 50       		.byte	0x50
 13075 11cb 02       		.uleb128 0x2
 13076 11cc 74       		.byte	0x74
 13077 11cd 00       		.sleb128 0
 13078 11ce 00       		.byte	0
 13079 11cf 0F       		.uleb128 0xf
 13080 11d0 440D0000 		.4byte	.LVL231
 13081 11d4 7A400000 		.4byte	0x407a
 13082 11d8 EC110000 		.4byte	0x11ec
 13083 11dc 10       		.uleb128 0x10
 13084 11dd 01       		.uleb128 0x1
 13085 11de 51       		.byte	0x51
ARM GAS  C:\Users\diego\AppData\Local\Temp\ccvEcbYb.s 			page 274


 13086 11df 02       		.uleb128 0x2
 13087 11e0 74       		.byte	0x74
 13088 11e1 00       		.sleb128 0
 13089 11e2 10       		.uleb128 0x10
 13090 11e3 01       		.uleb128 0x1
 13091 11e4 50       		.byte	0x50
 13092 11e5 05       		.uleb128 0x5
 13093 11e6 03       		.byte	0x3
 13094 11e7 00000000 		.4byte	resultado
 13095 11eb 00       		.byte	0
 13096 11ec 0F       		.uleb128 0xf
 13097 11ed 540D0000 		.4byte	.LVL232
 13098 11f1 EA3F0000 		.4byte	0x3fea
 13099 11f5 06120000 		.4byte	0x1206
 13100 11f9 10       		.uleb128 0x10
 13101 11fa 01       		.uleb128 0x1
 13102 11fb 51       		.byte	0x51
 13103 11fc 02       		.uleb128 0x2
 13104 11fd 91       		.byte	0x91
 13105 11fe 54       		.sleb128 -44
 13106 11ff 10       		.uleb128 0x10
 13107 1200 01       		.uleb128 0x1
 13108 1201 50       		.byte	0x50
 13109 1202 02       		.uleb128 0x2
 13110 1203 08       		.byte	0x8
 13111 1204 D9       		.byte	0xd9
 13112 1205 00       		.byte	0
 13113 1206 0F       		.uleb128 0xf
 13114 1207 5E0D0000 		.4byte	.LVL233
 13115 120b EA3F0000 		.4byte	0x3fea
 13116 120f 24120000 		.4byte	0x1224
 13117 1213 10       		.uleb128 0x10
 13118 1214 01       		.uleb128 0x1
 13119 1215 51       		.byte	0x51
 13120 1216 05       		.uleb128 0x5
 13121 1217 03       		.byte	0x3
 13122 1218 00000000 		.4byte	resultado
 13123 121c 10       		.uleb128 0x10
 13124 121d 01       		.uleb128 0x1
 13125 121e 50       		.byte	0x50
 13126 121f 03       		.uleb128 0x3
 13127 1220 0A       		.byte	0xa
 13128 1221 1A02     		.2byte	0x21a
 13129 1223 00       		.byte	0
 13130 1224 0F       		.uleb128 0xf
 13131 1225 6A0D0000 		.4byte	.LVL234
 13132 1229 EA3F0000 		.4byte	0x3fea
 13133 122d 3F120000 		.4byte	0x123f
 13134 1231 10       		.uleb128 0x10
 13135 1232 01       		.uleb128 0x1
 13136 1233 51       		.byte	0x51
 13137 1234 02       		.uleb128 0x2
 13138 1235 91       		.byte	0x91
 13139 1236 54       		.sleb128 -44
 13140 1237 10       		.uleb128 0x10
 13141 1238 01       		.uleb128 0x1
 13142 1239 50       		.byte	0x50
ARM GAS  C:\Users\diego\AppData\Local\Temp\ccvEcbYb.s 			page 275


 13143 123a 03       		.uleb128 0x3
 13144 123b 0A       		.byte	0xa
 13145 123c 4001     		.2byte	0x140
 13146 123e 00       		.byte	0
 13147 123f 0F       		.uleb128 0xf
 13148 1240 740D0000 		.4byte	.LVL235
 13149 1244 EA3F0000 		.4byte	0x3fea
 13150 1248 5D120000 		.4byte	0x125d
 13151 124c 10       		.uleb128 0x10
 13152 124d 01       		.uleb128 0x1
 13153 124e 51       		.byte	0x51
 13154 124f 05       		.uleb128 0x5
 13155 1250 03       		.byte	0x3
 13156 1251 00000000 		.4byte	resultado
 13157 1255 10       		.uleb128 0x10
 13158 1256 01       		.uleb128 0x1
 13159 1257 50       		.byte	0x50
 13160 1258 03       		.uleb128 0x3
 13161 1259 0A       		.byte	0xa
 13162 125a 4002     		.2byte	0x240
 13163 125c 00       		.byte	0
 13164 125d 0F       		.uleb128 0xf
 13165 125e B80D0000 		.4byte	.LVL236
 13166 1262 04400000 		.4byte	0x4004
 13167 1266 71120000 		.4byte	0x1271
 13168 126a 10       		.uleb128 0x10
 13169 126b 01       		.uleb128 0x1
 13170 126c 50       		.byte	0x50
 13171 126d 02       		.uleb128 0x2
 13172 126e 74       		.byte	0x74
 13173 126f 00       		.sleb128 0
 13174 1270 00       		.byte	0
 13175 1271 0F       		.uleb128 0xf
 13176 1272 D00D0000 		.4byte	.LVL237
 13177 1276 04400000 		.4byte	0x4004
 13178 127a 8A120000 		.4byte	0x128a
 13179 127e 10       		.uleb128 0x10
 13180 127f 01       		.uleb128 0x1
 13181 1280 51       		.byte	0x51
 13182 1281 01       		.uleb128 0x1
 13183 1282 3A       		.byte	0x3a
 13184 1283 10       		.uleb128 0x10
 13185 1284 01       		.uleb128 0x1
 13186 1285 50       		.byte	0x50
 13187 1286 02       		.uleb128 0x2
 13188 1287 74       		.byte	0x74
 13189 1288 00       		.sleb128 0
 13190 1289 00       		.byte	0
 13191 128a 0F       		.uleb128 0xf
 13192 128b E20D0000 		.4byte	.LVL238
 13193 128f 04400000 		.4byte	0x4004
 13194 1293 9E120000 		.4byte	0x129e
 13195 1297 10       		.uleb128 0x10
 13196 1298 01       		.uleb128 0x1
 13197 1299 50       		.byte	0x50
 13198 129a 02       		.uleb128 0x2
 13199 129b 74       		.byte	0x74
ARM GAS  C:\Users\diego\AppData\Local\Temp\ccvEcbYb.s 			page 276


 13200 129c 00       		.sleb128 0
 13201 129d 00       		.byte	0
 13202 129e 0F       		.uleb128 0xf
 13203 129f FA0D0000 		.4byte	.LVL239
 13204 12a3 04400000 		.4byte	0x4004
 13205 12a7 B7120000 		.4byte	0x12b7
 13206 12ab 10       		.uleb128 0x10
 13207 12ac 01       		.uleb128 0x1
 13208 12ad 51       		.byte	0x51
 13209 12ae 01       		.uleb128 0x1
 13210 12af 3A       		.byte	0x3a
 13211 12b0 10       		.uleb128 0x10
 13212 12b1 01       		.uleb128 0x1
 13213 12b2 50       		.byte	0x50
 13214 12b3 02       		.uleb128 0x2
 13215 12b4 74       		.byte	0x74
 13216 12b5 00       		.sleb128 0
 13217 12b6 00       		.byte	0
 13218 12b7 0F       		.uleb128 0xf
 13219 12b8 0E0E0000 		.4byte	.LVL240
 13220 12bc 04400000 		.4byte	0x4004
 13221 12c0 CB120000 		.4byte	0x12cb
 13222 12c4 10       		.uleb128 0x10
 13223 12c5 01       		.uleb128 0x1
 13224 12c6 50       		.byte	0x50
 13225 12c7 02       		.uleb128 0x2
 13226 12c8 74       		.byte	0x74
 13227 12c9 00       		.sleb128 0
 13228 12ca 00       		.byte	0
 13229 12cb 0F       		.uleb128 0xf
 13230 12cc 260E0000 		.4byte	.LVL241
 13231 12d0 04400000 		.4byte	0x4004
 13232 12d4 E4120000 		.4byte	0x12e4
 13233 12d8 10       		.uleb128 0x10
 13234 12d9 01       		.uleb128 0x1
 13235 12da 51       		.byte	0x51
 13236 12db 01       		.uleb128 0x1
 13237 12dc 3A       		.byte	0x3a
 13238 12dd 10       		.uleb128 0x10
 13239 12de 01       		.uleb128 0x1
 13240 12df 50       		.byte	0x50
 13241 12e0 02       		.uleb128 0x2
 13242 12e1 74       		.byte	0x74
 13243 12e2 00       		.sleb128 0
 13244 12e3 00       		.byte	0
 13245 12e4 0F       		.uleb128 0xf
 13246 12e5 2E0E0000 		.4byte	.LVL242
 13247 12e9 1E400000 		.4byte	0x401e
 13248 12ed FD120000 		.4byte	0x12fd
 13249 12f1 10       		.uleb128 0x10
 13250 12f2 01       		.uleb128 0x1
 13251 12f3 51       		.byte	0x51
 13252 12f4 02       		.uleb128 0x2
 13253 12f5 74       		.byte	0x74
 13254 12f6 00       		.sleb128 0
 13255 12f7 10       		.uleb128 0x10
 13256 12f8 01       		.uleb128 0x1
ARM GAS  C:\Users\diego\AppData\Local\Temp\ccvEcbYb.s 			page 277


 13257 12f9 50       		.byte	0x50
 13258 12fa 01       		.uleb128 0x1
 13259 12fb 38       		.byte	0x38
 13260 12fc 00       		.byte	0
 13261 12fd 0F       		.uleb128 0xf
 13262 12fe 880E0000 		.4byte	.LVL243
 13263 1302 04400000 		.4byte	0x4004
 13264 1306 11130000 		.4byte	0x1311
 13265 130a 10       		.uleb128 0x10
 13266 130b 01       		.uleb128 0x1
 13267 130c 50       		.byte	0x50
 13268 130d 02       		.uleb128 0x2
 13269 130e 74       		.byte	0x74
 13270 130f 00       		.sleb128 0
 13271 1310 00       		.byte	0
 13272 1311 0F       		.uleb128 0xf
 13273 1312 A00E0000 		.4byte	.LVL244
 13274 1316 04400000 		.4byte	0x4004
 13275 131a 2A130000 		.4byte	0x132a
 13276 131e 10       		.uleb128 0x10
 13277 131f 01       		.uleb128 0x1
 13278 1320 51       		.byte	0x51
 13279 1321 01       		.uleb128 0x1
 13280 1322 3A       		.byte	0x3a
 13281 1323 10       		.uleb128 0x10
 13282 1324 01       		.uleb128 0x1
 13283 1325 50       		.byte	0x50
 13284 1326 02       		.uleb128 0x2
 13285 1327 74       		.byte	0x74
 13286 1328 00       		.sleb128 0
 13287 1329 00       		.byte	0
 13288 132a 0F       		.uleb128 0xf
 13289 132b B20E0000 		.4byte	.LVL245
 13290 132f 34400000 		.4byte	0x4034
 13291 1333 44130000 		.4byte	0x1344
 13292 1337 10       		.uleb128 0x10
 13293 1338 01       		.uleb128 0x1
 13294 1339 51       		.byte	0x51
 13295 133a 01       		.uleb128 0x1
 13296 133b 49       		.byte	0x49
 13297 133c 10       		.uleb128 0x10
 13298 133d 01       		.uleb128 0x1
 13299 133e 50       		.byte	0x50
 13300 133f 03       		.uleb128 0x3
 13301 1340 0A       		.byte	0xa
 13302 1341 0001     		.2byte	0x100
 13303 1343 00       		.byte	0
 13304 1344 0F       		.uleb128 0xf
 13305 1345 BE0E0000 		.4byte	.LVL246
 13306 1349 34400000 		.4byte	0x4034
 13307 134d 5E130000 		.4byte	0x135e
 13308 1351 10       		.uleb128 0x10
 13309 1352 01       		.uleb128 0x1
 13310 1353 51       		.byte	0x51
 13311 1354 01       		.uleb128 0x1
 13312 1355 49       		.byte	0x49
 13313 1356 10       		.uleb128 0x10
ARM GAS  C:\Users\diego\AppData\Local\Temp\ccvEcbYb.s 			page 278


 13314 1357 01       		.uleb128 0x1
 13315 1358 50       		.byte	0x50
 13316 1359 03       		.uleb128 0x3
 13317 135a 0A       		.byte	0xa
 13318 135b 5901     		.2byte	0x159
 13319 135d 00       		.byte	0
 13320 135e 0F       		.uleb128 0xf
 13321 135f C40E0000 		.4byte	.LVL247
 13322 1363 4E400000 		.4byte	0x404e
 13323 1367 72130000 		.4byte	0x1372
 13324 136b 10       		.uleb128 0x10
 13325 136c 01       		.uleb128 0x1
 13326 136d 50       		.byte	0x50
 13327 136e 02       		.uleb128 0x2
 13328 136f 74       		.byte	0x74
 13329 1370 00       		.sleb128 0
 13330 1371 00       		.byte	0
 13331 1372 0F       		.uleb128 0xf
 13332 1373 060F0000 		.4byte	.LVL248
 13333 1377 5F400000 		.4byte	0x405f
 13334 137b 92130000 		.4byte	0x1392
 13335 137f 10       		.uleb128 0x10
 13336 1380 01       		.uleb128 0x1
 13337 1381 52       		.byte	0x52
 13338 1382 03       		.uleb128 0x3
 13339 1383 91       		.byte	0x91
 13340 1384 B47F     		.sleb128 -76
 13341 1386 10       		.uleb128 0x10
 13342 1387 01       		.uleb128 0x1
 13343 1388 51       		.byte	0x51
 13344 1389 02       		.uleb128 0x2
 13345 138a 91       		.byte	0x91
 13346 138b 44       		.sleb128 -60
 13347 138c 10       		.uleb128 0x10
 13348 138d 01       		.uleb128 0x1
 13349 138e 50       		.byte	0x50
 13350 138f 01       		.uleb128 0x1
 13351 1390 32       		.byte	0x32
 13352 1391 00       		.byte	0
 13353 1392 0F       		.uleb128 0xf
 13354 1393 1C0F0000 		.4byte	.LVL249
 13355 1397 04400000 		.4byte	0x4004
 13356 139b A6130000 		.4byte	0x13a6
 13357 139f 10       		.uleb128 0x10
 13358 13a0 01       		.uleb128 0x1
 13359 13a1 50       		.byte	0x50
 13360 13a2 02       		.uleb128 0x2
 13361 13a3 74       		.byte	0x74
 13362 13a4 00       		.sleb128 0
 13363 13a5 00       		.byte	0
 13364 13a6 0F       		.uleb128 0xf
 13365 13a7 340F0000 		.4byte	.LVL250
 13366 13ab 7A400000 		.4byte	0x407a
 13367 13af C3130000 		.4byte	0x13c3
 13368 13b3 10       		.uleb128 0x10
 13369 13b4 01       		.uleb128 0x1
 13370 13b5 51       		.byte	0x51
ARM GAS  C:\Users\diego\AppData\Local\Temp\ccvEcbYb.s 			page 279


 13371 13b6 02       		.uleb128 0x2
 13372 13b7 74       		.byte	0x74
 13373 13b8 00       		.sleb128 0
 13374 13b9 10       		.uleb128 0x10
 13375 13ba 01       		.uleb128 0x1
 13376 13bb 50       		.byte	0x50
 13377 13bc 05       		.uleb128 0x5
 13378 13bd 03       		.byte	0x3
 13379 13be 00000000 		.4byte	resultado
 13380 13c2 00       		.byte	0
 13381 13c3 0F       		.uleb128 0xf
 13382 13c4 460F0000 		.4byte	.LVL251
 13383 13c8 EA3F0000 		.4byte	0x3fea
 13384 13cc DE130000 		.4byte	0x13de
 13385 13d0 10       		.uleb128 0x10
 13386 13d1 01       		.uleb128 0x1
 13387 13d2 51       		.byte	0x51
 13388 13d3 02       		.uleb128 0x2
 13389 13d4 91       		.byte	0x91
 13390 13d5 54       		.sleb128 -44
 13391 13d6 10       		.uleb128 0x10
 13392 13d7 01       		.uleb128 0x1
 13393 13d8 50       		.byte	0x50
 13394 13d9 03       		.uleb128 0x3
 13395 13da 0A       		.byte	0xa
 13396 13db 0001     		.2byte	0x100
 13397 13dd 00       		.byte	0
 13398 13de 0F       		.uleb128 0xf
 13399 13df 500F0000 		.4byte	.LVL252
 13400 13e3 EA3F0000 		.4byte	0x3fea
 13401 13e7 FC130000 		.4byte	0x13fc
 13402 13eb 10       		.uleb128 0x10
 13403 13ec 01       		.uleb128 0x1
 13404 13ed 51       		.byte	0x51
 13405 13ee 05       		.uleb128 0x5
 13406 13ef 03       		.byte	0x3
 13407 13f0 00000000 		.4byte	resultado
 13408 13f4 10       		.uleb128 0x10
 13409 13f5 01       		.uleb128 0x1
 13410 13f6 50       		.byte	0x50
 13411 13f7 03       		.uleb128 0x3
 13412 13f8 0A       		.byte	0xa
 13413 13f9 0D02     		.2byte	0x20d
 13414 13fb 00       		.byte	0
 13415 13fc 0F       		.uleb128 0xf
 13416 13fd 5C0F0000 		.4byte	.LVL253
 13417 1401 EA3F0000 		.4byte	0x3fea
 13418 1405 17140000 		.4byte	0x1417
 13419 1409 10       		.uleb128 0x10
 13420 140a 01       		.uleb128 0x1
 13421 140b 51       		.byte	0x51
 13422 140c 02       		.uleb128 0x2
 13423 140d 91       		.byte	0x91
 13424 140e 54       		.sleb128 -44
 13425 140f 10       		.uleb128 0x10
 13426 1410 01       		.uleb128 0x1
 13427 1411 50       		.byte	0x50
ARM GAS  C:\Users\diego\AppData\Local\Temp\ccvEcbYb.s 			page 280


 13428 1412 03       		.uleb128 0x3
 13429 1413 0A       		.byte	0xa
 13430 1414 5901     		.2byte	0x159
 13431 1416 00       		.byte	0
 13432 1417 0F       		.uleb128 0xf
 13433 1418 660F0000 		.4byte	.LVL254
 13434 141c EA3F0000 		.4byte	0x3fea
 13435 1420 35140000 		.4byte	0x1435
 13436 1424 10       		.uleb128 0x10
 13437 1425 01       		.uleb128 0x1
 13438 1426 51       		.byte	0x51
 13439 1427 05       		.uleb128 0x5
 13440 1428 03       		.byte	0x3
 13441 1429 00000000 		.4byte	resultado
 13442 142d 10       		.uleb128 0x10
 13443 142e 01       		.uleb128 0x1
 13444 142f 50       		.byte	0x50
 13445 1430 03       		.uleb128 0x3
 13446 1431 0A       		.byte	0xa
 13447 1432 4D02     		.2byte	0x24d
 13448 1434 00       		.byte	0
 13449 1435 0F       		.uleb128 0xf
 13450 1436 AA0F0000 		.4byte	.LVL255
 13451 143a 04400000 		.4byte	0x4004
 13452 143e 49140000 		.4byte	0x1449
 13453 1442 10       		.uleb128 0x10
 13454 1443 01       		.uleb128 0x1
 13455 1444 50       		.byte	0x50
 13456 1445 02       		.uleb128 0x2
 13457 1446 74       		.byte	0x74
 13458 1447 00       		.sleb128 0
 13459 1448 00       		.byte	0
 13460 1449 0F       		.uleb128 0xf
 13461 144a C20F0000 		.4byte	.LVL256
 13462 144e 04400000 		.4byte	0x4004
 13463 1452 62140000 		.4byte	0x1462
 13464 1456 10       		.uleb128 0x10
 13465 1457 01       		.uleb128 0x1
 13466 1458 51       		.byte	0x51
 13467 1459 01       		.uleb128 0x1
 13468 145a 3A       		.byte	0x3a
 13469 145b 10       		.uleb128 0x10
 13470 145c 01       		.uleb128 0x1
 13471 145d 50       		.byte	0x50
 13472 145e 02       		.uleb128 0x2
 13473 145f 74       		.byte	0x74
 13474 1460 00       		.sleb128 0
 13475 1461 00       		.byte	0
 13476 1462 0F       		.uleb128 0xf
 13477 1463 D40F0000 		.4byte	.LVL257
 13478 1467 04400000 		.4byte	0x4004
 13479 146b 76140000 		.4byte	0x1476
 13480 146f 10       		.uleb128 0x10
 13481 1470 01       		.uleb128 0x1
 13482 1471 50       		.byte	0x50
 13483 1472 02       		.uleb128 0x2
 13484 1473 74       		.byte	0x74
ARM GAS  C:\Users\diego\AppData\Local\Temp\ccvEcbYb.s 			page 281


 13485 1474 00       		.sleb128 0
 13486 1475 00       		.byte	0
 13487 1476 0F       		.uleb128 0xf
 13488 1477 EC0F0000 		.4byte	.LVL258
 13489 147b 04400000 		.4byte	0x4004
 13490 147f 8F140000 		.4byte	0x148f
 13491 1483 10       		.uleb128 0x10
 13492 1484 01       		.uleb128 0x1
 13493 1485 51       		.byte	0x51
 13494 1486 01       		.uleb128 0x1
 13495 1487 3A       		.byte	0x3a
 13496 1488 10       		.uleb128 0x10
 13497 1489 01       		.uleb128 0x1
 13498 148a 50       		.byte	0x50
 13499 148b 02       		.uleb128 0x2
 13500 148c 74       		.byte	0x74
 13501 148d 00       		.sleb128 0
 13502 148e 00       		.byte	0
 13503 148f 0F       		.uleb128 0xf
 13504 1490 00100000 		.4byte	.LVL259
 13505 1494 04400000 		.4byte	0x4004
 13506 1498 A3140000 		.4byte	0x14a3
 13507 149c 10       		.uleb128 0x10
 13508 149d 01       		.uleb128 0x1
 13509 149e 50       		.byte	0x50
 13510 149f 02       		.uleb128 0x2
 13511 14a0 74       		.byte	0x74
 13512 14a1 00       		.sleb128 0
 13513 14a2 00       		.byte	0
 13514 14a3 0F       		.uleb128 0xf
 13515 14a4 18100000 		.4byte	.LVL260
 13516 14a8 04400000 		.4byte	0x4004
 13517 14ac BC140000 		.4byte	0x14bc
 13518 14b0 10       		.uleb128 0x10
 13519 14b1 01       		.uleb128 0x1
 13520 14b2 51       		.byte	0x51
 13521 14b3 01       		.uleb128 0x1
 13522 14b4 3A       		.byte	0x3a
 13523 14b5 10       		.uleb128 0x10
 13524 14b6 01       		.uleb128 0x1
 13525 14b7 50       		.byte	0x50
 13526 14b8 02       		.uleb128 0x2
 13527 14b9 74       		.byte	0x74
 13528 14ba 00       		.sleb128 0
 13529 14bb 00       		.byte	0
 13530 14bc 0F       		.uleb128 0xf
 13531 14bd 20100000 		.4byte	.LVL261
 13532 14c1 1E400000 		.4byte	0x401e
 13533 14c5 D5140000 		.4byte	0x14d5
 13534 14c9 10       		.uleb128 0x10
 13535 14ca 01       		.uleb128 0x1
 13536 14cb 51       		.byte	0x51
 13537 14cc 02       		.uleb128 0x2
 13538 14cd 74       		.byte	0x74
 13539 14ce 00       		.sleb128 0
 13540 14cf 10       		.uleb128 0x10
 13541 14d0 01       		.uleb128 0x1
ARM GAS  C:\Users\diego\AppData\Local\Temp\ccvEcbYb.s 			page 282


 13542 14d1 50       		.byte	0x50
 13543 14d2 01       		.uleb128 0x1
 13544 14d3 38       		.byte	0x38
 13545 14d4 00       		.byte	0
 13546 14d5 0F       		.uleb128 0xf
 13547 14d6 34100000 		.4byte	.LVL262
 13548 14da 04400000 		.4byte	0x4004
 13549 14de E9140000 		.4byte	0x14e9
 13550 14e2 10       		.uleb128 0x10
 13551 14e3 01       		.uleb128 0x1
 13552 14e4 50       		.byte	0x50
 13553 14e5 02       		.uleb128 0x2
 13554 14e6 74       		.byte	0x74
 13555 14e7 00       		.sleb128 0
 13556 14e8 00       		.byte	0
 13557 14e9 0F       		.uleb128 0xf
 13558 14ea 4C100000 		.4byte	.LVL263
 13559 14ee 04400000 		.4byte	0x4004
 13560 14f2 02150000 		.4byte	0x1502
 13561 14f6 10       		.uleb128 0x10
 13562 14f7 01       		.uleb128 0x1
 13563 14f8 51       		.byte	0x51
 13564 14f9 01       		.uleb128 0x1
 13565 14fa 3A       		.byte	0x3a
 13566 14fb 10       		.uleb128 0x10
 13567 14fc 01       		.uleb128 0x1
 13568 14fd 50       		.byte	0x50
 13569 14fe 02       		.uleb128 0x2
 13570 14ff 74       		.byte	0x74
 13571 1500 00       		.sleb128 0
 13572 1501 00       		.byte	0
 13573 1502 0F       		.uleb128 0xf
 13574 1503 5E100000 		.4byte	.LVL264
 13575 1507 34400000 		.4byte	0x4034
 13576 150b 1C150000 		.4byte	0x151c
 13577 150f 10       		.uleb128 0x10
 13578 1510 01       		.uleb128 0x1
 13579 1511 51       		.byte	0x51
 13580 1512 01       		.uleb128 0x1
 13581 1513 49       		.byte	0x49
 13582 1514 10       		.uleb128 0x10
 13583 1515 01       		.uleb128 0x1
 13584 1516 50       		.byte	0x50
 13585 1517 03       		.uleb128 0x3
 13586 1518 0A       		.byte	0xa
 13587 1519 4804     		.2byte	0x448
 13588 151b 00       		.byte	0
 13589 151c 0F       		.uleb128 0xf
 13590 151d 6A100000 		.4byte	.LVL265
 13591 1521 34400000 		.4byte	0x4034
 13592 1525 36150000 		.4byte	0x1536
 13593 1529 10       		.uleb128 0x10
 13594 152a 01       		.uleb128 0x1
 13595 152b 51       		.byte	0x51
 13596 152c 01       		.uleb128 0x1
 13597 152d 49       		.byte	0x49
 13598 152e 10       		.uleb128 0x10
ARM GAS  C:\Users\diego\AppData\Local\Temp\ccvEcbYb.s 			page 283


 13599 152f 01       		.uleb128 0x1
 13600 1530 50       		.byte	0x50
 13601 1531 03       		.uleb128 0x3
 13602 1532 0A       		.byte	0xa
 13603 1533 1E04     		.2byte	0x41e
 13604 1535 00       		.byte	0
 13605 1536 0F       		.uleb128 0xf
 13606 1537 70100000 		.4byte	.LVL266
 13607 153b 4E400000 		.4byte	0x404e
 13608 153f 4A150000 		.4byte	0x154a
 13609 1543 10       		.uleb128 0x10
 13610 1544 01       		.uleb128 0x1
 13611 1545 50       		.byte	0x50
 13612 1546 02       		.uleb128 0x2
 13613 1547 74       		.byte	0x74
 13614 1548 00       		.sleb128 0
 13615 1549 00       		.byte	0
 13616 154a 0F       		.uleb128 0xf
 13617 154b B2100000 		.4byte	.LVL267
 13618 154f 5F400000 		.4byte	0x405f
 13619 1553 6A150000 		.4byte	0x156a
 13620 1557 10       		.uleb128 0x10
 13621 1558 01       		.uleb128 0x1
 13622 1559 52       		.byte	0x52
 13623 155a 03       		.uleb128 0x3
 13624 155b 91       		.byte	0x91
 13625 155c B47F     		.sleb128 -76
 13626 155e 10       		.uleb128 0x10
 13627 155f 01       		.uleb128 0x1
 13628 1560 51       		.byte	0x51
 13629 1561 02       		.uleb128 0x2
 13630 1562 91       		.byte	0x91
 13631 1563 44       		.sleb128 -60
 13632 1564 10       		.uleb128 0x10
 13633 1565 01       		.uleb128 0x1
 13634 1566 50       		.byte	0x50
 13635 1567 01       		.uleb128 0x1
 13636 1568 32       		.byte	0x32
 13637 1569 00       		.byte	0
 13638 156a 0F       		.uleb128 0xf
 13639 156b C8100000 		.4byte	.LVL268
 13640 156f 04400000 		.4byte	0x4004
 13641 1573 7E150000 		.4byte	0x157e
 13642 1577 10       		.uleb128 0x10
 13643 1578 01       		.uleb128 0x1
 13644 1579 50       		.byte	0x50
 13645 157a 02       		.uleb128 0x2
 13646 157b 74       		.byte	0x74
 13647 157c 00       		.sleb128 0
 13648 157d 00       		.byte	0
 13649 157e 0F       		.uleb128 0xf
 13650 157f E0100000 		.4byte	.LVL269
 13651 1583 7A400000 		.4byte	0x407a
 13652 1587 9B150000 		.4byte	0x159b
 13653 158b 10       		.uleb128 0x10
 13654 158c 01       		.uleb128 0x1
 13655 158d 51       		.byte	0x51
ARM GAS  C:\Users\diego\AppData\Local\Temp\ccvEcbYb.s 			page 284


 13656 158e 02       		.uleb128 0x2
 13657 158f 74       		.byte	0x74
 13658 1590 00       		.sleb128 0
 13659 1591 10       		.uleb128 0x10
 13660 1592 01       		.uleb128 0x1
 13661 1593 50       		.byte	0x50
 13662 1594 05       		.uleb128 0x5
 13663 1595 03       		.byte	0x3
 13664 1596 00000000 		.4byte	resultado
 13665 159a 00       		.byte	0
 13666 159b 0F       		.uleb128 0xf
 13667 159c F2100000 		.4byte	.LVL270
 13668 15a0 EA3F0000 		.4byte	0x3fea
 13669 15a4 B6150000 		.4byte	0x15b6
 13670 15a8 10       		.uleb128 0x10
 13671 15a9 01       		.uleb128 0x1
 13672 15aa 51       		.byte	0x51
 13673 15ab 02       		.uleb128 0x2
 13674 15ac 91       		.byte	0x91
 13675 15ad 54       		.sleb128 -44
 13676 15ae 10       		.uleb128 0x10
 13677 15af 01       		.uleb128 0x1
 13678 15b0 50       		.byte	0x50
 13679 15b1 03       		.uleb128 0x3
 13680 15b2 0A       		.byte	0xa
 13681 15b3 4804     		.2byte	0x448
 13682 15b5 00       		.byte	0
 13683 15b6 0F       		.uleb128 0xf
 13684 15b7 FC100000 		.4byte	.LVL271
 13685 15bb EA3F0000 		.4byte	0x3fea
 13686 15bf D4150000 		.4byte	0x15d4
 13687 15c3 10       		.uleb128 0x10
 13688 15c4 01       		.uleb128 0x1
 13689 15c5 51       		.byte	0x51
 13690 15c6 05       		.uleb128 0x5
 13691 15c7 03       		.byte	0x3
 13692 15c8 00000000 		.4byte	resultado
 13693 15cc 10       		.uleb128 0x10
 13694 15cd 01       		.uleb128 0x1
 13695 15ce 50       		.byte	0x50
 13696 15cf 03       		.uleb128 0x3
 13697 15d0 0A       		.byte	0xa
 13698 15d1 0E04     		.2byte	0x40e
 13699 15d3 00       		.byte	0
 13700 15d4 0F       		.uleb128 0xf
 13701 15d5 08110000 		.4byte	.LVL272
 13702 15d9 EA3F0000 		.4byte	0x3fea
 13703 15dd EF150000 		.4byte	0x15ef
 13704 15e1 10       		.uleb128 0x10
 13705 15e2 01       		.uleb128 0x1
 13706 15e3 51       		.byte	0x51
 13707 15e4 02       		.uleb128 0x2
 13708 15e5 91       		.byte	0x91
 13709 15e6 54       		.sleb128 -44
 13710 15e7 10       		.uleb128 0x10
 13711 15e8 01       		.uleb128 0x1
 13712 15e9 50       		.byte	0x50
ARM GAS  C:\Users\diego\AppData\Local\Temp\ccvEcbYb.s 			page 285


 13713 15ea 03       		.uleb128 0x3
 13714 15eb 0A       		.byte	0xa
 13715 15ec 1E04     		.2byte	0x41e
 13716 15ee 00       		.byte	0
 13717 15ef 0F       		.uleb128 0xf
 13718 15f0 12110000 		.4byte	.LVL273
 13719 15f4 EA3F0000 		.4byte	0x3fea
 13720 15f8 0D160000 		.4byte	0x160d
 13721 15fc 10       		.uleb128 0x10
 13722 15fd 01       		.uleb128 0x1
 13723 15fe 51       		.byte	0x51
 13724 15ff 05       		.uleb128 0x5
 13725 1600 03       		.byte	0x3
 13726 1601 00000000 		.4byte	resultado
 13727 1605 10       		.uleb128 0x10
 13728 1606 01       		.uleb128 0x1
 13729 1607 50       		.byte	0x50
 13730 1608 03       		.uleb128 0x3
 13731 1609 0A       		.byte	0xa
 13732 160a 3904     		.2byte	0x439
 13733 160c 00       		.byte	0
 13734 160d 11       		.uleb128 0x11
 13735 160e 28110000 		.4byte	.LVL274
 13736 1612 D83F0000 		.4byte	0x3fd8
 13737 1616 0F       		.uleb128 0xf
 13738 1617 AE120000 		.4byte	.LVL277
 13739 161b 04400000 		.4byte	0x4004
 13740 161f 2A160000 		.4byte	0x162a
 13741 1623 10       		.uleb128 0x10
 13742 1624 01       		.uleb128 0x1
 13743 1625 50       		.byte	0x50
 13744 1626 02       		.uleb128 0x2
 13745 1627 74       		.byte	0x74
 13746 1628 00       		.sleb128 0
 13747 1629 00       		.byte	0
 13748 162a 0F       		.uleb128 0xf
 13749 162b C6120000 		.4byte	.LVL278
 13750 162f 04400000 		.4byte	0x4004
 13751 1633 43160000 		.4byte	0x1643
 13752 1637 10       		.uleb128 0x10
 13753 1638 01       		.uleb128 0x1
 13754 1639 51       		.byte	0x51
 13755 163a 01       		.uleb128 0x1
 13756 163b 3A       		.byte	0x3a
 13757 163c 10       		.uleb128 0x10
 13758 163d 01       		.uleb128 0x1
 13759 163e 50       		.byte	0x50
 13760 163f 02       		.uleb128 0x2
 13761 1640 74       		.byte	0x74
 13762 1641 00       		.sleb128 0
 13763 1642 00       		.byte	0
 13764 1643 0F       		.uleb128 0xf
 13765 1644 D8120000 		.4byte	.LVL279
 13766 1648 04400000 		.4byte	0x4004
 13767 164c 57160000 		.4byte	0x1657
 13768 1650 10       		.uleb128 0x10
 13769 1651 01       		.uleb128 0x1
ARM GAS  C:\Users\diego\AppData\Local\Temp\ccvEcbYb.s 			page 286


 13770 1652 50       		.byte	0x50
 13771 1653 02       		.uleb128 0x2
 13772 1654 74       		.byte	0x74
 13773 1655 00       		.sleb128 0
 13774 1656 00       		.byte	0
 13775 1657 0F       		.uleb128 0xf
 13776 1658 F0120000 		.4byte	.LVL280
 13777 165c 04400000 		.4byte	0x4004
 13778 1660 70160000 		.4byte	0x1670
 13779 1664 10       		.uleb128 0x10
 13780 1665 01       		.uleb128 0x1
 13781 1666 51       		.byte	0x51
 13782 1667 01       		.uleb128 0x1
 13783 1668 3A       		.byte	0x3a
 13784 1669 10       		.uleb128 0x10
 13785 166a 01       		.uleb128 0x1
 13786 166b 50       		.byte	0x50
 13787 166c 02       		.uleb128 0x2
 13788 166d 74       		.byte	0x74
 13789 166e 00       		.sleb128 0
 13790 166f 00       		.byte	0
 13791 1670 0F       		.uleb128 0xf
 13792 1671 04130000 		.4byte	.LVL281
 13793 1675 04400000 		.4byte	0x4004
 13794 1679 84160000 		.4byte	0x1684
 13795 167d 10       		.uleb128 0x10
 13796 167e 01       		.uleb128 0x1
 13797 167f 50       		.byte	0x50
 13798 1680 02       		.uleb128 0x2
 13799 1681 74       		.byte	0x74
 13800 1682 00       		.sleb128 0
 13801 1683 00       		.byte	0
 13802 1684 0F       		.uleb128 0xf
 13803 1685 1C130000 		.4byte	.LVL282
 13804 1689 04400000 		.4byte	0x4004
 13805 168d 9D160000 		.4byte	0x169d
 13806 1691 10       		.uleb128 0x10
 13807 1692 01       		.uleb128 0x1
 13808 1693 51       		.byte	0x51
 13809 1694 01       		.uleb128 0x1
 13810 1695 3A       		.byte	0x3a
 13811 1696 10       		.uleb128 0x10
 13812 1697 01       		.uleb128 0x1
 13813 1698 50       		.byte	0x50
 13814 1699 02       		.uleb128 0x2
 13815 169a 74       		.byte	0x74
 13816 169b 00       		.sleb128 0
 13817 169c 00       		.byte	0
 13818 169d 0F       		.uleb128 0xf
 13819 169e 24130000 		.4byte	.LVL283
 13820 16a2 1E400000 		.4byte	0x401e
 13821 16a6 B6160000 		.4byte	0x16b6
 13822 16aa 10       		.uleb128 0x10
 13823 16ab 01       		.uleb128 0x1
 13824 16ac 51       		.byte	0x51
 13825 16ad 02       		.uleb128 0x2
 13826 16ae 74       		.byte	0x74
ARM GAS  C:\Users\diego\AppData\Local\Temp\ccvEcbYb.s 			page 287


 13827 16af 00       		.sleb128 0
 13828 16b0 10       		.uleb128 0x10
 13829 16b1 01       		.uleb128 0x1
 13830 16b2 50       		.byte	0x50
 13831 16b3 01       		.uleb128 0x1
 13832 16b4 38       		.byte	0x38
 13833 16b5 00       		.byte	0
 13834 16b6 0F       		.uleb128 0xf
 13835 16b7 38130000 		.4byte	.LVL284
 13836 16bb 04400000 		.4byte	0x4004
 13837 16bf CA160000 		.4byte	0x16ca
 13838 16c3 10       		.uleb128 0x10
 13839 16c4 01       		.uleb128 0x1
 13840 16c5 50       		.byte	0x50
 13841 16c6 02       		.uleb128 0x2
 13842 16c7 74       		.byte	0x74
 13843 16c8 00       		.sleb128 0
 13844 16c9 00       		.byte	0
 13845 16ca 0F       		.uleb128 0xf
 13846 16cb 50130000 		.4byte	.LVL285
 13847 16cf 04400000 		.4byte	0x4004
 13848 16d3 E3160000 		.4byte	0x16e3
 13849 16d7 10       		.uleb128 0x10
 13850 16d8 01       		.uleb128 0x1
 13851 16d9 51       		.byte	0x51
 13852 16da 01       		.uleb128 0x1
 13853 16db 3A       		.byte	0x3a
 13854 16dc 10       		.uleb128 0x10
 13855 16dd 01       		.uleb128 0x1
 13856 16de 50       		.byte	0x50
 13857 16df 02       		.uleb128 0x2
 13858 16e0 74       		.byte	0x74
 13859 16e1 00       		.sleb128 0
 13860 16e2 00       		.byte	0
 13861 16e3 0F       		.uleb128 0xf
 13862 16e4 60130000 		.4byte	.LVL286
 13863 16e8 34400000 		.4byte	0x4034
 13864 16ec FC160000 		.4byte	0x16fc
 13865 16f0 10       		.uleb128 0x10
 13866 16f1 01       		.uleb128 0x1
 13867 16f2 51       		.byte	0x51
 13868 16f3 01       		.uleb128 0x1
 13869 16f4 49       		.byte	0x49
 13870 16f5 10       		.uleb128 0x10
 13871 16f6 01       		.uleb128 0x1
 13872 16f7 50       		.byte	0x50
 13873 16f8 02       		.uleb128 0x2
 13874 16f9 08       		.byte	0x8
 13875 16fa C0       		.byte	0xc0
 13876 16fb 00       		.byte	0
 13877 16fc 0F       		.uleb128 0xf
 13878 16fd 6C130000 		.4byte	.LVL287
 13879 1701 34400000 		.4byte	0x4034
 13880 1705 16170000 		.4byte	0x1716
 13881 1709 10       		.uleb128 0x10
 13882 170a 01       		.uleb128 0x1
 13883 170b 51       		.byte	0x51
ARM GAS  C:\Users\diego\AppData\Local\Temp\ccvEcbYb.s 			page 288


 13884 170c 01       		.uleb128 0x1
 13885 170d 49       		.byte	0x49
 13886 170e 10       		.uleb128 0x10
 13887 170f 01       		.uleb128 0x1
 13888 1710 50       		.byte	0x50
 13889 1711 03       		.uleb128 0x3
 13890 1712 0A       		.byte	0xa
 13891 1713 1901     		.2byte	0x119
 13892 1715 00       		.byte	0
 13893 1716 0F       		.uleb128 0xf
 13894 1717 72130000 		.4byte	.LVL288
 13895 171b 4E400000 		.4byte	0x404e
 13896 171f 2A170000 		.4byte	0x172a
 13897 1723 10       		.uleb128 0x10
 13898 1724 01       		.uleb128 0x1
 13899 1725 50       		.byte	0x50
 13900 1726 02       		.uleb128 0x2
 13901 1727 74       		.byte	0x74
 13902 1728 00       		.sleb128 0
 13903 1729 00       		.byte	0
 13904 172a 0F       		.uleb128 0xf
 13905 172b B4130000 		.4byte	.LVL289
 13906 172f 5F400000 		.4byte	0x405f
 13907 1733 4A170000 		.4byte	0x174a
 13908 1737 10       		.uleb128 0x10
 13909 1738 01       		.uleb128 0x1
 13910 1739 52       		.byte	0x52
 13911 173a 03       		.uleb128 0x3
 13912 173b 91       		.byte	0x91
 13913 173c B47F     		.sleb128 -76
 13914 173e 10       		.uleb128 0x10
 13915 173f 01       		.uleb128 0x1
 13916 1740 51       		.byte	0x51
 13917 1741 02       		.uleb128 0x2
 13918 1742 91       		.byte	0x91
 13919 1743 44       		.sleb128 -60
 13920 1744 10       		.uleb128 0x10
 13921 1745 01       		.uleb128 0x1
 13922 1746 50       		.byte	0x50
 13923 1747 01       		.uleb128 0x1
 13924 1748 32       		.byte	0x32
 13925 1749 00       		.byte	0
 13926 174a 0F       		.uleb128 0xf
 13927 174b CA130000 		.4byte	.LVL290
 13928 174f 04400000 		.4byte	0x4004
 13929 1753 5E170000 		.4byte	0x175e
 13930 1757 10       		.uleb128 0x10
 13931 1758 01       		.uleb128 0x1
 13932 1759 50       		.byte	0x50
 13933 175a 02       		.uleb128 0x2
 13934 175b 74       		.byte	0x74
 13935 175c 00       		.sleb128 0
 13936 175d 00       		.byte	0
 13937 175e 0F       		.uleb128 0xf
 13938 175f E2130000 		.4byte	.LVL291
 13939 1763 7A400000 		.4byte	0x407a
 13940 1767 7B170000 		.4byte	0x177b
ARM GAS  C:\Users\diego\AppData\Local\Temp\ccvEcbYb.s 			page 289


 13941 176b 10       		.uleb128 0x10
 13942 176c 01       		.uleb128 0x1
 13943 176d 51       		.byte	0x51
 13944 176e 02       		.uleb128 0x2
 13945 176f 74       		.byte	0x74
 13946 1770 00       		.sleb128 0
 13947 1771 10       		.uleb128 0x10
 13948 1772 01       		.uleb128 0x1
 13949 1773 50       		.byte	0x50
 13950 1774 05       		.uleb128 0x5
 13951 1775 03       		.byte	0x3
 13952 1776 00000000 		.4byte	resultado
 13953 177a 00       		.byte	0
 13954 177b 0F       		.uleb128 0xf
 13955 177c F2130000 		.4byte	.LVL292
 13956 1780 EA3F0000 		.4byte	0x3fea
 13957 1784 95170000 		.4byte	0x1795
 13958 1788 10       		.uleb128 0x10
 13959 1789 01       		.uleb128 0x1
 13960 178a 51       		.byte	0x51
 13961 178b 02       		.uleb128 0x2
 13962 178c 91       		.byte	0x91
 13963 178d 54       		.sleb128 -44
 13964 178e 10       		.uleb128 0x10
 13965 178f 01       		.uleb128 0x1
 13966 1790 50       		.byte	0x50
 13967 1791 02       		.uleb128 0x2
 13968 1792 08       		.byte	0x8
 13969 1793 C0       		.byte	0xc0
 13970 1794 00       		.byte	0
 13971 1795 0F       		.uleb128 0xf
 13972 1796 FC130000 		.4byte	.LVL293
 13973 179a EA3F0000 		.4byte	0x3fea
 13974 179e B3170000 		.4byte	0x17b3
 13975 17a2 10       		.uleb128 0x10
 13976 17a3 01       		.uleb128 0x1
 13977 17a4 51       		.byte	0x51
 13978 17a5 05       		.uleb128 0x5
 13979 17a6 03       		.byte	0x3
 13980 17a7 00000000 		.4byte	resultado
 13981 17ab 10       		.uleb128 0x10
 13982 17ac 01       		.uleb128 0x1
 13983 17ad 50       		.byte	0x50
 13984 17ae 03       		.uleb128 0x3
 13985 17af 0A       		.byte	0xa
 13986 17b0 0002     		.2byte	0x200
 13987 17b2 00       		.byte	0
 13988 17b3 0F       		.uleb128 0xf
 13989 17b4 4E140000 		.4byte	.LVL294
 13990 17b8 EA3F0000 		.4byte	0x3fea
 13991 17bc CE170000 		.4byte	0x17ce
 13992 17c0 10       		.uleb128 0x10
 13993 17c1 01       		.uleb128 0x1
 13994 17c2 51       		.byte	0x51
 13995 17c3 02       		.uleb128 0x2
 13996 17c4 91       		.byte	0x91
 13997 17c5 54       		.sleb128 -44
ARM GAS  C:\Users\diego\AppData\Local\Temp\ccvEcbYb.s 			page 290


 13998 17c6 10       		.uleb128 0x10
 13999 17c7 01       		.uleb128 0x1
 14000 17c8 50       		.byte	0x50
 14001 17c9 03       		.uleb128 0x3
 14002 17ca 0A       		.byte	0xa
 14003 17cb 1901     		.2byte	0x119
 14004 17cd 00       		.byte	0
 14005 17ce 0F       		.uleb128 0xf
 14006 17cf 58140000 		.4byte	.LVL295
 14007 17d3 EA3F0000 		.4byte	0x3fea
 14008 17d7 EC170000 		.4byte	0x17ec
 14009 17db 10       		.uleb128 0x10
 14010 17dc 01       		.uleb128 0x1
 14011 17dd 51       		.byte	0x51
 14012 17de 05       		.uleb128 0x5
 14013 17df 03       		.byte	0x3
 14014 17e0 00000000 		.4byte	resultado
 14015 17e4 10       		.uleb128 0x10
 14016 17e5 01       		.uleb128 0x1
 14017 17e6 50       		.byte	0x50
 14018 17e7 03       		.uleb128 0x3
 14019 17e8 0A       		.byte	0xa
 14020 17e9 2702     		.2byte	0x227
 14021 17eb 00       		.byte	0
 14022 17ec 0F       		.uleb128 0xf
 14023 17ed B4140000 		.4byte	.LVL296
 14024 17f1 04400000 		.4byte	0x4004
 14025 17f5 00180000 		.4byte	0x1800
 14026 17f9 10       		.uleb128 0x10
 14027 17fa 01       		.uleb128 0x1
 14028 17fb 50       		.byte	0x50
 14029 17fc 02       		.uleb128 0x2
 14030 17fd 74       		.byte	0x74
 14031 17fe 00       		.sleb128 0
 14032 17ff 00       		.byte	0
 14033 1800 0F       		.uleb128 0xf
 14034 1801 CC140000 		.4byte	.LVL297
 14035 1805 04400000 		.4byte	0x4004
 14036 1809 19180000 		.4byte	0x1819
 14037 180d 10       		.uleb128 0x10
 14038 180e 01       		.uleb128 0x1
 14039 180f 51       		.byte	0x51
 14040 1810 01       		.uleb128 0x1
 14041 1811 3A       		.byte	0x3a
 14042 1812 10       		.uleb128 0x10
 14043 1813 01       		.uleb128 0x1
 14044 1814 50       		.byte	0x50
 14045 1815 02       		.uleb128 0x2
 14046 1816 74       		.byte	0x74
 14047 1817 00       		.sleb128 0
 14048 1818 00       		.byte	0
 14049 1819 0F       		.uleb128 0xf
 14050 181a DE140000 		.4byte	.LVL298
 14051 181e 04400000 		.4byte	0x4004
 14052 1822 2D180000 		.4byte	0x182d
 14053 1826 10       		.uleb128 0x10
 14054 1827 01       		.uleb128 0x1
ARM GAS  C:\Users\diego\AppData\Local\Temp\ccvEcbYb.s 			page 291


 14055 1828 50       		.byte	0x50
 14056 1829 02       		.uleb128 0x2
 14057 182a 74       		.byte	0x74
 14058 182b 00       		.sleb128 0
 14059 182c 00       		.byte	0
 14060 182d 0F       		.uleb128 0xf
 14061 182e F6140000 		.4byte	.LVL299
 14062 1832 04400000 		.4byte	0x4004
 14063 1836 46180000 		.4byte	0x1846
 14064 183a 10       		.uleb128 0x10
 14065 183b 01       		.uleb128 0x1
 14066 183c 51       		.byte	0x51
 14067 183d 01       		.uleb128 0x1
 14068 183e 3A       		.byte	0x3a
 14069 183f 10       		.uleb128 0x10
 14070 1840 01       		.uleb128 0x1
 14071 1841 50       		.byte	0x50
 14072 1842 02       		.uleb128 0x2
 14073 1843 74       		.byte	0x74
 14074 1844 00       		.sleb128 0
 14075 1845 00       		.byte	0
 14076 1846 0F       		.uleb128 0xf
 14077 1847 0A150000 		.4byte	.LVL300
 14078 184b 04400000 		.4byte	0x4004
 14079 184f 5A180000 		.4byte	0x185a
 14080 1853 10       		.uleb128 0x10
 14081 1854 01       		.uleb128 0x1
 14082 1855 50       		.byte	0x50
 14083 1856 02       		.uleb128 0x2
 14084 1857 74       		.byte	0x74
 14085 1858 00       		.sleb128 0
 14086 1859 00       		.byte	0
 14087 185a 0F       		.uleb128 0xf
 14088 185b 22150000 		.4byte	.LVL301
 14089 185f 04400000 		.4byte	0x4004
 14090 1863 73180000 		.4byte	0x1873
 14091 1867 10       		.uleb128 0x10
 14092 1868 01       		.uleb128 0x1
 14093 1869 51       		.byte	0x51
 14094 186a 01       		.uleb128 0x1
 14095 186b 3A       		.byte	0x3a
 14096 186c 10       		.uleb128 0x10
 14097 186d 01       		.uleb128 0x1
 14098 186e 50       		.byte	0x50
 14099 186f 02       		.uleb128 0x2
 14100 1870 74       		.byte	0x74
 14101 1871 00       		.sleb128 0
 14102 1872 00       		.byte	0
 14103 1873 0F       		.uleb128 0xf
 14104 1874 2A150000 		.4byte	.LVL302
 14105 1878 1E400000 		.4byte	0x401e
 14106 187c 8C180000 		.4byte	0x188c
 14107 1880 10       		.uleb128 0x10
 14108 1881 01       		.uleb128 0x1
 14109 1882 51       		.byte	0x51
 14110 1883 02       		.uleb128 0x2
 14111 1884 74       		.byte	0x74
ARM GAS  C:\Users\diego\AppData\Local\Temp\ccvEcbYb.s 			page 292


 14112 1885 00       		.sleb128 0
 14113 1886 10       		.uleb128 0x10
 14114 1887 01       		.uleb128 0x1
 14115 1888 50       		.byte	0x50
 14116 1889 01       		.uleb128 0x1
 14117 188a 38       		.byte	0x38
 14118 188b 00       		.byte	0
 14119 188c 0F       		.uleb128 0xf
 14120 188d 3E150000 		.4byte	.LVL303
 14121 1891 04400000 		.4byte	0x4004
 14122 1895 A0180000 		.4byte	0x18a0
 14123 1899 10       		.uleb128 0x10
 14124 189a 01       		.uleb128 0x1
 14125 189b 50       		.byte	0x50
 14126 189c 02       		.uleb128 0x2
 14127 189d 74       		.byte	0x74
 14128 189e 00       		.sleb128 0
 14129 189f 00       		.byte	0
 14130 18a0 0F       		.uleb128 0xf
 14131 18a1 56150000 		.4byte	.LVL304
 14132 18a5 04400000 		.4byte	0x4004
 14133 18a9 B9180000 		.4byte	0x18b9
 14134 18ad 10       		.uleb128 0x10
 14135 18ae 01       		.uleb128 0x1
 14136 18af 51       		.byte	0x51
 14137 18b0 01       		.uleb128 0x1
 14138 18b1 3A       		.byte	0x3a
 14139 18b2 10       		.uleb128 0x10
 14140 18b3 01       		.uleb128 0x1
 14141 18b4 50       		.byte	0x50
 14142 18b5 02       		.uleb128 0x2
 14143 18b6 74       		.byte	0x74
 14144 18b7 00       		.sleb128 0
 14145 18b8 00       		.byte	0
 14146 18b9 0F       		.uleb128 0xf
 14147 18ba 66150000 		.4byte	.LVL305
 14148 18be 34400000 		.4byte	0x4034
 14149 18c2 D2180000 		.4byte	0x18d2
 14150 18c6 10       		.uleb128 0x10
 14151 18c7 01       		.uleb128 0x1
 14152 18c8 51       		.byte	0x51
 14153 18c9 01       		.uleb128 0x1
 14154 18ca 49       		.byte	0x49
 14155 18cb 10       		.uleb128 0x10
 14156 18cc 01       		.uleb128 0x1
 14157 18cd 50       		.byte	0x50
 14158 18ce 02       		.uleb128 0x2
 14159 18cf 08       		.byte	0x8
 14160 18d0 D9       		.byte	0xd9
 14161 18d1 00       		.byte	0
 14162 18d2 0F       		.uleb128 0xf
 14163 18d3 72150000 		.4byte	.LVL306
 14164 18d7 34400000 		.4byte	0x4034
 14165 18db EC180000 		.4byte	0x18ec
 14166 18df 10       		.uleb128 0x10
 14167 18e0 01       		.uleb128 0x1
 14168 18e1 51       		.byte	0x51
ARM GAS  C:\Users\diego\AppData\Local\Temp\ccvEcbYb.s 			page 293


 14169 18e2 01       		.uleb128 0x1
 14170 18e3 49       		.byte	0x49
 14171 18e4 10       		.uleb128 0x10
 14172 18e5 01       		.uleb128 0x1
 14173 18e6 50       		.byte	0x50
 14174 18e7 03       		.uleb128 0x3
 14175 18e8 0A       		.byte	0xa
 14176 18e9 4001     		.2byte	0x140
 14177 18eb 00       		.byte	0
 14178 18ec 0F       		.uleb128 0xf
 14179 18ed 78150000 		.4byte	.LVL307
 14180 18f1 4E400000 		.4byte	0x404e
 14181 18f5 00190000 		.4byte	0x1900
 14182 18f9 10       		.uleb128 0x10
 14183 18fa 01       		.uleb128 0x1
 14184 18fb 50       		.byte	0x50
 14185 18fc 02       		.uleb128 0x2
 14186 18fd 74       		.byte	0x74
 14187 18fe 00       		.sleb128 0
 14188 18ff 00       		.byte	0
 14189 1900 0F       		.uleb128 0xf
 14190 1901 BA150000 		.4byte	.LVL308
 14191 1905 5F400000 		.4byte	0x405f
 14192 1909 20190000 		.4byte	0x1920
 14193 190d 10       		.uleb128 0x10
 14194 190e 01       		.uleb128 0x1
 14195 190f 52       		.byte	0x52
 14196 1910 03       		.uleb128 0x3
 14197 1911 91       		.byte	0x91
 14198 1912 B47F     		.sleb128 -76
 14199 1914 10       		.uleb128 0x10
 14200 1915 01       		.uleb128 0x1
 14201 1916 51       		.byte	0x51
 14202 1917 02       		.uleb128 0x2
 14203 1918 91       		.byte	0x91
 14204 1919 44       		.sleb128 -60
 14205 191a 10       		.uleb128 0x10
 14206 191b 01       		.uleb128 0x1
 14207 191c 50       		.byte	0x50
 14208 191d 01       		.uleb128 0x1
 14209 191e 32       		.byte	0x32
 14210 191f 00       		.byte	0
 14211 1920 0F       		.uleb128 0xf
 14212 1921 D0150000 		.4byte	.LVL309
 14213 1925 04400000 		.4byte	0x4004
 14214 1929 34190000 		.4byte	0x1934
 14215 192d 10       		.uleb128 0x10
 14216 192e 01       		.uleb128 0x1
 14217 192f 50       		.byte	0x50
 14218 1930 02       		.uleb128 0x2
 14219 1931 74       		.byte	0x74
 14220 1932 00       		.sleb128 0
 14221 1933 00       		.byte	0
 14222 1934 0F       		.uleb128 0xf
 14223 1935 E8150000 		.4byte	.LVL310
 14224 1939 7A400000 		.4byte	0x407a
 14225 193d 51190000 		.4byte	0x1951
ARM GAS  C:\Users\diego\AppData\Local\Temp\ccvEcbYb.s 			page 294


 14226 1941 10       		.uleb128 0x10
 14227 1942 01       		.uleb128 0x1
 14228 1943 51       		.byte	0x51
 14229 1944 02       		.uleb128 0x2
 14230 1945 74       		.byte	0x74
 14231 1946 00       		.sleb128 0
 14232 1947 10       		.uleb128 0x10
 14233 1948 01       		.uleb128 0x1
 14234 1949 50       		.byte	0x50
 14235 194a 05       		.uleb128 0x5
 14236 194b 03       		.byte	0x3
 14237 194c 00000000 		.4byte	resultado
 14238 1950 00       		.byte	0
 14239 1951 0F       		.uleb128 0xf
 14240 1952 F8150000 		.4byte	.LVL311
 14241 1956 EA3F0000 		.4byte	0x3fea
 14242 195a 6B190000 		.4byte	0x196b
 14243 195e 10       		.uleb128 0x10
 14244 195f 01       		.uleb128 0x1
 14245 1960 51       		.byte	0x51
 14246 1961 02       		.uleb128 0x2
 14247 1962 91       		.byte	0x91
 14248 1963 54       		.sleb128 -44
 14249 1964 10       		.uleb128 0x10
 14250 1965 01       		.uleb128 0x1
 14251 1966 50       		.byte	0x50
 14252 1967 02       		.uleb128 0x2
 14253 1968 08       		.byte	0x8
 14254 1969 D9       		.byte	0xd9
 14255 196a 00       		.byte	0
 14256 196b 0F       		.uleb128 0xf
 14257 196c 02160000 		.4byte	.LVL312
 14258 1970 EA3F0000 		.4byte	0x3fea
 14259 1974 89190000 		.4byte	0x1989
 14260 1978 10       		.uleb128 0x10
 14261 1979 01       		.uleb128 0x1
 14262 197a 51       		.byte	0x51
 14263 197b 05       		.uleb128 0x5
 14264 197c 03       		.byte	0x3
 14265 197d 00000000 		.4byte	resultado
 14266 1981 10       		.uleb128 0x10
 14267 1982 01       		.uleb128 0x1
 14268 1983 50       		.byte	0x50
 14269 1984 03       		.uleb128 0x3
 14270 1985 0A       		.byte	0xa
 14271 1986 1A02     		.2byte	0x21a
 14272 1988 00       		.byte	0
 14273 1989 0F       		.uleb128 0xf
 14274 198a 0E160000 		.4byte	.LVL313
 14275 198e EA3F0000 		.4byte	0x3fea
 14276 1992 A4190000 		.4byte	0x19a4
 14277 1996 10       		.uleb128 0x10
 14278 1997 01       		.uleb128 0x1
 14279 1998 51       		.byte	0x51
 14280 1999 02       		.uleb128 0x2
 14281 199a 91       		.byte	0x91
 14282 199b 54       		.sleb128 -44
ARM GAS  C:\Users\diego\AppData\Local\Temp\ccvEcbYb.s 			page 295


 14283 199c 10       		.uleb128 0x10
 14284 199d 01       		.uleb128 0x1
 14285 199e 50       		.byte	0x50
 14286 199f 03       		.uleb128 0x3
 14287 19a0 0A       		.byte	0xa
 14288 19a1 4001     		.2byte	0x140
 14289 19a3 00       		.byte	0
 14290 19a4 0F       		.uleb128 0xf
 14291 19a5 18160000 		.4byte	.LVL314
 14292 19a9 EA3F0000 		.4byte	0x3fea
 14293 19ad C2190000 		.4byte	0x19c2
 14294 19b1 10       		.uleb128 0x10
 14295 19b2 01       		.uleb128 0x1
 14296 19b3 51       		.byte	0x51
 14297 19b4 05       		.uleb128 0x5
 14298 19b5 03       		.byte	0x3
 14299 19b6 00000000 		.4byte	resultado
 14300 19ba 10       		.uleb128 0x10
 14301 19bb 01       		.uleb128 0x1
 14302 19bc 50       		.byte	0x50
 14303 19bd 03       		.uleb128 0x3
 14304 19be 0A       		.byte	0xa
 14305 19bf 4002     		.2byte	0x240
 14306 19c1 00       		.byte	0
 14307 19c2 0F       		.uleb128 0xf
 14308 19c3 5C160000 		.4byte	.LVL315
 14309 19c7 04400000 		.4byte	0x4004
 14310 19cb D6190000 		.4byte	0x19d6
 14311 19cf 10       		.uleb128 0x10
 14312 19d0 01       		.uleb128 0x1
 14313 19d1 50       		.byte	0x50
 14314 19d2 02       		.uleb128 0x2
 14315 19d3 74       		.byte	0x74
 14316 19d4 00       		.sleb128 0
 14317 19d5 00       		.byte	0
 14318 19d6 0F       		.uleb128 0xf
 14319 19d7 74160000 		.4byte	.LVL316
 14320 19db 04400000 		.4byte	0x4004
 14321 19df EF190000 		.4byte	0x19ef
 14322 19e3 10       		.uleb128 0x10
 14323 19e4 01       		.uleb128 0x1
 14324 19e5 51       		.byte	0x51
 14325 19e6 01       		.uleb128 0x1
 14326 19e7 3A       		.byte	0x3a
 14327 19e8 10       		.uleb128 0x10
 14328 19e9 01       		.uleb128 0x1
 14329 19ea 50       		.byte	0x50
 14330 19eb 02       		.uleb128 0x2
 14331 19ec 74       		.byte	0x74
 14332 19ed 00       		.sleb128 0
 14333 19ee 00       		.byte	0
 14334 19ef 0F       		.uleb128 0xf
 14335 19f0 86160000 		.4byte	.LVL317
 14336 19f4 04400000 		.4byte	0x4004
 14337 19f8 031A0000 		.4byte	0x1a03
 14338 19fc 10       		.uleb128 0x10
 14339 19fd 01       		.uleb128 0x1
ARM GAS  C:\Users\diego\AppData\Local\Temp\ccvEcbYb.s 			page 296


 14340 19fe 50       		.byte	0x50
 14341 19ff 02       		.uleb128 0x2
 14342 1a00 74       		.byte	0x74
 14343 1a01 00       		.sleb128 0
 14344 1a02 00       		.byte	0
 14345 1a03 0F       		.uleb128 0xf
 14346 1a04 9E160000 		.4byte	.LVL318
 14347 1a08 04400000 		.4byte	0x4004
 14348 1a0c 1C1A0000 		.4byte	0x1a1c
 14349 1a10 10       		.uleb128 0x10
 14350 1a11 01       		.uleb128 0x1
 14351 1a12 51       		.byte	0x51
 14352 1a13 01       		.uleb128 0x1
 14353 1a14 3A       		.byte	0x3a
 14354 1a15 10       		.uleb128 0x10
 14355 1a16 01       		.uleb128 0x1
 14356 1a17 50       		.byte	0x50
 14357 1a18 02       		.uleb128 0x2
 14358 1a19 74       		.byte	0x74
 14359 1a1a 00       		.sleb128 0
 14360 1a1b 00       		.byte	0
 14361 1a1c 0F       		.uleb128 0xf
 14362 1a1d B2160000 		.4byte	.LVL319
 14363 1a21 04400000 		.4byte	0x4004
 14364 1a25 301A0000 		.4byte	0x1a30
 14365 1a29 10       		.uleb128 0x10
 14366 1a2a 01       		.uleb128 0x1
 14367 1a2b 50       		.byte	0x50
 14368 1a2c 02       		.uleb128 0x2
 14369 1a2d 74       		.byte	0x74
 14370 1a2e 00       		.sleb128 0
 14371 1a2f 00       		.byte	0
 14372 1a30 0F       		.uleb128 0xf
 14373 1a31 CA160000 		.4byte	.LVL320
 14374 1a35 04400000 		.4byte	0x4004
 14375 1a39 491A0000 		.4byte	0x1a49
 14376 1a3d 10       		.uleb128 0x10
 14377 1a3e 01       		.uleb128 0x1
 14378 1a3f 51       		.byte	0x51
 14379 1a40 01       		.uleb128 0x1
 14380 1a41 3A       		.byte	0x3a
 14381 1a42 10       		.uleb128 0x10
 14382 1a43 01       		.uleb128 0x1
 14383 1a44 50       		.byte	0x50
 14384 1a45 02       		.uleb128 0x2
 14385 1a46 74       		.byte	0x74
 14386 1a47 00       		.sleb128 0
 14387 1a48 00       		.byte	0
 14388 1a49 0F       		.uleb128 0xf
 14389 1a4a D2160000 		.4byte	.LVL321
 14390 1a4e 1E400000 		.4byte	0x401e
 14391 1a52 621A0000 		.4byte	0x1a62
 14392 1a56 10       		.uleb128 0x10
 14393 1a57 01       		.uleb128 0x1
 14394 1a58 51       		.byte	0x51
 14395 1a59 02       		.uleb128 0x2
 14396 1a5a 74       		.byte	0x74
ARM GAS  C:\Users\diego\AppData\Local\Temp\ccvEcbYb.s 			page 297


 14397 1a5b 00       		.sleb128 0
 14398 1a5c 10       		.uleb128 0x10
 14399 1a5d 01       		.uleb128 0x1
 14400 1a5e 50       		.byte	0x50
 14401 1a5f 01       		.uleb128 0x1
 14402 1a60 38       		.byte	0x38
 14403 1a61 00       		.byte	0
 14404 1a62 0F       		.uleb128 0xf
 14405 1a63 2C170000 		.4byte	.LVL322
 14406 1a67 04400000 		.4byte	0x4004
 14407 1a6b 761A0000 		.4byte	0x1a76
 14408 1a6f 10       		.uleb128 0x10
 14409 1a70 01       		.uleb128 0x1
 14410 1a71 50       		.byte	0x50
 14411 1a72 02       		.uleb128 0x2
 14412 1a73 74       		.byte	0x74
 14413 1a74 00       		.sleb128 0
 14414 1a75 00       		.byte	0
 14415 1a76 0F       		.uleb128 0xf
 14416 1a77 44170000 		.4byte	.LVL323
 14417 1a7b 04400000 		.4byte	0x4004
 14418 1a7f 8F1A0000 		.4byte	0x1a8f
 14419 1a83 10       		.uleb128 0x10
 14420 1a84 01       		.uleb128 0x1
 14421 1a85 51       		.byte	0x51
 14422 1a86 01       		.uleb128 0x1
 14423 1a87 3A       		.byte	0x3a
 14424 1a88 10       		.uleb128 0x10
 14425 1a89 01       		.uleb128 0x1
 14426 1a8a 50       		.byte	0x50
 14427 1a8b 02       		.uleb128 0x2
 14428 1a8c 74       		.byte	0x74
 14429 1a8d 00       		.sleb128 0
 14430 1a8e 00       		.byte	0
 14431 1a8f 0F       		.uleb128 0xf
 14432 1a90 56170000 		.4byte	.LVL324
 14433 1a94 34400000 		.4byte	0x4034
 14434 1a98 A91A0000 		.4byte	0x1aa9
 14435 1a9c 10       		.uleb128 0x10
 14436 1a9d 01       		.uleb128 0x1
 14437 1a9e 51       		.byte	0x51
 14438 1a9f 01       		.uleb128 0x1
 14439 1aa0 49       		.byte	0x49
 14440 1aa1 10       		.uleb128 0x10
 14441 1aa2 01       		.uleb128 0x1
 14442 1aa3 50       		.byte	0x50
 14443 1aa4 03       		.uleb128 0x3
 14444 1aa5 0A       		.byte	0xa
 14445 1aa6 0001     		.2byte	0x100
 14446 1aa8 00       		.byte	0
 14447 1aa9 0F       		.uleb128 0xf
 14448 1aaa 62170000 		.4byte	.LVL325
 14449 1aae 34400000 		.4byte	0x4034
 14450 1ab2 C31A0000 		.4byte	0x1ac3
 14451 1ab6 10       		.uleb128 0x10
 14452 1ab7 01       		.uleb128 0x1
 14453 1ab8 51       		.byte	0x51
ARM GAS  C:\Users\diego\AppData\Local\Temp\ccvEcbYb.s 			page 298


 14454 1ab9 01       		.uleb128 0x1
 14455 1aba 49       		.byte	0x49
 14456 1abb 10       		.uleb128 0x10
 14457 1abc 01       		.uleb128 0x1
 14458 1abd 50       		.byte	0x50
 14459 1abe 03       		.uleb128 0x3
 14460 1abf 0A       		.byte	0xa
 14461 1ac0 5901     		.2byte	0x159
 14462 1ac2 00       		.byte	0
 14463 1ac3 0F       		.uleb128 0xf
 14464 1ac4 68170000 		.4byte	.LVL326
 14465 1ac8 4E400000 		.4byte	0x404e
 14466 1acc D71A0000 		.4byte	0x1ad7
 14467 1ad0 10       		.uleb128 0x10
 14468 1ad1 01       		.uleb128 0x1
 14469 1ad2 50       		.byte	0x50
 14470 1ad3 02       		.uleb128 0x2
 14471 1ad4 74       		.byte	0x74
 14472 1ad5 00       		.sleb128 0
 14473 1ad6 00       		.byte	0
 14474 1ad7 0F       		.uleb128 0xf
 14475 1ad8 AA170000 		.4byte	.LVL327
 14476 1adc 5F400000 		.4byte	0x405f
 14477 1ae0 F71A0000 		.4byte	0x1af7
 14478 1ae4 10       		.uleb128 0x10
 14479 1ae5 01       		.uleb128 0x1
 14480 1ae6 52       		.byte	0x52
 14481 1ae7 03       		.uleb128 0x3
 14482 1ae8 91       		.byte	0x91
 14483 1ae9 B47F     		.sleb128 -76
 14484 1aeb 10       		.uleb128 0x10
 14485 1aec 01       		.uleb128 0x1
 14486 1aed 51       		.byte	0x51
 14487 1aee 02       		.uleb128 0x2
 14488 1aef 91       		.byte	0x91
 14489 1af0 44       		.sleb128 -60
 14490 1af1 10       		.uleb128 0x10
 14491 1af2 01       		.uleb128 0x1
 14492 1af3 50       		.byte	0x50
 14493 1af4 01       		.uleb128 0x1
 14494 1af5 32       		.byte	0x32
 14495 1af6 00       		.byte	0
 14496 1af7 0F       		.uleb128 0xf
 14497 1af8 C0170000 		.4byte	.LVL328
 14498 1afc 04400000 		.4byte	0x4004
 14499 1b00 0B1B0000 		.4byte	0x1b0b
 14500 1b04 10       		.uleb128 0x10
 14501 1b05 01       		.uleb128 0x1
 14502 1b06 50       		.byte	0x50
 14503 1b07 02       		.uleb128 0x2
 14504 1b08 74       		.byte	0x74
 14505 1b09 00       		.sleb128 0
 14506 1b0a 00       		.byte	0
 14507 1b0b 0F       		.uleb128 0xf
 14508 1b0c D8170000 		.4byte	.LVL329
 14509 1b10 7A400000 		.4byte	0x407a
 14510 1b14 281B0000 		.4byte	0x1b28
ARM GAS  C:\Users\diego\AppData\Local\Temp\ccvEcbYb.s 			page 299


 14511 1b18 10       		.uleb128 0x10
 14512 1b19 01       		.uleb128 0x1
 14513 1b1a 51       		.byte	0x51
 14514 1b1b 02       		.uleb128 0x2
 14515 1b1c 74       		.byte	0x74
 14516 1b1d 00       		.sleb128 0
 14517 1b1e 10       		.uleb128 0x10
 14518 1b1f 01       		.uleb128 0x1
 14519 1b20 50       		.byte	0x50
 14520 1b21 05       		.uleb128 0x5
 14521 1b22 03       		.byte	0x3
 14522 1b23 00000000 		.4byte	resultado
 14523 1b27 00       		.byte	0
 14524 1b28 0F       		.uleb128 0xf
 14525 1b29 EA170000 		.4byte	.LVL330
 14526 1b2d EA3F0000 		.4byte	0x3fea
 14527 1b31 431B0000 		.4byte	0x1b43
 14528 1b35 10       		.uleb128 0x10
 14529 1b36 01       		.uleb128 0x1
 14530 1b37 51       		.byte	0x51
 14531 1b38 02       		.uleb128 0x2
 14532 1b39 91       		.byte	0x91
 14533 1b3a 54       		.sleb128 -44
 14534 1b3b 10       		.uleb128 0x10
 14535 1b3c 01       		.uleb128 0x1
 14536 1b3d 50       		.byte	0x50
 14537 1b3e 03       		.uleb128 0x3
 14538 1b3f 0A       		.byte	0xa
 14539 1b40 0001     		.2byte	0x100
 14540 1b42 00       		.byte	0
 14541 1b43 0F       		.uleb128 0xf
 14542 1b44 F4170000 		.4byte	.LVL331
 14543 1b48 EA3F0000 		.4byte	0x3fea
 14544 1b4c 611B0000 		.4byte	0x1b61
 14545 1b50 10       		.uleb128 0x10
 14546 1b51 01       		.uleb128 0x1
 14547 1b52 51       		.byte	0x51
 14548 1b53 05       		.uleb128 0x5
 14549 1b54 03       		.byte	0x3
 14550 1b55 00000000 		.4byte	resultado
 14551 1b59 10       		.uleb128 0x10
 14552 1b5a 01       		.uleb128 0x1
 14553 1b5b 50       		.byte	0x50
 14554 1b5c 03       		.uleb128 0x3
 14555 1b5d 0A       		.byte	0xa
 14556 1b5e 0D02     		.2byte	0x20d
 14557 1b60 00       		.byte	0
 14558 1b61 0F       		.uleb128 0xf
 14559 1b62 00180000 		.4byte	.LVL332
 14560 1b66 EA3F0000 		.4byte	0x3fea
 14561 1b6a 7C1B0000 		.4byte	0x1b7c
 14562 1b6e 10       		.uleb128 0x10
 14563 1b6f 01       		.uleb128 0x1
 14564 1b70 51       		.byte	0x51
 14565 1b71 02       		.uleb128 0x2
 14566 1b72 91       		.byte	0x91
 14567 1b73 54       		.sleb128 -44
ARM GAS  C:\Users\diego\AppData\Local\Temp\ccvEcbYb.s 			page 300


 14568 1b74 10       		.uleb128 0x10
 14569 1b75 01       		.uleb128 0x1
 14570 1b76 50       		.byte	0x50
 14571 1b77 03       		.uleb128 0x3
 14572 1b78 0A       		.byte	0xa
 14573 1b79 5901     		.2byte	0x159
 14574 1b7b 00       		.byte	0
 14575 1b7c 0F       		.uleb128 0xf
 14576 1b7d 0A180000 		.4byte	.LVL333
 14577 1b81 EA3F0000 		.4byte	0x3fea
 14578 1b85 9A1B0000 		.4byte	0x1b9a
 14579 1b89 10       		.uleb128 0x10
 14580 1b8a 01       		.uleb128 0x1
 14581 1b8b 51       		.byte	0x51
 14582 1b8c 05       		.uleb128 0x5
 14583 1b8d 03       		.byte	0x3
 14584 1b8e 00000000 		.4byte	resultado
 14585 1b92 10       		.uleb128 0x10
 14586 1b93 01       		.uleb128 0x1
 14587 1b94 50       		.byte	0x50
 14588 1b95 03       		.uleb128 0x3
 14589 1b96 0A       		.byte	0xa
 14590 1b97 4D02     		.2byte	0x24d
 14591 1b99 00       		.byte	0
 14592 1b9a 0F       		.uleb128 0xf
 14593 1b9b 4E180000 		.4byte	.LVL334
 14594 1b9f 04400000 		.4byte	0x4004
 14595 1ba3 AE1B0000 		.4byte	0x1bae
 14596 1ba7 10       		.uleb128 0x10
 14597 1ba8 01       		.uleb128 0x1
 14598 1ba9 50       		.byte	0x50
 14599 1baa 02       		.uleb128 0x2
 14600 1bab 74       		.byte	0x74
 14601 1bac 00       		.sleb128 0
 14602 1bad 00       		.byte	0
 14603 1bae 0F       		.uleb128 0xf
 14604 1baf 66180000 		.4byte	.LVL335
 14605 1bb3 04400000 		.4byte	0x4004
 14606 1bb7 C71B0000 		.4byte	0x1bc7
 14607 1bbb 10       		.uleb128 0x10
 14608 1bbc 01       		.uleb128 0x1
 14609 1bbd 51       		.byte	0x51
 14610 1bbe 01       		.uleb128 0x1
 14611 1bbf 3A       		.byte	0x3a
 14612 1bc0 10       		.uleb128 0x10
 14613 1bc1 01       		.uleb128 0x1
 14614 1bc2 50       		.byte	0x50
 14615 1bc3 02       		.uleb128 0x2
 14616 1bc4 74       		.byte	0x74
 14617 1bc5 00       		.sleb128 0
 14618 1bc6 00       		.byte	0
 14619 1bc7 0F       		.uleb128 0xf
 14620 1bc8 78180000 		.4byte	.LVL336
 14621 1bcc 04400000 		.4byte	0x4004
 14622 1bd0 DB1B0000 		.4byte	0x1bdb
 14623 1bd4 10       		.uleb128 0x10
 14624 1bd5 01       		.uleb128 0x1
ARM GAS  C:\Users\diego\AppData\Local\Temp\ccvEcbYb.s 			page 301


 14625 1bd6 50       		.byte	0x50
 14626 1bd7 02       		.uleb128 0x2
 14627 1bd8 74       		.byte	0x74
 14628 1bd9 00       		.sleb128 0
 14629 1bda 00       		.byte	0
 14630 1bdb 0F       		.uleb128 0xf
 14631 1bdc 90180000 		.4byte	.LVL337
 14632 1be0 04400000 		.4byte	0x4004
 14633 1be4 F41B0000 		.4byte	0x1bf4
 14634 1be8 10       		.uleb128 0x10
 14635 1be9 01       		.uleb128 0x1
 14636 1bea 51       		.byte	0x51
 14637 1beb 01       		.uleb128 0x1
 14638 1bec 3A       		.byte	0x3a
 14639 1bed 10       		.uleb128 0x10
 14640 1bee 01       		.uleb128 0x1
 14641 1bef 50       		.byte	0x50
 14642 1bf0 02       		.uleb128 0x2
 14643 1bf1 74       		.byte	0x74
 14644 1bf2 00       		.sleb128 0
 14645 1bf3 00       		.byte	0
 14646 1bf4 0F       		.uleb128 0xf
 14647 1bf5 A4180000 		.4byte	.LVL338
 14648 1bf9 04400000 		.4byte	0x4004
 14649 1bfd 081C0000 		.4byte	0x1c08
 14650 1c01 10       		.uleb128 0x10
 14651 1c02 01       		.uleb128 0x1
 14652 1c03 50       		.byte	0x50
 14653 1c04 02       		.uleb128 0x2
 14654 1c05 74       		.byte	0x74
 14655 1c06 00       		.sleb128 0
 14656 1c07 00       		.byte	0
 14657 1c08 0F       		.uleb128 0xf
 14658 1c09 BC180000 		.4byte	.LVL339
 14659 1c0d 04400000 		.4byte	0x4004
 14660 1c11 211C0000 		.4byte	0x1c21
 14661 1c15 10       		.uleb128 0x10
 14662 1c16 01       		.uleb128 0x1
 14663 1c17 51       		.byte	0x51
 14664 1c18 01       		.uleb128 0x1
 14665 1c19 3A       		.byte	0x3a
 14666 1c1a 10       		.uleb128 0x10
 14667 1c1b 01       		.uleb128 0x1
 14668 1c1c 50       		.byte	0x50
 14669 1c1d 02       		.uleb128 0x2
 14670 1c1e 74       		.byte	0x74
 14671 1c1f 00       		.sleb128 0
 14672 1c20 00       		.byte	0
 14673 1c21 0F       		.uleb128 0xf
 14674 1c22 C4180000 		.4byte	.LVL340
 14675 1c26 1E400000 		.4byte	0x401e
 14676 1c2a 3A1C0000 		.4byte	0x1c3a
 14677 1c2e 10       		.uleb128 0x10
 14678 1c2f 01       		.uleb128 0x1
 14679 1c30 51       		.byte	0x51
 14680 1c31 02       		.uleb128 0x2
 14681 1c32 74       		.byte	0x74
ARM GAS  C:\Users\diego\AppData\Local\Temp\ccvEcbYb.s 			page 302


 14682 1c33 00       		.sleb128 0
 14683 1c34 10       		.uleb128 0x10
 14684 1c35 01       		.uleb128 0x1
 14685 1c36 50       		.byte	0x50
 14686 1c37 01       		.uleb128 0x1
 14687 1c38 38       		.byte	0x38
 14688 1c39 00       		.byte	0
 14689 1c3a 0F       		.uleb128 0xf
 14690 1c3b D8180000 		.4byte	.LVL341
 14691 1c3f 04400000 		.4byte	0x4004
 14692 1c43 4E1C0000 		.4byte	0x1c4e
 14693 1c47 10       		.uleb128 0x10
 14694 1c48 01       		.uleb128 0x1
 14695 1c49 50       		.byte	0x50
 14696 1c4a 02       		.uleb128 0x2
 14697 1c4b 74       		.byte	0x74
 14698 1c4c 00       		.sleb128 0
 14699 1c4d 00       		.byte	0
 14700 1c4e 0F       		.uleb128 0xf
 14701 1c4f F0180000 		.4byte	.LVL342
 14702 1c53 04400000 		.4byte	0x4004
 14703 1c57 671C0000 		.4byte	0x1c67
 14704 1c5b 10       		.uleb128 0x10
 14705 1c5c 01       		.uleb128 0x1
 14706 1c5d 51       		.byte	0x51
 14707 1c5e 01       		.uleb128 0x1
 14708 1c5f 3A       		.byte	0x3a
 14709 1c60 10       		.uleb128 0x10
 14710 1c61 01       		.uleb128 0x1
 14711 1c62 50       		.byte	0x50
 14712 1c63 02       		.uleb128 0x2
 14713 1c64 74       		.byte	0x74
 14714 1c65 00       		.sleb128 0
 14715 1c66 00       		.byte	0
 14716 1c67 0F       		.uleb128 0xf
 14717 1c68 02190000 		.4byte	.LVL343
 14718 1c6c 34400000 		.4byte	0x4034
 14719 1c70 811C0000 		.4byte	0x1c81
 14720 1c74 10       		.uleb128 0x10
 14721 1c75 01       		.uleb128 0x1
 14722 1c76 51       		.byte	0x51
 14723 1c77 01       		.uleb128 0x1
 14724 1c78 49       		.byte	0x49
 14725 1c79 10       		.uleb128 0x10
 14726 1c7a 01       		.uleb128 0x1
 14727 1c7b 50       		.byte	0x50
 14728 1c7c 03       		.uleb128 0x3
 14729 1c7d 0A       		.byte	0xa
 14730 1c7e 4804     		.2byte	0x448
 14731 1c80 00       		.byte	0
 14732 1c81 0F       		.uleb128 0xf
 14733 1c82 0E190000 		.4byte	.LVL344
 14734 1c86 34400000 		.4byte	0x4034
 14735 1c8a 9B1C0000 		.4byte	0x1c9b
 14736 1c8e 10       		.uleb128 0x10
 14737 1c8f 01       		.uleb128 0x1
 14738 1c90 51       		.byte	0x51
ARM GAS  C:\Users\diego\AppData\Local\Temp\ccvEcbYb.s 			page 303


 14739 1c91 01       		.uleb128 0x1
 14740 1c92 49       		.byte	0x49
 14741 1c93 10       		.uleb128 0x10
 14742 1c94 01       		.uleb128 0x1
 14743 1c95 50       		.byte	0x50
 14744 1c96 03       		.uleb128 0x3
 14745 1c97 0A       		.byte	0xa
 14746 1c98 1E04     		.2byte	0x41e
 14747 1c9a 00       		.byte	0
 14748 1c9b 0F       		.uleb128 0xf
 14749 1c9c 14190000 		.4byte	.LVL345
 14750 1ca0 4E400000 		.4byte	0x404e
 14751 1ca4 AF1C0000 		.4byte	0x1caf
 14752 1ca8 10       		.uleb128 0x10
 14753 1ca9 01       		.uleb128 0x1
 14754 1caa 50       		.byte	0x50
 14755 1cab 02       		.uleb128 0x2
 14756 1cac 74       		.byte	0x74
 14757 1cad 00       		.sleb128 0
 14758 1cae 00       		.byte	0
 14759 1caf 0F       		.uleb128 0xf
 14760 1cb0 56190000 		.4byte	.LVL346
 14761 1cb4 5F400000 		.4byte	0x405f
 14762 1cb8 CF1C0000 		.4byte	0x1ccf
 14763 1cbc 10       		.uleb128 0x10
 14764 1cbd 01       		.uleb128 0x1
 14765 1cbe 52       		.byte	0x52
 14766 1cbf 03       		.uleb128 0x3
 14767 1cc0 91       		.byte	0x91
 14768 1cc1 B47F     		.sleb128 -76
 14769 1cc3 10       		.uleb128 0x10
 14770 1cc4 01       		.uleb128 0x1
 14771 1cc5 51       		.byte	0x51
 14772 1cc6 02       		.uleb128 0x2
 14773 1cc7 91       		.byte	0x91
 14774 1cc8 44       		.sleb128 -60
 14775 1cc9 10       		.uleb128 0x10
 14776 1cca 01       		.uleb128 0x1
 14777 1ccb 50       		.byte	0x50
 14778 1ccc 01       		.uleb128 0x1
 14779 1ccd 32       		.byte	0x32
 14780 1cce 00       		.byte	0
 14781 1ccf 0F       		.uleb128 0xf
 14782 1cd0 6C190000 		.4byte	.LVL347
 14783 1cd4 04400000 		.4byte	0x4004
 14784 1cd8 E31C0000 		.4byte	0x1ce3
 14785 1cdc 10       		.uleb128 0x10
 14786 1cdd 01       		.uleb128 0x1
 14787 1cde 50       		.byte	0x50
 14788 1cdf 02       		.uleb128 0x2
 14789 1ce0 74       		.byte	0x74
 14790 1ce1 00       		.sleb128 0
 14791 1ce2 00       		.byte	0
 14792 1ce3 0F       		.uleb128 0xf
 14793 1ce4 84190000 		.4byte	.LVL348
 14794 1ce8 7A400000 		.4byte	0x407a
 14795 1cec 001D0000 		.4byte	0x1d00
ARM GAS  C:\Users\diego\AppData\Local\Temp\ccvEcbYb.s 			page 304


 14796 1cf0 10       		.uleb128 0x10
 14797 1cf1 01       		.uleb128 0x1
 14798 1cf2 51       		.byte	0x51
 14799 1cf3 02       		.uleb128 0x2
 14800 1cf4 74       		.byte	0x74
 14801 1cf5 00       		.sleb128 0
 14802 1cf6 10       		.uleb128 0x10
 14803 1cf7 01       		.uleb128 0x1
 14804 1cf8 50       		.byte	0x50
 14805 1cf9 05       		.uleb128 0x5
 14806 1cfa 03       		.byte	0x3
 14807 1cfb 00000000 		.4byte	resultado
 14808 1cff 00       		.byte	0
 14809 1d00 0F       		.uleb128 0xf
 14810 1d01 96190000 		.4byte	.LVL349
 14811 1d05 EA3F0000 		.4byte	0x3fea
 14812 1d09 1B1D0000 		.4byte	0x1d1b
 14813 1d0d 10       		.uleb128 0x10
 14814 1d0e 01       		.uleb128 0x1
 14815 1d0f 51       		.byte	0x51
 14816 1d10 02       		.uleb128 0x2
 14817 1d11 91       		.byte	0x91
 14818 1d12 54       		.sleb128 -44
 14819 1d13 10       		.uleb128 0x10
 14820 1d14 01       		.uleb128 0x1
 14821 1d15 50       		.byte	0x50
 14822 1d16 03       		.uleb128 0x3
 14823 1d17 0A       		.byte	0xa
 14824 1d18 4804     		.2byte	0x448
 14825 1d1a 00       		.byte	0
 14826 1d1b 0F       		.uleb128 0xf
 14827 1d1c A0190000 		.4byte	.LVL350
 14828 1d20 EA3F0000 		.4byte	0x3fea
 14829 1d24 391D0000 		.4byte	0x1d39
 14830 1d28 10       		.uleb128 0x10
 14831 1d29 01       		.uleb128 0x1
 14832 1d2a 51       		.byte	0x51
 14833 1d2b 05       		.uleb128 0x5
 14834 1d2c 03       		.byte	0x3
 14835 1d2d 00000000 		.4byte	resultado
 14836 1d31 10       		.uleb128 0x10
 14837 1d32 01       		.uleb128 0x1
 14838 1d33 50       		.byte	0x50
 14839 1d34 03       		.uleb128 0x3
 14840 1d35 0A       		.byte	0xa
 14841 1d36 0E04     		.2byte	0x40e
 14842 1d38 00       		.byte	0
 14843 1d39 0F       		.uleb128 0xf
 14844 1d3a AC190000 		.4byte	.LVL351
 14845 1d3e EA3F0000 		.4byte	0x3fea
 14846 1d42 541D0000 		.4byte	0x1d54
 14847 1d46 10       		.uleb128 0x10
 14848 1d47 01       		.uleb128 0x1
 14849 1d48 51       		.byte	0x51
 14850 1d49 02       		.uleb128 0x2
 14851 1d4a 91       		.byte	0x91
 14852 1d4b 54       		.sleb128 -44
ARM GAS  C:\Users\diego\AppData\Local\Temp\ccvEcbYb.s 			page 305


 14853 1d4c 10       		.uleb128 0x10
 14854 1d4d 01       		.uleb128 0x1
 14855 1d4e 50       		.byte	0x50
 14856 1d4f 03       		.uleb128 0x3
 14857 1d50 0A       		.byte	0xa
 14858 1d51 1E04     		.2byte	0x41e
 14859 1d53 00       		.byte	0
 14860 1d54 0F       		.uleb128 0xf
 14861 1d55 B6190000 		.4byte	.LVL352
 14862 1d59 EA3F0000 		.4byte	0x3fea
 14863 1d5d 721D0000 		.4byte	0x1d72
 14864 1d61 10       		.uleb128 0x10
 14865 1d62 01       		.uleb128 0x1
 14866 1d63 51       		.byte	0x51
 14867 1d64 05       		.uleb128 0x5
 14868 1d65 03       		.byte	0x3
 14869 1d66 00000000 		.4byte	resultado
 14870 1d6a 10       		.uleb128 0x10
 14871 1d6b 01       		.uleb128 0x1
 14872 1d6c 50       		.byte	0x50
 14873 1d6d 03       		.uleb128 0x3
 14874 1d6e 0A       		.byte	0xa
 14875 1d6f 3904     		.2byte	0x439
 14876 1d71 00       		.byte	0
 14877 1d72 11       		.uleb128 0x11
 14878 1d73 CC190000 		.4byte	.LVL353
 14879 1d77 D83F0000 		.4byte	0x3fd8
 14880 1d7b 0F       		.uleb128 0xf
 14881 1d7c 541B0000 		.4byte	.LVL356
 14882 1d80 04400000 		.4byte	0x4004
 14883 1d84 8F1D0000 		.4byte	0x1d8f
 14884 1d88 10       		.uleb128 0x10
 14885 1d89 01       		.uleb128 0x1
 14886 1d8a 50       		.byte	0x50
 14887 1d8b 02       		.uleb128 0x2
 14888 1d8c 74       		.byte	0x74
 14889 1d8d 00       		.sleb128 0
 14890 1d8e 00       		.byte	0
 14891 1d8f 0F       		.uleb128 0xf
 14892 1d90 6C1B0000 		.4byte	.LVL357
 14893 1d94 04400000 		.4byte	0x4004
 14894 1d98 A81D0000 		.4byte	0x1da8
 14895 1d9c 10       		.uleb128 0x10
 14896 1d9d 01       		.uleb128 0x1
 14897 1d9e 51       		.byte	0x51
 14898 1d9f 01       		.uleb128 0x1
 14899 1da0 3A       		.byte	0x3a
 14900 1da1 10       		.uleb128 0x10
 14901 1da2 01       		.uleb128 0x1
 14902 1da3 50       		.byte	0x50
 14903 1da4 02       		.uleb128 0x2
 14904 1da5 74       		.byte	0x74
 14905 1da6 00       		.sleb128 0
 14906 1da7 00       		.byte	0
 14907 1da8 0F       		.uleb128 0xf
 14908 1da9 7E1B0000 		.4byte	.LVL358
 14909 1dad 04400000 		.4byte	0x4004
ARM GAS  C:\Users\diego\AppData\Local\Temp\ccvEcbYb.s 			page 306


 14910 1db1 BC1D0000 		.4byte	0x1dbc
 14911 1db5 10       		.uleb128 0x10
 14912 1db6 01       		.uleb128 0x1
 14913 1db7 50       		.byte	0x50
 14914 1db8 02       		.uleb128 0x2
 14915 1db9 74       		.byte	0x74
 14916 1dba 00       		.sleb128 0
 14917 1dbb 00       		.byte	0
 14918 1dbc 0F       		.uleb128 0xf
 14919 1dbd 961B0000 		.4byte	.LVL359
 14920 1dc1 04400000 		.4byte	0x4004
 14921 1dc5 D51D0000 		.4byte	0x1dd5
 14922 1dc9 10       		.uleb128 0x10
 14923 1dca 01       		.uleb128 0x1
 14924 1dcb 51       		.byte	0x51
 14925 1dcc 01       		.uleb128 0x1
 14926 1dcd 3A       		.byte	0x3a
 14927 1dce 10       		.uleb128 0x10
 14928 1dcf 01       		.uleb128 0x1
 14929 1dd0 50       		.byte	0x50
 14930 1dd1 02       		.uleb128 0x2
 14931 1dd2 74       		.byte	0x74
 14932 1dd3 00       		.sleb128 0
 14933 1dd4 00       		.byte	0
 14934 1dd5 0F       		.uleb128 0xf
 14935 1dd6 AA1B0000 		.4byte	.LVL360
 14936 1dda 04400000 		.4byte	0x4004
 14937 1dde E91D0000 		.4byte	0x1de9
 14938 1de2 10       		.uleb128 0x10
 14939 1de3 01       		.uleb128 0x1
 14940 1de4 50       		.byte	0x50
 14941 1de5 02       		.uleb128 0x2
 14942 1de6 74       		.byte	0x74
 14943 1de7 00       		.sleb128 0
 14944 1de8 00       		.byte	0
 14945 1de9 0F       		.uleb128 0xf
 14946 1dea C21B0000 		.4byte	.LVL361
 14947 1dee 04400000 		.4byte	0x4004
 14948 1df2 021E0000 		.4byte	0x1e02
 14949 1df6 10       		.uleb128 0x10
 14950 1df7 01       		.uleb128 0x1
 14951 1df8 51       		.byte	0x51
 14952 1df9 01       		.uleb128 0x1
 14953 1dfa 3A       		.byte	0x3a
 14954 1dfb 10       		.uleb128 0x10
 14955 1dfc 01       		.uleb128 0x1
 14956 1dfd 50       		.byte	0x50
 14957 1dfe 02       		.uleb128 0x2
 14958 1dff 74       		.byte	0x74
 14959 1e00 00       		.sleb128 0
 14960 1e01 00       		.byte	0
 14961 1e02 0F       		.uleb128 0xf
 14962 1e03 CA1B0000 		.4byte	.LVL362
 14963 1e07 1E400000 		.4byte	0x401e
 14964 1e0b 1B1E0000 		.4byte	0x1e1b
 14965 1e0f 10       		.uleb128 0x10
 14966 1e10 01       		.uleb128 0x1
ARM GAS  C:\Users\diego\AppData\Local\Temp\ccvEcbYb.s 			page 307


 14967 1e11 51       		.byte	0x51
 14968 1e12 02       		.uleb128 0x2
 14969 1e13 74       		.byte	0x74
 14970 1e14 00       		.sleb128 0
 14971 1e15 10       		.uleb128 0x10
 14972 1e16 01       		.uleb128 0x1
 14973 1e17 50       		.byte	0x50
 14974 1e18 01       		.uleb128 0x1
 14975 1e19 3C       		.byte	0x3c
 14976 1e1a 00       		.byte	0
 14977 1e1b 0F       		.uleb128 0xf
 14978 1e1c DE1B0000 		.4byte	.LVL363
 14979 1e20 04400000 		.4byte	0x4004
 14980 1e24 2F1E0000 		.4byte	0x1e2f
 14981 1e28 10       		.uleb128 0x10
 14982 1e29 01       		.uleb128 0x1
 14983 1e2a 50       		.byte	0x50
 14984 1e2b 02       		.uleb128 0x2
 14985 1e2c 74       		.byte	0x74
 14986 1e2d 00       		.sleb128 0
 14987 1e2e 00       		.byte	0
 14988 1e2f 0F       		.uleb128 0xf
 14989 1e30 F61B0000 		.4byte	.LVL364
 14990 1e34 04400000 		.4byte	0x4004
 14991 1e38 481E0000 		.4byte	0x1e48
 14992 1e3c 10       		.uleb128 0x10
 14993 1e3d 01       		.uleb128 0x1
 14994 1e3e 51       		.byte	0x51
 14995 1e3f 01       		.uleb128 0x1
 14996 1e40 3A       		.byte	0x3a
 14997 1e41 10       		.uleb128 0x10
 14998 1e42 01       		.uleb128 0x1
 14999 1e43 50       		.byte	0x50
 15000 1e44 02       		.uleb128 0x2
 15001 1e45 74       		.byte	0x74
 15002 1e46 00       		.sleb128 0
 15003 1e47 00       		.byte	0
 15004 1e48 0F       		.uleb128 0xf
 15005 1e49 061C0000 		.4byte	.LVL365
 15006 1e4d 34400000 		.4byte	0x4034
 15007 1e51 611E0000 		.4byte	0x1e61
 15008 1e55 10       		.uleb128 0x10
 15009 1e56 01       		.uleb128 0x1
 15010 1e57 51       		.byte	0x51
 15011 1e58 01       		.uleb128 0x1
 15012 1e59 49       		.byte	0x49
 15013 1e5a 10       		.uleb128 0x10
 15014 1e5b 01       		.uleb128 0x1
 15015 1e5c 50       		.byte	0x50
 15016 1e5d 02       		.uleb128 0x2
 15017 1e5e 08       		.byte	0x8
 15018 1e5f C0       		.byte	0xc0
 15019 1e60 00       		.byte	0
 15020 1e61 0F       		.uleb128 0xf
 15021 1e62 181C0000 		.4byte	.LVL366
 15022 1e66 34400000 		.4byte	0x4034
 15023 1e6a 7B1E0000 		.4byte	0x1e7b
ARM GAS  C:\Users\diego\AppData\Local\Temp\ccvEcbYb.s 			page 308


 15024 1e6e 10       		.uleb128 0x10
 15025 1e6f 01       		.uleb128 0x1
 15026 1e70 51       		.byte	0x51
 15027 1e71 01       		.uleb128 0x1
 15028 1e72 49       		.byte	0x49
 15029 1e73 10       		.uleb128 0x10
 15030 1e74 01       		.uleb128 0x1
 15031 1e75 50       		.byte	0x50
 15032 1e76 03       		.uleb128 0x3
 15033 1e77 0A       		.byte	0xa
 15034 1e78 A804     		.2byte	0x4a8
 15035 1e7a 00       		.byte	0
 15036 1e7b 0F       		.uleb128 0xf
 15037 1e7c 2A1C0000 		.4byte	.LVL367
 15038 1e80 34400000 		.4byte	0x4034
 15039 1e84 951E0000 		.4byte	0x1e95
 15040 1e88 10       		.uleb128 0x10
 15041 1e89 01       		.uleb128 0x1
 15042 1e8a 51       		.byte	0x51
 15043 1e8b 01       		.uleb128 0x1
 15044 1e8c 49       		.byte	0x49
 15045 1e8d 10       		.uleb128 0x10
 15046 1e8e 01       		.uleb128 0x1
 15047 1e8f 50       		.byte	0x50
 15048 1e90 03       		.uleb128 0x3
 15049 1e91 0A       		.byte	0xa
 15050 1e92 0C05     		.2byte	0x50c
 15051 1e94 00       		.byte	0
 15052 1e95 0F       		.uleb128 0xf
 15053 1e96 361C0000 		.4byte	.LVL368
 15054 1e9a 34400000 		.4byte	0x4034
 15055 1e9e AF1E0000 		.4byte	0x1eaf
 15056 1ea2 10       		.uleb128 0x10
 15057 1ea3 01       		.uleb128 0x1
 15058 1ea4 51       		.byte	0x51
 15059 1ea5 01       		.uleb128 0x1
 15060 1ea6 49       		.byte	0x49
 15061 1ea7 10       		.uleb128 0x10
 15062 1ea8 01       		.uleb128 0x1
 15063 1ea9 50       		.byte	0x50
 15064 1eaa 03       		.uleb128 0x3
 15065 1eab 0A       		.byte	0xa
 15066 1eac 1901     		.2byte	0x119
 15067 1eae 00       		.byte	0
 15068 1eaf 0F       		.uleb128 0xf
 15069 1eb0 3C1C0000 		.4byte	.LVL369
 15070 1eb4 4E400000 		.4byte	0x404e
 15071 1eb8 C31E0000 		.4byte	0x1ec3
 15072 1ebc 10       		.uleb128 0x10
 15073 1ebd 01       		.uleb128 0x1
 15074 1ebe 50       		.byte	0x50
 15075 1ebf 02       		.uleb128 0x2
 15076 1ec0 74       		.byte	0x74
 15077 1ec1 00       		.sleb128 0
 15078 1ec2 00       		.byte	0
 15079 1ec3 0F       		.uleb128 0xf
 15080 1ec4 7E1C0000 		.4byte	.LVL370
ARM GAS  C:\Users\diego\AppData\Local\Temp\ccvEcbYb.s 			page 309


 15081 1ec8 5F400000 		.4byte	0x405f
 15082 1ecc E31E0000 		.4byte	0x1ee3
 15083 1ed0 10       		.uleb128 0x10
 15084 1ed1 01       		.uleb128 0x1
 15085 1ed2 52       		.byte	0x52
 15086 1ed3 03       		.uleb128 0x3
 15087 1ed4 91       		.byte	0x91
 15088 1ed5 B47F     		.sleb128 -76
 15089 1ed7 10       		.uleb128 0x10
 15090 1ed8 01       		.uleb128 0x1
 15091 1ed9 51       		.byte	0x51
 15092 1eda 02       		.uleb128 0x2
 15093 1edb 91       		.byte	0x91
 15094 1edc 44       		.sleb128 -60
 15095 1edd 10       		.uleb128 0x10
 15096 1ede 01       		.uleb128 0x1
 15097 1edf 50       		.byte	0x50
 15098 1ee0 01       		.uleb128 0x1
 15099 1ee1 32       		.byte	0x32
 15100 1ee2 00       		.byte	0
 15101 1ee3 0F       		.uleb128 0xf
 15102 1ee4 DA1C0000 		.4byte	.LVL371
 15103 1ee8 04400000 		.4byte	0x4004
 15104 1eec F71E0000 		.4byte	0x1ef7
 15105 1ef0 10       		.uleb128 0x10
 15106 1ef1 01       		.uleb128 0x1
 15107 1ef2 50       		.byte	0x50
 15108 1ef3 02       		.uleb128 0x2
 15109 1ef4 74       		.byte	0x74
 15110 1ef5 00       		.sleb128 0
 15111 1ef6 00       		.byte	0
 15112 1ef7 0F       		.uleb128 0xf
 15113 1ef8 F21C0000 		.4byte	.LVL372
 15114 1efc 7A400000 		.4byte	0x407a
 15115 1f00 141F0000 		.4byte	0x1f14
 15116 1f04 10       		.uleb128 0x10
 15117 1f05 01       		.uleb128 0x1
 15118 1f06 51       		.byte	0x51
 15119 1f07 02       		.uleb128 0x2
 15120 1f08 74       		.byte	0x74
 15121 1f09 00       		.sleb128 0
 15122 1f0a 10       		.uleb128 0x10
 15123 1f0b 01       		.uleb128 0x1
 15124 1f0c 50       		.byte	0x50
 15125 1f0d 05       		.uleb128 0x5
 15126 1f0e 03       		.byte	0x3
 15127 1f0f 00000000 		.4byte	resultado
 15128 1f13 00       		.byte	0
 15129 1f14 0F       		.uleb128 0xf
 15130 1f15 021D0000 		.4byte	.LVL373
 15131 1f19 EA3F0000 		.4byte	0x3fea
 15132 1f1d 2E1F0000 		.4byte	0x1f2e
 15133 1f21 10       		.uleb128 0x10
 15134 1f22 01       		.uleb128 0x1
 15135 1f23 51       		.byte	0x51
 15136 1f24 02       		.uleb128 0x2
 15137 1f25 91       		.byte	0x91
ARM GAS  C:\Users\diego\AppData\Local\Temp\ccvEcbYb.s 			page 310


 15138 1f26 54       		.sleb128 -44
 15139 1f27 10       		.uleb128 0x10
 15140 1f28 01       		.uleb128 0x1
 15141 1f29 50       		.byte	0x50
 15142 1f2a 02       		.uleb128 0x2
 15143 1f2b 08       		.byte	0x8
 15144 1f2c C0       		.byte	0xc0
 15145 1f2d 00       		.byte	0
 15146 1f2e 0F       		.uleb128 0xf
 15147 1f2f 0C1D0000 		.4byte	.LVL374
 15148 1f33 EA3F0000 		.4byte	0x3fea
 15149 1f37 4C1F0000 		.4byte	0x1f4c
 15150 1f3b 10       		.uleb128 0x10
 15151 1f3c 01       		.uleb128 0x1
 15152 1f3d 51       		.byte	0x51
 15153 1f3e 05       		.uleb128 0x5
 15154 1f3f 03       		.byte	0x3
 15155 1f40 00000000 		.4byte	resultado
 15156 1f44 10       		.uleb128 0x10
 15157 1f45 01       		.uleb128 0x1
 15158 1f46 50       		.byte	0x50
 15159 1f47 03       		.uleb128 0x3
 15160 1f48 0A       		.byte	0xa
 15161 1f49 0002     		.2byte	0x200
 15162 1f4b 00       		.byte	0
 15163 1f4c 0F       		.uleb128 0xf
 15164 1f4d 1E1D0000 		.4byte	.LVL375
 15165 1f51 EA3F0000 		.4byte	0x3fea
 15166 1f55 671F0000 		.4byte	0x1f67
 15167 1f59 10       		.uleb128 0x10
 15168 1f5a 01       		.uleb128 0x1
 15169 1f5b 51       		.byte	0x51
 15170 1f5c 02       		.uleb128 0x2
 15171 1f5d 91       		.byte	0x91
 15172 1f5e 54       		.sleb128 -44
 15173 1f5f 10       		.uleb128 0x10
 15174 1f60 01       		.uleb128 0x1
 15175 1f61 50       		.byte	0x50
 15176 1f62 03       		.uleb128 0x3
 15177 1f63 0A       		.byte	0xa
 15178 1f64 A804     		.2byte	0x4a8
 15179 1f66 00       		.byte	0
 15180 1f67 0F       		.uleb128 0xf
 15181 1f68 281D0000 		.4byte	.LVL376
 15182 1f6c EA3F0000 		.4byte	0x3fea
 15183 1f70 851F0000 		.4byte	0x1f85
 15184 1f74 10       		.uleb128 0x10
 15185 1f75 01       		.uleb128 0x1
 15186 1f76 51       		.byte	0x51
 15187 1f77 05       		.uleb128 0x5
 15188 1f78 03       		.byte	0x3
 15189 1f79 00000000 		.4byte	resultado
 15190 1f7d 10       		.uleb128 0x10
 15191 1f7e 01       		.uleb128 0x1
 15192 1f7f 50       		.byte	0x50
 15193 1f80 03       		.uleb128 0x3
 15194 1f81 0A       		.byte	0xa
ARM GAS  C:\Users\diego\AppData\Local\Temp\ccvEcbYb.s 			page 311


 15195 1f82 7005     		.2byte	0x570
 15196 1f84 00       		.byte	0
 15197 1f85 0F       		.uleb128 0xf
 15198 1f86 3A1D0000 		.4byte	.LVL377
 15199 1f8a EA3F0000 		.4byte	0x3fea
 15200 1f8e A01F0000 		.4byte	0x1fa0
 15201 1f92 10       		.uleb128 0x10
 15202 1f93 01       		.uleb128 0x1
 15203 1f94 51       		.byte	0x51
 15204 1f95 02       		.uleb128 0x2
 15205 1f96 91       		.byte	0x91
 15206 1f97 54       		.sleb128 -44
 15207 1f98 10       		.uleb128 0x10
 15208 1f99 01       		.uleb128 0x1
 15209 1f9a 50       		.byte	0x50
 15210 1f9b 03       		.uleb128 0x3
 15211 1f9c 0A       		.byte	0xa
 15212 1f9d 0C05     		.2byte	0x50c
 15213 1f9f 00       		.byte	0
 15214 1fa0 0F       		.uleb128 0xf
 15215 1fa1 441D0000 		.4byte	.LVL378
 15216 1fa5 EA3F0000 		.4byte	0x3fea
 15217 1fa9 BE1F0000 		.4byte	0x1fbe
 15218 1fad 10       		.uleb128 0x10
 15219 1fae 01       		.uleb128 0x1
 15220 1faf 51       		.byte	0x51
 15221 1fb0 05       		.uleb128 0x5
 15222 1fb1 03       		.byte	0x3
 15223 1fb2 00000000 		.4byte	resultado
 15224 1fb6 10       		.uleb128 0x10
 15225 1fb7 01       		.uleb128 0x1
 15226 1fb8 50       		.byte	0x50
 15227 1fb9 03       		.uleb128 0x3
 15228 1fba 0A       		.byte	0xa
 15229 1fbb 7D05     		.2byte	0x57d
 15230 1fbd 00       		.byte	0
 15231 1fbe 0F       		.uleb128 0xf
 15232 1fbf 501D0000 		.4byte	.LVL379
 15233 1fc3 EA3F0000 		.4byte	0x3fea
 15234 1fc7 D91F0000 		.4byte	0x1fd9
 15235 1fcb 10       		.uleb128 0x10
 15236 1fcc 01       		.uleb128 0x1
 15237 1fcd 51       		.byte	0x51
 15238 1fce 02       		.uleb128 0x2
 15239 1fcf 91       		.byte	0x91
 15240 1fd0 54       		.sleb128 -44
 15241 1fd1 10       		.uleb128 0x10
 15242 1fd2 01       		.uleb128 0x1
 15243 1fd3 50       		.byte	0x50
 15244 1fd4 03       		.uleb128 0x3
 15245 1fd5 0A       		.byte	0xa
 15246 1fd6 1901     		.2byte	0x119
 15247 1fd8 00       		.byte	0
 15248 1fd9 0F       		.uleb128 0xf
 15249 1fda 5A1D0000 		.4byte	.LVL380
 15250 1fde EA3F0000 		.4byte	0x3fea
 15251 1fe2 F71F0000 		.4byte	0x1ff7
ARM GAS  C:\Users\diego\AppData\Local\Temp\ccvEcbYb.s 			page 312


 15252 1fe6 10       		.uleb128 0x10
 15253 1fe7 01       		.uleb128 0x1
 15254 1fe8 51       		.byte	0x51
 15255 1fe9 05       		.uleb128 0x5
 15256 1fea 03       		.byte	0x3
 15257 1feb 00000000 		.4byte	resultado
 15258 1fef 10       		.uleb128 0x10
 15259 1ff0 01       		.uleb128 0x1
 15260 1ff1 50       		.byte	0x50
 15261 1ff2 03       		.uleb128 0x3
 15262 1ff3 0A       		.byte	0xa
 15263 1ff4 2702     		.2byte	0x227
 15264 1ff6 00       		.byte	0
 15265 1ff7 0F       		.uleb128 0xf
 15266 1ff8 C61D0000 		.4byte	.LVL381
 15267 1ffc 04400000 		.4byte	0x4004
 15268 2000 0B200000 		.4byte	0x200b
 15269 2004 10       		.uleb128 0x10
 15270 2005 01       		.uleb128 0x1
 15271 2006 50       		.byte	0x50
 15272 2007 02       		.uleb128 0x2
 15273 2008 74       		.byte	0x74
 15274 2009 00       		.sleb128 0
 15275 200a 00       		.byte	0
 15276 200b 0F       		.uleb128 0xf
 15277 200c DE1D0000 		.4byte	.LVL382
 15278 2010 04400000 		.4byte	0x4004
 15279 2014 24200000 		.4byte	0x2024
 15280 2018 10       		.uleb128 0x10
 15281 2019 01       		.uleb128 0x1
 15282 201a 51       		.byte	0x51
 15283 201b 01       		.uleb128 0x1
 15284 201c 3A       		.byte	0x3a
 15285 201d 10       		.uleb128 0x10
 15286 201e 01       		.uleb128 0x1
 15287 201f 50       		.byte	0x50
 15288 2020 02       		.uleb128 0x2
 15289 2021 74       		.byte	0x74
 15290 2022 00       		.sleb128 0
 15291 2023 00       		.byte	0
 15292 2024 0F       		.uleb128 0xf
 15293 2025 F01D0000 		.4byte	.LVL383
 15294 2029 04400000 		.4byte	0x4004
 15295 202d 38200000 		.4byte	0x2038
 15296 2031 10       		.uleb128 0x10
 15297 2032 01       		.uleb128 0x1
 15298 2033 50       		.byte	0x50
 15299 2034 02       		.uleb128 0x2
 15300 2035 74       		.byte	0x74
 15301 2036 00       		.sleb128 0
 15302 2037 00       		.byte	0
 15303 2038 0F       		.uleb128 0xf
 15304 2039 081E0000 		.4byte	.LVL384
 15305 203d 04400000 		.4byte	0x4004
 15306 2041 51200000 		.4byte	0x2051
 15307 2045 10       		.uleb128 0x10
 15308 2046 01       		.uleb128 0x1
ARM GAS  C:\Users\diego\AppData\Local\Temp\ccvEcbYb.s 			page 313


 15309 2047 51       		.byte	0x51
 15310 2048 01       		.uleb128 0x1
 15311 2049 3A       		.byte	0x3a
 15312 204a 10       		.uleb128 0x10
 15313 204b 01       		.uleb128 0x1
 15314 204c 50       		.byte	0x50
 15315 204d 02       		.uleb128 0x2
 15316 204e 74       		.byte	0x74
 15317 204f 00       		.sleb128 0
 15318 2050 00       		.byte	0
 15319 2051 0F       		.uleb128 0xf
 15320 2052 1C1E0000 		.4byte	.LVL385
 15321 2056 04400000 		.4byte	0x4004
 15322 205a 65200000 		.4byte	0x2065
 15323 205e 10       		.uleb128 0x10
 15324 205f 01       		.uleb128 0x1
 15325 2060 50       		.byte	0x50
 15326 2061 02       		.uleb128 0x2
 15327 2062 74       		.byte	0x74
 15328 2063 00       		.sleb128 0
 15329 2064 00       		.byte	0
 15330 2065 0F       		.uleb128 0xf
 15331 2066 341E0000 		.4byte	.LVL386
 15332 206a 04400000 		.4byte	0x4004
 15333 206e 7E200000 		.4byte	0x207e
 15334 2072 10       		.uleb128 0x10
 15335 2073 01       		.uleb128 0x1
 15336 2074 51       		.byte	0x51
 15337 2075 01       		.uleb128 0x1
 15338 2076 3A       		.byte	0x3a
 15339 2077 10       		.uleb128 0x10
 15340 2078 01       		.uleb128 0x1
 15341 2079 50       		.byte	0x50
 15342 207a 02       		.uleb128 0x2
 15343 207b 74       		.byte	0x74
 15344 207c 00       		.sleb128 0
 15345 207d 00       		.byte	0
 15346 207e 0F       		.uleb128 0xf
 15347 207f 3C1E0000 		.4byte	.LVL387
 15348 2083 1E400000 		.4byte	0x401e
 15349 2087 97200000 		.4byte	0x2097
 15350 208b 10       		.uleb128 0x10
 15351 208c 01       		.uleb128 0x1
 15352 208d 51       		.byte	0x51
 15353 208e 02       		.uleb128 0x2
 15354 208f 74       		.byte	0x74
 15355 2090 00       		.sleb128 0
 15356 2091 10       		.uleb128 0x10
 15357 2092 01       		.uleb128 0x1
 15358 2093 50       		.byte	0x50
 15359 2094 01       		.uleb128 0x1
 15360 2095 3C       		.byte	0x3c
 15361 2096 00       		.byte	0
 15362 2097 0F       		.uleb128 0xf
 15363 2098 501E0000 		.4byte	.LVL388
 15364 209c 04400000 		.4byte	0x4004
 15365 20a0 AB200000 		.4byte	0x20ab
ARM GAS  C:\Users\diego\AppData\Local\Temp\ccvEcbYb.s 			page 314


 15366 20a4 10       		.uleb128 0x10
 15367 20a5 01       		.uleb128 0x1
 15368 20a6 50       		.byte	0x50
 15369 20a7 02       		.uleb128 0x2
 15370 20a8 74       		.byte	0x74
 15371 20a9 00       		.sleb128 0
 15372 20aa 00       		.byte	0
 15373 20ab 0F       		.uleb128 0xf
 15374 20ac 681E0000 		.4byte	.LVL389
 15375 20b0 04400000 		.4byte	0x4004
 15376 20b4 C4200000 		.4byte	0x20c4
 15377 20b8 10       		.uleb128 0x10
 15378 20b9 01       		.uleb128 0x1
 15379 20ba 51       		.byte	0x51
 15380 20bb 01       		.uleb128 0x1
 15381 20bc 3A       		.byte	0x3a
 15382 20bd 10       		.uleb128 0x10
 15383 20be 01       		.uleb128 0x1
 15384 20bf 50       		.byte	0x50
 15385 20c0 02       		.uleb128 0x2
 15386 20c1 74       		.byte	0x74
 15387 20c2 00       		.sleb128 0
 15388 20c3 00       		.byte	0
 15389 20c4 0F       		.uleb128 0xf
 15390 20c5 781E0000 		.4byte	.LVL390
 15391 20c9 34400000 		.4byte	0x4034
 15392 20cd DD200000 		.4byte	0x20dd
 15393 20d1 10       		.uleb128 0x10
 15394 20d2 01       		.uleb128 0x1
 15395 20d3 51       		.byte	0x51
 15396 20d4 01       		.uleb128 0x1
 15397 20d5 49       		.byte	0x49
 15398 20d6 10       		.uleb128 0x10
 15399 20d7 01       		.uleb128 0x1
 15400 20d8 50       		.byte	0x50
 15401 20d9 02       		.uleb128 0x2
 15402 20da 08       		.byte	0x8
 15403 20db D9       		.byte	0xd9
 15404 20dc 00       		.byte	0
 15405 20dd 0F       		.uleb128 0xf
 15406 20de 8A1E0000 		.4byte	.LVL391
 15407 20e2 34400000 		.4byte	0x4034
 15408 20e6 F7200000 		.4byte	0x20f7
 15409 20ea 10       		.uleb128 0x10
 15410 20eb 01       		.uleb128 0x1
 15411 20ec 51       		.byte	0x51
 15412 20ed 01       		.uleb128 0x1
 15413 20ee 49       		.byte	0x49
 15414 20ef 10       		.uleb128 0x10
 15415 20f0 01       		.uleb128 0x1
 15416 20f1 50       		.byte	0x50
 15417 20f2 03       		.uleb128 0x3
 15418 20f3 0A       		.byte	0xa
 15419 20f4 C104     		.2byte	0x4c1
 15420 20f6 00       		.byte	0
 15421 20f7 0F       		.uleb128 0xf
 15422 20f8 9C1E0000 		.4byte	.LVL392
ARM GAS  C:\Users\diego\AppData\Local\Temp\ccvEcbYb.s 			page 315


 15423 20fc 34400000 		.4byte	0x4034
 15424 2100 11210000 		.4byte	0x2111
 15425 2104 10       		.uleb128 0x10
 15426 2105 01       		.uleb128 0x1
 15427 2106 51       		.byte	0x51
 15428 2107 01       		.uleb128 0x1
 15429 2108 49       		.byte	0x49
 15430 2109 10       		.uleb128 0x10
 15431 210a 01       		.uleb128 0x1
 15432 210b 50       		.byte	0x50
 15433 210c 03       		.uleb128 0x3
 15434 210d 0A       		.byte	0xa
 15435 210e 2505     		.2byte	0x525
 15436 2110 00       		.byte	0
 15437 2111 0F       		.uleb128 0xf
 15438 2112 A81E0000 		.4byte	.LVL393
 15439 2116 34400000 		.4byte	0x4034
 15440 211a 2B210000 		.4byte	0x212b
 15441 211e 10       		.uleb128 0x10
 15442 211f 01       		.uleb128 0x1
 15443 2120 51       		.byte	0x51
 15444 2121 01       		.uleb128 0x1
 15445 2122 49       		.byte	0x49
 15446 2123 10       		.uleb128 0x10
 15447 2124 01       		.uleb128 0x1
 15448 2125 50       		.byte	0x50
 15449 2126 03       		.uleb128 0x3
 15450 2127 0A       		.byte	0xa
 15451 2128 4001     		.2byte	0x140
 15452 212a 00       		.byte	0
 15453 212b 0F       		.uleb128 0xf
 15454 212c AE1E0000 		.4byte	.LVL394
 15455 2130 4E400000 		.4byte	0x404e
 15456 2134 3F210000 		.4byte	0x213f
 15457 2138 10       		.uleb128 0x10
 15458 2139 01       		.uleb128 0x1
 15459 213a 50       		.byte	0x50
 15460 213b 02       		.uleb128 0x2
 15461 213c 74       		.byte	0x74
 15462 213d 00       		.sleb128 0
 15463 213e 00       		.byte	0
 15464 213f 0F       		.uleb128 0xf
 15465 2140 F01E0000 		.4byte	.LVL395
 15466 2144 5F400000 		.4byte	0x405f
 15467 2148 5F210000 		.4byte	0x215f
 15468 214c 10       		.uleb128 0x10
 15469 214d 01       		.uleb128 0x1
 15470 214e 52       		.byte	0x52
 15471 214f 03       		.uleb128 0x3
 15472 2150 91       		.byte	0x91
 15473 2151 B47F     		.sleb128 -76
 15474 2153 10       		.uleb128 0x10
 15475 2154 01       		.uleb128 0x1
 15476 2155 51       		.byte	0x51
 15477 2156 02       		.uleb128 0x2
 15478 2157 91       		.byte	0x91
 15479 2158 44       		.sleb128 -60
ARM GAS  C:\Users\diego\AppData\Local\Temp\ccvEcbYb.s 			page 316


 15480 2159 10       		.uleb128 0x10
 15481 215a 01       		.uleb128 0x1
 15482 215b 50       		.byte	0x50
 15483 215c 01       		.uleb128 0x1
 15484 215d 32       		.byte	0x32
 15485 215e 00       		.byte	0
 15486 215f 0F       		.uleb128 0xf
 15487 2160 061F0000 		.4byte	.LVL396
 15488 2164 04400000 		.4byte	0x4004
 15489 2168 73210000 		.4byte	0x2173
 15490 216c 10       		.uleb128 0x10
 15491 216d 01       		.uleb128 0x1
 15492 216e 50       		.byte	0x50
 15493 216f 02       		.uleb128 0x2
 15494 2170 74       		.byte	0x74
 15495 2171 00       		.sleb128 0
 15496 2172 00       		.byte	0
 15497 2173 0F       		.uleb128 0xf
 15498 2174 1E1F0000 		.4byte	.LVL397
 15499 2178 7A400000 		.4byte	0x407a
 15500 217c 90210000 		.4byte	0x2190
 15501 2180 10       		.uleb128 0x10
 15502 2181 01       		.uleb128 0x1
 15503 2182 51       		.byte	0x51
 15504 2183 02       		.uleb128 0x2
 15505 2184 74       		.byte	0x74
 15506 2185 00       		.sleb128 0
 15507 2186 10       		.uleb128 0x10
 15508 2187 01       		.uleb128 0x1
 15509 2188 50       		.byte	0x50
 15510 2189 05       		.uleb128 0x5
 15511 218a 03       		.byte	0x3
 15512 218b 00000000 		.4byte	resultado
 15513 218f 00       		.byte	0
 15514 2190 0F       		.uleb128 0xf
 15515 2191 2E1F0000 		.4byte	.LVL398
 15516 2195 EA3F0000 		.4byte	0x3fea
 15517 2199 AA210000 		.4byte	0x21aa
 15518 219d 10       		.uleb128 0x10
 15519 219e 01       		.uleb128 0x1
 15520 219f 51       		.byte	0x51
 15521 21a0 02       		.uleb128 0x2
 15522 21a1 91       		.byte	0x91
 15523 21a2 54       		.sleb128 -44
 15524 21a3 10       		.uleb128 0x10
 15525 21a4 01       		.uleb128 0x1
 15526 21a5 50       		.byte	0x50
 15527 21a6 02       		.uleb128 0x2
 15528 21a7 08       		.byte	0x8
 15529 21a8 D9       		.byte	0xd9
 15530 21a9 00       		.byte	0
 15531 21aa 0F       		.uleb128 0xf
 15532 21ab 381F0000 		.4byte	.LVL399
 15533 21af EA3F0000 		.4byte	0x3fea
 15534 21b3 C8210000 		.4byte	0x21c8
 15535 21b7 10       		.uleb128 0x10
 15536 21b8 01       		.uleb128 0x1
ARM GAS  C:\Users\diego\AppData\Local\Temp\ccvEcbYb.s 			page 317


 15537 21b9 51       		.byte	0x51
 15538 21ba 05       		.uleb128 0x5
 15539 21bb 03       		.byte	0x3
 15540 21bc 00000000 		.4byte	resultado
 15541 21c0 10       		.uleb128 0x10
 15542 21c1 01       		.uleb128 0x1
 15543 21c2 50       		.byte	0x50
 15544 21c3 03       		.uleb128 0x3
 15545 21c4 0A       		.byte	0xa
 15546 21c5 1A02     		.2byte	0x21a
 15547 21c7 00       		.byte	0
 15548 21c8 0F       		.uleb128 0xf
 15549 21c9 4A1F0000 		.4byte	.LVL400
 15550 21cd EA3F0000 		.4byte	0x3fea
 15551 21d1 E3210000 		.4byte	0x21e3
 15552 21d5 10       		.uleb128 0x10
 15553 21d6 01       		.uleb128 0x1
 15554 21d7 51       		.byte	0x51
 15555 21d8 02       		.uleb128 0x2
 15556 21d9 91       		.byte	0x91
 15557 21da 54       		.sleb128 -44
 15558 21db 10       		.uleb128 0x10
 15559 21dc 01       		.uleb128 0x1
 15560 21dd 50       		.byte	0x50
 15561 21de 03       		.uleb128 0x3
 15562 21df 0A       		.byte	0xa
 15563 21e0 C104     		.2byte	0x4c1
 15564 21e2 00       		.byte	0
 15565 21e3 0F       		.uleb128 0xf
 15566 21e4 541F0000 		.4byte	.LVL401
 15567 21e8 EA3F0000 		.4byte	0x3fea
 15568 21ec 01220000 		.4byte	0x2201
 15569 21f0 10       		.uleb128 0x10
 15570 21f1 01       		.uleb128 0x1
 15571 21f2 51       		.byte	0x51
 15572 21f3 05       		.uleb128 0x5
 15573 21f4 03       		.byte	0x3
 15574 21f5 00000000 		.4byte	resultado
 15575 21f9 10       		.uleb128 0x10
 15576 21fa 01       		.uleb128 0x1
 15577 21fb 50       		.byte	0x50
 15578 21fc 03       		.uleb128 0x3
 15579 21fd 0A       		.byte	0xa
 15580 21fe 8A05     		.2byte	0x58a
 15581 2200 00       		.byte	0
 15582 2201 0F       		.uleb128 0xf
 15583 2202 661F0000 		.4byte	.LVL402
 15584 2206 EA3F0000 		.4byte	0x3fea
 15585 220a 1C220000 		.4byte	0x221c
 15586 220e 10       		.uleb128 0x10
 15587 220f 01       		.uleb128 0x1
 15588 2210 51       		.byte	0x51
 15589 2211 02       		.uleb128 0x2
 15590 2212 91       		.byte	0x91
 15591 2213 54       		.sleb128 -44
 15592 2214 10       		.uleb128 0x10
 15593 2215 01       		.uleb128 0x1
ARM GAS  C:\Users\diego\AppData\Local\Temp\ccvEcbYb.s 			page 318


 15594 2216 50       		.byte	0x50
 15595 2217 03       		.uleb128 0x3
 15596 2218 0A       		.byte	0xa
 15597 2219 2505     		.2byte	0x525
 15598 221b 00       		.byte	0
 15599 221c 0F       		.uleb128 0xf
 15600 221d 701F0000 		.4byte	.LVL403
 15601 2221 EA3F0000 		.4byte	0x3fea
 15602 2225 3A220000 		.4byte	0x223a
 15603 2229 10       		.uleb128 0x10
 15604 222a 01       		.uleb128 0x1
 15605 222b 51       		.byte	0x51
 15606 222c 05       		.uleb128 0x5
 15607 222d 03       		.byte	0x3
 15608 222e 00000000 		.4byte	resultado
 15609 2232 10       		.uleb128 0x10
 15610 2233 01       		.uleb128 0x1
 15611 2234 50       		.byte	0x50
 15612 2235 03       		.uleb128 0x3
 15613 2236 0A       		.byte	0xa
 15614 2237 9705     		.2byte	0x597
 15615 2239 00       		.byte	0
 15616 223a 0F       		.uleb128 0xf
 15617 223b BE1F0000 		.4byte	.LVL404
 15618 223f EA3F0000 		.4byte	0x3fea
 15619 2243 55220000 		.4byte	0x2255
 15620 2247 10       		.uleb128 0x10
 15621 2248 01       		.uleb128 0x1
 15622 2249 51       		.byte	0x51
 15623 224a 02       		.uleb128 0x2
 15624 224b 91       		.byte	0x91
 15625 224c 54       		.sleb128 -44
 15626 224d 10       		.uleb128 0x10
 15627 224e 01       		.uleb128 0x1
 15628 224f 50       		.byte	0x50
 15629 2250 03       		.uleb128 0x3
 15630 2251 0A       		.byte	0xa
 15631 2252 4001     		.2byte	0x140
 15632 2254 00       		.byte	0
 15633 2255 0F       		.uleb128 0xf
 15634 2256 C81F0000 		.4byte	.LVL405
 15635 225a EA3F0000 		.4byte	0x3fea
 15636 225e 73220000 		.4byte	0x2273
 15637 2262 10       		.uleb128 0x10
 15638 2263 01       		.uleb128 0x1
 15639 2264 51       		.byte	0x51
 15640 2265 05       		.uleb128 0x5
 15641 2266 03       		.byte	0x3
 15642 2267 00000000 		.4byte	resultado
 15643 226b 10       		.uleb128 0x10
 15644 226c 01       		.uleb128 0x1
 15645 226d 50       		.byte	0x50
 15646 226e 03       		.uleb128 0x3
 15647 226f 0A       		.byte	0xa
 15648 2270 4002     		.2byte	0x240
 15649 2272 00       		.byte	0
 15650 2273 0F       		.uleb128 0xf
ARM GAS  C:\Users\diego\AppData\Local\Temp\ccvEcbYb.s 			page 319


 15651 2274 34200000 		.4byte	.LVL406
 15652 2278 04400000 		.4byte	0x4004
 15653 227c 87220000 		.4byte	0x2287
 15654 2280 10       		.uleb128 0x10
 15655 2281 01       		.uleb128 0x1
 15656 2282 50       		.byte	0x50
 15657 2283 02       		.uleb128 0x2
 15658 2284 74       		.byte	0x74
 15659 2285 00       		.sleb128 0
 15660 2286 00       		.byte	0
 15661 2287 0F       		.uleb128 0xf
 15662 2288 4C200000 		.4byte	.LVL407
 15663 228c 04400000 		.4byte	0x4004
 15664 2290 A0220000 		.4byte	0x22a0
 15665 2294 10       		.uleb128 0x10
 15666 2295 01       		.uleb128 0x1
 15667 2296 51       		.byte	0x51
 15668 2297 01       		.uleb128 0x1
 15669 2298 3A       		.byte	0x3a
 15670 2299 10       		.uleb128 0x10
 15671 229a 01       		.uleb128 0x1
 15672 229b 50       		.byte	0x50
 15673 229c 02       		.uleb128 0x2
 15674 229d 74       		.byte	0x74
 15675 229e 00       		.sleb128 0
 15676 229f 00       		.byte	0
 15677 22a0 0F       		.uleb128 0xf
 15678 22a1 5E200000 		.4byte	.LVL408
 15679 22a5 04400000 		.4byte	0x4004
 15680 22a9 B4220000 		.4byte	0x22b4
 15681 22ad 10       		.uleb128 0x10
 15682 22ae 01       		.uleb128 0x1
 15683 22af 50       		.byte	0x50
 15684 22b0 02       		.uleb128 0x2
 15685 22b1 74       		.byte	0x74
 15686 22b2 00       		.sleb128 0
 15687 22b3 00       		.byte	0
 15688 22b4 0F       		.uleb128 0xf
 15689 22b5 76200000 		.4byte	.LVL409
 15690 22b9 04400000 		.4byte	0x4004
 15691 22bd CD220000 		.4byte	0x22cd
 15692 22c1 10       		.uleb128 0x10
 15693 22c2 01       		.uleb128 0x1
 15694 22c3 51       		.byte	0x51
 15695 22c4 01       		.uleb128 0x1
 15696 22c5 3A       		.byte	0x3a
 15697 22c6 10       		.uleb128 0x10
 15698 22c7 01       		.uleb128 0x1
 15699 22c8 50       		.byte	0x50
 15700 22c9 02       		.uleb128 0x2
 15701 22ca 74       		.byte	0x74
 15702 22cb 00       		.sleb128 0
 15703 22cc 00       		.byte	0
 15704 22cd 0F       		.uleb128 0xf
 15705 22ce 8A200000 		.4byte	.LVL410
 15706 22d2 04400000 		.4byte	0x4004
 15707 22d6 E1220000 		.4byte	0x22e1
ARM GAS  C:\Users\diego\AppData\Local\Temp\ccvEcbYb.s 			page 320


 15708 22da 10       		.uleb128 0x10
 15709 22db 01       		.uleb128 0x1
 15710 22dc 50       		.byte	0x50
 15711 22dd 02       		.uleb128 0x2
 15712 22de 74       		.byte	0x74
 15713 22df 00       		.sleb128 0
 15714 22e0 00       		.byte	0
 15715 22e1 0F       		.uleb128 0xf
 15716 22e2 A2200000 		.4byte	.LVL411
 15717 22e6 04400000 		.4byte	0x4004
 15718 22ea FA220000 		.4byte	0x22fa
 15719 22ee 10       		.uleb128 0x10
 15720 22ef 01       		.uleb128 0x1
 15721 22f0 51       		.byte	0x51
 15722 22f1 01       		.uleb128 0x1
 15723 22f2 3A       		.byte	0x3a
 15724 22f3 10       		.uleb128 0x10
 15725 22f4 01       		.uleb128 0x1
 15726 22f5 50       		.byte	0x50
 15727 22f6 02       		.uleb128 0x2
 15728 22f7 74       		.byte	0x74
 15729 22f8 00       		.sleb128 0
 15730 22f9 00       		.byte	0
 15731 22fa 0F       		.uleb128 0xf
 15732 22fb AA200000 		.4byte	.LVL412
 15733 22ff 1E400000 		.4byte	0x401e
 15734 2303 13230000 		.4byte	0x2313
 15735 2307 10       		.uleb128 0x10
 15736 2308 01       		.uleb128 0x1
 15737 2309 51       		.byte	0x51
 15738 230a 02       		.uleb128 0x2
 15739 230b 74       		.byte	0x74
 15740 230c 00       		.sleb128 0
 15741 230d 10       		.uleb128 0x10
 15742 230e 01       		.uleb128 0x1
 15743 230f 50       		.byte	0x50
 15744 2310 01       		.uleb128 0x1
 15745 2311 3C       		.byte	0x3c
 15746 2312 00       		.byte	0
 15747 2313 0F       		.uleb128 0xf
 15748 2314 BE200000 		.4byte	.LVL413
 15749 2318 04400000 		.4byte	0x4004
 15750 231c 27230000 		.4byte	0x2327
 15751 2320 10       		.uleb128 0x10
 15752 2321 01       		.uleb128 0x1
 15753 2322 50       		.byte	0x50
 15754 2323 02       		.uleb128 0x2
 15755 2324 74       		.byte	0x74
 15756 2325 00       		.sleb128 0
 15757 2326 00       		.byte	0
 15758 2327 0F       		.uleb128 0xf
 15759 2328 D6200000 		.4byte	.LVL414
 15760 232c 04400000 		.4byte	0x4004
 15761 2330 40230000 		.4byte	0x2340
 15762 2334 10       		.uleb128 0x10
 15763 2335 01       		.uleb128 0x1
 15764 2336 51       		.byte	0x51
ARM GAS  C:\Users\diego\AppData\Local\Temp\ccvEcbYb.s 			page 321


 15765 2337 01       		.uleb128 0x1
 15766 2338 3A       		.byte	0x3a
 15767 2339 10       		.uleb128 0x10
 15768 233a 01       		.uleb128 0x1
 15769 233b 50       		.byte	0x50
 15770 233c 02       		.uleb128 0x2
 15771 233d 74       		.byte	0x74
 15772 233e 00       		.sleb128 0
 15773 233f 00       		.byte	0
 15774 2340 0F       		.uleb128 0xf
 15775 2341 E8200000 		.4byte	.LVL415
 15776 2345 34400000 		.4byte	0x4034
 15777 2349 5A230000 		.4byte	0x235a
 15778 234d 10       		.uleb128 0x10
 15779 234e 01       		.uleb128 0x1
 15780 234f 51       		.byte	0x51
 15781 2350 01       		.uleb128 0x1
 15782 2351 49       		.byte	0x49
 15783 2352 10       		.uleb128 0x10
 15784 2353 01       		.uleb128 0x1
 15785 2354 50       		.byte	0x50
 15786 2355 03       		.uleb128 0x3
 15787 2356 0A       		.byte	0xa
 15788 2357 0001     		.2byte	0x100
 15789 2359 00       		.byte	0
 15790 235a 0F       		.uleb128 0xf
 15791 235b FA200000 		.4byte	.LVL416
 15792 235f 34400000 		.4byte	0x4034
 15793 2363 74230000 		.4byte	0x2374
 15794 2367 10       		.uleb128 0x10
 15795 2368 01       		.uleb128 0x1
 15796 2369 51       		.byte	0x51
 15797 236a 01       		.uleb128 0x1
 15798 236b 49       		.byte	0x49
 15799 236c 10       		.uleb128 0x10
 15800 236d 01       		.uleb128 0x1
 15801 236e 50       		.byte	0x50
 15802 236f 03       		.uleb128 0x3
 15803 2370 0A       		.byte	0xa
 15804 2371 3E05     		.2byte	0x53e
 15805 2373 00       		.byte	0
 15806 2374 0F       		.uleb128 0xf
 15807 2375 0C210000 		.4byte	.LVL417
 15808 2379 34400000 		.4byte	0x4034
 15809 237d 8E230000 		.4byte	0x238e
 15810 2381 10       		.uleb128 0x10
 15811 2382 01       		.uleb128 0x1
 15812 2383 51       		.byte	0x51
 15813 2384 01       		.uleb128 0x1
 15814 2385 49       		.byte	0x49
 15815 2386 10       		.uleb128 0x10
 15816 2387 01       		.uleb128 0x1
 15817 2388 50       		.byte	0x50
 15818 2389 03       		.uleb128 0x3
 15819 238a 0A       		.byte	0xa
 15820 238b DA04     		.2byte	0x4da
 15821 238d 00       		.byte	0
ARM GAS  C:\Users\diego\AppData\Local\Temp\ccvEcbYb.s 			page 322


 15822 238e 0F       		.uleb128 0xf
 15823 238f 18210000 		.4byte	.LVL418
 15824 2393 34400000 		.4byte	0x4034
 15825 2397 A8230000 		.4byte	0x23a8
 15826 239b 10       		.uleb128 0x10
 15827 239c 01       		.uleb128 0x1
 15828 239d 51       		.byte	0x51
 15829 239e 01       		.uleb128 0x1
 15830 239f 49       		.byte	0x49
 15831 23a0 10       		.uleb128 0x10
 15832 23a1 01       		.uleb128 0x1
 15833 23a2 50       		.byte	0x50
 15834 23a3 03       		.uleb128 0x3
 15835 23a4 0A       		.byte	0xa
 15836 23a5 5901     		.2byte	0x159
 15837 23a7 00       		.byte	0
 15838 23a8 0F       		.uleb128 0xf
 15839 23a9 1E210000 		.4byte	.LVL419
 15840 23ad 4E400000 		.4byte	0x404e
 15841 23b1 BC230000 		.4byte	0x23bc
 15842 23b5 10       		.uleb128 0x10
 15843 23b6 01       		.uleb128 0x1
 15844 23b7 50       		.byte	0x50
 15845 23b8 02       		.uleb128 0x2
 15846 23b9 74       		.byte	0x74
 15847 23ba 00       		.sleb128 0
 15848 23bb 00       		.byte	0
 15849 23bc 0F       		.uleb128 0xf
 15850 23bd 60210000 		.4byte	.LVL420
 15851 23c1 5F400000 		.4byte	0x405f
 15852 23c5 DC230000 		.4byte	0x23dc
 15853 23c9 10       		.uleb128 0x10
 15854 23ca 01       		.uleb128 0x1
 15855 23cb 52       		.byte	0x52
 15856 23cc 03       		.uleb128 0x3
 15857 23cd 91       		.byte	0x91
 15858 23ce B47F     		.sleb128 -76
 15859 23d0 10       		.uleb128 0x10
 15860 23d1 01       		.uleb128 0x1
 15861 23d2 51       		.byte	0x51
 15862 23d3 02       		.uleb128 0x2
 15863 23d4 91       		.byte	0x91
 15864 23d5 44       		.sleb128 -60
 15865 23d6 10       		.uleb128 0x10
 15866 23d7 01       		.uleb128 0x1
 15867 23d8 50       		.byte	0x50
 15868 23d9 01       		.uleb128 0x1
 15869 23da 32       		.byte	0x32
 15870 23db 00       		.byte	0
 15871 23dc 0F       		.uleb128 0xf
 15872 23dd 76210000 		.4byte	.LVL421
 15873 23e1 04400000 		.4byte	0x4004
 15874 23e5 F0230000 		.4byte	0x23f0
 15875 23e9 10       		.uleb128 0x10
 15876 23ea 01       		.uleb128 0x1
 15877 23eb 50       		.byte	0x50
 15878 23ec 02       		.uleb128 0x2
ARM GAS  C:\Users\diego\AppData\Local\Temp\ccvEcbYb.s 			page 323


 15879 23ed 74       		.byte	0x74
 15880 23ee 00       		.sleb128 0
 15881 23ef 00       		.byte	0
 15882 23f0 0F       		.uleb128 0xf
 15883 23f1 8E210000 		.4byte	.LVL422
 15884 23f5 7A400000 		.4byte	0x407a
 15885 23f9 0D240000 		.4byte	0x240d
 15886 23fd 10       		.uleb128 0x10
 15887 23fe 01       		.uleb128 0x1
 15888 23ff 51       		.byte	0x51
 15889 2400 02       		.uleb128 0x2
 15890 2401 74       		.byte	0x74
 15891 2402 00       		.sleb128 0
 15892 2403 10       		.uleb128 0x10
 15893 2404 01       		.uleb128 0x1
 15894 2405 50       		.byte	0x50
 15895 2406 05       		.uleb128 0x5
 15896 2407 03       		.byte	0x3
 15897 2408 00000000 		.4byte	resultado
 15898 240c 00       		.byte	0
 15899 240d 0F       		.uleb128 0xf
 15900 240e A0210000 		.4byte	.LVL423
 15901 2412 EA3F0000 		.4byte	0x3fea
 15902 2416 28240000 		.4byte	0x2428
 15903 241a 10       		.uleb128 0x10
 15904 241b 01       		.uleb128 0x1
 15905 241c 51       		.byte	0x51
 15906 241d 02       		.uleb128 0x2
 15907 241e 91       		.byte	0x91
 15908 241f 54       		.sleb128 -44
 15909 2420 10       		.uleb128 0x10
 15910 2421 01       		.uleb128 0x1
 15911 2422 50       		.byte	0x50
 15912 2423 03       		.uleb128 0x3
 15913 2424 0A       		.byte	0xa
 15914 2425 0001     		.2byte	0x100
 15915 2427 00       		.byte	0
 15916 2428 0F       		.uleb128 0xf
 15917 2429 AA210000 		.4byte	.LVL424
 15918 242d EA3F0000 		.4byte	0x3fea
 15919 2431 46240000 		.4byte	0x2446
 15920 2435 10       		.uleb128 0x10
 15921 2436 01       		.uleb128 0x1
 15922 2437 51       		.byte	0x51
 15923 2438 05       		.uleb128 0x5
 15924 2439 03       		.byte	0x3
 15925 243a 00000000 		.4byte	resultado
 15926 243e 10       		.uleb128 0x10
 15927 243f 01       		.uleb128 0x1
 15928 2440 50       		.byte	0x50
 15929 2441 03       		.uleb128 0x3
 15930 2442 0A       		.byte	0xa
 15931 2443 0D02     		.2byte	0x20d
 15932 2445 00       		.byte	0
 15933 2446 0F       		.uleb128 0xf
 15934 2447 BC210000 		.4byte	.LVL425
 15935 244b EA3F0000 		.4byte	0x3fea
ARM GAS  C:\Users\diego\AppData\Local\Temp\ccvEcbYb.s 			page 324


 15936 244f 61240000 		.4byte	0x2461
 15937 2453 10       		.uleb128 0x10
 15938 2454 01       		.uleb128 0x1
 15939 2455 51       		.byte	0x51
 15940 2456 02       		.uleb128 0x2
 15941 2457 91       		.byte	0x91
 15942 2458 54       		.sleb128 -44
 15943 2459 10       		.uleb128 0x10
 15944 245a 01       		.uleb128 0x1
 15945 245b 50       		.byte	0x50
 15946 245c 03       		.uleb128 0x3
 15947 245d 0A       		.byte	0xa
 15948 245e 3E05     		.2byte	0x53e
 15949 2460 00       		.byte	0
 15950 2461 0F       		.uleb128 0xf
 15951 2462 C6210000 		.4byte	.LVL426
 15952 2466 EA3F0000 		.4byte	0x3fea
 15953 246a 7F240000 		.4byte	0x247f
 15954 246e 10       		.uleb128 0x10
 15955 246f 01       		.uleb128 0x1
 15956 2470 51       		.byte	0x51
 15957 2471 05       		.uleb128 0x5
 15958 2472 03       		.byte	0x3
 15959 2473 00000000 		.4byte	resultado
 15960 2477 10       		.uleb128 0x10
 15961 2478 01       		.uleb128 0x1
 15962 2479 50       		.byte	0x50
 15963 247a 03       		.uleb128 0x3
 15964 247b 0A       		.byte	0xa
 15965 247c A305     		.2byte	0x5a3
 15966 247e 00       		.byte	0
 15967 247f 0F       		.uleb128 0xf
 15968 2480 D8210000 		.4byte	.LVL427
 15969 2484 EA3F0000 		.4byte	0x3fea
 15970 2488 9A240000 		.4byte	0x249a
 15971 248c 10       		.uleb128 0x10
 15972 248d 01       		.uleb128 0x1
 15973 248e 51       		.byte	0x51
 15974 248f 02       		.uleb128 0x2
 15975 2490 91       		.byte	0x91
 15976 2491 54       		.sleb128 -44
 15977 2492 10       		.uleb128 0x10
 15978 2493 01       		.uleb128 0x1
 15979 2494 50       		.byte	0x50
 15980 2495 03       		.uleb128 0x3
 15981 2496 0A       		.byte	0xa
 15982 2497 DA04     		.2byte	0x4da
 15983 2499 00       		.byte	0
 15984 249a 0F       		.uleb128 0xf
 15985 249b E2210000 		.4byte	.LVL428
 15986 249f EA3F0000 		.4byte	0x3fea
 15987 24a3 B8240000 		.4byte	0x24b8
 15988 24a7 10       		.uleb128 0x10
 15989 24a8 01       		.uleb128 0x1
 15990 24a9 51       		.byte	0x51
 15991 24aa 05       		.uleb128 0x5
 15992 24ab 03       		.byte	0x3
ARM GAS  C:\Users\diego\AppData\Local\Temp\ccvEcbYb.s 			page 325


 15993 24ac 00000000 		.4byte	resultado
 15994 24b0 10       		.uleb128 0x10
 15995 24b1 01       		.uleb128 0x1
 15996 24b2 50       		.byte	0x50
 15997 24b3 03       		.uleb128 0x3
 15998 24b4 0A       		.byte	0xa
 15999 24b5 B005     		.2byte	0x5b0
 16000 24b7 00       		.byte	0
 16001 24b8 0F       		.uleb128 0xf
 16002 24b9 EE210000 		.4byte	.LVL429
 16003 24bd EA3F0000 		.4byte	0x3fea
 16004 24c1 D3240000 		.4byte	0x24d3
 16005 24c5 10       		.uleb128 0x10
 16006 24c6 01       		.uleb128 0x1
 16007 24c7 51       		.byte	0x51
 16008 24c8 02       		.uleb128 0x2
 16009 24c9 91       		.byte	0x91
 16010 24ca 54       		.sleb128 -44
 16011 24cb 10       		.uleb128 0x10
 16012 24cc 01       		.uleb128 0x1
 16013 24cd 50       		.byte	0x50
 16014 24ce 03       		.uleb128 0x3
 16015 24cf 0A       		.byte	0xa
 16016 24d0 5901     		.2byte	0x159
 16017 24d2 00       		.byte	0
 16018 24d3 0F       		.uleb128 0xf
 16019 24d4 F8210000 		.4byte	.LVL430
 16020 24d8 EA3F0000 		.4byte	0x3fea
 16021 24dc F1240000 		.4byte	0x24f1
 16022 24e0 10       		.uleb128 0x10
 16023 24e1 01       		.uleb128 0x1
 16024 24e2 51       		.byte	0x51
 16025 24e3 05       		.uleb128 0x5
 16026 24e4 03       		.byte	0x3
 16027 24e5 00000000 		.4byte	resultado
 16028 24e9 10       		.uleb128 0x10
 16029 24ea 01       		.uleb128 0x1
 16030 24eb 50       		.byte	0x50
 16031 24ec 03       		.uleb128 0x3
 16032 24ed 0A       		.byte	0xa
 16033 24ee 4D02     		.2byte	0x24d
 16034 24f0 00       		.byte	0
 16035 24f1 0F       		.uleb128 0xf
 16036 24f2 B6220000 		.4byte	.LVL431
 16037 24f6 04400000 		.4byte	0x4004
 16038 24fa 05250000 		.4byte	0x2505
 16039 24fe 10       		.uleb128 0x10
 16040 24ff 01       		.uleb128 0x1
 16041 2500 50       		.byte	0x50
 16042 2501 02       		.uleb128 0x2
 16043 2502 74       		.byte	0x74
 16044 2503 00       		.sleb128 0
 16045 2504 00       		.byte	0
 16046 2505 0F       		.uleb128 0xf
 16047 2506 CE220000 		.4byte	.LVL432
 16048 250a 04400000 		.4byte	0x4004
 16049 250e 1E250000 		.4byte	0x251e
ARM GAS  C:\Users\diego\AppData\Local\Temp\ccvEcbYb.s 			page 326


 16050 2512 10       		.uleb128 0x10
 16051 2513 01       		.uleb128 0x1
 16052 2514 51       		.byte	0x51
 16053 2515 01       		.uleb128 0x1
 16054 2516 3A       		.byte	0x3a
 16055 2517 10       		.uleb128 0x10
 16056 2518 01       		.uleb128 0x1
 16057 2519 50       		.byte	0x50
 16058 251a 02       		.uleb128 0x2
 16059 251b 74       		.byte	0x74
 16060 251c 00       		.sleb128 0
 16061 251d 00       		.byte	0
 16062 251e 0F       		.uleb128 0xf
 16063 251f E0220000 		.4byte	.LVL433
 16064 2523 04400000 		.4byte	0x4004
 16065 2527 32250000 		.4byte	0x2532
 16066 252b 10       		.uleb128 0x10
 16067 252c 01       		.uleb128 0x1
 16068 252d 50       		.byte	0x50
 16069 252e 02       		.uleb128 0x2
 16070 252f 74       		.byte	0x74
 16071 2530 00       		.sleb128 0
 16072 2531 00       		.byte	0
 16073 2532 0F       		.uleb128 0xf
 16074 2533 F8220000 		.4byte	.LVL434
 16075 2537 04400000 		.4byte	0x4004
 16076 253b 4B250000 		.4byte	0x254b
 16077 253f 10       		.uleb128 0x10
 16078 2540 01       		.uleb128 0x1
 16079 2541 51       		.byte	0x51
 16080 2542 01       		.uleb128 0x1
 16081 2543 3A       		.byte	0x3a
 16082 2544 10       		.uleb128 0x10
 16083 2545 01       		.uleb128 0x1
 16084 2546 50       		.byte	0x50
 16085 2547 02       		.uleb128 0x2
 16086 2548 74       		.byte	0x74
 16087 2549 00       		.sleb128 0
 16088 254a 00       		.byte	0
 16089 254b 0F       		.uleb128 0xf
 16090 254c 0C230000 		.4byte	.LVL435
 16091 2550 04400000 		.4byte	0x4004
 16092 2554 5F250000 		.4byte	0x255f
 16093 2558 10       		.uleb128 0x10
 16094 2559 01       		.uleb128 0x1
 16095 255a 50       		.byte	0x50
 16096 255b 02       		.uleb128 0x2
 16097 255c 74       		.byte	0x74
 16098 255d 00       		.sleb128 0
 16099 255e 00       		.byte	0
 16100 255f 0F       		.uleb128 0xf
 16101 2560 24230000 		.4byte	.LVL436
 16102 2564 04400000 		.4byte	0x4004
 16103 2568 78250000 		.4byte	0x2578
 16104 256c 10       		.uleb128 0x10
 16105 256d 01       		.uleb128 0x1
 16106 256e 51       		.byte	0x51
ARM GAS  C:\Users\diego\AppData\Local\Temp\ccvEcbYb.s 			page 327


 16107 256f 01       		.uleb128 0x1
 16108 2570 3A       		.byte	0x3a
 16109 2571 10       		.uleb128 0x10
 16110 2572 01       		.uleb128 0x1
 16111 2573 50       		.byte	0x50
 16112 2574 02       		.uleb128 0x2
 16113 2575 74       		.byte	0x74
 16114 2576 00       		.sleb128 0
 16115 2577 00       		.byte	0
 16116 2578 0F       		.uleb128 0xf
 16117 2579 2C230000 		.4byte	.LVL437
 16118 257d 1E400000 		.4byte	0x401e
 16119 2581 91250000 		.4byte	0x2591
 16120 2585 10       		.uleb128 0x10
 16121 2586 01       		.uleb128 0x1
 16122 2587 51       		.byte	0x51
 16123 2588 02       		.uleb128 0x2
 16124 2589 74       		.byte	0x74
 16125 258a 00       		.sleb128 0
 16126 258b 10       		.uleb128 0x10
 16127 258c 01       		.uleb128 0x1
 16128 258d 50       		.byte	0x50
 16129 258e 01       		.uleb128 0x1
 16130 258f 3C       		.byte	0x3c
 16131 2590 00       		.byte	0
 16132 2591 0F       		.uleb128 0xf
 16133 2592 40230000 		.4byte	.LVL438
 16134 2596 04400000 		.4byte	0x4004
 16135 259a A5250000 		.4byte	0x25a5
 16136 259e 10       		.uleb128 0x10
 16137 259f 01       		.uleb128 0x1
 16138 25a0 50       		.byte	0x50
 16139 25a1 02       		.uleb128 0x2
 16140 25a2 74       		.byte	0x74
 16141 25a3 00       		.sleb128 0
 16142 25a4 00       		.byte	0
 16143 25a5 0F       		.uleb128 0xf
 16144 25a6 58230000 		.4byte	.LVL439
 16145 25aa 04400000 		.4byte	0x4004
 16146 25ae BE250000 		.4byte	0x25be
 16147 25b2 10       		.uleb128 0x10
 16148 25b3 01       		.uleb128 0x1
 16149 25b4 51       		.byte	0x51
 16150 25b5 01       		.uleb128 0x1
 16151 25b6 3A       		.byte	0x3a
 16152 25b7 10       		.uleb128 0x10
 16153 25b8 01       		.uleb128 0x1
 16154 25b9 50       		.byte	0x50
 16155 25ba 02       		.uleb128 0x2
 16156 25bb 74       		.byte	0x74
 16157 25bc 00       		.sleb128 0
 16158 25bd 00       		.byte	0
 16159 25be 0F       		.uleb128 0xf
 16160 25bf 6A230000 		.4byte	.LVL440
 16161 25c3 34400000 		.4byte	0x4034
 16162 25c7 D8250000 		.4byte	0x25d8
 16163 25cb 10       		.uleb128 0x10
ARM GAS  C:\Users\diego\AppData\Local\Temp\ccvEcbYb.s 			page 328


 16164 25cc 01       		.uleb128 0x1
 16165 25cd 51       		.byte	0x51
 16166 25ce 01       		.uleb128 0x1
 16167 25cf 49       		.byte	0x49
 16168 25d0 10       		.uleb128 0x10
 16169 25d1 01       		.uleb128 0x1
 16170 25d2 50       		.byte	0x50
 16171 25d3 03       		.uleb128 0x3
 16172 25d4 0A       		.byte	0xa
 16173 25d5 4804     		.2byte	0x448
 16174 25d7 00       		.byte	0
 16175 25d8 0F       		.uleb128 0xf
 16176 25d9 7C230000 		.4byte	.LVL441
 16177 25dd 34400000 		.4byte	0x4034
 16178 25e1 F2250000 		.4byte	0x25f2
 16179 25e5 10       		.uleb128 0x10
 16180 25e6 01       		.uleb128 0x1
 16181 25e7 51       		.byte	0x51
 16182 25e8 01       		.uleb128 0x1
 16183 25e9 49       		.byte	0x49
 16184 25ea 10       		.uleb128 0x10
 16185 25eb 01       		.uleb128 0x1
 16186 25ec 50       		.byte	0x50
 16187 25ed 03       		.uleb128 0x3
 16188 25ee 0A       		.byte	0xa
 16189 25ef F304     		.2byte	0x4f3
 16190 25f1 00       		.byte	0
 16191 25f2 0F       		.uleb128 0xf
 16192 25f3 8E230000 		.4byte	.LVL442
 16193 25f7 34400000 		.4byte	0x4034
 16194 25fb 0C260000 		.4byte	0x260c
 16195 25ff 10       		.uleb128 0x10
 16196 2600 01       		.uleb128 0x1
 16197 2601 51       		.byte	0x51
 16198 2602 01       		.uleb128 0x1
 16199 2603 49       		.byte	0x49
 16200 2604 10       		.uleb128 0x10
 16201 2605 01       		.uleb128 0x1
 16202 2606 50       		.byte	0x50
 16203 2607 03       		.uleb128 0x3
 16204 2608 0A       		.byte	0xa
 16205 2609 5705     		.2byte	0x557
 16206 260b 00       		.byte	0
 16207 260c 0F       		.uleb128 0xf
 16208 260d 9A230000 		.4byte	.LVL443
 16209 2611 34400000 		.4byte	0x4034
 16210 2615 26260000 		.4byte	0x2626
 16211 2619 10       		.uleb128 0x10
 16212 261a 01       		.uleb128 0x1
 16213 261b 51       		.byte	0x51
 16214 261c 01       		.uleb128 0x1
 16215 261d 49       		.byte	0x49
 16216 261e 10       		.uleb128 0x10
 16217 261f 01       		.uleb128 0x1
 16218 2620 50       		.byte	0x50
 16219 2621 03       		.uleb128 0x3
 16220 2622 0A       		.byte	0xa
ARM GAS  C:\Users\diego\AppData\Local\Temp\ccvEcbYb.s 			page 329


 16221 2623 1E04     		.2byte	0x41e
 16222 2625 00       		.byte	0
 16223 2626 0F       		.uleb128 0xf
 16224 2627 A0230000 		.4byte	.LVL444
 16225 262b 4E400000 		.4byte	0x404e
 16226 262f 3A260000 		.4byte	0x263a
 16227 2633 10       		.uleb128 0x10
 16228 2634 01       		.uleb128 0x1
 16229 2635 50       		.byte	0x50
 16230 2636 02       		.uleb128 0x2
 16231 2637 74       		.byte	0x74
 16232 2638 00       		.sleb128 0
 16233 2639 00       		.byte	0
 16234 263a 0F       		.uleb128 0xf
 16235 263b E2230000 		.4byte	.LVL445
 16236 263f 5F400000 		.4byte	0x405f
 16237 2643 5A260000 		.4byte	0x265a
 16238 2647 10       		.uleb128 0x10
 16239 2648 01       		.uleb128 0x1
 16240 2649 52       		.byte	0x52
 16241 264a 03       		.uleb128 0x3
 16242 264b 91       		.byte	0x91
 16243 264c B47F     		.sleb128 -76
 16244 264e 10       		.uleb128 0x10
 16245 264f 01       		.uleb128 0x1
 16246 2650 51       		.byte	0x51
 16247 2651 02       		.uleb128 0x2
 16248 2652 91       		.byte	0x91
 16249 2653 44       		.sleb128 -60
 16250 2654 10       		.uleb128 0x10
 16251 2655 01       		.uleb128 0x1
 16252 2656 50       		.byte	0x50
 16253 2657 01       		.uleb128 0x1
 16254 2658 32       		.byte	0x32
 16255 2659 00       		.byte	0
 16256 265a 0F       		.uleb128 0xf
 16257 265b F8230000 		.4byte	.LVL446
 16258 265f 04400000 		.4byte	0x4004
 16259 2663 6E260000 		.4byte	0x266e
 16260 2667 10       		.uleb128 0x10
 16261 2668 01       		.uleb128 0x1
 16262 2669 50       		.byte	0x50
 16263 266a 02       		.uleb128 0x2
 16264 266b 74       		.byte	0x74
 16265 266c 00       		.sleb128 0
 16266 266d 00       		.byte	0
 16267 266e 0F       		.uleb128 0xf
 16268 266f 10240000 		.4byte	.LVL447
 16269 2673 7A400000 		.4byte	0x407a
 16270 2677 8B260000 		.4byte	0x268b
 16271 267b 10       		.uleb128 0x10
 16272 267c 01       		.uleb128 0x1
 16273 267d 51       		.byte	0x51
 16274 267e 02       		.uleb128 0x2
 16275 267f 74       		.byte	0x74
 16276 2680 00       		.sleb128 0
 16277 2681 10       		.uleb128 0x10
ARM GAS  C:\Users\diego\AppData\Local\Temp\ccvEcbYb.s 			page 330


 16278 2682 01       		.uleb128 0x1
 16279 2683 50       		.byte	0x50
 16280 2684 05       		.uleb128 0x5
 16281 2685 03       		.byte	0x3
 16282 2686 00000000 		.4byte	resultado
 16283 268a 00       		.byte	0
 16284 268b 0F       		.uleb128 0xf
 16285 268c 22240000 		.4byte	.LVL448
 16286 2690 EA3F0000 		.4byte	0x3fea
 16287 2694 A6260000 		.4byte	0x26a6
 16288 2698 10       		.uleb128 0x10
 16289 2699 01       		.uleb128 0x1
 16290 269a 51       		.byte	0x51
 16291 269b 02       		.uleb128 0x2
 16292 269c 91       		.byte	0x91
 16293 269d 54       		.sleb128 -44
 16294 269e 10       		.uleb128 0x10
 16295 269f 01       		.uleb128 0x1
 16296 26a0 50       		.byte	0x50
 16297 26a1 03       		.uleb128 0x3
 16298 26a2 0A       		.byte	0xa
 16299 26a3 4804     		.2byte	0x448
 16300 26a5 00       		.byte	0
 16301 26a6 0F       		.uleb128 0xf
 16302 26a7 2C240000 		.4byte	.LVL449
 16303 26ab EA3F0000 		.4byte	0x3fea
 16304 26af C4260000 		.4byte	0x26c4
 16305 26b3 10       		.uleb128 0x10
 16306 26b4 01       		.uleb128 0x1
 16307 26b5 51       		.byte	0x51
 16308 26b6 05       		.uleb128 0x5
 16309 26b7 03       		.byte	0x3
 16310 26b8 00000000 		.4byte	resultado
 16311 26bc 10       		.uleb128 0x10
 16312 26bd 01       		.uleb128 0x1
 16313 26be 50       		.byte	0x50
 16314 26bf 03       		.uleb128 0x3
 16315 26c0 0A       		.byte	0xa
 16316 26c1 0E04     		.2byte	0x40e
 16317 26c3 00       		.byte	0
 16318 26c4 0F       		.uleb128 0xf
 16319 26c5 3E240000 		.4byte	.LVL450
 16320 26c9 EA3F0000 		.4byte	0x3fea
 16321 26cd DF260000 		.4byte	0x26df
 16322 26d1 10       		.uleb128 0x10
 16323 26d2 01       		.uleb128 0x1
 16324 26d3 51       		.byte	0x51
 16325 26d4 02       		.uleb128 0x2
 16326 26d5 91       		.byte	0x91
 16327 26d6 54       		.sleb128 -44
 16328 26d7 10       		.uleb128 0x10
 16329 26d8 01       		.uleb128 0x1
 16330 26d9 50       		.byte	0x50
 16331 26da 03       		.uleb128 0x3
 16332 26db 0A       		.byte	0xa
 16333 26dc F304     		.2byte	0x4f3
 16334 26de 00       		.byte	0
ARM GAS  C:\Users\diego\AppData\Local\Temp\ccvEcbYb.s 			page 331


 16335 26df 0F       		.uleb128 0xf
 16336 26e0 48240000 		.4byte	.LVL451
 16337 26e4 EA3F0000 		.4byte	0x3fea
 16338 26e8 FD260000 		.4byte	0x26fd
 16339 26ec 10       		.uleb128 0x10
 16340 26ed 01       		.uleb128 0x1
 16341 26ee 51       		.byte	0x51
 16342 26ef 05       		.uleb128 0x5
 16343 26f0 03       		.byte	0x3
 16344 26f1 00000000 		.4byte	resultado
 16345 26f5 10       		.uleb128 0x10
 16346 26f6 01       		.uleb128 0x1
 16347 26f7 50       		.byte	0x50
 16348 26f8 03       		.uleb128 0x3
 16349 26f9 0A       		.byte	0xa
 16350 26fa BE05     		.2byte	0x5be
 16351 26fc 00       		.byte	0
 16352 26fd 0F       		.uleb128 0xf
 16353 26fe 5A240000 		.4byte	.LVL452
 16354 2702 EA3F0000 		.4byte	0x3fea
 16355 2706 18270000 		.4byte	0x2718
 16356 270a 10       		.uleb128 0x10
 16357 270b 01       		.uleb128 0x1
 16358 270c 51       		.byte	0x51
 16359 270d 02       		.uleb128 0x2
 16360 270e 91       		.byte	0x91
 16361 270f 54       		.sleb128 -44
 16362 2710 10       		.uleb128 0x10
 16363 2711 01       		.uleb128 0x1
 16364 2712 50       		.byte	0x50
 16365 2713 03       		.uleb128 0x3
 16366 2714 0A       		.byte	0xa
 16367 2715 5705     		.2byte	0x557
 16368 2717 00       		.byte	0
 16369 2718 0F       		.uleb128 0xf
 16370 2719 64240000 		.4byte	.LVL453
 16371 271d EA3F0000 		.4byte	0x3fea
 16372 2721 36270000 		.4byte	0x2736
 16373 2725 10       		.uleb128 0x10
 16374 2726 01       		.uleb128 0x1
 16375 2727 51       		.byte	0x51
 16376 2728 05       		.uleb128 0x5
 16377 2729 03       		.byte	0x3
 16378 272a 00000000 		.4byte	resultado
 16379 272e 10       		.uleb128 0x10
 16380 272f 01       		.uleb128 0x1
 16381 2730 50       		.byte	0x50
 16382 2731 03       		.uleb128 0x3
 16383 2732 0A       		.byte	0xa
 16384 2733 CB05     		.2byte	0x5cb
 16385 2735 00       		.byte	0
 16386 2736 0F       		.uleb128 0xf
 16387 2737 70240000 		.4byte	.LVL454
 16388 273b EA3F0000 		.4byte	0x3fea
 16389 273f 51270000 		.4byte	0x2751
 16390 2743 10       		.uleb128 0x10
 16391 2744 01       		.uleb128 0x1
ARM GAS  C:\Users\diego\AppData\Local\Temp\ccvEcbYb.s 			page 332


 16392 2745 51       		.byte	0x51
 16393 2746 02       		.uleb128 0x2
 16394 2747 91       		.byte	0x91
 16395 2748 54       		.sleb128 -44
 16396 2749 10       		.uleb128 0x10
 16397 274a 01       		.uleb128 0x1
 16398 274b 50       		.byte	0x50
 16399 274c 03       		.uleb128 0x3
 16400 274d 0A       		.byte	0xa
 16401 274e 1E04     		.2byte	0x41e
 16402 2750 00       		.byte	0
 16403 2751 0F       		.uleb128 0xf
 16404 2752 7A240000 		.4byte	.LVL455
 16405 2756 EA3F0000 		.4byte	0x3fea
 16406 275a 6F270000 		.4byte	0x276f
 16407 275e 10       		.uleb128 0x10
 16408 275f 01       		.uleb128 0x1
 16409 2760 51       		.byte	0x51
 16410 2761 05       		.uleb128 0x5
 16411 2762 03       		.byte	0x3
 16412 2763 00000000 		.4byte	resultado
 16413 2767 10       		.uleb128 0x10
 16414 2768 01       		.uleb128 0x1
 16415 2769 50       		.byte	0x50
 16416 276a 03       		.uleb128 0x3
 16417 276b 0A       		.byte	0xa
 16418 276c 3904     		.2byte	0x439
 16419 276e 00       		.byte	0
 16420 276f 11       		.uleb128 0x11
 16421 2770 7E240000 		.4byte	.LVL456
 16422 2774 D83F0000 		.4byte	0x3fd8
 16423 2778 0F       		.uleb128 0xf
 16424 2779 12260000 		.4byte	.LVL459
 16425 277d 04400000 		.4byte	0x4004
 16426 2781 8C270000 		.4byte	0x278c
 16427 2785 10       		.uleb128 0x10
 16428 2786 01       		.uleb128 0x1
 16429 2787 50       		.byte	0x50
 16430 2788 02       		.uleb128 0x2
 16431 2789 74       		.byte	0x74
 16432 278a 00       		.sleb128 0
 16433 278b 00       		.byte	0
 16434 278c 0F       		.uleb128 0xf
 16435 278d 2A260000 		.4byte	.LVL460
 16436 2791 04400000 		.4byte	0x4004
 16437 2795 A5270000 		.4byte	0x27a5
 16438 2799 10       		.uleb128 0x10
 16439 279a 01       		.uleb128 0x1
 16440 279b 51       		.byte	0x51
 16441 279c 01       		.uleb128 0x1
 16442 279d 3A       		.byte	0x3a
 16443 279e 10       		.uleb128 0x10
 16444 279f 01       		.uleb128 0x1
 16445 27a0 50       		.byte	0x50
 16446 27a1 02       		.uleb128 0x2
 16447 27a2 74       		.byte	0x74
 16448 27a3 00       		.sleb128 0
ARM GAS  C:\Users\diego\AppData\Local\Temp\ccvEcbYb.s 			page 333


 16449 27a4 00       		.byte	0
 16450 27a5 0F       		.uleb128 0xf
 16451 27a6 3C260000 		.4byte	.LVL461
 16452 27aa 04400000 		.4byte	0x4004
 16453 27ae B9270000 		.4byte	0x27b9
 16454 27b2 10       		.uleb128 0x10
 16455 27b3 01       		.uleb128 0x1
 16456 27b4 50       		.byte	0x50
 16457 27b5 02       		.uleb128 0x2
 16458 27b6 74       		.byte	0x74
 16459 27b7 00       		.sleb128 0
 16460 27b8 00       		.byte	0
 16461 27b9 0F       		.uleb128 0xf
 16462 27ba 54260000 		.4byte	.LVL462
 16463 27be 04400000 		.4byte	0x4004
 16464 27c2 D2270000 		.4byte	0x27d2
 16465 27c6 10       		.uleb128 0x10
 16466 27c7 01       		.uleb128 0x1
 16467 27c8 51       		.byte	0x51
 16468 27c9 01       		.uleb128 0x1
 16469 27ca 3A       		.byte	0x3a
 16470 27cb 10       		.uleb128 0x10
 16471 27cc 01       		.uleb128 0x1
 16472 27cd 50       		.byte	0x50
 16473 27ce 02       		.uleb128 0x2
 16474 27cf 74       		.byte	0x74
 16475 27d0 00       		.sleb128 0
 16476 27d1 00       		.byte	0
 16477 27d2 0F       		.uleb128 0xf
 16478 27d3 68260000 		.4byte	.LVL463
 16479 27d7 04400000 		.4byte	0x4004
 16480 27db E6270000 		.4byte	0x27e6
 16481 27df 10       		.uleb128 0x10
 16482 27e0 01       		.uleb128 0x1
 16483 27e1 50       		.byte	0x50
 16484 27e2 02       		.uleb128 0x2
 16485 27e3 74       		.byte	0x74
 16486 27e4 00       		.sleb128 0
 16487 27e5 00       		.byte	0
 16488 27e6 0F       		.uleb128 0xf
 16489 27e7 80260000 		.4byte	.LVL464
 16490 27eb 04400000 		.4byte	0x4004
 16491 27ef FF270000 		.4byte	0x27ff
 16492 27f3 10       		.uleb128 0x10
 16493 27f4 01       		.uleb128 0x1
 16494 27f5 51       		.byte	0x51
 16495 27f6 01       		.uleb128 0x1
 16496 27f7 3A       		.byte	0x3a
 16497 27f8 10       		.uleb128 0x10
 16498 27f9 01       		.uleb128 0x1
 16499 27fa 50       		.byte	0x50
 16500 27fb 02       		.uleb128 0x2
 16501 27fc 74       		.byte	0x74
 16502 27fd 00       		.sleb128 0
 16503 27fe 00       		.byte	0
 16504 27ff 0F       		.uleb128 0xf
 16505 2800 88260000 		.4byte	.LVL465
ARM GAS  C:\Users\diego\AppData\Local\Temp\ccvEcbYb.s 			page 334


 16506 2804 1E400000 		.4byte	0x401e
 16507 2808 18280000 		.4byte	0x2818
 16508 280c 10       		.uleb128 0x10
 16509 280d 01       		.uleb128 0x1
 16510 280e 51       		.byte	0x51
 16511 280f 02       		.uleb128 0x2
 16512 2810 74       		.byte	0x74
 16513 2811 00       		.sleb128 0
 16514 2812 10       		.uleb128 0x10
 16515 2813 01       		.uleb128 0x1
 16516 2814 50       		.byte	0x50
 16517 2815 01       		.uleb128 0x1
 16518 2816 3C       		.byte	0x3c
 16519 2817 00       		.byte	0
 16520 2818 0F       		.uleb128 0xf
 16521 2819 9C260000 		.4byte	.LVL466
 16522 281d 04400000 		.4byte	0x4004
 16523 2821 2C280000 		.4byte	0x282c
 16524 2825 10       		.uleb128 0x10
 16525 2826 01       		.uleb128 0x1
 16526 2827 50       		.byte	0x50
 16527 2828 02       		.uleb128 0x2
 16528 2829 74       		.byte	0x74
 16529 282a 00       		.sleb128 0
 16530 282b 00       		.byte	0
 16531 282c 0F       		.uleb128 0xf
 16532 282d B4260000 		.4byte	.LVL467
 16533 2831 04400000 		.4byte	0x4004
 16534 2835 45280000 		.4byte	0x2845
 16535 2839 10       		.uleb128 0x10
 16536 283a 01       		.uleb128 0x1
 16537 283b 51       		.byte	0x51
 16538 283c 01       		.uleb128 0x1
 16539 283d 3A       		.byte	0x3a
 16540 283e 10       		.uleb128 0x10
 16541 283f 01       		.uleb128 0x1
 16542 2840 50       		.byte	0x50
 16543 2841 02       		.uleb128 0x2
 16544 2842 74       		.byte	0x74
 16545 2843 00       		.sleb128 0
 16546 2844 00       		.byte	0
 16547 2845 0F       		.uleb128 0xf
 16548 2846 C4260000 		.4byte	.LVL468
 16549 284a 34400000 		.4byte	0x4034
 16550 284e 5E280000 		.4byte	0x285e
 16551 2852 10       		.uleb128 0x10
 16552 2853 01       		.uleb128 0x1
 16553 2854 51       		.byte	0x51
 16554 2855 01       		.uleb128 0x1
 16555 2856 49       		.byte	0x49
 16556 2857 10       		.uleb128 0x10
 16557 2858 01       		.uleb128 0x1
 16558 2859 50       		.byte	0x50
 16559 285a 02       		.uleb128 0x2
 16560 285b 08       		.byte	0x8
 16561 285c C0       		.byte	0xc0
 16562 285d 00       		.byte	0
ARM GAS  C:\Users\diego\AppData\Local\Temp\ccvEcbYb.s 			page 335


 16563 285e 0F       		.uleb128 0xf
 16564 285f D0260000 		.4byte	.LVL469
 16565 2863 34400000 		.4byte	0x4034
 16566 2867 78280000 		.4byte	0x2878
 16567 286b 10       		.uleb128 0x10
 16568 286c 01       		.uleb128 0x1
 16569 286d 51       		.byte	0x51
 16570 286e 01       		.uleb128 0x1
 16571 286f 49       		.byte	0x49
 16572 2870 10       		.uleb128 0x10
 16573 2871 01       		.uleb128 0x1
 16574 2872 50       		.byte	0x50
 16575 2873 03       		.uleb128 0x3
 16576 2874 0A       		.byte	0xa
 16577 2875 1901     		.2byte	0x119
 16578 2877 00       		.byte	0
 16579 2878 0F       		.uleb128 0xf
 16580 2879 D6260000 		.4byte	.LVL470
 16581 287d 4E400000 		.4byte	0x404e
 16582 2881 8C280000 		.4byte	0x288c
 16583 2885 10       		.uleb128 0x10
 16584 2886 01       		.uleb128 0x1
 16585 2887 50       		.byte	0x50
 16586 2888 02       		.uleb128 0x2
 16587 2889 74       		.byte	0x74
 16588 288a 00       		.sleb128 0
 16589 288b 00       		.byte	0
 16590 288c 0F       		.uleb128 0xf
 16591 288d 18270000 		.4byte	.LVL471
 16592 2891 5F400000 		.4byte	0x405f
 16593 2895 AC280000 		.4byte	0x28ac
 16594 2899 10       		.uleb128 0x10
 16595 289a 01       		.uleb128 0x1
 16596 289b 52       		.byte	0x52
 16597 289c 03       		.uleb128 0x3
 16598 289d 91       		.byte	0x91
 16599 289e B47F     		.sleb128 -76
 16600 28a0 10       		.uleb128 0x10
 16601 28a1 01       		.uleb128 0x1
 16602 28a2 51       		.byte	0x51
 16603 28a3 02       		.uleb128 0x2
 16604 28a4 91       		.byte	0x91
 16605 28a5 44       		.sleb128 -60
 16606 28a6 10       		.uleb128 0x10
 16607 28a7 01       		.uleb128 0x1
 16608 28a8 50       		.byte	0x50
 16609 28a9 01       		.uleb128 0x1
 16610 28aa 32       		.byte	0x32
 16611 28ab 00       		.byte	0
 16612 28ac 0F       		.uleb128 0xf
 16613 28ad 2E270000 		.4byte	.LVL472
 16614 28b1 04400000 		.4byte	0x4004
 16615 28b5 C0280000 		.4byte	0x28c0
 16616 28b9 10       		.uleb128 0x10
 16617 28ba 01       		.uleb128 0x1
 16618 28bb 50       		.byte	0x50
 16619 28bc 02       		.uleb128 0x2
ARM GAS  C:\Users\diego\AppData\Local\Temp\ccvEcbYb.s 			page 336


 16620 28bd 74       		.byte	0x74
 16621 28be 00       		.sleb128 0
 16622 28bf 00       		.byte	0
 16623 28c0 0F       		.uleb128 0xf
 16624 28c1 46270000 		.4byte	.LVL473
 16625 28c5 7A400000 		.4byte	0x407a
 16626 28c9 DD280000 		.4byte	0x28dd
 16627 28cd 10       		.uleb128 0x10
 16628 28ce 01       		.uleb128 0x1
 16629 28cf 51       		.byte	0x51
 16630 28d0 02       		.uleb128 0x2
 16631 28d1 74       		.byte	0x74
 16632 28d2 00       		.sleb128 0
 16633 28d3 10       		.uleb128 0x10
 16634 28d4 01       		.uleb128 0x1
 16635 28d5 50       		.byte	0x50
 16636 28d6 05       		.uleb128 0x5
 16637 28d7 03       		.byte	0x3
 16638 28d8 00000000 		.4byte	resultado
 16639 28dc 00       		.byte	0
 16640 28dd 0F       		.uleb128 0xf
 16641 28de 56270000 		.4byte	.LVL474
 16642 28e2 EA3F0000 		.4byte	0x3fea
 16643 28e6 F7280000 		.4byte	0x28f7
 16644 28ea 10       		.uleb128 0x10
 16645 28eb 01       		.uleb128 0x1
 16646 28ec 51       		.byte	0x51
 16647 28ed 02       		.uleb128 0x2
 16648 28ee 91       		.byte	0x91
 16649 28ef 54       		.sleb128 -44
 16650 28f0 10       		.uleb128 0x10
 16651 28f1 01       		.uleb128 0x1
 16652 28f2 50       		.byte	0x50
 16653 28f3 02       		.uleb128 0x2
 16654 28f4 08       		.byte	0x8
 16655 28f5 C0       		.byte	0xc0
 16656 28f6 00       		.byte	0
 16657 28f7 0F       		.uleb128 0xf
 16658 28f8 60270000 		.4byte	.LVL475
 16659 28fc EA3F0000 		.4byte	0x3fea
 16660 2900 15290000 		.4byte	0x2915
 16661 2904 10       		.uleb128 0x10
 16662 2905 01       		.uleb128 0x1
 16663 2906 51       		.byte	0x51
 16664 2907 05       		.uleb128 0x5
 16665 2908 03       		.byte	0x3
 16666 2909 00000000 		.4byte	resultado
 16667 290d 10       		.uleb128 0x10
 16668 290e 01       		.uleb128 0x1
 16669 290f 50       		.byte	0x50
 16670 2910 03       		.uleb128 0x3
 16671 2911 0A       		.byte	0xa
 16672 2912 0002     		.2byte	0x200
 16673 2914 00       		.byte	0
 16674 2915 0F       		.uleb128 0xf
 16675 2916 6C270000 		.4byte	.LVL476
 16676 291a EA3F0000 		.4byte	0x3fea
ARM GAS  C:\Users\diego\AppData\Local\Temp\ccvEcbYb.s 			page 337


 16677 291e 30290000 		.4byte	0x2930
 16678 2922 10       		.uleb128 0x10
 16679 2923 01       		.uleb128 0x1
 16680 2924 51       		.byte	0x51
 16681 2925 02       		.uleb128 0x2
 16682 2926 91       		.byte	0x91
 16683 2927 54       		.sleb128 -44
 16684 2928 10       		.uleb128 0x10
 16685 2929 01       		.uleb128 0x1
 16686 292a 50       		.byte	0x50
 16687 292b 03       		.uleb128 0x3
 16688 292c 0A       		.byte	0xa
 16689 292d 1901     		.2byte	0x119
 16690 292f 00       		.byte	0
 16691 2930 0F       		.uleb128 0xf
 16692 2931 76270000 		.4byte	.LVL477
 16693 2935 EA3F0000 		.4byte	0x3fea
 16694 2939 4E290000 		.4byte	0x294e
 16695 293d 10       		.uleb128 0x10
 16696 293e 01       		.uleb128 0x1
 16697 293f 51       		.byte	0x51
 16698 2940 05       		.uleb128 0x5
 16699 2941 03       		.byte	0x3
 16700 2942 00000000 		.4byte	resultado
 16701 2946 10       		.uleb128 0x10
 16702 2947 01       		.uleb128 0x1
 16703 2948 50       		.byte	0x50
 16704 2949 03       		.uleb128 0x3
 16705 294a 0A       		.byte	0xa
 16706 294b 2702     		.2byte	0x227
 16707 294d 00       		.byte	0
 16708 294e 0F       		.uleb128 0xf
 16709 294f E2270000 		.4byte	.LVL478
 16710 2953 04400000 		.4byte	0x4004
 16711 2957 62290000 		.4byte	0x2962
 16712 295b 10       		.uleb128 0x10
 16713 295c 01       		.uleb128 0x1
 16714 295d 50       		.byte	0x50
 16715 295e 02       		.uleb128 0x2
 16716 295f 74       		.byte	0x74
 16717 2960 00       		.sleb128 0
 16718 2961 00       		.byte	0
 16719 2962 0F       		.uleb128 0xf
 16720 2963 FA270000 		.4byte	.LVL479
 16721 2967 04400000 		.4byte	0x4004
 16722 296b 7B290000 		.4byte	0x297b
 16723 296f 10       		.uleb128 0x10
 16724 2970 01       		.uleb128 0x1
 16725 2971 51       		.byte	0x51
 16726 2972 01       		.uleb128 0x1
 16727 2973 3A       		.byte	0x3a
 16728 2974 10       		.uleb128 0x10
 16729 2975 01       		.uleb128 0x1
 16730 2976 50       		.byte	0x50
 16731 2977 02       		.uleb128 0x2
 16732 2978 74       		.byte	0x74
 16733 2979 00       		.sleb128 0
ARM GAS  C:\Users\diego\AppData\Local\Temp\ccvEcbYb.s 			page 338


 16734 297a 00       		.byte	0
 16735 297b 0F       		.uleb128 0xf
 16736 297c 0C280000 		.4byte	.LVL480
 16737 2980 04400000 		.4byte	0x4004
 16738 2984 8F290000 		.4byte	0x298f
 16739 2988 10       		.uleb128 0x10
 16740 2989 01       		.uleb128 0x1
 16741 298a 50       		.byte	0x50
 16742 298b 02       		.uleb128 0x2
 16743 298c 74       		.byte	0x74
 16744 298d 00       		.sleb128 0
 16745 298e 00       		.byte	0
 16746 298f 0F       		.uleb128 0xf
 16747 2990 24280000 		.4byte	.LVL481
 16748 2994 04400000 		.4byte	0x4004
 16749 2998 A8290000 		.4byte	0x29a8
 16750 299c 10       		.uleb128 0x10
 16751 299d 01       		.uleb128 0x1
 16752 299e 51       		.byte	0x51
 16753 299f 01       		.uleb128 0x1
 16754 29a0 3A       		.byte	0x3a
 16755 29a1 10       		.uleb128 0x10
 16756 29a2 01       		.uleb128 0x1
 16757 29a3 50       		.byte	0x50
 16758 29a4 02       		.uleb128 0x2
 16759 29a5 74       		.byte	0x74
 16760 29a6 00       		.sleb128 0
 16761 29a7 00       		.byte	0
 16762 29a8 0F       		.uleb128 0xf
 16763 29a9 90280000 		.4byte	.LVL482
 16764 29ad 04400000 		.4byte	0x4004
 16765 29b1 BC290000 		.4byte	0x29bc
 16766 29b5 10       		.uleb128 0x10
 16767 29b6 01       		.uleb128 0x1
 16768 29b7 50       		.byte	0x50
 16769 29b8 02       		.uleb128 0x2
 16770 29b9 74       		.byte	0x74
 16771 29ba 00       		.sleb128 0
 16772 29bb 00       		.byte	0
 16773 29bc 0F       		.uleb128 0xf
 16774 29bd A8280000 		.4byte	.LVL483
 16775 29c1 04400000 		.4byte	0x4004
 16776 29c5 D5290000 		.4byte	0x29d5
 16777 29c9 10       		.uleb128 0x10
 16778 29ca 01       		.uleb128 0x1
 16779 29cb 51       		.byte	0x51
 16780 29cc 01       		.uleb128 0x1
 16781 29cd 3A       		.byte	0x3a
 16782 29ce 10       		.uleb128 0x10
 16783 29cf 01       		.uleb128 0x1
 16784 29d0 50       		.byte	0x50
 16785 29d1 02       		.uleb128 0x2
 16786 29d2 74       		.byte	0x74
 16787 29d3 00       		.sleb128 0
 16788 29d4 00       		.byte	0
 16789 29d5 0F       		.uleb128 0xf
 16790 29d6 B0280000 		.4byte	.LVL484
ARM GAS  C:\Users\diego\AppData\Local\Temp\ccvEcbYb.s 			page 339


 16791 29da 1E400000 		.4byte	0x401e
 16792 29de EE290000 		.4byte	0x29ee
 16793 29e2 10       		.uleb128 0x10
 16794 29e3 01       		.uleb128 0x1
 16795 29e4 51       		.byte	0x51
 16796 29e5 02       		.uleb128 0x2
 16797 29e6 74       		.byte	0x74
 16798 29e7 00       		.sleb128 0
 16799 29e8 10       		.uleb128 0x10
 16800 29e9 01       		.uleb128 0x1
 16801 29ea 50       		.byte	0x50
 16802 29eb 01       		.uleb128 0x1
 16803 29ec 3C       		.byte	0x3c
 16804 29ed 00       		.byte	0
 16805 29ee 0F       		.uleb128 0xf
 16806 29ef C4280000 		.4byte	.LVL485
 16807 29f3 04400000 		.4byte	0x4004
 16808 29f7 022A0000 		.4byte	0x2a02
 16809 29fb 10       		.uleb128 0x10
 16810 29fc 01       		.uleb128 0x1
 16811 29fd 50       		.byte	0x50
 16812 29fe 02       		.uleb128 0x2
 16813 29ff 74       		.byte	0x74
 16814 2a00 00       		.sleb128 0
 16815 2a01 00       		.byte	0
 16816 2a02 0F       		.uleb128 0xf
 16817 2a03 DC280000 		.4byte	.LVL486
 16818 2a07 04400000 		.4byte	0x4004
 16819 2a0b 1B2A0000 		.4byte	0x2a1b
 16820 2a0f 10       		.uleb128 0x10
 16821 2a10 01       		.uleb128 0x1
 16822 2a11 51       		.byte	0x51
 16823 2a12 01       		.uleb128 0x1
 16824 2a13 3A       		.byte	0x3a
 16825 2a14 10       		.uleb128 0x10
 16826 2a15 01       		.uleb128 0x1
 16827 2a16 50       		.byte	0x50
 16828 2a17 02       		.uleb128 0x2
 16829 2a18 74       		.byte	0x74
 16830 2a19 00       		.sleb128 0
 16831 2a1a 00       		.byte	0
 16832 2a1b 0F       		.uleb128 0xf
 16833 2a1c EC280000 		.4byte	.LVL487
 16834 2a20 34400000 		.4byte	0x4034
 16835 2a24 342A0000 		.4byte	0x2a34
 16836 2a28 10       		.uleb128 0x10
 16837 2a29 01       		.uleb128 0x1
 16838 2a2a 51       		.byte	0x51
 16839 2a2b 01       		.uleb128 0x1
 16840 2a2c 49       		.byte	0x49
 16841 2a2d 10       		.uleb128 0x10
 16842 2a2e 01       		.uleb128 0x1
 16843 2a2f 50       		.byte	0x50
 16844 2a30 02       		.uleb128 0x2
 16845 2a31 08       		.byte	0x8
 16846 2a32 D9       		.byte	0xd9
 16847 2a33 00       		.byte	0
ARM GAS  C:\Users\diego\AppData\Local\Temp\ccvEcbYb.s 			page 340


 16848 2a34 0F       		.uleb128 0xf
 16849 2a35 F8280000 		.4byte	.LVL488
 16850 2a39 34400000 		.4byte	0x4034
 16851 2a3d 4E2A0000 		.4byte	0x2a4e
 16852 2a41 10       		.uleb128 0x10
 16853 2a42 01       		.uleb128 0x1
 16854 2a43 51       		.byte	0x51
 16855 2a44 01       		.uleb128 0x1
 16856 2a45 49       		.byte	0x49
 16857 2a46 10       		.uleb128 0x10
 16858 2a47 01       		.uleb128 0x1
 16859 2a48 50       		.byte	0x50
 16860 2a49 03       		.uleb128 0x3
 16861 2a4a 0A       		.byte	0xa
 16862 2a4b 4001     		.2byte	0x140
 16863 2a4d 00       		.byte	0
 16864 2a4e 0F       		.uleb128 0xf
 16865 2a4f FE280000 		.4byte	.LVL489
 16866 2a53 4E400000 		.4byte	0x404e
 16867 2a57 622A0000 		.4byte	0x2a62
 16868 2a5b 10       		.uleb128 0x10
 16869 2a5c 01       		.uleb128 0x1
 16870 2a5d 50       		.byte	0x50
 16871 2a5e 02       		.uleb128 0x2
 16872 2a5f 74       		.byte	0x74
 16873 2a60 00       		.sleb128 0
 16874 2a61 00       		.byte	0
 16875 2a62 0F       		.uleb128 0xf
 16876 2a63 40290000 		.4byte	.LVL490
 16877 2a67 5F400000 		.4byte	0x405f
 16878 2a6b 822A0000 		.4byte	0x2a82
 16879 2a6f 10       		.uleb128 0x10
 16880 2a70 01       		.uleb128 0x1
 16881 2a71 52       		.byte	0x52
 16882 2a72 03       		.uleb128 0x3
 16883 2a73 91       		.byte	0x91
 16884 2a74 B47F     		.sleb128 -76
 16885 2a76 10       		.uleb128 0x10
 16886 2a77 01       		.uleb128 0x1
 16887 2a78 51       		.byte	0x51
 16888 2a79 02       		.uleb128 0x2
 16889 2a7a 91       		.byte	0x91
 16890 2a7b 44       		.sleb128 -60
 16891 2a7c 10       		.uleb128 0x10
 16892 2a7d 01       		.uleb128 0x1
 16893 2a7e 50       		.byte	0x50
 16894 2a7f 01       		.uleb128 0x1
 16895 2a80 32       		.byte	0x32
 16896 2a81 00       		.byte	0
 16897 2a82 0F       		.uleb128 0xf
 16898 2a83 56290000 		.4byte	.LVL491
 16899 2a87 04400000 		.4byte	0x4004
 16900 2a8b 962A0000 		.4byte	0x2a96
 16901 2a8f 10       		.uleb128 0x10
 16902 2a90 01       		.uleb128 0x1
 16903 2a91 50       		.byte	0x50
 16904 2a92 02       		.uleb128 0x2
ARM GAS  C:\Users\diego\AppData\Local\Temp\ccvEcbYb.s 			page 341


 16905 2a93 74       		.byte	0x74
 16906 2a94 00       		.sleb128 0
 16907 2a95 00       		.byte	0
 16908 2a96 0F       		.uleb128 0xf
 16909 2a97 6E290000 		.4byte	.LVL492
 16910 2a9b 7A400000 		.4byte	0x407a
 16911 2a9f B32A0000 		.4byte	0x2ab3
 16912 2aa3 10       		.uleb128 0x10
 16913 2aa4 01       		.uleb128 0x1
 16914 2aa5 51       		.byte	0x51
 16915 2aa6 02       		.uleb128 0x2
 16916 2aa7 74       		.byte	0x74
 16917 2aa8 00       		.sleb128 0
 16918 2aa9 10       		.uleb128 0x10
 16919 2aaa 01       		.uleb128 0x1
 16920 2aab 50       		.byte	0x50
 16921 2aac 05       		.uleb128 0x5
 16922 2aad 03       		.byte	0x3
 16923 2aae 00000000 		.4byte	resultado
 16924 2ab2 00       		.byte	0
 16925 2ab3 0F       		.uleb128 0xf
 16926 2ab4 7E290000 		.4byte	.LVL493
 16927 2ab8 EA3F0000 		.4byte	0x3fea
 16928 2abc CD2A0000 		.4byte	0x2acd
 16929 2ac0 10       		.uleb128 0x10
 16930 2ac1 01       		.uleb128 0x1
 16931 2ac2 51       		.byte	0x51
 16932 2ac3 02       		.uleb128 0x2
 16933 2ac4 91       		.byte	0x91
 16934 2ac5 54       		.sleb128 -44
 16935 2ac6 10       		.uleb128 0x10
 16936 2ac7 01       		.uleb128 0x1
 16937 2ac8 50       		.byte	0x50
 16938 2ac9 02       		.uleb128 0x2
 16939 2aca 08       		.byte	0x8
 16940 2acb D9       		.byte	0xd9
 16941 2acc 00       		.byte	0
 16942 2acd 0F       		.uleb128 0xf
 16943 2ace 88290000 		.4byte	.LVL494
 16944 2ad2 EA3F0000 		.4byte	0x3fea
 16945 2ad6 EB2A0000 		.4byte	0x2aeb
 16946 2ada 10       		.uleb128 0x10
 16947 2adb 01       		.uleb128 0x1
 16948 2adc 51       		.byte	0x51
 16949 2add 05       		.uleb128 0x5
 16950 2ade 03       		.byte	0x3
 16951 2adf 00000000 		.4byte	resultado
 16952 2ae3 10       		.uleb128 0x10
 16953 2ae4 01       		.uleb128 0x1
 16954 2ae5 50       		.byte	0x50
 16955 2ae6 03       		.uleb128 0x3
 16956 2ae7 0A       		.byte	0xa
 16957 2ae8 1A02     		.2byte	0x21a
 16958 2aea 00       		.byte	0
 16959 2aeb 0F       		.uleb128 0xf
 16960 2aec 94290000 		.4byte	.LVL495
 16961 2af0 EA3F0000 		.4byte	0x3fea
ARM GAS  C:\Users\diego\AppData\Local\Temp\ccvEcbYb.s 			page 342


 16962 2af4 062B0000 		.4byte	0x2b06
 16963 2af8 10       		.uleb128 0x10
 16964 2af9 01       		.uleb128 0x1
 16965 2afa 51       		.byte	0x51
 16966 2afb 02       		.uleb128 0x2
 16967 2afc 91       		.byte	0x91
 16968 2afd 54       		.sleb128 -44
 16969 2afe 10       		.uleb128 0x10
 16970 2aff 01       		.uleb128 0x1
 16971 2b00 50       		.byte	0x50
 16972 2b01 03       		.uleb128 0x3
 16973 2b02 0A       		.byte	0xa
 16974 2b03 4001     		.2byte	0x140
 16975 2b05 00       		.byte	0
 16976 2b06 0F       		.uleb128 0xf
 16977 2b07 9E290000 		.4byte	.LVL496
 16978 2b0b EA3F0000 		.4byte	0x3fea
 16979 2b0f 242B0000 		.4byte	0x2b24
 16980 2b13 10       		.uleb128 0x10
 16981 2b14 01       		.uleb128 0x1
 16982 2b15 51       		.byte	0x51
 16983 2b16 05       		.uleb128 0x5
 16984 2b17 03       		.byte	0x3
 16985 2b18 00000000 		.4byte	resultado
 16986 2b1c 10       		.uleb128 0x10
 16987 2b1d 01       		.uleb128 0x1
 16988 2b1e 50       		.byte	0x50
 16989 2b1f 03       		.uleb128 0x3
 16990 2b20 0A       		.byte	0xa
 16991 2b21 4002     		.2byte	0x240
 16992 2b23 00       		.byte	0
 16993 2b24 0F       		.uleb128 0xf
 16994 2b25 0A2A0000 		.4byte	.LVL497
 16995 2b29 04400000 		.4byte	0x4004
 16996 2b2d 382B0000 		.4byte	0x2b38
 16997 2b31 10       		.uleb128 0x10
 16998 2b32 01       		.uleb128 0x1
 16999 2b33 50       		.byte	0x50
 17000 2b34 02       		.uleb128 0x2
 17001 2b35 74       		.byte	0x74
 17002 2b36 00       		.sleb128 0
 17003 2b37 00       		.byte	0
 17004 2b38 0F       		.uleb128 0xf
 17005 2b39 222A0000 		.4byte	.LVL498
 17006 2b3d 04400000 		.4byte	0x4004
 17007 2b41 512B0000 		.4byte	0x2b51
 17008 2b45 10       		.uleb128 0x10
 17009 2b46 01       		.uleb128 0x1
 17010 2b47 51       		.byte	0x51
 17011 2b48 01       		.uleb128 0x1
 17012 2b49 3A       		.byte	0x3a
 17013 2b4a 10       		.uleb128 0x10
 17014 2b4b 01       		.uleb128 0x1
 17015 2b4c 50       		.byte	0x50
 17016 2b4d 02       		.uleb128 0x2
 17017 2b4e 74       		.byte	0x74
 17018 2b4f 00       		.sleb128 0
ARM GAS  C:\Users\diego\AppData\Local\Temp\ccvEcbYb.s 			page 343


 17019 2b50 00       		.byte	0
 17020 2b51 0F       		.uleb128 0xf
 17021 2b52 342A0000 		.4byte	.LVL499
 17022 2b56 04400000 		.4byte	0x4004
 17023 2b5a 652B0000 		.4byte	0x2b65
 17024 2b5e 10       		.uleb128 0x10
 17025 2b5f 01       		.uleb128 0x1
 17026 2b60 50       		.byte	0x50
 17027 2b61 02       		.uleb128 0x2
 17028 2b62 74       		.byte	0x74
 17029 2b63 00       		.sleb128 0
 17030 2b64 00       		.byte	0
 17031 2b65 0F       		.uleb128 0xf
 17032 2b66 4C2A0000 		.4byte	.LVL500
 17033 2b6a 04400000 		.4byte	0x4004
 17034 2b6e 7E2B0000 		.4byte	0x2b7e
 17035 2b72 10       		.uleb128 0x10
 17036 2b73 01       		.uleb128 0x1
 17037 2b74 51       		.byte	0x51
 17038 2b75 01       		.uleb128 0x1
 17039 2b76 3A       		.byte	0x3a
 17040 2b77 10       		.uleb128 0x10
 17041 2b78 01       		.uleb128 0x1
 17042 2b79 50       		.byte	0x50
 17043 2b7a 02       		.uleb128 0x2
 17044 2b7b 74       		.byte	0x74
 17045 2b7c 00       		.sleb128 0
 17046 2b7d 00       		.byte	0
 17047 2b7e 0F       		.uleb128 0xf
 17048 2b7f 602A0000 		.4byte	.LVL501
 17049 2b83 04400000 		.4byte	0x4004
 17050 2b87 922B0000 		.4byte	0x2b92
 17051 2b8b 10       		.uleb128 0x10
 17052 2b8c 01       		.uleb128 0x1
 17053 2b8d 50       		.byte	0x50
 17054 2b8e 02       		.uleb128 0x2
 17055 2b8f 74       		.byte	0x74
 17056 2b90 00       		.sleb128 0
 17057 2b91 00       		.byte	0
 17058 2b92 0F       		.uleb128 0xf
 17059 2b93 782A0000 		.4byte	.LVL502
 17060 2b97 04400000 		.4byte	0x4004
 17061 2b9b AB2B0000 		.4byte	0x2bab
 17062 2b9f 10       		.uleb128 0x10
 17063 2ba0 01       		.uleb128 0x1
 17064 2ba1 51       		.byte	0x51
 17065 2ba2 01       		.uleb128 0x1
 17066 2ba3 3A       		.byte	0x3a
 17067 2ba4 10       		.uleb128 0x10
 17068 2ba5 01       		.uleb128 0x1
 17069 2ba6 50       		.byte	0x50
 17070 2ba7 02       		.uleb128 0x2
 17071 2ba8 74       		.byte	0x74
 17072 2ba9 00       		.sleb128 0
 17073 2baa 00       		.byte	0
 17074 2bab 0F       		.uleb128 0xf
 17075 2bac 802A0000 		.4byte	.LVL503
ARM GAS  C:\Users\diego\AppData\Local\Temp\ccvEcbYb.s 			page 344


 17076 2bb0 1E400000 		.4byte	0x401e
 17077 2bb4 C42B0000 		.4byte	0x2bc4
 17078 2bb8 10       		.uleb128 0x10
 17079 2bb9 01       		.uleb128 0x1
 17080 2bba 51       		.byte	0x51
 17081 2bbb 02       		.uleb128 0x2
 17082 2bbc 74       		.byte	0x74
 17083 2bbd 00       		.sleb128 0
 17084 2bbe 10       		.uleb128 0x10
 17085 2bbf 01       		.uleb128 0x1
 17086 2bc0 50       		.byte	0x50
 17087 2bc1 01       		.uleb128 0x1
 17088 2bc2 3C       		.byte	0x3c
 17089 2bc3 00       		.byte	0
 17090 2bc4 0F       		.uleb128 0xf
 17091 2bc5 942A0000 		.4byte	.LVL504
 17092 2bc9 04400000 		.4byte	0x4004
 17093 2bcd D82B0000 		.4byte	0x2bd8
 17094 2bd1 10       		.uleb128 0x10
 17095 2bd2 01       		.uleb128 0x1
 17096 2bd3 50       		.byte	0x50
 17097 2bd4 02       		.uleb128 0x2
 17098 2bd5 74       		.byte	0x74
 17099 2bd6 00       		.sleb128 0
 17100 2bd7 00       		.byte	0
 17101 2bd8 0F       		.uleb128 0xf
 17102 2bd9 AC2A0000 		.4byte	.LVL505
 17103 2bdd 04400000 		.4byte	0x4004
 17104 2be1 F12B0000 		.4byte	0x2bf1
 17105 2be5 10       		.uleb128 0x10
 17106 2be6 01       		.uleb128 0x1
 17107 2be7 51       		.byte	0x51
 17108 2be8 01       		.uleb128 0x1
 17109 2be9 3A       		.byte	0x3a
 17110 2bea 10       		.uleb128 0x10
 17111 2beb 01       		.uleb128 0x1
 17112 2bec 50       		.byte	0x50
 17113 2bed 02       		.uleb128 0x2
 17114 2bee 74       		.byte	0x74
 17115 2bef 00       		.sleb128 0
 17116 2bf0 00       		.byte	0
 17117 2bf1 0F       		.uleb128 0xf
 17118 2bf2 BE2A0000 		.4byte	.LVL506
 17119 2bf6 34400000 		.4byte	0x4034
 17120 2bfa 0B2C0000 		.4byte	0x2c0b
 17121 2bfe 10       		.uleb128 0x10
 17122 2bff 01       		.uleb128 0x1
 17123 2c00 51       		.byte	0x51
 17124 2c01 01       		.uleb128 0x1
 17125 2c02 49       		.byte	0x49
 17126 2c03 10       		.uleb128 0x10
 17127 2c04 01       		.uleb128 0x1
 17128 2c05 50       		.byte	0x50
 17129 2c06 03       		.uleb128 0x3
 17130 2c07 0A       		.byte	0xa
 17131 2c08 0001     		.2byte	0x100
 17132 2c0a 00       		.byte	0
ARM GAS  C:\Users\diego\AppData\Local\Temp\ccvEcbYb.s 			page 345


 17133 2c0b 0F       		.uleb128 0xf
 17134 2c0c CA2A0000 		.4byte	.LVL507
 17135 2c10 34400000 		.4byte	0x4034
 17136 2c14 252C0000 		.4byte	0x2c25
 17137 2c18 10       		.uleb128 0x10
 17138 2c19 01       		.uleb128 0x1
 17139 2c1a 51       		.byte	0x51
 17140 2c1b 01       		.uleb128 0x1
 17141 2c1c 49       		.byte	0x49
 17142 2c1d 10       		.uleb128 0x10
 17143 2c1e 01       		.uleb128 0x1
 17144 2c1f 50       		.byte	0x50
 17145 2c20 03       		.uleb128 0x3
 17146 2c21 0A       		.byte	0xa
 17147 2c22 5901     		.2byte	0x159
 17148 2c24 00       		.byte	0
 17149 2c25 0F       		.uleb128 0xf
 17150 2c26 D02A0000 		.4byte	.LVL508
 17151 2c2a 4E400000 		.4byte	0x404e
 17152 2c2e 392C0000 		.4byte	0x2c39
 17153 2c32 10       		.uleb128 0x10
 17154 2c33 01       		.uleb128 0x1
 17155 2c34 50       		.byte	0x50
 17156 2c35 02       		.uleb128 0x2
 17157 2c36 74       		.byte	0x74
 17158 2c37 00       		.sleb128 0
 17159 2c38 00       		.byte	0
 17160 2c39 0F       		.uleb128 0xf
 17161 2c3a 122B0000 		.4byte	.LVL509
 17162 2c3e 5F400000 		.4byte	0x405f
 17163 2c42 592C0000 		.4byte	0x2c59
 17164 2c46 10       		.uleb128 0x10
 17165 2c47 01       		.uleb128 0x1
 17166 2c48 52       		.byte	0x52
 17167 2c49 03       		.uleb128 0x3
 17168 2c4a 91       		.byte	0x91
 17169 2c4b B47F     		.sleb128 -76
 17170 2c4d 10       		.uleb128 0x10
 17171 2c4e 01       		.uleb128 0x1
 17172 2c4f 51       		.byte	0x51
 17173 2c50 02       		.uleb128 0x2
 17174 2c51 91       		.byte	0x91
 17175 2c52 44       		.sleb128 -60
 17176 2c53 10       		.uleb128 0x10
 17177 2c54 01       		.uleb128 0x1
 17178 2c55 50       		.byte	0x50
 17179 2c56 01       		.uleb128 0x1
 17180 2c57 32       		.byte	0x32
 17181 2c58 00       		.byte	0
 17182 2c59 0F       		.uleb128 0xf
 17183 2c5a 6A2B0000 		.4byte	.LVL510
 17184 2c5e 04400000 		.4byte	0x4004
 17185 2c62 6D2C0000 		.4byte	0x2c6d
 17186 2c66 10       		.uleb128 0x10
 17187 2c67 01       		.uleb128 0x1
 17188 2c68 50       		.byte	0x50
 17189 2c69 02       		.uleb128 0x2
ARM GAS  C:\Users\diego\AppData\Local\Temp\ccvEcbYb.s 			page 346


 17190 2c6a 74       		.byte	0x74
 17191 2c6b 00       		.sleb128 0
 17192 2c6c 00       		.byte	0
 17193 2c6d 0F       		.uleb128 0xf
 17194 2c6e 822B0000 		.4byte	.LVL511
 17195 2c72 7A400000 		.4byte	0x407a
 17196 2c76 8A2C0000 		.4byte	0x2c8a
 17197 2c7a 10       		.uleb128 0x10
 17198 2c7b 01       		.uleb128 0x1
 17199 2c7c 51       		.byte	0x51
 17200 2c7d 02       		.uleb128 0x2
 17201 2c7e 74       		.byte	0x74
 17202 2c7f 00       		.sleb128 0
 17203 2c80 10       		.uleb128 0x10
 17204 2c81 01       		.uleb128 0x1
 17205 2c82 50       		.byte	0x50
 17206 2c83 05       		.uleb128 0x5
 17207 2c84 03       		.byte	0x3
 17208 2c85 00000000 		.4byte	resultado
 17209 2c89 00       		.byte	0
 17210 2c8a 0F       		.uleb128 0xf
 17211 2c8b 942B0000 		.4byte	.LVL512
 17212 2c8f EA3F0000 		.4byte	0x3fea
 17213 2c93 A52C0000 		.4byte	0x2ca5
 17214 2c97 10       		.uleb128 0x10
 17215 2c98 01       		.uleb128 0x1
 17216 2c99 51       		.byte	0x51
 17217 2c9a 02       		.uleb128 0x2
 17218 2c9b 91       		.byte	0x91
 17219 2c9c 54       		.sleb128 -44
 17220 2c9d 10       		.uleb128 0x10
 17221 2c9e 01       		.uleb128 0x1
 17222 2c9f 50       		.byte	0x50
 17223 2ca0 03       		.uleb128 0x3
 17224 2ca1 0A       		.byte	0xa
 17225 2ca2 0001     		.2byte	0x100
 17226 2ca4 00       		.byte	0
 17227 2ca5 0F       		.uleb128 0xf
 17228 2ca6 9E2B0000 		.4byte	.LVL513
 17229 2caa EA3F0000 		.4byte	0x3fea
 17230 2cae C32C0000 		.4byte	0x2cc3
 17231 2cb2 10       		.uleb128 0x10
 17232 2cb3 01       		.uleb128 0x1
 17233 2cb4 51       		.byte	0x51
 17234 2cb5 05       		.uleb128 0x5
 17235 2cb6 03       		.byte	0x3
 17236 2cb7 00000000 		.4byte	resultado
 17237 2cbb 10       		.uleb128 0x10
 17238 2cbc 01       		.uleb128 0x1
 17239 2cbd 50       		.byte	0x50
 17240 2cbe 03       		.uleb128 0x3
 17241 2cbf 0A       		.byte	0xa
 17242 2cc0 0D02     		.2byte	0x20d
 17243 2cc2 00       		.byte	0
 17244 2cc3 0F       		.uleb128 0xf
 17245 2cc4 AA2B0000 		.4byte	.LVL514
 17246 2cc8 EA3F0000 		.4byte	0x3fea
ARM GAS  C:\Users\diego\AppData\Local\Temp\ccvEcbYb.s 			page 347


 17247 2ccc DE2C0000 		.4byte	0x2cde
 17248 2cd0 10       		.uleb128 0x10
 17249 2cd1 01       		.uleb128 0x1
 17250 2cd2 51       		.byte	0x51
 17251 2cd3 02       		.uleb128 0x2
 17252 2cd4 91       		.byte	0x91
 17253 2cd5 54       		.sleb128 -44
 17254 2cd6 10       		.uleb128 0x10
 17255 2cd7 01       		.uleb128 0x1
 17256 2cd8 50       		.byte	0x50
 17257 2cd9 03       		.uleb128 0x3
 17258 2cda 0A       		.byte	0xa
 17259 2cdb 5901     		.2byte	0x159
 17260 2cdd 00       		.byte	0
 17261 2cde 0F       		.uleb128 0xf
 17262 2cdf B42B0000 		.4byte	.LVL515
 17263 2ce3 EA3F0000 		.4byte	0x3fea
 17264 2ce7 FC2C0000 		.4byte	0x2cfc
 17265 2ceb 10       		.uleb128 0x10
 17266 2cec 01       		.uleb128 0x1
 17267 2ced 51       		.byte	0x51
 17268 2cee 05       		.uleb128 0x5
 17269 2cef 03       		.byte	0x3
 17270 2cf0 00000000 		.4byte	resultado
 17271 2cf4 10       		.uleb128 0x10
 17272 2cf5 01       		.uleb128 0x1
 17273 2cf6 50       		.byte	0x50
 17274 2cf7 03       		.uleb128 0x3
 17275 2cf8 0A       		.byte	0xa
 17276 2cf9 4D02     		.2byte	0x24d
 17277 2cfb 00       		.byte	0
 17278 2cfc 0F       		.uleb128 0xf
 17279 2cfd 202C0000 		.4byte	.LVL516
 17280 2d01 04400000 		.4byte	0x4004
 17281 2d05 102D0000 		.4byte	0x2d10
 17282 2d09 10       		.uleb128 0x10
 17283 2d0a 01       		.uleb128 0x1
 17284 2d0b 50       		.byte	0x50
 17285 2d0c 02       		.uleb128 0x2
 17286 2d0d 74       		.byte	0x74
 17287 2d0e 00       		.sleb128 0
 17288 2d0f 00       		.byte	0
 17289 2d10 0F       		.uleb128 0xf
 17290 2d11 382C0000 		.4byte	.LVL517
 17291 2d15 04400000 		.4byte	0x4004
 17292 2d19 292D0000 		.4byte	0x2d29
 17293 2d1d 10       		.uleb128 0x10
 17294 2d1e 01       		.uleb128 0x1
 17295 2d1f 51       		.byte	0x51
 17296 2d20 01       		.uleb128 0x1
 17297 2d21 3A       		.byte	0x3a
 17298 2d22 10       		.uleb128 0x10
 17299 2d23 01       		.uleb128 0x1
 17300 2d24 50       		.byte	0x50
 17301 2d25 02       		.uleb128 0x2
 17302 2d26 74       		.byte	0x74
 17303 2d27 00       		.sleb128 0
ARM GAS  C:\Users\diego\AppData\Local\Temp\ccvEcbYb.s 			page 348


 17304 2d28 00       		.byte	0
 17305 2d29 0F       		.uleb128 0xf
 17306 2d2a 4A2C0000 		.4byte	.LVL518
 17307 2d2e 04400000 		.4byte	0x4004
 17308 2d32 3D2D0000 		.4byte	0x2d3d
 17309 2d36 10       		.uleb128 0x10
 17310 2d37 01       		.uleb128 0x1
 17311 2d38 50       		.byte	0x50
 17312 2d39 02       		.uleb128 0x2
 17313 2d3a 74       		.byte	0x74
 17314 2d3b 00       		.sleb128 0
 17315 2d3c 00       		.byte	0
 17316 2d3d 0F       		.uleb128 0xf
 17317 2d3e 622C0000 		.4byte	.LVL519
 17318 2d42 04400000 		.4byte	0x4004
 17319 2d46 562D0000 		.4byte	0x2d56
 17320 2d4a 10       		.uleb128 0x10
 17321 2d4b 01       		.uleb128 0x1
 17322 2d4c 51       		.byte	0x51
 17323 2d4d 01       		.uleb128 0x1
 17324 2d4e 3A       		.byte	0x3a
 17325 2d4f 10       		.uleb128 0x10
 17326 2d50 01       		.uleb128 0x1
 17327 2d51 50       		.byte	0x50
 17328 2d52 02       		.uleb128 0x2
 17329 2d53 74       		.byte	0x74
 17330 2d54 00       		.sleb128 0
 17331 2d55 00       		.byte	0
 17332 2d56 0F       		.uleb128 0xf
 17333 2d57 762C0000 		.4byte	.LVL520
 17334 2d5b 04400000 		.4byte	0x4004
 17335 2d5f 6A2D0000 		.4byte	0x2d6a
 17336 2d63 10       		.uleb128 0x10
 17337 2d64 01       		.uleb128 0x1
 17338 2d65 50       		.byte	0x50
 17339 2d66 02       		.uleb128 0x2
 17340 2d67 74       		.byte	0x74
 17341 2d68 00       		.sleb128 0
 17342 2d69 00       		.byte	0
 17343 2d6a 0F       		.uleb128 0xf
 17344 2d6b 8E2C0000 		.4byte	.LVL521
 17345 2d6f 04400000 		.4byte	0x4004
 17346 2d73 832D0000 		.4byte	0x2d83
 17347 2d77 10       		.uleb128 0x10
 17348 2d78 01       		.uleb128 0x1
 17349 2d79 51       		.byte	0x51
 17350 2d7a 01       		.uleb128 0x1
 17351 2d7b 3A       		.byte	0x3a
 17352 2d7c 10       		.uleb128 0x10
 17353 2d7d 01       		.uleb128 0x1
 17354 2d7e 50       		.byte	0x50
 17355 2d7f 02       		.uleb128 0x2
 17356 2d80 74       		.byte	0x74
 17357 2d81 00       		.sleb128 0
 17358 2d82 00       		.byte	0
 17359 2d83 0F       		.uleb128 0xf
 17360 2d84 962C0000 		.4byte	.LVL522
ARM GAS  C:\Users\diego\AppData\Local\Temp\ccvEcbYb.s 			page 349


 17361 2d88 1E400000 		.4byte	0x401e
 17362 2d8c 9C2D0000 		.4byte	0x2d9c
 17363 2d90 10       		.uleb128 0x10
 17364 2d91 01       		.uleb128 0x1
 17365 2d92 51       		.byte	0x51
 17366 2d93 02       		.uleb128 0x2
 17367 2d94 74       		.byte	0x74
 17368 2d95 00       		.sleb128 0
 17369 2d96 10       		.uleb128 0x10
 17370 2d97 01       		.uleb128 0x1
 17371 2d98 50       		.byte	0x50
 17372 2d99 01       		.uleb128 0x1
 17373 2d9a 3C       		.byte	0x3c
 17374 2d9b 00       		.byte	0
 17375 2d9c 0F       		.uleb128 0xf
 17376 2d9d AA2C0000 		.4byte	.LVL523
 17377 2da1 04400000 		.4byte	0x4004
 17378 2da5 B02D0000 		.4byte	0x2db0
 17379 2da9 10       		.uleb128 0x10
 17380 2daa 01       		.uleb128 0x1
 17381 2dab 50       		.byte	0x50
 17382 2dac 02       		.uleb128 0x2
 17383 2dad 74       		.byte	0x74
 17384 2dae 00       		.sleb128 0
 17385 2daf 00       		.byte	0
 17386 2db0 0F       		.uleb128 0xf
 17387 2db1 C22C0000 		.4byte	.LVL524
 17388 2db5 04400000 		.4byte	0x4004
 17389 2db9 C92D0000 		.4byte	0x2dc9
 17390 2dbd 10       		.uleb128 0x10
 17391 2dbe 01       		.uleb128 0x1
 17392 2dbf 51       		.byte	0x51
 17393 2dc0 01       		.uleb128 0x1
 17394 2dc1 3A       		.byte	0x3a
 17395 2dc2 10       		.uleb128 0x10
 17396 2dc3 01       		.uleb128 0x1
 17397 2dc4 50       		.byte	0x50
 17398 2dc5 02       		.uleb128 0x2
 17399 2dc6 74       		.byte	0x74
 17400 2dc7 00       		.sleb128 0
 17401 2dc8 00       		.byte	0
 17402 2dc9 0F       		.uleb128 0xf
 17403 2dca D42C0000 		.4byte	.LVL525
 17404 2dce 34400000 		.4byte	0x4034
 17405 2dd2 E32D0000 		.4byte	0x2de3
 17406 2dd6 10       		.uleb128 0x10
 17407 2dd7 01       		.uleb128 0x1
 17408 2dd8 51       		.byte	0x51
 17409 2dd9 01       		.uleb128 0x1
 17410 2dda 49       		.byte	0x49
 17411 2ddb 10       		.uleb128 0x10
 17412 2ddc 01       		.uleb128 0x1
 17413 2ddd 50       		.byte	0x50
 17414 2dde 03       		.uleb128 0x3
 17415 2ddf 0A       		.byte	0xa
 17416 2de0 4804     		.2byte	0x448
 17417 2de2 00       		.byte	0
ARM GAS  C:\Users\diego\AppData\Local\Temp\ccvEcbYb.s 			page 350


 17418 2de3 0F       		.uleb128 0xf
 17419 2de4 E02C0000 		.4byte	.LVL526
 17420 2de8 34400000 		.4byte	0x4034
 17421 2dec FD2D0000 		.4byte	0x2dfd
 17422 2df0 10       		.uleb128 0x10
 17423 2df1 01       		.uleb128 0x1
 17424 2df2 51       		.byte	0x51
 17425 2df3 01       		.uleb128 0x1
 17426 2df4 49       		.byte	0x49
 17427 2df5 10       		.uleb128 0x10
 17428 2df6 01       		.uleb128 0x1
 17429 2df7 50       		.byte	0x50
 17430 2df8 03       		.uleb128 0x3
 17431 2df9 0A       		.byte	0xa
 17432 2dfa 1E04     		.2byte	0x41e
 17433 2dfc 00       		.byte	0
 17434 2dfd 0F       		.uleb128 0xf
 17435 2dfe E62C0000 		.4byte	.LVL527
 17436 2e02 4E400000 		.4byte	0x404e
 17437 2e06 112E0000 		.4byte	0x2e11
 17438 2e0a 10       		.uleb128 0x10
 17439 2e0b 01       		.uleb128 0x1
 17440 2e0c 50       		.byte	0x50
 17441 2e0d 02       		.uleb128 0x2
 17442 2e0e 74       		.byte	0x74
 17443 2e0f 00       		.sleb128 0
 17444 2e10 00       		.byte	0
 17445 2e11 0F       		.uleb128 0xf
 17446 2e12 282D0000 		.4byte	.LVL528
 17447 2e16 5F400000 		.4byte	0x405f
 17448 2e1a 312E0000 		.4byte	0x2e31
 17449 2e1e 10       		.uleb128 0x10
 17450 2e1f 01       		.uleb128 0x1
 17451 2e20 52       		.byte	0x52
 17452 2e21 03       		.uleb128 0x3
 17453 2e22 91       		.byte	0x91
 17454 2e23 B47F     		.sleb128 -76
 17455 2e25 10       		.uleb128 0x10
 17456 2e26 01       		.uleb128 0x1
 17457 2e27 51       		.byte	0x51
 17458 2e28 02       		.uleb128 0x2
 17459 2e29 91       		.byte	0x91
 17460 2e2a 44       		.sleb128 -60
 17461 2e2b 10       		.uleb128 0x10
 17462 2e2c 01       		.uleb128 0x1
 17463 2e2d 50       		.byte	0x50
 17464 2e2e 01       		.uleb128 0x1
 17465 2e2f 32       		.byte	0x32
 17466 2e30 00       		.byte	0
 17467 2e31 0F       		.uleb128 0xf
 17468 2e32 3E2D0000 		.4byte	.LVL529
 17469 2e36 04400000 		.4byte	0x4004
 17470 2e3a 452E0000 		.4byte	0x2e45
 17471 2e3e 10       		.uleb128 0x10
 17472 2e3f 01       		.uleb128 0x1
 17473 2e40 50       		.byte	0x50
 17474 2e41 02       		.uleb128 0x2
ARM GAS  C:\Users\diego\AppData\Local\Temp\ccvEcbYb.s 			page 351


 17475 2e42 74       		.byte	0x74
 17476 2e43 00       		.sleb128 0
 17477 2e44 00       		.byte	0
 17478 2e45 0F       		.uleb128 0xf
 17479 2e46 562D0000 		.4byte	.LVL530
 17480 2e4a 7A400000 		.4byte	0x407a
 17481 2e4e 622E0000 		.4byte	0x2e62
 17482 2e52 10       		.uleb128 0x10
 17483 2e53 01       		.uleb128 0x1
 17484 2e54 51       		.byte	0x51
 17485 2e55 02       		.uleb128 0x2
 17486 2e56 74       		.byte	0x74
 17487 2e57 00       		.sleb128 0
 17488 2e58 10       		.uleb128 0x10
 17489 2e59 01       		.uleb128 0x1
 17490 2e5a 50       		.byte	0x50
 17491 2e5b 05       		.uleb128 0x5
 17492 2e5c 03       		.byte	0x3
 17493 2e5d 00000000 		.4byte	resultado
 17494 2e61 00       		.byte	0
 17495 2e62 0F       		.uleb128 0xf
 17496 2e63 682D0000 		.4byte	.LVL531
 17497 2e67 EA3F0000 		.4byte	0x3fea
 17498 2e6b 7D2E0000 		.4byte	0x2e7d
 17499 2e6f 10       		.uleb128 0x10
 17500 2e70 01       		.uleb128 0x1
 17501 2e71 51       		.byte	0x51
 17502 2e72 02       		.uleb128 0x2
 17503 2e73 91       		.byte	0x91
 17504 2e74 54       		.sleb128 -44
 17505 2e75 10       		.uleb128 0x10
 17506 2e76 01       		.uleb128 0x1
 17507 2e77 50       		.byte	0x50
 17508 2e78 03       		.uleb128 0x3
 17509 2e79 0A       		.byte	0xa
 17510 2e7a 4804     		.2byte	0x448
 17511 2e7c 00       		.byte	0
 17512 2e7d 0F       		.uleb128 0xf
 17513 2e7e 722D0000 		.4byte	.LVL532
 17514 2e82 EA3F0000 		.4byte	0x3fea
 17515 2e86 9B2E0000 		.4byte	0x2e9b
 17516 2e8a 10       		.uleb128 0x10
 17517 2e8b 01       		.uleb128 0x1
 17518 2e8c 51       		.byte	0x51
 17519 2e8d 05       		.uleb128 0x5
 17520 2e8e 03       		.byte	0x3
 17521 2e8f 00000000 		.4byte	resultado
 17522 2e93 10       		.uleb128 0x10
 17523 2e94 01       		.uleb128 0x1
 17524 2e95 50       		.byte	0x50
 17525 2e96 03       		.uleb128 0x3
 17526 2e97 0A       		.byte	0xa
 17527 2e98 0E04     		.2byte	0x40e
 17528 2e9a 00       		.byte	0
 17529 2e9b 0F       		.uleb128 0xf
 17530 2e9c 7E2D0000 		.4byte	.LVL533
 17531 2ea0 EA3F0000 		.4byte	0x3fea
ARM GAS  C:\Users\diego\AppData\Local\Temp\ccvEcbYb.s 			page 352


 17532 2ea4 B62E0000 		.4byte	0x2eb6
 17533 2ea8 10       		.uleb128 0x10
 17534 2ea9 01       		.uleb128 0x1
 17535 2eaa 51       		.byte	0x51
 17536 2eab 02       		.uleb128 0x2
 17537 2eac 91       		.byte	0x91
 17538 2ead 54       		.sleb128 -44
 17539 2eae 10       		.uleb128 0x10
 17540 2eaf 01       		.uleb128 0x1
 17541 2eb0 50       		.byte	0x50
 17542 2eb1 03       		.uleb128 0x3
 17543 2eb2 0A       		.byte	0xa
 17544 2eb3 1E04     		.2byte	0x41e
 17545 2eb5 00       		.byte	0
 17546 2eb6 0F       		.uleb128 0xf
 17547 2eb7 882D0000 		.4byte	.LVL534
 17548 2ebb EA3F0000 		.4byte	0x3fea
 17549 2ebf D42E0000 		.4byte	0x2ed4
 17550 2ec3 10       		.uleb128 0x10
 17551 2ec4 01       		.uleb128 0x1
 17552 2ec5 51       		.byte	0x51
 17553 2ec6 05       		.uleb128 0x5
 17554 2ec7 03       		.byte	0x3
 17555 2ec8 00000000 		.4byte	resultado
 17556 2ecc 10       		.uleb128 0x10
 17557 2ecd 01       		.uleb128 0x1
 17558 2ece 50       		.byte	0x50
 17559 2ecf 03       		.uleb128 0x3
 17560 2ed0 0A       		.byte	0xa
 17561 2ed1 3904     		.2byte	0x439
 17562 2ed3 00       		.byte	0
 17563 2ed4 11       		.uleb128 0x11
 17564 2ed5 9E2D0000 		.4byte	.LVL535
 17565 2ed9 D83F0000 		.4byte	0x3fd8
 17566 2edd 0F       		.uleb128 0xf
 17567 2ede 342F0000 		.4byte	.LVL538
 17568 2ee2 04400000 		.4byte	0x4004
 17569 2ee6 F12E0000 		.4byte	0x2ef1
 17570 2eea 10       		.uleb128 0x10
 17571 2eeb 01       		.uleb128 0x1
 17572 2eec 50       		.byte	0x50
 17573 2eed 02       		.uleb128 0x2
 17574 2eee 74       		.byte	0x74
 17575 2eef 00       		.sleb128 0
 17576 2ef0 00       		.byte	0
 17577 2ef1 0F       		.uleb128 0xf
 17578 2ef2 4C2F0000 		.4byte	.LVL539
 17579 2ef6 04400000 		.4byte	0x4004
 17580 2efa 0A2F0000 		.4byte	0x2f0a
 17581 2efe 10       		.uleb128 0x10
 17582 2eff 01       		.uleb128 0x1
 17583 2f00 51       		.byte	0x51
 17584 2f01 01       		.uleb128 0x1
 17585 2f02 3A       		.byte	0x3a
 17586 2f03 10       		.uleb128 0x10
 17587 2f04 01       		.uleb128 0x1
 17588 2f05 50       		.byte	0x50
ARM GAS  C:\Users\diego\AppData\Local\Temp\ccvEcbYb.s 			page 353


 17589 2f06 02       		.uleb128 0x2
 17590 2f07 74       		.byte	0x74
 17591 2f08 00       		.sleb128 0
 17592 2f09 00       		.byte	0
 17593 2f0a 0F       		.uleb128 0xf
 17594 2f0b 5E2F0000 		.4byte	.LVL540
 17595 2f0f 04400000 		.4byte	0x4004
 17596 2f13 1E2F0000 		.4byte	0x2f1e
 17597 2f17 10       		.uleb128 0x10
 17598 2f18 01       		.uleb128 0x1
 17599 2f19 50       		.byte	0x50
 17600 2f1a 02       		.uleb128 0x2
 17601 2f1b 74       		.byte	0x74
 17602 2f1c 00       		.sleb128 0
 17603 2f1d 00       		.byte	0
 17604 2f1e 0F       		.uleb128 0xf
 17605 2f1f 762F0000 		.4byte	.LVL541
 17606 2f23 04400000 		.4byte	0x4004
 17607 2f27 372F0000 		.4byte	0x2f37
 17608 2f2b 10       		.uleb128 0x10
 17609 2f2c 01       		.uleb128 0x1
 17610 2f2d 51       		.byte	0x51
 17611 2f2e 01       		.uleb128 0x1
 17612 2f2f 3A       		.byte	0x3a
 17613 2f30 10       		.uleb128 0x10
 17614 2f31 01       		.uleb128 0x1
 17615 2f32 50       		.byte	0x50
 17616 2f33 02       		.uleb128 0x2
 17617 2f34 74       		.byte	0x74
 17618 2f35 00       		.sleb128 0
 17619 2f36 00       		.byte	0
 17620 2f37 0F       		.uleb128 0xf
 17621 2f38 8A2F0000 		.4byte	.LVL542
 17622 2f3c 04400000 		.4byte	0x4004
 17623 2f40 4B2F0000 		.4byte	0x2f4b
 17624 2f44 10       		.uleb128 0x10
 17625 2f45 01       		.uleb128 0x1
 17626 2f46 50       		.byte	0x50
 17627 2f47 02       		.uleb128 0x2
 17628 2f48 74       		.byte	0x74
 17629 2f49 00       		.sleb128 0
 17630 2f4a 00       		.byte	0
 17631 2f4b 0F       		.uleb128 0xf
 17632 2f4c A22F0000 		.4byte	.LVL543
 17633 2f50 04400000 		.4byte	0x4004
 17634 2f54 642F0000 		.4byte	0x2f64
 17635 2f58 10       		.uleb128 0x10
 17636 2f59 01       		.uleb128 0x1
 17637 2f5a 51       		.byte	0x51
 17638 2f5b 01       		.uleb128 0x1
 17639 2f5c 3A       		.byte	0x3a
 17640 2f5d 10       		.uleb128 0x10
 17641 2f5e 01       		.uleb128 0x1
 17642 2f5f 50       		.byte	0x50
 17643 2f60 02       		.uleb128 0x2
 17644 2f61 74       		.byte	0x74
 17645 2f62 00       		.sleb128 0
ARM GAS  C:\Users\diego\AppData\Local\Temp\ccvEcbYb.s 			page 354


 17646 2f63 00       		.byte	0
 17647 2f64 0F       		.uleb128 0xf
 17648 2f65 AA2F0000 		.4byte	.LVL544
 17649 2f69 1E400000 		.4byte	0x401e
 17650 2f6d 7D2F0000 		.4byte	0x2f7d
 17651 2f71 10       		.uleb128 0x10
 17652 2f72 01       		.uleb128 0x1
 17653 2f73 51       		.byte	0x51
 17654 2f74 02       		.uleb128 0x2
 17655 2f75 74       		.byte	0x74
 17656 2f76 00       		.sleb128 0
 17657 2f77 10       		.uleb128 0x10
 17658 2f78 01       		.uleb128 0x1
 17659 2f79 50       		.byte	0x50
 17660 2f7a 01       		.uleb128 0x1
 17661 2f7b 3C       		.byte	0x3c
 17662 2f7c 00       		.byte	0
 17663 2f7d 0F       		.uleb128 0xf
 17664 2f7e BE2F0000 		.4byte	.LVL545
 17665 2f82 04400000 		.4byte	0x4004
 17666 2f86 912F0000 		.4byte	0x2f91
 17667 2f8a 10       		.uleb128 0x10
 17668 2f8b 01       		.uleb128 0x1
 17669 2f8c 50       		.byte	0x50
 17670 2f8d 02       		.uleb128 0x2
 17671 2f8e 74       		.byte	0x74
 17672 2f8f 00       		.sleb128 0
 17673 2f90 00       		.byte	0
 17674 2f91 0F       		.uleb128 0xf
 17675 2f92 D62F0000 		.4byte	.LVL546
 17676 2f96 04400000 		.4byte	0x4004
 17677 2f9a AA2F0000 		.4byte	0x2faa
 17678 2f9e 10       		.uleb128 0x10
 17679 2f9f 01       		.uleb128 0x1
 17680 2fa0 51       		.byte	0x51
 17681 2fa1 01       		.uleb128 0x1
 17682 2fa2 3A       		.byte	0x3a
 17683 2fa3 10       		.uleb128 0x10
 17684 2fa4 01       		.uleb128 0x1
 17685 2fa5 50       		.byte	0x50
 17686 2fa6 02       		.uleb128 0x2
 17687 2fa7 74       		.byte	0x74
 17688 2fa8 00       		.sleb128 0
 17689 2fa9 00       		.byte	0
 17690 2faa 0F       		.uleb128 0xf
 17691 2fab E62F0000 		.4byte	.LVL547
 17692 2faf 34400000 		.4byte	0x4034
 17693 2fb3 C32F0000 		.4byte	0x2fc3
 17694 2fb7 10       		.uleb128 0x10
 17695 2fb8 01       		.uleb128 0x1
 17696 2fb9 51       		.byte	0x51
 17697 2fba 01       		.uleb128 0x1
 17698 2fbb 49       		.byte	0x49
 17699 2fbc 10       		.uleb128 0x10
 17700 2fbd 01       		.uleb128 0x1
 17701 2fbe 50       		.byte	0x50
 17702 2fbf 02       		.uleb128 0x2
ARM GAS  C:\Users\diego\AppData\Local\Temp\ccvEcbYb.s 			page 355


 17703 2fc0 08       		.byte	0x8
 17704 2fc1 C0       		.byte	0xc0
 17705 2fc2 00       		.byte	0
 17706 2fc3 0F       		.uleb128 0xf
 17707 2fc4 F22F0000 		.4byte	.LVL548
 17708 2fc8 34400000 		.4byte	0x4034
 17709 2fcc DD2F0000 		.4byte	0x2fdd
 17710 2fd0 10       		.uleb128 0x10
 17711 2fd1 01       		.uleb128 0x1
 17712 2fd2 51       		.byte	0x51
 17713 2fd3 01       		.uleb128 0x1
 17714 2fd4 49       		.byte	0x49
 17715 2fd5 10       		.uleb128 0x10
 17716 2fd6 01       		.uleb128 0x1
 17717 2fd7 50       		.byte	0x50
 17718 2fd8 03       		.uleb128 0x3
 17719 2fd9 0A       		.byte	0xa
 17720 2fda 1901     		.2byte	0x119
 17721 2fdc 00       		.byte	0
 17722 2fdd 0F       		.uleb128 0xf
 17723 2fde F82F0000 		.4byte	.LVL549
 17724 2fe2 4E400000 		.4byte	0x404e
 17725 2fe6 F12F0000 		.4byte	0x2ff1
 17726 2fea 10       		.uleb128 0x10
 17727 2feb 01       		.uleb128 0x1
 17728 2fec 50       		.byte	0x50
 17729 2fed 02       		.uleb128 0x2
 17730 2fee 74       		.byte	0x74
 17731 2fef 00       		.sleb128 0
 17732 2ff0 00       		.byte	0
 17733 2ff1 0F       		.uleb128 0xf
 17734 2ff2 3A300000 		.4byte	.LVL550
 17735 2ff6 5F400000 		.4byte	0x405f
 17736 2ffa 11300000 		.4byte	0x3011
 17737 2ffe 10       		.uleb128 0x10
 17738 2fff 01       		.uleb128 0x1
 17739 3000 52       		.byte	0x52
 17740 3001 03       		.uleb128 0x3
 17741 3002 91       		.byte	0x91
 17742 3003 B47F     		.sleb128 -76
 17743 3005 10       		.uleb128 0x10
 17744 3006 01       		.uleb128 0x1
 17745 3007 51       		.byte	0x51
 17746 3008 02       		.uleb128 0x2
 17747 3009 91       		.byte	0x91
 17748 300a 44       		.sleb128 -60
 17749 300b 10       		.uleb128 0x10
 17750 300c 01       		.uleb128 0x1
 17751 300d 50       		.byte	0x50
 17752 300e 01       		.uleb128 0x1
 17753 300f 32       		.byte	0x32
 17754 3010 00       		.byte	0
 17755 3011 0F       		.uleb128 0xf
 17756 3012 50300000 		.4byte	.LVL551
 17757 3016 04400000 		.4byte	0x4004
 17758 301a 25300000 		.4byte	0x3025
 17759 301e 10       		.uleb128 0x10
ARM GAS  C:\Users\diego\AppData\Local\Temp\ccvEcbYb.s 			page 356


 17760 301f 01       		.uleb128 0x1
 17761 3020 50       		.byte	0x50
 17762 3021 02       		.uleb128 0x2
 17763 3022 74       		.byte	0x74
 17764 3023 00       		.sleb128 0
 17765 3024 00       		.byte	0
 17766 3025 0F       		.uleb128 0xf
 17767 3026 68300000 		.4byte	.LVL552
 17768 302a 7A400000 		.4byte	0x407a
 17769 302e 42300000 		.4byte	0x3042
 17770 3032 10       		.uleb128 0x10
 17771 3033 01       		.uleb128 0x1
 17772 3034 51       		.byte	0x51
 17773 3035 02       		.uleb128 0x2
 17774 3036 74       		.byte	0x74
 17775 3037 00       		.sleb128 0
 17776 3038 10       		.uleb128 0x10
 17777 3039 01       		.uleb128 0x1
 17778 303a 50       		.byte	0x50
 17779 303b 05       		.uleb128 0x5
 17780 303c 03       		.byte	0x3
 17781 303d 00000000 		.4byte	resultado
 17782 3041 00       		.byte	0
 17783 3042 0F       		.uleb128 0xf
 17784 3043 78300000 		.4byte	.LVL553
 17785 3047 EA3F0000 		.4byte	0x3fea
 17786 304b 5C300000 		.4byte	0x305c
 17787 304f 10       		.uleb128 0x10
 17788 3050 01       		.uleb128 0x1
 17789 3051 51       		.byte	0x51
 17790 3052 02       		.uleb128 0x2
 17791 3053 91       		.byte	0x91
 17792 3054 54       		.sleb128 -44
 17793 3055 10       		.uleb128 0x10
 17794 3056 01       		.uleb128 0x1
 17795 3057 50       		.byte	0x50
 17796 3058 02       		.uleb128 0x2
 17797 3059 08       		.byte	0x8
 17798 305a C0       		.byte	0xc0
 17799 305b 00       		.byte	0
 17800 305c 0F       		.uleb128 0xf
 17801 305d 82300000 		.4byte	.LVL554
 17802 3061 EA3F0000 		.4byte	0x3fea
 17803 3065 7A300000 		.4byte	0x307a
 17804 3069 10       		.uleb128 0x10
 17805 306a 01       		.uleb128 0x1
 17806 306b 51       		.byte	0x51
 17807 306c 05       		.uleb128 0x5
 17808 306d 03       		.byte	0x3
 17809 306e 00000000 		.4byte	resultado
 17810 3072 10       		.uleb128 0x10
 17811 3073 01       		.uleb128 0x1
 17812 3074 50       		.byte	0x50
 17813 3075 03       		.uleb128 0x3
 17814 3076 0A       		.byte	0xa
 17815 3077 0002     		.2byte	0x200
 17816 3079 00       		.byte	0
ARM GAS  C:\Users\diego\AppData\Local\Temp\ccvEcbYb.s 			page 357


 17817 307a 0F       		.uleb128 0xf
 17818 307b 8E300000 		.4byte	.LVL555
 17819 307f EA3F0000 		.4byte	0x3fea
 17820 3083 95300000 		.4byte	0x3095
 17821 3087 10       		.uleb128 0x10
 17822 3088 01       		.uleb128 0x1
 17823 3089 51       		.byte	0x51
 17824 308a 02       		.uleb128 0x2
 17825 308b 91       		.byte	0x91
 17826 308c 54       		.sleb128 -44
 17827 308d 10       		.uleb128 0x10
 17828 308e 01       		.uleb128 0x1
 17829 308f 50       		.byte	0x50
 17830 3090 03       		.uleb128 0x3
 17831 3091 0A       		.byte	0xa
 17832 3092 1901     		.2byte	0x119
 17833 3094 00       		.byte	0
 17834 3095 0F       		.uleb128 0xf
 17835 3096 98300000 		.4byte	.LVL556
 17836 309a EA3F0000 		.4byte	0x3fea
 17837 309e B3300000 		.4byte	0x30b3
 17838 30a2 10       		.uleb128 0x10
 17839 30a3 01       		.uleb128 0x1
 17840 30a4 51       		.byte	0x51
 17841 30a5 05       		.uleb128 0x5
 17842 30a6 03       		.byte	0x3
 17843 30a7 00000000 		.4byte	resultado
 17844 30ab 10       		.uleb128 0x10
 17845 30ac 01       		.uleb128 0x1
 17846 30ad 50       		.byte	0x50
 17847 30ae 03       		.uleb128 0x3
 17848 30af 0A       		.byte	0xa
 17849 30b0 2702     		.2byte	0x227
 17850 30b2 00       		.byte	0
 17851 30b3 0F       		.uleb128 0xf
 17852 30b4 3E310000 		.4byte	.LVL557
 17853 30b8 04400000 		.4byte	0x4004
 17854 30bc C7300000 		.4byte	0x30c7
 17855 30c0 10       		.uleb128 0x10
 17856 30c1 01       		.uleb128 0x1
 17857 30c2 50       		.byte	0x50
 17858 30c3 02       		.uleb128 0x2
 17859 30c4 74       		.byte	0x74
 17860 30c5 00       		.sleb128 0
 17861 30c6 00       		.byte	0
 17862 30c7 0F       		.uleb128 0xf
 17863 30c8 56310000 		.4byte	.LVL558
 17864 30cc 04400000 		.4byte	0x4004
 17865 30d0 E0300000 		.4byte	0x30e0
 17866 30d4 10       		.uleb128 0x10
 17867 30d5 01       		.uleb128 0x1
 17868 30d6 51       		.byte	0x51
 17869 30d7 01       		.uleb128 0x1
 17870 30d8 3A       		.byte	0x3a
 17871 30d9 10       		.uleb128 0x10
 17872 30da 01       		.uleb128 0x1
 17873 30db 50       		.byte	0x50
ARM GAS  C:\Users\diego\AppData\Local\Temp\ccvEcbYb.s 			page 358


 17874 30dc 02       		.uleb128 0x2
 17875 30dd 74       		.byte	0x74
 17876 30de 00       		.sleb128 0
 17877 30df 00       		.byte	0
 17878 30e0 0F       		.uleb128 0xf
 17879 30e1 68310000 		.4byte	.LVL559
 17880 30e5 04400000 		.4byte	0x4004
 17881 30e9 F4300000 		.4byte	0x30f4
 17882 30ed 10       		.uleb128 0x10
 17883 30ee 01       		.uleb128 0x1
 17884 30ef 50       		.byte	0x50
 17885 30f0 02       		.uleb128 0x2
 17886 30f1 74       		.byte	0x74
 17887 30f2 00       		.sleb128 0
 17888 30f3 00       		.byte	0
 17889 30f4 0F       		.uleb128 0xf
 17890 30f5 80310000 		.4byte	.LVL560
 17891 30f9 04400000 		.4byte	0x4004
 17892 30fd 0D310000 		.4byte	0x310d
 17893 3101 10       		.uleb128 0x10
 17894 3102 01       		.uleb128 0x1
 17895 3103 51       		.byte	0x51
 17896 3104 01       		.uleb128 0x1
 17897 3105 3A       		.byte	0x3a
 17898 3106 10       		.uleb128 0x10
 17899 3107 01       		.uleb128 0x1
 17900 3108 50       		.byte	0x50
 17901 3109 02       		.uleb128 0x2
 17902 310a 74       		.byte	0x74
 17903 310b 00       		.sleb128 0
 17904 310c 00       		.byte	0
 17905 310d 0F       		.uleb128 0xf
 17906 310e 94310000 		.4byte	.LVL561
 17907 3112 04400000 		.4byte	0x4004
 17908 3116 21310000 		.4byte	0x3121
 17909 311a 10       		.uleb128 0x10
 17910 311b 01       		.uleb128 0x1
 17911 311c 50       		.byte	0x50
 17912 311d 02       		.uleb128 0x2
 17913 311e 74       		.byte	0x74
 17914 311f 00       		.sleb128 0
 17915 3120 00       		.byte	0
 17916 3121 0F       		.uleb128 0xf
 17917 3122 AC310000 		.4byte	.LVL562
 17918 3126 04400000 		.4byte	0x4004
 17919 312a 3A310000 		.4byte	0x313a
 17920 312e 10       		.uleb128 0x10
 17921 312f 01       		.uleb128 0x1
 17922 3130 51       		.byte	0x51
 17923 3131 01       		.uleb128 0x1
 17924 3132 3A       		.byte	0x3a
 17925 3133 10       		.uleb128 0x10
 17926 3134 01       		.uleb128 0x1
 17927 3135 50       		.byte	0x50
 17928 3136 02       		.uleb128 0x2
 17929 3137 74       		.byte	0x74
 17930 3138 00       		.sleb128 0
ARM GAS  C:\Users\diego\AppData\Local\Temp\ccvEcbYb.s 			page 359


 17931 3139 00       		.byte	0
 17932 313a 0F       		.uleb128 0xf
 17933 313b B4310000 		.4byte	.LVL563
 17934 313f 1E400000 		.4byte	0x401e
 17935 3143 53310000 		.4byte	0x3153
 17936 3147 10       		.uleb128 0x10
 17937 3148 01       		.uleb128 0x1
 17938 3149 51       		.byte	0x51
 17939 314a 02       		.uleb128 0x2
 17940 314b 74       		.byte	0x74
 17941 314c 00       		.sleb128 0
 17942 314d 10       		.uleb128 0x10
 17943 314e 01       		.uleb128 0x1
 17944 314f 50       		.byte	0x50
 17945 3150 01       		.uleb128 0x1
 17946 3151 3C       		.byte	0x3c
 17947 3152 00       		.byte	0
 17948 3153 0F       		.uleb128 0xf
 17949 3154 C8310000 		.4byte	.LVL564
 17950 3158 04400000 		.4byte	0x4004
 17951 315c 67310000 		.4byte	0x3167
 17952 3160 10       		.uleb128 0x10
 17953 3161 01       		.uleb128 0x1
 17954 3162 50       		.byte	0x50
 17955 3163 02       		.uleb128 0x2
 17956 3164 74       		.byte	0x74
 17957 3165 00       		.sleb128 0
 17958 3166 00       		.byte	0
 17959 3167 0F       		.uleb128 0xf
 17960 3168 E0310000 		.4byte	.LVL565
 17961 316c 04400000 		.4byte	0x4004
 17962 3170 80310000 		.4byte	0x3180
 17963 3174 10       		.uleb128 0x10
 17964 3175 01       		.uleb128 0x1
 17965 3176 51       		.byte	0x51
 17966 3177 01       		.uleb128 0x1
 17967 3178 3A       		.byte	0x3a
 17968 3179 10       		.uleb128 0x10
 17969 317a 01       		.uleb128 0x1
 17970 317b 50       		.byte	0x50
 17971 317c 02       		.uleb128 0x2
 17972 317d 74       		.byte	0x74
 17973 317e 00       		.sleb128 0
 17974 317f 00       		.byte	0
 17975 3180 0F       		.uleb128 0xf
 17976 3181 F0310000 		.4byte	.LVL566
 17977 3185 34400000 		.4byte	0x4034
 17978 3189 99310000 		.4byte	0x3199
 17979 318d 10       		.uleb128 0x10
 17980 318e 01       		.uleb128 0x1
 17981 318f 51       		.byte	0x51
 17982 3190 01       		.uleb128 0x1
 17983 3191 49       		.byte	0x49
 17984 3192 10       		.uleb128 0x10
 17985 3193 01       		.uleb128 0x1
 17986 3194 50       		.byte	0x50
 17987 3195 02       		.uleb128 0x2
ARM GAS  C:\Users\diego\AppData\Local\Temp\ccvEcbYb.s 			page 360


 17988 3196 08       		.byte	0x8
 17989 3197 D9       		.byte	0xd9
 17990 3198 00       		.byte	0
 17991 3199 0F       		.uleb128 0xf
 17992 319a FC310000 		.4byte	.LVL567
 17993 319e 34400000 		.4byte	0x4034
 17994 31a2 B3310000 		.4byte	0x31b3
 17995 31a6 10       		.uleb128 0x10
 17996 31a7 01       		.uleb128 0x1
 17997 31a8 51       		.byte	0x51
 17998 31a9 01       		.uleb128 0x1
 17999 31aa 49       		.byte	0x49
 18000 31ab 10       		.uleb128 0x10
 18001 31ac 01       		.uleb128 0x1
 18002 31ad 50       		.byte	0x50
 18003 31ae 03       		.uleb128 0x3
 18004 31af 0A       		.byte	0xa
 18005 31b0 4001     		.2byte	0x140
 18006 31b2 00       		.byte	0
 18007 31b3 0F       		.uleb128 0xf
 18008 31b4 02320000 		.4byte	.LVL568
 18009 31b8 4E400000 		.4byte	0x404e
 18010 31bc C7310000 		.4byte	0x31c7
 18011 31c0 10       		.uleb128 0x10
 18012 31c1 01       		.uleb128 0x1
 18013 31c2 50       		.byte	0x50
 18014 31c3 02       		.uleb128 0x2
 18015 31c4 74       		.byte	0x74
 18016 31c5 00       		.sleb128 0
 18017 31c6 00       		.byte	0
 18018 31c7 0F       		.uleb128 0xf
 18019 31c8 44320000 		.4byte	.LVL569
 18020 31cc 5F400000 		.4byte	0x405f
 18021 31d0 E7310000 		.4byte	0x31e7
 18022 31d4 10       		.uleb128 0x10
 18023 31d5 01       		.uleb128 0x1
 18024 31d6 52       		.byte	0x52
 18025 31d7 03       		.uleb128 0x3
 18026 31d8 91       		.byte	0x91
 18027 31d9 B47F     		.sleb128 -76
 18028 31db 10       		.uleb128 0x10
 18029 31dc 01       		.uleb128 0x1
 18030 31dd 51       		.byte	0x51
 18031 31de 02       		.uleb128 0x2
 18032 31df 91       		.byte	0x91
 18033 31e0 44       		.sleb128 -60
 18034 31e1 10       		.uleb128 0x10
 18035 31e2 01       		.uleb128 0x1
 18036 31e3 50       		.byte	0x50
 18037 31e4 01       		.uleb128 0x1
 18038 31e5 32       		.byte	0x32
 18039 31e6 00       		.byte	0
 18040 31e7 0F       		.uleb128 0xf
 18041 31e8 5A320000 		.4byte	.LVL570
 18042 31ec 04400000 		.4byte	0x4004
 18043 31f0 FB310000 		.4byte	0x31fb
 18044 31f4 10       		.uleb128 0x10
ARM GAS  C:\Users\diego\AppData\Local\Temp\ccvEcbYb.s 			page 361


 18045 31f5 01       		.uleb128 0x1
 18046 31f6 50       		.byte	0x50
 18047 31f7 02       		.uleb128 0x2
 18048 31f8 74       		.byte	0x74
 18049 31f9 00       		.sleb128 0
 18050 31fa 00       		.byte	0
 18051 31fb 0F       		.uleb128 0xf
 18052 31fc 72320000 		.4byte	.LVL571
 18053 3200 7A400000 		.4byte	0x407a
 18054 3204 18320000 		.4byte	0x3218
 18055 3208 10       		.uleb128 0x10
 18056 3209 01       		.uleb128 0x1
 18057 320a 51       		.byte	0x51
 18058 320b 02       		.uleb128 0x2
 18059 320c 74       		.byte	0x74
 18060 320d 00       		.sleb128 0
 18061 320e 10       		.uleb128 0x10
 18062 320f 01       		.uleb128 0x1
 18063 3210 50       		.byte	0x50
 18064 3211 05       		.uleb128 0x5
 18065 3212 03       		.byte	0x3
 18066 3213 00000000 		.4byte	resultado
 18067 3217 00       		.byte	0
 18068 3218 0F       		.uleb128 0xf
 18069 3219 82320000 		.4byte	.LVL572
 18070 321d EA3F0000 		.4byte	0x3fea
 18071 3221 32320000 		.4byte	0x3232
 18072 3225 10       		.uleb128 0x10
 18073 3226 01       		.uleb128 0x1
 18074 3227 51       		.byte	0x51
 18075 3228 02       		.uleb128 0x2
 18076 3229 91       		.byte	0x91
 18077 322a 54       		.sleb128 -44
 18078 322b 10       		.uleb128 0x10
 18079 322c 01       		.uleb128 0x1
 18080 322d 50       		.byte	0x50
 18081 322e 02       		.uleb128 0x2
 18082 322f 08       		.byte	0x8
 18083 3230 D9       		.byte	0xd9
 18084 3231 00       		.byte	0
 18085 3232 0F       		.uleb128 0xf
 18086 3233 8C320000 		.4byte	.LVL573
 18087 3237 EA3F0000 		.4byte	0x3fea
 18088 323b 50320000 		.4byte	0x3250
 18089 323f 10       		.uleb128 0x10
 18090 3240 01       		.uleb128 0x1
 18091 3241 51       		.byte	0x51
 18092 3242 05       		.uleb128 0x5
 18093 3243 03       		.byte	0x3
 18094 3244 00000000 		.4byte	resultado
 18095 3248 10       		.uleb128 0x10
 18096 3249 01       		.uleb128 0x1
 18097 324a 50       		.byte	0x50
 18098 324b 03       		.uleb128 0x3
 18099 324c 0A       		.byte	0xa
 18100 324d 1A02     		.2byte	0x21a
 18101 324f 00       		.byte	0
ARM GAS  C:\Users\diego\AppData\Local\Temp\ccvEcbYb.s 			page 362


 18102 3250 0F       		.uleb128 0xf
 18103 3251 98320000 		.4byte	.LVL574
 18104 3255 EA3F0000 		.4byte	0x3fea
 18105 3259 6B320000 		.4byte	0x326b
 18106 325d 10       		.uleb128 0x10
 18107 325e 01       		.uleb128 0x1
 18108 325f 51       		.byte	0x51
 18109 3260 02       		.uleb128 0x2
 18110 3261 91       		.byte	0x91
 18111 3262 54       		.sleb128 -44
 18112 3263 10       		.uleb128 0x10
 18113 3264 01       		.uleb128 0x1
 18114 3265 50       		.byte	0x50
 18115 3266 03       		.uleb128 0x3
 18116 3267 0A       		.byte	0xa
 18117 3268 4001     		.2byte	0x140
 18118 326a 00       		.byte	0
 18119 326b 0F       		.uleb128 0xf
 18120 326c A2320000 		.4byte	.LVL575
 18121 3270 EA3F0000 		.4byte	0x3fea
 18122 3274 89320000 		.4byte	0x3289
 18123 3278 10       		.uleb128 0x10
 18124 3279 01       		.uleb128 0x1
 18125 327a 51       		.byte	0x51
 18126 327b 05       		.uleb128 0x5
 18127 327c 03       		.byte	0x3
 18128 327d 00000000 		.4byte	resultado
 18129 3281 10       		.uleb128 0x10
 18130 3282 01       		.uleb128 0x1
 18131 3283 50       		.byte	0x50
 18132 3284 03       		.uleb128 0x3
 18133 3285 0A       		.byte	0xa
 18134 3286 4002     		.2byte	0x240
 18135 3288 00       		.byte	0
 18136 3289 0F       		.uleb128 0xf
 18137 328a E6320000 		.4byte	.LVL576
 18138 328e 04400000 		.4byte	0x4004
 18139 3292 9D320000 		.4byte	0x329d
 18140 3296 10       		.uleb128 0x10
 18141 3297 01       		.uleb128 0x1
 18142 3298 50       		.byte	0x50
 18143 3299 02       		.uleb128 0x2
 18144 329a 74       		.byte	0x74
 18145 329b 00       		.sleb128 0
 18146 329c 00       		.byte	0
 18147 329d 0F       		.uleb128 0xf
 18148 329e FE320000 		.4byte	.LVL577
 18149 32a2 04400000 		.4byte	0x4004
 18150 32a6 B6320000 		.4byte	0x32b6
 18151 32aa 10       		.uleb128 0x10
 18152 32ab 01       		.uleb128 0x1
 18153 32ac 51       		.byte	0x51
 18154 32ad 01       		.uleb128 0x1
 18155 32ae 3A       		.byte	0x3a
 18156 32af 10       		.uleb128 0x10
 18157 32b0 01       		.uleb128 0x1
 18158 32b1 50       		.byte	0x50
ARM GAS  C:\Users\diego\AppData\Local\Temp\ccvEcbYb.s 			page 363


 18159 32b2 02       		.uleb128 0x2
 18160 32b3 74       		.byte	0x74
 18161 32b4 00       		.sleb128 0
 18162 32b5 00       		.byte	0
 18163 32b6 0F       		.uleb128 0xf
 18164 32b7 10330000 		.4byte	.LVL578
 18165 32bb 04400000 		.4byte	0x4004
 18166 32bf CA320000 		.4byte	0x32ca
 18167 32c3 10       		.uleb128 0x10
 18168 32c4 01       		.uleb128 0x1
 18169 32c5 50       		.byte	0x50
 18170 32c6 02       		.uleb128 0x2
 18171 32c7 74       		.byte	0x74
 18172 32c8 00       		.sleb128 0
 18173 32c9 00       		.byte	0
 18174 32ca 0F       		.uleb128 0xf
 18175 32cb 28330000 		.4byte	.LVL579
 18176 32cf 04400000 		.4byte	0x4004
 18177 32d3 E3320000 		.4byte	0x32e3
 18178 32d7 10       		.uleb128 0x10
 18179 32d8 01       		.uleb128 0x1
 18180 32d9 51       		.byte	0x51
 18181 32da 01       		.uleb128 0x1
 18182 32db 3A       		.byte	0x3a
 18183 32dc 10       		.uleb128 0x10
 18184 32dd 01       		.uleb128 0x1
 18185 32de 50       		.byte	0x50
 18186 32df 02       		.uleb128 0x2
 18187 32e0 74       		.byte	0x74
 18188 32e1 00       		.sleb128 0
 18189 32e2 00       		.byte	0
 18190 32e3 0F       		.uleb128 0xf
 18191 32e4 3C330000 		.4byte	.LVL580
 18192 32e8 04400000 		.4byte	0x4004
 18193 32ec F7320000 		.4byte	0x32f7
 18194 32f0 10       		.uleb128 0x10
 18195 32f1 01       		.uleb128 0x1
 18196 32f2 50       		.byte	0x50
 18197 32f3 02       		.uleb128 0x2
 18198 32f4 74       		.byte	0x74
 18199 32f5 00       		.sleb128 0
 18200 32f6 00       		.byte	0
 18201 32f7 0F       		.uleb128 0xf
 18202 32f8 54330000 		.4byte	.LVL581
 18203 32fc 04400000 		.4byte	0x4004
 18204 3300 10330000 		.4byte	0x3310
 18205 3304 10       		.uleb128 0x10
 18206 3305 01       		.uleb128 0x1
 18207 3306 51       		.byte	0x51
 18208 3307 01       		.uleb128 0x1
 18209 3308 3A       		.byte	0x3a
 18210 3309 10       		.uleb128 0x10
 18211 330a 01       		.uleb128 0x1
 18212 330b 50       		.byte	0x50
 18213 330c 02       		.uleb128 0x2
 18214 330d 74       		.byte	0x74
 18215 330e 00       		.sleb128 0
ARM GAS  C:\Users\diego\AppData\Local\Temp\ccvEcbYb.s 			page 364


 18216 330f 00       		.byte	0
 18217 3310 0F       		.uleb128 0xf
 18218 3311 5C330000 		.4byte	.LVL582
 18219 3315 1E400000 		.4byte	0x401e
 18220 3319 29330000 		.4byte	0x3329
 18221 331d 10       		.uleb128 0x10
 18222 331e 01       		.uleb128 0x1
 18223 331f 51       		.byte	0x51
 18224 3320 02       		.uleb128 0x2
 18225 3321 74       		.byte	0x74
 18226 3322 00       		.sleb128 0
 18227 3323 10       		.uleb128 0x10
 18228 3324 01       		.uleb128 0x1
 18229 3325 50       		.byte	0x50
 18230 3326 01       		.uleb128 0x1
 18231 3327 3C       		.byte	0x3c
 18232 3328 00       		.byte	0
 18233 3329 0F       		.uleb128 0xf
 18234 332a 70330000 		.4byte	.LVL583
 18235 332e 04400000 		.4byte	0x4004
 18236 3332 3D330000 		.4byte	0x333d
 18237 3336 10       		.uleb128 0x10
 18238 3337 01       		.uleb128 0x1
 18239 3338 50       		.byte	0x50
 18240 3339 02       		.uleb128 0x2
 18241 333a 74       		.byte	0x74
 18242 333b 00       		.sleb128 0
 18243 333c 00       		.byte	0
 18244 333d 0F       		.uleb128 0xf
 18245 333e 88330000 		.4byte	.LVL584
 18246 3342 04400000 		.4byte	0x4004
 18247 3346 56330000 		.4byte	0x3356
 18248 334a 10       		.uleb128 0x10
 18249 334b 01       		.uleb128 0x1
 18250 334c 51       		.byte	0x51
 18251 334d 01       		.uleb128 0x1
 18252 334e 3A       		.byte	0x3a
 18253 334f 10       		.uleb128 0x10
 18254 3350 01       		.uleb128 0x1
 18255 3351 50       		.byte	0x50
 18256 3352 02       		.uleb128 0x2
 18257 3353 74       		.byte	0x74
 18258 3354 00       		.sleb128 0
 18259 3355 00       		.byte	0
 18260 3356 0F       		.uleb128 0xf
 18261 3357 9A330000 		.4byte	.LVL585
 18262 335b 34400000 		.4byte	0x4034
 18263 335f 70330000 		.4byte	0x3370
 18264 3363 10       		.uleb128 0x10
 18265 3364 01       		.uleb128 0x1
 18266 3365 51       		.byte	0x51
 18267 3366 01       		.uleb128 0x1
 18268 3367 49       		.byte	0x49
 18269 3368 10       		.uleb128 0x10
 18270 3369 01       		.uleb128 0x1
 18271 336a 50       		.byte	0x50
 18272 336b 03       		.uleb128 0x3
ARM GAS  C:\Users\diego\AppData\Local\Temp\ccvEcbYb.s 			page 365


 18273 336c 0A       		.byte	0xa
 18274 336d 0001     		.2byte	0x100
 18275 336f 00       		.byte	0
 18276 3370 0F       		.uleb128 0xf
 18277 3371 A6330000 		.4byte	.LVL586
 18278 3375 34400000 		.4byte	0x4034
 18279 3379 8A330000 		.4byte	0x338a
 18280 337d 10       		.uleb128 0x10
 18281 337e 01       		.uleb128 0x1
 18282 337f 51       		.byte	0x51
 18283 3380 01       		.uleb128 0x1
 18284 3381 49       		.byte	0x49
 18285 3382 10       		.uleb128 0x10
 18286 3383 01       		.uleb128 0x1
 18287 3384 50       		.byte	0x50
 18288 3385 03       		.uleb128 0x3
 18289 3386 0A       		.byte	0xa
 18290 3387 5901     		.2byte	0x159
 18291 3389 00       		.byte	0
 18292 338a 0F       		.uleb128 0xf
 18293 338b AC330000 		.4byte	.LVL587
 18294 338f 4E400000 		.4byte	0x404e
 18295 3393 9E330000 		.4byte	0x339e
 18296 3397 10       		.uleb128 0x10
 18297 3398 01       		.uleb128 0x1
 18298 3399 50       		.byte	0x50
 18299 339a 02       		.uleb128 0x2
 18300 339b 74       		.byte	0x74
 18301 339c 00       		.sleb128 0
 18302 339d 00       		.byte	0
 18303 339e 0F       		.uleb128 0xf
 18304 339f EE330000 		.4byte	.LVL588
 18305 33a3 5F400000 		.4byte	0x405f
 18306 33a7 BE330000 		.4byte	0x33be
 18307 33ab 10       		.uleb128 0x10
 18308 33ac 01       		.uleb128 0x1
 18309 33ad 52       		.byte	0x52
 18310 33ae 03       		.uleb128 0x3
 18311 33af 91       		.byte	0x91
 18312 33b0 B47F     		.sleb128 -76
 18313 33b2 10       		.uleb128 0x10
 18314 33b3 01       		.uleb128 0x1
 18315 33b4 51       		.byte	0x51
 18316 33b5 02       		.uleb128 0x2
 18317 33b6 91       		.byte	0x91
 18318 33b7 44       		.sleb128 -60
 18319 33b8 10       		.uleb128 0x10
 18320 33b9 01       		.uleb128 0x1
 18321 33ba 50       		.byte	0x50
 18322 33bb 01       		.uleb128 0x1
 18323 33bc 32       		.byte	0x32
 18324 33bd 00       		.byte	0
 18325 33be 0F       		.uleb128 0xf
 18326 33bf 3A340000 		.4byte	.LVL589
 18327 33c3 04400000 		.4byte	0x4004
 18328 33c7 D2330000 		.4byte	0x33d2
 18329 33cb 10       		.uleb128 0x10
ARM GAS  C:\Users\diego\AppData\Local\Temp\ccvEcbYb.s 			page 366


 18330 33cc 01       		.uleb128 0x1
 18331 33cd 50       		.byte	0x50
 18332 33ce 02       		.uleb128 0x2
 18333 33cf 74       		.byte	0x74
 18334 33d0 00       		.sleb128 0
 18335 33d1 00       		.byte	0
 18336 33d2 0F       		.uleb128 0xf
 18337 33d3 52340000 		.4byte	.LVL590
 18338 33d7 7A400000 		.4byte	0x407a
 18339 33db EF330000 		.4byte	0x33ef
 18340 33df 10       		.uleb128 0x10
 18341 33e0 01       		.uleb128 0x1
 18342 33e1 51       		.byte	0x51
 18343 33e2 02       		.uleb128 0x2
 18344 33e3 74       		.byte	0x74
 18345 33e4 00       		.sleb128 0
 18346 33e5 10       		.uleb128 0x10
 18347 33e6 01       		.uleb128 0x1
 18348 33e7 50       		.byte	0x50
 18349 33e8 05       		.uleb128 0x5
 18350 33e9 03       		.byte	0x3
 18351 33ea 00000000 		.4byte	resultado
 18352 33ee 00       		.byte	0
 18353 33ef 0F       		.uleb128 0xf
 18354 33f0 64340000 		.4byte	.LVL591
 18355 33f4 EA3F0000 		.4byte	0x3fea
 18356 33f8 0A340000 		.4byte	0x340a
 18357 33fc 10       		.uleb128 0x10
 18358 33fd 01       		.uleb128 0x1
 18359 33fe 51       		.byte	0x51
 18360 33ff 02       		.uleb128 0x2
 18361 3400 91       		.byte	0x91
 18362 3401 54       		.sleb128 -44
 18363 3402 10       		.uleb128 0x10
 18364 3403 01       		.uleb128 0x1
 18365 3404 50       		.byte	0x50
 18366 3405 03       		.uleb128 0x3
 18367 3406 0A       		.byte	0xa
 18368 3407 0001     		.2byte	0x100
 18369 3409 00       		.byte	0
 18370 340a 0F       		.uleb128 0xf
 18371 340b 6E340000 		.4byte	.LVL592
 18372 340f EA3F0000 		.4byte	0x3fea
 18373 3413 28340000 		.4byte	0x3428
 18374 3417 10       		.uleb128 0x10
 18375 3418 01       		.uleb128 0x1
 18376 3419 51       		.byte	0x51
 18377 341a 05       		.uleb128 0x5
 18378 341b 03       		.byte	0x3
 18379 341c 00000000 		.4byte	resultado
 18380 3420 10       		.uleb128 0x10
 18381 3421 01       		.uleb128 0x1
 18382 3422 50       		.byte	0x50
 18383 3423 03       		.uleb128 0x3
 18384 3424 0A       		.byte	0xa
 18385 3425 0D02     		.2byte	0x20d
 18386 3427 00       		.byte	0
ARM GAS  C:\Users\diego\AppData\Local\Temp\ccvEcbYb.s 			page 367


 18387 3428 0F       		.uleb128 0xf
 18388 3429 7A340000 		.4byte	.LVL593
 18389 342d EA3F0000 		.4byte	0x3fea
 18390 3431 43340000 		.4byte	0x3443
 18391 3435 10       		.uleb128 0x10
 18392 3436 01       		.uleb128 0x1
 18393 3437 51       		.byte	0x51
 18394 3438 02       		.uleb128 0x2
 18395 3439 91       		.byte	0x91
 18396 343a 54       		.sleb128 -44
 18397 343b 10       		.uleb128 0x10
 18398 343c 01       		.uleb128 0x1
 18399 343d 50       		.byte	0x50
 18400 343e 03       		.uleb128 0x3
 18401 343f 0A       		.byte	0xa
 18402 3440 5901     		.2byte	0x159
 18403 3442 00       		.byte	0
 18404 3443 0F       		.uleb128 0xf
 18405 3444 84340000 		.4byte	.LVL594
 18406 3448 EA3F0000 		.4byte	0x3fea
 18407 344c 61340000 		.4byte	0x3461
 18408 3450 10       		.uleb128 0x10
 18409 3451 01       		.uleb128 0x1
 18410 3452 51       		.byte	0x51
 18411 3453 05       		.uleb128 0x5
 18412 3454 03       		.byte	0x3
 18413 3455 00000000 		.4byte	resultado
 18414 3459 10       		.uleb128 0x10
 18415 345a 01       		.uleb128 0x1
 18416 345b 50       		.byte	0x50
 18417 345c 03       		.uleb128 0x3
 18418 345d 0A       		.byte	0xa
 18419 345e 4D02     		.2byte	0x24d
 18420 3460 00       		.byte	0
 18421 3461 0F       		.uleb128 0xf
 18422 3462 C8340000 		.4byte	.LVL595
 18423 3466 04400000 		.4byte	0x4004
 18424 346a 75340000 		.4byte	0x3475
 18425 346e 10       		.uleb128 0x10
 18426 346f 01       		.uleb128 0x1
 18427 3470 50       		.byte	0x50
 18428 3471 02       		.uleb128 0x2
 18429 3472 74       		.byte	0x74
 18430 3473 00       		.sleb128 0
 18431 3474 00       		.byte	0
 18432 3475 0F       		.uleb128 0xf
 18433 3476 E0340000 		.4byte	.LVL596
 18434 347a 04400000 		.4byte	0x4004
 18435 347e 8E340000 		.4byte	0x348e
 18436 3482 10       		.uleb128 0x10
 18437 3483 01       		.uleb128 0x1
 18438 3484 51       		.byte	0x51
 18439 3485 01       		.uleb128 0x1
 18440 3486 3A       		.byte	0x3a
 18441 3487 10       		.uleb128 0x10
 18442 3488 01       		.uleb128 0x1
 18443 3489 50       		.byte	0x50
ARM GAS  C:\Users\diego\AppData\Local\Temp\ccvEcbYb.s 			page 368


 18444 348a 02       		.uleb128 0x2
 18445 348b 74       		.byte	0x74
 18446 348c 00       		.sleb128 0
 18447 348d 00       		.byte	0
 18448 348e 0F       		.uleb128 0xf
 18449 348f F2340000 		.4byte	.LVL597
 18450 3493 04400000 		.4byte	0x4004
 18451 3497 A2340000 		.4byte	0x34a2
 18452 349b 10       		.uleb128 0x10
 18453 349c 01       		.uleb128 0x1
 18454 349d 50       		.byte	0x50
 18455 349e 02       		.uleb128 0x2
 18456 349f 74       		.byte	0x74
 18457 34a0 00       		.sleb128 0
 18458 34a1 00       		.byte	0
 18459 34a2 0F       		.uleb128 0xf
 18460 34a3 0A350000 		.4byte	.LVL598
 18461 34a7 04400000 		.4byte	0x4004
 18462 34ab BB340000 		.4byte	0x34bb
 18463 34af 10       		.uleb128 0x10
 18464 34b0 01       		.uleb128 0x1
 18465 34b1 51       		.byte	0x51
 18466 34b2 01       		.uleb128 0x1
 18467 34b3 3A       		.byte	0x3a
 18468 34b4 10       		.uleb128 0x10
 18469 34b5 01       		.uleb128 0x1
 18470 34b6 50       		.byte	0x50
 18471 34b7 02       		.uleb128 0x2
 18472 34b8 74       		.byte	0x74
 18473 34b9 00       		.sleb128 0
 18474 34ba 00       		.byte	0
 18475 34bb 0F       		.uleb128 0xf
 18476 34bc 1E350000 		.4byte	.LVL599
 18477 34c0 04400000 		.4byte	0x4004
 18478 34c4 CF340000 		.4byte	0x34cf
 18479 34c8 10       		.uleb128 0x10
 18480 34c9 01       		.uleb128 0x1
 18481 34ca 50       		.byte	0x50
 18482 34cb 02       		.uleb128 0x2
 18483 34cc 74       		.byte	0x74
 18484 34cd 00       		.sleb128 0
 18485 34ce 00       		.byte	0
 18486 34cf 0F       		.uleb128 0xf
 18487 34d0 36350000 		.4byte	.LVL600
 18488 34d4 04400000 		.4byte	0x4004
 18489 34d8 E8340000 		.4byte	0x34e8
 18490 34dc 10       		.uleb128 0x10
 18491 34dd 01       		.uleb128 0x1
 18492 34de 51       		.byte	0x51
 18493 34df 01       		.uleb128 0x1
 18494 34e0 3A       		.byte	0x3a
 18495 34e1 10       		.uleb128 0x10
 18496 34e2 01       		.uleb128 0x1
 18497 34e3 50       		.byte	0x50
 18498 34e4 02       		.uleb128 0x2
 18499 34e5 74       		.byte	0x74
 18500 34e6 00       		.sleb128 0
ARM GAS  C:\Users\diego\AppData\Local\Temp\ccvEcbYb.s 			page 369


 18501 34e7 00       		.byte	0
 18502 34e8 0F       		.uleb128 0xf
 18503 34e9 3E350000 		.4byte	.LVL601
 18504 34ed 1E400000 		.4byte	0x401e
 18505 34f1 01350000 		.4byte	0x3501
 18506 34f5 10       		.uleb128 0x10
 18507 34f6 01       		.uleb128 0x1
 18508 34f7 51       		.byte	0x51
 18509 34f8 02       		.uleb128 0x2
 18510 34f9 74       		.byte	0x74
 18511 34fa 00       		.sleb128 0
 18512 34fb 10       		.uleb128 0x10
 18513 34fc 01       		.uleb128 0x1
 18514 34fd 50       		.byte	0x50
 18515 34fe 01       		.uleb128 0x1
 18516 34ff 3C       		.byte	0x3c
 18517 3500 00       		.byte	0
 18518 3501 0F       		.uleb128 0xf
 18519 3502 52350000 		.4byte	.LVL602
 18520 3506 04400000 		.4byte	0x4004
 18521 350a 15350000 		.4byte	0x3515
 18522 350e 10       		.uleb128 0x10
 18523 350f 01       		.uleb128 0x1
 18524 3510 50       		.byte	0x50
 18525 3511 02       		.uleb128 0x2
 18526 3512 74       		.byte	0x74
 18527 3513 00       		.sleb128 0
 18528 3514 00       		.byte	0
 18529 3515 0F       		.uleb128 0xf
 18530 3516 6A350000 		.4byte	.LVL603
 18531 351a 04400000 		.4byte	0x4004
 18532 351e 2E350000 		.4byte	0x352e
 18533 3522 10       		.uleb128 0x10
 18534 3523 01       		.uleb128 0x1
 18535 3524 51       		.byte	0x51
 18536 3525 01       		.uleb128 0x1
 18537 3526 3A       		.byte	0x3a
 18538 3527 10       		.uleb128 0x10
 18539 3528 01       		.uleb128 0x1
 18540 3529 50       		.byte	0x50
 18541 352a 02       		.uleb128 0x2
 18542 352b 74       		.byte	0x74
 18543 352c 00       		.sleb128 0
 18544 352d 00       		.byte	0
 18545 352e 0F       		.uleb128 0xf
 18546 352f 7C350000 		.4byte	.LVL604
 18547 3533 34400000 		.4byte	0x4034
 18548 3537 48350000 		.4byte	0x3548
 18549 353b 10       		.uleb128 0x10
 18550 353c 01       		.uleb128 0x1
 18551 353d 51       		.byte	0x51
 18552 353e 01       		.uleb128 0x1
 18553 353f 49       		.byte	0x49
 18554 3540 10       		.uleb128 0x10
 18555 3541 01       		.uleb128 0x1
 18556 3542 50       		.byte	0x50
 18557 3543 03       		.uleb128 0x3
ARM GAS  C:\Users\diego\AppData\Local\Temp\ccvEcbYb.s 			page 370


 18558 3544 0A       		.byte	0xa
 18559 3545 4804     		.2byte	0x448
 18560 3547 00       		.byte	0
 18561 3548 0F       		.uleb128 0xf
 18562 3549 88350000 		.4byte	.LVL605
 18563 354d 34400000 		.4byte	0x4034
 18564 3551 62350000 		.4byte	0x3562
 18565 3555 10       		.uleb128 0x10
 18566 3556 01       		.uleb128 0x1
 18567 3557 51       		.byte	0x51
 18568 3558 01       		.uleb128 0x1
 18569 3559 49       		.byte	0x49
 18570 355a 10       		.uleb128 0x10
 18571 355b 01       		.uleb128 0x1
 18572 355c 50       		.byte	0x50
 18573 355d 03       		.uleb128 0x3
 18574 355e 0A       		.byte	0xa
 18575 355f 1E04     		.2byte	0x41e
 18576 3561 00       		.byte	0
 18577 3562 0F       		.uleb128 0xf
 18578 3563 8E350000 		.4byte	.LVL606
 18579 3567 4E400000 		.4byte	0x404e
 18580 356b 76350000 		.4byte	0x3576
 18581 356f 10       		.uleb128 0x10
 18582 3570 01       		.uleb128 0x1
 18583 3571 50       		.byte	0x50
 18584 3572 02       		.uleb128 0x2
 18585 3573 74       		.byte	0x74
 18586 3574 00       		.sleb128 0
 18587 3575 00       		.byte	0
 18588 3576 0F       		.uleb128 0xf
 18589 3577 D0350000 		.4byte	.LVL607
 18590 357b 5F400000 		.4byte	0x405f
 18591 357f 96350000 		.4byte	0x3596
 18592 3583 10       		.uleb128 0x10
 18593 3584 01       		.uleb128 0x1
 18594 3585 52       		.byte	0x52
 18595 3586 03       		.uleb128 0x3
 18596 3587 91       		.byte	0x91
 18597 3588 B47F     		.sleb128 -76
 18598 358a 10       		.uleb128 0x10
 18599 358b 01       		.uleb128 0x1
 18600 358c 51       		.byte	0x51
 18601 358d 02       		.uleb128 0x2
 18602 358e 91       		.byte	0x91
 18603 358f 44       		.sleb128 -60
 18604 3590 10       		.uleb128 0x10
 18605 3591 01       		.uleb128 0x1
 18606 3592 50       		.byte	0x50
 18607 3593 01       		.uleb128 0x1
 18608 3594 32       		.byte	0x32
 18609 3595 00       		.byte	0
 18610 3596 0F       		.uleb128 0xf
 18611 3597 E6350000 		.4byte	.LVL608
 18612 359b 04400000 		.4byte	0x4004
 18613 359f AA350000 		.4byte	0x35aa
 18614 35a3 10       		.uleb128 0x10
ARM GAS  C:\Users\diego\AppData\Local\Temp\ccvEcbYb.s 			page 371


 18615 35a4 01       		.uleb128 0x1
 18616 35a5 50       		.byte	0x50
 18617 35a6 02       		.uleb128 0x2
 18618 35a7 74       		.byte	0x74
 18619 35a8 00       		.sleb128 0
 18620 35a9 00       		.byte	0
 18621 35aa 0F       		.uleb128 0xf
 18622 35ab FE350000 		.4byte	.LVL609
 18623 35af 7A400000 		.4byte	0x407a
 18624 35b3 C7350000 		.4byte	0x35c7
 18625 35b7 10       		.uleb128 0x10
 18626 35b8 01       		.uleb128 0x1
 18627 35b9 51       		.byte	0x51
 18628 35ba 02       		.uleb128 0x2
 18629 35bb 74       		.byte	0x74
 18630 35bc 00       		.sleb128 0
 18631 35bd 10       		.uleb128 0x10
 18632 35be 01       		.uleb128 0x1
 18633 35bf 50       		.byte	0x50
 18634 35c0 05       		.uleb128 0x5
 18635 35c1 03       		.byte	0x3
 18636 35c2 00000000 		.4byte	resultado
 18637 35c6 00       		.byte	0
 18638 35c7 0F       		.uleb128 0xf
 18639 35c8 10360000 		.4byte	.LVL610
 18640 35cc EA3F0000 		.4byte	0x3fea
 18641 35d0 E2350000 		.4byte	0x35e2
 18642 35d4 10       		.uleb128 0x10
 18643 35d5 01       		.uleb128 0x1
 18644 35d6 51       		.byte	0x51
 18645 35d7 02       		.uleb128 0x2
 18646 35d8 91       		.byte	0x91
 18647 35d9 54       		.sleb128 -44
 18648 35da 10       		.uleb128 0x10
 18649 35db 01       		.uleb128 0x1
 18650 35dc 50       		.byte	0x50
 18651 35dd 03       		.uleb128 0x3
 18652 35de 0A       		.byte	0xa
 18653 35df 4804     		.2byte	0x448
 18654 35e1 00       		.byte	0
 18655 35e2 0F       		.uleb128 0xf
 18656 35e3 1A360000 		.4byte	.LVL611
 18657 35e7 EA3F0000 		.4byte	0x3fea
 18658 35eb 00360000 		.4byte	0x3600
 18659 35ef 10       		.uleb128 0x10
 18660 35f0 01       		.uleb128 0x1
 18661 35f1 51       		.byte	0x51
 18662 35f2 05       		.uleb128 0x5
 18663 35f3 03       		.byte	0x3
 18664 35f4 00000000 		.4byte	resultado
 18665 35f8 10       		.uleb128 0x10
 18666 35f9 01       		.uleb128 0x1
 18667 35fa 50       		.byte	0x50
 18668 35fb 03       		.uleb128 0x3
 18669 35fc 0A       		.byte	0xa
 18670 35fd 0E04     		.2byte	0x40e
 18671 35ff 00       		.byte	0
ARM GAS  C:\Users\diego\AppData\Local\Temp\ccvEcbYb.s 			page 372


 18672 3600 0F       		.uleb128 0xf
 18673 3601 26360000 		.4byte	.LVL612
 18674 3605 EA3F0000 		.4byte	0x3fea
 18675 3609 1B360000 		.4byte	0x361b
 18676 360d 10       		.uleb128 0x10
 18677 360e 01       		.uleb128 0x1
 18678 360f 51       		.byte	0x51
 18679 3610 02       		.uleb128 0x2
 18680 3611 91       		.byte	0x91
 18681 3612 54       		.sleb128 -44
 18682 3613 10       		.uleb128 0x10
 18683 3614 01       		.uleb128 0x1
 18684 3615 50       		.byte	0x50
 18685 3616 03       		.uleb128 0x3
 18686 3617 0A       		.byte	0xa
 18687 3618 1E04     		.2byte	0x41e
 18688 361a 00       		.byte	0
 18689 361b 0F       		.uleb128 0xf
 18690 361c 30360000 		.4byte	.LVL613
 18691 3620 EA3F0000 		.4byte	0x3fea
 18692 3624 39360000 		.4byte	0x3639
 18693 3628 10       		.uleb128 0x10
 18694 3629 01       		.uleb128 0x1
 18695 362a 51       		.byte	0x51
 18696 362b 05       		.uleb128 0x5
 18697 362c 03       		.byte	0x3
 18698 362d 00000000 		.4byte	resultado
 18699 3631 10       		.uleb128 0x10
 18700 3632 01       		.uleb128 0x1
 18701 3633 50       		.byte	0x50
 18702 3634 03       		.uleb128 0x3
 18703 3635 0A       		.byte	0xa
 18704 3636 3904     		.2byte	0x439
 18705 3638 00       		.byte	0
 18706 3639 11       		.uleb128 0x11
 18707 363a 46360000 		.4byte	.LVL614
 18708 363e D83F0000 		.4byte	0x3fd8
 18709 3642 19       		.uleb128 0x19
 18710 3643 60360000 		.4byte	.LVL617
 18711 3647 04400000 		.4byte	0x4004
 18712 364b 10       		.uleb128 0x10
 18713 364c 01       		.uleb128 0x1
 18714 364d 50       		.byte	0x50
 18715 364e 02       		.uleb128 0x2
 18716 364f 74       		.byte	0x74
 18717 3650 00       		.sleb128 0
 18718 3651 00       		.byte	0
 18719 3652 00       		.byte	0
 18720 3653 09       		.uleb128 0x9
 18721 3654 81000000 		.4byte	0x81
 18722 3658 63360000 		.4byte	0x3663
 18723 365c 0A       		.uleb128 0xa
 18724 365d BA000000 		.4byte	0xba
 18725 3661 18       		.byte	0x18
 18726 3662 00       		.byte	0
 18727 3663 09       		.uleb128 0x9
 18728 3664 81000000 		.4byte	0x81
ARM GAS  C:\Users\diego\AppData\Local\Temp\ccvEcbYb.s 			page 373


 18729 3668 73360000 		.4byte	0x3673
 18730 366c 0A       		.uleb128 0xa
 18731 366d BA000000 		.4byte	0xba
 18732 3671 0D       		.byte	0xd
 18733 3672 00       		.byte	0
 18734 3673 15       		.uleb128 0x15
 18735 3674 A9050000 		.4byte	.LASF59
 18736 3678 01       		.byte	0x1
 18737 3679 8C06     		.2byte	0x68c
 18738 367b 81000000 		.4byte	0x81
 18739 367f 00000000 		.4byte	.LFB68
 18740 3683 84040000 		.4byte	.LFE68-.LFB68
 18741 3687 01       		.uleb128 0x1
 18742 3688 9C       		.byte	0x9c
 18743 3689 AF370000 		.4byte	0x37af
 18744 368d 16       		.uleb128 0x16
 18745 368e 64697200 		.ascii	"dir\000"
 18746 3692 01       		.byte	0x1
 18747 3693 8C06     		.2byte	0x68c
 18748 3695 81000000 		.4byte	0x81
 18749 3699 08040000 		.4byte	.LLST12
 18750 369d 1A       		.uleb128 0x1a
 18751 369e 44070000 		.4byte	.LASF60
 18752 36a2 01       		.byte	0x1
 18753 36a3 8C06     		.2byte	0x68c
 18754 36a5 81000000 		.4byte	0x81
 18755 36a9 42040000 		.4byte	.LLST13
 18756 36ad 1A       		.uleb128 0x1a
 18757 36ae C8060000 		.4byte	.LASF21
 18758 36b2 01       		.byte	0x1
 18759 36b3 8C06     		.2byte	0x68c
 18760 36b5 AF370000 		.4byte	0x37af
 18761 36b9 95040000 		.4byte	.LLST14
 18762 36bd 1A       		.uleb128 0x1a
 18763 36be C2010000 		.4byte	.LASF20
 18764 36c2 01       		.byte	0x1
 18765 36c3 8C06     		.2byte	0x68c
 18766 36c5 81000000 		.4byte	0x81
 18767 36c9 E8040000 		.4byte	.LLST15
 18768 36cd 17       		.uleb128 0x17
 18769 36ce 2F000000 		.4byte	.LASF28
 18770 36d2 01       		.byte	0x1
 18771 36d3 8D06     		.2byte	0x68d
 18772 36d5 B5370000 		.4byte	0x37b5
 18773 36d9 02       		.uleb128 0x2
 18774 36da 91       		.byte	0x91
 18775 36db 54       		.sleb128 -44
 18776 36dc 1B       		.uleb128 0x1b
 18777 36dd 6D040000 		.4byte	.LASF18
 18778 36e1 01       		.byte	0x1
 18779 36e2 8D06     		.2byte	0x68d
 18780 36e4 81000000 		.4byte	0x81
 18781 36e8 3B050000 		.4byte	.LLST16
 18782 36ec 1B       		.uleb128 0x1b
 18783 36ed 63050000 		.4byte	.LASF61
 18784 36f1 01       		.byte	0x1
 18785 36f2 8D06     		.2byte	0x68d
ARM GAS  C:\Users\diego\AppData\Local\Temp\ccvEcbYb.s 			page 374


 18786 36f4 81000000 		.4byte	0x81
 18787 36f8 C3050000 		.4byte	.LLST17
 18788 36fc 18       		.uleb128 0x18
 18789 36fd 6900     		.ascii	"i\000"
 18790 36ff 01       		.byte	0x1
 18791 3700 8D06     		.2byte	0x68d
 18792 3702 81000000 		.4byte	0x81
 18793 3706 ED050000 		.4byte	.LLST18
 18794 370a 18       		.uleb128 0x18
 18795 370b 6A00     		.ascii	"j\000"
 18796 370d 01       		.byte	0x1
 18797 370e 8D06     		.2byte	0x68d
 18798 3710 81000000 		.4byte	0x81
 18799 3714 D9070000 		.4byte	.LLST19
 18800 3718 1B       		.uleb128 0x1b
 18801 3719 01010000 		.4byte	.LASF62
 18802 371d 01       		.byte	0x1
 18803 371e 8D06     		.2byte	0x68d
 18804 3720 81000000 		.4byte	0x81
 18805 3724 39080000 		.4byte	.LLST20
 18806 3728 0F       		.uleb128 0xf
 18807 3729 22040000 		.4byte	.LVL767
 18808 372d AB3F0000 		.4byte	0x3fab
 18809 3731 3F370000 		.4byte	0x373f
 18810 3735 10       		.uleb128 0x10
 18811 3736 01       		.uleb128 0x1
 18812 3737 50       		.byte	0x50
 18813 3738 05       		.uleb128 0x5
 18814 3739 74       		.byte	0x74
 18815 373a 00       		.sleb128 0
 18816 373b 08       		.byte	0x8
 18817 373c 20       		.byte	0x20
 18818 373d 21       		.byte	0x21
 18819 373e 00       		.byte	0
 18820 373f 0F       		.uleb128 0xf
 18821 3740 28040000 		.4byte	.LVL768
 18822 3744 BC3F0000 		.4byte	0x3fbc
 18823 3748 53370000 		.4byte	0x3753
 18824 374c 10       		.uleb128 0x10
 18825 374d 01       		.uleb128 0x1
 18826 374e 50       		.byte	0x50
 18827 374f 02       		.uleb128 0x2
 18828 3750 08       		.byte	0x8
 18829 3751 32       		.byte	0x32
 18830 3752 00       		.byte	0
 18831 3753 11       		.uleb128 0x11
 18832 3754 2C040000 		.4byte	.LVL769
 18833 3758 CD3F0000 		.4byte	0x3fcd
 18834 375c 11       		.uleb128 0x11
 18835 375d 32040000 		.4byte	.LVL770
 18836 3761 DF3F0000 		.4byte	0x3fdf
 18837 3765 11       		.uleb128 0x11
 18838 3766 3E040000 		.4byte	.LVL771
 18839 376a D83F0000 		.4byte	0x3fd8
 18840 376e 0F       		.uleb128 0xf
 18841 376f 4E040000 		.4byte	.LVL773
 18842 3773 AB3F0000 		.4byte	0x3fab
ARM GAS  C:\Users\diego\AppData\Local\Temp\ccvEcbYb.s 			page 375


 18843 3777 8A370000 		.4byte	0x378a
 18844 377b 10       		.uleb128 0x10
 18845 377c 01       		.uleb128 0x1
 18846 377d 50       		.byte	0x50
 18847 377e 0A       		.uleb128 0xa
 18848 377f 91       		.byte	0x91
 18849 3780 00       		.sleb128 0
 18850 3781 75       		.byte	0x75
 18851 3782 00       		.sleb128 0
 18852 3783 22       		.byte	0x22
 18853 3784 08       		.byte	0x8
 18854 3785 2C       		.byte	0x2c
 18855 3786 1C       		.byte	0x1c
 18856 3787 94       		.byte	0x94
 18857 3788 01       		.byte	0x1
 18858 3789 00       		.byte	0
 18859 378a 0F       		.uleb128 0xf
 18860 378b 5C040000 		.4byte	.LVL776
 18861 378f BC3F0000 		.4byte	0x3fbc
 18862 3793 9E370000 		.4byte	0x379e
 18863 3797 10       		.uleb128 0x10
 18864 3798 01       		.uleb128 0x1
 18865 3799 50       		.byte	0x50
 18866 379a 02       		.uleb128 0x2
 18867 379b 08       		.byte	0x8
 18868 379c 32       		.byte	0x32
 18869 379d 00       		.byte	0
 18870 379e 19       		.uleb128 0x19
 18871 379f 62040000 		.4byte	.LVL777
 18872 37a3 D8030000 		.4byte	0x3d8
 18873 37a7 10       		.uleb128 0x10
 18874 37a8 01       		.uleb128 0x1
 18875 37a9 50       		.byte	0x50
 18876 37aa 02       		.uleb128 0x2
 18877 37ab 74       		.byte	0x74
 18878 37ac 00       		.sleb128 0
 18879 37ad 00       		.byte	0
 18880 37ae 00       		.byte	0
 18881 37af 1C       		.uleb128 0x1c
 18882 37b0 04       		.byte	0x4
 18883 37b1 81000000 		.4byte	0x81
 18884 37b5 09       		.uleb128 0x9
 18885 37b6 81000000 		.4byte	0x81
 18886 37ba C5370000 		.4byte	0x37c5
 18887 37be 0A       		.uleb128 0xa
 18888 37bf BA000000 		.4byte	0xba
 18889 37c3 11       		.byte	0x11
 18890 37c4 00       		.byte	0
 18891 37c5 15       		.uleb128 0x15
 18892 37c6 34040000 		.4byte	.LASF63
 18893 37ca 01       		.byte	0x1
 18894 37cb 3F07     		.2byte	0x73f
 18895 37cd 81000000 		.4byte	0x81
 18896 37d1 00000000 		.4byte	.LFB69
 18897 37d5 C4020000 		.4byte	.LFE69-.LFB69
 18898 37d9 01       		.uleb128 0x1
 18899 37da 9C       		.byte	0x9c
ARM GAS  C:\Users\diego\AppData\Local\Temp\ccvEcbYb.s 			page 376


 18900 37db 82380000 		.4byte	0x3882
 18901 37df 16       		.uleb128 0x16
 18902 37e0 64697200 		.ascii	"dir\000"
 18903 37e4 01       		.byte	0x1
 18904 37e5 3F07     		.2byte	0x73f
 18905 37e7 81000000 		.4byte	0x81
 18906 37eb 8F080000 		.4byte	.LLST21
 18907 37ef 17       		.uleb128 0x17
 18908 37f0 2F000000 		.4byte	.LASF28
 18909 37f4 01       		.byte	0x1
 18910 37f5 4007     		.2byte	0x740
 18911 37f7 F1020000 		.4byte	0x2f1
 18912 37fb 02       		.uleb128 0x2
 18913 37fc 91       		.byte	0x91
 18914 37fd 60       		.sleb128 -32
 18915 37fe 1B       		.uleb128 0x1b
 18916 37ff 6D040000 		.4byte	.LASF18
 18917 3803 01       		.byte	0x1
 18918 3804 4007     		.2byte	0x740
 18919 3806 81000000 		.4byte	0x81
 18920 380a B0080000 		.4byte	.LLST22
 18921 380e 0F       		.uleb128 0xf
 18922 380f 46020000 		.4byte	.LVL789
 18923 3813 AB3F0000 		.4byte	0x3fab
 18924 3817 25380000 		.4byte	0x3825
 18925 381b 10       		.uleb128 0x10
 18926 381c 01       		.uleb128 0x1
 18927 381d 50       		.byte	0x50
 18928 381e 05       		.uleb128 0x5
 18929 381f 74       		.byte	0x74
 18930 3820 00       		.sleb128 0
 18931 3821 08       		.byte	0x8
 18932 3822 20       		.byte	0x20
 18933 3823 21       		.byte	0x21
 18934 3824 00       		.byte	0
 18935 3825 0F       		.uleb128 0xf
 18936 3826 4C020000 		.4byte	.LVL790
 18937 382a BC3F0000 		.4byte	0x3fbc
 18938 382e 39380000 		.4byte	0x3839
 18939 3832 10       		.uleb128 0x10
 18940 3833 01       		.uleb128 0x1
 18941 3834 50       		.byte	0x50
 18942 3835 02       		.uleb128 0x2
 18943 3836 08       		.byte	0x8
 18944 3837 64       		.byte	0x64
 18945 3838 00       		.byte	0
 18946 3839 11       		.uleb128 0x11
 18947 383a 50020000 		.4byte	.LVL791
 18948 383e CD3F0000 		.4byte	0x3fcd
 18949 3842 11       		.uleb128 0x11
 18950 3843 56020000 		.4byte	.LVL792
 18951 3847 DF3F0000 		.4byte	0x3fdf
 18952 384b 11       		.uleb128 0x11
 18953 384c 62020000 		.4byte	.LVL793
 18954 3850 D83F0000 		.4byte	0x3fd8
 18955 3854 11       		.uleb128 0x11
 18956 3855 76020000 		.4byte	.LVL794
ARM GAS  C:\Users\diego\AppData\Local\Temp\ccvEcbYb.s 			page 377


 18957 3859 AB3F0000 		.4byte	0x3fab
 18958 385d 0F       		.uleb128 0xf
 18959 385e 8C020000 		.4byte	.LVL795
 18960 3862 BC3F0000 		.4byte	0x3fbc
 18961 3866 71380000 		.4byte	0x3871
 18962 386a 10       		.uleb128 0x10
 18963 386b 01       		.uleb128 0x1
 18964 386c 50       		.byte	0x50
 18965 386d 02       		.uleb128 0x2
 18966 386e 08       		.byte	0x8
 18967 386f 32       		.byte	0x32
 18968 3870 00       		.byte	0
 18969 3871 19       		.uleb128 0x19
 18970 3872 92020000 		.4byte	.LVL796
 18971 3876 D8030000 		.4byte	0x3d8
 18972 387a 10       		.uleb128 0x10
 18973 387b 01       		.uleb128 0x1
 18974 387c 50       		.byte	0x50
 18975 387d 02       		.uleb128 0x2
 18976 387e 74       		.byte	0x74
 18977 387f 00       		.sleb128 0
 18978 3880 00       		.byte	0
 18979 3881 00       		.byte	0
 18980 3882 15       		.uleb128 0x15
 18981 3883 FF030000 		.4byte	.LASF32
 18982 3887 01       		.byte	0x1
 18983 3888 9C07     		.2byte	0x79c
 18984 388a 81000000 		.4byte	0x81
 18985 388e 00000000 		.4byte	.LFB70
 18986 3892 5C000000 		.4byte	.LFE70-.LFB70
 18987 3896 01       		.uleb128 0x1
 18988 3897 9C       		.byte	0x9c
 18989 3898 01390000 		.4byte	0x3901
 18990 389c 1A       		.uleb128 0x1a
 18991 389d B7060000 		.4byte	.LASF64
 18992 38a1 01       		.byte	0x1
 18993 38a2 9C07     		.2byte	0x79c
 18994 38a4 81000000 		.4byte	0x81
 18995 38a8 E7080000 		.4byte	.LLST23
 18996 38ac 18       		.uleb128 0x18
 18997 38ad 7800     		.ascii	"x\000"
 18998 38af 01       		.byte	0x1
 18999 38b0 9D07     		.2byte	0x79d
 19000 38b2 81000000 		.4byte	0x81
 19001 38b6 08090000 		.4byte	.LLST24
 19002 38ba 11       		.uleb128 0x11
 19003 38bb 08000000 		.4byte	.LVL799
 19004 38bf D83F0000 		.4byte	0x3fd8
 19005 38c3 0F       		.uleb128 0xf
 19006 38c4 10000000 		.4byte	.LVL800
 19007 38c8 AB3F0000 		.4byte	0x3fab
 19008 38cc DA380000 		.4byte	0x38da
 19009 38d0 10       		.uleb128 0x10
 19010 38d1 01       		.uleb128 0x1
 19011 38d2 50       		.byte	0x50
 19012 38d3 05       		.uleb128 0x5
 19013 38d4 74       		.byte	0x74
ARM GAS  C:\Users\diego\AppData\Local\Temp\ccvEcbYb.s 			page 378


 19014 38d5 00       		.sleb128 0
 19015 38d6 08       		.byte	0x8
 19016 38d7 50       		.byte	0x50
 19017 38d8 21       		.byte	0x21
 19018 38d9 00       		.byte	0
 19019 38da 0F       		.uleb128 0xf
 19020 38db 16000000 		.4byte	.LVL801
 19021 38df BC3F0000 		.4byte	0x3fbc
 19022 38e3 EE380000 		.4byte	0x38ee
 19023 38e7 10       		.uleb128 0x10
 19024 38e8 01       		.uleb128 0x1
 19025 38e9 50       		.byte	0x50
 19026 38ea 02       		.uleb128 0x2
 19027 38eb 08       		.byte	0x8
 19028 38ec 64       		.byte	0x64
 19029 38ed 00       		.byte	0
 19030 38ee 11       		.uleb128 0x11
 19031 38ef 1A000000 		.4byte	.LVL802
 19032 38f3 CD3F0000 		.4byte	0x3fcd
 19033 38f7 11       		.uleb128 0x11
 19034 38f8 28000000 		.4byte	.LVL803
 19035 38fc CD3F0000 		.4byte	0x3fcd
 19036 3900 00       		.byte	0
 19037 3901 09       		.uleb128 0x9
 19038 3902 81000000 		.4byte	0x81
 19039 3906 11390000 		.4byte	0x3911
 19040 390a 0A       		.uleb128 0xa
 19041 390b BA000000 		.4byte	0xba
 19042 390f FF       		.byte	0xff
 19043 3910 00       		.byte	0
 19044 3911 1D       		.uleb128 0x1d
 19045 3912 B9020000 		.4byte	.LASF65
 19046 3916 06       		.byte	0x6
 19047 3917 5201     		.2byte	0x152
 19048 3919 1D390000 		.4byte	0x391d
 19049 391d 0C       		.uleb128 0xc
 19050 391e 01390000 		.4byte	0x3901
 19051 3922 1D       		.uleb128 0x1d
 19052 3923 2E050000 		.4byte	.LASF66
 19053 3927 07       		.byte	0x7
 19054 3928 5506     		.2byte	0x655
 19055 392a 2E390000 		.4byte	0x392e
 19056 392e 0C       		.uleb128 0xc
 19057 392f 76000000 		.4byte	0x76
 19058 3933 1E       		.uleb128 0x1e
 19059 3934 EF040000 		.4byte	.LASF67
 19060 3938 05       		.byte	0x5
 19061 3939 2F       		.byte	0x2f
 19062 393a 81000000 		.4byte	0x81
 19063 393e 05       		.uleb128 0x5
 19064 393f 03       		.byte	0x3
 19065 3940 00000000 		.4byte	flujo_LCD
 19066 3944 1E       		.uleb128 0x1e
 19067 3945 09000000 		.4byte	.LASF68
 19068 3949 05       		.byte	0x5
 19069 394a 2F       		.byte	0x2f
 19070 394b 81000000 		.4byte	0x81
ARM GAS  C:\Users\diego\AppData\Local\Temp\ccvEcbYb.s 			page 379


 19071 394f 05       		.uleb128 0x5
 19072 3950 03       		.byte	0x3
 19073 3951 00000000 		.4byte	flujo_LCD2
 19074 3955 1E       		.uleb128 0x1e
 19075 3956 B7010000 		.4byte	.LASF69
 19076 395a 05       		.byte	0x5
 19077 395b 2F       		.byte	0x2f
 19078 395c 81000000 		.4byte	0x81
 19079 3960 05       		.uleb128 0x5
 19080 3961 03       		.byte	0x3
 19081 3962 00000000 		.4byte	flujo_LCD3
 19082 3966 1E       		.uleb128 0x1e
 19083 3967 1C000000 		.4byte	.LASF70
 19084 396b 05       		.byte	0x5
 19085 396c 2F       		.byte	0x2f
 19086 396d 81000000 		.4byte	0x81
 19087 3971 05       		.uleb128 0x5
 19088 3972 03       		.byte	0x3
 19089 3973 00000000 		.4byte	flujo_LCD4
 19090 3977 1E       		.uleb128 0x1e
 19091 3978 A3050000 		.4byte	.LASF71
 19092 397c 05       		.byte	0x5
 19093 397d 60       		.byte	0x60
 19094 397e 81000000 		.4byte	0x81
 19095 3982 05       		.uleb128 0x5
 19096 3983 03       		.byte	0x3
 19097 3984 00000000 		.4byte	cont1
 19098 3988 1E       		.uleb128 0x1e
 19099 3989 41010000 		.4byte	.LASF72
 19100 398d 05       		.byte	0x5
 19101 398e 60       		.byte	0x60
 19102 398f 81000000 		.4byte	0x81
 19103 3993 05       		.uleb128 0x5
 19104 3994 03       		.byte	0x3
 19105 3995 00000000 		.4byte	teclas1
 19106 3999 1E       		.uleb128 0x1e
 19107 399a 49010000 		.4byte	.LASF73
 19108 399e 05       		.byte	0x5
 19109 399f 60       		.byte	0x60
 19110 39a0 81000000 		.4byte	0x81
 19111 39a4 05       		.uleb128 0x5
 19112 39a5 03       		.byte	0x3
 19113 39a6 00000000 		.4byte	teclas2
 19114 39aa 1E       		.uleb128 0x1e
 19115 39ab 55050000 		.4byte	.LASF74
 19116 39af 05       		.byte	0x5
 19117 39b0 60       		.byte	0x60
 19118 39b1 81000000 		.4byte	0x81
 19119 39b5 05       		.uleb128 0x5
 19120 39b6 03       		.byte	0x3
 19121 39b7 00000000 		.4byte	comas1
 19122 39bb 1E       		.uleb128 0x1e
 19123 39bc 5C050000 		.4byte	.LASF75
 19124 39c0 05       		.byte	0x5
 19125 39c1 60       		.byte	0x60
 19126 39c2 81000000 		.4byte	0x81
 19127 39c6 05       		.uleb128 0x5
ARM GAS  C:\Users\diego\AppData\Local\Temp\ccvEcbYb.s 			page 380


 19128 39c7 03       		.byte	0x3
 19129 39c8 00000000 		.4byte	comas2
 19130 39cc 1E       		.uleb128 0x1e
 19131 39cd 27000000 		.4byte	.LASF76
 19132 39d1 05       		.byte	0x5
 19133 39d2 61       		.byte	0x61
 19134 39d3 81000000 		.4byte	0x81
 19135 39d7 05       		.uleb128 0x5
 19136 39d8 03       		.byte	0x3
 19137 39d9 00000000 		.4byte	versurt
 19138 39dd 1E       		.uleb128 0x1e
 19139 39de 68050000 		.4byte	.LASF77
 19140 39e2 05       		.byte	0x5
 19141 39e3 62       		.byte	0x62
 19142 39e4 81000000 		.4byte	0x81
 19143 39e8 05       		.uleb128 0x5
 19144 39e9 03       		.byte	0x3
 19145 39ea 00000000 		.4byte	producto1
 19146 39ee 1E       		.uleb128 0x1e
 19147 39ef 72050000 		.4byte	.LASF78
 19148 39f3 05       		.byte	0x5
 19149 39f4 62       		.byte	0x62
 19150 39f5 81000000 		.4byte	0x81
 19151 39f9 05       		.uleb128 0x5
 19152 39fa 03       		.byte	0x3
 19153 39fb 00000000 		.4byte	producto2
 19154 39ff 1E       		.uleb128 0x1e
 19155 3a00 7C050000 		.4byte	.LASF79
 19156 3a04 05       		.byte	0x5
 19157 3a05 62       		.byte	0x62
 19158 3a06 81000000 		.4byte	0x81
 19159 3a0a 05       		.uleb128 0x5
 19160 3a0b 03       		.byte	0x3
 19161 3a0c 00000000 		.4byte	producto3
 19162 3a10 1E       		.uleb128 0x1e
 19163 3a11 86050000 		.4byte	.LASF80
 19164 3a15 05       		.byte	0x5
 19165 3a16 62       		.byte	0x62
 19166 3a17 81000000 		.4byte	0x81
 19167 3a1b 05       		.uleb128 0x5
 19168 3a1c 03       		.byte	0x3
 19169 3a1d 00000000 		.4byte	producto4
 19170 3a21 1E       		.uleb128 0x1e
 19171 3a22 D1000000 		.4byte	.LASF81
 19172 3a26 05       		.byte	0x5
 19173 3a27 62       		.byte	0x62
 19174 3a28 81000000 		.4byte	0x81
 19175 3a2c 05       		.uleb128 0x5
 19176 3a2d 03       		.byte	0x3
 19177 3a2e 00000000 		.4byte	producto1b
 19178 3a32 1E       		.uleb128 0x1e
 19179 3a33 96010000 		.4byte	.LASF82
 19180 3a37 05       		.byte	0x5
 19181 3a38 62       		.byte	0x62
 19182 3a39 81000000 		.4byte	0x81
 19183 3a3d 05       		.uleb128 0x5
 19184 3a3e 03       		.byte	0x3
ARM GAS  C:\Users\diego\AppData\Local\Temp\ccvEcbYb.s 			page 381


 19185 3a3f 00000000 		.4byte	producto2b
 19186 3a43 1E       		.uleb128 0x1e
 19187 3a44 6B020000 		.4byte	.LASF83
 19188 3a48 05       		.byte	0x5
 19189 3a49 62       		.byte	0x62
 19190 3a4a 81000000 		.4byte	0x81
 19191 3a4e 05       		.uleb128 0x5
 19192 3a4f 03       		.byte	0x3
 19193 3a50 00000000 		.4byte	producto3b
 19194 3a54 1E       		.uleb128 0x1e
 19195 3a55 34030000 		.4byte	.LASF84
 19196 3a59 05       		.byte	0x5
 19197 3a5a 62       		.byte	0x62
 19198 3a5b 81000000 		.4byte	0x81
 19199 3a5f 05       		.uleb128 0x5
 19200 3a60 03       		.byte	0x3
 19201 3a61 00000000 		.4byte	producto4b
 19202 3a65 1E       		.uleb128 0x1e
 19203 3a66 DC000000 		.4byte	.LASF85
 19204 3a6a 05       		.byte	0x5
 19205 3a6b 63       		.byte	0x63
 19206 3a6c 81000000 		.4byte	0x81
 19207 3a70 05       		.uleb128 0x5
 19208 3a71 03       		.byte	0x3
 19209 3a72 00000000 		.4byte	producto1c
 19210 3a76 1E       		.uleb128 0x1e
 19211 3a77 A1010000 		.4byte	.LASF86
 19212 3a7b 05       		.byte	0x5
 19213 3a7c 63       		.byte	0x63
 19214 3a7d 81000000 		.4byte	0x81
 19215 3a81 05       		.uleb128 0x5
 19216 3a82 03       		.byte	0x3
 19217 3a83 00000000 		.4byte	producto2c
 19218 3a87 1E       		.uleb128 0x1e
 19219 3a88 76020000 		.4byte	.LASF87
 19220 3a8c 05       		.byte	0x5
 19221 3a8d 63       		.byte	0x63
 19222 3a8e 81000000 		.4byte	0x81
 19223 3a92 05       		.uleb128 0x5
 19224 3a93 03       		.byte	0x3
 19225 3a94 00000000 		.4byte	producto3c
 19226 3a98 1E       		.uleb128 0x1e
 19227 3a99 3F030000 		.4byte	.LASF88
 19228 3a9d 05       		.byte	0x5
 19229 3a9e 63       		.byte	0x63
 19230 3a9f 81000000 		.4byte	0x81
 19231 3aa3 05       		.uleb128 0x5
 19232 3aa4 03       		.byte	0x3
 19233 3aa5 00000000 		.4byte	producto4c
 19234 3aa9 1E       		.uleb128 0x1e
 19235 3aaa 80030000 		.4byte	.LASF89
 19236 3aae 05       		.byte	0x5
 19237 3aaf 63       		.byte	0x63
 19238 3ab0 81000000 		.4byte	0x81
 19239 3ab4 05       		.uleb128 0x5
 19240 3ab5 03       		.byte	0x3
 19241 3ab6 00000000 		.4byte	producto1d
ARM GAS  C:\Users\diego\AppData\Local\Temp\ccvEcbYb.s 			page 382


 19242 3aba 1E       		.uleb128 0x1e
 19243 3abb AC010000 		.4byte	.LASF90
 19244 3abf 05       		.byte	0x5
 19245 3ac0 63       		.byte	0x63
 19246 3ac1 81000000 		.4byte	0x81
 19247 3ac5 05       		.uleb128 0x5
 19248 3ac6 03       		.byte	0x3
 19249 3ac7 00000000 		.4byte	producto2d
 19250 3acb 1E       		.uleb128 0x1e
 19251 3acc 81020000 		.4byte	.LASF91
 19252 3ad0 05       		.byte	0x5
 19253 3ad1 63       		.byte	0x63
 19254 3ad2 81000000 		.4byte	0x81
 19255 3ad6 05       		.uleb128 0x5
 19256 3ad7 03       		.byte	0x3
 19257 3ad8 00000000 		.4byte	producto3d
 19258 3adc 1E       		.uleb128 0x1e
 19259 3add 4A030000 		.4byte	.LASF92
 19260 3ae1 05       		.byte	0x5
 19261 3ae2 63       		.byte	0x63
 19262 3ae3 81000000 		.4byte	0x81
 19263 3ae7 05       		.uleb128 0x5
 19264 3ae8 03       		.byte	0x3
 19265 3ae9 00000000 		.4byte	producto4d
 19266 3aed 09       		.uleb128 0x9
 19267 3aee 81000000 		.4byte	0x81
 19268 3af2 FD3A0000 		.4byte	0x3afd
 19269 3af6 0A       		.uleb128 0xa
 19270 3af7 BA000000 		.4byte	0xba
 19271 3afb 3F       		.byte	0x3f
 19272 3afc 00       		.byte	0
 19273 3afd 1E       		.uleb128 0x1e
 19274 3afe FA010000 		.4byte	.LASF93
 19275 3b02 05       		.byte	0x5
 19276 3b03 64       		.byte	0x64
 19277 3b04 ED3A0000 		.4byte	0x3aed
 19278 3b08 05       		.uleb128 0x5
 19279 3b09 03       		.byte	0x3
 19280 3b0a 00000000 		.4byte	buffer_i2c
 19281 3b0e 1E       		.uleb128 0x1e
 19282 3b0f C9010000 		.4byte	.LASF94
 19283 3b13 05       		.byte	0x5
 19284 3b14 65       		.byte	0x65
 19285 3b15 63360000 		.4byte	0x3663
 19286 3b19 05       		.uleb128 0x5
 19287 3b1a 03       		.byte	0x3
 19288 3b1b 00000000 		.4byte	resultado
 19289 3b1f 1E       		.uleb128 0x1e
 19290 3b20 5C020000 		.4byte	.LASF95
 19291 3b24 05       		.byte	0x5
 19292 3b25 66       		.byte	0x66
 19293 3b26 81000000 		.4byte	0x81
 19294 3b2a 05       		.uleb128 0x5
 19295 3b2b 03       		.byte	0x3
 19296 3b2c 00000000 		.4byte	teclado
 19297 3b30 1E       		.uleb128 0x1e
 19298 3b31 64000000 		.4byte	.LASF96
ARM GAS  C:\Users\diego\AppData\Local\Temp\ccvEcbYb.s 			page 383


 19299 3b35 05       		.byte	0x5
 19300 3b36 66       		.byte	0x66
 19301 3b37 81000000 		.4byte	0x81
 19302 3b3b 05       		.uleb128 0x5
 19303 3b3c 03       		.byte	0x3
 19304 3b3d 00000000 		.4byte	teclado2
 19305 3b41 1E       		.uleb128 0x1e
 19306 3b42 D7040000 		.4byte	.LASF97
 19307 3b46 05       		.byte	0x5
 19308 3b47 67       		.byte	0x67
 19309 3b48 81000000 		.4byte	0x81
 19310 3b4c 05       		.uleb128 0x5
 19311 3b4d 03       		.byte	0x3
 19312 3b4e 00000000 		.4byte	ppux10
 19313 3b52 1E       		.uleb128 0x1e
 19314 3b53 D7050000 		.4byte	.LASF98
 19315 3b57 05       		.byte	0x5
 19316 3b58 68       		.byte	0x68
 19317 3b59 01030000 		.4byte	0x301
 19318 3b5d 05       		.uleb128 0x5
 19319 3b5e 03       		.byte	0x3
 19320 3b5f 00000000 		.4byte	bandera
 19321 3b63 1E       		.uleb128 0x1e
 19322 3b64 2B070000 		.4byte	.LASF99
 19323 3b68 05       		.byte	0x5
 19324 3b69 69       		.byte	0x69
 19325 3b6a 01030000 		.4byte	0x301
 19326 3b6e 05       		.uleb128 0x5
 19327 3b6f 03       		.byte	0x3
 19328 3b70 00000000 		.4byte	tipo_imp
 19329 3b74 1E       		.uleb128 0x1e
 19330 3b75 FB060000 		.4byte	.LASF100
 19331 3b79 05       		.byte	0x5
 19332 3b7a 6A       		.byte	0x6a
 19333 3b7b 81000000 		.4byte	0x81
 19334 3b7f 05       		.uleb128 0x5
 19335 3b80 03       		.byte	0x3
 19336 3b81 00000000 		.4byte	decimalV
 19337 3b85 1E       		.uleb128 0x1e
 19338 3b86 83010000 		.4byte	.LASF101
 19339 3b8a 05       		.byte	0x5
 19340 3b8b 6B       		.byte	0x6b
 19341 3b8c 81000000 		.4byte	0x81
 19342 3b90 05       		.uleb128 0x5
 19343 3b91 03       		.byte	0x3
 19344 3b92 00000000 		.4byte	decimalD
 19345 3b96 09       		.uleb128 0x9
 19346 3b97 81000000 		.4byte	0x81
 19347 3b9b A63B0000 		.4byte	0x3ba6
 19348 3b9f 0A       		.uleb128 0xa
 19349 3ba0 BA000000 		.4byte	0xba
 19350 3ba4 05       		.byte	0x5
 19351 3ba5 00       		.byte	0
 19352 3ba6 1E       		.uleb128 0x1e
 19353 3ba7 98030000 		.4byte	.LASF102
 19354 3bab 05       		.byte	0x5
 19355 3bac 6C       		.byte	0x6c
ARM GAS  C:\Users\diego\AppData\Local\Temp\ccvEcbYb.s 			page 384


 19356 3bad 963B0000 		.4byte	0x3b96
 19357 3bb1 05       		.uleb128 0x5
 19358 3bb2 03       		.byte	0x3
 19359 3bb3 00000000 		.4byte	fecha_corte
 19360 3bb7 1E       		.uleb128 0x1e
 19361 3bb8 02050000 		.4byte	.LASF103
 19362 3bbc 05       		.byte	0x5
 19363 3bbd 6D       		.byte	0x6d
 19364 3bbe 81000000 		.4byte	0x81
 19365 3bc2 05       		.uleb128 0x5
 19366 3bc3 03       		.byte	0x3
 19367 3bc4 00000000 		.4byte	pos_ibutton
 19368 3bc8 1E       		.uleb128 0x1e
 19369 3bc9 E5040000 		.4byte	.LASF104
 19370 3bcd 05       		.byte	0x5
 19371 3bce 6E       		.byte	0x6e
 19372 3bcf 81000000 		.4byte	0x81
 19373 3bd3 05       		.uleb128 0x5
 19374 3bd4 03       		.byte	0x3
 19375 3bd5 00000000 		.4byte	crc_total
 19376 3bd9 1E       		.uleb128 0x1e
 19377 3bda D4030000 		.4byte	.LASF105
 19378 3bde 05       		.byte	0x5
 19379 3bdf 6F       		.byte	0x6f
 19380 3be0 01030000 		.4byte	0x301
 19381 3be4 05       		.uleb128 0x5
 19382 3be5 03       		.byte	0x3
 19383 3be6 00000000 		.4byte	print1
 19384 3bea 1E       		.uleb128 0x1e
 19385 3beb DB030000 		.4byte	.LASF106
 19386 3bef 05       		.byte	0x5
 19387 3bf0 6F       		.byte	0x6f
 19388 3bf1 01030000 		.4byte	0x301
 19389 3bf5 05       		.uleb128 0x5
 19390 3bf6 03       		.byte	0x3
 19391 3bf7 00000000 		.4byte	print2
 19392 3bfb 1E       		.uleb128 0x1e
 19393 3bfc 21050000 		.4byte	.LASF107
 19394 3c00 05       		.byte	0x5
 19395 3c01 70       		.byte	0x70
 19396 3c02 01030000 		.4byte	0x301
 19397 3c06 05       		.uleb128 0x5
 19398 3c07 03       		.byte	0x3
 19399 3c08 00000000 		.4byte	copia_recibo
 19400 3c0c 1E       		.uleb128 0x1e
 19401 3c0d 43000000 		.4byte	.LASF108
 19402 3c11 05       		.byte	0x5
 19403 3c12 71       		.byte	0x71
 19404 3c13 01030000 		.4byte	0x301
 19405 3c17 05       		.uleb128 0x5
 19406 3c18 03       		.byte	0x3
 19407 3c19 00000000 		.4byte	copia_recibo2
 19408 3c1d 1E       		.uleb128 0x1e
 19409 3c1e 55030000 		.4byte	.LASF109
 19410 3c22 05       		.byte	0x5
 19411 3c23 72       		.byte	0x72
 19412 3c24 963B0000 		.4byte	0x3b96
ARM GAS  C:\Users\diego\AppData\Local\Temp\ccvEcbYb.s 			page 385


 19413 3c28 05       		.uleb128 0x5
 19414 3c29 03       		.byte	0x3
 19415 3c2a 00000000 		.4byte	id_venta
 19416 3c2e 1E       		.uleb128 0x1e
 19417 3c2f 5E040000 		.4byte	.LASF110
 19418 3c33 05       		.byte	0x5
 19419 3c34 73       		.byte	0x73
 19420 3c35 81000000 		.4byte	0x81
 19421 3c39 05       		.uleb128 0x5
 19422 3c3a 03       		.byte	0x3
 19423 3c3b 00000000 		.4byte	nombreproducto
 19424 3c3f 1E       		.uleb128 0x1e
 19425 3c40 EE000000 		.4byte	.LASF111
 19426 3c44 05       		.byte	0x5
 19427 3c45 74       		.byte	0x74
 19428 3c46 88010000 		.4byte	0x188
 19429 3c4a 05       		.uleb128 0x5
 19430 3c4b 03       		.byte	0x3
 19431 3c4c 00000000 		.4byte	producto1n
 19432 3c50 1E       		.uleb128 0x1e
 19433 3c51 D3010000 		.4byte	.LASF112
 19434 3c55 05       		.byte	0x5
 19435 3c56 75       		.byte	0x75
 19436 3c57 88010000 		.4byte	0x188
 19437 3c5b 05       		.uleb128 0x5
 19438 3c5c 03       		.byte	0x3
 19439 3c5d 00000000 		.4byte	producto2n
 19440 3c61 1E       		.uleb128 0x1e
 19441 3c62 AE020000 		.4byte	.LASF113
 19442 3c66 05       		.byte	0x5
 19443 3c67 76       		.byte	0x76
 19444 3c68 88010000 		.4byte	0x188
 19445 3c6c 05       		.uleb128 0x5
 19446 3c6d 03       		.byte	0x3
 19447 3c6e 00000000 		.4byte	producto3n
 19448 3c72 1E       		.uleb128 0x1e
 19449 3c73 DE010000 		.4byte	.LASF114
 19450 3c77 05       		.byte	0x5
 19451 3c78 77       		.byte	0x77
 19452 3c79 88010000 		.4byte	0x188
 19453 3c7d 05       		.uleb128 0x5
 19454 3c7e 03       		.byte	0x3
 19455 3c7f 00000000 		.4byte	producto4n
 19456 3c83 1E       		.uleb128 0x1e
 19457 3c84 F9040000 		.4byte	.LASF115
 19458 3c88 05       		.byte	0x5
 19459 3c89 78       		.byte	0x78
 19460 3c8a 81000000 		.4byte	0x81
 19461 3c8e 05       		.uleb128 0x5
 19462 3c8f 03       		.byte	0x3
 19463 3c90 00000000 		.4byte	a_copias
 19464 3c94 09       		.uleb128 0x9
 19465 3c95 81000000 		.4byte	0x81
 19466 3c99 A43C0000 		.4byte	0x3ca4
 19467 3c9d 0A       		.uleb128 0xa
 19468 3c9e BA000000 		.4byte	0xba
 19469 3ca2 00       		.byte	0
ARM GAS  C:\Users\diego\AppData\Local\Temp\ccvEcbYb.s 			page 386


 19470 3ca3 00       		.byte	0
 19471 3ca4 1E       		.uleb128 0x1e
 19472 3ca5 EB020000 		.4byte	.LASF116
 19473 3ca9 05       		.byte	0x5
 19474 3caa 79       		.byte	0x79
 19475 3cab 943C0000 		.4byte	0x3c94
 19476 3caf 05       		.uleb128 0x5
 19477 3cb0 03       		.byte	0x3
 19478 3cb1 00000000 		.4byte	n_copias
 19479 3cb5 1E       		.uleb128 0x1e
 19480 3cb6 FF050000 		.4byte	.LASF117
 19481 3cba 05       		.byte	0x5
 19482 3cbb 7A       		.byte	0x7a
 19483 3cbc 81000000 		.4byte	0x81
 19484 3cc0 05       		.uleb128 0x5
 19485 3cc1 03       		.byte	0x3
 19486 3cc2 00000000 		.4byte	no_imprime
 19487 3cc6 1E       		.uleb128 0x1e
 19488 3cc7 F3050000 		.4byte	.LASF118
 19489 3ccb 05       		.byte	0x5
 19490 3ccc 7B       		.byte	0x7b
 19491 3ccd 81000000 		.4byte	0x81
 19492 3cd1 05       		.uleb128 0x5
 19493 3cd2 03       		.byte	0x3
 19494 3cd3 00000000 		.4byte	no_imprime2
 19495 3cd7 1E       		.uleb128 0x1e
 19496 3cd8 D0040000 		.4byte	.LASF119
 19497 3cdc 05       		.byte	0x5
 19498 3cdd 7C       		.byte	0x7c
 19499 3cde 81000000 		.4byte	0x81
 19500 3ce2 05       		.uleb128 0x5
 19501 3ce3 03       		.byte	0x3
 19502 3ce4 00000000 		.4byte	imagen
 19503 3ce8 1E       		.uleb128 0x1e
 19504 3ce9 AF030000 		.4byte	.LASF120
 19505 3ced 05       		.byte	0x5
 19506 3cee 7D       		.byte	0x7d
 19507 3cef 81000000 		.4byte	0x81
 19508 3cf3 05       		.uleb128 0x5
 19509 3cf4 03       		.byte	0x3
 19510 3cf5 00000000 		.4byte	flujo_pos
 19511 3cf9 1E       		.uleb128 0x1e
 19512 3cfa F4020000 		.4byte	.LASF121
 19513 3cfe 05       		.byte	0x5
 19514 3cff 7E       		.byte	0x7e
 19515 3d00 81000000 		.4byte	0x81
 19516 3d04 05       		.uleb128 0x5
 19517 3d05 03       		.byte	0x3
 19518 3d06 00000000 		.4byte	flujo_pos2
 19519 3d0a 1E       		.uleb128 0x1e
 19520 3d0b FF020000 		.4byte	.LASF122
 19521 3d0f 05       		.byte	0x5
 19522 3d10 7F       		.byte	0x7f
 19523 3d11 81000000 		.4byte	0x81
 19524 3d15 05       		.uleb128 0x5
 19525 3d16 03       		.byte	0x3
 19526 3d17 00000000 		.4byte	flujo_pos3
ARM GAS  C:\Users\diego\AppData\Local\Temp\ccvEcbYb.s 			page 387


 19527 3d1b 1E       		.uleb128 0x1e
 19528 3d1c 0A030000 		.4byte	.LASF123
 19529 3d20 05       		.byte	0x5
 19530 3d21 80       		.byte	0x80
 19531 3d22 81000000 		.4byte	0x81
 19532 3d26 05       		.uleb128 0x5
 19533 3d27 03       		.byte	0x3
 19534 3d28 00000000 		.4byte	flujo_pos4
 19535 3d2c 1E       		.uleb128 0x1e
 19536 3d2d 09010000 		.4byte	.LASF124
 19537 3d31 05       		.byte	0x5
 19538 3d32 81       		.byte	0x81
 19539 3d33 81000000 		.4byte	0x81
 19540 3d37 05       		.uleb128 0x5
 19541 3d38 03       		.byte	0x3
 19542 3d39 00000000 		.4byte	estado_lcd1
 19543 3d3d 1E       		.uleb128 0x1e
 19544 3d3e 15010000 		.4byte	.LASF125
 19545 3d42 05       		.byte	0x5
 19546 3d43 82       		.byte	0x82
 19547 3d44 81000000 		.4byte	0x81
 19548 3d48 05       		.uleb128 0x5
 19549 3d49 03       		.byte	0x3
 19550 3d4a 00000000 		.4byte	estado_lcd2
 19551 3d4e 1E       		.uleb128 0x1e
 19552 3d4f 99020000 		.4byte	.LASF126
 19553 3d53 05       		.byte	0x5
 19554 3d54 83       		.byte	0x83
 19555 3d55 81000000 		.4byte	0x81
 19556 3d59 05       		.uleb128 0x5
 19557 3d5a 03       		.byte	0x3
 19558 3d5b 00000000 		.4byte	seleccion_pos
 19559 3d5f 1E       		.uleb128 0x1e
 19560 3d60 DC020000 		.4byte	.LASF127
 19561 3d64 05       		.byte	0x5
 19562 3d65 84       		.byte	0x84
 19563 3d66 81000000 		.4byte	0x81
 19564 3d6a 05       		.uleb128 0x5
 19565 3d6b 03       		.byte	0x3
 19566 3d6c 00000000 		.4byte	seleccion_pos2
 19567 3d70 1E       		.uleb128 0x1e
 19568 3d71 8C020000 		.4byte	.LASF128
 19569 3d75 05       		.byte	0x5
 19570 3d76 85       		.byte	0x85
 19571 3d77 81000000 		.4byte	0x81
 19572 3d7b 05       		.uleb128 0x5
 19573 3d7c 03       		.byte	0x3
 19574 3d7d 00000000 		.4byte	venta_activa
 19575 3d81 1E       		.uleb128 0x1e
 19576 3d82 29020000 		.4byte	.LASF129
 19577 3d86 05       		.byte	0x5
 19578 3d87 85       		.byte	0x85
 19579 3d88 81000000 		.4byte	0x81
 19580 3d8c 05       		.uleb128 0x5
 19581 3d8d 03       		.byte	0x3
 19582 3d8e 00000000 		.4byte	venta_activa3
 19583 3d92 1E       		.uleb128 0x1e
ARM GAS  C:\Users\diego\AppData\Local\Temp\ccvEcbYb.s 			page 388


 19584 3d93 1B020000 		.4byte	.LASF130
 19585 3d97 05       		.byte	0x5
 19586 3d98 86       		.byte	0x86
 19587 3d99 81000000 		.4byte	0x81
 19588 3d9d 05       		.uleb128 0x5
 19589 3d9e 03       		.byte	0x3
 19590 3d9f 00000000 		.4byte	venta_activa2
 19591 3da3 1E       		.uleb128 0x1e
 19592 3da4 37020000 		.4byte	.LASF131
 19593 3da8 05       		.byte	0x5
 19594 3da9 86       		.byte	0x86
 19595 3daa 81000000 		.4byte	0x81
 19596 3dae 05       		.uleb128 0x5
 19597 3daf 03       		.byte	0x3
 19598 3db0 00000000 		.4byte	venta_activa4
 19599 3db4 1E       		.uleb128 0x1e
 19600 3db5 79040000 		.4byte	.LASF132
 19601 3db9 05       		.byte	0x5
 19602 3dba 87       		.byte	0x87
 19603 3dbb 8D000000 		.4byte	0x8d
 19604 3dbf 05       		.uleb128 0x5
 19605 3dc0 03       		.byte	0x3
 19606 3dc1 00000000 		.4byte	id_corte
 19607 3dc5 1E       		.uleb128 0x1e
 19608 3dc6 82040000 		.4byte	.LASF133
 19609 3dca 05       		.byte	0x5
 19610 3dcb 8B       		.byte	0x8b
 19611 3dcc D63D0000 		.4byte	0x3dd6
 19612 3dd0 05       		.uleb128 0x5
 19613 3dd1 03       		.byte	0x3
 19614 3dd2 00000000 		.4byte	no_venta
 19615 3dd6 0C       		.uleb128 0xc
 19616 3dd7 68000000 		.4byte	0x68
 19617 3ddb 1E       		.uleb128 0x1e
 19618 3ddc 99040000 		.4byte	.LASF134
 19619 3de0 05       		.byte	0x5
 19620 3de1 A7       		.byte	0xa7
 19621 3de2 C1000000 		.4byte	0xc1
 19622 3de6 05       		.uleb128 0x5
 19623 3de7 03       		.byte	0x3
 19624 3de8 00000000 		.4byte	Buffer_LCD1
 19625 3dec 1E       		.uleb128 0x1e
 19626 3ded 07040000 		.4byte	.LASF135
 19627 3df1 05       		.byte	0x5
 19628 3df2 A8       		.byte	0xa8
 19629 3df3 C1000000 		.4byte	0xc1
 19630 3df7 05       		.uleb128 0x5
 19631 3df8 03       		.byte	0x3
 19632 3df9 00000000 		.4byte	Buffer_LCD2
 19633 3dfd 1E       		.uleb128 0x1e
 19634 3dfe AC040000 		.4byte	.LASF136
 19635 3e02 05       		.byte	0x5
 19636 3e03 A9       		.byte	0xa9
 19637 3e04 C1000000 		.4byte	0xc1
 19638 3e08 05       		.uleb128 0x5
 19639 3e09 03       		.byte	0x3
 19640 3e0a 00000000 		.4byte	Buffer_LCD3
ARM GAS  C:\Users\diego\AppData\Local\Temp\ccvEcbYb.s 			page 389


 19641 3e0e 1E       		.uleb128 0x1e
 19642 3e0f B8040000 		.4byte	.LASF137
 19643 3e13 05       		.byte	0x5
 19644 3e14 AA       		.byte	0xaa
 19645 3e15 C1000000 		.4byte	0xc1
 19646 3e19 05       		.uleb128 0x5
 19647 3e1a 03       		.byte	0x3
 19648 3e1b 00000000 		.4byte	Buffer_LCD4
 19649 3e1f 1E       		.uleb128 0x1e
 19650 3e20 90050000 		.4byte	.LASF138
 19651 3e24 05       		.byte	0x5
 19652 3e25 AC       		.byte	0xac
 19653 3e26 81000000 		.4byte	0x81
 19654 3e2a 05       		.uleb128 0x5
 19655 3e2b 03       		.byte	0x3
 19656 3e2c 00000000 		.4byte	estado_0
 19657 3e30 1F       		.uleb128 0x1f
 19658 3e31 6100     		.ascii	"a\000"
 19659 3e33 05       		.byte	0x5
 19660 3e34 B8       		.byte	0xb8
 19661 3e35 A8010000 		.4byte	0x1a8
 19662 3e39 05       		.uleb128 0x5
 19663 3e3a 03       		.byte	0x3
 19664 3e3b 00000000 		.4byte	a
 19665 3e3f 1F       		.uleb128 0x1f
 19666 3e40 6200     		.ascii	"b\000"
 19667 3e42 05       		.byte	0x5
 19668 3e43 B9       		.byte	0xb9
 19669 3e44 A8010000 		.4byte	0x1a8
 19670 3e48 05       		.uleb128 0x5
 19671 3e49 03       		.byte	0x3
 19672 3e4a 00000000 		.4byte	b
 19673 3e4e 1F       		.uleb128 0x1f
 19674 3e4f 6300     		.ascii	"c\000"
 19675 3e51 05       		.byte	0x5
 19676 3e52 BA       		.byte	0xba
 19677 3e53 A8010000 		.4byte	0x1a8
 19678 3e57 05       		.uleb128 0x5
 19679 3e58 03       		.byte	0x3
 19680 3e59 00000000 		.4byte	c
 19681 3e5d 1F       		.uleb128 0x1f
 19682 3e5e 6400     		.ascii	"d\000"
 19683 3e60 05       		.byte	0x5
 19684 3e61 BB       		.byte	0xbb
 19685 3e62 A8010000 		.4byte	0x1a8
 19686 3e66 05       		.uleb128 0x5
 19687 3e67 03       		.byte	0x3
 19688 3e68 00000000 		.4byte	d
 19689 3e6c 1F       		.uleb128 0x1f
 19690 3e6d 7800     		.ascii	"x\000"
 19691 3e6f 05       		.byte	0x5
 19692 3e70 D1       		.byte	0xd1
 19693 3e71 99000000 		.4byte	0x99
 19694 3e75 05       		.uleb128 0x5
 19695 3e76 03       		.byte	0x3
 19696 3e77 00000000 		.4byte	x
 19697 3e7b 1F       		.uleb128 0x1f
ARM GAS  C:\Users\diego\AppData\Local\Temp\ccvEcbYb.s 			page 390


 19698 3e7c 7900     		.ascii	"y\000"
 19699 3e7e 05       		.byte	0x5
 19700 3e7f D1       		.byte	0xd1
 19701 3e80 99000000 		.4byte	0x99
 19702 3e84 05       		.uleb128 0x5
 19703 3e85 03       		.byte	0x3
 19704 3e86 00000000 		.4byte	y
 19705 3e8a 1F       		.uleb128 0x1f
 19706 3e8b 7A00     		.ascii	"z\000"
 19707 3e8d 05       		.byte	0x5
 19708 3e8e D1       		.byte	0xd1
 19709 3e8f 99000000 		.4byte	0x99
 19710 3e93 05       		.uleb128 0x5
 19711 3e94 03       		.byte	0x3
 19712 3e95 00000000 		.4byte	z
 19713 3e99 1F       		.uleb128 0x1f
 19714 3e9a 7700     		.ascii	"w\000"
 19715 3e9c 05       		.byte	0x5
 19716 3e9d D1       		.byte	0xd1
 19717 3e9e 99000000 		.4byte	0x99
 19718 3ea2 05       		.uleb128 0x5
 19719 3ea3 03       		.byte	0x3
 19720 3ea4 00000000 		.4byte	w
 19721 3ea8 09       		.uleb128 0x9
 19722 3ea9 81000000 		.4byte	0x81
 19723 3ead BE3E0000 		.4byte	0x3ebe
 19724 3eb1 0A       		.uleb128 0xa
 19725 3eb2 BA000000 		.4byte	0xba
 19726 3eb6 01       		.byte	0x1
 19727 3eb7 0A       		.uleb128 0xa
 19728 3eb8 BA000000 		.4byte	0xba
 19729 3ebc C7       		.byte	0xc7
 19730 3ebd 00       		.byte	0
 19731 3ebe 1E       		.uleb128 0x1e
 19732 3ebf 82000000 		.4byte	.LASF139
 19733 3ec3 05       		.byte	0x5
 19734 3ec4 D2       		.byte	0xd2
 19735 3ec5 A83E0000 		.4byte	0x3ea8
 19736 3ec9 05       		.uleb128 0x5
 19737 3eca 03       		.byte	0x3
 19738 3ecb 00000000 		.4byte	modulo
 19739 3ecf 1E       		.uleb128 0x1e
 19740 3ed0 E7000000 		.4byte	.LASF140
 19741 3ed4 05       		.byte	0x5
 19742 3ed5 D3       		.byte	0xd3
 19743 3ed6 81000000 		.4byte	0x81
 19744 3eda 05       		.uleb128 0x5
 19745 3edb 03       		.byte	0x3
 19746 3edc 00000000 		.4byte	grado1
 19747 3ee0 1E       		.uleb128 0x1e
 19748 3ee1 6D000000 		.4byte	.LASF141
 19749 3ee5 05       		.byte	0x5
 19750 3ee6 D3       		.byte	0xd3
 19751 3ee7 81000000 		.4byte	0x81
 19752 3eeb 05       		.uleb128 0x5
 19753 3eec 03       		.byte	0x3
 19754 3eed 00000000 		.4byte	grado2
ARM GAS  C:\Users\diego\AppData\Local\Temp\ccvEcbYb.s 			page 391


 19755 3ef1 1E       		.uleb128 0x1e
 19756 3ef2 74000000 		.4byte	.LASF142
 19757 3ef6 05       		.byte	0x5
 19758 3ef7 D3       		.byte	0xd3
 19759 3ef8 81000000 		.4byte	0x81
 19760 3efc 05       		.uleb128 0x5
 19761 3efd 03       		.byte	0x3
 19762 3efe 00000000 		.4byte	grado3
 19763 3f02 1E       		.uleb128 0x1e
 19764 3f03 7B000000 		.4byte	.LASF143
 19765 3f07 05       		.byte	0x5
 19766 3f08 D3       		.byte	0xd3
 19767 3f09 81000000 		.4byte	0x81
 19768 3f0d 05       		.uleb128 0x5
 19769 3f0e 03       		.byte	0x3
 19770 3f0f 00000000 		.4byte	grado4
 19771 3f13 1E       		.uleb128 0x1e
 19772 3f14 21040000 		.4byte	.LASF43
 19773 3f18 05       		.byte	0x5
 19774 3f19 D3       		.byte	0xd3
 19775 3f1a 81000000 		.4byte	0x81
 19776 3f1e 05       		.uleb128 0x5
 19777 3f1f 03       		.byte	0x3
 19778 3f20 00000000 		.4byte	producto
 19779 3f24 1E       		.uleb128 0x1e
 19780 3f25 3D070000 		.4byte	.LASF144
 19781 3f29 05       		.byte	0x5
 19782 3f2a D5       		.byte	0xd5
 19783 3f2b 0C020000 		.4byte	0x20c
 19784 3f2f 05       		.uleb128 0x5
 19785 3f30 03       		.byte	0x3
 19786 3f31 00000000 		.4byte	rventa
 19787 3f35 1E       		.uleb128 0x1e
 19788 3f36 7B010000 		.4byte	.LASF145
 19789 3f3a 05       		.byte	0x5
 19790 3f3b D6       		.byte	0xd6
 19791 3f3c 0C020000 		.4byte	0x20c
 19792 3f40 05       		.uleb128 0x5
 19793 3f41 03       		.byte	0x3
 19794 3f42 00000000 		.4byte	rventa2
 19795 3f46 1E       		.uleb128 0x1e
 19796 3f47 A7020000 		.4byte	.LASF146
 19797 3f4b 01       		.byte	0x1
 19798 3f4c 30       		.byte	0x30
 19799 3f4d 963B0000 		.4byte	0x3b96
 19800 3f51 05       		.uleb128 0x5
 19801 3f52 03       		.byte	0x3
 19802 3f53 00000000 		.4byte	msn_tc
 19803 3f57 1E       		.uleb128 0x1e
 19804 3f58 67030000 		.4byte	.LASF147
 19805 3f5c 01       		.byte	0x1
 19806 3f5d 31       		.byte	0x31
 19807 3f5e F1020000 		.4byte	0x2f1
 19808 3f62 05       		.uleb128 0x5
 19809 3f63 03       		.byte	0x3
 19810 3f64 00000000 		.4byte	msn_lecact
 19811 3f68 09       		.uleb128 0x9
ARM GAS  C:\Users\diego\AppData\Local\Temp\ccvEcbYb.s 			page 392


 19812 3f69 81000000 		.4byte	0x81
 19813 3f6d 783F0000 		.4byte	0x3f78
 19814 3f71 0A       		.uleb128 0xa
 19815 3f72 BA000000 		.4byte	0xba
 19816 3f76 10       		.byte	0x10
 19817 3f77 00       		.byte	0
 19818 3f78 1E       		.uleb128 0x1e
 19819 3f79 EF010000 		.4byte	.LASF148
 19820 3f7d 01       		.byte	0x1
 19821 3f7e 32       		.byte	0x32
 19822 3f7f 683F0000 		.4byte	0x3f68
 19823 3f83 05       		.uleb128 0x5
 19824 3f84 03       		.byte	0x3
 19825 3f85 00000000 		.4byte	msn_lecaan
 19826 3f89 1E       		.uleb128 0x1e
 19827 3f8a C8030000 		.4byte	.LASF149
 19828 3f8e 01       		.byte	0x1
 19829 3f8f 33       		.byte	0x33
 19830 3f90 B5370000 		.4byte	0x37b5
 19831 3f94 05       		.uleb128 0x5
 19832 3f95 03       		.byte	0x3
 19833 3f96 00000000 		.4byte	msn_tventas
 19834 3f9a 1E       		.uleb128 0x1e
 19835 3f9b 2E010000 		.4byte	.LASF150
 19836 3f9f 01       		.byte	0x1
 19837 3fa0 34       		.byte	0x34
 19838 3fa1 F1020000 		.4byte	0x2f1
 19839 3fa5 05       		.uleb128 0x5
 19840 3fa6 03       		.byte	0x3
 19841 3fa7 00000000 		.4byte	msn_totalcero
 19842 3fab 20       		.uleb128 0x20
 19843 3fac EA060000 		.4byte	.LASF151
 19844 3fb0 06       		.byte	0x6
 19845 3fb1 9F       		.byte	0x9f
 19846 3fb2 BC3F0000 		.4byte	0x3fbc
 19847 3fb6 21       		.uleb128 0x21
 19848 3fb7 81000000 		.4byte	0x81
 19849 3fbb 00       		.byte	0
 19850 3fbc 20       		.uleb128 0x20
 19851 3fbd B9030000 		.4byte	.LASF152
 19852 3fc1 08       		.byte	0x8
 19853 3fc2 77       		.byte	0x77
 19854 3fc3 CD3F0000 		.4byte	0x3fcd
 19855 3fc7 21       		.uleb128 0x21
 19856 3fc8 99000000 		.4byte	0x99
 19857 3fcc 00       		.byte	0
 19858 3fcd 22       		.uleb128 0x22
 19859 3fce 51010000 		.4byte	.LASF153
 19860 3fd2 06       		.byte	0x6
 19861 3fd3 8A       		.byte	0x8a
 19862 3fd4 8D000000 		.4byte	0x8d
 19863 3fd8 23       		.uleb128 0x23
 19864 3fd9 E8030000 		.4byte	.LASF164
 19865 3fdd 06       		.byte	0x6
 19866 3fde 8C       		.byte	0x8c
 19867 3fdf 22       		.uleb128 0x22
 19868 3fe0 4A040000 		.4byte	.LASF154
ARM GAS  C:\Users\diego\AppData\Local\Temp\ccvEcbYb.s 			page 393


 19869 3fe4 06       		.byte	0x6
 19870 3fe5 86       		.byte	0x86
 19871 3fe6 81000000 		.4byte	0x81
 19872 3fea 24       		.uleb128 0x24
 19873 3feb 21010000 		.4byte	.LASF155
 19874 3fef 09       		.byte	0x9
 19875 3ff0 25       		.byte	0x25
 19876 3ff1 81000000 		.4byte	0x81
 19877 3ff5 04400000 		.4byte	0x4004
 19878 3ff9 21       		.uleb128 0x21
 19879 3ffa 8D000000 		.4byte	0x8d
 19880 3ffe 21       		.uleb128 0x21
 19881 3fff AF370000 		.4byte	0x37af
 19882 4003 00       		.byte	0
 19883 4004 24       		.uleb128 0x24
 19884 4005 4A070000 		.4byte	.LASF156
 19885 4009 09       		.byte	0x9
 19886 400a 27       		.byte	0x27
 19887 400b 81000000 		.4byte	0x81
 19888 400f 1E400000 		.4byte	0x401e
 19889 4013 21       		.uleb128 0x21
 19890 4014 81000000 		.4byte	0x81
 19891 4018 21       		.uleb128 0x21
 19892 4019 81000000 		.4byte	0x81
 19893 401d 00       		.byte	0
 19894 401e 20       		.uleb128 0x20
 19895 401f 04070000 		.4byte	.LASF157
 19896 4023 0A       		.byte	0xa
 19897 4024 29       		.byte	0x29
 19898 4025 34400000 		.4byte	0x4034
 19899 4029 21       		.uleb128 0x21
 19900 402a 81000000 		.4byte	0x81
 19901 402e 21       		.uleb128 0x21
 19902 402f 81000000 		.4byte	0x81
 19903 4033 00       		.byte	0
 19904 4034 24       		.uleb128 0x24
 19905 4035 C4040000 		.4byte	.LASF158
 19906 4039 09       		.byte	0x9
 19907 403a 26       		.byte	0x26
 19908 403b 81000000 		.4byte	0x81
 19909 403f 4E400000 		.4byte	0x404e
 19910 4043 21       		.uleb128 0x21
 19911 4044 8D000000 		.4byte	0x8d
 19912 4048 21       		.uleb128 0x21
 19913 4049 81000000 		.4byte	0x81
 19914 404d 00       		.byte	0
 19915 404e 20       		.uleb128 0x20
 19916 404f 72030000 		.4byte	.LASF159
 19917 4053 0A       		.byte	0xa
 19918 4054 26       		.byte	0x26
 19919 4055 5F400000 		.4byte	0x405f
 19920 4059 21       		.uleb128 0x21
 19921 405a 81000000 		.4byte	0x81
 19922 405e 00       		.byte	0
 19923 405f 20       		.uleb128 0x20
 19924 4060 05020000 		.4byte	.LASF160
 19925 4064 0A       		.byte	0xa
ARM GAS  C:\Users\diego\AppData\Local\Temp\ccvEcbYb.s 			page 394


 19926 4065 28       		.byte	0x28
 19927 4066 7A400000 		.4byte	0x407a
 19928 406a 21       		.uleb128 0x21
 19929 406b 81000000 		.4byte	0x81
 19930 406f 21       		.uleb128 0x21
 19931 4070 AF370000 		.4byte	0x37af
 19932 4074 21       		.uleb128 0x21
 19933 4075 AF370000 		.4byte	0x37af
 19934 4079 00       		.byte	0
 19935 407a 25       		.uleb128 0x25
 19936 407b DF050000 		.4byte	.LASF165
 19937 407f 0A       		.byte	0xa
 19938 4080 2A       		.byte	0x2a
 19939 4081 21       		.uleb128 0x21
 19940 4082 AF370000 		.4byte	0x37af
 19941 4086 21       		.uleb128 0x21
 19942 4087 81000000 		.4byte	0x81
 19943 408b 00       		.byte	0
 19944 408c 00       		.byte	0
 19945              		.section	.debug_abbrev,"",%progbits
 19946              	.Ldebug_abbrev0:
 19947 0000 01       		.uleb128 0x1
 19948 0001 11       		.uleb128 0x11
 19949 0002 01       		.byte	0x1
 19950 0003 25       		.uleb128 0x25
 19951 0004 0E       		.uleb128 0xe
 19952 0005 13       		.uleb128 0x13
 19953 0006 0B       		.uleb128 0xb
 19954 0007 03       		.uleb128 0x3
 19955 0008 0E       		.uleb128 0xe
 19956 0009 1B       		.uleb128 0x1b
 19957 000a 0E       		.uleb128 0xe
 19958 000b 55       		.uleb128 0x55
 19959 000c 17       		.uleb128 0x17
 19960 000d 11       		.uleb128 0x11
 19961 000e 01       		.uleb128 0x1
 19962 000f 10       		.uleb128 0x10
 19963 0010 17       		.uleb128 0x17
 19964 0011 00       		.byte	0
 19965 0012 00       		.byte	0
 19966 0013 02       		.uleb128 0x2
 19967 0014 24       		.uleb128 0x24
 19968 0015 00       		.byte	0
 19969 0016 0B       		.uleb128 0xb
 19970 0017 0B       		.uleb128 0xb
 19971 0018 3E       		.uleb128 0x3e
 19972 0019 0B       		.uleb128 0xb
 19973 001a 03       		.uleb128 0x3
 19974 001b 0E       		.uleb128 0xe
 19975 001c 00       		.byte	0
 19976 001d 00       		.byte	0
 19977 001e 03       		.uleb128 0x3
 19978 001f 16       		.uleb128 0x16
 19979 0020 00       		.byte	0
 19980 0021 03       		.uleb128 0x3
 19981 0022 0E       		.uleb128 0xe
 19982 0023 3A       		.uleb128 0x3a
ARM GAS  C:\Users\diego\AppData\Local\Temp\ccvEcbYb.s 			page 395


 19983 0024 0B       		.uleb128 0xb
 19984 0025 3B       		.uleb128 0x3b
 19985 0026 0B       		.uleb128 0xb
 19986 0027 49       		.uleb128 0x49
 19987 0028 13       		.uleb128 0x13
 19988 0029 00       		.byte	0
 19989 002a 00       		.byte	0
 19990 002b 04       		.uleb128 0x4
 19991 002c 24       		.uleb128 0x24
 19992 002d 00       		.byte	0
 19993 002e 0B       		.uleb128 0xb
 19994 002f 0B       		.uleb128 0xb
 19995 0030 3E       		.uleb128 0x3e
 19996 0031 0B       		.uleb128 0xb
 19997 0032 03       		.uleb128 0x3
 19998 0033 08       		.uleb128 0x8
 19999 0034 00       		.byte	0
 20000 0035 00       		.byte	0
 20001 0036 05       		.uleb128 0x5
 20002 0037 16       		.uleb128 0x16
 20003 0038 00       		.byte	0
 20004 0039 03       		.uleb128 0x3
 20005 003a 0E       		.uleb128 0xe
 20006 003b 3A       		.uleb128 0x3a
 20007 003c 0B       		.uleb128 0xb
 20008 003d 3B       		.uleb128 0x3b
 20009 003e 05       		.uleb128 0x5
 20010 003f 49       		.uleb128 0x49
 20011 0040 13       		.uleb128 0x13
 20012 0041 00       		.byte	0
 20013 0042 00       		.byte	0
 20014 0043 06       		.uleb128 0x6
 20015 0044 13       		.uleb128 0x13
 20016 0045 01       		.byte	0x1
 20017 0046 03       		.uleb128 0x3
 20018 0047 0E       		.uleb128 0xe
 20019 0048 0B       		.uleb128 0xb
 20020 0049 0B       		.uleb128 0xb
 20021 004a 3A       		.uleb128 0x3a
 20022 004b 0B       		.uleb128 0xb
 20023 004c 3B       		.uleb128 0x3b
 20024 004d 0B       		.uleb128 0xb
 20025 004e 01       		.uleb128 0x1
 20026 004f 13       		.uleb128 0x13
 20027 0050 00       		.byte	0
 20028 0051 00       		.byte	0
 20029 0052 07       		.uleb128 0x7
 20030 0053 0D       		.uleb128 0xd
 20031 0054 00       		.byte	0
 20032 0055 03       		.uleb128 0x3
 20033 0056 0E       		.uleb128 0xe
 20034 0057 3A       		.uleb128 0x3a
 20035 0058 0B       		.uleb128 0xb
 20036 0059 3B       		.uleb128 0x3b
 20037 005a 0B       		.uleb128 0xb
 20038 005b 49       		.uleb128 0x49
 20039 005c 13       		.uleb128 0x13
ARM GAS  C:\Users\diego\AppData\Local\Temp\ccvEcbYb.s 			page 396


 20040 005d 38       		.uleb128 0x38
 20041 005e 0B       		.uleb128 0xb
 20042 005f 00       		.byte	0
 20043 0060 00       		.byte	0
 20044 0061 08       		.uleb128 0x8
 20045 0062 0D       		.uleb128 0xd
 20046 0063 00       		.byte	0
 20047 0064 03       		.uleb128 0x3
 20048 0065 08       		.uleb128 0x8
 20049 0066 3A       		.uleb128 0x3a
 20050 0067 0B       		.uleb128 0xb
 20051 0068 3B       		.uleb128 0x3b
 20052 0069 0B       		.uleb128 0xb
 20053 006a 49       		.uleb128 0x49
 20054 006b 13       		.uleb128 0x13
 20055 006c 38       		.uleb128 0x38
 20056 006d 0B       		.uleb128 0xb
 20057 006e 00       		.byte	0
 20058 006f 00       		.byte	0
 20059 0070 09       		.uleb128 0x9
 20060 0071 01       		.uleb128 0x1
 20061 0072 01       		.byte	0x1
 20062 0073 49       		.uleb128 0x49
 20063 0074 13       		.uleb128 0x13
 20064 0075 01       		.uleb128 0x1
 20065 0076 13       		.uleb128 0x13
 20066 0077 00       		.byte	0
 20067 0078 00       		.byte	0
 20068 0079 0A       		.uleb128 0xa
 20069 007a 21       		.uleb128 0x21
 20070 007b 00       		.byte	0
 20071 007c 49       		.uleb128 0x49
 20072 007d 13       		.uleb128 0x13
 20073 007e 2F       		.uleb128 0x2f
 20074 007f 0B       		.uleb128 0xb
 20075 0080 00       		.byte	0
 20076 0081 00       		.byte	0
 20077 0082 0B       		.uleb128 0xb
 20078 0083 13       		.uleb128 0x13
 20079 0084 01       		.byte	0x1
 20080 0085 03       		.uleb128 0x3
 20081 0086 08       		.uleb128 0x8
 20082 0087 0B       		.uleb128 0xb
 20083 0088 0B       		.uleb128 0xb
 20084 0089 3A       		.uleb128 0x3a
 20085 008a 0B       		.uleb128 0xb
 20086 008b 3B       		.uleb128 0x3b
 20087 008c 0B       		.uleb128 0xb
 20088 008d 01       		.uleb128 0x1
 20089 008e 13       		.uleb128 0x13
 20090 008f 00       		.byte	0
 20091 0090 00       		.byte	0
 20092 0091 0C       		.uleb128 0xc
 20093 0092 35       		.uleb128 0x35
 20094 0093 00       		.byte	0
 20095 0094 49       		.uleb128 0x49
 20096 0095 13       		.uleb128 0x13
ARM GAS  C:\Users\diego\AppData\Local\Temp\ccvEcbYb.s 			page 397


 20097 0096 00       		.byte	0
 20098 0097 00       		.byte	0
 20099 0098 0D       		.uleb128 0xd
 20100 0099 2E       		.uleb128 0x2e
 20101 009a 01       		.byte	0x1
 20102 009b 3F       		.uleb128 0x3f
 20103 009c 19       		.uleb128 0x19
 20104 009d 03       		.uleb128 0x3
 20105 009e 0E       		.uleb128 0xe
 20106 009f 3A       		.uleb128 0x3a
 20107 00a0 0B       		.uleb128 0xb
 20108 00a1 3B       		.uleb128 0x3b
 20109 00a2 0B       		.uleb128 0xb
 20110 00a3 27       		.uleb128 0x27
 20111 00a4 19       		.uleb128 0x19
 20112 00a5 49       		.uleb128 0x49
 20113 00a6 13       		.uleb128 0x13
 20114 00a7 11       		.uleb128 0x11
 20115 00a8 01       		.uleb128 0x1
 20116 00a9 12       		.uleb128 0x12
 20117 00aa 06       		.uleb128 0x6
 20118 00ab 40       		.uleb128 0x40
 20119 00ac 18       		.uleb128 0x18
 20120 00ad 9742     		.uleb128 0x2117
 20121 00af 19       		.uleb128 0x19
 20122 00b0 01       		.uleb128 0x1
 20123 00b1 13       		.uleb128 0x13
 20124 00b2 00       		.byte	0
 20125 00b3 00       		.byte	0
 20126 00b4 0E       		.uleb128 0xe
 20127 00b5 34       		.uleb128 0x34
 20128 00b6 00       		.byte	0
 20129 00b7 03       		.uleb128 0x3
 20130 00b8 08       		.uleb128 0x8
 20131 00b9 3A       		.uleb128 0x3a
 20132 00ba 0B       		.uleb128 0xb
 20133 00bb 3B       		.uleb128 0x3b
 20134 00bc 0B       		.uleb128 0xb
 20135 00bd 49       		.uleb128 0x49
 20136 00be 13       		.uleb128 0x13
 20137 00bf 02       		.uleb128 0x2
 20138 00c0 17       		.uleb128 0x17
 20139 00c1 00       		.byte	0
 20140 00c2 00       		.byte	0
 20141 00c3 0F       		.uleb128 0xf
 20142 00c4 898201   		.uleb128 0x4109
 20143 00c7 01       		.byte	0x1
 20144 00c8 11       		.uleb128 0x11
 20145 00c9 01       		.uleb128 0x1
 20146 00ca 31       		.uleb128 0x31
 20147 00cb 13       		.uleb128 0x13
 20148 00cc 01       		.uleb128 0x1
 20149 00cd 13       		.uleb128 0x13
 20150 00ce 00       		.byte	0
 20151 00cf 00       		.byte	0
 20152 00d0 10       		.uleb128 0x10
 20153 00d1 8A8201   		.uleb128 0x410a
ARM GAS  C:\Users\diego\AppData\Local\Temp\ccvEcbYb.s 			page 398


 20154 00d4 00       		.byte	0
 20155 00d5 02       		.uleb128 0x2
 20156 00d6 18       		.uleb128 0x18
 20157 00d7 9142     		.uleb128 0x2111
 20158 00d9 18       		.uleb128 0x18
 20159 00da 00       		.byte	0
 20160 00db 00       		.byte	0
 20161 00dc 11       		.uleb128 0x11
 20162 00dd 898201   		.uleb128 0x4109
 20163 00e0 00       		.byte	0
 20164 00e1 11       		.uleb128 0x11
 20165 00e2 01       		.uleb128 0x1
 20166 00e3 31       		.uleb128 0x31
 20167 00e4 13       		.uleb128 0x13
 20168 00e5 00       		.byte	0
 20169 00e6 00       		.byte	0
 20170 00e7 12       		.uleb128 0x12
 20171 00e8 05       		.uleb128 0x5
 20172 00e9 00       		.byte	0
 20173 00ea 03       		.uleb128 0x3
 20174 00eb 08       		.uleb128 0x8
 20175 00ec 3A       		.uleb128 0x3a
 20176 00ed 0B       		.uleb128 0xb
 20177 00ee 3B       		.uleb128 0x3b
 20178 00ef 0B       		.uleb128 0xb
 20179 00f0 49       		.uleb128 0x49
 20180 00f1 13       		.uleb128 0x13
 20181 00f2 02       		.uleb128 0x2
 20182 00f3 17       		.uleb128 0x17
 20183 00f4 00       		.byte	0
 20184 00f5 00       		.byte	0
 20185 00f6 13       		.uleb128 0x13
 20186 00f7 34       		.uleb128 0x34
 20187 00f8 00       		.byte	0
 20188 00f9 03       		.uleb128 0x3
 20189 00fa 0E       		.uleb128 0xe
 20190 00fb 3A       		.uleb128 0x3a
 20191 00fc 0B       		.uleb128 0xb
 20192 00fd 3B       		.uleb128 0x3b
 20193 00fe 0B       		.uleb128 0xb
 20194 00ff 49       		.uleb128 0x49
 20195 0100 13       		.uleb128 0x13
 20196 0101 02       		.uleb128 0x2
 20197 0102 17       		.uleb128 0x17
 20198 0103 00       		.byte	0
 20199 0104 00       		.byte	0
 20200 0105 14       		.uleb128 0x14
 20201 0106 34       		.uleb128 0x34
 20202 0107 00       		.byte	0
 20203 0108 03       		.uleb128 0x3
 20204 0109 0E       		.uleb128 0xe
 20205 010a 3A       		.uleb128 0x3a
 20206 010b 0B       		.uleb128 0xb
 20207 010c 3B       		.uleb128 0x3b
 20208 010d 0B       		.uleb128 0xb
 20209 010e 49       		.uleb128 0x49
 20210 010f 13       		.uleb128 0x13
ARM GAS  C:\Users\diego\AppData\Local\Temp\ccvEcbYb.s 			page 399


 20211 0110 02       		.uleb128 0x2
 20212 0111 18       		.uleb128 0x18
 20213 0112 00       		.byte	0
 20214 0113 00       		.byte	0
 20215 0114 15       		.uleb128 0x15
 20216 0115 2E       		.uleb128 0x2e
 20217 0116 01       		.byte	0x1
 20218 0117 3F       		.uleb128 0x3f
 20219 0118 19       		.uleb128 0x19
 20220 0119 03       		.uleb128 0x3
 20221 011a 0E       		.uleb128 0xe
 20222 011b 3A       		.uleb128 0x3a
 20223 011c 0B       		.uleb128 0xb
 20224 011d 3B       		.uleb128 0x3b
 20225 011e 05       		.uleb128 0x5
 20226 011f 27       		.uleb128 0x27
 20227 0120 19       		.uleb128 0x19
 20228 0121 49       		.uleb128 0x49
 20229 0122 13       		.uleb128 0x13
 20230 0123 11       		.uleb128 0x11
 20231 0124 01       		.uleb128 0x1
 20232 0125 12       		.uleb128 0x12
 20233 0126 06       		.uleb128 0x6
 20234 0127 40       		.uleb128 0x40
 20235 0128 18       		.uleb128 0x18
 20236 0129 9742     		.uleb128 0x2117
 20237 012b 19       		.uleb128 0x19
 20238 012c 01       		.uleb128 0x1
 20239 012d 13       		.uleb128 0x13
 20240 012e 00       		.byte	0
 20241 012f 00       		.byte	0
 20242 0130 16       		.uleb128 0x16
 20243 0131 05       		.uleb128 0x5
 20244 0132 00       		.byte	0
 20245 0133 03       		.uleb128 0x3
 20246 0134 08       		.uleb128 0x8
 20247 0135 3A       		.uleb128 0x3a
 20248 0136 0B       		.uleb128 0xb
 20249 0137 3B       		.uleb128 0x3b
 20250 0138 05       		.uleb128 0x5
 20251 0139 49       		.uleb128 0x49
 20252 013a 13       		.uleb128 0x13
 20253 013b 02       		.uleb128 0x2
 20254 013c 17       		.uleb128 0x17
 20255 013d 00       		.byte	0
 20256 013e 00       		.byte	0
 20257 013f 17       		.uleb128 0x17
 20258 0140 34       		.uleb128 0x34
 20259 0141 00       		.byte	0
 20260 0142 03       		.uleb128 0x3
 20261 0143 0E       		.uleb128 0xe
 20262 0144 3A       		.uleb128 0x3a
 20263 0145 0B       		.uleb128 0xb
 20264 0146 3B       		.uleb128 0x3b
 20265 0147 05       		.uleb128 0x5
 20266 0148 49       		.uleb128 0x49
 20267 0149 13       		.uleb128 0x13
ARM GAS  C:\Users\diego\AppData\Local\Temp\ccvEcbYb.s 			page 400


 20268 014a 02       		.uleb128 0x2
 20269 014b 18       		.uleb128 0x18
 20270 014c 00       		.byte	0
 20271 014d 00       		.byte	0
 20272 014e 18       		.uleb128 0x18
 20273 014f 34       		.uleb128 0x34
 20274 0150 00       		.byte	0
 20275 0151 03       		.uleb128 0x3
 20276 0152 08       		.uleb128 0x8
 20277 0153 3A       		.uleb128 0x3a
 20278 0154 0B       		.uleb128 0xb
 20279 0155 3B       		.uleb128 0x3b
 20280 0156 05       		.uleb128 0x5
 20281 0157 49       		.uleb128 0x49
 20282 0158 13       		.uleb128 0x13
 20283 0159 02       		.uleb128 0x2
 20284 015a 17       		.uleb128 0x17
 20285 015b 00       		.byte	0
 20286 015c 00       		.byte	0
 20287 015d 19       		.uleb128 0x19
 20288 015e 898201   		.uleb128 0x4109
 20289 0161 01       		.byte	0x1
 20290 0162 11       		.uleb128 0x11
 20291 0163 01       		.uleb128 0x1
 20292 0164 31       		.uleb128 0x31
 20293 0165 13       		.uleb128 0x13
 20294 0166 00       		.byte	0
 20295 0167 00       		.byte	0
 20296 0168 1A       		.uleb128 0x1a
 20297 0169 05       		.uleb128 0x5
 20298 016a 00       		.byte	0
 20299 016b 03       		.uleb128 0x3
 20300 016c 0E       		.uleb128 0xe
 20301 016d 3A       		.uleb128 0x3a
 20302 016e 0B       		.uleb128 0xb
 20303 016f 3B       		.uleb128 0x3b
 20304 0170 05       		.uleb128 0x5
 20305 0171 49       		.uleb128 0x49
 20306 0172 13       		.uleb128 0x13
 20307 0173 02       		.uleb128 0x2
 20308 0174 17       		.uleb128 0x17
 20309 0175 00       		.byte	0
 20310 0176 00       		.byte	0
 20311 0177 1B       		.uleb128 0x1b
 20312 0178 34       		.uleb128 0x34
 20313 0179 00       		.byte	0
 20314 017a 03       		.uleb128 0x3
 20315 017b 0E       		.uleb128 0xe
 20316 017c 3A       		.uleb128 0x3a
 20317 017d 0B       		.uleb128 0xb
 20318 017e 3B       		.uleb128 0x3b
 20319 017f 05       		.uleb128 0x5
 20320 0180 49       		.uleb128 0x49
 20321 0181 13       		.uleb128 0x13
 20322 0182 02       		.uleb128 0x2
 20323 0183 17       		.uleb128 0x17
 20324 0184 00       		.byte	0
ARM GAS  C:\Users\diego\AppData\Local\Temp\ccvEcbYb.s 			page 401


 20325 0185 00       		.byte	0
 20326 0186 1C       		.uleb128 0x1c
 20327 0187 0F       		.uleb128 0xf
 20328 0188 00       		.byte	0
 20329 0189 0B       		.uleb128 0xb
 20330 018a 0B       		.uleb128 0xb
 20331 018b 49       		.uleb128 0x49
 20332 018c 13       		.uleb128 0x13
 20333 018d 00       		.byte	0
 20334 018e 00       		.byte	0
 20335 018f 1D       		.uleb128 0x1d
 20336 0190 34       		.uleb128 0x34
 20337 0191 00       		.byte	0
 20338 0192 03       		.uleb128 0x3
 20339 0193 0E       		.uleb128 0xe
 20340 0194 3A       		.uleb128 0x3a
 20341 0195 0B       		.uleb128 0xb
 20342 0196 3B       		.uleb128 0x3b
 20343 0197 05       		.uleb128 0x5
 20344 0198 49       		.uleb128 0x49
 20345 0199 13       		.uleb128 0x13
 20346 019a 3F       		.uleb128 0x3f
 20347 019b 19       		.uleb128 0x19
 20348 019c 3C       		.uleb128 0x3c
 20349 019d 19       		.uleb128 0x19
 20350 019e 00       		.byte	0
 20351 019f 00       		.byte	0
 20352 01a0 1E       		.uleb128 0x1e
 20353 01a1 34       		.uleb128 0x34
 20354 01a2 00       		.byte	0
 20355 01a3 03       		.uleb128 0x3
 20356 01a4 0E       		.uleb128 0xe
 20357 01a5 3A       		.uleb128 0x3a
 20358 01a6 0B       		.uleb128 0xb
 20359 01a7 3B       		.uleb128 0x3b
 20360 01a8 0B       		.uleb128 0xb
 20361 01a9 49       		.uleb128 0x49
 20362 01aa 13       		.uleb128 0x13
 20363 01ab 3F       		.uleb128 0x3f
 20364 01ac 19       		.uleb128 0x19
 20365 01ad 02       		.uleb128 0x2
 20366 01ae 18       		.uleb128 0x18
 20367 01af 00       		.byte	0
 20368 01b0 00       		.byte	0
 20369 01b1 1F       		.uleb128 0x1f
 20370 01b2 34       		.uleb128 0x34
 20371 01b3 00       		.byte	0
 20372 01b4 03       		.uleb128 0x3
 20373 01b5 08       		.uleb128 0x8
 20374 01b6 3A       		.uleb128 0x3a
 20375 01b7 0B       		.uleb128 0xb
 20376 01b8 3B       		.uleb128 0x3b
 20377 01b9 0B       		.uleb128 0xb
 20378 01ba 49       		.uleb128 0x49
 20379 01bb 13       		.uleb128 0x13
 20380 01bc 3F       		.uleb128 0x3f
 20381 01bd 19       		.uleb128 0x19
ARM GAS  C:\Users\diego\AppData\Local\Temp\ccvEcbYb.s 			page 402


 20382 01be 02       		.uleb128 0x2
 20383 01bf 18       		.uleb128 0x18
 20384 01c0 00       		.byte	0
 20385 01c1 00       		.byte	0
 20386 01c2 20       		.uleb128 0x20
 20387 01c3 2E       		.uleb128 0x2e
 20388 01c4 01       		.byte	0x1
 20389 01c5 3F       		.uleb128 0x3f
 20390 01c6 19       		.uleb128 0x19
 20391 01c7 03       		.uleb128 0x3
 20392 01c8 0E       		.uleb128 0xe
 20393 01c9 3A       		.uleb128 0x3a
 20394 01ca 0B       		.uleb128 0xb
 20395 01cb 3B       		.uleb128 0x3b
 20396 01cc 0B       		.uleb128 0xb
 20397 01cd 27       		.uleb128 0x27
 20398 01ce 19       		.uleb128 0x19
 20399 01cf 3C       		.uleb128 0x3c
 20400 01d0 19       		.uleb128 0x19
 20401 01d1 01       		.uleb128 0x1
 20402 01d2 13       		.uleb128 0x13
 20403 01d3 00       		.byte	0
 20404 01d4 00       		.byte	0
 20405 01d5 21       		.uleb128 0x21
 20406 01d6 05       		.uleb128 0x5
 20407 01d7 00       		.byte	0
 20408 01d8 49       		.uleb128 0x49
 20409 01d9 13       		.uleb128 0x13
 20410 01da 00       		.byte	0
 20411 01db 00       		.byte	0
 20412 01dc 22       		.uleb128 0x22
 20413 01dd 2E       		.uleb128 0x2e
 20414 01de 00       		.byte	0
 20415 01df 3F       		.uleb128 0x3f
 20416 01e0 19       		.uleb128 0x19
 20417 01e1 03       		.uleb128 0x3
 20418 01e2 0E       		.uleb128 0xe
 20419 01e3 3A       		.uleb128 0x3a
 20420 01e4 0B       		.uleb128 0xb
 20421 01e5 3B       		.uleb128 0x3b
 20422 01e6 0B       		.uleb128 0xb
 20423 01e7 27       		.uleb128 0x27
 20424 01e8 19       		.uleb128 0x19
 20425 01e9 49       		.uleb128 0x49
 20426 01ea 13       		.uleb128 0x13
 20427 01eb 3C       		.uleb128 0x3c
 20428 01ec 19       		.uleb128 0x19
 20429 01ed 00       		.byte	0
 20430 01ee 00       		.byte	0
 20431 01ef 23       		.uleb128 0x23
 20432 01f0 2E       		.uleb128 0x2e
 20433 01f1 00       		.byte	0
 20434 01f2 3F       		.uleb128 0x3f
 20435 01f3 19       		.uleb128 0x19
 20436 01f4 03       		.uleb128 0x3
 20437 01f5 0E       		.uleb128 0xe
 20438 01f6 3A       		.uleb128 0x3a
ARM GAS  C:\Users\diego\AppData\Local\Temp\ccvEcbYb.s 			page 403


 20439 01f7 0B       		.uleb128 0xb
 20440 01f8 3B       		.uleb128 0x3b
 20441 01f9 0B       		.uleb128 0xb
 20442 01fa 27       		.uleb128 0x27
 20443 01fb 19       		.uleb128 0x19
 20444 01fc 3C       		.uleb128 0x3c
 20445 01fd 19       		.uleb128 0x19
 20446 01fe 00       		.byte	0
 20447 01ff 00       		.byte	0
 20448 0200 24       		.uleb128 0x24
 20449 0201 2E       		.uleb128 0x2e
 20450 0202 01       		.byte	0x1
 20451 0203 3F       		.uleb128 0x3f
 20452 0204 19       		.uleb128 0x19
 20453 0205 03       		.uleb128 0x3
 20454 0206 0E       		.uleb128 0xe
 20455 0207 3A       		.uleb128 0x3a
 20456 0208 0B       		.uleb128 0xb
 20457 0209 3B       		.uleb128 0x3b
 20458 020a 0B       		.uleb128 0xb
 20459 020b 27       		.uleb128 0x27
 20460 020c 19       		.uleb128 0x19
 20461 020d 49       		.uleb128 0x49
 20462 020e 13       		.uleb128 0x13
 20463 020f 3C       		.uleb128 0x3c
 20464 0210 19       		.uleb128 0x19
 20465 0211 01       		.uleb128 0x1
 20466 0212 13       		.uleb128 0x13
 20467 0213 00       		.byte	0
 20468 0214 00       		.byte	0
 20469 0215 25       		.uleb128 0x25
 20470 0216 2E       		.uleb128 0x2e
 20471 0217 01       		.byte	0x1
 20472 0218 3F       		.uleb128 0x3f
 20473 0219 19       		.uleb128 0x19
 20474 021a 03       		.uleb128 0x3
 20475 021b 0E       		.uleb128 0xe
 20476 021c 3A       		.uleb128 0x3a
 20477 021d 0B       		.uleb128 0xb
 20478 021e 3B       		.uleb128 0x3b
 20479 021f 0B       		.uleb128 0xb
 20480 0220 27       		.uleb128 0x27
 20481 0221 19       		.uleb128 0x19
 20482 0222 3C       		.uleb128 0x3c
 20483 0223 19       		.uleb128 0x19
 20484 0224 00       		.byte	0
 20485 0225 00       		.byte	0
 20486 0226 00       		.byte	0
 20487              		.section	.debug_loc,"",%progbits
 20488              	.Ldebug_loc0:
 20489              	.LLST0:
 20490 0000 14000000 		.4byte	.LVL0
 20491 0004 18000000 		.4byte	.LVL1
 20492 0008 0200     		.2byte	0x2
 20493 000a 30       		.byte	0x30
 20494 000b 9F       		.byte	0x9f
 20495 000c 18000000 		.4byte	.LVL1
ARM GAS  C:\Users\diego\AppData\Local\Temp\ccvEcbYb.s 			page 404


 20496 0010 AA000000 		.4byte	.LVL12
 20497 0014 0100     		.2byte	0x1
 20498 0016 54       		.byte	0x54
 20499 0017 AC000000 		.4byte	.LVL13
 20500 001b 04010000 		.4byte	.LVL19
 20501 001f 0100     		.2byte	0x1
 20502 0021 54       		.byte	0x54
 20503 0022 00000000 		.4byte	0
 20504 0026 00000000 		.4byte	0
 20505              	.LLST1:
 20506 002a 00000000 		.4byte	.LVL20
 20507 002e 05000000 		.4byte	.LVL21-1
 20508 0032 0100     		.2byte	0x1
 20509 0034 50       		.byte	0x50
 20510 0035 05000000 		.4byte	.LVL21-1
 20511 0039 26000000 		.4byte	.LFE64
 20512 003d 0400     		.2byte	0x4
 20513 003f F3       		.byte	0xf3
 20514 0040 01       		.uleb128 0x1
 20515 0041 50       		.byte	0x50
 20516 0042 9F       		.byte	0x9f
 20517 0043 00000000 		.4byte	0
 20518 0047 00000000 		.4byte	0
 20519              	.LLST2:
 20520 004b 1A000000 		.4byte	.LVL25
 20521 004f 22000000 		.4byte	.LVL27
 20522 0053 0100     		.2byte	0x1
 20523 0055 54       		.byte	0x54
 20524 0056 00000000 		.4byte	0
 20525 005a 00000000 		.4byte	0
 20526              	.LLST3:
 20527 005e 00000000 		.4byte	.LVL28
 20528 0062 0C000000 		.4byte	.LVL29
 20529 0066 0100     		.2byte	0x1
 20530 0068 50       		.byte	0x50
 20531 0069 0C000000 		.4byte	.LVL29
 20532 006d E8000000 		.4byte	.LFE65
 20533 0071 0400     		.2byte	0x4
 20534 0073 F3       		.byte	0xf3
 20535 0074 01       		.uleb128 0x1
 20536 0075 50       		.byte	0x50
 20537 0076 9F       		.byte	0x9f
 20538 0077 00000000 		.4byte	0
 20539 007b 00000000 		.4byte	0
 20540              	.LLST4:
 20541 007f 40000000 		.4byte	.LVL34
 20542 0083 44000000 		.4byte	.LVL35
 20543 0087 0200     		.2byte	0x2
 20544 0089 30       		.byte	0x30
 20545 008a 9F       		.byte	0x9f
 20546 008b 44000000 		.4byte	.LVL35
 20547 008f 52000000 		.4byte	.LVL37
 20548 0093 0100     		.2byte	0x1
 20549 0095 54       		.byte	0x54
 20550 0096 54000000 		.4byte	.LVL38
 20551 009a 78000000 		.4byte	.LVL42
 20552 009e 0100     		.2byte	0x1
ARM GAS  C:\Users\diego\AppData\Local\Temp\ccvEcbYb.s 			page 405


 20553 00a0 54       		.byte	0x54
 20554 00a1 7A000000 		.4byte	.LVL43
 20555 00a5 C2000000 		.4byte	.LVL46
 20556 00a9 0100     		.2byte	0x1
 20557 00ab 54       		.byte	0x54
 20558 00ac CA000000 		.4byte	.LVL47
 20559 00b0 DC000000 		.4byte	.LVL48
 20560 00b4 0100     		.2byte	0x1
 20561 00b6 54       		.byte	0x54
 20562 00b7 00000000 		.4byte	0
 20563 00bb 00000000 		.4byte	0
 20564              	.LLST5:
 20565 00bf 00000000 		.4byte	.LVL49
 20566 00c3 0A000000 		.4byte	.LVL51
 20567 00c7 0100     		.2byte	0x1
 20568 00c9 50       		.byte	0x50
 20569 00ca 0A000000 		.4byte	.LVL51
 20570 00ce E8010000 		.4byte	.LFE66
 20571 00d2 0400     		.2byte	0x4
 20572 00d4 F3       		.byte	0xf3
 20573 00d5 01       		.uleb128 0x1
 20574 00d6 50       		.byte	0x50
 20575 00d7 9F       		.byte	0x9f
 20576 00d8 00000000 		.4byte	0
 20577 00dc 00000000 		.4byte	0
 20578              	.LLST6:
 20579 00e0 06000000 		.4byte	.LVL50
 20580 00e4 22000000 		.4byte	.LVL55
 20581 00e8 0200     		.2byte	0x2
 20582 00ea 30       		.byte	0x30
 20583 00eb 9F       		.byte	0x9f
 20584 00ec 22000000 		.4byte	.LVL55
 20585 00f0 30000000 		.4byte	.LVL57
 20586 00f4 0100     		.2byte	0x1
 20587 00f6 55       		.byte	0x55
 20588 00f7 32000000 		.4byte	.LVL58
 20589 00fb 34000000 		.4byte	.LVL59
 20590 00ff 0100     		.2byte	0x1
 20591 0101 55       		.byte	0x55
 20592 0102 34000000 		.4byte	.LVL59
 20593 0106 36000000 		.4byte	.LVL60
 20594 010a 0200     		.2byte	0x2
 20595 010c 30       		.byte	0x30
 20596 010d 9F       		.byte	0x9f
 20597 010e 36000000 		.4byte	.LVL60
 20598 0112 7C000000 		.4byte	.LVL67
 20599 0116 0100     		.2byte	0x1
 20600 0118 55       		.byte	0x55
 20601 0119 7C000000 		.4byte	.LVL67
 20602 011d 7E000000 		.4byte	.LVL68
 20603 0121 0100     		.2byte	0x1
 20604 0123 53       		.byte	0x53
 20605 0124 80000000 		.4byte	.LVL69
 20606 0128 82000000 		.4byte	.LVL70
 20607 012c 0100     		.2byte	0x1
 20608 012e 53       		.byte	0x53
 20609 012f 82000000 		.4byte	.LVL70
ARM GAS  C:\Users\diego\AppData\Local\Temp\ccvEcbYb.s 			page 406


 20610 0133 84000000 		.4byte	.LVL71
 20611 0137 0100     		.2byte	0x1
 20612 0139 55       		.byte	0x55
 20613 013a 84000000 		.4byte	.LVL71
 20614 013e 96000000 		.4byte	.LVL72
 20615 0142 0100     		.2byte	0x1
 20616 0144 53       		.byte	0x53
 20617 0145 98000000 		.4byte	.LVL73
 20618 0149 B0000000 		.4byte	.LVL74
 20619 014d 0100     		.2byte	0x1
 20620 014f 53       		.byte	0x53
 20621 0150 B2000000 		.4byte	.LVL75
 20622 0154 C4000000 		.4byte	.LVL76
 20623 0158 0100     		.2byte	0x1
 20624 015a 53       		.byte	0x53
 20625 015b C6000000 		.4byte	.LVL77
 20626 015f D8000000 		.4byte	.LVL79
 20627 0163 0100     		.2byte	0x1
 20628 0165 53       		.byte	0x53
 20629 0166 DA000000 		.4byte	.LVL80
 20630 016a F8000000 		.4byte	.LVL84
 20631 016e 0100     		.2byte	0x1
 20632 0170 53       		.byte	0x53
 20633 0171 FA000000 		.4byte	.LVL85
 20634 0175 0C010000 		.4byte	.LVL87
 20635 0179 0100     		.2byte	0x1
 20636 017b 53       		.byte	0x53
 20637 017c 0E010000 		.4byte	.LVL88
 20638 0180 2C010000 		.4byte	.LVL92
 20639 0184 0100     		.2byte	0x1
 20640 0186 53       		.byte	0x53
 20641 0187 2E010000 		.4byte	.LVL93
 20642 018b 40010000 		.4byte	.LVL95
 20643 018f 0100     		.2byte	0x1
 20644 0191 53       		.byte	0x53
 20645 0192 42010000 		.4byte	.LVL96
 20646 0196 60010000 		.4byte	.LVL100
 20647 019a 0100     		.2byte	0x1
 20648 019c 53       		.byte	0x53
 20649 019d 62010000 		.4byte	.LVL101
 20650 01a1 74010000 		.4byte	.LVL102
 20651 01a5 0100     		.2byte	0x1
 20652 01a7 53       		.byte	0x53
 20653 01a8 C8010000 		.4byte	.LVL109
 20654 01ac D0010000 		.4byte	.LVL110
 20655 01b0 0100     		.2byte	0x1
 20656 01b2 55       		.byte	0x55
 20657 01b3 D0010000 		.4byte	.LVL110
 20658 01b7 D6010000 		.4byte	.LVL111
 20659 01bb 0100     		.2byte	0x1
 20660 01bd 53       		.byte	0x53
 20661 01be 00000000 		.4byte	0
 20662 01c2 00000000 		.4byte	0
 20663              	.LLST7:
 20664 01c6 44000000 		.4byte	.LVL63
 20665 01ca 4E000000 		.4byte	.LVL64
 20666 01ce 0200     		.2byte	0x2
ARM GAS  C:\Users\diego\AppData\Local\Temp\ccvEcbYb.s 			page 407


 20667 01d0 40       		.byte	0x40
 20668 01d1 9F       		.byte	0x9f
 20669 01d2 4E000000 		.4byte	.LVL64
 20670 01d6 56000000 		.4byte	.LVL65
 20671 01da 0100     		.2byte	0x1
 20672 01dc 54       		.byte	0x54
 20673 01dd 56000000 		.4byte	.LVL65
 20674 01e1 74000000 		.4byte	.LVL66
 20675 01e5 0100     		.2byte	0x1
 20676 01e7 53       		.byte	0x53
 20677 01e8 C8010000 		.4byte	.LVL109
 20678 01ec D0010000 		.4byte	.LVL110
 20679 01f0 0100     		.2byte	0x1
 20680 01f2 53       		.byte	0x53
 20681 01f3 00000000 		.4byte	0
 20682 01f7 00000000 		.4byte	0
 20683              	.LLST8:
 20684 01fb C6000000 		.4byte	.LVL77
 20685 01ff CA000000 		.4byte	.LVL78
 20686 0203 0200     		.2byte	0x2
 20687 0205 31       		.byte	0x31
 20688 0206 9F       		.byte	0x9f
 20689 0207 CA000000 		.4byte	.LVL78
 20690 020b DC000000 		.4byte	.LVL81
 20691 020f 0100     		.2byte	0x1
 20692 0211 52       		.byte	0x52
 20693 0212 DE000000 		.4byte	.LVL82
 20694 0216 F0000000 		.4byte	.LVL83
 20695 021a 0100     		.2byte	0x1
 20696 021c 52       		.byte	0x52
 20697 021d FA000000 		.4byte	.LVL85
 20698 0221 FE000000 		.4byte	.LVL86
 20699 0225 0200     		.2byte	0x2
 20700 0227 31       		.byte	0x31
 20701 0228 9F       		.byte	0x9f
 20702 0229 FE000000 		.4byte	.LVL86
 20703 022d 10010000 		.4byte	.LVL89
 20704 0231 0100     		.2byte	0x1
 20705 0233 52       		.byte	0x52
 20706 0234 12010000 		.4byte	.LVL90
 20707 0238 24010000 		.4byte	.LVL91
 20708 023c 0100     		.2byte	0x1
 20709 023e 52       		.byte	0x52
 20710 023f 2E010000 		.4byte	.LVL93
 20711 0243 32010000 		.4byte	.LVL94
 20712 0247 0200     		.2byte	0x2
 20713 0249 31       		.byte	0x31
 20714 024a 9F       		.byte	0x9f
 20715 024b 32010000 		.4byte	.LVL94
 20716 024f 44010000 		.4byte	.LVL97
 20717 0253 0100     		.2byte	0x1
 20718 0255 52       		.byte	0x52
 20719 0256 46010000 		.4byte	.LVL98
 20720 025a 58010000 		.4byte	.LVL99
 20721 025e 0100     		.2byte	0x1
 20722 0260 52       		.byte	0x52
 20723 0261 00000000 		.4byte	0
ARM GAS  C:\Users\diego\AppData\Local\Temp\ccvEcbYb.s 			page 408


 20724 0265 00000000 		.4byte	0
 20725              	.LLST9:
 20726 0269 00000000 		.4byte	.LVL112
 20727 026d 0C000000 		.4byte	.LVL113
 20728 0271 0100     		.2byte	0x1
 20729 0273 50       		.byte	0x50
 20730 0274 0C000000 		.4byte	.LVL113
 20731 0278 0C370000 		.4byte	.LFE67
 20732 027c 0400     		.2byte	0x4
 20733 027e F3       		.byte	0xf3
 20734 027f 01       		.uleb128 0x1
 20735 0280 50       		.byte	0x50
 20736 0281 9F       		.byte	0x9f
 20737 0282 00000000 		.4byte	0
 20738 0286 00000000 		.4byte	0
 20739              	.LLST10:
 20740 028a 00000000 		.4byte	.LVL112
 20741 028e 0F000000 		.4byte	.LVL114-1
 20742 0292 0100     		.2byte	0x1
 20743 0294 51       		.byte	0x51
 20744 0295 0F000000 		.4byte	.LVL114-1
 20745 0299 0C370000 		.4byte	.LFE67
 20746 029d 0400     		.2byte	0x4
 20747 029f F3       		.byte	0xf3
 20748 02a0 01       		.uleb128 0x1
 20749 02a1 51       		.byte	0x51
 20750 02a2 9F       		.byte	0x9f
 20751 02a3 00000000 		.4byte	0
 20752 02a7 00000000 		.4byte	0
 20753              	.LLST11:
 20754 02ab 1E000000 		.4byte	.LVL117
 20755 02af 94000000 		.4byte	.LVL118
 20756 02b3 0100     		.2byte	0x1
 20757 02b5 50       		.byte	0x50
 20758 02b6 C0080000 		.4byte	.LVL196
 20759 02ba FC080000 		.4byte	.LVL197
 20760 02be 0100     		.2byte	0x1
 20761 02c0 50       		.byte	0x50
 20762 02c1 64110000 		.4byte	.LVL275
 20763 02c5 A0110000 		.4byte	.LVL276
 20764 02c9 0100     		.2byte	0x1
 20765 02cb 50       		.byte	0x50
 20766 02cc 081A0000 		.4byte	.LVL354
 20767 02d0 521A0000 		.4byte	.LVL355
 20768 02d4 0100     		.2byte	0x1
 20769 02d6 50       		.byte	0x50
 20770 02d7 84240000 		.4byte	.LVL457
 20771 02db C0240000 		.4byte	.LVL458
 20772 02df 0100     		.2byte	0x1
 20773 02e1 50       		.byte	0x50
 20774 02e2 A42D0000 		.4byte	.LVL536
 20775 02e6 E02D0000 		.4byte	.LVL537
 20776 02ea 0100     		.2byte	0x1
 20777 02ec 50       		.byte	0x50
 20778 02ed 4A360000 		.4byte	.LVL615
 20779 02f1 52360000 		.4byte	.LVL616
 20780 02f5 0100     		.2byte	0x1
ARM GAS  C:\Users\diego\AppData\Local\Temp\ccvEcbYb.s 			page 409


 20781 02f7 50       		.byte	0x50
 20782 02f8 74360000 		.4byte	.LVL618
 20783 02fc 76360000 		.4byte	.LVL619
 20784 0300 0100     		.2byte	0x1
 20785 0302 50       		.byte	0x50
 20786 0303 78360000 		.4byte	.LVL620
 20787 0307 7A360000 		.4byte	.LVL621
 20788 030b 0100     		.2byte	0x1
 20789 030d 50       		.byte	0x50
 20790 030e 7C360000 		.4byte	.LVL622
 20791 0312 7E360000 		.4byte	.LVL623
 20792 0316 0100     		.2byte	0x1
 20793 0318 50       		.byte	0x50
 20794 0319 80360000 		.4byte	.LVL624
 20795 031d 82360000 		.4byte	.LVL625
 20796 0321 0100     		.2byte	0x1
 20797 0323 50       		.byte	0x50
 20798 0324 84360000 		.4byte	.LVL626
 20799 0328 86360000 		.4byte	.LVL627
 20800 032c 0100     		.2byte	0x1
 20801 032e 50       		.byte	0x50
 20802 032f 88360000 		.4byte	.LVL628
 20803 0333 8A360000 		.4byte	.LVL629
 20804 0337 0100     		.2byte	0x1
 20805 0339 50       		.byte	0x50
 20806 033a 8C360000 		.4byte	.LVL630
 20807 033e 8E360000 		.4byte	.LVL631
 20808 0342 0100     		.2byte	0x1
 20809 0344 50       		.byte	0x50
 20810 0345 90360000 		.4byte	.LVL632
 20811 0349 92360000 		.4byte	.LVL633
 20812 034d 0100     		.2byte	0x1
 20813 034f 50       		.byte	0x50
 20814 0350 94360000 		.4byte	.LVL634
 20815 0354 96360000 		.4byte	.LVL635
 20816 0358 0100     		.2byte	0x1
 20817 035a 50       		.byte	0x50
 20818 035b 98360000 		.4byte	.LVL636
 20819 035f 9A360000 		.4byte	.LVL637
 20820 0363 0100     		.2byte	0x1
 20821 0365 50       		.byte	0x50
 20822 0366 9C360000 		.4byte	.LVL638
 20823 036a 9E360000 		.4byte	.LVL639
 20824 036e 0100     		.2byte	0x1
 20825 0370 50       		.byte	0x50
 20826 0371 A0360000 		.4byte	.LVL640
 20827 0375 A2360000 		.4byte	.LVL641
 20828 0379 0100     		.2byte	0x1
 20829 037b 50       		.byte	0x50
 20830 037c A4360000 		.4byte	.LVL642
 20831 0380 A6360000 		.4byte	.LVL643
 20832 0384 0100     		.2byte	0x1
 20833 0386 50       		.byte	0x50
 20834 0387 A8360000 		.4byte	.LVL644
 20835 038b AA360000 		.4byte	.LVL645
 20836 038f 0100     		.2byte	0x1
 20837 0391 50       		.byte	0x50
ARM GAS  C:\Users\diego\AppData\Local\Temp\ccvEcbYb.s 			page 410


 20838 0392 AC360000 		.4byte	.LVL646
 20839 0396 AE360000 		.4byte	.LVL647
 20840 039a 0100     		.2byte	0x1
 20841 039c 50       		.byte	0x50
 20842 039d B0360000 		.4byte	.LVL648
 20843 03a1 B2360000 		.4byte	.LVL649
 20844 03a5 0100     		.2byte	0x1
 20845 03a7 50       		.byte	0x50
 20846 03a8 B4360000 		.4byte	.LVL650
 20847 03ac B6360000 		.4byte	.LVL651
 20848 03b0 0100     		.2byte	0x1
 20849 03b2 50       		.byte	0x50
 20850 03b3 B8360000 		.4byte	.LVL652
 20851 03b7 BA360000 		.4byte	.LVL653
 20852 03bb 0100     		.2byte	0x1
 20853 03bd 50       		.byte	0x50
 20854 03be BC360000 		.4byte	.LVL654
 20855 03c2 BE360000 		.4byte	.LVL655
 20856 03c6 0100     		.2byte	0x1
 20857 03c8 50       		.byte	0x50
 20858 03c9 C0360000 		.4byte	.LVL656
 20859 03cd C2360000 		.4byte	.LVL657
 20860 03d1 0100     		.2byte	0x1
 20861 03d3 50       		.byte	0x50
 20862 03d4 C4360000 		.4byte	.LVL658
 20863 03d8 C6360000 		.4byte	.LVL659
 20864 03dc 0100     		.2byte	0x1
 20865 03de 50       		.byte	0x50
 20866 03df C8360000 		.4byte	.LVL660
 20867 03e3 CA360000 		.4byte	.LVL661
 20868 03e7 0100     		.2byte	0x1
 20869 03e9 50       		.byte	0x50
 20870 03ea CC360000 		.4byte	.LVL662
 20871 03ee CE360000 		.4byte	.LVL663
 20872 03f2 0100     		.2byte	0x1
 20873 03f4 50       		.byte	0x50
 20874 03f5 D0360000 		.4byte	.LVL664
 20875 03f9 D2360000 		.4byte	.LVL665
 20876 03fd 0100     		.2byte	0x1
 20877 03ff 50       		.byte	0x50
 20878 0400 00000000 		.4byte	0
 20879 0404 00000000 		.4byte	0
 20880              	.LLST12:
 20881 0408 00000000 		.4byte	.LVL666
 20882 040c 1E040000 		.4byte	.LVL766
 20883 0410 0100     		.2byte	0x1
 20884 0412 50       		.byte	0x50
 20885 0413 1E040000 		.4byte	.LVL766
 20886 0417 68040000 		.4byte	.LVL778
 20887 041b 0400     		.2byte	0x4
 20888 041d F3       		.byte	0xf3
 20889 041e 01       		.uleb128 0x1
 20890 041f 50       		.byte	0x50
 20891 0420 9F       		.byte	0x9f
 20892 0421 68040000 		.4byte	.LVL778
 20893 0425 6C040000 		.4byte	.LVL780
 20894 0429 0100     		.2byte	0x1
ARM GAS  C:\Users\diego\AppData\Local\Temp\ccvEcbYb.s 			page 411


 20895 042b 50       		.byte	0x50
 20896 042c 6C040000 		.4byte	.LVL780
 20897 0430 84040000 		.4byte	.LFE68
 20898 0434 0400     		.2byte	0x4
 20899 0436 F3       		.byte	0xf3
 20900 0437 01       		.uleb128 0x1
 20901 0438 50       		.byte	0x50
 20902 0439 9F       		.byte	0x9f
 20903 043a 00000000 		.4byte	0
 20904 043e 00000000 		.4byte	0
 20905              	.LLST13:
 20906 0442 00000000 		.4byte	.LVL666
 20907 0446 7C030000 		.4byte	.LVL747
 20908 044a 0100     		.2byte	0x1
 20909 044c 51       		.byte	0x51
 20910 044d 7C030000 		.4byte	.LVL747
 20911 0451 16040000 		.4byte	.LVL763
 20912 0455 0400     		.2byte	0x4
 20913 0457 F3       		.byte	0xf3
 20914 0458 01       		.uleb128 0x1
 20915 0459 51       		.byte	0x51
 20916 045a 9F       		.byte	0x9f
 20917 045b 16040000 		.4byte	.LVL763
 20918 045f 18040000 		.4byte	.LVL764
 20919 0463 0100     		.2byte	0x1
 20920 0465 51       		.byte	0x51
 20921 0466 18040000 		.4byte	.LVL764
 20922 046a 68040000 		.4byte	.LVL778
 20923 046e 0400     		.2byte	0x4
 20924 0470 F3       		.byte	0xf3
 20925 0471 01       		.uleb128 0x1
 20926 0472 51       		.byte	0x51
 20927 0473 9F       		.byte	0x9f
 20928 0474 68040000 		.4byte	.LVL778
 20929 0478 6C040000 		.4byte	.LVL780
 20930 047c 0100     		.2byte	0x1
 20931 047e 51       		.byte	0x51
 20932 047f 6C040000 		.4byte	.LVL780
 20933 0483 84040000 		.4byte	.LFE68
 20934 0487 0400     		.2byte	0x4
 20935 0489 F3       		.byte	0xf3
 20936 048a 01       		.uleb128 0x1
 20937 048b 51       		.byte	0x51
 20938 048c 9F       		.byte	0x9f
 20939 048d 00000000 		.4byte	0
 20940 0491 00000000 		.4byte	0
 20941              	.LLST14:
 20942 0495 00000000 		.4byte	.LVL666
 20943 0499 BC030000 		.4byte	.LVL753
 20944 049d 0100     		.2byte	0x1
 20945 049f 52       		.byte	0x52
 20946 04a0 BC030000 		.4byte	.LVL753
 20947 04a4 16040000 		.4byte	.LVL763
 20948 04a8 0400     		.2byte	0x4
 20949 04aa F3       		.byte	0xf3
 20950 04ab 01       		.uleb128 0x1
 20951 04ac 52       		.byte	0x52
ARM GAS  C:\Users\diego\AppData\Local\Temp\ccvEcbYb.s 			page 412


 20952 04ad 9F       		.byte	0x9f
 20953 04ae 16040000 		.4byte	.LVL763
 20954 04b2 18040000 		.4byte	.LVL764
 20955 04b6 0100     		.2byte	0x1
 20956 04b8 52       		.byte	0x52
 20957 04b9 18040000 		.4byte	.LVL764
 20958 04bd 68040000 		.4byte	.LVL778
 20959 04c1 0400     		.2byte	0x4
 20960 04c3 F3       		.byte	0xf3
 20961 04c4 01       		.uleb128 0x1
 20962 04c5 52       		.byte	0x52
 20963 04c6 9F       		.byte	0x9f
 20964 04c7 68040000 		.4byte	.LVL778
 20965 04cb 6C040000 		.4byte	.LVL780
 20966 04cf 0100     		.2byte	0x1
 20967 04d1 52       		.byte	0x52
 20968 04d2 6C040000 		.4byte	.LVL780
 20969 04d6 84040000 		.4byte	.LFE68
 20970 04da 0400     		.2byte	0x4
 20971 04dc F3       		.byte	0xf3
 20972 04dd 01       		.uleb128 0x1
 20973 04de 52       		.byte	0x52
 20974 04df 9F       		.byte	0x9f
 20975 04e0 00000000 		.4byte	0
 20976 04e4 00000000 		.4byte	0
 20977              	.LLST15:
 20978 04e8 00000000 		.4byte	.LVL666
 20979 04ec 64030000 		.4byte	.LVL745
 20980 04f0 0100     		.2byte	0x1
 20981 04f2 53       		.byte	0x53
 20982 04f3 64030000 		.4byte	.LVL745
 20983 04f7 16040000 		.4byte	.LVL763
 20984 04fb 0400     		.2byte	0x4
 20985 04fd F3       		.byte	0xf3
 20986 04fe 01       		.uleb128 0x1
 20987 04ff 53       		.byte	0x53
 20988 0500 9F       		.byte	0x9f
 20989 0501 16040000 		.4byte	.LVL763
 20990 0505 18040000 		.4byte	.LVL764
 20991 0509 0100     		.2byte	0x1
 20992 050b 53       		.byte	0x53
 20993 050c 18040000 		.4byte	.LVL764
 20994 0510 68040000 		.4byte	.LVL778
 20995 0514 0400     		.2byte	0x4
 20996 0516 F3       		.byte	0xf3
 20997 0517 01       		.uleb128 0x1
 20998 0518 53       		.byte	0x53
 20999 0519 9F       		.byte	0x9f
 21000 051a 68040000 		.4byte	.LVL778
 21001 051e 6A040000 		.4byte	.LVL779
 21002 0522 0100     		.2byte	0x1
 21003 0524 53       		.byte	0x53
 21004 0525 6A040000 		.4byte	.LVL779
 21005 0529 84040000 		.4byte	.LFE68
 21006 052d 0400     		.2byte	0x4
 21007 052f F3       		.byte	0xf3
 21008 0530 01       		.uleb128 0x1
ARM GAS  C:\Users\diego\AppData\Local\Temp\ccvEcbYb.s 			page 413


 21009 0531 53       		.byte	0x53
 21010 0532 9F       		.byte	0x9f
 21011 0533 00000000 		.4byte	0
 21012 0537 00000000 		.4byte	0
 21013              	.LLST16:
 21014 053b 66010000 		.4byte	.LVL698
 21015 053f B0010000 		.4byte	.LVL704
 21016 0543 0200     		.2byte	0x2
 21017 0545 3D       		.byte	0x3d
 21018 0546 9F       		.byte	0x9f
 21019 0547 B0010000 		.4byte	.LVL704
 21020 054b B4010000 		.4byte	.LVL705
 21021 054f 0200     		.2byte	0x2
 21022 0551 3C       		.byte	0x3c
 21023 0552 9F       		.byte	0x9f
 21024 0553 B4010000 		.4byte	.LVL705
 21025 0557 B6010000 		.4byte	.LVL706
 21026 055b 0200     		.2byte	0x2
 21027 055d 3D       		.byte	0x3d
 21028 055e 9F       		.byte	0x9f
 21029 055f B6010000 		.4byte	.LVL706
 21030 0563 E0010000 		.4byte	.LVL710
 21031 0567 0100     		.2byte	0x1
 21032 0569 56       		.byte	0x56
 21033 056a 7E020000 		.4byte	.LVL725
 21034 056e 80020000 		.4byte	.LVL726
 21035 0572 0200     		.2byte	0x2
 21036 0574 3E       		.byte	0x3e
 21037 0575 9F       		.byte	0x9f
 21038 0576 80020000 		.4byte	.LVL726
 21039 057a B0020000 		.4byte	.LVL729
 21040 057e 0100     		.2byte	0x1
 21041 0580 56       		.byte	0x56
 21042 0581 5E030000 		.4byte	.LVL744
 21043 0585 12040000 		.4byte	.LVL762
 21044 0589 0200     		.2byte	0x2
 21045 058b 3F       		.byte	0x3f
 21046 058c 9F       		.byte	0x9f
 21047 058d 12040000 		.4byte	.LVL762
 21048 0591 16040000 		.4byte	.LVL763
 21049 0595 0200     		.2byte	0x2
 21050 0597 41       		.byte	0x41
 21051 0598 9F       		.byte	0x9f
 21052 0599 16040000 		.4byte	.LVL763
 21053 059d 18040000 		.4byte	.LVL764
 21054 05a1 0200     		.2byte	0x2
 21055 05a3 3F       		.byte	0x3f
 21056 05a4 9F       		.byte	0x9f
 21057 05a5 1A040000 		.4byte	.LVL765
 21058 05a9 68040000 		.4byte	.LVL778
 21059 05ad 0100     		.2byte	0x1
 21060 05af 56       		.byte	0x56
 21061 05b0 6C040000 		.4byte	.LVL780
 21062 05b4 76040000 		.4byte	.LVL782
 21063 05b8 0100     		.2byte	0x1
 21064 05ba 56       		.byte	0x56
 21065 05bb 00000000 		.4byte	0
ARM GAS  C:\Users\diego\AppData\Local\Temp\ccvEcbYb.s 			page 414


 21066 05bf 00000000 		.4byte	0
 21067              	.LLST17:
 21068 05c3 14000000 		.4byte	.LVL667
 21069 05c7 34000000 		.4byte	.LVL668
 21070 05cb 0200     		.2byte	0x2
 21071 05cd 34       		.byte	0x34
 21072 05ce 9F       		.byte	0x9f
 21073 05cf 34000000 		.4byte	.LVL668
 21074 05d3 94020000 		.4byte	.LVL727
 21075 05d7 0100     		.2byte	0x1
 21076 05d9 5E       		.byte	0x5e
 21077 05da 68040000 		.4byte	.LVL778
 21078 05de 6C040000 		.4byte	.LVL780
 21079 05e2 0100     		.2byte	0x1
 21080 05e4 5E       		.byte	0x5e
 21081 05e5 00000000 		.4byte	0
 21082 05e9 00000000 		.4byte	0
 21083              	.LLST18:
 21084 05ed 58000000 		.4byte	.LVL671
 21085 05f1 5E000000 		.4byte	.LVL672
 21086 05f5 0200     		.2byte	0x2
 21087 05f7 31       		.byte	0x31
 21088 05f8 9F       		.byte	0x9f
 21089 05f9 5E000000 		.4byte	.LVL672
 21090 05fd 7C000000 		.4byte	.LVL677
 21091 0601 0100     		.2byte	0x1
 21092 0603 54       		.byte	0x54
 21093 0604 7E000000 		.4byte	.LVL678
 21094 0608 96000000 		.4byte	.LVL681
 21095 060c 0100     		.2byte	0x1
 21096 060e 54       		.byte	0x54
 21097 060f C4000000 		.4byte	.LVL682
 21098 0613 C8000000 		.4byte	.LVL683
 21099 0617 0200     		.2byte	0x2
 21100 0619 35       		.byte	0x35
 21101 061a 9F       		.byte	0x9f
 21102 061b C8000000 		.4byte	.LVL683
 21103 061f D4000000 		.4byte	.LVL684
 21104 0623 0100     		.2byte	0x1
 21105 0625 54       		.byte	0x54
 21106 0626 D6000000 		.4byte	.LVL685
 21107 062a E6000000 		.4byte	.LVL686
 21108 062e 0100     		.2byte	0x1
 21109 0630 54       		.byte	0x54
 21110 0631 0E010000 		.4byte	.LVL689
 21111 0635 1C010000 		.4byte	.LVL690
 21112 0639 0100     		.2byte	0x1
 21113 063b 54       		.byte	0x54
 21114 063c 1E010000 		.4byte	.LVL691
 21115 0640 24010000 		.4byte	.LVL692
 21116 0644 0100     		.2byte	0x1
 21117 0646 54       		.byte	0x54
 21118 0647 2E010000 		.4byte	.LVL693
 21119 064b 30010000 		.4byte	.LVL694
 21120 064f 0200     		.2byte	0x2
 21121 0651 30       		.byte	0x30
 21122 0652 9F       		.byte	0x9f
ARM GAS  C:\Users\diego\AppData\Local\Temp\ccvEcbYb.s 			page 415


 21123 0653 30010000 		.4byte	.LVL694
 21124 0657 48010000 		.4byte	.LVL695
 21125 065b 0100     		.2byte	0x1
 21126 065d 54       		.byte	0x54
 21127 065e 4A010000 		.4byte	.LVL696
 21128 0662 52010000 		.4byte	.LVL697
 21129 0666 0100     		.2byte	0x1
 21130 0668 54       		.byte	0x54
 21131 0669 78010000 		.4byte	.LVL699
 21132 066d 7A010000 		.4byte	.LVL700
 21133 0671 0200     		.2byte	0x2
 21134 0673 30       		.byte	0x30
 21135 0674 9F       		.byte	0x9f
 21136 0675 7A010000 		.4byte	.LVL700
 21137 0679 92010000 		.4byte	.LVL701
 21138 067d 0100     		.2byte	0x1
 21139 067f 54       		.byte	0x54
 21140 0680 94010000 		.4byte	.LVL702
 21141 0684 9C010000 		.4byte	.LVL703
 21142 0688 0100     		.2byte	0x1
 21143 068a 54       		.byte	0x54
 21144 068b DC010000 		.4byte	.LVL709
 21145 068f E0010000 		.4byte	.LVL710
 21146 0693 0200     		.2byte	0x2
 21147 0695 37       		.byte	0x37
 21148 0696 9F       		.byte	0x9f
 21149 0697 E0010000 		.4byte	.LVL710
 21150 069b EC010000 		.4byte	.LVL711
 21151 069f 0100     		.2byte	0x1
 21152 06a1 54       		.byte	0x54
 21153 06a2 EE010000 		.4byte	.LVL712
 21154 06a6 FE010000 		.4byte	.LVL713
 21155 06aa 0100     		.2byte	0x1
 21156 06ac 54       		.byte	0x54
 21157 06ad 28020000 		.4byte	.LVL716
 21158 06b1 34020000 		.4byte	.LVL717
 21159 06b5 0100     		.2byte	0x1
 21160 06b7 54       		.byte	0x54
 21161 06b8 36020000 		.4byte	.LVL718
 21162 06bc 3C020000 		.4byte	.LVL719
 21163 06c0 0100     		.2byte	0x1
 21164 06c2 54       		.byte	0x54
 21165 06c3 46020000 		.4byte	.LVL720
 21166 06c7 48020000 		.4byte	.LVL721
 21167 06cb 0200     		.2byte	0x2
 21168 06cd 30       		.byte	0x30
 21169 06ce 9F       		.byte	0x9f
 21170 06cf 48020000 		.4byte	.LVL721
 21171 06d3 60020000 		.4byte	.LVL722
 21172 06d7 0100     		.2byte	0x1
 21173 06d9 54       		.byte	0x54
 21174 06da 62020000 		.4byte	.LVL723
 21175 06de 6A020000 		.4byte	.LVL724
 21176 06e2 0100     		.2byte	0x1
 21177 06e4 54       		.byte	0x54
 21178 06e5 AC020000 		.4byte	.LVL728
 21179 06e9 B0020000 		.4byte	.LVL729
ARM GAS  C:\Users\diego\AppData\Local\Temp\ccvEcbYb.s 			page 416


 21180 06ed 0200     		.2byte	0x2
 21181 06ef 35       		.byte	0x35
 21182 06f0 9F       		.byte	0x9f
 21183 06f1 B0020000 		.4byte	.LVL729
 21184 06f5 BC020000 		.4byte	.LVL730
 21185 06f9 0100     		.2byte	0x1
 21186 06fb 54       		.byte	0x54
 21187 06fc BE020000 		.4byte	.LVL731
 21188 0700 D0020000 		.4byte	.LVL732
 21189 0704 0100     		.2byte	0x1
 21190 0706 54       		.byte	0x54
 21191 0707 F8020000 		.4byte	.LVL735
 21192 070b 06030000 		.4byte	.LVL736
 21193 070f 0100     		.2byte	0x1
 21194 0711 54       		.byte	0x54
 21195 0712 08030000 		.4byte	.LVL737
 21196 0716 0E030000 		.4byte	.LVL738
 21197 071a 0100     		.2byte	0x1
 21198 071c 54       		.byte	0x54
 21199 071d 18030000 		.4byte	.LVL739
 21200 0721 28030000 		.4byte	.LVL740
 21201 0725 0200     		.2byte	0x2
 21202 0727 30       		.byte	0x30
 21203 0728 9F       		.byte	0x9f
 21204 0729 28030000 		.4byte	.LVL740
 21205 072d 40030000 		.4byte	.LVL741
 21206 0731 0100     		.2byte	0x1
 21207 0733 54       		.byte	0x54
 21208 0734 42030000 		.4byte	.LVL742
 21209 0738 4A030000 		.4byte	.LVL743
 21210 073c 0100     		.2byte	0x1
 21211 073e 54       		.byte	0x54
 21212 073f 78030000 		.4byte	.LVL746
 21213 0743 7C030000 		.4byte	.LVL747
 21214 0747 0200     		.2byte	0x2
 21215 0749 37       		.byte	0x37
 21216 074a 9F       		.byte	0x9f
 21217 074b 7C030000 		.4byte	.LVL747
 21218 074f 88030000 		.4byte	.LVL748
 21219 0753 0100     		.2byte	0x1
 21220 0755 53       		.byte	0x53
 21221 0756 8A030000 		.4byte	.LVL749
 21222 075a 9A030000 		.4byte	.LVL750
 21223 075e 0100     		.2byte	0x1
 21224 0760 53       		.byte	0x53
 21225 0761 BC030000 		.4byte	.LVL753
 21226 0765 C8030000 		.4byte	.LVL754
 21227 0769 0100     		.2byte	0x1
 21228 076b 53       		.byte	0x53
 21229 076c CA030000 		.4byte	.LVL755
 21230 0770 D0030000 		.4byte	.LVL756
 21231 0774 0100     		.2byte	0x1
 21232 0776 53       		.byte	0x53
 21233 0777 DA030000 		.4byte	.LVL757
 21234 077b DC030000 		.4byte	.LVL758
 21235 077f 0200     		.2byte	0x2
 21236 0781 30       		.byte	0x30
ARM GAS  C:\Users\diego\AppData\Local\Temp\ccvEcbYb.s 			page 417


 21237 0782 9F       		.byte	0x9f
 21238 0783 DC030000 		.4byte	.LVL758
 21239 0787 F4030000 		.4byte	.LVL759
 21240 078b 0100     		.2byte	0x1
 21241 078d 53       		.byte	0x53
 21242 078e F6030000 		.4byte	.LVL760
 21243 0792 FE030000 		.4byte	.LVL761
 21244 0796 0100     		.2byte	0x1
 21245 0798 53       		.byte	0x53
 21246 0799 3E040000 		.4byte	.LVL771
 21247 079d 42040000 		.4byte	.LVL772
 21248 07a1 0200     		.2byte	0x2
 21249 07a3 30       		.byte	0x30
 21250 07a4 9F       		.byte	0x9f
 21251 07a5 42040000 		.4byte	.LVL772
 21252 07a9 50040000 		.4byte	.LVL774
 21253 07ad 0100     		.2byte	0x1
 21254 07af 55       		.byte	0x55
 21255 07b0 52040000 		.4byte	.LVL775
 21256 07b4 68040000 		.4byte	.LVL778
 21257 07b8 0100     		.2byte	0x1
 21258 07ba 55       		.byte	0x55
 21259 07bb 68040000 		.4byte	.LVL778
 21260 07bf 6C040000 		.4byte	.LVL780
 21261 07c3 0100     		.2byte	0x1
 21262 07c5 54       		.byte	0x54
 21263 07c6 74040000 		.4byte	.LVL781
 21264 07ca 76040000 		.4byte	.LVL782
 21265 07ce 0100     		.2byte	0x1
 21266 07d0 55       		.byte	0x55
 21267 07d1 00000000 		.4byte	0
 21268 07d5 00000000 		.4byte	0
 21269              	.LLST19:
 21270 07d9 E6000000 		.4byte	.LVL686
 21271 07dd 00010000 		.4byte	.LVL687
 21272 07e1 0100     		.2byte	0x1
 21273 07e3 54       		.byte	0x54
 21274 07e4 02010000 		.4byte	.LVL688
 21275 07e8 0E010000 		.4byte	.LVL689
 21276 07ec 0100     		.2byte	0x1
 21277 07ee 54       		.byte	0x54
 21278 07ef FE010000 		.4byte	.LVL713
 21279 07f3 18020000 		.4byte	.LVL714
 21280 07f7 0100     		.2byte	0x1
 21281 07f9 54       		.byte	0x54
 21282 07fa 1A020000 		.4byte	.LVL715
 21283 07fe 28020000 		.4byte	.LVL716
 21284 0802 0100     		.2byte	0x1
 21285 0804 54       		.byte	0x54
 21286 0805 D0020000 		.4byte	.LVL732
 21287 0809 EA020000 		.4byte	.LVL733
 21288 080d 0100     		.2byte	0x1
 21289 080f 54       		.byte	0x54
 21290 0810 EC020000 		.4byte	.LVL734
 21291 0814 F8020000 		.4byte	.LVL735
 21292 0818 0100     		.2byte	0x1
 21293 081a 54       		.byte	0x54
ARM GAS  C:\Users\diego\AppData\Local\Temp\ccvEcbYb.s 			page 418


 21294 081b 9A030000 		.4byte	.LVL750
 21295 081f B2030000 		.4byte	.LVL751
 21296 0823 0100     		.2byte	0x1
 21297 0825 53       		.byte	0x53
 21298 0826 B4030000 		.4byte	.LVL752
 21299 082a BC030000 		.4byte	.LVL753
 21300 082e 0100     		.2byte	0x1
 21301 0830 53       		.byte	0x53
 21302 0831 00000000 		.4byte	0
 21303 0835 00000000 		.4byte	0
 21304              	.LLST20:
 21305 0839 14000000 		.4byte	.LVL667
 21306 083d 5E000000 		.4byte	.LVL672
 21307 0841 0200     		.2byte	0x2
 21308 0843 30       		.byte	0x30
 21309 0844 9F       		.byte	0x9f
 21310 0845 5E000000 		.4byte	.LVL672
 21311 0849 62000000 		.4byte	.LVL673
 21312 084d 0100     		.2byte	0x1
 21313 084f 55       		.byte	0x55
 21314 0850 64000000 		.4byte	.LVL674
 21315 0854 72000000 		.4byte	.LVL675
 21316 0858 0100     		.2byte	0x1
 21317 085a 55       		.byte	0x55
 21318 085b 74000000 		.4byte	.LVL676
 21319 085f 88000000 		.4byte	.LVL679
 21320 0863 0100     		.2byte	0x1
 21321 0865 55       		.byte	0x55
 21322 0866 8A000000 		.4byte	.LVL680
 21323 086a C4010000 		.4byte	.LVL707
 21324 086e 0100     		.2byte	0x1
 21325 0870 55       		.byte	0x55
 21326 0871 C6010000 		.4byte	.LVL708
 21327 0875 D0020000 		.4byte	.LVL732
 21328 0879 0100     		.2byte	0x1
 21329 087b 55       		.byte	0x55
 21330 087c 68040000 		.4byte	.LVL778
 21331 0880 6C040000 		.4byte	.LVL780
 21332 0884 0100     		.2byte	0x1
 21333 0886 55       		.byte	0x55
 21334 0887 00000000 		.4byte	0
 21335 088b 00000000 		.4byte	0
 21336              	.LLST21:
 21337 088f 00000000 		.4byte	.LVL783
 21338 0893 CE000000 		.4byte	.LVL784
 21339 0897 0100     		.2byte	0x1
 21340 0899 50       		.byte	0x50
 21341 089a CE000000 		.4byte	.LVL784
 21342 089e C4020000 		.4byte	.LFE69
 21343 08a2 0400     		.2byte	0x4
 21344 08a4 F3       		.byte	0xf3
 21345 08a5 01       		.uleb128 0x1
 21346 08a6 50       		.byte	0x50
 21347 08a7 9F       		.byte	0x9f
 21348 08a8 00000000 		.4byte	0
 21349 08ac 00000000 		.4byte	0
 21350              	.LLST22:
ARM GAS  C:\Users\diego\AppData\Local\Temp\ccvEcbYb.s 			page 419


 21351 08b0 62010000 		.4byte	.LVL785
 21352 08b4 38020000 		.4byte	.LVL786
 21353 08b8 0200     		.2byte	0x2
 21354 08ba 3C       		.byte	0x3c
 21355 08bb 9F       		.byte	0x9f
 21356 08bc 38020000 		.4byte	.LVL786
 21357 08c0 3C020000 		.4byte	.LVL787
 21358 08c4 0200     		.2byte	0x2
 21359 08c6 3E       		.byte	0x3e
 21360 08c7 9F       		.byte	0x9f
 21361 08c8 3C020000 		.4byte	.LVL787
 21362 08cc 3E020000 		.4byte	.LVL788
 21363 08d0 0200     		.2byte	0x2
 21364 08d2 3C       		.byte	0x3c
 21365 08d3 9F       		.byte	0x9f
 21366 08d4 3E020000 		.4byte	.LVL788
 21367 08d8 A8020000 		.4byte	.LVL797
 21368 08dc 0100     		.2byte	0x1
 21369 08de 55       		.byte	0x55
 21370 08df 00000000 		.4byte	0
 21371 08e3 00000000 		.4byte	0
 21372              	.LLST23:
 21373 08e7 00000000 		.4byte	.LVL798
 21374 08eb 07000000 		.4byte	.LVL799-1
 21375 08ef 0100     		.2byte	0x1
 21376 08f1 50       		.byte	0x50
 21377 08f2 07000000 		.4byte	.LVL799-1
 21378 08f6 5C000000 		.4byte	.LFE70
 21379 08fa 0400     		.2byte	0x4
 21380 08fc F3       		.byte	0xf3
 21381 08fd 01       		.uleb128 0x1
 21382 08fe 50       		.byte	0x50
 21383 08ff 9F       		.byte	0x9f
 21384 0900 00000000 		.4byte	0
 21385 0904 00000000 		.4byte	0
 21386              	.LLST24:
 21387 0908 2A000000 		.4byte	.LVL804
 21388 090c 4E000000 		.4byte	.LVL805
 21389 0910 0100     		.2byte	0x1
 21390 0912 50       		.byte	0x50
 21391 0913 00000000 		.4byte	0
 21392 0917 00000000 		.4byte	0
 21393              		.section	.debug_aranges,"",%progbits
 21394 0000 54000000 		.4byte	0x54
 21395 0004 0200     		.2byte	0x2
 21396 0006 00000000 		.4byte	.Ldebug_info0
 21397 000a 04       		.byte	0x4
 21398 000b 00       		.byte	0
 21399 000c 0000     		.2byte	0
 21400 000e 0000     		.2byte	0
 21401 0010 00000000 		.4byte	.LFB63
 21402 0014 14010000 		.4byte	.LFE63-.LFB63
 21403 0018 00000000 		.4byte	.LFB64
 21404 001c 26000000 		.4byte	.LFE64-.LFB64
 21405 0020 00000000 		.4byte	.LFB65
 21406 0024 E8000000 		.4byte	.LFE65-.LFB65
 21407 0028 00000000 		.4byte	.LFB66
ARM GAS  C:\Users\diego\AppData\Local\Temp\ccvEcbYb.s 			page 420


 21408 002c E8010000 		.4byte	.LFE66-.LFB66
 21409 0030 00000000 		.4byte	.LFB67
 21410 0034 0C370000 		.4byte	.LFE67-.LFB67
 21411 0038 00000000 		.4byte	.LFB68
 21412 003c 84040000 		.4byte	.LFE68-.LFB68
 21413 0040 00000000 		.4byte	.LFB69
 21414 0044 C4020000 		.4byte	.LFE69-.LFB69
 21415 0048 00000000 		.4byte	.LFB70
 21416 004c 5C000000 		.4byte	.LFE70-.LFB70
 21417 0050 00000000 		.4byte	0
 21418 0054 00000000 		.4byte	0
 21419              		.section	.debug_ranges,"",%progbits
 21420              	.Ldebug_ranges0:
 21421 0000 00000000 		.4byte	.LFB63
 21422 0004 14010000 		.4byte	.LFE63
 21423 0008 00000000 		.4byte	.LFB64
 21424 000c 26000000 		.4byte	.LFE64
 21425 0010 00000000 		.4byte	.LFB65
 21426 0014 E8000000 		.4byte	.LFE65
 21427 0018 00000000 		.4byte	.LFB66
 21428 001c E8010000 		.4byte	.LFE66
 21429 0020 00000000 		.4byte	.LFB67
 21430 0024 0C370000 		.4byte	.LFE67
 21431 0028 00000000 		.4byte	.LFB68
 21432 002c 84040000 		.4byte	.LFE68
 21433 0030 00000000 		.4byte	.LFB69
 21434 0034 C4020000 		.4byte	.LFE69
 21435 0038 00000000 		.4byte	.LFB70
 21436 003c 5C000000 		.4byte	.LFE70
 21437 0040 00000000 		.4byte	0
 21438 0044 00000000 		.4byte	0
 21439              		.section	.debug_line,"",%progbits
 21440              	.Ldebug_line0:
 21441 0000 33180000 		.section	.debug_str,"MS",%progbits,1
 21441      02009101 
 21441      00000201 
 21441      FB0E0D00 
 21441      01010101 
 21442              	.LASF26:
 21443 0000 70617373 		.ascii	"password\000"
 21443      776F7264 
 21443      00
 21444              	.LASF68:
 21445 0009 666C756A 		.ascii	"flujo_LCD2\000"
 21445      6F5F4C43 
 21445      443200
 21446              	.LASF31:
 21447 0014 66756E63 		.ascii	"funcion\000"
 21447      696F6E00 
 21448              	.LASF70:
 21449 001c 666C756A 		.ascii	"flujo_LCD4\000"
 21449      6F5F4C43 
 21449      443400
 21450              	.LASF76:
 21451 0027 76657273 		.ascii	"versurt\000"
 21451      75727400 
 21452              	.LASF28:
ARM GAS  C:\Users\diego\AppData\Local\Temp\ccvEcbYb.s 			page 421


 21453 002f 62756666 		.ascii	"buffer\000"
 21453      657200
 21454              	.LASF8:
 21455 0036 756E7369 		.ascii	"unsigned int\000"
 21455      676E6564 
 21455      20696E74 
 21455      00
 21456              	.LASF108:
 21457 0043 636F7069 		.ascii	"copia_recibo2\000"
 21457      615F7265 
 21457      6369626F 
 21457      3200
 21458              	.LASF9:
 21459 0051 5F5F696E 		.ascii	"__int32_t\000"
 21459      7433325F 
 21459      7400
 21460              	.LASF24:
 21461 005b 706F7376 		.ascii	"posventa\000"
 21461      656E7461 
 21461      00
 21462              	.LASF96:
 21463 0064 7465636C 		.ascii	"teclado2\000"
 21463      61646F32 
 21463      00
 21464              	.LASF141:
 21465 006d 67726164 		.ascii	"grado2\000"
 21465      6F3200
 21466              	.LASF142:
 21467 0074 67726164 		.ascii	"grado3\000"
 21467      6F3300
 21468              	.LASF143:
 21469 007b 67726164 		.ascii	"grado4\000"
 21469      6F3400
 21470              	.LASF139:
 21471 0082 6D6F6475 		.ascii	"modulo\000"
 21471      6C6F00
 21472              	.LASF163:
 21473 0089 433A5C55 		.ascii	"C:\\Users\\diego\\Documents\\Insepet\\Prime-GRP700\\"
 21473      73657273 
 21473      5C646965 
 21473      676F5C44 
 21473      6F63756D 
 21474 00b7 576F726B 		.ascii	"Workspace01\\PGRP700.cydsn\000"
 21474      73706163 
 21474      6530315C 
 21474      50475250 
 21474      3730302E 
 21475              	.LASF81:
 21476 00d1 70726F64 		.ascii	"producto1b\000"
 21476      7563746F 
 21476      316200
 21477              	.LASF85:
 21478 00dc 70726F64 		.ascii	"producto1c\000"
 21478      7563746F 
 21478      316300
 21479              	.LASF140:
 21480 00e7 67726164 		.ascii	"grado1\000"
ARM GAS  C:\Users\diego\AppData\Local\Temp\ccvEcbYb.s 			page 422


 21480      6F3100
 21481              	.LASF111:
 21482 00ee 70726F64 		.ascii	"producto1n\000"
 21482      7563746F 
 21482      316E00
 21483              	.LASF19:
 21484 00f9 636F6D61 		.ascii	"comando\000"
 21484      6E646F00 
 21485              	.LASF62:
 21486 0101 64656369 		.ascii	"decimal\000"
 21486      6D616C00 
 21487              	.LASF124:
 21488 0109 65737461 		.ascii	"estado_lcd1\000"
 21488      646F5F6C 
 21488      63643100 
 21489              	.LASF125:
 21490 0115 65737461 		.ascii	"estado_lcd2\000"
 21490      646F5F6C 
 21490      63643200 
 21491              	.LASF155:
 21492 0121 77726974 		.ascii	"write_eeprom\000"
 21492      655F6565 
 21492      70726F6D 
 21492      00
 21493              	.LASF150:
 21494 012e 6D736E5F 		.ascii	"msn_totalcero\000"
 21494      746F7461 
 21494      6C636572 
 21494      6F00
 21495              	.LASF41:
 21496 013c 686F7261 		.ascii	"hora\000"
 21496      00
 21497              	.LASF72:
 21498 0141 7465636C 		.ascii	"teclas1\000"
 21498      61733100 
 21499              	.LASF73:
 21500 0149 7465636C 		.ascii	"teclas2\000"
 21500      61733200 
 21501              	.LASF153:
 21502 0151 53757274 		.ascii	"Surtidor_GetRxBufferSize\000"
 21502      69646F72 
 21502      5F476574 
 21502      52784275 
 21502      66666572 
 21503              	.LASF47:
 21504 016a 7464696E 		.ascii	"tdinero\000"
 21504      65726F00 
 21505              	.LASF42:
 21506 0172 706F7369 		.ascii	"posicion\000"
 21506      63696F6E 
 21506      00
 21507              	.LASF145:
 21508 017b 7276656E 		.ascii	"rventa2\000"
 21508      74613200 
 21509              	.LASF101:
 21510 0183 64656369 		.ascii	"decimalD\000"
 21510      6D616C44 
ARM GAS  C:\Users\diego\AppData\Local\Temp\ccvEcbYb.s 			page 423


 21510      00
 21511              	.LASF37:
 21512 018c 64697265 		.ascii	"direccion\000"
 21512      6363696F 
 21512      6E00
 21513              	.LASF82:
 21514 0196 70726F64 		.ascii	"producto2b\000"
 21514      7563746F 
 21514      326200
 21515              	.LASF86:
 21516 01a1 70726F64 		.ascii	"producto2c\000"
 21516      7563746F 
 21516      326300
 21517              	.LASF90:
 21518 01ac 70726F64 		.ascii	"producto2d\000"
 21518      7563746F 
 21518      326400
 21519              	.LASF69:
 21520 01b7 666C756A 		.ascii	"flujo_LCD3\000"
 21520      6F5F4C43 
 21520      443300
 21521              	.LASF20:
 21522 01c2 70726573 		.ascii	"preset\000"
 21522      657400
 21523              	.LASF94:
 21524 01c9 72657375 		.ascii	"resultado\000"
 21524      6C746164 
 21524      6F00
 21525              	.LASF112:
 21526 01d3 70726F64 		.ascii	"producto2n\000"
 21526      7563746F 
 21526      326E00
 21527              	.LASF114:
 21528 01de 70726F64 		.ascii	"producto4n\000"
 21528      7563746F 
 21528      346E00
 21529              	.LASF14:
 21530 01e9 666C6F61 		.ascii	"float\000"
 21530      7400
 21531              	.LASF148:
 21532 01ef 6D736E5F 		.ascii	"msn_lecaan\000"
 21532      6C656361 
 21532      616E00
 21533              	.LASF93:
 21534 01fa 62756666 		.ascii	"buffer_i2c\000"
 21534      65725F69 
 21534      326300
 21535              	.LASF160:
 21536 0205 6F706572 		.ascii	"operacion\000"
 21536      6163696F 
 21536      6E00
 21537              	.LASF38:
 21538 020f 6C656D61 		.ascii	"lema1\000"
 21538      3100
 21539              	.LASF39:
 21540 0215 6C656D61 		.ascii	"lema2\000"
 21540      3200
ARM GAS  C:\Users\diego\AppData\Local\Temp\ccvEcbYb.s 			page 424


 21541              	.LASF130:
 21542 021b 76656E74 		.ascii	"venta_activa2\000"
 21542      615F6163 
 21542      74697661 
 21542      3200
 21543              	.LASF129:
 21544 0229 76656E74 		.ascii	"venta_activa3\000"
 21544      615F6163 
 21544      74697661 
 21544      3300
 21545              	.LASF131:
 21546 0237 76656E74 		.ascii	"venta_activa4\000"
 21546      615F6163 
 21546      74697661 
 21546      3400
 21547              	.LASF7:
 21548 0245 6C6F6E67 		.ascii	"long long unsigned int\000"
 21548      206C6F6E 
 21548      6720756E 
 21548      7369676E 
 21548      65642069 
 21549              	.LASF95:
 21550 025c 7465636C 		.ascii	"teclado\000"
 21550      61646F00 
 21551              	.LASF22:
 21552 0264 6375656E 		.ascii	"cuenta\000"
 21552      746100
 21553              	.LASF83:
 21554 026b 70726F64 		.ascii	"producto3b\000"
 21554      7563746F 
 21554      336200
 21555              	.LASF87:
 21556 0276 70726F64 		.ascii	"producto3c\000"
 21556      7563746F 
 21556      336300
 21557              	.LASF91:
 21558 0281 70726F64 		.ascii	"producto3d\000"
 21558      7563746F 
 21558      336400
 21559              	.LASF128:
 21560 028c 76656E74 		.ascii	"venta_activa\000"
 21560      615F6163 
 21560      74697661 
 21560      00
 21561              	.LASF126:
 21562 0299 73656C65 		.ascii	"seleccion_pos\000"
 21562      6363696F 
 21562      6E5F706F 
 21562      7300
 21563              	.LASF146:
 21564 02a7 6D736E5F 		.ascii	"msn_tc\000"
 21564      746300
 21565              	.LASF113:
 21566 02ae 70726F64 		.ascii	"producto3n\000"
 21566      7563746F 
 21566      336E00
 21567              	.LASF65:
ARM GAS  C:\Users\diego\AppData\Local\Temp\ccvEcbYb.s 			page 425


 21568 02b9 53757274 		.ascii	"Surtidor_rxBuffer\000"
 21568      69646F72 
 21568      5F727842 
 21568      75666665 
 21568      7200
 21569              	.LASF23:
 21570 02cb 706C6163 		.ascii	"placa\000"
 21570      6100
 21571              	.LASF58:
 21572 02d1 73757374 		.ascii	"sustraendo\000"
 21572      7261656E 
 21572      646F00
 21573              	.LASF127:
 21574 02dc 73656C65 		.ascii	"seleccion_pos2\000"
 21574      6363696F 
 21574      6E5F706F 
 21574      733200
 21575              	.LASF116:
 21576 02eb 6E5F636F 		.ascii	"n_copias\000"
 21576      70696173 
 21576      00
 21577              	.LASF121:
 21578 02f4 666C756A 		.ascii	"flujo_pos2\000"
 21578      6F5F706F 
 21578      733200
 21579              	.LASF122:
 21580 02ff 666C756A 		.ascii	"flujo_pos3\000"
 21580      6F5F706F 
 21580      733300
 21581              	.LASF123:
 21582 030a 666C756A 		.ascii	"flujo_pos4\000"
 21582      6F5F706F 
 21582      733400
 21583              	.LASF48:
 21584 0315 7665725F 		.ascii	"ver_pos\000"
 21584      706F7300 
 21585              	.LASF45:
 21586 031d 766F6C75 		.ascii	"volumen\000"
 21586      6D656E00 
 21587              	.LASF53:
 21588 0325 76656E74 		.ascii	"venta\000"
 21588      6100
 21589              	.LASF36:
 21590 032b 74656C65 		.ascii	"telefono\000"
 21590      666F6E6F 
 21590      00
 21591              	.LASF84:
 21592 0334 70726F64 		.ascii	"producto4b\000"
 21592      7563746F 
 21592      346200
 21593              	.LASF88:
 21594 033f 70726F64 		.ascii	"producto4c\000"
 21594      7563746F 
 21594      346300
 21595              	.LASF92:
 21596 034a 70726F64 		.ascii	"producto4d\000"
 21596      7563746F 
ARM GAS  C:\Users\diego\AppData\Local\Temp\ccvEcbYb.s 			page 426


 21596      346400
 21597              	.LASF109:
 21598 0355 69645F76 		.ascii	"id_venta\000"
 21598      656E7461 
 21598      00
 21599              	.LASF46:
 21600 035e 74766F6C 		.ascii	"tvolumen\000"
 21600      756D656E 
 21600      00
 21601              	.LASF147:
 21602 0367 6D736E5F 		.ascii	"msn_lecact\000"
 21602      6C656361 
 21602      637400
 21603              	.LASF159:
 21604 0372 7072696E 		.ascii	"print_totales\000"
 21604      745F746F 
 21604      74616C65 
 21604      7300
 21605              	.LASF89:
 21606 0380 70726F64 		.ascii	"producto1d\000"
 21606      7563746F 
 21606      316400
 21607              	.LASF52:
 21608 038b 636F6D61 		.ascii	"comand_exten\000"
 21608      6E645F65 
 21608      7874656E 
 21608      00
 21609              	.LASF102:
 21610 0398 66656368 		.ascii	"fecha_corte\000"
 21610      615F636F 
 21610      72746500 
 21611              	.LASF16:
 21612 03a4 63686172 		.ascii	"char\000"
 21612      00
 21613              	.LASF56:
 21614 03a9 636F7274 		.ascii	"corte\000"
 21614      6500
 21615              	.LASF120:
 21616 03af 666C756A 		.ascii	"flujo_pos\000"
 21616      6F5F706F 
 21616      7300
 21617              	.LASF152:
 21618 03b9 43794465 		.ascii	"CyDelay\000"
 21618      6C617900 
 21619              	.LASF12:
 21620 03c1 75696E74 		.ascii	"uint16\000"
 21620      313600
 21621              	.LASF149:
 21622 03c8 6D736E5F 		.ascii	"msn_tventas\000"
 21622      7476656E 
 21622      74617300 
 21623              	.LASF105:
 21624 03d4 7072696E 		.ascii	"print1\000"
 21624      743100
 21625              	.LASF106:
 21626 03db 7072696E 		.ascii	"print2\000"
 21626      743200
ARM GAS  C:\Users\diego\AppData\Local\Temp\ccvEcbYb.s 			page 427


 21627              	.LASF27:
 21628 03e2 7475726E 		.ascii	"turno\000"
 21628      6F00
 21629              	.LASF164:
 21630 03e8 53757274 		.ascii	"Surtidor_ClearRxBuffer\000"
 21630      69646F72 
 21630      5F436C65 
 21630      61725278 
 21630      42756666 
 21631              	.LASF32:
 21632 03ff 746F7461 		.ascii	"totales\000"
 21632      6C657300 
 21633              	.LASF135:
 21634 0407 42756666 		.ascii	"Buffer_LCD2\000"
 21634      65725F4C 
 21634      43443200 
 21635              	.LASF6:
 21636 0413 6C6F6E67 		.ascii	"long long int\000"
 21636      206C6F6E 
 21636      6720696E 
 21636      7400
 21637              	.LASF43:
 21638 0421 70726F64 		.ascii	"producto\000"
 21638      7563746F 
 21638      00
 21639              	.LASF35:
 21640 042a 636F6E66 		.ascii	"configppu\000"
 21640      69677070 
 21640      7500
 21641              	.LASF63:
 21642 0434 63616D62 		.ascii	"cambiar_precio\000"
 21642      6961725F 
 21642      70726563 
 21642      696F00
 21643              	.LASF25:
 21644 0443 63656475 		.ascii	"cedula\000"
 21644      6C6100
 21645              	.LASF154:
 21646 044a 53757274 		.ascii	"Surtidor_ReadRxData\000"
 21646      69646F72 
 21646      5F526561 
 21646      64527844 
 21646      61746100 
 21647              	.LASF110:
 21648 045e 6E6F6D62 		.ascii	"nombreproducto\000"
 21648      72657072 
 21648      6F647563 
 21648      746F00
 21649              	.LASF18:
 21650 046d 73697A65 		.ascii	"size\000"
 21650      00
 21651              	.LASF13:
 21652 0472 75696E74 		.ascii	"uint32\000"
 21652      333200
 21653              	.LASF132:
 21654 0479 69645F63 		.ascii	"id_corte\000"
 21654      6F727465 
ARM GAS  C:\Users\diego\AppData\Local\Temp\ccvEcbYb.s 			page 428


 21654      00
 21655              	.LASF133:
 21656 0482 6E6F5F76 		.ascii	"no_venta\000"
 21656      656E7461 
 21656      00
 21657              	.LASF33:
 21658 048b 72656369 		.ascii	"recibo\000"
 21658      626F00
 21659              	.LASF44:
 21660 0492 64696E65 		.ascii	"dinero\000"
 21660      726F00
 21661              	.LASF134:
 21662 0499 42756666 		.ascii	"Buffer_LCD1\000"
 21662      65725F4C 
 21662      43443100 
 21663              	.LASF29:
 21664 04a5 65737461 		.ascii	"estado\000"
 21664      646F00
 21665              	.LASF136:
 21666 04ac 42756666 		.ascii	"Buffer_LCD3\000"
 21666      65725F4C 
 21666      43443300 
 21667              	.LASF137:
 21668 04b8 42756666 		.ascii	"Buffer_LCD4\000"
 21668      65725F4C 
 21668      43443400 
 21669              	.LASF158:
 21670 04c4 6C656572 		.ascii	"leer_eeprom\000"
 21670      5F656570 
 21670      726F6D00 
 21671              	.LASF119:
 21672 04d0 696D6167 		.ascii	"imagen\000"
 21672      656E00
 21673              	.LASF97:
 21674 04d7 70707578 		.ascii	"ppux10\000"
 21674      313000
 21675              	.LASF34:
 21676 04de 6E6F6D62 		.ascii	"nombre\000"
 21676      726500
 21677              	.LASF104:
 21678 04e5 6372635F 		.ascii	"crc_total\000"
 21678      746F7461 
 21678      6C00
 21679              	.LASF67:
 21680 04ef 666C756A 		.ascii	"flujo_LCD\000"
 21680      6F5F4C43 
 21680      4400
 21681              	.LASF115:
 21682 04f9 615F636F 		.ascii	"a_copias\000"
 21682      70696173 
 21682      00
 21683              	.LASF103:
 21684 0502 706F735F 		.ascii	"pos_ibutton\000"
 21684      69627574 
 21684      746F6E00 
 21685              	.LASF2:
 21686 050e 73686F72 		.ascii	"short int\000"
ARM GAS  C:\Users\diego\AppData\Local\Temp\ccvEcbYb.s 			page 429


 21686      7420696E 
 21686      7400
 21687              	.LASF4:
 21688 0518 6C6F6E67 		.ascii	"long int\000"
 21688      20696E74 
 21688      00
 21689              	.LASF107:
 21690 0521 636F7069 		.ascii	"copia_recibo\000"
 21690      615F7265 
 21690      6369626F 
 21690      00
 21691              	.LASF66:
 21692 052e 49544D5F 		.ascii	"ITM_RxBuffer\000"
 21692      52784275 
 21692      66666572 
 21692      00
 21693              	.LASF55:
 21694 053b 6765745F 		.ascii	"get_totales\000"
 21694      746F7461 
 21694      6C657300 
 21695              	.LASF162:
 21696 0547 2E5C7072 		.ascii	".\\protocolo.c\000"
 21696      6F746F63 
 21696      6F6C6F2E 
 21696      6300
 21697              	.LASF74:
 21698 0555 636F6D61 		.ascii	"comas1\000"
 21698      733100
 21699              	.LASF75:
 21700 055c 636F6D61 		.ascii	"comas2\000"
 21700      733200
 21701              	.LASF61:
 21702 0563 74656D70 		.ascii	"temp\000"
 21702      00
 21703              	.LASF77:
 21704 0568 70726F64 		.ascii	"producto1\000"
 21704      7563746F 
 21704      3100
 21705              	.LASF78:
 21706 0572 70726F64 		.ascii	"producto2\000"
 21706      7563746F 
 21706      3200
 21707              	.LASF79:
 21708 057c 70726F64 		.ascii	"producto3\000"
 21708      7563746F 
 21708      3300
 21709              	.LASF80:
 21710 0586 70726F64 		.ascii	"producto4\000"
 21710      7563746F 
 21710      3400
 21711              	.LASF138:
 21712 0590 65737461 		.ascii	"estado_0\000"
 21712      646F5F30 
 21712      00
 21713              	.LASF50:
 21714 0599 65737461 		.ascii	"estado_ex\000"
 21714      646F5F65 
ARM GAS  C:\Users\diego\AppData\Local\Temp\ccvEcbYb.s 			page 430


 21714      7800
 21715              	.LASF71:
 21716 05a3 636F6E74 		.ascii	"cont1\000"
 21716      3100
 21717              	.LASF59:
 21718 05a9 70726F67 		.ascii	"programar\000"
 21718      72616D61 
 21718      7200
 21719              	.LASF17:
 21720 05b3 73697A65 		.ascii	"sizetype\000"
 21720      74797065 
 21720      00
 21721              	.LASF5:
 21722 05bc 6C6F6E67 		.ascii	"long unsigned int\000"
 21722      20756E73 
 21722      69676E65 
 21722      6420696E 
 21722      7400
 21723              	.LASF54:
 21724 05ce 72785F76 		.ascii	"rx_venta\000"
 21724      656E7461 
 21724      00
 21725              	.LASF98:
 21726 05d7 62616E64 		.ascii	"bandera\000"
 21726      65726100 
 21727              	.LASF165:
 21728 05df 7072696E 		.ascii	"print_valor\000"
 21728      745F7661 
 21728      6C6F7200 
 21729              	.LASF10:
 21730 05eb 696E7433 		.ascii	"int32_t\000"
 21730      325F7400 
 21731              	.LASF118:
 21732 05f3 6E6F5F69 		.ascii	"no_imprime2\000"
 21732      6D707269 
 21732      6D653200 
 21733              	.LASF117:
 21734 05ff 6E6F5F69 		.ascii	"no_imprime\000"
 21734      6D707269 
 21734      6D6500
 21735              	.LASF1:
 21736 060a 756E7369 		.ascii	"unsigned char\000"
 21736      676E6564 
 21736      20636861 
 21736      7200
 21737              	.LASF161:
 21738 0618 474E5520 		.ascii	"GNU C 4.9.3 20150303 (release) [ARM/embedded-4_9-br"
 21738      4320342E 
 21738      392E3320 
 21738      32303135 
 21738      30333033 
 21739 064b 616E6368 		.ascii	"anch revision 221220] -mcpu=cortex-m3 -mthumb -g -O"
 21739      20726576 
 21739      6973696F 
 21739      6E203232 
 21739      31323230 
 21740 067e 67202D66 		.ascii	"g -ffunction-sections -ffat-lto-objects\000"
ARM GAS  C:\Users\diego\AppData\Local\Temp\ccvEcbYb.s 			page 431


 21740      66756E63 
 21740      74696F6E 
 21740      2D736563 
 21740      74696F6E 
 21741              	.LASF49:
 21742 06a6 6765745F 		.ascii	"get_estado\000"
 21742      65737461 
 21742      646F00
 21743              	.LASF40:
 21744 06b1 66656368 		.ascii	"fecha\000"
 21744      6100
 21745              	.LASF64:
 21746 06b7 61646472 		.ascii	"addr\000"
 21746      00
 21747              	.LASF0:
 21748 06bc 7369676E 		.ascii	"signed char\000"
 21748      65642063 
 21748      68617200 
 21749              	.LASF21:
 21750 06c8 76616C6F 		.ascii	"valor\000"
 21750      7200
 21751              	.LASF3:
 21752 06ce 73686F72 		.ascii	"short unsigned int\000"
 21752      7420756E 
 21752      7369676E 
 21752      65642069 
 21752      6E7400
 21753              	.LASF57:
 21754 06e1 6D696E75 		.ascii	"minuendo\000"
 21754      656E646F 
 21754      00
 21755              	.LASF151:
 21756 06ea 53757274 		.ascii	"Surtidor_PutChar\000"
 21756      69646F72 
 21756      5F507574 
 21756      43686172 
 21756      00
 21757              	.LASF100:
 21758 06fb 64656369 		.ascii	"decimalV\000"
 21758      6D616C56 
 21758      00
 21759              	.LASF157:
 21760 0704 7072696E 		.ascii	"print_totalesac\000"
 21760      745F746F 
 21760      74616C65 
 21760      73616300 
 21761              	.LASF11:
 21762 0714 75696E74 		.ascii	"uint8\000"
 21762      3800
 21763              	.LASF15:
 21764 071a 646F7562 		.ascii	"double\000"
 21764      6C6500
 21765              	.LASF51:
 21766 0721 72785F65 		.ascii	"rx_extend\000"
 21766      7874656E 
 21766      6400
 21767              	.LASF99:
ARM GAS  C:\Users\diego\AppData\Local\Temp\ccvEcbYb.s 			page 432


 21768 072b 7469706F 		.ascii	"tipo_imp\000"
 21768      5F696D70 
 21768      00
 21769              	.LASF30:
 21770 0734 6D616E67 		.ascii	"manguera\000"
 21770      75657261 
 21770      00
 21771              	.LASF144:
 21772 073d 7276656E 		.ascii	"rventa\000"
 21772      746100
 21773              	.LASF60:
 21774 0744 67726164 		.ascii	"grado\000"
 21774      6F00
 21775              	.LASF156:
 21776 074a 77726974 		.ascii	"write_psoc1\000"
 21776      655F7073 
 21776      6F633100 
 21777              		.ident	"GCC: (GNU Tools for ARM Embedded Processors) 4.9.3 20150303 (release) [ARM/embedded-4_9-br
