ARM GAS  C:\Users\diego\AppData\Local\Temp\cckx56kg.s 			page 1


   1              		.syntax unified
   2              		.cpu cortex-m3
   3              		.fpu softvfp
   4              		.eabi_attribute 20, 1
   5              		.eabi_attribute 21, 1
   6              		.eabi_attribute 23, 3
   7              		.eabi_attribute 24, 1
   8              		.eabi_attribute 25, 1
   9              		.eabi_attribute 26, 1
  10              		.eabi_attribute 30, 1
  11              		.eabi_attribute 34, 1
  12              		.eabi_attribute 18, 4
  13              		.thumb
  14              		.file	"protocolo.c"
  15              		.text
  16              	.Ltext0:
  17              		.cfi_sections	.debug_frame
  18              		.section	.text.ver_pos,"ax",%progbits
  19              		.align	2
  20              		.global	ver_pos
  21              		.thumb
  22              		.thumb_func
  23              		.type	ver_pos, %function
  24              	ver_pos:
  25              	.LFB63:
  26              		.file 1 ".\\protocolo.c"
   1:.\protocolo.c **** /*
   2:.\protocolo.c **** ***************************************************************************************************
   3:.\protocolo.c **** *                                           GRP550/700 CODE
   4:.\protocolo.c **** *
   5:.\protocolo.c **** *                             (c) Copyright 2013; Sistemas Insepet LTDA
   6:.\protocolo.c **** *
   7:.\protocolo.c **** *               All rights reserved.  Protected by international copyright laws.
   8:.\protocolo.c **** *               Knowledge of the source code may NOT be used to develop a similar product.
   9:.\protocolo.c **** *               Please help us continue to provide the Embedded community with the finest
  10:.\protocolo.c **** *               software available.  Your honesty is greatly appreciated.
  11:.\protocolo.c **** ***************************************************************************************************
  12:.\protocolo.c **** */
  13:.\protocolo.c **** 
  14:.\protocolo.c **** /*
  15:.\protocolo.c **** ***************************************************************************************************
  16:.\protocolo.c **** *
  17:.\protocolo.c **** *                                             GRP550/700 CODE
  18:.\protocolo.c **** *
  19:.\protocolo.c **** *                                             CYPRESS PSoC5LP
  20:.\protocolo.c **** *                                                with the
  21:.\protocolo.c **** *                                            CY8C5969AXI-LP035
  22:.\protocolo.c **** *
  23:.\protocolo.c **** * Filename      : Protocolo.c
  24:.\protocolo.c **** * Version       : V1.00
  25:.\protocolo.c **** * Programmer(s) : 
  26:.\protocolo.c ****                   
  27:.\protocolo.c **** ***************************************************************************************************
  28:.\protocolo.c **** */
  29:.\protocolo.c **** 
  30:.\protocolo.c **** 
  31:.\protocolo.c **** /*
ARM GAS  C:\Users\diego\AppData\Local\Temp\cckx56kg.s 			page 2


  32:.\protocolo.c **** ***************************************************************************************************
  33:.\protocolo.c **** *                                             INCLUDE FILES
  34:.\protocolo.c **** ***************************************************************************************************
  35:.\protocolo.c **** */
  36:.\protocolo.c **** 
  37:.\protocolo.c **** #include "VariablesG.h"
  38:.\protocolo.c **** #include "I2C.h"
  39:.\protocolo.c **** #include "Print.h"
  40:.\protocolo.c **** #include <string.h>
  41:.\protocolo.c **** 
  42:.\protocolo.c **** /*
  43:.\protocolo.c **** ***************************************************************************************************
  44:.\protocolo.c **** *                                            	MENSAJES
  45:.\protocolo.c **** ***************************************************************************************************
  46:.\protocolo.c **** */
  47:.\protocolo.c **** 
  48:.\protocolo.c **** uint8 msn_tc[6]="TOTAL";
  49:.\protocolo.c **** uint8 msn_lecact[15]="Valor actual: ";
  50:.\protocolo.c **** uint8 msn_lecaan[17]="Valor anterior:  ";
  51:.\protocolo.c **** uint8 msn_tventas[18]="Dinero total: $   ";
  52:.\protocolo.c **** uint8 msn_totalcero[15]="No toma totales";
  53:.\protocolo.c **** 
  54:.\protocolo.c **** 
  55:.\protocolo.c **** /*
  56:.\protocolo.c **** ***************************************************************************************************
  57:.\protocolo.c **** *                                         ver_pos( void )
  58:.\protocolo.c **** *
  59:.\protocolo.c **** * Description : 
  60:.\protocolo.c **** *               
  61:.\protocolo.c **** *
  62:.\protocolo.c **** * Argument(s) : none
  63:.\protocolo.c **** *
  64:.\protocolo.c **** * Return(s)   : none
  65:.\protocolo.c **** *
  66:.\protocolo.c **** * Caller(s)   : 
  67:.\protocolo.c **** *
  68:.\protocolo.c **** * Note(s)     : none.
  69:.\protocolo.c **** ***************************************************************************************************
  70:.\protocolo.c **** */
  71:.\protocolo.c **** uint8 ver_pos (void){
  27              		.loc 1 71 0
  28              		.cfi_startproc
  29              		@ args = 0, pretend = 0, frame = 0
  30              		@ frame_needed = 0, uses_anonymous_args = 0
  31 0000 10B5     		push	{r4, lr}
  32              		.cfi_def_cfa_offset 8
  33              		.cfi_offset 4, -8
  34              		.cfi_offset 14, -4
  72:.\protocolo.c **** uint8 x;
  73:.\protocolo.c ****     a.dir = 0xff;
  35              		.loc 1 73 0
  36 0002 FF23     		movs	r3, #255
  37 0004 3F4A     		ldr	r2, .L16
  38 0006 1370     		strb	r3, [r2]
  74:.\protocolo.c ****     b.dir = 0xff;
  39              		.loc 1 74 0
  40 0008 3F4A     		ldr	r2, .L16+4
ARM GAS  C:\Users\diego\AppData\Local\Temp\cckx56kg.s 			page 3


  41 000a 1370     		strb	r3, [r2]
  75:.\protocolo.c ****     c.dir = 0xff;
  42              		.loc 1 75 0
  43 000c 3F4A     		ldr	r2, .L16+8
  44 000e 1370     		strb	r3, [r2]
  76:.\protocolo.c ****     d.dir = 0xff;
  45              		.loc 1 76 0
  46 0010 3F4A     		ldr	r2, .L16+12
  47 0012 1370     		strb	r3, [r2]
  48              	.LVL0:
  77:.\protocolo.c ****      for(x=0;x<=15;x++){
  49              		.loc 1 77 0
  50 0014 0024     		movs	r4, #0
  51 0016 49E0     		b	.L2
  52              	.LVL1:
  53              	.L7:
  78:.\protocolo.c ****         Surtidor_PutChar(x);
  54              		.loc 1 78 0
  55 0018 2046     		mov	r0, r4
  56 001a FFF7FEFF 		bl	Surtidor_PutChar
  57              	.LVL2:
  79:.\protocolo.c ****         CyDelay(100);
  58              		.loc 1 79 0
  59 001e 6420     		movs	r0, #100
  60 0020 FFF7FEFF 		bl	CyDelay
  61              	.LVL3:
  80:.\protocolo.c ****         if((Surtidor_GetRxBufferSize()>=1)&&(a.dir==0xff)){
  62              		.loc 1 80 0
  63 0024 FFF7FEFF 		bl	Surtidor_GetRxBufferSize
  64              	.LVL4:
  65 0028 38B1     		cbz	r0, .L3
  66              		.loc 1 80 0 is_stmt 0 discriminator 1
  67 002a 364B     		ldr	r3, .L16
  68 002c 1B78     		ldrb	r3, [r3]	@ zero_extendqisi2
  69 002e FF2B     		cmp	r3, #255
  70 0030 03D1     		bne	.L3
  81:.\protocolo.c ****            a.dir=x;	
  71              		.loc 1 81 0 is_stmt 1
  72 0032 344B     		ldr	r3, .L16
  73 0034 1C70     		strb	r4, [r3]
  82:.\protocolo.c ****            Surtidor_ClearRxBuffer();
  74              		.loc 1 82 0
  75 0036 FFF7FEFF 		bl	Surtidor_ClearRxBuffer
  76              	.LVL5:
  77              	.L3:
  83:.\protocolo.c ****         }
  84:.\protocolo.c ****         if((Surtidor_GetRxBufferSize()>=1)&&(x!=a.dir)&&(c.dir==0xff)){
  78              		.loc 1 84 0
  79 003a FFF7FEFF 		bl	Surtidor_GetRxBufferSize
  80              	.LVL6:
  81 003e 58B1     		cbz	r0, .L4
  82              		.loc 1 84 0 is_stmt 0 discriminator 1
  83 0040 304B     		ldr	r3, .L16
  84 0042 1B78     		ldrb	r3, [r3]	@ zero_extendqisi2
  85 0044 A342     		cmp	r3, r4
  86 0046 07D0     		beq	.L4
  87              		.loc 1 84 0 discriminator 2
ARM GAS  C:\Users\diego\AppData\Local\Temp\cckx56kg.s 			page 4


  88 0048 304B     		ldr	r3, .L16+8
  89 004a 1B78     		ldrb	r3, [r3]	@ zero_extendqisi2
  90 004c FF2B     		cmp	r3, #255
  91 004e 03D1     		bne	.L4
  85:.\protocolo.c ****            c.dir=x;
  92              		.loc 1 85 0 is_stmt 1
  93 0050 2E4B     		ldr	r3, .L16+8
  94 0052 1C70     		strb	r4, [r3]
  86:.\protocolo.c ****            Surtidor_ClearRxBuffer();
  95              		.loc 1 86 0
  96 0054 FFF7FEFF 		bl	Surtidor_ClearRxBuffer
  97              	.LVL7:
  98              	.L4:
  87:.\protocolo.c ****         }
  88:.\protocolo.c ****         if((Surtidor_GetRxBufferSize()>=1)&&(x!=a.dir)&&(x!=b.dir)&&(b.dir==0xff)){
  99              		.loc 1 88 0
 100 0058 FFF7FEFF 		bl	Surtidor_GetRxBufferSize
 101              	.LVL8:
 102 005c 68B1     		cbz	r0, .L5
 103              		.loc 1 88 0 is_stmt 0 discriminator 1
 104 005e 294B     		ldr	r3, .L16
 105 0060 1B78     		ldrb	r3, [r3]	@ zero_extendqisi2
 106 0062 A342     		cmp	r3, r4
 107 0064 09D0     		beq	.L5
 108              		.loc 1 88 0 discriminator 2
 109 0066 284B     		ldr	r3, .L16+4
 110 0068 1B78     		ldrb	r3, [r3]	@ zero_extendqisi2
 111 006a A342     		cmp	r3, r4
 112 006c 05D0     		beq	.L5
 113              		.loc 1 88 0 discriminator 3
 114 006e FF2B     		cmp	r3, #255
 115 0070 03D1     		bne	.L5
  89:.\protocolo.c ****            b.dir=x;
 116              		.loc 1 89 0 is_stmt 1
 117 0072 254B     		ldr	r3, .L16+4
 118 0074 1C70     		strb	r4, [r3]
  90:.\protocolo.c ****            Surtidor_ClearRxBuffer();
 119              		.loc 1 90 0
 120 0076 FFF7FEFF 		bl	Surtidor_ClearRxBuffer
 121              	.LVL9:
 122              	.L5:
  91:.\protocolo.c ****         }
  92:.\protocolo.c ****         if((Surtidor_GetRxBufferSize()>=1)&&(x!=a.dir)&&(x!=b.dir)&&(x!=c.dir)&&(d.dir==0xff)){
 123              		.loc 1 92 0
 124 007a FFF7FEFF 		bl	Surtidor_GetRxBufferSize
 125              	.LVL10:
 126 007e 98B1     		cbz	r0, .L6
 127              		.loc 1 92 0 is_stmt 0 discriminator 1
 128 0080 204B     		ldr	r3, .L16
 129 0082 1B78     		ldrb	r3, [r3]	@ zero_extendqisi2
 130 0084 A342     		cmp	r3, r4
 131 0086 0FD0     		beq	.L6
 132              		.loc 1 92 0 discriminator 2
 133 0088 1F4B     		ldr	r3, .L16+4
 134 008a 1B78     		ldrb	r3, [r3]	@ zero_extendqisi2
 135 008c A342     		cmp	r3, r4
 136 008e 0BD0     		beq	.L6
ARM GAS  C:\Users\diego\AppData\Local\Temp\cckx56kg.s 			page 5


 137              		.loc 1 92 0 discriminator 3
 138 0090 1E4B     		ldr	r3, .L16+8
 139 0092 1B78     		ldrb	r3, [r3]	@ zero_extendqisi2
 140 0094 A342     		cmp	r3, r4
 141 0096 07D0     		beq	.L6
 142              		.loc 1 92 0 discriminator 4
 143 0098 1D4B     		ldr	r3, .L16+12
 144 009a 1B78     		ldrb	r3, [r3]	@ zero_extendqisi2
 145 009c FF2B     		cmp	r3, #255
 146 009e 03D1     		bne	.L6
  93:.\protocolo.c ****            d.dir=x;
 147              		.loc 1 93 0 is_stmt 1
 148 00a0 1B4B     		ldr	r3, .L16+12
 149 00a2 1C70     		strb	r4, [r3]
  94:.\protocolo.c ****            Surtidor_ClearRxBuffer();
 150              		.loc 1 94 0
 151 00a4 FFF7FEFF 		bl	Surtidor_ClearRxBuffer
 152              	.LVL11:
 153              	.L6:
  77:.\protocolo.c ****         Surtidor_PutChar(x);
 154              		.loc 1 77 0 discriminator 2
 155 00a8 0134     		adds	r4, r4, #1
 156              	.LVL12:
 157 00aa E4B2     		uxtb	r4, r4
 158              	.LVL13:
 159              	.L2:
  77:.\protocolo.c ****         Surtidor_PutChar(x);
 160              		.loc 1 77 0 is_stmt 0 discriminator 1
 161 00ac 0F2C     		cmp	r4, #15
 162 00ae B3D9     		bls	.L7
  95:.\protocolo.c ****         }
  96:.\protocolo.c ****     }
  97:.\protocolo.c ****     if((a.dir!=0xff)&&(b.dir!=0xff)&&(d.dir!=0xff)&&(c.dir!=0xff)){        
 163              		.loc 1 97 0 is_stmt 1
 164 00b0 144B     		ldr	r3, .L16
 165 00b2 1B78     		ldrb	r3, [r3]	@ zero_extendqisi2
 166 00b4 FF2B     		cmp	r3, #255
 167 00b6 0BD0     		beq	.L8
 168              		.loc 1 97 0 is_stmt 0 discriminator 1
 169 00b8 134A     		ldr	r2, .L16+4
 170 00ba 1278     		ldrb	r2, [r2]	@ zero_extendqisi2
 171 00bc FF2A     		cmp	r2, #255
 172 00be 07D0     		beq	.L8
 173              		.loc 1 97 0 discriminator 2
 174 00c0 134A     		ldr	r2, .L16+12
 175 00c2 1278     		ldrb	r2, [r2]	@ zero_extendqisi2
 176 00c4 FF2A     		cmp	r2, #255
 177 00c6 03D0     		beq	.L8
 178              		.loc 1 97 0 discriminator 3
 179 00c8 104A     		ldr	r2, .L16+8
 180 00ca 1278     		ldrb	r2, [r2]	@ zero_extendqisi2
 181 00cc FF2A     		cmp	r2, #255
 182 00ce 0FD1     		bne	.L10
 183              	.L8:
  98:.\protocolo.c ****         return 2;
  99:.\protocolo.c ****     }
 100:.\protocolo.c ****     else{
ARM GAS  C:\Users\diego\AppData\Local\Temp\cckx56kg.s 			page 6


 101:.\protocolo.c ****         if((a.dir!=0xff)||(b.dir!=0xff)||(c.dir!=0xff)||(d.dir!=0xff)){
 184              		.loc 1 101 0 is_stmt 1
 185 00d0 FF2B     		cmp	r3, #255
 186 00d2 0FD1     		bne	.L11
 187              		.loc 1 101 0 is_stmt 0 discriminator 1
 188 00d4 0C4B     		ldr	r3, .L16+4
 189 00d6 1B78     		ldrb	r3, [r3]	@ zero_extendqisi2
 190 00d8 FF2B     		cmp	r3, #255
 191 00da 0DD1     		bne	.L12
 192              		.loc 1 101 0 discriminator 2
 193 00dc 0B4B     		ldr	r3, .L16+8
 194 00de 1B78     		ldrb	r3, [r3]	@ zero_extendqisi2
 195 00e0 FF2B     		cmp	r3, #255
 196 00e2 0BD1     		bne	.L13
 197              		.loc 1 101 0 discriminator 3
 198 00e4 0A4B     		ldr	r3, .L16+12
 199 00e6 1B78     		ldrb	r3, [r3]	@ zero_extendqisi2
 200 00e8 FF2B     		cmp	r3, #255
 201 00ea 09D0     		beq	.L14
 102:.\protocolo.c ****             return 1;
 202              		.loc 1 102 0 is_stmt 1
 203 00ec 0120     		movs	r0, #1
 204 00ee 10BD     		pop	{r4, pc}
 205              	.LVL14:
 206              	.L10:
  98:.\protocolo.c ****         return 2;
 207              		.loc 1 98 0
 208 00f0 0220     		movs	r0, #2
 209 00f2 10BD     		pop	{r4, pc}
 210              	.LVL15:
 211              	.L11:
 212              		.loc 1 102 0
 213 00f4 0120     		movs	r0, #1
 214 00f6 10BD     		pop	{r4, pc}
 215              	.LVL16:
 216              	.L12:
 217 00f8 0120     		movs	r0, #1
 218 00fa 10BD     		pop	{r4, pc}
 219              	.LVL17:
 220              	.L13:
 221 00fc 0120     		movs	r0, #1
 222 00fe 10BD     		pop	{r4, pc}
 223              	.LVL18:
 224              	.L14:
 103:.\protocolo.c ****         }
 104:.\protocolo.c ****         else{
 105:.\protocolo.c ****             return 0;
 225              		.loc 1 105 0
 226 0100 0020     		movs	r0, #0
 106:.\protocolo.c ****         }
 107:.\protocolo.c ****     }
 108:.\protocolo.c ****         
 109:.\protocolo.c ****    
 110:.\protocolo.c ****     return 0;
 111:.\protocolo.c **** }
 227              		.loc 1 111 0
 228 0102 10BD     		pop	{r4, pc}
ARM GAS  C:\Users\diego\AppData\Local\Temp\cckx56kg.s 			page 7


 229              	.LVL19:
 230              	.L17:
 231              		.align	2
 232              	.L16:
 233 0104 00000000 		.word	a
 234 0108 00000000 		.word	b
 235 010c 00000000 		.word	c
 236 0110 00000000 		.word	d
 237              		.cfi_endproc
 238              	.LFE63:
 239              		.size	ver_pos, .-ver_pos
 240              		.section	.text.get_estado,"ax",%progbits
 241              		.align	2
 242              		.global	get_estado
 243              		.thumb
 244              		.thumb_func
 245              		.type	get_estado, %function
 246              	get_estado:
 247              	.LFB64:
 112:.\protocolo.c **** 
 113:.\protocolo.c **** /*
 114:.\protocolo.c **** ***************************************************************************************************
 115:.\protocolo.c **** *                                         ver_estado( void )
 116:.\protocolo.c **** *
 117:.\protocolo.c **** * Description : 
 118:.\protocolo.c **** *               
 119:.\protocolo.c **** *
 120:.\protocolo.c **** * Argument(s) : none
 121:.\protocolo.c **** *
 122:.\protocolo.c **** * Return(s)   : none
 123:.\protocolo.c **** *
 124:.\protocolo.c **** * Caller(s)   : 
 125:.\protocolo.c **** *
 126:.\protocolo.c **** * Note(s)     : none.
 127:.\protocolo.c **** ***************************************************************************************************
 128:.\protocolo.c **** */
 129:.\protocolo.c **** 
 130:.\protocolo.c **** uint8 get_estado(uint8 dir){
 248              		.loc 1 130 0
 249              		.cfi_startproc
 250              		@ args = 0, pretend = 0, frame = 0
 251              		@ frame_needed = 0, uses_anonymous_args = 0
 252              	.LVL20:
 253 0000 10B5     		push	{r4, lr}
 254              		.cfi_def_cfa_offset 8
 255              		.cfi_offset 4, -8
 256              		.cfi_offset 14, -4
 131:.\protocolo.c ****     uint8 estado;
 132:.\protocolo.c ****     Surtidor_PutChar(dir);
 257              		.loc 1 132 0
 258 0002 FFF7FEFF 		bl	Surtidor_PutChar
 259              	.LVL21:
 133:.\protocolo.c ****     CyDelay(50);
 260              		.loc 1 133 0
 261 0006 3220     		movs	r0, #50
 262 0008 FFF7FEFF 		bl	CyDelay
 263              	.LVL22:
ARM GAS  C:\Users\diego\AppData\Local\Temp\cckx56kg.s 			page 8


 134:.\protocolo.c ****     if(Surtidor_GetRxBufferSize()>=1){
 264              		.loc 1 134 0
 265 000c FFF7FEFF 		bl	Surtidor_GetRxBufferSize
 266              	.LVL23:
 267 0010 38B1     		cbz	r0, .L20
 135:.\protocolo.c ****        estado=(Surtidor_ReadRxData()&0xF0)>>4;
 268              		.loc 1 135 0
 269 0012 FFF7FEFF 		bl	Surtidor_ReadRxData
 270              	.LVL24:
 271 0016 C0F30714 		ubfx	r4, r0, #4, #8
 272              	.LVL25:
 136:.\protocolo.c ****        Surtidor_ClearRxBuffer();
 273              		.loc 1 136 0
 274 001a FFF7FEFF 		bl	Surtidor_ClearRxBuffer
 275              	.LVL26:
 137:.\protocolo.c ****        return estado;
 276              		.loc 1 137 0
 277 001e 2046     		mov	r0, r4
 278 0020 10BD     		pop	{r4, pc}
 279              	.LVL27:
 280              	.L20:
 138:.\protocolo.c ****     }
 139:.\protocolo.c ****     else{
 140:.\protocolo.c ****         return 0;
 281              		.loc 1 140 0
 282 0022 0020     		movs	r0, #0
 141:.\protocolo.c ****     }
 142:.\protocolo.c **** }
 283              		.loc 1 142 0
 284 0024 10BD     		pop	{r4, pc}
 285              		.cfi_endproc
 286              	.LFE64:
 287              		.size	get_estado, .-get_estado
 288 0026 00BF     		.section	.text.estado_ex,"ax",%progbits
 289              		.align	2
 290              		.global	estado_ex
 291              		.thumb
 292              		.thumb_func
 293              		.type	estado_ex, %function
 294              	estado_ex:
 295              	.LFB65:
 143:.\protocolo.c **** 
 144:.\protocolo.c **** //*
 145:.\protocolo.c **** //*************************************************************************************************
 146:.\protocolo.c **** //*                                         void ver_error(uint8 val)
 147:.\protocolo.c **** //*
 148:.\protocolo.c **** //* Description : 
 149:.\protocolo.c **** //*               
 150:.\protocolo.c **** //*
 151:.\protocolo.c **** //* Argument(s) : none
 152:.\protocolo.c **** //*
 153:.\protocolo.c **** //* Return(s)   : none
 154:.\protocolo.c **** //*
 155:.\protocolo.c **** //* Caller(s)   : 
 156:.\protocolo.c **** //*
 157:.\protocolo.c **** //* Note(s)     : none.
 158:.\protocolo.c **** //*************************************************************************************************
ARM GAS  C:\Users\diego\AppData\Local\Temp\cckx56kg.s 			page 9


 159:.\protocolo.c **** //*/
 160:.\protocolo.c **** //void ver_error(uint8 val){
 161:.\protocolo.c **** //    uint8 estado;
 162:.\protocolo.c **** //    Surtidor_PutChar(val);
 163:.\protocolo.c **** //    CyDelay(200);
 164:.\protocolo.c **** //    if(Surtidor_GetRxBufferSize()>=1){
 165:.\protocolo.c **** //       estado=(Surtidor_ReadRxData()&0xF0)>>4;
 166:.\protocolo.c **** //       Surtidor_ClearRxBuffer();
 167:.\protocolo.c **** //       if(estado==0){
 168:.\protocolo.c **** //
 169:.\protocolo.c **** //       }
 170:.\protocolo.c **** //    }    
 171:.\protocolo.c **** //}
 172:.\protocolo.c **** 
 173:.\protocolo.c **** /*
 174:.\protocolo.c **** ***************************************************************************************************
 175:.\protocolo.c **** *                                         estado_ex(uint8 val)
 176:.\protocolo.c **** *
 177:.\protocolo.c **** * Description : 
 178:.\protocolo.c **** *               
 179:.\protocolo.c **** *
 180:.\protocolo.c **** * Argument(s) : none
 181:.\protocolo.c **** *
 182:.\protocolo.c **** * Return(s)   : none
 183:.\protocolo.c **** *
 184:.\protocolo.c **** * Caller(s)   : 
 185:.\protocolo.c **** *
 186:.\protocolo.c **** * Note(s)     : none.
 187:.\protocolo.c **** ***************************************************************************************************
 188:.\protocolo.c **** */
 189:.\protocolo.c **** uint8 estado_ex(uint8 val){
 296              		.loc 1 189 0
 297              		.cfi_startproc
 298              		@ args = 0, pretend = 0, frame = 32
 299              		@ frame_needed = 0, uses_anonymous_args = 0
 300              	.LVL28:
 301 0000 10B5     		push	{r4, lr}
 302              		.cfi_def_cfa_offset 8
 303              		.cfi_offset 4, -8
 304              		.cfi_offset 14, -4
 305 0002 88B0     		sub	sp, sp, #32
 306              		.cfi_def_cfa_offset 40
 307 0004 0446     		mov	r4, r0
 190:.\protocolo.c ****     uint8 rx_extend[19],x,comand_exten[9]={0xFF,0xE9,0xFE,0xE0,0xE1,0xE0,0xFB,0xEE,0xF0};
 308              		.loc 1 190 0
 309 0006 364A     		ldr	r2, .L41
 310 0008 6B46     		mov	r3, sp
 311 000a 1068     		ldr	r0, [r2]	@ unaligned
 312              	.LVL29:
 313 000c 5168     		ldr	r1, [r2, #4]	@ unaligned
 314 000e 03C3     		stmia	r3!, {r0, r1}
 315 0010 127A     		ldrb	r2, [r2, #8]	@ zero_extendqisi2
 316 0012 1A70     		strb	r2, [r3]
 191:.\protocolo.c ****     Surtidor_PutChar(0x20|val);
 317              		.loc 1 191 0
 318 0014 44F02000 		orr	r0, r4, #32
 319 0018 FFF7FEFF 		bl	Surtidor_PutChar
ARM GAS  C:\Users\diego\AppData\Local\Temp\cckx56kg.s 			page 10


 320              	.LVL30:
 192:.\protocolo.c ****     producto=0xff;
 321              		.loc 1 192 0
 322 001c FF22     		movs	r2, #255
 323 001e 314B     		ldr	r3, .L41+4
 324 0020 1A70     		strb	r2, [r3]
 193:.\protocolo.c ****     CyDelay(100);
 325              		.loc 1 193 0
 326 0022 6420     		movs	r0, #100
 327 0024 FFF7FEFF 		bl	CyDelay
 328              	.LVL31:
 194:.\protocolo.c ****     if(Surtidor_GetRxBufferSize()>=1){
 329              		.loc 1 194 0
 330 0028 FFF7FEFF 		bl	Surtidor_GetRxBufferSize
 331              	.LVL32:
 332 002c 0028     		cmp	r0, #0
 333 002e 48D0     		beq	.L31
 195:.\protocolo.c ****         if(Surtidor_ReadRxData()==(0xD0|val)){
 334              		.loc 1 195 0
 335 0030 FFF7FEFF 		bl	Surtidor_ReadRxData
 336              	.LVL33:
 337 0034 44F0D004 		orr	r4, r4, #208
 338 0038 A042     		cmp	r0, r4
 339 003a 44D1     		bne	.L32
 196:.\protocolo.c ****             Surtidor_ClearRxBuffer();
 340              		.loc 1 196 0
 341 003c FFF7FEFF 		bl	Surtidor_ClearRxBuffer
 342              	.LVL34:
 197:.\protocolo.c ****             for(x=0;x<=8;x++){
 343              		.loc 1 197 0
 344 0040 0024     		movs	r4, #0
 345 0042 07E0     		b	.L24
 346              	.LVL35:
 347              	.L25:
 198:.\protocolo.c ****                Surtidor_PutChar(comand_exten[x]); 
 348              		.loc 1 198 0 discriminator 3
 349 0044 08AB     		add	r3, sp, #32
 350 0046 2344     		add	r3, r3, r4
 351 0048 13F8200C 		ldrb	r0, [r3, #-32]	@ zero_extendqisi2
 352 004c FFF7FEFF 		bl	Surtidor_PutChar
 353              	.LVL36:
 197:.\protocolo.c ****             for(x=0;x<=8;x++){
 354              		.loc 1 197 0 discriminator 3
 355 0050 0134     		adds	r4, r4, #1
 356              	.LVL37:
 357 0052 E4B2     		uxtb	r4, r4
 358              	.LVL38:
 359              	.L24:
 197:.\protocolo.c ****             for(x=0;x<=8;x++){
 360              		.loc 1 197 0 is_stmt 0 discriminator 1
 361 0054 082C     		cmp	r4, #8
 362 0056 F5D9     		bls	.L25
 199:.\protocolo.c ****             }
 200:.\protocolo.c ****             CyDelay(200);
 363              		.loc 1 200 0 is_stmt 1
 364 0058 C820     		movs	r0, #200
 365 005a FFF7FEFF 		bl	CyDelay
ARM GAS  C:\Users\diego\AppData\Local\Temp\cckx56kg.s 			page 11


 366              	.LVL39:
 201:.\protocolo.c ****             if(Surtidor_GetRxBufferSize()>=19){
 367              		.loc 1 201 0
 368 005e FFF7FEFF 		bl	Surtidor_GetRxBufferSize
 369              	.LVL40:
 370 0062 1228     		cmp	r0, #18
 371 0064 0AD8     		bhi	.L33
 202:.\protocolo.c ****                 for(x=0;x<=18;x++){
 203:.\protocolo.c ****                    rx_extend[x]=Surtidor_ReadRxData(); 
 204:.\protocolo.c ****                 }
 205:.\protocolo.c ****                 Surtidor_ClearRxBuffer();
 206:.\protocolo.c ****                 if((rx_extend[0]==0xBA)&&(rx_extend[17]==0x8D)&&(rx_extend[18]==0x8A)&&(rx_extend[1
 207:.\protocolo.c ****                     switch(rx_extend[14]){
 208:.\protocolo.c ****                         case 0xB1:
 209:.\protocolo.c ****                             return 1;
 210:.\protocolo.c ****                             break;
 211:.\protocolo.c ****                         case 0xB2:
 212:.\protocolo.c ****                             return 2;
 213:.\protocolo.c ****                             break;
 214:.\protocolo.c ****                         case 0xB3:
 215:.\protocolo.c ****                             return 3;
 216:.\protocolo.c ****                             break;
 217:.\protocolo.c ****                         default:
 218:.\protocolo.c ****                             return 0;
 219:.\protocolo.c ****                     }
 220:.\protocolo.c ****                 }
 221:.\protocolo.c ****                 else{
 222:.\protocolo.c ****                     return 0;
 223:.\protocolo.c ****                 }
 224:.\protocolo.c ****             }
 225:.\protocolo.c ****             else{
 226:.\protocolo.c ****                 return 0;
 372              		.loc 1 226 0
 373 0066 0020     		movs	r0, #0
 374 0068 38E0     		b	.L23
 375              	.L27:
 203:.\protocolo.c ****                 }
 376              		.loc 1 203 0 discriminator 3
 377 006a FFF7FEFF 		bl	Surtidor_ReadRxData
 378              	.LVL41:
 379 006e 08AB     		add	r3, sp, #32
 380 0070 2344     		add	r3, r3, r4
 381 0072 03F8140C 		strb	r0, [r3, #-20]
 202:.\protocolo.c ****                 for(x=0;x<=18;x++){
 382              		.loc 1 202 0 discriminator 3
 383 0076 0134     		adds	r4, r4, #1
 384              	.LVL42:
 385 0078 E4B2     		uxtb	r4, r4
 386              	.LVL43:
 387 007a 00E0     		b	.L26
 388              	.L33:
 389 007c 0024     		movs	r4, #0
 390              	.LVL44:
 391              	.L26:
 202:.\protocolo.c ****                 for(x=0;x<=18;x++){
 392              		.loc 1 202 0 is_stmt 0 discriminator 1
 393 007e 122C     		cmp	r4, #18
ARM GAS  C:\Users\diego\AppData\Local\Temp\cckx56kg.s 			page 12


 394 0080 F3D9     		bls	.L27
 205:.\protocolo.c ****                 if((rx_extend[0]==0xBA)&&(rx_extend[17]==0x8D)&&(rx_extend[18]==0x8A)&&(rx_extend[1
 395              		.loc 1 205 0 is_stmt 1
 396 0082 FFF7FEFF 		bl	Surtidor_ClearRxBuffer
 397              	.LVL45:
 206:.\protocolo.c ****                     switch(rx_extend[14]){
 398              		.loc 1 206 0
 399 0086 9DF80C30 		ldrb	r3, [sp, #12]	@ zero_extendqisi2
 400 008a BA2B     		cmp	r3, #186
 401 008c 1DD1     		bne	.L34
 206:.\protocolo.c ****                     switch(rx_extend[14]){
 402              		.loc 1 206 0 is_stmt 0 discriminator 1
 403 008e 9DF81D30 		ldrb	r3, [sp, #29]	@ zero_extendqisi2
 404 0092 8D2B     		cmp	r3, #141
 405 0094 1BD1     		bne	.L35
 206:.\protocolo.c ****                     switch(rx_extend[14]){
 406              		.loc 1 206 0 discriminator 2
 407 0096 9DF81E30 		ldrb	r3, [sp, #30]	@ zero_extendqisi2
 408 009a 8A2B     		cmp	r3, #138
 409 009c 19D1     		bne	.L36
 206:.\protocolo.c ****                     switch(rx_extend[14]){
 410              		.loc 1 206 0 discriminator 3
 411 009e 9DF81830 		ldrb	r3, [sp, #24]	@ zero_extendqisi2
 412 00a2 B12B     		cmp	r3, #177
 413 00a4 17D1     		bne	.L37
 207:.\protocolo.c ****                         case 0xB1:
 414              		.loc 1 207 0 is_stmt 1
 415 00a6 9DF81A30 		ldrb	r3, [sp, #26]	@ zero_extendqisi2
 416 00aa B22B     		cmp	r3, #178
 417 00ac 15D0     		beq	.L38
 418 00ae B32B     		cmp	r3, #179
 419 00b0 03D0     		beq	.L29
 420 00b2 B12B     		cmp	r3, #177
 421 00b4 03D1     		bne	.L39
 209:.\protocolo.c ****                             break;
 422              		.loc 1 209 0
 423 00b6 0120     		movs	r0, #1
 424 00b8 10E0     		b	.L23
 425              	.L29:
 215:.\protocolo.c ****                             break;
 426              		.loc 1 215 0
 427 00ba 0320     		movs	r0, #3
 428 00bc 0EE0     		b	.L23
 429              	.L39:
 218:.\protocolo.c ****                     }
 430              		.loc 1 218 0
 431 00be 0020     		movs	r0, #0
 432 00c0 0CE0     		b	.L23
 433              	.LVL46:
 434              	.L31:
 227:.\protocolo.c ****             }
 228:.\protocolo.c ****         }
 229:.\protocolo.c ****         else{
 230:.\protocolo.c ****             return 0;
 231:.\protocolo.c ****         }
 232:.\protocolo.c ****     }
 233:.\protocolo.c ****     else{
ARM GAS  C:\Users\diego\AppData\Local\Temp\cckx56kg.s 			page 13


 234:.\protocolo.c ****         return 0;
 435              		.loc 1 234 0
 436 00c2 0020     		movs	r0, #0
 437 00c4 0AE0     		b	.L23
 438              	.L32:
 230:.\protocolo.c ****         }
 439              		.loc 1 230 0
 440 00c6 0020     		movs	r0, #0
 441 00c8 08E0     		b	.L23
 442              	.LVL47:
 443              	.L34:
 222:.\protocolo.c ****                 }
 444              		.loc 1 222 0
 445 00ca 0020     		movs	r0, #0
 446 00cc 06E0     		b	.L23
 447              	.L35:
 448 00ce 0020     		movs	r0, #0
 449 00d0 04E0     		b	.L23
 450              	.L36:
 451 00d2 0020     		movs	r0, #0
 452 00d4 02E0     		b	.L23
 453              	.L37:
 454 00d6 0020     		movs	r0, #0
 455 00d8 00E0     		b	.L23
 456              	.L38:
 212:.\protocolo.c ****                             break;
 457              		.loc 1 212 0
 458 00da 0220     		movs	r0, #2
 459              	.LVL48:
 460              	.L23:
 235:.\protocolo.c ****     }
 236:.\protocolo.c **** }
 461              		.loc 1 236 0 discriminator 1
 462 00dc 08B0     		add	sp, sp, #32
 463              		.cfi_def_cfa_offset 8
 464              		@ sp needed
 465 00de 10BD     		pop	{r4, pc}
 466              	.L42:
 467              		.align	2
 468              	.L41:
 469 00e0 00000000 		.word	.LANCHOR0
 470 00e4 00000000 		.word	producto
 471              		.cfi_endproc
 472              	.LFE65:
 473              		.size	estado_ex, .-estado_ex
 474              		.section	.text.venta,"ax",%progbits
 475              		.align	2
 476              		.global	venta
 477              		.thumb
 478              		.thumb_func
 479              		.type	venta, %function
 480              	venta:
 481              	.LFB66:
 237:.\protocolo.c **** 
 238:.\protocolo.c **** ///*
 239:.\protocolo.c **** //*************************************************************************************************
 240:.\protocolo.c **** //*                                         void detener(uint8 val)
ARM GAS  C:\Users\diego\AppData\Local\Temp\cckx56kg.s 			page 14


 241:.\protocolo.c **** //*
 242:.\protocolo.c **** //* Description : 
 243:.\protocolo.c **** //*               
 244:.\protocolo.c **** //*
 245:.\protocolo.c **** //* Argument(s) : none
 246:.\protocolo.c **** //*
 247:.\protocolo.c **** //* Return(s)   : none
 248:.\protocolo.c **** //*
 249:.\protocolo.c **** //* Caller(s)   : 
 250:.\protocolo.c **** //*
 251:.\protocolo.c **** //* Note(s)     : none.
 252:.\protocolo.c **** //*************************************************************************************************
 253:.\protocolo.c **** //*/
 254:.\protocolo.c **** //void detener(uint8 val){
 255:.\protocolo.c **** //    Surtidor_PutChar(0x30|val);
 256:.\protocolo.c **** //    CyDelay(200);
 257:.\protocolo.c **** //}
 258:.\protocolo.c **** 
 259:.\protocolo.c **** /*
 260:.\protocolo.c **** ***************************************************************************************************
 261:.\protocolo.c **** *                                         void venta(uint8 val)
 262:.\protocolo.c **** *
 263:.\protocolo.c **** * Description : 
 264:.\protocolo.c **** *               
 265:.\protocolo.c **** *
 266:.\protocolo.c **** * Argument(s) : none
 267:.\protocolo.c **** *
 268:.\protocolo.c **** * Return(s)   : none
 269:.\protocolo.c **** *
 270:.\protocolo.c **** * Caller(s)   : 
 271:.\protocolo.c **** *
 272:.\protocolo.c **** * Note(s)     : none.
 273:.\protocolo.c **** ***************************************************************************************************
 274:.\protocolo.c **** */
 275:.\protocolo.c **** uint8 venta(uint8 val){
 482              		.loc 1 275 0
 483              		.cfi_startproc
 484              		@ args = 0, pretend = 0, frame = 40
 485              		@ frame_needed = 0, uses_anonymous_args = 0
 486              	.LVL49:
 487 0000 30B5     		push	{r4, r5, lr}
 488              		.cfi_def_cfa_offset 12
 489              		.cfi_offset 4, -12
 490              		.cfi_offset 5, -8
 491              		.cfi_offset 14, -4
 492 0002 8BB0     		sub	sp, sp, #44
 493              		.cfi_def_cfa_offset 56
 494 0004 0446     		mov	r4, r0
 495              	.LVL50:
 276:.\protocolo.c ****     uint8 rx_venta[39],x=0,pos,y; 
 277:.\protocolo.c ****     Surtidor_PutChar(0x40|val);
 496              		.loc 1 277 0
 497 0006 40F04000 		orr	r0, r0, #64
 498              	.LVL51:
 499 000a FFF7FEFF 		bl	Surtidor_PutChar
 500              	.LVL52:
 278:.\protocolo.c ****     CyDelay(300);
ARM GAS  C:\Users\diego\AppData\Local\Temp\cckx56kg.s 			page 15


 501              		.loc 1 278 0
 502 000e 4FF49670 		mov	r0, #300
 503 0012 FFF7FEFF 		bl	CyDelay
 504              	.LVL53:
 279:.\protocolo.c ****     if(Surtidor_GetRxBufferSize()<=39){
 505              		.loc 1 279 0
 506 0016 FFF7FEFF 		bl	Surtidor_GetRxBufferSize
 507              	.LVL54:
 508 001a 2728     		cmp	r0, #39
 509 001c 0AD9     		bls	.L60
 280:.\protocolo.c ****         while(Surtidor_GetRxBufferSize()>0){
 281:.\protocolo.c ****             rx_venta[x]=Surtidor_ReadRxData();  
 282:.\protocolo.c ****             x++;
 283:.\protocolo.c ****         }
 284:.\protocolo.c ****         Surtidor_ClearRxBuffer();
 285:.\protocolo.c ****         if(val==0){
 286:.\protocolo.c ****             pos=0x10;
 287:.\protocolo.c ****             rventa.posicion=pos;
 288:.\protocolo.c ****         }
 289:.\protocolo.c ****         else{
 290:.\protocolo.c ****             pos=val;
 291:.\protocolo.c ****             rventa.posicion=pos;
 292:.\protocolo.c ****         }
 293:.\protocolo.c ****         if((rx_venta[0]==0xFF)&&(rx_venta[2]==0xF8)&&((rx_venta[4]&0x0F)==(pos-1))){
 294:.\protocolo.c ****             x=0;
 295:.\protocolo.c ****             while((rx_venta[x]!=0xF6)||(x>=39)){
 296:.\protocolo.c ****                 x++;
 297:.\protocolo.c ****             }
 298:.\protocolo.c ****             x++;
 299:.\protocolo.c ****             rventa.producto=(rx_venta[x]&0x0F)+1;
 300:.\protocolo.c ****             while((rx_venta[x]!=0xF7)||(x>=39)){
 301:.\protocolo.c ****                 x++;
 302:.\protocolo.c ****             }
 303:.\protocolo.c ****             x++;
 304:.\protocolo.c ****             y=1;
 305:.\protocolo.c ****             while((rx_venta[x]!=0xF9)||(x>=39)){    
 306:.\protocolo.c ****                 rventa.ppu[y]=(rx_venta[x]&0x0F);
 307:.\protocolo.c ****                 x++;
 308:.\protocolo.c ****                 y++;
 309:.\protocolo.c ****             }
 310:.\protocolo.c **** 			rventa.ppu[0]=y-1;
 311:.\protocolo.c ****             x++;
 312:.\protocolo.c ****             y=1;
 313:.\protocolo.c ****             while((rx_venta[x]!=0xFA)||(x>=39)){
 314:.\protocolo.c ****                 rventa.volumen[y]=(rx_venta[x]&0x0F);
 315:.\protocolo.c ****                 x++;
 316:.\protocolo.c ****                 y++;    
 317:.\protocolo.c ****             }
 318:.\protocolo.c **** 			rventa.volumen[0]=y-1;
 319:.\protocolo.c ****             x++;
 320:.\protocolo.c ****             y=1;
 321:.\protocolo.c ****             while((rx_venta[x]!=0xFB)||(x>=39)){
 322:.\protocolo.c ****                 rventa.dinero[y]=(rx_venta[x]&0x0F);
 323:.\protocolo.c ****                 x++;
 324:.\protocolo.c ****                 y++;    
 325:.\protocolo.c ****             }
 326:.\protocolo.c **** 			rventa.dinero[0]=y-1;
ARM GAS  C:\Users\diego\AppData\Local\Temp\cckx56kg.s 			page 16


 327:.\protocolo.c ****             x+=2;
 328:.\protocolo.c ****             if((rx_venta[x]==0xF0)&&(x<=38)){								
 329:.\protocolo.c **** 				if(val==a.dir){
 330:.\protocolo.c **** 					write_eeprom(457,rventa.dinero);
 331:.\protocolo.c **** 					write_eeprom(466,rventa.volumen);
 332:.\protocolo.c **** 					write_eeprom(475,rventa.ppu);
 333:.\protocolo.c **** 				}				
 334:.\protocolo.c **** 				else{
 335:.\protocolo.c **** 					write_eeprom(482,rventa.dinero);
 336:.\protocolo.c **** 					write_eeprom(500,rventa.ppu);
 337:.\protocolo.c **** 					write_eeprom(491,rventa.volumen);				
 338:.\protocolo.c **** 				}
 339:.\protocolo.c ****                 return 1;
 340:.\protocolo.c ****             }
 341:.\protocolo.c ****             else{
 342:.\protocolo.c ****                 return 0;
 343:.\protocolo.c ****             }
 344:.\protocolo.c ****         }
 345:.\protocolo.c ****         else{
 346:.\protocolo.c ****             return 0;
 347:.\protocolo.c ****         }
 348:.\protocolo.c ****     }
 349:.\protocolo.c ****     else{
 350:.\protocolo.c ****         return 0;
 510              		.loc 1 350 0
 511 001e 0020     		movs	r0, #0
 512 0020 D9E0     		b	.L45
 513              	.LVL55:
 514              	.L46:
 281:.\protocolo.c ****             x++;
 515              		.loc 1 281 0
 516 0022 FFF7FEFF 		bl	Surtidor_ReadRxData
 517              	.LVL56:
 518 0026 0AAB     		add	r3, sp, #40
 519 0028 2B44     		add	r3, r3, r5
 520 002a 03F8280C 		strb	r0, [r3, #-40]
 282:.\protocolo.c ****         }
 521              		.loc 1 282 0
 522 002e 0135     		adds	r5, r5, #1
 523              	.LVL57:
 524 0030 EDB2     		uxtb	r5, r5
 525              	.LVL58:
 526 0032 00E0     		b	.L44
 527              	.LVL59:
 528              	.L60:
 529 0034 0025     		movs	r5, #0
 530              	.LVL60:
 531              	.L44:
 280:.\protocolo.c ****         while(Surtidor_GetRxBufferSize()>0){
 532              		.loc 1 280 0
 533 0036 FFF7FEFF 		bl	Surtidor_GetRxBufferSize
 534              	.LVL61:
 535 003a 0028     		cmp	r0, #0
 536 003c F1D1     		bne	.L46
 284:.\protocolo.c ****         if(val==0){
 537              		.loc 1 284 0
 538 003e FFF7FEFF 		bl	Surtidor_ClearRxBuffer
ARM GAS  C:\Users\diego\AppData\Local\Temp\cckx56kg.s 			page 17


 539              	.LVL62:
 285:.\protocolo.c ****             pos=0x10;
 540              		.loc 1 285 0
 541 0042 24B9     		cbnz	r4, .L47
 542              	.LVL63:
 287:.\protocolo.c ****         }
 543              		.loc 1 287 0
 544 0044 1023     		movs	r3, #16
 545 0046 654A     		ldr	r2, .L67
 546 0048 82F8A230 		strb	r3, [r2, #162]
 547 004c 03E0     		b	.L48
 548              	.LVL64:
 549              	.L47:
 291:.\protocolo.c ****         }
 550              		.loc 1 291 0
 551 004e 634B     		ldr	r3, .L67
 552 0050 83F8A240 		strb	r4, [r3, #162]
 290:.\protocolo.c ****             rventa.posicion=pos;
 553              		.loc 1 290 0
 554 0054 2346     		mov	r3, r4
 555              	.LVL65:
 556              	.L48:
 293:.\protocolo.c ****             x=0;
 557              		.loc 1 293 0
 558 0056 9DF80020 		ldrb	r2, [sp]	@ zero_extendqisi2
 559 005a FF2A     		cmp	r2, #255
 560 005c 40F0B480 		bne	.L61
 293:.\protocolo.c ****             x=0;
 561              		.loc 1 293 0 is_stmt 0 discriminator 1
 562 0060 9DF80220 		ldrb	r2, [sp, #2]	@ zero_extendqisi2
 563 0064 F82A     		cmp	r2, #248
 564 0066 40F0B180 		bne	.L62
 293:.\protocolo.c ****             x=0;
 565              		.loc 1 293 0 discriminator 2
 566 006a 9DF80420 		ldrb	r2, [sp, #4]	@ zero_extendqisi2
 567 006e 02F00F02 		and	r2, r2, #15
 568 0072 013B     		subs	r3, r3, #1
 569              	.LVL66:
 570 0074 9A42     		cmp	r2, r3
 571 0076 04D0     		beq	.L63
 346:.\protocolo.c ****         }
 572              		.loc 1 346 0 is_stmt 1
 573 0078 0020     		movs	r0, #0
 574 007a ACE0     		b	.L45
 575              	.LVL67:
 576              	.L50:
 296:.\protocolo.c ****             }
 577              		.loc 1 296 0
 578 007c 0133     		adds	r3, r3, #1
 579              	.LVL68:
 580 007e DBB2     		uxtb	r3, r3
 581              	.LVL69:
 582 0080 00E0     		b	.L49
 583              	.LVL70:
 584              	.L63:
 585 0082 0023     		movs	r3, #0
 586              	.LVL71:
ARM GAS  C:\Users\diego\AppData\Local\Temp\cckx56kg.s 			page 18


 587              	.L49:
 295:.\protocolo.c ****                 x++;
 588              		.loc 1 295 0
 589 0084 0AAA     		add	r2, sp, #40
 590 0086 1A44     		add	r2, r2, r3
 591 0088 12F8282C 		ldrb	r2, [r2, #-40]	@ zero_extendqisi2
 592 008c F62A     		cmp	r2, #246
 593 008e F5D1     		bne	.L50
 295:.\protocolo.c ****                 x++;
 594              		.loc 1 295 0 is_stmt 0 discriminator 1
 595 0090 262B     		cmp	r3, #38
 596 0092 F3D8     		bhi	.L50
 298:.\protocolo.c ****             rventa.producto=(rx_venta[x]&0x0F)+1;
 597              		.loc 1 298 0 is_stmt 1
 598 0094 0133     		adds	r3, r3, #1
 599              	.LVL72:
 600 0096 DBB2     		uxtb	r3, r3
 601              	.LVL73:
 299:.\protocolo.c ****             while((rx_venta[x]!=0xF7)||(x>=39)){
 602              		.loc 1 299 0
 603 0098 0AAA     		add	r2, sp, #40
 604 009a 1A44     		add	r2, r2, r3
 605 009c 12F8282C 		ldrb	r2, [r2, #-40]	@ zero_extendqisi2
 606 00a0 02F00F02 		and	r2, r2, #15
 607 00a4 0132     		adds	r2, r2, #1
 608 00a6 4D49     		ldr	r1, .L67
 609 00a8 81F8A320 		strb	r2, [r1, #163]
 300:.\protocolo.c ****                 x++;
 610              		.loc 1 300 0
 611 00ac 01E0     		b	.L51
 612              	.L52:
 301:.\protocolo.c ****             }
 613              		.loc 1 301 0
 614 00ae 0133     		adds	r3, r3, #1
 615              	.LVL74:
 616 00b0 DBB2     		uxtb	r3, r3
 617              	.LVL75:
 618              	.L51:
 300:.\protocolo.c ****                 x++;
 619              		.loc 1 300 0
 620 00b2 0AAA     		add	r2, sp, #40
 621 00b4 1A44     		add	r2, r2, r3
 622 00b6 12F8282C 		ldrb	r2, [r2, #-40]	@ zero_extendqisi2
 623 00ba F72A     		cmp	r2, #247
 624 00bc F7D1     		bne	.L52
 300:.\protocolo.c ****                 x++;
 625              		.loc 1 300 0 is_stmt 0 discriminator 1
 626 00be 262B     		cmp	r3, #38
 627 00c0 F5D8     		bhi	.L52
 303:.\protocolo.c ****             y=1;
 628              		.loc 1 303 0 is_stmt 1
 629 00c2 0133     		adds	r3, r3, #1
 630              	.LVL76:
 631 00c4 DBB2     		uxtb	r3, r3
 632              	.LVL77:
 304:.\protocolo.c ****             while((rx_venta[x]!=0xF9)||(x>=39)){    
 633              		.loc 1 304 0
ARM GAS  C:\Users\diego\AppData\Local\Temp\cckx56kg.s 			page 19


 634 00c6 0122     		movs	r2, #1
 305:.\protocolo.c ****                 rventa.ppu[y]=(rx_venta[x]&0x0F);
 635              		.loc 1 305 0
 636 00c8 09E0     		b	.L53
 637              	.LVL78:
 638              	.L54:
 306:.\protocolo.c ****                 x++;
 639              		.loc 1 306 0
 640 00ca 4448     		ldr	r0, .L67
 641 00cc 1044     		add	r0, r0, r2
 642 00ce 01F00F01 		and	r1, r1, #15
 643 00d2 80F8A410 		strb	r1, [r0, #164]
 307:.\protocolo.c ****                 y++;
 644              		.loc 1 307 0
 645 00d6 0133     		adds	r3, r3, #1
 646              	.LVL79:
 647 00d8 DBB2     		uxtb	r3, r3
 648              	.LVL80:
 308:.\protocolo.c ****             }
 649              		.loc 1 308 0
 650 00da 0132     		adds	r2, r2, #1
 651              	.LVL81:
 652 00dc D2B2     		uxtb	r2, r2
 653              	.LVL82:
 654              	.L53:
 305:.\protocolo.c ****                 rventa.ppu[y]=(rx_venta[x]&0x0F);
 655              		.loc 1 305 0
 656 00de 0AA9     		add	r1, sp, #40
 657 00e0 1944     		add	r1, r1, r3
 658 00e2 11F8281C 		ldrb	r1, [r1, #-40]	@ zero_extendqisi2
 659 00e6 F929     		cmp	r1, #249
 660 00e8 EFD1     		bne	.L54
 305:.\protocolo.c ****                 rventa.ppu[y]=(rx_venta[x]&0x0F);
 661              		.loc 1 305 0 is_stmt 0 discriminator 1
 662 00ea 262B     		cmp	r3, #38
 663 00ec EDD8     		bhi	.L54
 310:.\protocolo.c ****             x++;
 664              		.loc 1 310 0 is_stmt 1
 665 00ee 013A     		subs	r2, r2, #1
 666              	.LVL83:
 667 00f0 3A49     		ldr	r1, .L67
 668 00f2 81F8A420 		strb	r2, [r1, #164]
 311:.\protocolo.c ****             y=1;
 669              		.loc 1 311 0
 670 00f6 0133     		adds	r3, r3, #1
 671              	.LVL84:
 672 00f8 DBB2     		uxtb	r3, r3
 673              	.LVL85:
 312:.\protocolo.c ****             while((rx_venta[x]!=0xFA)||(x>=39)){
 674              		.loc 1 312 0
 675 00fa 0122     		movs	r2, #1
 313:.\protocolo.c ****                 rventa.volumen[y]=(rx_venta[x]&0x0F);
 676              		.loc 1 313 0
 677 00fc 09E0     		b	.L55
 678              	.LVL86:
 679              	.L56:
 314:.\protocolo.c ****                 x++;
ARM GAS  C:\Users\diego\AppData\Local\Temp\cckx56kg.s 			page 20


 680              		.loc 1 314 0
 681 00fe 3748     		ldr	r0, .L67
 682 0100 1044     		add	r0, r0, r2
 683 0102 01F00F01 		and	r1, r1, #15
 684 0106 80F8B410 		strb	r1, [r0, #180]
 315:.\protocolo.c ****                 y++;    
 685              		.loc 1 315 0
 686 010a 0133     		adds	r3, r3, #1
 687              	.LVL87:
 688 010c DBB2     		uxtb	r3, r3
 689              	.LVL88:
 316:.\protocolo.c ****             }
 690              		.loc 1 316 0
 691 010e 0132     		adds	r2, r2, #1
 692              	.LVL89:
 693 0110 D2B2     		uxtb	r2, r2
 694              	.LVL90:
 695              	.L55:
 313:.\protocolo.c ****                 rventa.volumen[y]=(rx_venta[x]&0x0F);
 696              		.loc 1 313 0
 697 0112 0AA9     		add	r1, sp, #40
 698 0114 1944     		add	r1, r1, r3
 699 0116 11F8281C 		ldrb	r1, [r1, #-40]	@ zero_extendqisi2
 700 011a FA29     		cmp	r1, #250
 701 011c EFD1     		bne	.L56
 313:.\protocolo.c ****                 rventa.volumen[y]=(rx_venta[x]&0x0F);
 702              		.loc 1 313 0 is_stmt 0 discriminator 1
 703 011e 262B     		cmp	r3, #38
 704 0120 EDD8     		bhi	.L56
 318:.\protocolo.c ****             x++;
 705              		.loc 1 318 0 is_stmt 1
 706 0122 013A     		subs	r2, r2, #1
 707              	.LVL91:
 708 0124 2D49     		ldr	r1, .L67
 709 0126 81F8B420 		strb	r2, [r1, #180]
 319:.\protocolo.c ****             y=1;
 710              		.loc 1 319 0
 711 012a 0133     		adds	r3, r3, #1
 712              	.LVL92:
 713 012c DBB2     		uxtb	r3, r3
 714              	.LVL93:
 320:.\protocolo.c ****             while((rx_venta[x]!=0xFB)||(x>=39)){
 715              		.loc 1 320 0
 716 012e 0122     		movs	r2, #1
 321:.\protocolo.c ****                 rventa.dinero[y]=(rx_venta[x]&0x0F);
 717              		.loc 1 321 0
 718 0130 09E0     		b	.L57
 719              	.LVL94:
 720              	.L58:
 322:.\protocolo.c ****                 x++;
 721              		.loc 1 322 0
 722 0132 2A48     		ldr	r0, .L67
 723 0134 1044     		add	r0, r0, r2
 724 0136 01F00F01 		and	r1, r1, #15
 725 013a 80F8AB10 		strb	r1, [r0, #171]
 323:.\protocolo.c ****                 y++;    
 726              		.loc 1 323 0
ARM GAS  C:\Users\diego\AppData\Local\Temp\cckx56kg.s 			page 21


 727 013e 0133     		adds	r3, r3, #1
 728              	.LVL95:
 729 0140 DBB2     		uxtb	r3, r3
 730              	.LVL96:
 324:.\protocolo.c ****             }
 731              		.loc 1 324 0
 732 0142 0132     		adds	r2, r2, #1
 733              	.LVL97:
 734 0144 D2B2     		uxtb	r2, r2
 735              	.LVL98:
 736              	.L57:
 321:.\protocolo.c ****                 rventa.dinero[y]=(rx_venta[x]&0x0F);
 737              		.loc 1 321 0
 738 0146 0AA9     		add	r1, sp, #40
 739 0148 1944     		add	r1, r1, r3
 740 014a 11F8281C 		ldrb	r1, [r1, #-40]	@ zero_extendqisi2
 741 014e FB29     		cmp	r1, #251
 742 0150 EFD1     		bne	.L58
 321:.\protocolo.c ****                 rventa.dinero[y]=(rx_venta[x]&0x0F);
 743              		.loc 1 321 0 is_stmt 0 discriminator 1
 744 0152 262B     		cmp	r3, #38
 745 0154 EDD8     		bhi	.L58
 326:.\protocolo.c ****             x+=2;
 746              		.loc 1 326 0 is_stmt 1
 747 0156 013A     		subs	r2, r2, #1
 748              	.LVL99:
 749 0158 2049     		ldr	r1, .L67
 750 015a 81F8AB20 		strb	r2, [r1, #171]
 327:.\protocolo.c ****             if((rx_venta[x]==0xF0)&&(x<=38)){								
 751              		.loc 1 327 0
 752 015e 0233     		adds	r3, r3, #2
 753              	.LVL100:
 754 0160 DBB2     		uxtb	r3, r3
 755              	.LVL101:
 328:.\protocolo.c **** 				if(val==a.dir){
 756              		.loc 1 328 0
 757 0162 0AAA     		add	r2, sp, #40
 758 0164 1A44     		add	r2, r2, r3
 759 0166 12F8282C 		ldrb	r2, [r2, #-40]	@ zero_extendqisi2
 760 016a F02A     		cmp	r2, #240
 761 016c 30D1     		bne	.L64
 328:.\protocolo.c **** 				if(val==a.dir){
 762              		.loc 1 328 0 is_stmt 0 discriminator 1
 763 016e 262B     		cmp	r3, #38
 764 0170 30D8     		bhi	.L65
 329:.\protocolo.c **** 					write_eeprom(457,rventa.dinero);
 765              		.loc 1 329 0 is_stmt 1
 766 0172 1B4B     		ldr	r3, .L67+4
 767              	.LVL102:
 768 0174 1B78     		ldrb	r3, [r3]	@ zero_extendqisi2
 769 0176 A342     		cmp	r3, r4
 770 0178 13D1     		bne	.L59
 330:.\protocolo.c **** 					write_eeprom(466,rventa.volumen);
 771              		.loc 1 330 0
 772 017a 01F1AB04 		add	r4, r1, #171
 773 017e 40F2C910 		movw	r0, #457
 774 0182 2146     		mov	r1, r4
ARM GAS  C:\Users\diego\AppData\Local\Temp\cckx56kg.s 			page 22


 775 0184 FFF7FEFF 		bl	write_eeprom
 776              	.LVL103:
 331:.\protocolo.c **** 					write_eeprom(475,rventa.ppu);
 777              		.loc 1 331 0
 778 0188 4FF4E970 		mov	r0, #466
 779 018c 04F10901 		add	r1, r4, #9
 780 0190 FFF7FEFF 		bl	write_eeprom
 781              	.LVL104:
 332:.\protocolo.c **** 				}				
 782              		.loc 1 332 0
 783 0194 40F2DB10 		movw	r0, #475
 784 0198 E11F     		subs	r1, r4, #7
 785 019a FFF7FEFF 		bl	write_eeprom
 786              	.LVL105:
 339:.\protocolo.c ****             }
 787              		.loc 1 339 0
 788 019e 0120     		movs	r0, #1
 789 01a0 19E0     		b	.L45
 790              	.L59:
 335:.\protocolo.c **** 					write_eeprom(500,rventa.ppu);
 791              		.loc 1 335 0
 792 01a2 104C     		ldr	r4, .L67+8
 793 01a4 4FF4F170 		mov	r0, #482
 794 01a8 2146     		mov	r1, r4
 795 01aa FFF7FEFF 		bl	write_eeprom
 796              	.LVL106:
 336:.\protocolo.c **** 					write_eeprom(491,rventa.volumen);				
 797              		.loc 1 336 0
 798 01ae 4FF4FA70 		mov	r0, #500
 799 01b2 E11F     		subs	r1, r4, #7
 800 01b4 FFF7FEFF 		bl	write_eeprom
 801              	.LVL107:
 337:.\protocolo.c **** 				}
 802              		.loc 1 337 0
 803 01b8 40F2EB10 		movw	r0, #491
 804 01bc 04F10901 		add	r1, r4, #9
 805 01c0 FFF7FEFF 		bl	write_eeprom
 806              	.LVL108:
 339:.\protocolo.c ****             }
 807              		.loc 1 339 0
 808 01c4 0120     		movs	r0, #1
 809 01c6 06E0     		b	.L45
 810              	.LVL109:
 811              	.L61:
 346:.\protocolo.c ****         }
 812              		.loc 1 346 0
 813 01c8 0020     		movs	r0, #0
 814 01ca 04E0     		b	.L45
 815              	.L62:
 816 01cc 0020     		movs	r0, #0
 817 01ce 02E0     		b	.L45
 818              	.LVL110:
 819              	.L64:
 342:.\protocolo.c ****             }
 820              		.loc 1 342 0
 821 01d0 0020     		movs	r0, #0
 822 01d2 00E0     		b	.L45
ARM GAS  C:\Users\diego\AppData\Local\Temp\cckx56kg.s 			page 23


 823              	.L65:
 824 01d4 0020     		movs	r0, #0
 825              	.LVL111:
 826              	.L45:
 351:.\protocolo.c ****     }
 352:.\protocolo.c **** }
 827              		.loc 1 352 0
 828 01d6 0BB0     		add	sp, sp, #44
 829              		.cfi_def_cfa_offset 12
 830              		@ sp needed
 831 01d8 30BD     		pop	{r4, r5, pc}
 832              	.L68:
 833 01da 00BF     		.align	2
 834              	.L67:
 835 01dc 00000000 		.word	rventa
 836 01e0 00000000 		.word	a
 837 01e4 AB000000 		.word	rventa+171
 838              		.cfi_endproc
 839              	.LFE66:
 840              		.size	venta, .-venta
 841              		.section	.text.get_totales,"ax",%progbits
 842              		.align	2
 843              		.global	get_totales
 844              		.thumb
 845              		.thumb_func
 846              		.type	get_totales, %function
 847              	get_totales:
 848              	.LFB67:
 353:.\protocolo.c **** 
 354:.\protocolo.c **** /*
 355:.\protocolo.c **** ***************************************************************************************************
 356:.\protocolo.c **** *                                         uint8 get_totales(uint8 dir)
 357:.\protocolo.c **** *
 358:.\protocolo.c **** * Description : 
 359:.\protocolo.c **** *               
 360:.\protocolo.c **** *
 361:.\protocolo.c **** * Argument(s) : none
 362:.\protocolo.c **** *
 363:.\protocolo.c **** * Return(s)   : none
 364:.\protocolo.c **** *
 365:.\protocolo.c **** * Caller(s)   : 
 366:.\protocolo.c **** *
 367:.\protocolo.c **** * Note(s)     : none.
 368:.\protocolo.c **** ***************************************************************************************************
 369:.\protocolo.c **** */
 370:.\protocolo.c **** uint8 get_totales(uint8 dir,uint8 val){ 
 849              		.loc 1 370 0
 850              		.cfi_startproc
 851              		@ args = 0, pretend = 0, frame = 64
 852              		@ frame_needed = 0, uses_anonymous_args = 0
 853              	.LVL112:
 854 0000 70B5     		push	{r4, r5, r6, lr}
 855              		.cfi_def_cfa_offset 16
 856              		.cfi_offset 4, -16
 857              		.cfi_offset 5, -12
 858              		.cfi_offset 6, -8
 859              		.cfi_offset 14, -4
ARM GAS  C:\Users\diego\AppData\Local\Temp\cckx56kg.s 			page 24


 860 0002 90B0     		sub	sp, sp, #64
 861              		.cfi_def_cfa_offset 80
 862 0004 0546     		mov	r5, r0
 863 0006 0C46     		mov	r4, r1
 371:.\protocolo.c **** 	uint8 corte[25], minuendo[14],sustraendo[14]; 
 372:.\protocolo.c ****     Surtidor_PutChar(0x50|dir);
 864              		.loc 1 372 0
 865 0008 40F05000 		orr	r0, r0, #80
 866              	.LVL113:
 867 000c FFF7FEFF 		bl	Surtidor_PutChar
 868              	.LVL114:
 373:.\protocolo.c **** 
 374:.\protocolo.c ****     CyDelay(1000);
 869              		.loc 1 374 0
 870 0010 4FF47A70 		mov	r0, #1000
 871 0014 FFF7FEFF 		bl	CyDelay
 872              	.LVL115:
 375:.\protocolo.c **** 	switch(Surtidor_GetRxBufferSize()){
 873              		.loc 1 375 0
 874 0018 FFF7FEFF 		bl	Surtidor_GetRxBufferSize
 875              	.LVL116:
 876 001c 4028     		cmp	r0, #64
 877 001e 00F04D84 		beq	.L71
 878 0022 06D8     		bhi	.L72
 879 0024 2228     		cmp	r0, #34
 880 0026 0FD0     		beq	.L73
 881 0028 2E28     		cmp	r0, #46
 882 002a 01F0EB84 		beq	.L74
 883 002e 03F0B7B9 		b	.L70
 884              	.L72:
 885 0032 5E28     		cmp	r0, #94
 886 0034 01F09480 		beq	.L75
 887 0038 8228     		cmp	r0, #130
 888 003a 02F07B85 		beq	.L76
 889 003e 5828     		cmp	r0, #88
 890 0040 43F0AE81 		bne	.L70
 891 0044 02F01CB9 		b	.L77
 892              	.L73:
 376:.\protocolo.c **** 		case 34:
 377:.\protocolo.c **** 			if((Surtidor_rxBuffer[0]==0xFF)&&(Surtidor_rxBuffer[1]==0xF6)&&(Surtidor_rxBuffer[33]==0xF0)&&(S
 893              		.loc 1 377 0
 894 0048 A14B     		ldr	r3, .L617
 895 004a 1B78     		ldrb	r3, [r3]	@ zero_extendqisi2
 896 004c DBB2     		uxtb	r3, r3
 897 004e FF2B     		cmp	r3, #255
 898 0050 43F0D581 		bne	.L592
 899              		.loc 1 377 0 is_stmt 0 discriminator 1
 900 0054 9E4B     		ldr	r3, .L617
 901 0056 5B78     		ldrb	r3, [r3, #1]	@ zero_extendqisi2
 902 0058 DBB2     		uxtb	r3, r3
 903 005a F62B     		cmp	r3, #246
 904 005c 43F0D181 		bne	.L593
 905              		.loc 1 377 0 discriminator 2
 906 0060 9B4B     		ldr	r3, .L617
 907 0062 93F82130 		ldrb	r3, [r3, #33]	@ zero_extendqisi2
 908 0066 DBB2     		uxtb	r3, r3
 909 0068 F02B     		cmp	r3, #240
ARM GAS  C:\Users\diego\AppData\Local\Temp\cckx56kg.s 			page 25


 910 006a 43F0CC81 		bne	.L594
 911              		.loc 1 377 0 discriminator 3
 912 006e 984B     		ldr	r3, .L617
 913 0070 DB78     		ldrb	r3, [r3, #3]	@ zero_extendqisi2
 914 0072 DBB2     		uxtb	r3, r3
 915 0074 F92B     		cmp	r3, #249
 916 0076 43F0C881 		bne	.L595
 378:.\protocolo.c **** 				rventa.manguera=(Surtidor_rxBuffer[2]&0x0F)+1;			
 917              		.loc 1 378 0 is_stmt 1
 918 007a 954B     		ldr	r3, .L617
 919 007c 9978     		ldrb	r1, [r3, #2]	@ zero_extendqisi2
 920 007e 01F00F01 		and	r1, r1, #15
 921 0082 0131     		adds	r1, r1, #1
 922 0084 934B     		ldr	r3, .L617+4
 923 0086 83F8E010 		strb	r1, [r3, #224]
 379:.\protocolo.c **** 				for(x=0;x<=7;x++){												
 924              		.loc 1 379 0
 925 008a 0022     		movs	r2, #0
 926 008c 924B     		ldr	r3, .L617+8
 927 008e 1A60     		str	r2, [r3]
 928 0090 0BE0     		b	.L79
 929              	.L80:
 380:.\protocolo.c **** 					rventa.tvolumen[x]=(Surtidor_rxBuffer[x+4]&0x0F);
 930              		.loc 1 380 0 discriminator 3
 931 0092 1A1D     		adds	r2, r3, #4
 932 0094 8E48     		ldr	r0, .L617
 933 0096 805C     		ldrb	r0, [r0, r2]	@ zero_extendqisi2
 934 0098 8E4A     		ldr	r2, .L617+4
 935 009a 1A44     		add	r2, r2, r3
 936 009c 00F00F00 		and	r0, r0, #15
 937 00a0 82F8BD00 		strb	r0, [r2, #189]
 379:.\protocolo.c **** 				for(x=0;x<=7;x++){												
 938              		.loc 1 379 0 discriminator 3
 939 00a4 0133     		adds	r3, r3, #1
 940 00a6 8C4A     		ldr	r2, .L617+8
 941 00a8 1360     		str	r3, [r2]
 942              	.L79:
 379:.\protocolo.c **** 				for(x=0;x<=7;x++){												
 943              		.loc 1 379 0 is_stmt 0 discriminator 1
 944 00aa 8B4B     		ldr	r3, .L617+8
 945 00ac 1B68     		ldr	r3, [r3]
 946 00ae 072B     		cmp	r3, #7
 947 00b0 EFD9     		bls	.L80
 381:.\protocolo.c **** 				}
 382:.\protocolo.c **** 				for(x=0;x<=7;x++){
 948              		.loc 1 382 0 is_stmt 1
 949 00b2 0022     		movs	r2, #0
 950 00b4 884B     		ldr	r3, .L617+8
 951 00b6 1A60     		str	r2, [r3]
 952 00b8 0CE0     		b	.L81
 953              	.L82:
 383:.\protocolo.c **** 					rventa.tdinero[x]=(Surtidor_rxBuffer[x+13]&0x0F);
 954              		.loc 1 383 0 discriminator 3
 955 00ba 03F10D02 		add	r2, r3, #13
 956 00be 8448     		ldr	r0, .L617
 957 00c0 805C     		ldrb	r0, [r0, r2]	@ zero_extendqisi2
 958 00c2 844A     		ldr	r2, .L617+4
ARM GAS  C:\Users\diego\AppData\Local\Temp\cckx56kg.s 			page 26


 959 00c4 1A44     		add	r2, r2, r3
 960 00c6 00F00F00 		and	r0, r0, #15
 961 00ca 82F8CA00 		strb	r0, [r2, #202]
 382:.\protocolo.c **** 					rventa.tdinero[x]=(Surtidor_rxBuffer[x+13]&0x0F);
 962              		.loc 1 382 0 discriminator 3
 963 00ce 0133     		adds	r3, r3, #1
 964 00d0 814A     		ldr	r2, .L617+8
 965 00d2 1360     		str	r3, [r2]
 966              	.L81:
 382:.\protocolo.c **** 					rventa.tdinero[x]=(Surtidor_rxBuffer[x+13]&0x0F);
 967              		.loc 1 382 0 is_stmt 0 discriminator 1
 968 00d4 804B     		ldr	r3, .L617+8
 969 00d6 1B68     		ldr	r3, [r3]
 970 00d8 072B     		cmp	r3, #7
 971 00da EED9     		bls	.L82
 384:.\protocolo.c **** 				}
 385:.\protocolo.c **** 				for(z=0;z<=7;z++){
 972              		.loc 1 385 0 is_stmt 1
 973 00dc 0022     		movs	r2, #0
 974 00de 7F4B     		ldr	r3, .L617+12
 975 00e0 1A60     		str	r2, [r3]
 976 00e2 0AE0     		b	.L83
 977              	.L84:
 386:.\protocolo.c **** 					corte[z+1]=rventa.tvolumen[z];
 978              		.loc 1 386 0 discriminator 3
 979 00e4 5A1C     		adds	r2, r3, #1
 980 00e6 7B48     		ldr	r0, .L617+4
 981 00e8 0344     		add	r3, r3, r0
 982 00ea 93F8BD00 		ldrb	r0, [r3, #189]	@ zero_extendqisi2
 983 00ee 10AB     		add	r3, sp, #64
 984 00f0 1344     		add	r3, r3, r2
 985 00f2 03F81C0C 		strb	r0, [r3, #-28]
 385:.\protocolo.c **** 					corte[z+1]=rventa.tvolumen[z];
 986              		.loc 1 385 0 discriminator 3
 987 00f6 794B     		ldr	r3, .L617+12
 988 00f8 1A60     		str	r2, [r3]
 989              	.L83:
 385:.\protocolo.c **** 					corte[z+1]=rventa.tvolumen[z];
 990              		.loc 1 385 0 is_stmt 0 discriminator 1
 991 00fa 784B     		ldr	r3, .L617+12
 992 00fc 1B68     		ldr	r3, [r3]
 993 00fe 072B     		cmp	r3, #7
 994 0100 F0D9     		bls	.L84
 387:.\protocolo.c **** 				}
 388:.\protocolo.c **** 				for(z=9;z<=16;z++){
 995              		.loc 1 388 0 is_stmt 1
 996 0102 0922     		movs	r2, #9
 997 0104 754B     		ldr	r3, .L617+12
 998 0106 1A60     		str	r2, [r3]
 999 0108 0AE0     		b	.L85
 1000              	.L86:
 389:.\protocolo.c **** 					corte[z]=rventa.tdinero[z-9];
 1001              		.loc 1 389 0 discriminator 3
 1002 010a 754A     		ldr	r2, .L617+16
 1003 010c 1A44     		add	r2, r2, r3
 1004 010e 92F8CA00 		ldrb	r0, [r2, #202]	@ zero_extendqisi2
 1005 0112 10AA     		add	r2, sp, #64
ARM GAS  C:\Users\diego\AppData\Local\Temp\cckx56kg.s 			page 27


 1006 0114 1A44     		add	r2, r2, r3
 1007 0116 02F81C0C 		strb	r0, [r2, #-28]
 388:.\protocolo.c **** 					corte[z]=rventa.tdinero[z-9];
 1008              		.loc 1 388 0 discriminator 3
 1009 011a 0133     		adds	r3, r3, #1
 1010 011c 6F4A     		ldr	r2, .L617+12
 1011 011e 1360     		str	r3, [r2]
 1012              	.L85:
 388:.\protocolo.c **** 					corte[z]=rventa.tdinero[z-9];
 1013              		.loc 1 388 0 is_stmt 0 discriminator 1
 1014 0120 6E4B     		ldr	r3, .L617+12
 1015 0122 1B68     		ldr	r3, [r3]
 1016 0124 102B     		cmp	r3, #16
 1017 0126 F0D9     		bls	.L86
 390:.\protocolo.c **** 				}
 391:.\protocolo.c **** 				corte[0]=16;				
 1018              		.loc 1 391 0 is_stmt 1
 1019 0128 1023     		movs	r3, #16
 1020 012a 8DF82430 		strb	r3, [sp, #36]
 392:.\protocolo.c **** 				if(((rventa.manguera==(producto1&0x0F))&&(dir==a.dir))||((rventa.manguera==(producto1&0x0F))&&(
 1021              		.loc 1 392 0
 1022 012e 6D4B     		ldr	r3, .L617+20
 1023 0130 1B78     		ldrb	r3, [r3]	@ zero_extendqisi2
 1024 0132 03F00F03 		and	r3, r3, #15
 1025 0136 9942     		cmp	r1, r3
 1026 0138 07D1     		bne	.L87
 1027              		.loc 1 392 0 is_stmt 0 discriminator 1
 1028 013a 6B4B     		ldr	r3, .L617+24
 1029 013c 1B78     		ldrb	r3, [r3]	@ zero_extendqisi2
 1030 013e AB42     		cmp	r3, r5
 1031 0140 15D0     		beq	.L88
 1032              		.loc 1 392 0 discriminator 3
 1033 0142 6A4B     		ldr	r3, .L617+28
 1034 0144 1B78     		ldrb	r3, [r3]	@ zero_extendqisi2
 1035 0146 AB42     		cmp	r3, r5
 1036 0148 11D0     		beq	.L88
 1037              	.L87:
 1038              		.loc 1 392 0 discriminator 4
 1039 014a 694B     		ldr	r3, .L617+32
 1040 014c 1B78     		ldrb	r3, [r3]	@ zero_extendqisi2
 1041 014e 03F00F03 		and	r3, r3, #15
 1042 0152 9942     		cmp	r1, r3
 1043 0154 03D1     		bne	.L89
 1044              		.loc 1 392 0 discriminator 5
 1045 0156 674A     		ldr	r2, .L617+36
 1046 0158 1278     		ldrb	r2, [r2]	@ zero_extendqisi2
 1047 015a AA42     		cmp	r2, r5
 1048 015c 07D0     		beq	.L88
 1049              	.L89:
 1050              		.loc 1 392 0 discriminator 7
 1051 015e 9942     		cmp	r1, r3
 1052 0160 40F0E080 		bne	.L90
 1053              		.loc 1 392 0 discriminator 8
 1054 0164 644B     		ldr	r3, .L617+40
 1055 0166 1B78     		ldrb	r3, [r3]	@ zero_extendqisi2
 1056 0168 AB42     		cmp	r3, r5
 1057 016a 40F0DB80 		bne	.L90
ARM GAS  C:\Users\diego\AppData\Local\Temp\cckx56kg.s 			page 28


 1058              	.L88:
 393:.\protocolo.c **** 					for(x=0;x<=5;x++){									
 1059              		.loc 1 393 0 is_stmt 1
 1060 016e 0022     		movs	r2, #0
 1061 0170 594B     		ldr	r3, .L617+8
 1062 0172 1A60     		str	r2, [r3]
 1063 0174 08E0     		b	.L91
 1064              	.L92:
 394:.\protocolo.c **** 						write_psoc1(val,msn_tc[x]);
 1065              		.loc 1 394 0 discriminator 3
 1066 0176 2046     		mov	r0, r4
 1067 0178 604A     		ldr	r2, .L617+44
 1068 017a D15C     		ldrb	r1, [r2, r3]	@ zero_extendqisi2
 1069 017c FFF7FEFF 		bl	write_psoc1
 1070              	.LVL117:
 393:.\protocolo.c **** 					for(x=0;x<=5;x++){									
 1071              		.loc 1 393 0 discriminator 3
 1072 0180 554A     		ldr	r2, .L617+8
 1073 0182 1368     		ldr	r3, [r2]
 1074 0184 0133     		adds	r3, r3, #1
 1075 0186 1360     		str	r3, [r2]
 1076              	.L91:
 393:.\protocolo.c **** 					for(x=0;x<=5;x++){									
 1077              		.loc 1 393 0 is_stmt 0 discriminator 1
 1078 0188 534B     		ldr	r3, .L617+8
 1079 018a 1B68     		ldr	r3, [r3]
 1080 018c 052B     		cmp	r3, #5
 1081 018e F2D9     		bls	.L92
 395:.\protocolo.c **** 					}
 396:.\protocolo.c **** 					write_psoc1(val,10);
 1082              		.loc 1 396 0 is_stmt 1
 1083 0190 2046     		mov	r0, r4
 1084 0192 0A21     		movs	r1, #10
 1085 0194 FFF7FEFF 		bl	write_psoc1
 1086              	.LVL118:
 397:.\protocolo.c ****                     for(x=0;x<=10;x++){									
 1087              		.loc 1 397 0
 1088 0198 0022     		movs	r2, #0
 1089 019a 4F4B     		ldr	r3, .L617+8
 1090 019c 1A60     		str	r2, [r3]
 1091 019e 08E0     		b	.L93
 1092              	.L94:
 398:.\protocolo.c **** 						write_psoc1(val,producto1n[x]);
 1093              		.loc 1 398 0 discriminator 3
 1094 01a0 2046     		mov	r0, r4
 1095 01a2 574A     		ldr	r2, .L617+48
 1096 01a4 D15C     		ldrb	r1, [r2, r3]	@ zero_extendqisi2
 1097 01a6 FFF7FEFF 		bl	write_psoc1
 1098              	.LVL119:
 397:.\protocolo.c ****                     for(x=0;x<=10;x++){									
 1099              		.loc 1 397 0 discriminator 3
 1100 01aa 4B4A     		ldr	r2, .L617+8
 1101 01ac 1368     		ldr	r3, [r2]
 1102 01ae 0133     		adds	r3, r3, #1
 1103 01b0 1360     		str	r3, [r2]
 1104              	.L93:
 397:.\protocolo.c ****                     for(x=0;x<=10;x++){									
ARM GAS  C:\Users\diego\AppData\Local\Temp\cckx56kg.s 			page 29


 1105              		.loc 1 397 0 is_stmt 0 discriminator 1
 1106 01b2 494B     		ldr	r3, .L617+8
 1107 01b4 1B68     		ldr	r3, [r3]
 1108 01b6 0A2B     		cmp	r3, #10
 1109 01b8 F2D9     		bls	.L94
 399:.\protocolo.c **** 					}
 400:.\protocolo.c ****                     write_psoc1(val,10);
 1110              		.loc 1 400 0 is_stmt 1
 1111 01ba 2046     		mov	r0, r4
 1112 01bc 0A21     		movs	r1, #10
 1113 01be FFF7FEFF 		bl	write_psoc1
 1114              	.LVL120:
 401:.\protocolo.c **** 					for(x=0;x<=14;x++){									
 1115              		.loc 1 401 0
 1116 01c2 0022     		movs	r2, #0
 1117 01c4 444B     		ldr	r3, .L617+8
 1118 01c6 1A60     		str	r2, [r3]
 1119 01c8 09E0     		b	.L95
 1120              	.L96:
 402:.\protocolo.c **** 						write_psoc1(val,msn_lecact[x]);				//LECTURA ACTUAL
 1121              		.loc 1 402 0 discriminator 3
 1122 01ca 4C4A     		ldr	r2, .L617+44
 1123 01cc 1344     		add	r3, r3, r2
 1124 01ce 2046     		mov	r0, r4
 1125 01d0 197A     		ldrb	r1, [r3, #8]	@ zero_extendqisi2
 1126 01d2 FFF7FEFF 		bl	write_psoc1
 1127              	.LVL121:
 401:.\protocolo.c **** 					for(x=0;x<=14;x++){									
 1128              		.loc 1 401 0 discriminator 3
 1129 01d6 404A     		ldr	r2, .L617+8
 1130 01d8 1368     		ldr	r3, [r2]
 1131 01da 0133     		adds	r3, r3, #1
 1132 01dc 1360     		str	r3, [r2]
 1133              	.L95:
 401:.\protocolo.c **** 					for(x=0;x<=14;x++){									
 1134              		.loc 1 401 0 is_stmt 0 discriminator 1
 1135 01de 3E4B     		ldr	r3, .L617+8
 1136 01e0 1B68     		ldr	r3, [r3]
 1137 01e2 0E2B     		cmp	r3, #14
 1138 01e4 F1D9     		bls	.L96
 403:.\protocolo.c **** 					}
 404:.\protocolo.c **** 					write_psoc1(val,10);
 1139              		.loc 1 404 0 is_stmt 1
 1140 01e6 2046     		mov	r0, r4
 1141 01e8 0A21     		movs	r1, #10
 1142 01ea FFF7FEFF 		bl	write_psoc1
 1143              	.LVL122:
 405:.\protocolo.c **** 					print_totalesac(8,val);	
 1144              		.loc 1 405 0
 1145 01ee 0820     		movs	r0, #8
 1146 01f0 2146     		mov	r1, r4
 1147 01f2 FFF7FEFF 		bl	print_totalesac
 1148              	.LVL123:
 406:.\protocolo.c **** 					for(x=0;x<=16;x++){												
 1149              		.loc 1 406 0
 1150 01f6 0022     		movs	r2, #0
 1151 01f8 374B     		ldr	r3, .L617+8
ARM GAS  C:\Users\diego\AppData\Local\Temp\cckx56kg.s 			page 30


 1152 01fa 1A60     		str	r2, [r3]
 1153 01fc 09E0     		b	.L97
 1154              	.L98:
 407:.\protocolo.c **** 						write_psoc1(val,msn_lecaan[x]);				//LECTURA ANTERIOR
 1155              		.loc 1 407 0 discriminator 3
 1156 01fe 3F4A     		ldr	r2, .L617+44
 1157 0200 1344     		add	r3, r3, r2
 1158 0202 2046     		mov	r0, r4
 1159 0204 197E     		ldrb	r1, [r3, #24]	@ zero_extendqisi2
 1160 0206 FFF7FEFF 		bl	write_psoc1
 1161              	.LVL124:
 406:.\protocolo.c **** 					for(x=0;x<=16;x++){												
 1162              		.loc 1 406 0 discriminator 3
 1163 020a 334A     		ldr	r2, .L617+8
 1164 020c 1368     		ldr	r3, [r2]
 1165 020e 0133     		adds	r3, r3, #1
 1166 0210 1360     		str	r3, [r2]
 1167              	.L97:
 406:.\protocolo.c **** 					for(x=0;x<=16;x++){												
 1168              		.loc 1 406 0 is_stmt 0 discriminator 1
 1169 0212 314B     		ldr	r3, .L617+8
 1170 0214 1B68     		ldr	r3, [r3]
 1171 0216 102B     		cmp	r3, #16
 1172 0218 F1D9     		bls	.L98
 408:.\protocolo.c **** 					}
 409:.\protocolo.c **** 					write_psoc1(val,10);
 1173              		.loc 1 409 0 is_stmt 1
 1174 021a 2046     		mov	r0, r4
 1175 021c 0A21     		movs	r1, #10
 1176 021e FFF7FEFF 		bl	write_psoc1
 1177              	.LVL125:
 410:.\protocolo.c **** 					if(dir==a.dir){
 1178              		.loc 1 410 0
 1179 0222 314B     		ldr	r3, .L617+24
 1180 0224 1B78     		ldrb	r3, [r3]	@ zero_extendqisi2
 1181 0226 AB42     		cmp	r3, r5
 1182 0228 04D1     		bne	.L99
 411:.\protocolo.c **** 						leer_eeprom(192,25);
 1183              		.loc 1 411 0
 1184 022a C020     		movs	r0, #192
 1185 022c 1921     		movs	r1, #25
 1186 022e FFF7FEFF 		bl	leer_eeprom
 1187              	.LVL126:
 1188 0232 04E0     		b	.L100
 1189              	.L99:
 412:.\protocolo.c **** 					}
 413:.\protocolo.c **** 					else{
 414:.\protocolo.c **** 						leer_eeprom(281,25);
 1190              		.loc 1 414 0
 1191 0234 40F21910 		movw	r0, #281
 1192 0238 1921     		movs	r1, #25
 1193 023a FFF7FEFF 		bl	leer_eeprom
 1194              	.LVL127:
 1195              	.L100:
 415:.\protocolo.c **** 					}
 416:.\protocolo.c **** 					print_totales(val);
 1196              		.loc 1 416 0
ARM GAS  C:\Users\diego\AppData\Local\Temp\cckx56kg.s 			page 31


 1197 023e 2046     		mov	r0, r4
 1198 0240 FFF7FEFF 		bl	print_totales
 1199              	.LVL128:
 417:.\protocolo.c **** 					for(z=1;z<=8;z++){
 1200              		.loc 1 417 0
 1201 0244 0122     		movs	r2, #1
 1202 0246 254B     		ldr	r3, .L617+12
 1203 0248 1A60     		str	r2, [r3]
 1204 024a 10E0     		b	.L101
 1205              	.L102:
 418:.\protocolo.c **** 						minuendo[z]=rventa.tdinero[z-1];
 1206              		.loc 1 418 0 discriminator 3
 1207 024c 2D4A     		ldr	r2, .L617+52
 1208 024e 1A44     		add	r2, r2, r3
 1209 0250 92F8CA10 		ldrb	r1, [r2, #202]	@ zero_extendqisi2
 1210 0254 10AA     		add	r2, sp, #64
 1211 0256 1A44     		add	r2, r2, r3
 1212 0258 02F82C1C 		strb	r1, [r2, #-44]
 419:.\protocolo.c **** 						sustraendo[z]=buffer_i2c[z+8];
 1213              		.loc 1 419 0 discriminator 3
 1214 025c 03F10801 		add	r1, r3, #8
 1215 0260 2948     		ldr	r0, .L617+56
 1216 0262 415C     		ldrb	r1, [r0, r1]	@ zero_extendqisi2
 1217 0264 02F83C1C 		strb	r1, [r2, #-60]
 417:.\protocolo.c **** 					for(z=1;z<=8;z++){
 1218              		.loc 1 417 0 discriminator 3
 1219 0268 0133     		adds	r3, r3, #1
 1220 026a 1C4A     		ldr	r2, .L617+12
 1221 026c 1360     		str	r3, [r2]
 1222              	.L101:
 417:.\protocolo.c **** 					for(z=1;z<=8;z++){
 1223              		.loc 1 417 0 is_stmt 0 discriminator 1
 1224 026e 1B4B     		ldr	r3, .L617+12
 1225 0270 1B68     		ldr	r3, [r3]
 1226 0272 082B     		cmp	r3, #8
 1227 0274 EAD9     		bls	.L102
 420:.\protocolo.c **** 					}
 421:.\protocolo.c **** 					minuendo[0]=8;
 1228              		.loc 1 421 0 is_stmt 1
 1229 0276 10A9     		add	r1, sp, #64
 1230 0278 0823     		movs	r3, #8
 1231 027a 01F82C3D 		strb	r3, [r1, #-44]!
 422:.\protocolo.c **** 					operacion(2,minuendo,sustraendo);
 1232              		.loc 1 422 0
 1233 027e 0220     		movs	r0, #2
 1234 0280 01AA     		add	r2, sp, #4
 1235 0282 FFF7FEFF 		bl	operacion
 1236              	.LVL129:
 423:.\protocolo.c **** 					for(x=0;x<=17;x++){									
 1237              		.loc 1 423 0
 1238 0286 0022     		movs	r2, #0
 1239 0288 134B     		ldr	r3, .L617+8
 1240 028a 1A60     		str	r2, [r3]
 1241 028c 0AE0     		b	.L103
 1242              	.L104:
 424:.\protocolo.c **** 						write_psoc1(val,msn_tventas[x]);				//Total de ventas
 1243              		.loc 1 424 0 discriminator 3
ARM GAS  C:\Users\diego\AppData\Local\Temp\cckx56kg.s 			page 32


 1244 028e 1B4A     		ldr	r2, .L617+44
 1245 0290 1344     		add	r3, r3, r2
 1246 0292 2046     		mov	r0, r4
 1247 0294 93F82C10 		ldrb	r1, [r3, #44]	@ zero_extendqisi2
 1248 0298 FFF7FEFF 		bl	write_psoc1
 1249              	.LVL130:
 423:.\protocolo.c **** 					for(x=0;x<=17;x++){									
 1250              		.loc 1 423 0 discriminator 3
 1251 029c 0E4A     		ldr	r2, .L617+8
 1252 029e 1368     		ldr	r3, [r2]
 1253 02a0 0133     		adds	r3, r3, #1
 1254 02a2 1360     		str	r3, [r2]
 1255              	.L103:
 423:.\protocolo.c **** 					for(x=0;x<=17;x++){									
 1256              		.loc 1 423 0 is_stmt 0 discriminator 1
 1257 02a4 0C4B     		ldr	r3, .L617+8
 1258 02a6 1B68     		ldr	r3, [r3]
 1259 02a8 112B     		cmp	r3, #17
 1260 02aa F0D9     		bls	.L104
 425:.\protocolo.c **** 					}
 426:.\protocolo.c **** 					print_valor(resultado,val);
 1261              		.loc 1 426 0 is_stmt 1
 1262 02ac 1748     		ldr	r0, .L617+60
 1263 02ae 2146     		mov	r1, r4
 1264 02b0 FFF7FEFF 		bl	print_valor
 1265              	.LVL131:
 427:.\protocolo.c **** 					if(dir==a.dir){
 1266              		.loc 1 427 0
 1267 02b4 0C4B     		ldr	r3, .L617+24
 1268 02b6 1B78     		ldrb	r3, [r3]	@ zero_extendqisi2
 1269 02b8 AB42     		cmp	r3, r5
 1270 02ba 29D1     		bne	.L105
 428:.\protocolo.c **** 						write_eeprom(192,corte);	
 1271              		.loc 1 428 0
 1272 02bc C020     		movs	r0, #192
 1273 02be 09A9     		add	r1, sp, #36
 1274 02c0 FFF7FEFF 		bl	write_eeprom
 1275              	.LVL132:
 429:.\protocolo.c **** 						write_eeprom(512,resultado);
 1276              		.loc 1 429 0
 1277 02c4 4FF40070 		mov	r0, #512
 1278 02c8 1049     		ldr	r1, .L617+60
 1279 02ca FFF7FEFF 		bl	write_eeprom
 1280              	.LVL133:
 1281 02ce 29E0     		b	.L90
 1282              	.L618:
 1283              		.align	2
 1284              	.L617:
 1285 02d0 00000000 		.word	Surtidor_rxBuffer
 1286 02d4 00000000 		.word	rventa
 1287 02d8 00000000 		.word	x
 1288 02dc 00000000 		.word	z
 1289 02e0 F7FFFFFF 		.word	rventa-9
 1290 02e4 00000000 		.word	producto1
 1291 02e8 00000000 		.word	a
 1292 02ec 00000000 		.word	b
 1293 02f0 00000000 		.word	producto1b
ARM GAS  C:\Users\diego\AppData\Local\Temp\cckx56kg.s 			page 33


 1294 02f4 00000000 		.word	c
 1295 02f8 00000000 		.word	d
 1296 02fc 00000000 		.word	.LANCHOR1
 1297 0300 00000000 		.word	producto1n
 1298 0304 FFFFFFFF 		.word	rventa-1
 1299 0308 00000000 		.word	buffer_i2c
 1300 030c 00000000 		.word	resultado
 1301              	.L105:
 430:.\protocolo.c **** 					}
 431:.\protocolo.c **** 					else{
 432:.\protocolo.c **** 						write_eeprom(281,corte);
 1302              		.loc 1 432 0
 1303 0310 40F21910 		movw	r0, #281
 1304 0314 09A9     		add	r1, sp, #36
 1305 0316 FFF7FEFF 		bl	write_eeprom
 1306              	.LVL134:
 433:.\protocolo.c **** 						write_eeprom(551,resultado);
 1307              		.loc 1 433 0
 1308 031a 40F22720 		movw	r0, #551
 1309 031e A249     		ldr	r1, .L619
 1310 0320 FFF7FEFF 		bl	write_eeprom
 1311              	.LVL135:
 1312              	.L90:
 434:.\protocolo.c **** 					}
 435:.\protocolo.c **** 				}
 436:.\protocolo.c **** 				if(((rventa.manguera==(producto2&0x0F))&&(dir==a.dir))||((rventa.manguera==(producto2b&0x0F))&&
 1313              		.loc 1 436 0
 1314 0324 A14B     		ldr	r3, .L619+4
 1315 0326 93F8E030 		ldrb	r3, [r3, #224]	@ zero_extendqisi2
 1316 032a A14A     		ldr	r2, .L619+8
 1317 032c 1278     		ldrb	r2, [r2]	@ zero_extendqisi2
 1318 032e 02F00F02 		and	r2, r2, #15
 1319 0332 9A42     		cmp	r2, r3
 1320 0334 03D1     		bne	.L106
 1321              		.loc 1 436 0 is_stmt 0 discriminator 1
 1322 0336 9F49     		ldr	r1, .L619+12
 1323 0338 0978     		ldrb	r1, [r1]	@ zero_extendqisi2
 1324 033a A942     		cmp	r1, r5
 1325 033c 17D0     		beq	.L107
 1326              	.L106:
 1327              		.loc 1 436 0 discriminator 3
 1328 033e 9E49     		ldr	r1, .L619+16
 1329 0340 0978     		ldrb	r1, [r1]	@ zero_extendqisi2
 1330 0342 01F00F01 		and	r1, r1, #15
 1331 0346 8B42     		cmp	r3, r1
 1332 0348 03D1     		bne	.L108
 1333              		.loc 1 436 0 discriminator 4
 1334 034a 9C48     		ldr	r0, .L619+20
 1335 034c 0078     		ldrb	r0, [r0]	@ zero_extendqisi2
 1336 034e A842     		cmp	r0, r5
 1337 0350 0DD0     		beq	.L107
 1338              	.L108:
 1339              		.loc 1 436 0 discriminator 6
 1340 0352 8B42     		cmp	r3, r1
 1341 0354 03D1     		bne	.L109
 1342              		.loc 1 436 0 discriminator 7
 1343 0356 9A49     		ldr	r1, .L619+24
ARM GAS  C:\Users\diego\AppData\Local\Temp\cckx56kg.s 			page 34


 1344 0358 0978     		ldrb	r1, [r1]	@ zero_extendqisi2
 1345 035a A942     		cmp	r1, r5
 1346 035c 07D0     		beq	.L107
 1347              	.L109:
 1348              		.loc 1 436 0 discriminator 9
 1349 035e 9A42     		cmp	r2, r3
 1350 0360 40F0C080 		bne	.L110
 1351              		.loc 1 436 0 discriminator 10
 1352 0364 974B     		ldr	r3, .L619+28
 1353 0366 1B78     		ldrb	r3, [r3]	@ zero_extendqisi2
 1354 0368 AB42     		cmp	r3, r5
 1355 036a 40F0BB80 		bne	.L110
 1356              	.L107:
 437:.\protocolo.c **** 					for(x=0;x<=5;x++){									
 1357              		.loc 1 437 0 is_stmt 1
 1358 036e 0022     		movs	r2, #0
 1359 0370 954B     		ldr	r3, .L619+32
 1360 0372 1A60     		str	r2, [r3]
 1361 0374 08E0     		b	.L111
 1362              	.L112:
 438:.\protocolo.c **** 						write_psoc1(val,msn_tc[x]);
 1363              		.loc 1 438 0 discriminator 3
 1364 0376 2046     		mov	r0, r4
 1365 0378 944A     		ldr	r2, .L619+36
 1366 037a D15C     		ldrb	r1, [r2, r3]	@ zero_extendqisi2
 1367 037c FFF7FEFF 		bl	write_psoc1
 1368              	.LVL136:
 437:.\protocolo.c **** 					for(x=0;x<=5;x++){									
 1369              		.loc 1 437 0 discriminator 3
 1370 0380 914A     		ldr	r2, .L619+32
 1371 0382 1368     		ldr	r3, [r2]
 1372 0384 0133     		adds	r3, r3, #1
 1373 0386 1360     		str	r3, [r2]
 1374              	.L111:
 437:.\protocolo.c **** 					for(x=0;x<=5;x++){									
 1375              		.loc 1 437 0 is_stmt 0 discriminator 1
 1376 0388 8F4B     		ldr	r3, .L619+32
 1377 038a 1B68     		ldr	r3, [r3]
 1378 038c 052B     		cmp	r3, #5
 1379 038e F2D9     		bls	.L112
 439:.\protocolo.c **** 					}
 440:.\protocolo.c **** 					write_psoc1(val,10);
 1380              		.loc 1 440 0 is_stmt 1
 1381 0390 2046     		mov	r0, r4
 1382 0392 0A21     		movs	r1, #10
 1383 0394 FFF7FEFF 		bl	write_psoc1
 1384              	.LVL137:
 441:.\protocolo.c ****                     for(x=0;x<=10;x++){									
 1385              		.loc 1 441 0
 1386 0398 0022     		movs	r2, #0
 1387 039a 8B4B     		ldr	r3, .L619+32
 1388 039c 1A60     		str	r2, [r3]
 1389 039e 08E0     		b	.L113
 1390              	.L114:
 442:.\protocolo.c **** 						write_psoc1(val,producto2n[x]);
 1391              		.loc 1 442 0 discriminator 3
 1392 03a0 2046     		mov	r0, r4
ARM GAS  C:\Users\diego\AppData\Local\Temp\cckx56kg.s 			page 35


 1393 03a2 8B4A     		ldr	r2, .L619+40
 1394 03a4 D15C     		ldrb	r1, [r2, r3]	@ zero_extendqisi2
 1395 03a6 FFF7FEFF 		bl	write_psoc1
 1396              	.LVL138:
 441:.\protocolo.c ****                     for(x=0;x<=10;x++){									
 1397              		.loc 1 441 0 discriminator 3
 1398 03aa 874A     		ldr	r2, .L619+32
 1399 03ac 1368     		ldr	r3, [r2]
 1400 03ae 0133     		adds	r3, r3, #1
 1401 03b0 1360     		str	r3, [r2]
 1402              	.L113:
 441:.\protocolo.c ****                     for(x=0;x<=10;x++){									
 1403              		.loc 1 441 0 is_stmt 0 discriminator 1
 1404 03b2 854B     		ldr	r3, .L619+32
 1405 03b4 1B68     		ldr	r3, [r3]
 1406 03b6 0A2B     		cmp	r3, #10
 1407 03b8 F2D9     		bls	.L114
 443:.\protocolo.c **** 					}                    
 444:.\protocolo.c **** 					write_psoc1(val,10);
 1408              		.loc 1 444 0 is_stmt 1
 1409 03ba 2046     		mov	r0, r4
 1410 03bc 0A21     		movs	r1, #10
 1411 03be FFF7FEFF 		bl	write_psoc1
 1412              	.LVL139:
 445:.\protocolo.c **** 					for(x=0;x<=14;x++){									
 1413              		.loc 1 445 0
 1414 03c2 0022     		movs	r2, #0
 1415 03c4 804B     		ldr	r3, .L619+32
 1416 03c6 1A60     		str	r2, [r3]
 1417 03c8 09E0     		b	.L115
 1418              	.L116:
 446:.\protocolo.c **** 						write_psoc1(val,msn_lecact[x]);				//LECTURA ACTUAL
 1419              		.loc 1 446 0 discriminator 3
 1420 03ca 804A     		ldr	r2, .L619+36
 1421 03cc 1344     		add	r3, r3, r2
 1422 03ce 2046     		mov	r0, r4
 1423 03d0 197A     		ldrb	r1, [r3, #8]	@ zero_extendqisi2
 1424 03d2 FFF7FEFF 		bl	write_psoc1
 1425              	.LVL140:
 445:.\protocolo.c **** 					for(x=0;x<=14;x++){									
 1426              		.loc 1 445 0 discriminator 3
 1427 03d6 7C4A     		ldr	r2, .L619+32
 1428 03d8 1368     		ldr	r3, [r2]
 1429 03da 0133     		adds	r3, r3, #1
 1430 03dc 1360     		str	r3, [r2]
 1431              	.L115:
 445:.\protocolo.c **** 					for(x=0;x<=14;x++){									
 1432              		.loc 1 445 0 is_stmt 0 discriminator 1
 1433 03de 7A4B     		ldr	r3, .L619+32
 1434 03e0 1B68     		ldr	r3, [r3]
 1435 03e2 0E2B     		cmp	r3, #14
 1436 03e4 F1D9     		bls	.L116
 447:.\protocolo.c **** 					}
 448:.\protocolo.c **** 					write_psoc1(val,10);
 1437              		.loc 1 448 0 is_stmt 1
 1438 03e6 2046     		mov	r0, r4
 1439 03e8 0A21     		movs	r1, #10
ARM GAS  C:\Users\diego\AppData\Local\Temp\cckx56kg.s 			page 36


 1440 03ea FFF7FEFF 		bl	write_psoc1
 1441              	.LVL141:
 449:.\protocolo.c **** 					print_totalesac(8,val);	
 1442              		.loc 1 449 0
 1443 03ee 0820     		movs	r0, #8
 1444 03f0 2146     		mov	r1, r4
 1445 03f2 FFF7FEFF 		bl	print_totalesac
 1446              	.LVL142:
 450:.\protocolo.c **** 					for(x=0;x<=16;x++){												
 1447              		.loc 1 450 0
 1448 03f6 0022     		movs	r2, #0
 1449 03f8 734B     		ldr	r3, .L619+32
 1450 03fa 1A60     		str	r2, [r3]
 1451 03fc 09E0     		b	.L117
 1452              	.L118:
 451:.\protocolo.c **** 						write_psoc1(val,msn_lecaan[x]);				//LECTURA ANTERIOR
 1453              		.loc 1 451 0 discriminator 3
 1454 03fe 734A     		ldr	r2, .L619+36
 1455 0400 1344     		add	r3, r3, r2
 1456 0402 2046     		mov	r0, r4
 1457 0404 197E     		ldrb	r1, [r3, #24]	@ zero_extendqisi2
 1458 0406 FFF7FEFF 		bl	write_psoc1
 1459              	.LVL143:
 450:.\protocolo.c **** 					for(x=0;x<=16;x++){												
 1460              		.loc 1 450 0 discriminator 3
 1461 040a 6F4A     		ldr	r2, .L619+32
 1462 040c 1368     		ldr	r3, [r2]
 1463 040e 0133     		adds	r3, r3, #1
 1464 0410 1360     		str	r3, [r2]
 1465              	.L117:
 450:.\protocolo.c **** 					for(x=0;x<=16;x++){												
 1466              		.loc 1 450 0 is_stmt 0 discriminator 1
 1467 0412 6D4B     		ldr	r3, .L619+32
 1468 0414 1B68     		ldr	r3, [r3]
 1469 0416 102B     		cmp	r3, #16
 1470 0418 F1D9     		bls	.L118
 452:.\protocolo.c **** 					}
 453:.\protocolo.c **** 					write_psoc1(val,10);
 1471              		.loc 1 453 0 is_stmt 1
 1472 041a 2046     		mov	r0, r4
 1473 041c 0A21     		movs	r1, #10
 1474 041e FFF7FEFF 		bl	write_psoc1
 1475              	.LVL144:
 454:.\protocolo.c **** 					if(dir==a.dir){
 1476              		.loc 1 454 0
 1477 0422 644B     		ldr	r3, .L619+12
 1478 0424 1B78     		ldrb	r3, [r3]	@ zero_extendqisi2
 1479 0426 AB42     		cmp	r3, r5
 1480 0428 04D1     		bne	.L119
 455:.\protocolo.c **** 						leer_eeprom(217,25);
 1481              		.loc 1 455 0
 1482 042a D920     		movs	r0, #217
 1483 042c 1921     		movs	r1, #25
 1484 042e FFF7FEFF 		bl	leer_eeprom
 1485              	.LVL145:
 1486 0432 04E0     		b	.L120
 1487              	.L119:
ARM GAS  C:\Users\diego\AppData\Local\Temp\cckx56kg.s 			page 37


 456:.\protocolo.c **** 					}
 457:.\protocolo.c **** 					else{
 458:.\protocolo.c **** 						leer_eeprom(320,25);
 1488              		.loc 1 458 0
 1489 0434 4FF4A070 		mov	r0, #320
 1490 0438 1921     		movs	r1, #25
 1491 043a FFF7FEFF 		bl	leer_eeprom
 1492              	.LVL146:
 1493              	.L120:
 459:.\protocolo.c **** 					}
 460:.\protocolo.c **** 					print_totales(val);
 1494              		.loc 1 460 0
 1495 043e 2046     		mov	r0, r4
 1496 0440 FFF7FEFF 		bl	print_totales
 1497              	.LVL147:
 461:.\protocolo.c **** 					for(z=1;z<=8;z++){
 1498              		.loc 1 461 0
 1499 0444 0122     		movs	r2, #1
 1500 0446 634B     		ldr	r3, .L619+44
 1501 0448 1A60     		str	r2, [r3]
 1502 044a 10E0     		b	.L121
 1503              	.L122:
 462:.\protocolo.c **** 						minuendo[z]=rventa.tdinero[z-1];
 1504              		.loc 1 462 0 discriminator 3
 1505 044c 624A     		ldr	r2, .L619+48
 1506 044e 1A44     		add	r2, r2, r3
 1507 0450 92F8CA10 		ldrb	r1, [r2, #202]	@ zero_extendqisi2
 1508 0454 10AA     		add	r2, sp, #64
 1509 0456 1A44     		add	r2, r2, r3
 1510 0458 02F82C1C 		strb	r1, [r2, #-44]
 463:.\protocolo.c **** 						sustraendo[z]=buffer_i2c[z+8];
 1511              		.loc 1 463 0 discriminator 3
 1512 045c 03F10801 		add	r1, r3, #8
 1513 0460 5E48     		ldr	r0, .L619+52
 1514 0462 415C     		ldrb	r1, [r0, r1]	@ zero_extendqisi2
 1515 0464 02F83C1C 		strb	r1, [r2, #-60]
 461:.\protocolo.c **** 					for(z=1;z<=8;z++){
 1516              		.loc 1 461 0 discriminator 3
 1517 0468 0133     		adds	r3, r3, #1
 1518 046a 5A4A     		ldr	r2, .L619+44
 1519 046c 1360     		str	r3, [r2]
 1520              	.L121:
 461:.\protocolo.c **** 					for(z=1;z<=8;z++){
 1521              		.loc 1 461 0 is_stmt 0 discriminator 1
 1522 046e 594B     		ldr	r3, .L619+44
 1523 0470 1B68     		ldr	r3, [r3]
 1524 0472 082B     		cmp	r3, #8
 1525 0474 EAD9     		bls	.L122
 464:.\protocolo.c **** 					}
 465:.\protocolo.c **** 					minuendo[0]=8;
 1526              		.loc 1 465 0 is_stmt 1
 1527 0476 10A9     		add	r1, sp, #64
 1528 0478 0823     		movs	r3, #8
 1529 047a 01F82C3D 		strb	r3, [r1, #-44]!
 466:.\protocolo.c **** 					operacion(2,minuendo,sustraendo);
 1530              		.loc 1 466 0
 1531 047e 0220     		movs	r0, #2
ARM GAS  C:\Users\diego\AppData\Local\Temp\cckx56kg.s 			page 38


 1532 0480 01AA     		add	r2, sp, #4
 1533 0482 FFF7FEFF 		bl	operacion
 1534              	.LVL148:
 467:.\protocolo.c **** 					for(x=0;x<=17;x++){									
 1535              		.loc 1 467 0
 1536 0486 0022     		movs	r2, #0
 1537 0488 4F4B     		ldr	r3, .L619+32
 1538 048a 1A60     		str	r2, [r3]
 1539 048c 0AE0     		b	.L123
 1540              	.L124:
 468:.\protocolo.c **** 						write_psoc1(val,msn_tventas[x]);				//Total de ventas
 1541              		.loc 1 468 0 discriminator 3
 1542 048e 4F4A     		ldr	r2, .L619+36
 1543 0490 1344     		add	r3, r3, r2
 1544 0492 2046     		mov	r0, r4
 1545 0494 93F82C10 		ldrb	r1, [r3, #44]	@ zero_extendqisi2
 1546 0498 FFF7FEFF 		bl	write_psoc1
 1547              	.LVL149:
 467:.\protocolo.c **** 					for(x=0;x<=17;x++){									
 1548              		.loc 1 467 0 discriminator 3
 1549 049c 4A4A     		ldr	r2, .L619+32
 1550 049e 1368     		ldr	r3, [r2]
 1551 04a0 0133     		adds	r3, r3, #1
 1552 04a2 1360     		str	r3, [r2]
 1553              	.L123:
 467:.\protocolo.c **** 					for(x=0;x<=17;x++){									
 1554              		.loc 1 467 0 is_stmt 0 discriminator 1
 1555 04a4 484B     		ldr	r3, .L619+32
 1556 04a6 1B68     		ldr	r3, [r3]
 1557 04a8 112B     		cmp	r3, #17
 1558 04aa F0D9     		bls	.L124
 469:.\protocolo.c **** 					}
 470:.\protocolo.c **** 					print_valor(resultado,val);				
 1559              		.loc 1 470 0 is_stmt 1
 1560 04ac 3E48     		ldr	r0, .L619
 1561 04ae 2146     		mov	r1, r4
 1562 04b0 FFF7FEFF 		bl	print_valor
 1563              	.LVL150:
 471:.\protocolo.c **** 					if(dir==a.dir){
 1564              		.loc 1 471 0
 1565 04b4 3F4B     		ldr	r3, .L619+12
 1566 04b6 1B78     		ldrb	r3, [r3]	@ zero_extendqisi2
 1567 04b8 AB42     		cmp	r3, r5
 1568 04ba 09D1     		bne	.L125
 472:.\protocolo.c **** 						write_eeprom(217,corte);
 1569              		.loc 1 472 0
 1570 04bc D920     		movs	r0, #217
 1571 04be 09A9     		add	r1, sp, #36
 1572 04c0 FFF7FEFF 		bl	write_eeprom
 1573              	.LVL151:
 473:.\protocolo.c **** 						write_eeprom(538,resultado);
 1574              		.loc 1 473 0
 1575 04c4 40F21A20 		movw	r0, #538
 1576 04c8 3749     		ldr	r1, .L619
 1577 04ca FFF7FEFF 		bl	write_eeprom
 1578              	.LVL152:
 1579 04ce 09E0     		b	.L110
ARM GAS  C:\Users\diego\AppData\Local\Temp\cckx56kg.s 			page 39


 1580              	.L125:
 474:.\protocolo.c **** 					}
 475:.\protocolo.c **** 					else{
 476:.\protocolo.c **** 						write_eeprom(320,corte);
 1581              		.loc 1 476 0
 1582 04d0 4FF4A070 		mov	r0, #320
 1583 04d4 09A9     		add	r1, sp, #36
 1584 04d6 FFF7FEFF 		bl	write_eeprom
 1585              	.LVL153:
 477:.\protocolo.c **** 						write_eeprom(576,resultado);
 1586              		.loc 1 477 0
 1587 04da 4FF41070 		mov	r0, #576
 1588 04de 3249     		ldr	r1, .L619
 1589 04e0 FFF7FEFF 		bl	write_eeprom
 1590              	.LVL154:
 1591              	.L110:
 478:.\protocolo.c **** 					}				
 479:.\protocolo.c **** 				}
 480:.\protocolo.c **** 				if(((rventa.manguera==(producto3&0x0F))&&(dir==a.dir))||((rventa.manguera==(producto3b&0x0F))&&
 1592              		.loc 1 480 0
 1593 04e4 314B     		ldr	r3, .L619+4
 1594 04e6 93F8E020 		ldrb	r2, [r3, #224]	@ zero_extendqisi2
 1595 04ea 3D4B     		ldr	r3, .L619+56
 1596 04ec 1B78     		ldrb	r3, [r3]	@ zero_extendqisi2
 1597 04ee 03F00F03 		and	r3, r3, #15
 1598 04f2 9342     		cmp	r3, r2
 1599 04f4 03D1     		bne	.L126
 1600              		.loc 1 480 0 is_stmt 0 discriminator 1
 1601 04f6 2F4B     		ldr	r3, .L619+12
 1602 04f8 1B78     		ldrb	r3, [r3]	@ zero_extendqisi2
 1603 04fa AB42     		cmp	r3, r5
 1604 04fc 0BD0     		beq	.L127
 1605              	.L126:
 1606              		.loc 1 480 0 discriminator 3
 1607 04fe 394B     		ldr	r3, .L619+60
 1608 0500 1B78     		ldrb	r3, [r3]	@ zero_extendqisi2
 1609 0502 03F00F03 		and	r3, r3, #15
 1610 0506 9A42     		cmp	r2, r3
 1611 0508 40F0E580 		bne	.L128
 1612              		.loc 1 480 0 discriminator 4
 1613 050c 2B4B     		ldr	r3, .L619+20
 1614 050e 1B78     		ldrb	r3, [r3]	@ zero_extendqisi2
 1615 0510 AB42     		cmp	r3, r5
 1616 0512 40F0E080 		bne	.L128
 1617              	.L127:
 481:.\protocolo.c **** 					for(x=0;x<=5;x++){									
 1618              		.loc 1 481 0 is_stmt 1
 1619 0516 0022     		movs	r2, #0
 1620 0518 2B4B     		ldr	r3, .L619+32
 1621 051a 1A60     		str	r2, [r3]
 1622 051c 08E0     		b	.L129
 1623              	.L130:
 482:.\protocolo.c **** 						    write_psoc1(val,msn_tc[x]);
 1624              		.loc 1 482 0 discriminator 3
 1625 051e 2046     		mov	r0, r4
 1626 0520 2A4A     		ldr	r2, .L619+36
 1627 0522 D15C     		ldrb	r1, [r2, r3]	@ zero_extendqisi2
ARM GAS  C:\Users\diego\AppData\Local\Temp\cckx56kg.s 			page 40


 1628 0524 FFF7FEFF 		bl	write_psoc1
 1629              	.LVL155:
 481:.\protocolo.c **** 					for(x=0;x<=5;x++){									
 1630              		.loc 1 481 0 discriminator 3
 1631 0528 274A     		ldr	r2, .L619+32
 1632 052a 1368     		ldr	r3, [r2]
 1633 052c 0133     		adds	r3, r3, #1
 1634 052e 1360     		str	r3, [r2]
 1635              	.L129:
 481:.\protocolo.c **** 					for(x=0;x<=5;x++){									
 1636              		.loc 1 481 0 is_stmt 0 discriminator 1
 1637 0530 254B     		ldr	r3, .L619+32
 1638 0532 1B68     		ldr	r3, [r3]
 1639 0534 052B     		cmp	r3, #5
 1640 0536 F2D9     		bls	.L130
 483:.\protocolo.c **** 					    }
 484:.\protocolo.c **** 					    write_psoc1(val,10);
 1641              		.loc 1 484 0 is_stmt 1
 1642 0538 2046     		mov	r0, r4
 1643 053a 0A21     		movs	r1, #10
 1644 053c FFF7FEFF 		bl	write_psoc1
 1645              	.LVL156:
 485:.\protocolo.c ****                     for(x=0;x<=10;x++){									
 1646              		.loc 1 485 0
 1647 0540 0022     		movs	r2, #0
 1648 0542 214B     		ldr	r3, .L619+32
 1649 0544 1A60     		str	r2, [r3]
 1650 0546 08E0     		b	.L131
 1651              	.L132:
 486:.\protocolo.c **** 						    write_psoc1(val,producto3n[x]);
 1652              		.loc 1 486 0 discriminator 3
 1653 0548 2046     		mov	r0, r4
 1654 054a 274A     		ldr	r2, .L619+64
 1655 054c D15C     		ldrb	r1, [r2, r3]	@ zero_extendqisi2
 1656 054e FFF7FEFF 		bl	write_psoc1
 1657              	.LVL157:
 485:.\protocolo.c ****                     for(x=0;x<=10;x++){									
 1658              		.loc 1 485 0 discriminator 3
 1659 0552 1D4A     		ldr	r2, .L619+32
 1660 0554 1368     		ldr	r3, [r2]
 1661 0556 0133     		adds	r3, r3, #1
 1662 0558 1360     		str	r3, [r2]
 1663              	.L131:
 485:.\protocolo.c ****                     for(x=0;x<=10;x++){									
 1664              		.loc 1 485 0 is_stmt 0 discriminator 1
 1665 055a 1B4B     		ldr	r3, .L619+32
 1666 055c 1B68     		ldr	r3, [r3]
 1667 055e 0A2B     		cmp	r3, #10
 1668 0560 F2D9     		bls	.L132
 487:.\protocolo.c **** 					    }
 488:.\protocolo.c ****                     write_psoc1(val,10);
 1669              		.loc 1 488 0 is_stmt 1
 1670 0562 2046     		mov	r0, r4
 1671 0564 0A21     		movs	r1, #10
 1672 0566 FFF7FEFF 		bl	write_psoc1
 1673              	.LVL158:
 489:.\protocolo.c **** 					for(x=0;x<=14;x++){									
ARM GAS  C:\Users\diego\AppData\Local\Temp\cckx56kg.s 			page 41


 1674              		.loc 1 489 0
 1675 056a 0022     		movs	r2, #0
 1676 056c 164B     		ldr	r3, .L619+32
 1677 056e 1A60     		str	r2, [r3]
 1678 0570 09E0     		b	.L133
 1679              	.L134:
 490:.\protocolo.c **** 						write_psoc1(val,msn_lecact[x]);				//LECTURA ACTUAL
 1680              		.loc 1 490 0 discriminator 3
 1681 0572 164A     		ldr	r2, .L619+36
 1682 0574 1344     		add	r3, r3, r2
 1683 0576 2046     		mov	r0, r4
 1684 0578 197A     		ldrb	r1, [r3, #8]	@ zero_extendqisi2
 1685 057a FFF7FEFF 		bl	write_psoc1
 1686              	.LVL159:
 489:.\protocolo.c **** 					for(x=0;x<=14;x++){									
 1687              		.loc 1 489 0 discriminator 3
 1688 057e 124A     		ldr	r2, .L619+32
 1689 0580 1368     		ldr	r3, [r2]
 1690 0582 0133     		adds	r3, r3, #1
 1691 0584 1360     		str	r3, [r2]
 1692              	.L133:
 489:.\protocolo.c **** 					for(x=0;x<=14;x++){									
 1693              		.loc 1 489 0 is_stmt 0 discriminator 1
 1694 0586 104B     		ldr	r3, .L619+32
 1695 0588 1B68     		ldr	r3, [r3]
 1696 058a 0E2B     		cmp	r3, #14
 1697 058c F1D9     		bls	.L134
 491:.\protocolo.c **** 					}
 492:.\protocolo.c **** 					write_psoc1(val,10);
 1698              		.loc 1 492 0 is_stmt 1
 1699 058e 2046     		mov	r0, r4
 1700 0590 0A21     		movs	r1, #10
 1701 0592 FFF7FEFF 		bl	write_psoc1
 1702              	.LVL160:
 493:.\protocolo.c **** 					print_totalesac(8,val);	
 1703              		.loc 1 493 0
 1704 0596 0820     		movs	r0, #8
 1705 0598 2146     		mov	r1, r4
 1706 059a FFF7FEFF 		bl	print_totalesac
 1707              	.LVL161:
 494:.\protocolo.c **** 					for(x=0;x<=16;x++){												
 1708              		.loc 1 494 0
 1709 059e 0022     		movs	r2, #0
 1710 05a0 094B     		ldr	r3, .L619+32
 1711 05a2 1A60     		str	r2, [r3]
 1712 05a4 2CE0     		b	.L135
 1713              	.L620:
 1714 05a6 00BF     		.align	2
 1715              	.L619:
 1716 05a8 00000000 		.word	resultado
 1717 05ac 00000000 		.word	rventa
 1718 05b0 00000000 		.word	producto2
 1719 05b4 00000000 		.word	a
 1720 05b8 00000000 		.word	producto2b
 1721 05bc 00000000 		.word	b
 1722 05c0 00000000 		.word	d
 1723 05c4 00000000 		.word	c
ARM GAS  C:\Users\diego\AppData\Local\Temp\cckx56kg.s 			page 42


 1724 05c8 00000000 		.word	x
 1725 05cc 00000000 		.word	.LANCHOR1
 1726 05d0 00000000 		.word	producto2n
 1727 05d4 00000000 		.word	z
 1728 05d8 FFFFFFFF 		.word	rventa-1
 1729 05dc 00000000 		.word	buffer_i2c
 1730 05e0 00000000 		.word	producto3
 1731 05e4 00000000 		.word	producto3b
 1732 05e8 00000000 		.word	producto3n
 1733              	.L136:
 495:.\protocolo.c **** 						write_psoc1(val,msn_lecaan[x]);				//LECTURA ANTERIOR
 1734              		.loc 1 495 0 discriminator 3
 1735 05ec A74A     		ldr	r2, .L621
 1736 05ee 1344     		add	r3, r3, r2
 1737 05f0 2046     		mov	r0, r4
 1738 05f2 197E     		ldrb	r1, [r3, #24]	@ zero_extendqisi2
 1739 05f4 FFF7FEFF 		bl	write_psoc1
 1740              	.LVL162:
 494:.\protocolo.c **** 					for(x=0;x<=16;x++){												
 1741              		.loc 1 494 0 discriminator 3
 1742 05f8 A54A     		ldr	r2, .L621+4
 1743 05fa 1368     		ldr	r3, [r2]
 1744 05fc 0133     		adds	r3, r3, #1
 1745 05fe 1360     		str	r3, [r2]
 1746              	.L135:
 494:.\protocolo.c **** 					for(x=0;x<=16;x++){												
 1747              		.loc 1 494 0 is_stmt 0 discriminator 1
 1748 0600 A34B     		ldr	r3, .L621+4
 1749 0602 1B68     		ldr	r3, [r3]
 1750 0604 102B     		cmp	r3, #16
 1751 0606 F1D9     		bls	.L136
 496:.\protocolo.c **** 					}
 497:.\protocolo.c **** 					write_psoc1(val,10);
 1752              		.loc 1 497 0 is_stmt 1
 1753 0608 2046     		mov	r0, r4
 1754 060a 0A21     		movs	r1, #10
 1755 060c FFF7FEFF 		bl	write_psoc1
 1756              	.LVL163:
 498:.\protocolo.c **** 					if(dir==a.dir){
 1757              		.loc 1 498 0
 1758 0610 A04B     		ldr	r3, .L621+8
 1759 0612 1B78     		ldrb	r3, [r3]	@ zero_extendqisi2
 1760 0614 AB42     		cmp	r3, r5
 1761 0616 05D1     		bne	.L137
 499:.\protocolo.c **** 						leer_eeprom(256,25);
 1762              		.loc 1 499 0
 1763 0618 4FF48070 		mov	r0, #256
 1764 061c 1921     		movs	r1, #25
 1765 061e FFF7FEFF 		bl	leer_eeprom
 1766              	.LVL164:
 1767 0622 04E0     		b	.L138
 1768              	.L137:
 500:.\protocolo.c **** 					}
 501:.\protocolo.c **** 					else{
 502:.\protocolo.c **** 						leer_eeprom(345,25);
 1769              		.loc 1 502 0
 1770 0624 40F25910 		movw	r0, #345
ARM GAS  C:\Users\diego\AppData\Local\Temp\cckx56kg.s 			page 43


 1771 0628 1921     		movs	r1, #25
 1772 062a FFF7FEFF 		bl	leer_eeprom
 1773              	.LVL165:
 1774              	.L138:
 503:.\protocolo.c **** 					}
 504:.\protocolo.c **** 					print_totales(val);
 1775              		.loc 1 504 0
 1776 062e 2046     		mov	r0, r4
 1777 0630 FFF7FEFF 		bl	print_totales
 1778              	.LVL166:
 505:.\protocolo.c **** 					for(z=1;z<=8;z++){
 1779              		.loc 1 505 0
 1780 0634 0122     		movs	r2, #1
 1781 0636 984B     		ldr	r3, .L621+12
 1782 0638 1A60     		str	r2, [r3]
 1783 063a 10E0     		b	.L139
 1784              	.L140:
 506:.\protocolo.c **** 						minuendo[z]=rventa.tdinero[z-1];
 1785              		.loc 1 506 0 discriminator 3
 1786 063c 974A     		ldr	r2, .L621+16
 1787 063e 1A44     		add	r2, r2, r3
 1788 0640 92F8CA10 		ldrb	r1, [r2, #202]	@ zero_extendqisi2
 1789 0644 10AA     		add	r2, sp, #64
 1790 0646 1A44     		add	r2, r2, r3
 1791 0648 02F82C1C 		strb	r1, [r2, #-44]
 507:.\protocolo.c **** 						sustraendo[z]=buffer_i2c[z+8];
 1792              		.loc 1 507 0 discriminator 3
 1793 064c 03F10801 		add	r1, r3, #8
 1794 0650 9348     		ldr	r0, .L621+20
 1795 0652 415C     		ldrb	r1, [r0, r1]	@ zero_extendqisi2
 1796 0654 02F83C1C 		strb	r1, [r2, #-60]
 505:.\protocolo.c **** 					for(z=1;z<=8;z++){
 1797              		.loc 1 505 0 discriminator 3
 1798 0658 0133     		adds	r3, r3, #1
 1799 065a 8F4A     		ldr	r2, .L621+12
 1800 065c 1360     		str	r3, [r2]
 1801              	.L139:
 505:.\protocolo.c **** 					for(z=1;z<=8;z++){
 1802              		.loc 1 505 0 is_stmt 0 discriminator 1
 1803 065e 8E4B     		ldr	r3, .L621+12
 1804 0660 1B68     		ldr	r3, [r3]
 1805 0662 082B     		cmp	r3, #8
 1806 0664 EAD9     		bls	.L140
 508:.\protocolo.c **** 					}
 509:.\protocolo.c **** 					minuendo[0]=8;
 1807              		.loc 1 509 0 is_stmt 1
 1808 0666 10A9     		add	r1, sp, #64
 1809 0668 0823     		movs	r3, #8
 1810 066a 01F82C3D 		strb	r3, [r1, #-44]!
 510:.\protocolo.c **** 					operacion(2,minuendo,sustraendo);
 1811              		.loc 1 510 0
 1812 066e 0220     		movs	r0, #2
 1813 0670 01AA     		add	r2, sp, #4
 1814 0672 FFF7FEFF 		bl	operacion
 1815              	.LVL167:
 511:.\protocolo.c **** 					for(x=0;x<=17;x++){									
 1816              		.loc 1 511 0
ARM GAS  C:\Users\diego\AppData\Local\Temp\cckx56kg.s 			page 44


 1817 0676 0022     		movs	r2, #0
 1818 0678 854B     		ldr	r3, .L621+4
 1819 067a 1A60     		str	r2, [r3]
 1820 067c 0AE0     		b	.L141
 1821              	.L142:
 512:.\protocolo.c **** 						write_psoc1(val,msn_tventas[x]);				//Total de ventas
 1822              		.loc 1 512 0 discriminator 3
 1823 067e 834A     		ldr	r2, .L621
 1824 0680 1344     		add	r3, r3, r2
 1825 0682 2046     		mov	r0, r4
 1826 0684 93F82C10 		ldrb	r1, [r3, #44]	@ zero_extendqisi2
 1827 0688 FFF7FEFF 		bl	write_psoc1
 1828              	.LVL168:
 511:.\protocolo.c **** 					for(x=0;x<=17;x++){									
 1829              		.loc 1 511 0 discriminator 3
 1830 068c 804A     		ldr	r2, .L621+4
 1831 068e 1368     		ldr	r3, [r2]
 1832 0690 0133     		adds	r3, r3, #1
 1833 0692 1360     		str	r3, [r2]
 1834              	.L141:
 511:.\protocolo.c **** 					for(x=0;x<=17;x++){									
 1835              		.loc 1 511 0 is_stmt 0 discriminator 1
 1836 0694 7E4B     		ldr	r3, .L621+4
 1837 0696 1B68     		ldr	r3, [r3]
 1838 0698 112B     		cmp	r3, #17
 1839 069a F0D9     		bls	.L142
 513:.\protocolo.c **** 					}
 514:.\protocolo.c **** 					print_valor(resultado,val);							
 1840              		.loc 1 514 0 is_stmt 1
 1841 069c 8148     		ldr	r0, .L621+24
 1842 069e 2146     		mov	r1, r4
 1843 06a0 FFF7FEFF 		bl	print_valor
 1844              	.LVL169:
 515:.\protocolo.c **** 					if(dir==a.dir){
 1845              		.loc 1 515 0
 1846 06a4 7B4B     		ldr	r3, .L621+8
 1847 06a6 1B78     		ldrb	r3, [r3]	@ zero_extendqisi2
 1848 06a8 AB42     		cmp	r3, r5
 1849 06aa 0AD1     		bne	.L143
 516:.\protocolo.c **** 						write_eeprom(256,corte);
 1850              		.loc 1 516 0
 1851 06ac 4FF48070 		mov	r0, #256
 1852 06b0 09A9     		add	r1, sp, #36
 1853 06b2 FFF7FEFF 		bl	write_eeprom
 1854              	.LVL170:
 517:.\protocolo.c **** 						write_eeprom(525,resultado);
 1855              		.loc 1 517 0
 1856 06b6 40F20D20 		movw	r0, #525
 1857 06ba 7A49     		ldr	r1, .L621+24
 1858 06bc FFF7FEFF 		bl	write_eeprom
 1859              	.LVL171:
 1860 06c0 09E0     		b	.L128
 1861              	.L143:
 518:.\protocolo.c **** 					}
 519:.\protocolo.c **** 					else{
 520:.\protocolo.c **** 						write_eeprom(345,corte);
 1862              		.loc 1 520 0
ARM GAS  C:\Users\diego\AppData\Local\Temp\cckx56kg.s 			page 45


 1863 06c2 40F25910 		movw	r0, #345
 1864 06c6 09A9     		add	r1, sp, #36
 1865 06c8 FFF7FEFF 		bl	write_eeprom
 1866              	.LVL172:
 521:.\protocolo.c **** 						write_eeprom(589,resultado);
 1867              		.loc 1 521 0
 1868 06cc 40F24D20 		movw	r0, #589
 1869 06d0 7449     		ldr	r1, .L621+24
 1870 06d2 FFF7FEFF 		bl	write_eeprom
 1871              	.LVL173:
 1872              	.L128:
 522:.\protocolo.c **** 					}					
 523:.\protocolo.c **** 				}
 524:.\protocolo.c ****                 
 525:.\protocolo.c ****                 if(((rventa.manguera==(producto4&0x0F))&&(dir==a.dir))||((rventa.manguera==(product
 1873              		.loc 1 525 0
 1874 06d6 744B     		ldr	r3, .L621+28
 1875 06d8 93F8E020 		ldrb	r2, [r3, #224]	@ zero_extendqisi2
 1876 06dc 734B     		ldr	r3, .L621+32
 1877 06de 1B78     		ldrb	r3, [r3]	@ zero_extendqisi2
 1878 06e0 03F00F03 		and	r3, r3, #15
 1879 06e4 9342     		cmp	r3, r2
 1880 06e6 03D1     		bne	.L144
 1881              		.loc 1 525 0 is_stmt 0 discriminator 1
 1882 06e8 6A4B     		ldr	r3, .L621+8
 1883 06ea 1B78     		ldrb	r3, [r3]	@ zero_extendqisi2
 1884 06ec AB42     		cmp	r3, r5
 1885 06ee 0BD0     		beq	.L145
 1886              	.L144:
 1887              		.loc 1 525 0 discriminator 3
 1888 06f0 6F4B     		ldr	r3, .L621+36
 1889 06f2 1B78     		ldrb	r3, [r3]	@ zero_extendqisi2
 1890 06f4 03F00F03 		and	r3, r3, #15
 1891 06f8 9A42     		cmp	r2, r3
 1892 06fa 40F0C280 		bne	.L146
 1893              		.loc 1 525 0 discriminator 4
 1894 06fe 6D4B     		ldr	r3, .L621+40
 1895 0700 1B78     		ldrb	r3, [r3]	@ zero_extendqisi2
 1896 0702 AB42     		cmp	r3, r5
 1897 0704 40F0BD80 		bne	.L146
 1898              	.L145:
 526:.\protocolo.c **** 					for(x=0;x<=5;x++){									
 1899              		.loc 1 526 0 is_stmt 1
 1900 0708 0022     		movs	r2, #0
 1901 070a 614B     		ldr	r3, .L621+4
 1902 070c 1A60     		str	r2, [r3]
 1903 070e 08E0     		b	.L147
 1904              	.L148:
 527:.\protocolo.c **** 						    write_psoc1(val,msn_tc[x]);
 1905              		.loc 1 527 0 discriminator 3
 1906 0710 2046     		mov	r0, r4
 1907 0712 5E4A     		ldr	r2, .L621
 1908 0714 D15C     		ldrb	r1, [r2, r3]	@ zero_extendqisi2
 1909 0716 FFF7FEFF 		bl	write_psoc1
 1910              	.LVL174:
 526:.\protocolo.c **** 					for(x=0;x<=5;x++){									
 1911              		.loc 1 526 0 discriminator 3
ARM GAS  C:\Users\diego\AppData\Local\Temp\cckx56kg.s 			page 46


 1912 071a 5D4A     		ldr	r2, .L621+4
 1913 071c 1368     		ldr	r3, [r2]
 1914 071e 0133     		adds	r3, r3, #1
 1915 0720 1360     		str	r3, [r2]
 1916              	.L147:
 526:.\protocolo.c **** 					for(x=0;x<=5;x++){									
 1917              		.loc 1 526 0 is_stmt 0 discriminator 1
 1918 0722 5B4B     		ldr	r3, .L621+4
 1919 0724 1B68     		ldr	r3, [r3]
 1920 0726 052B     		cmp	r3, #5
 1921 0728 F2D9     		bls	.L148
 528:.\protocolo.c **** 					    }
 529:.\protocolo.c **** 					    write_psoc1(val,10);
 1922              		.loc 1 529 0 is_stmt 1
 1923 072a 2046     		mov	r0, r4
 1924 072c 0A21     		movs	r1, #10
 1925 072e FFF7FEFF 		bl	write_psoc1
 1926              	.LVL175:
 530:.\protocolo.c ****                     for(x=0;x<=10;x++){									
 1927              		.loc 1 530 0
 1928 0732 0022     		movs	r2, #0
 1929 0734 564B     		ldr	r3, .L621+4
 1930 0736 1A60     		str	r2, [r3]
 1931 0738 08E0     		b	.L149
 1932              	.L150:
 531:.\protocolo.c **** 						    write_psoc1(val,producto4n[x]);
 1933              		.loc 1 531 0 discriminator 3
 1934 073a 2046     		mov	r0, r4
 1935 073c 5E4A     		ldr	r2, .L621+44
 1936 073e D15C     		ldrb	r1, [r2, r3]	@ zero_extendqisi2
 1937 0740 FFF7FEFF 		bl	write_psoc1
 1938              	.LVL176:
 530:.\protocolo.c ****                     for(x=0;x<=10;x++){									
 1939              		.loc 1 530 0 discriminator 3
 1940 0744 524A     		ldr	r2, .L621+4
 1941 0746 1368     		ldr	r3, [r2]
 1942 0748 0133     		adds	r3, r3, #1
 1943 074a 1360     		str	r3, [r2]
 1944              	.L149:
 530:.\protocolo.c ****                     for(x=0;x<=10;x++){									
 1945              		.loc 1 530 0 is_stmt 0 discriminator 1
 1946 074c 504B     		ldr	r3, .L621+4
 1947 074e 1B68     		ldr	r3, [r3]
 1948 0750 0A2B     		cmp	r3, #10
 1949 0752 F2D9     		bls	.L150
 532:.\protocolo.c **** 					    }
 533:.\protocolo.c ****                     write_psoc1(val,10);
 1950              		.loc 1 533 0 is_stmt 1
 1951 0754 2046     		mov	r0, r4
 1952 0756 0A21     		movs	r1, #10
 1953 0758 FFF7FEFF 		bl	write_psoc1
 1954              	.LVL177:
 534:.\protocolo.c **** 					for(x=0;x<=14;x++){									
 1955              		.loc 1 534 0
 1956 075c 0022     		movs	r2, #0
 1957 075e 4C4B     		ldr	r3, .L621+4
 1958 0760 1A60     		str	r2, [r3]
ARM GAS  C:\Users\diego\AppData\Local\Temp\cckx56kg.s 			page 47


 1959 0762 09E0     		b	.L151
 1960              	.L152:
 535:.\protocolo.c **** 						write_psoc1(val,msn_lecact[x]);				//LECTURA ACTUAL
 1961              		.loc 1 535 0 discriminator 3
 1962 0764 494A     		ldr	r2, .L621
 1963 0766 1344     		add	r3, r3, r2
 1964 0768 2046     		mov	r0, r4
 1965 076a 197A     		ldrb	r1, [r3, #8]	@ zero_extendqisi2
 1966 076c FFF7FEFF 		bl	write_psoc1
 1967              	.LVL178:
 534:.\protocolo.c **** 					for(x=0;x<=14;x++){									
 1968              		.loc 1 534 0 discriminator 3
 1969 0770 474A     		ldr	r2, .L621+4
 1970 0772 1368     		ldr	r3, [r2]
 1971 0774 0133     		adds	r3, r3, #1
 1972 0776 1360     		str	r3, [r2]
 1973              	.L151:
 534:.\protocolo.c **** 					for(x=0;x<=14;x++){									
 1974              		.loc 1 534 0 is_stmt 0 discriminator 1
 1975 0778 454B     		ldr	r3, .L621+4
 1976 077a 1B68     		ldr	r3, [r3]
 1977 077c 0E2B     		cmp	r3, #14
 1978 077e F1D9     		bls	.L152
 536:.\protocolo.c **** 					}
 537:.\protocolo.c **** 					write_psoc1(val,10);
 1979              		.loc 1 537 0 is_stmt 1
 1980 0780 2046     		mov	r0, r4
 1981 0782 0A21     		movs	r1, #10
 1982 0784 FFF7FEFF 		bl	write_psoc1
 1983              	.LVL179:
 538:.\protocolo.c **** 					print_totalesac(8,val);	
 1984              		.loc 1 538 0
 1985 0788 0820     		movs	r0, #8
 1986 078a 2146     		mov	r1, r4
 1987 078c FFF7FEFF 		bl	print_totalesac
 1988              	.LVL180:
 539:.\protocolo.c **** 					for(x=0;x<=16;x++){												
 1989              		.loc 1 539 0
 1990 0790 0022     		movs	r2, #0
 1991 0792 3F4B     		ldr	r3, .L621+4
 1992 0794 1A60     		str	r2, [r3]
 1993 0796 09E0     		b	.L153
 1994              	.L154:
 540:.\protocolo.c **** 						write_psoc1(val,msn_lecaan[x]);				//LECTURA ANTERIOR
 1995              		.loc 1 540 0 discriminator 3
 1996 0798 3C4A     		ldr	r2, .L621
 1997 079a 1344     		add	r3, r3, r2
 1998 079c 2046     		mov	r0, r4
 1999 079e 197E     		ldrb	r1, [r3, #24]	@ zero_extendqisi2
 2000 07a0 FFF7FEFF 		bl	write_psoc1
 2001              	.LVL181:
 539:.\protocolo.c **** 					for(x=0;x<=16;x++){												
 2002              		.loc 1 539 0 discriminator 3
 2003 07a4 3A4A     		ldr	r2, .L621+4
 2004 07a6 1368     		ldr	r3, [r2]
 2005 07a8 0133     		adds	r3, r3, #1
 2006 07aa 1360     		str	r3, [r2]
ARM GAS  C:\Users\diego\AppData\Local\Temp\cckx56kg.s 			page 48


 2007              	.L153:
 539:.\protocolo.c **** 					for(x=0;x<=16;x++){												
 2008              		.loc 1 539 0 is_stmt 0 discriminator 1
 2009 07ac 384B     		ldr	r3, .L621+4
 2010 07ae 1B68     		ldr	r3, [r3]
 2011 07b0 102B     		cmp	r3, #16
 2012 07b2 F1D9     		bls	.L154
 541:.\protocolo.c **** 					}
 542:.\protocolo.c **** 					write_psoc1(val,10);
 2013              		.loc 1 542 0 is_stmt 1
 2014 07b4 2046     		mov	r0, r4
 2015 07b6 0A21     		movs	r1, #10
 2016 07b8 FFF7FEFF 		bl	write_psoc1
 2017              	.LVL182:
 543:.\protocolo.c **** 					if(dir==a.dir){
 2018              		.loc 1 543 0
 2019 07bc 354B     		ldr	r3, .L621+8
 2020 07be 1B78     		ldrb	r3, [r3]	@ zero_extendqisi2
 2021 07c0 AB42     		cmp	r3, r5
 2022 07c2 05D1     		bne	.L155
 544:.\protocolo.c **** 						leer_eeprom(1096,25);
 2023              		.loc 1 544 0
 2024 07c4 4FF48960 		mov	r0, #1096
 2025 07c8 1921     		movs	r1, #25
 2026 07ca FFF7FEFF 		bl	leer_eeprom
 2027              	.LVL183:
 2028 07ce 04E0     		b	.L156
 2029              	.L155:
 545:.\protocolo.c **** 					}
 546:.\protocolo.c **** 					else{
 547:.\protocolo.c **** 						leer_eeprom(1054,25);
 2030              		.loc 1 547 0
 2031 07d0 40F21E40 		movw	r0, #1054
 2032 07d4 1921     		movs	r1, #25
 2033 07d6 FFF7FEFF 		bl	leer_eeprom
 2034              	.LVL184:
 2035              	.L156:
 548:.\protocolo.c **** 					}
 549:.\protocolo.c **** 					print_totales(val);
 2036              		.loc 1 549 0
 2037 07da 2046     		mov	r0, r4
 2038 07dc FFF7FEFF 		bl	print_totales
 2039              	.LVL185:
 550:.\protocolo.c **** 					for(z=1;z<=8;z++){
 2040              		.loc 1 550 0
 2041 07e0 0122     		movs	r2, #1
 2042 07e2 2D4B     		ldr	r3, .L621+12
 2043 07e4 1A60     		str	r2, [r3]
 2044 07e6 10E0     		b	.L157
 2045              	.L158:
 551:.\protocolo.c **** 						minuendo[z]=rventa.tdinero[z-1];
 2046              		.loc 1 551 0 discriminator 3
 2047 07e8 2C4A     		ldr	r2, .L621+16
 2048 07ea 1A44     		add	r2, r2, r3
 2049 07ec 92F8CA10 		ldrb	r1, [r2, #202]	@ zero_extendqisi2
 2050 07f0 10AA     		add	r2, sp, #64
 2051 07f2 1A44     		add	r2, r2, r3
ARM GAS  C:\Users\diego\AppData\Local\Temp\cckx56kg.s 			page 49


 2052 07f4 02F82C1C 		strb	r1, [r2, #-44]
 552:.\protocolo.c **** 						sustraendo[z]=buffer_i2c[z+8];
 2053              		.loc 1 552 0 discriminator 3
 2054 07f8 03F10801 		add	r1, r3, #8
 2055 07fc 2848     		ldr	r0, .L621+20
 2056 07fe 415C     		ldrb	r1, [r0, r1]	@ zero_extendqisi2
 2057 0800 02F83C1C 		strb	r1, [r2, #-60]
 550:.\protocolo.c **** 					for(z=1;z<=8;z++){
 2058              		.loc 1 550 0 discriminator 3
 2059 0804 0133     		adds	r3, r3, #1
 2060 0806 244A     		ldr	r2, .L621+12
 2061 0808 1360     		str	r3, [r2]
 2062              	.L157:
 550:.\protocolo.c **** 					for(z=1;z<=8;z++){
 2063              		.loc 1 550 0 is_stmt 0 discriminator 1
 2064 080a 234B     		ldr	r3, .L621+12
 2065 080c 1B68     		ldr	r3, [r3]
 2066 080e 082B     		cmp	r3, #8
 2067 0810 EAD9     		bls	.L158
 553:.\protocolo.c **** 					}
 554:.\protocolo.c **** 					minuendo[0]=8;
 2068              		.loc 1 554 0 is_stmt 1
 2069 0812 10A9     		add	r1, sp, #64
 2070 0814 0823     		movs	r3, #8
 2071 0816 01F82C3D 		strb	r3, [r1, #-44]!
 555:.\protocolo.c **** 					operacion(2,minuendo,sustraendo);
 2072              		.loc 1 555 0
 2073 081a 0220     		movs	r0, #2
 2074 081c 01AA     		add	r2, sp, #4
 2075 081e FFF7FEFF 		bl	operacion
 2076              	.LVL186:
 556:.\protocolo.c **** 					for(x=0;x<=17;x++){									
 2077              		.loc 1 556 0
 2078 0822 0022     		movs	r2, #0
 2079 0824 1A4B     		ldr	r3, .L621+4
 2080 0826 1A60     		str	r2, [r3]
 2081 0828 0AE0     		b	.L159
 2082              	.L160:
 557:.\protocolo.c **** 						write_psoc1(val,msn_tventas[x]);				//Total de ventas
 2083              		.loc 1 557 0 discriminator 3
 2084 082a 184A     		ldr	r2, .L621
 2085 082c 1344     		add	r3, r3, r2
 2086 082e 2046     		mov	r0, r4
 2087 0830 93F82C10 		ldrb	r1, [r3, #44]	@ zero_extendqisi2
 2088 0834 FFF7FEFF 		bl	write_psoc1
 2089              	.LVL187:
 556:.\protocolo.c **** 					for(x=0;x<=17;x++){									
 2090              		.loc 1 556 0 discriminator 3
 2091 0838 154A     		ldr	r2, .L621+4
 2092 083a 1368     		ldr	r3, [r2]
 2093 083c 0133     		adds	r3, r3, #1
 2094 083e 1360     		str	r3, [r2]
 2095              	.L159:
 556:.\protocolo.c **** 					for(x=0;x<=17;x++){									
 2096              		.loc 1 556 0 is_stmt 0 discriminator 1
 2097 0840 134B     		ldr	r3, .L621+4
 2098 0842 1B68     		ldr	r3, [r3]
ARM GAS  C:\Users\diego\AppData\Local\Temp\cckx56kg.s 			page 50


 2099 0844 112B     		cmp	r3, #17
 2100 0846 F0D9     		bls	.L160
 558:.\protocolo.c **** 					}
 559:.\protocolo.c **** 					print_valor(resultado,val);							
 2101              		.loc 1 559 0 is_stmt 1
 2102 0848 1648     		ldr	r0, .L621+24
 2103 084a 2146     		mov	r1, r4
 2104 084c FFF7FEFF 		bl	print_valor
 2105              	.LVL188:
 560:.\protocolo.c **** 					if(dir==a.dir){
 2106              		.loc 1 560 0
 2107 0850 104B     		ldr	r3, .L621+8
 2108 0852 1B78     		ldrb	r3, [r3]	@ zero_extendqisi2
 2109 0854 AB42     		cmp	r3, r5
 2110 0856 0AD1     		bne	.L161
 561:.\protocolo.c **** 						write_eeprom(1096,corte);
 2111              		.loc 1 561 0
 2112 0858 4FF48960 		mov	r0, #1096
 2113 085c 09A9     		add	r1, sp, #36
 2114 085e FFF7FEFF 		bl	write_eeprom
 2115              	.LVL189:
 562:.\protocolo.c **** 						write_eeprom(1038,resultado);
 2116              		.loc 1 562 0
 2117 0862 40F20E40 		movw	r0, #1038
 2118 0866 0F49     		ldr	r1, .L621+24
 2119 0868 FFF7FEFF 		bl	write_eeprom
 2120              	.LVL190:
 2121 086c 09E0     		b	.L146
 2122              	.L161:
 563:.\protocolo.c **** 					}
 564:.\protocolo.c **** 					else{
 565:.\protocolo.c **** 						write_eeprom(1054,corte);
 2123              		.loc 1 565 0
 2124 086e 40F21E40 		movw	r0, #1054
 2125 0872 09A9     		add	r1, sp, #36
 2126 0874 FFF7FEFF 		bl	write_eeprom
 2127              	.LVL191:
 566:.\protocolo.c **** 						write_eeprom(1081,resultado);
 2128              		.loc 1 566 0
 2129 0878 40F23940 		movw	r0, #1081
 2130 087c 0949     		ldr	r1, .L621+24
 2131 087e FFF7FEFF 		bl	write_eeprom
 2132              	.LVL192:
 2133              	.L146:
 567:.\protocolo.c **** 					}					
 568:.\protocolo.c **** 				}
 569:.\protocolo.c **** 				
 570:.\protocolo.c **** 				Surtidor_ClearRxBuffer();
 2134              		.loc 1 570 0
 2135 0882 FFF7FEFF 		bl	Surtidor_ClearRxBuffer
 2136              	.LVL193:
 571:.\protocolo.c **** 				return 1;
 2137              		.loc 1 571 0
 2138 0886 0120     		movs	r0, #1
 2139 0888 02F0E8BD 		b	.L78
 2140              	.L622:
 2141              		.align	2
ARM GAS  C:\Users\diego\AppData\Local\Temp\cckx56kg.s 			page 51


 2142              	.L621:
 2143 088c 00000000 		.word	.LANCHOR1
 2144 0890 00000000 		.word	x
 2145 0894 00000000 		.word	a
 2146 0898 00000000 		.word	z
 2147 089c FFFFFFFF 		.word	rventa-1
 2148 08a0 00000000 		.word	buffer_i2c
 2149 08a4 00000000 		.word	resultado
 2150 08a8 00000000 		.word	rventa
 2151 08ac 00000000 		.word	producto4
 2152 08b0 00000000 		.word	producto4b
 2153 08b4 00000000 		.word	b
 2154 08b8 00000000 		.word	producto4n
 2155              	.L71:
 572:.\protocolo.c **** 			}
 573:.\protocolo.c **** 			else{
 574:.\protocolo.c **** 				return 0;
 575:.\protocolo.c **** 			}
 576:.\protocolo.c **** 		break;
 577:.\protocolo.c **** 
 578:.\protocolo.c **** 		case 64:
 579:.\protocolo.c **** 			if((Surtidor_rxBuffer[0]==0xFF)&&(Surtidor_rxBuffer[1]==0xF6)&&(Surtidor_rxBuffer[63]==0xF0)&&(S
 2156              		.loc 1 579 0
 2157 08bc A64B     		ldr	r3, .L623
 2158 08be 1B78     		ldrb	r3, [r3]	@ zero_extendqisi2
 2159 08c0 DBB2     		uxtb	r3, r3
 2160 08c2 FF2B     		cmp	r3, #255
 2161 08c4 42F0A385 		bne	.L596
 2162              		.loc 1 579 0 is_stmt 0 discriminator 1
 2163 08c8 A34B     		ldr	r3, .L623
 2164 08ca 5B78     		ldrb	r3, [r3, #1]	@ zero_extendqisi2
 2165 08cc DBB2     		uxtb	r3, r3
 2166 08ce F62B     		cmp	r3, #246
 2167 08d0 42F09F85 		bne	.L597
 2168              		.loc 1 579 0 discriminator 2
 2169 08d4 A04B     		ldr	r3, .L623
 2170 08d6 93F83F30 		ldrb	r3, [r3, #63]	@ zero_extendqisi2
 2171 08da DBB2     		uxtb	r3, r3
 2172 08dc F02B     		cmp	r3, #240
 2173 08de 42F09A85 		bne	.L598
 2174              		.loc 1 579 0 discriminator 3
 2175 08e2 9D4B     		ldr	r3, .L623
 2176 08e4 DB78     		ldrb	r3, [r3, #3]	@ zero_extendqisi2
 2177 08e6 DBB2     		uxtb	r3, r3
 2178 08e8 F92B     		cmp	r3, #249
 2179 08ea 42F09685 		bne	.L599
 580:.\protocolo.c **** 				for(y=0;y<=30;y+=30){
 2180              		.loc 1 580 0 is_stmt 1
 2181 08ee 0022     		movs	r2, #0
 2182 08f0 9A4B     		ldr	r3, .L623+4
 2183 08f2 1A60     		str	r2, [r3]
 2184 08f4 00F00FBC 		b	.L162
 2185              	.L247:
 581:.\protocolo.c **** 					rventa.manguera=(Surtidor_rxBuffer[y+2]&0x0F)+1;
 2186              		.loc 1 581 0
 2187 08f8 B31C     		adds	r3, r6, #2
 2188 08fa 974A     		ldr	r2, .L623
ARM GAS  C:\Users\diego\AppData\Local\Temp\cckx56kg.s 			page 52


 2189 08fc D15C     		ldrb	r1, [r2, r3]	@ zero_extendqisi2
 2190 08fe 01F00F01 		and	r1, r1, #15
 2191 0902 0131     		adds	r1, r1, #1
 2192 0904 964B     		ldr	r3, .L623+8
 2193 0906 83F8E010 		strb	r1, [r3, #224]
 582:.\protocolo.c **** 					for(x=0;x<=7;x++){
 2194              		.loc 1 582 0
 2195 090a 0022     		movs	r2, #0
 2196 090c 954B     		ldr	r3, .L623+12
 2197 090e 1A60     		str	r2, [r3]
 2198 0910 0CE0     		b	.L163
 2199              	.L164:
 583:.\protocolo.c **** 						rventa.tvolumen[x]=(Surtidor_rxBuffer[y+4+x]&0x0F);
 2200              		.loc 1 583 0 discriminator 3
 2201 0912 F218     		adds	r2, r6, r3
 2202 0914 0432     		adds	r2, r2, #4
 2203 0916 9048     		ldr	r0, .L623
 2204 0918 805C     		ldrb	r0, [r0, r2]	@ zero_extendqisi2
 2205 091a 914A     		ldr	r2, .L623+8
 2206 091c 1A44     		add	r2, r2, r3
 2207 091e 00F00F00 		and	r0, r0, #15
 2208 0922 82F8BD00 		strb	r0, [r2, #189]
 582:.\protocolo.c **** 					for(x=0;x<=7;x++){
 2209              		.loc 1 582 0 discriminator 3
 2210 0926 0133     		adds	r3, r3, #1
 2211 0928 8E4A     		ldr	r2, .L623+12
 2212 092a 1360     		str	r3, [r2]
 2213              	.L163:
 582:.\protocolo.c **** 					for(x=0;x<=7;x++){
 2214              		.loc 1 582 0 is_stmt 0 discriminator 1
 2215 092c 8D4B     		ldr	r3, .L623+12
 2216 092e 1B68     		ldr	r3, [r3]
 2217 0930 072B     		cmp	r3, #7
 2218 0932 EED9     		bls	.L164
 584:.\protocolo.c **** 					}
 585:.\protocolo.c **** 					for(x=0;x<=7;x++){
 2219              		.loc 1 585 0 is_stmt 1
 2220 0934 0022     		movs	r2, #0
 2221 0936 8B4B     		ldr	r3, .L623+12
 2222 0938 1A60     		str	r2, [r3]
 2223 093a 0CE0     		b	.L165
 2224              	.L166:
 586:.\protocolo.c **** 						rventa.tdinero[x]=(Surtidor_rxBuffer[y+13+x]&0x0F);
 2225              		.loc 1 586 0 discriminator 3
 2226 093c F218     		adds	r2, r6, r3
 2227 093e 0D32     		adds	r2, r2, #13
 2228 0940 8548     		ldr	r0, .L623
 2229 0942 805C     		ldrb	r0, [r0, r2]	@ zero_extendqisi2
 2230 0944 864A     		ldr	r2, .L623+8
 2231 0946 1A44     		add	r2, r2, r3
 2232 0948 00F00F00 		and	r0, r0, #15
 2233 094c 82F8CA00 		strb	r0, [r2, #202]
 585:.\protocolo.c **** 						rventa.tdinero[x]=(Surtidor_rxBuffer[y+13+x]&0x0F);
 2234              		.loc 1 585 0 discriminator 3
 2235 0950 0133     		adds	r3, r3, #1
 2236 0952 844A     		ldr	r2, .L623+12
 2237 0954 1360     		str	r3, [r2]
ARM GAS  C:\Users\diego\AppData\Local\Temp\cckx56kg.s 			page 53


 2238              	.L165:
 585:.\protocolo.c **** 						rventa.tdinero[x]=(Surtidor_rxBuffer[y+13+x]&0x0F);
 2239              		.loc 1 585 0 is_stmt 0 discriminator 1
 2240 0956 834B     		ldr	r3, .L623+12
 2241 0958 1B68     		ldr	r3, [r3]
 2242 095a 072B     		cmp	r3, #7
 2243 095c EED9     		bls	.L166
 587:.\protocolo.c ****                         
 588:.\protocolo.c **** 					}
 589:.\protocolo.c **** 					for(z=0;z<=7;z++){
 2244              		.loc 1 589 0 is_stmt 1
 2245 095e 0022     		movs	r2, #0
 2246 0960 814B     		ldr	r3, .L623+16
 2247 0962 1A60     		str	r2, [r3]
 2248 0964 0AE0     		b	.L167
 2249              	.L168:
 590:.\protocolo.c **** 						corte[z+1]=rventa.tvolumen[z];
 2250              		.loc 1 590 0 discriminator 3
 2251 0966 5A1C     		adds	r2, r3, #1
 2252 0968 7D48     		ldr	r0, .L623+8
 2253 096a 0344     		add	r3, r3, r0
 2254 096c 93F8BD00 		ldrb	r0, [r3, #189]	@ zero_extendqisi2
 2255 0970 10AB     		add	r3, sp, #64
 2256 0972 1344     		add	r3, r3, r2
 2257 0974 03F81C0C 		strb	r0, [r3, #-28]
 589:.\protocolo.c **** 						corte[z+1]=rventa.tvolumen[z];
 2258              		.loc 1 589 0 discriminator 3
 2259 0978 7B4B     		ldr	r3, .L623+16
 2260 097a 1A60     		str	r2, [r3]
 2261              	.L167:
 589:.\protocolo.c **** 						corte[z+1]=rventa.tvolumen[z];
 2262              		.loc 1 589 0 is_stmt 0 discriminator 1
 2263 097c 7A4B     		ldr	r3, .L623+16
 2264 097e 1B68     		ldr	r3, [r3]
 2265 0980 072B     		cmp	r3, #7
 2266 0982 F0D9     		bls	.L168
 591:.\protocolo.c **** 					}
 592:.\protocolo.c **** 					for(z=9;z<=16;z++){
 2267              		.loc 1 592 0 is_stmt 1
 2268 0984 0922     		movs	r2, #9
 2269 0986 784B     		ldr	r3, .L623+16
 2270 0988 1A60     		str	r2, [r3]
 2271 098a 0AE0     		b	.L169
 2272              	.L170:
 593:.\protocolo.c **** 						corte[z]=rventa.tdinero[z-9];
 2273              		.loc 1 593 0 discriminator 3
 2274 098c 774A     		ldr	r2, .L623+20
 2275 098e 1A44     		add	r2, r2, r3
 2276 0990 92F8CA00 		ldrb	r0, [r2, #202]	@ zero_extendqisi2
 2277 0994 10AA     		add	r2, sp, #64
 2278 0996 1A44     		add	r2, r2, r3
 2279 0998 02F81C0C 		strb	r0, [r2, #-28]
 592:.\protocolo.c **** 						corte[z]=rventa.tdinero[z-9];
 2280              		.loc 1 592 0 discriminator 3
 2281 099c 0133     		adds	r3, r3, #1
 2282 099e 724A     		ldr	r2, .L623+16
 2283 09a0 1360     		str	r3, [r2]
ARM GAS  C:\Users\diego\AppData\Local\Temp\cckx56kg.s 			page 54


 2284              	.L169:
 592:.\protocolo.c **** 						corte[z]=rventa.tdinero[z-9];
 2285              		.loc 1 592 0 is_stmt 0 discriminator 1
 2286 09a2 714B     		ldr	r3, .L623+16
 2287 09a4 1B68     		ldr	r3, [r3]
 2288 09a6 102B     		cmp	r3, #16
 2289 09a8 F0D9     		bls	.L170
 594:.\protocolo.c **** 					}
 595:.\protocolo.c **** 					corte[0]=16;							
 2290              		.loc 1 595 0 is_stmt 1
 2291 09aa 1023     		movs	r3, #16
 2292 09ac 8DF82430 		strb	r3, [sp, #36]
 596:.\protocolo.c **** 					if(((rventa.manguera==(producto1&0x0F))&&(dir==a.dir))||((rventa.manguera==(producto1b&0x0F))&
 2293              		.loc 1 596 0
 2294 09b0 6F4B     		ldr	r3, .L623+24
 2295 09b2 1B78     		ldrb	r3, [r3]	@ zero_extendqisi2
 2296 09b4 03F00F03 		and	r3, r3, #15
 2297 09b8 8B42     		cmp	r3, r1
 2298 09ba 03D1     		bne	.L171
 2299              		.loc 1 596 0 is_stmt 0 discriminator 1
 2300 09bc 6D4A     		ldr	r2, .L623+28
 2301 09be 1278     		ldrb	r2, [r2]	@ zero_extendqisi2
 2302 09c0 AA42     		cmp	r2, r5
 2303 09c2 17D0     		beq	.L172
 2304              	.L171:
 2305              		.loc 1 596 0 discriminator 3
 2306 09c4 6C4A     		ldr	r2, .L623+32
 2307 09c6 1278     		ldrb	r2, [r2]	@ zero_extendqisi2
 2308 09c8 02F00F02 		and	r2, r2, #15
 2309 09cc 9142     		cmp	r1, r2
 2310 09ce 03D1     		bne	.L173
 2311              		.loc 1 596 0 discriminator 4
 2312 09d0 6A48     		ldr	r0, .L623+36
 2313 09d2 0078     		ldrb	r0, [r0]	@ zero_extendqisi2
 2314 09d4 A842     		cmp	r0, r5
 2315 09d6 0DD0     		beq	.L172
 2316              	.L173:
 2317              		.loc 1 596 0 discriminator 6
 2318 09d8 8B42     		cmp	r3, r1
 2319 09da 03D1     		bne	.L174
 2320              		.loc 1 596 0 discriminator 7
 2321 09dc 684B     		ldr	r3, .L623+40
 2322 09de 1B78     		ldrb	r3, [r3]	@ zero_extendqisi2
 2323 09e0 AB42     		cmp	r3, r5
 2324 09e2 07D0     		beq	.L172
 2325              	.L174:
 2326              		.loc 1 596 0 discriminator 9
 2327 09e4 9142     		cmp	r1, r2
 2328 09e6 40F0E380 		bne	.L175
 2329              		.loc 1 596 0 discriminator 10
 2330 09ea 664B     		ldr	r3, .L623+44
 2331 09ec 1B78     		ldrb	r3, [r3]	@ zero_extendqisi2
 2332 09ee AB42     		cmp	r3, r5
 2333 09f0 40F0DE80 		bne	.L175
 2334              	.L172:
 597:.\protocolo.c **** 						for(x=0;x<=5;x++){									
 2335              		.loc 1 597 0 is_stmt 1
ARM GAS  C:\Users\diego\AppData\Local\Temp\cckx56kg.s 			page 55


 2336 09f4 0022     		movs	r2, #0
 2337 09f6 5B4B     		ldr	r3, .L623+12
 2338 09f8 1A60     		str	r2, [r3]
 2339 09fa 08E0     		b	.L176
 2340              	.L177:
 598:.\protocolo.c **** 							write_psoc1(val,msn_tc[x]);
 2341              		.loc 1 598 0 discriminator 3
 2342 09fc 2046     		mov	r0, r4
 2343 09fe 624A     		ldr	r2, .L623+48
 2344 0a00 D15C     		ldrb	r1, [r2, r3]	@ zero_extendqisi2
 2345 0a02 FFF7FEFF 		bl	write_psoc1
 2346              	.LVL194:
 597:.\protocolo.c **** 						for(x=0;x<=5;x++){									
 2347              		.loc 1 597 0 discriminator 3
 2348 0a06 574A     		ldr	r2, .L623+12
 2349 0a08 1368     		ldr	r3, [r2]
 2350 0a0a 0133     		adds	r3, r3, #1
 2351 0a0c 1360     		str	r3, [r2]
 2352              	.L176:
 597:.\protocolo.c **** 						for(x=0;x<=5;x++){									
 2353              		.loc 1 597 0 is_stmt 0 discriminator 1
 2354 0a0e 554B     		ldr	r3, .L623+12
 2355 0a10 1B68     		ldr	r3, [r3]
 2356 0a12 052B     		cmp	r3, #5
 2357 0a14 F2D9     		bls	.L177
 599:.\protocolo.c **** 						}
 600:.\protocolo.c **** 						write_psoc1(val,10);
 2358              		.loc 1 600 0 is_stmt 1
 2359 0a16 2046     		mov	r0, r4
 2360 0a18 0A21     		movs	r1, #10
 2361 0a1a FFF7FEFF 		bl	write_psoc1
 2362              	.LVL195:
 601:.\protocolo.c ****                         for(x=0;x<=10;x++){									
 2363              		.loc 1 601 0
 2364 0a1e 0022     		movs	r2, #0
 2365 0a20 504B     		ldr	r3, .L623+12
 2366 0a22 1A60     		str	r2, [r3]
 2367 0a24 08E0     		b	.L178
 2368              	.L179:
 602:.\protocolo.c **** 						write_psoc1(val,producto1n[x]);
 2369              		.loc 1 602 0 discriminator 3
 2370 0a26 2046     		mov	r0, r4
 2371 0a28 584A     		ldr	r2, .L623+52
 2372 0a2a D15C     		ldrb	r1, [r2, r3]	@ zero_extendqisi2
 2373 0a2c FFF7FEFF 		bl	write_psoc1
 2374              	.LVL196:
 601:.\protocolo.c ****                         for(x=0;x<=10;x++){									
 2375              		.loc 1 601 0 discriminator 3
 2376 0a30 4C4A     		ldr	r2, .L623+12
 2377 0a32 1368     		ldr	r3, [r2]
 2378 0a34 0133     		adds	r3, r3, #1
 2379 0a36 1360     		str	r3, [r2]
 2380              	.L178:
 601:.\protocolo.c ****                         for(x=0;x<=10;x++){									
 2381              		.loc 1 601 0 is_stmt 0 discriminator 1
 2382 0a38 4A4B     		ldr	r3, .L623+12
 2383 0a3a 1B68     		ldr	r3, [r3]
ARM GAS  C:\Users\diego\AppData\Local\Temp\cckx56kg.s 			page 56


 2384 0a3c 0A2B     		cmp	r3, #10
 2385 0a3e F2D9     		bls	.L179
 603:.\protocolo.c **** 					    }
 604:.\protocolo.c ****                         write_psoc1(val,10);
 2386              		.loc 1 604 0 is_stmt 1
 2387 0a40 2046     		mov	r0, r4
 2388 0a42 0A21     		movs	r1, #10
 2389 0a44 FFF7FEFF 		bl	write_psoc1
 2390              	.LVL197:
 605:.\protocolo.c **** 						for(x=0;x<=14;x++){									
 2391              		.loc 1 605 0
 2392 0a48 0022     		movs	r2, #0
 2393 0a4a 464B     		ldr	r3, .L623+12
 2394 0a4c 1A60     		str	r2, [r3]
 2395 0a4e 09E0     		b	.L180
 2396              	.L181:
 606:.\protocolo.c **** 							write_psoc1(val,msn_lecact[x]);				//LECTURA ACTUAL
 2397              		.loc 1 606 0 discriminator 3
 2398 0a50 4D4A     		ldr	r2, .L623+48
 2399 0a52 1344     		add	r3, r3, r2
 2400 0a54 2046     		mov	r0, r4
 2401 0a56 197A     		ldrb	r1, [r3, #8]	@ zero_extendqisi2
 2402 0a58 FFF7FEFF 		bl	write_psoc1
 2403              	.LVL198:
 605:.\protocolo.c **** 						for(x=0;x<=14;x++){									
 2404              		.loc 1 605 0 discriminator 3
 2405 0a5c 414A     		ldr	r2, .L623+12
 2406 0a5e 1368     		ldr	r3, [r2]
 2407 0a60 0133     		adds	r3, r3, #1
 2408 0a62 1360     		str	r3, [r2]
 2409              	.L180:
 605:.\protocolo.c **** 						for(x=0;x<=14;x++){									
 2410              		.loc 1 605 0 is_stmt 0 discriminator 1
 2411 0a64 3F4B     		ldr	r3, .L623+12
 2412 0a66 1B68     		ldr	r3, [r3]
 2413 0a68 0E2B     		cmp	r3, #14
 2414 0a6a F1D9     		bls	.L181
 607:.\protocolo.c **** 						}
 608:.\protocolo.c **** 						write_psoc1(val,10);
 2415              		.loc 1 608 0 is_stmt 1
 2416 0a6c 2046     		mov	r0, r4
 2417 0a6e 0A21     		movs	r1, #10
 2418 0a70 FFF7FEFF 		bl	write_psoc1
 2419              	.LVL199:
 609:.\protocolo.c **** 						print_totalesac(8,val);	
 2420              		.loc 1 609 0
 2421 0a74 0820     		movs	r0, #8
 2422 0a76 2146     		mov	r1, r4
 2423 0a78 FFF7FEFF 		bl	print_totalesac
 2424              	.LVL200:
 610:.\protocolo.c **** 						for(x=0;x<=16;x++){												
 2425              		.loc 1 610 0
 2426 0a7c 0022     		movs	r2, #0
 2427 0a7e 394B     		ldr	r3, .L623+12
 2428 0a80 1A60     		str	r2, [r3]
 2429 0a82 09E0     		b	.L182
 2430              	.L183:
ARM GAS  C:\Users\diego\AppData\Local\Temp\cckx56kg.s 			page 57


 611:.\protocolo.c **** 							write_psoc1(val,msn_lecaan[x]);				//LECTURA ANTERIOR
 2431              		.loc 1 611 0 discriminator 3
 2432 0a84 404A     		ldr	r2, .L623+48
 2433 0a86 1344     		add	r3, r3, r2
 2434 0a88 2046     		mov	r0, r4
 2435 0a8a 197E     		ldrb	r1, [r3, #24]	@ zero_extendqisi2
 2436 0a8c FFF7FEFF 		bl	write_psoc1
 2437              	.LVL201:
 610:.\protocolo.c **** 						for(x=0;x<=16;x++){												
 2438              		.loc 1 610 0 discriminator 3
 2439 0a90 344A     		ldr	r2, .L623+12
 2440 0a92 1368     		ldr	r3, [r2]
 2441 0a94 0133     		adds	r3, r3, #1
 2442 0a96 1360     		str	r3, [r2]
 2443              	.L182:
 610:.\protocolo.c **** 						for(x=0;x<=16;x++){												
 2444              		.loc 1 610 0 is_stmt 0 discriminator 1
 2445 0a98 324B     		ldr	r3, .L623+12
 2446 0a9a 1B68     		ldr	r3, [r3]
 2447 0a9c 102B     		cmp	r3, #16
 2448 0a9e F1D9     		bls	.L183
 612:.\protocolo.c **** 						}
 613:.\protocolo.c **** 						write_psoc1(val,10);
 2449              		.loc 1 613 0 is_stmt 1
 2450 0aa0 2046     		mov	r0, r4
 2451 0aa2 0A21     		movs	r1, #10
 2452 0aa4 FFF7FEFF 		bl	write_psoc1
 2453              	.LVL202:
 614:.\protocolo.c **** 						if(dir==a.dir){
 2454              		.loc 1 614 0
 2455 0aa8 324B     		ldr	r3, .L623+28
 2456 0aaa 1B78     		ldrb	r3, [r3]	@ zero_extendqisi2
 2457 0aac AB42     		cmp	r3, r5
 2458 0aae 04D1     		bne	.L184
 615:.\protocolo.c **** 							leer_eeprom(192,25);
 2459              		.loc 1 615 0
 2460 0ab0 C020     		movs	r0, #192
 2461 0ab2 1921     		movs	r1, #25
 2462 0ab4 FFF7FEFF 		bl	leer_eeprom
 2463              	.LVL203:
 2464 0ab8 04E0     		b	.L185
 2465              	.L184:
 616:.\protocolo.c **** 						}
 617:.\protocolo.c **** 						else{
 618:.\protocolo.c **** 							leer_eeprom(281,25);
 2466              		.loc 1 618 0
 2467 0aba 40F21910 		movw	r0, #281
 2468 0abe 1921     		movs	r1, #25
 2469 0ac0 FFF7FEFF 		bl	leer_eeprom
 2470              	.LVL204:
 2471              	.L185:
 619:.\protocolo.c **** 						}
 620:.\protocolo.c **** 						print_totales(val);
 2472              		.loc 1 620 0
 2473 0ac4 2046     		mov	r0, r4
 2474 0ac6 FFF7FEFF 		bl	print_totales
 2475              	.LVL205:
ARM GAS  C:\Users\diego\AppData\Local\Temp\cckx56kg.s 			page 58


 621:.\protocolo.c **** 						for(z=1;z<=8;z++){
 2476              		.loc 1 621 0
 2477 0aca 0122     		movs	r2, #1
 2478 0acc 264B     		ldr	r3, .L623+16
 2479 0ace 1A60     		str	r2, [r3]
 2480 0ad0 10E0     		b	.L186
 2481              	.L187:
 622:.\protocolo.c **** 							minuendo[z]=rventa.tdinero[z-1];
 2482              		.loc 1 622 0 discriminator 3
 2483 0ad2 2F4A     		ldr	r2, .L623+56
 2484 0ad4 1A44     		add	r2, r2, r3
 2485 0ad6 92F8CA10 		ldrb	r1, [r2, #202]	@ zero_extendqisi2
 2486 0ada 10AA     		add	r2, sp, #64
 2487 0adc 1A44     		add	r2, r2, r3
 2488 0ade 02F82C1C 		strb	r1, [r2, #-44]
 623:.\protocolo.c **** 							sustraendo[z]=buffer_i2c[z+8];
 2489              		.loc 1 623 0 discriminator 3
 2490 0ae2 03F10801 		add	r1, r3, #8
 2491 0ae6 2B48     		ldr	r0, .L623+60
 2492 0ae8 415C     		ldrb	r1, [r0, r1]	@ zero_extendqisi2
 2493 0aea 02F83C1C 		strb	r1, [r2, #-60]
 621:.\protocolo.c **** 						for(z=1;z<=8;z++){
 2494              		.loc 1 621 0 discriminator 3
 2495 0aee 0133     		adds	r3, r3, #1
 2496 0af0 1D4A     		ldr	r2, .L623+16
 2497 0af2 1360     		str	r3, [r2]
 2498              	.L186:
 621:.\protocolo.c **** 						for(z=1;z<=8;z++){
 2499              		.loc 1 621 0 is_stmt 0 discriminator 1
 2500 0af4 1C4B     		ldr	r3, .L623+16
 2501 0af6 1B68     		ldr	r3, [r3]
 2502 0af8 082B     		cmp	r3, #8
 2503 0afa EAD9     		bls	.L187
 624:.\protocolo.c **** 						}
 625:.\protocolo.c **** 						minuendo[0]=8;
 2504              		.loc 1 625 0 is_stmt 1
 2505 0afc 10A9     		add	r1, sp, #64
 2506 0afe 0823     		movs	r3, #8
 2507 0b00 01F82C3D 		strb	r3, [r1, #-44]!
 626:.\protocolo.c **** 						operacion(2,minuendo,sustraendo);
 2508              		.loc 1 626 0
 2509 0b04 0220     		movs	r0, #2
 2510 0b06 01AA     		add	r2, sp, #4
 2511 0b08 FFF7FEFF 		bl	operacion
 2512              	.LVL206:
 627:.\protocolo.c **** 						for(x=0;x<=17;x++){									
 2513              		.loc 1 627 0
 2514 0b0c 0022     		movs	r2, #0
 2515 0b0e 154B     		ldr	r3, .L623+12
 2516 0b10 1A60     		str	r2, [r3]
 2517 0b12 0AE0     		b	.L188
 2518              	.L189:
 628:.\protocolo.c **** 							write_psoc1(val,msn_tventas[x]);				//Total de ventas
 2519              		.loc 1 628 0 discriminator 3
 2520 0b14 1C4A     		ldr	r2, .L623+48
 2521 0b16 1344     		add	r3, r3, r2
 2522 0b18 2046     		mov	r0, r4
ARM GAS  C:\Users\diego\AppData\Local\Temp\cckx56kg.s 			page 59


 2523 0b1a 93F82C10 		ldrb	r1, [r3, #44]	@ zero_extendqisi2
 2524 0b1e FFF7FEFF 		bl	write_psoc1
 2525              	.LVL207:
 627:.\protocolo.c **** 						for(x=0;x<=17;x++){									
 2526              		.loc 1 627 0 discriminator 3
 2527 0b22 104A     		ldr	r2, .L623+12
 2528 0b24 1368     		ldr	r3, [r2]
 2529 0b26 0133     		adds	r3, r3, #1
 2530 0b28 1360     		str	r3, [r2]
 2531              	.L188:
 627:.\protocolo.c **** 						for(x=0;x<=17;x++){									
 2532              		.loc 1 627 0 is_stmt 0 discriminator 1
 2533 0b2a 0E4B     		ldr	r3, .L623+12
 2534 0b2c 1B68     		ldr	r3, [r3]
 2535 0b2e 112B     		cmp	r3, #17
 2536 0b30 F0D9     		bls	.L189
 629:.\protocolo.c **** 						}
 630:.\protocolo.c **** 						print_valor(resultado,val);
 2537              		.loc 1 630 0 is_stmt 1
 2538 0b32 1948     		ldr	r0, .L623+64
 2539 0b34 2146     		mov	r1, r4
 2540 0b36 FFF7FEFF 		bl	print_valor
 2541              	.LVL208:
 631:.\protocolo.c **** 						if(dir==a.dir){
 2542              		.loc 1 631 0
 2543 0b3a 0E4B     		ldr	r3, .L623+28
 2544 0b3c 1B78     		ldrb	r3, [r3]	@ zero_extendqisi2
 2545 0b3e AB42     		cmp	r3, r5
 2546 0b40 2CD1     		bne	.L190
 632:.\protocolo.c **** 							write_eeprom(192,corte);	
 2547              		.loc 1 632 0
 2548 0b42 C020     		movs	r0, #192
 2549 0b44 09A9     		add	r1, sp, #36
 2550 0b46 FFF7FEFF 		bl	write_eeprom
 2551              	.LVL209:
 633:.\protocolo.c **** 							write_eeprom(512,resultado);
 2552              		.loc 1 633 0
 2553 0b4a 4FF40070 		mov	r0, #512
 2554 0b4e 1249     		ldr	r1, .L623+64
 2555 0b50 FFF7FEFF 		bl	write_eeprom
 2556              	.LVL210:
 2557 0b54 2CE0     		b	.L175
 2558              	.L624:
 2559 0b56 00BF     		.align	2
 2560              	.L623:
 2561 0b58 00000000 		.word	Surtidor_rxBuffer
 2562 0b5c 00000000 		.word	y
 2563 0b60 00000000 		.word	rventa
 2564 0b64 00000000 		.word	x
 2565 0b68 00000000 		.word	z
 2566 0b6c F7FFFFFF 		.word	rventa-9
 2567 0b70 00000000 		.word	producto1
 2568 0b74 00000000 		.word	a
 2569 0b78 00000000 		.word	producto1b
 2570 0b7c 00000000 		.word	b
 2571 0b80 00000000 		.word	c
 2572 0b84 00000000 		.word	d
ARM GAS  C:\Users\diego\AppData\Local\Temp\cckx56kg.s 			page 60


 2573 0b88 00000000 		.word	.LANCHOR1
 2574 0b8c 00000000 		.word	producto1n
 2575 0b90 FFFFFFFF 		.word	rventa-1
 2576 0b94 00000000 		.word	buffer_i2c
 2577 0b98 00000000 		.word	resultado
 2578              	.L190:
 634:.\protocolo.c **** 						}
 635:.\protocolo.c **** 						else{
 636:.\protocolo.c **** 							write_eeprom(281,corte);
 2579              		.loc 1 636 0
 2580 0b9c 40F21910 		movw	r0, #281
 2581 0ba0 09A9     		add	r1, sp, #36
 2582 0ba2 FFF7FEFF 		bl	write_eeprom
 2583              	.LVL211:
 637:.\protocolo.c **** 							write_eeprom(551,resultado);
 2584              		.loc 1 637 0
 2585 0ba6 40F22720 		movw	r0, #551
 2586 0baa A249     		ldr	r1, .L625
 2587 0bac FFF7FEFF 		bl	write_eeprom
 2588              	.LVL212:
 2589              	.L175:
 638:.\protocolo.c **** 						}
 639:.\protocolo.c **** 					}
 640:.\protocolo.c **** 					if(((rventa.manguera==(producto2&0x0F))&&(dir==a.dir))||((rventa.manguera==(producto2b&0x0F))&
 2590              		.loc 1 640 0
 2591 0bb0 A14B     		ldr	r3, .L625+4
 2592 0bb2 93F8E010 		ldrb	r1, [r3, #224]	@ zero_extendqisi2
 2593 0bb6 A14B     		ldr	r3, .L625+8
 2594 0bb8 1B78     		ldrb	r3, [r3]	@ zero_extendqisi2
 2595 0bba 03F00F03 		and	r3, r3, #15
 2596 0bbe 8B42     		cmp	r3, r1
 2597 0bc0 03D1     		bne	.L191
 2598              		.loc 1 640 0 is_stmt 0 discriminator 1
 2599 0bc2 9F4A     		ldr	r2, .L625+12
 2600 0bc4 1278     		ldrb	r2, [r2]	@ zero_extendqisi2
 2601 0bc6 AA42     		cmp	r2, r5
 2602 0bc8 17D0     		beq	.L192
 2603              	.L191:
 2604              		.loc 1 640 0 discriminator 3
 2605 0bca 9E4A     		ldr	r2, .L625+16
 2606 0bcc 1278     		ldrb	r2, [r2]	@ zero_extendqisi2
 2607 0bce 02F00F02 		and	r2, r2, #15
 2608 0bd2 9142     		cmp	r1, r2
 2609 0bd4 03D1     		bne	.L193
 2610              		.loc 1 640 0 discriminator 4
 2611 0bd6 9C48     		ldr	r0, .L625+20
 2612 0bd8 0078     		ldrb	r0, [r0]	@ zero_extendqisi2
 2613 0bda A842     		cmp	r0, r5
 2614 0bdc 0DD0     		beq	.L192
 2615              	.L193:
 2616              		.loc 1 640 0 discriminator 6
 2617 0bde 9142     		cmp	r1, r2
 2618 0be0 03D1     		bne	.L194
 2619              		.loc 1 640 0 discriminator 7
 2620 0be2 9A4A     		ldr	r2, .L625+24
 2621 0be4 1278     		ldrb	r2, [r2]	@ zero_extendqisi2
 2622 0be6 AA42     		cmp	r2, r5
ARM GAS  C:\Users\diego\AppData\Local\Temp\cckx56kg.s 			page 61


 2623 0be8 07D0     		beq	.L192
 2624              	.L194:
 2625              		.loc 1 640 0 discriminator 9
 2626 0bea 8B42     		cmp	r3, r1
 2627 0bec 40F0C080 		bne	.L195
 2628              		.loc 1 640 0 discriminator 10
 2629 0bf0 974B     		ldr	r3, .L625+28
 2630 0bf2 1B78     		ldrb	r3, [r3]	@ zero_extendqisi2
 2631 0bf4 AB42     		cmp	r3, r5
 2632 0bf6 40F0BB80 		bne	.L195
 2633              	.L192:
 641:.\protocolo.c **** 						for(x=0;x<=5;x++){									
 2634              		.loc 1 641 0 is_stmt 1
 2635 0bfa 0022     		movs	r2, #0
 2636 0bfc 954B     		ldr	r3, .L625+32
 2637 0bfe 1A60     		str	r2, [r3]
 2638 0c00 08E0     		b	.L196
 2639              	.L197:
 642:.\protocolo.c **** 						    write_psoc1(val,msn_tc[x]);
 2640              		.loc 1 642 0 discriminator 3
 2641 0c02 2046     		mov	r0, r4
 2642 0c04 944A     		ldr	r2, .L625+36
 2643 0c06 D15C     		ldrb	r1, [r2, r3]	@ zero_extendqisi2
 2644 0c08 FFF7FEFF 		bl	write_psoc1
 2645              	.LVL213:
 641:.\protocolo.c **** 						for(x=0;x<=5;x++){									
 2646              		.loc 1 641 0 discriminator 3
 2647 0c0c 914A     		ldr	r2, .L625+32
 2648 0c0e 1368     		ldr	r3, [r2]
 2649 0c10 0133     		adds	r3, r3, #1
 2650 0c12 1360     		str	r3, [r2]
 2651              	.L196:
 641:.\protocolo.c **** 						for(x=0;x<=5;x++){									
 2652              		.loc 1 641 0 is_stmt 0 discriminator 1
 2653 0c14 8F4B     		ldr	r3, .L625+32
 2654 0c16 1B68     		ldr	r3, [r3]
 2655 0c18 052B     		cmp	r3, #5
 2656 0c1a F2D9     		bls	.L197
 643:.\protocolo.c **** 					    }
 644:.\protocolo.c **** 					    write_psoc1(val,10);
 2657              		.loc 1 644 0 is_stmt 1
 2658 0c1c 2046     		mov	r0, r4
 2659 0c1e 0A21     		movs	r1, #10
 2660 0c20 FFF7FEFF 		bl	write_psoc1
 2661              	.LVL214:
 645:.\protocolo.c ****                         for(x=0;x<=10;x++){									
 2662              		.loc 1 645 0
 2663 0c24 0022     		movs	r2, #0
 2664 0c26 8B4B     		ldr	r3, .L625+32
 2665 0c28 1A60     		str	r2, [r3]
 2666 0c2a 08E0     		b	.L198
 2667              	.L199:
 646:.\protocolo.c **** 						    write_psoc1(val,producto2n[x]);
 2668              		.loc 1 646 0 discriminator 3
 2669 0c2c 2046     		mov	r0, r4
 2670 0c2e 8B4A     		ldr	r2, .L625+40
 2671 0c30 D15C     		ldrb	r1, [r2, r3]	@ zero_extendqisi2
ARM GAS  C:\Users\diego\AppData\Local\Temp\cckx56kg.s 			page 62


 2672 0c32 FFF7FEFF 		bl	write_psoc1
 2673              	.LVL215:
 645:.\protocolo.c ****                         for(x=0;x<=10;x++){									
 2674              		.loc 1 645 0 discriminator 3
 2675 0c36 874A     		ldr	r2, .L625+32
 2676 0c38 1368     		ldr	r3, [r2]
 2677 0c3a 0133     		adds	r3, r3, #1
 2678 0c3c 1360     		str	r3, [r2]
 2679              	.L198:
 645:.\protocolo.c ****                         for(x=0;x<=10;x++){									
 2680              		.loc 1 645 0 is_stmt 0 discriminator 1
 2681 0c3e 854B     		ldr	r3, .L625+32
 2682 0c40 1B68     		ldr	r3, [r3]
 2683 0c42 0A2B     		cmp	r3, #10
 2684 0c44 F2D9     		bls	.L199
 647:.\protocolo.c **** 					    }
 648:.\protocolo.c ****                         write_psoc1(val,10);
 2685              		.loc 1 648 0 is_stmt 1
 2686 0c46 2046     		mov	r0, r4
 2687 0c48 0A21     		movs	r1, #10
 2688 0c4a FFF7FEFF 		bl	write_psoc1
 2689              	.LVL216:
 649:.\protocolo.c **** 						for(x=0;x<=14;x++){									
 2690              		.loc 1 649 0
 2691 0c4e 0022     		movs	r2, #0
 2692 0c50 804B     		ldr	r3, .L625+32
 2693 0c52 1A60     		str	r2, [r3]
 2694 0c54 09E0     		b	.L200
 2695              	.L201:
 650:.\protocolo.c **** 							write_psoc1(val,msn_lecact[x]);				//LECTURA ACTUAL
 2696              		.loc 1 650 0 discriminator 3
 2697 0c56 804A     		ldr	r2, .L625+36
 2698 0c58 1344     		add	r3, r3, r2
 2699 0c5a 2046     		mov	r0, r4
 2700 0c5c 197A     		ldrb	r1, [r3, #8]	@ zero_extendqisi2
 2701 0c5e FFF7FEFF 		bl	write_psoc1
 2702              	.LVL217:
 649:.\protocolo.c **** 						for(x=0;x<=14;x++){									
 2703              		.loc 1 649 0 discriminator 3
 2704 0c62 7C4A     		ldr	r2, .L625+32
 2705 0c64 1368     		ldr	r3, [r2]
 2706 0c66 0133     		adds	r3, r3, #1
 2707 0c68 1360     		str	r3, [r2]
 2708              	.L200:
 649:.\protocolo.c **** 						for(x=0;x<=14;x++){									
 2709              		.loc 1 649 0 is_stmt 0 discriminator 1
 2710 0c6a 7A4B     		ldr	r3, .L625+32
 2711 0c6c 1B68     		ldr	r3, [r3]
 2712 0c6e 0E2B     		cmp	r3, #14
 2713 0c70 F1D9     		bls	.L201
 651:.\protocolo.c **** 						}
 652:.\protocolo.c **** 						write_psoc1(val,10);
 2714              		.loc 1 652 0 is_stmt 1
 2715 0c72 2046     		mov	r0, r4
 2716 0c74 0A21     		movs	r1, #10
 2717 0c76 FFF7FEFF 		bl	write_psoc1
 2718              	.LVL218:
ARM GAS  C:\Users\diego\AppData\Local\Temp\cckx56kg.s 			page 63


 653:.\protocolo.c **** 						print_totalesac(8,val);	
 2719              		.loc 1 653 0
 2720 0c7a 0820     		movs	r0, #8
 2721 0c7c 2146     		mov	r1, r4
 2722 0c7e FFF7FEFF 		bl	print_totalesac
 2723              	.LVL219:
 654:.\protocolo.c **** 						for(x=0;x<=16;x++){												
 2724              		.loc 1 654 0
 2725 0c82 0022     		movs	r2, #0
 2726 0c84 734B     		ldr	r3, .L625+32
 2727 0c86 1A60     		str	r2, [r3]
 2728 0c88 09E0     		b	.L202
 2729              	.L203:
 655:.\protocolo.c **** 							write_psoc1(val,msn_lecaan[x]);				//LECTURA ANTERIOR
 2730              		.loc 1 655 0 discriminator 3
 2731 0c8a 734A     		ldr	r2, .L625+36
 2732 0c8c 1344     		add	r3, r3, r2
 2733 0c8e 2046     		mov	r0, r4
 2734 0c90 197E     		ldrb	r1, [r3, #24]	@ zero_extendqisi2
 2735 0c92 FFF7FEFF 		bl	write_psoc1
 2736              	.LVL220:
 654:.\protocolo.c **** 						for(x=0;x<=16;x++){												
 2737              		.loc 1 654 0 discriminator 3
 2738 0c96 6F4A     		ldr	r2, .L625+32
 2739 0c98 1368     		ldr	r3, [r2]
 2740 0c9a 0133     		adds	r3, r3, #1
 2741 0c9c 1360     		str	r3, [r2]
 2742              	.L202:
 654:.\protocolo.c **** 						for(x=0;x<=16;x++){												
 2743              		.loc 1 654 0 is_stmt 0 discriminator 1
 2744 0c9e 6D4B     		ldr	r3, .L625+32
 2745 0ca0 1B68     		ldr	r3, [r3]
 2746 0ca2 102B     		cmp	r3, #16
 2747 0ca4 F1D9     		bls	.L203
 656:.\protocolo.c **** 						}
 657:.\protocolo.c **** 						write_psoc1(val,10);
 2748              		.loc 1 657 0 is_stmt 1
 2749 0ca6 2046     		mov	r0, r4
 2750 0ca8 0A21     		movs	r1, #10
 2751 0caa FFF7FEFF 		bl	write_psoc1
 2752              	.LVL221:
 658:.\protocolo.c **** 						if(dir==a.dir){
 2753              		.loc 1 658 0
 2754 0cae 644B     		ldr	r3, .L625+12
 2755 0cb0 1B78     		ldrb	r3, [r3]	@ zero_extendqisi2
 2756 0cb2 AB42     		cmp	r3, r5
 2757 0cb4 04D1     		bne	.L204
 659:.\protocolo.c **** 							leer_eeprom(217,25);
 2758              		.loc 1 659 0
 2759 0cb6 D920     		movs	r0, #217
 2760 0cb8 1921     		movs	r1, #25
 2761 0cba FFF7FEFF 		bl	leer_eeprom
 2762              	.LVL222:
 2763 0cbe 04E0     		b	.L205
 2764              	.L204:
 660:.\protocolo.c **** 						}
 661:.\protocolo.c **** 						else{
ARM GAS  C:\Users\diego\AppData\Local\Temp\cckx56kg.s 			page 64


 662:.\protocolo.c **** 							leer_eeprom(320,25);
 2765              		.loc 1 662 0
 2766 0cc0 4FF4A070 		mov	r0, #320
 2767 0cc4 1921     		movs	r1, #25
 2768 0cc6 FFF7FEFF 		bl	leer_eeprom
 2769              	.LVL223:
 2770              	.L205:
 663:.\protocolo.c **** 						}
 664:.\protocolo.c **** 						print_totales(val);
 2771              		.loc 1 664 0
 2772 0cca 2046     		mov	r0, r4
 2773 0ccc FFF7FEFF 		bl	print_totales
 2774              	.LVL224:
 665:.\protocolo.c **** 						for(z=1;z<=8;z++){
 2775              		.loc 1 665 0
 2776 0cd0 0122     		movs	r2, #1
 2777 0cd2 634B     		ldr	r3, .L625+44
 2778 0cd4 1A60     		str	r2, [r3]
 2779 0cd6 10E0     		b	.L206
 2780              	.L207:
 666:.\protocolo.c **** 							minuendo[z]=rventa.tdinero[z-1];
 2781              		.loc 1 666 0 discriminator 3
 2782 0cd8 624A     		ldr	r2, .L625+48
 2783 0cda 1A44     		add	r2, r2, r3
 2784 0cdc 92F8CA10 		ldrb	r1, [r2, #202]	@ zero_extendqisi2
 2785 0ce0 10AA     		add	r2, sp, #64
 2786 0ce2 1A44     		add	r2, r2, r3
 2787 0ce4 02F82C1C 		strb	r1, [r2, #-44]
 667:.\protocolo.c **** 							sustraendo[z]=buffer_i2c[z+8];
 2788              		.loc 1 667 0 discriminator 3
 2789 0ce8 03F10801 		add	r1, r3, #8
 2790 0cec 5E48     		ldr	r0, .L625+52
 2791 0cee 415C     		ldrb	r1, [r0, r1]	@ zero_extendqisi2
 2792 0cf0 02F83C1C 		strb	r1, [r2, #-60]
 665:.\protocolo.c **** 						for(z=1;z<=8;z++){
 2793              		.loc 1 665 0 discriminator 3
 2794 0cf4 0133     		adds	r3, r3, #1
 2795 0cf6 5A4A     		ldr	r2, .L625+44
 2796 0cf8 1360     		str	r3, [r2]
 2797              	.L206:
 665:.\protocolo.c **** 						for(z=1;z<=8;z++){
 2798              		.loc 1 665 0 is_stmt 0 discriminator 1
 2799 0cfa 594B     		ldr	r3, .L625+44
 2800 0cfc 1B68     		ldr	r3, [r3]
 2801 0cfe 082B     		cmp	r3, #8
 2802 0d00 EAD9     		bls	.L207
 668:.\protocolo.c **** 						}
 669:.\protocolo.c **** 						minuendo[0]=8;
 2803              		.loc 1 669 0 is_stmt 1
 2804 0d02 10A9     		add	r1, sp, #64
 2805 0d04 0823     		movs	r3, #8
 2806 0d06 01F82C3D 		strb	r3, [r1, #-44]!
 670:.\protocolo.c **** 						operacion(2,minuendo,sustraendo);
 2807              		.loc 1 670 0
 2808 0d0a 0220     		movs	r0, #2
 2809 0d0c 01AA     		add	r2, sp, #4
 2810 0d0e FFF7FEFF 		bl	operacion
ARM GAS  C:\Users\diego\AppData\Local\Temp\cckx56kg.s 			page 65


 2811              	.LVL225:
 671:.\protocolo.c **** 						for(x=0;x<=17;x++){									
 2812              		.loc 1 671 0
 2813 0d12 0022     		movs	r2, #0
 2814 0d14 4F4B     		ldr	r3, .L625+32
 2815 0d16 1A60     		str	r2, [r3]
 2816 0d18 0AE0     		b	.L208
 2817              	.L209:
 672:.\protocolo.c **** 							write_psoc1(val,msn_tventas[x]);				//Total de ventas
 2818              		.loc 1 672 0 discriminator 3
 2819 0d1a 4F4A     		ldr	r2, .L625+36
 2820 0d1c 1344     		add	r3, r3, r2
 2821 0d1e 2046     		mov	r0, r4
 2822 0d20 93F82C10 		ldrb	r1, [r3, #44]	@ zero_extendqisi2
 2823 0d24 FFF7FEFF 		bl	write_psoc1
 2824              	.LVL226:
 671:.\protocolo.c **** 						for(x=0;x<=17;x++){									
 2825              		.loc 1 671 0 discriminator 3
 2826 0d28 4A4A     		ldr	r2, .L625+32
 2827 0d2a 1368     		ldr	r3, [r2]
 2828 0d2c 0133     		adds	r3, r3, #1
 2829 0d2e 1360     		str	r3, [r2]
 2830              	.L208:
 671:.\protocolo.c **** 						for(x=0;x<=17;x++){									
 2831              		.loc 1 671 0 is_stmt 0 discriminator 1
 2832 0d30 484B     		ldr	r3, .L625+32
 2833 0d32 1B68     		ldr	r3, [r3]
 2834 0d34 112B     		cmp	r3, #17
 2835 0d36 F0D9     		bls	.L209
 673:.\protocolo.c **** 						}
 674:.\protocolo.c **** 						print_valor(resultado,val);				
 2836              		.loc 1 674 0 is_stmt 1
 2837 0d38 3E48     		ldr	r0, .L625
 2838 0d3a 2146     		mov	r1, r4
 2839 0d3c FFF7FEFF 		bl	print_valor
 2840              	.LVL227:
 675:.\protocolo.c **** 						if(dir==a.dir){
 2841              		.loc 1 675 0
 2842 0d40 3F4B     		ldr	r3, .L625+12
 2843 0d42 1B78     		ldrb	r3, [r3]	@ zero_extendqisi2
 2844 0d44 AB42     		cmp	r3, r5
 2845 0d46 09D1     		bne	.L210
 676:.\protocolo.c **** 							write_eeprom(217,corte);
 2846              		.loc 1 676 0
 2847 0d48 D920     		movs	r0, #217
 2848 0d4a 09A9     		add	r1, sp, #36
 2849 0d4c FFF7FEFF 		bl	write_eeprom
 2850              	.LVL228:
 677:.\protocolo.c **** 							write_eeprom(538,resultado);
 2851              		.loc 1 677 0
 2852 0d50 40F21A20 		movw	r0, #538
 2853 0d54 3749     		ldr	r1, .L625
 2854 0d56 FFF7FEFF 		bl	write_eeprom
 2855              	.LVL229:
 2856 0d5a 09E0     		b	.L195
 2857              	.L210:
 678:.\protocolo.c **** 						}
ARM GAS  C:\Users\diego\AppData\Local\Temp\cckx56kg.s 			page 66


 679:.\protocolo.c **** 						else{
 680:.\protocolo.c **** 							write_eeprom(320,corte);
 2858              		.loc 1 680 0
 2859 0d5c 4FF4A070 		mov	r0, #320
 2860 0d60 09A9     		add	r1, sp, #36
 2861 0d62 FFF7FEFF 		bl	write_eeprom
 2862              	.LVL230:
 681:.\protocolo.c **** 							write_eeprom(576,resultado);
 2863              		.loc 1 681 0
 2864 0d66 4FF41070 		mov	r0, #576
 2865 0d6a 3249     		ldr	r1, .L625
 2866 0d6c FFF7FEFF 		bl	write_eeprom
 2867              	.LVL231:
 2868              	.L195:
 682:.\protocolo.c **** 						}				
 683:.\protocolo.c **** 					}
 684:.\protocolo.c **** 					if(((rventa.manguera==(producto3&0x0F))&&(dir==a.dir))||((rventa.manguera==(producto3b&0x0F))&
 2869              		.loc 1 684 0
 2870 0d70 314B     		ldr	r3, .L625+4
 2871 0d72 93F8E020 		ldrb	r2, [r3, #224]	@ zero_extendqisi2
 2872 0d76 3D4B     		ldr	r3, .L625+56
 2873 0d78 1B78     		ldrb	r3, [r3]	@ zero_extendqisi2
 2874 0d7a 03F00F03 		and	r3, r3, #15
 2875 0d7e 9342     		cmp	r3, r2
 2876 0d80 03D1     		bne	.L211
 2877              		.loc 1 684 0 is_stmt 0 discriminator 1
 2878 0d82 2F4B     		ldr	r3, .L625+12
 2879 0d84 1B78     		ldrb	r3, [r3]	@ zero_extendqisi2
 2880 0d86 AB42     		cmp	r3, r5
 2881 0d88 0BD0     		beq	.L212
 2882              	.L211:
 2883              		.loc 1 684 0 discriminator 3
 2884 0d8a 394B     		ldr	r3, .L625+60
 2885 0d8c 1B78     		ldrb	r3, [r3]	@ zero_extendqisi2
 2886 0d8e 03F00F03 		and	r3, r3, #15
 2887 0d92 9A42     		cmp	r2, r3
 2888 0d94 40F0E580 		bne	.L213
 2889              		.loc 1 684 0 discriminator 4
 2890 0d98 2B4B     		ldr	r3, .L625+20
 2891 0d9a 1B78     		ldrb	r3, [r3]	@ zero_extendqisi2
 2892 0d9c AB42     		cmp	r3, r5
 2893 0d9e 40F0E080 		bne	.L213
 2894              	.L212:
 685:.\protocolo.c **** 						for(x=0;x<=5;x++){									
 2895              		.loc 1 685 0 is_stmt 1
 2896 0da2 0022     		movs	r2, #0
 2897 0da4 2B4B     		ldr	r3, .L625+32
 2898 0da6 1A60     		str	r2, [r3]
 2899 0da8 08E0     		b	.L214
 2900              	.L215:
 686:.\protocolo.c **** 						    write_psoc1(val,msn_tc[x]);
 2901              		.loc 1 686 0 discriminator 3
 2902 0daa 2046     		mov	r0, r4
 2903 0dac 2A4A     		ldr	r2, .L625+36
 2904 0dae D15C     		ldrb	r1, [r2, r3]	@ zero_extendqisi2
 2905 0db0 FFF7FEFF 		bl	write_psoc1
 2906              	.LVL232:
ARM GAS  C:\Users\diego\AppData\Local\Temp\cckx56kg.s 			page 67


 685:.\protocolo.c **** 						for(x=0;x<=5;x++){									
 2907              		.loc 1 685 0 discriminator 3
 2908 0db4 274A     		ldr	r2, .L625+32
 2909 0db6 1368     		ldr	r3, [r2]
 2910 0db8 0133     		adds	r3, r3, #1
 2911 0dba 1360     		str	r3, [r2]
 2912              	.L214:
 685:.\protocolo.c **** 						for(x=0;x<=5;x++){									
 2913              		.loc 1 685 0 is_stmt 0 discriminator 1
 2914 0dbc 254B     		ldr	r3, .L625+32
 2915 0dbe 1B68     		ldr	r3, [r3]
 2916 0dc0 052B     		cmp	r3, #5
 2917 0dc2 F2D9     		bls	.L215
 687:.\protocolo.c **** 					    }
 688:.\protocolo.c **** 					    write_psoc1(val,10);
 2918              		.loc 1 688 0 is_stmt 1
 2919 0dc4 2046     		mov	r0, r4
 2920 0dc6 0A21     		movs	r1, #10
 2921 0dc8 FFF7FEFF 		bl	write_psoc1
 2922              	.LVL233:
 689:.\protocolo.c ****                         for(x=0;x<=10;x++){									
 2923              		.loc 1 689 0
 2924 0dcc 0022     		movs	r2, #0
 2925 0dce 214B     		ldr	r3, .L625+32
 2926 0dd0 1A60     		str	r2, [r3]
 2927 0dd2 08E0     		b	.L216
 2928              	.L217:
 690:.\protocolo.c **** 						    write_psoc1(val,producto3n[x]);
 2929              		.loc 1 690 0 discriminator 3
 2930 0dd4 2046     		mov	r0, r4
 2931 0dd6 274A     		ldr	r2, .L625+64
 2932 0dd8 D15C     		ldrb	r1, [r2, r3]	@ zero_extendqisi2
 2933 0dda FFF7FEFF 		bl	write_psoc1
 2934              	.LVL234:
 689:.\protocolo.c ****                         for(x=0;x<=10;x++){									
 2935              		.loc 1 689 0 discriminator 3
 2936 0dde 1D4A     		ldr	r2, .L625+32
 2937 0de0 1368     		ldr	r3, [r2]
 2938 0de2 0133     		adds	r3, r3, #1
 2939 0de4 1360     		str	r3, [r2]
 2940              	.L216:
 689:.\protocolo.c ****                         for(x=0;x<=10;x++){									
 2941              		.loc 1 689 0 is_stmt 0 discriminator 1
 2942 0de6 1B4B     		ldr	r3, .L625+32
 2943 0de8 1B68     		ldr	r3, [r3]
 2944 0dea 0A2B     		cmp	r3, #10
 2945 0dec F2D9     		bls	.L217
 691:.\protocolo.c **** 					    }
 692:.\protocolo.c ****                         write_psoc1(val,10);
 2946              		.loc 1 692 0 is_stmt 1
 2947 0dee 2046     		mov	r0, r4
 2948 0df0 0A21     		movs	r1, #10
 2949 0df2 FFF7FEFF 		bl	write_psoc1
 2950              	.LVL235:
 693:.\protocolo.c **** 						for(x=0;x<=14;x++){									
 2951              		.loc 1 693 0
 2952 0df6 0022     		movs	r2, #0
ARM GAS  C:\Users\diego\AppData\Local\Temp\cckx56kg.s 			page 68


 2953 0df8 164B     		ldr	r3, .L625+32
 2954 0dfa 1A60     		str	r2, [r3]
 2955 0dfc 09E0     		b	.L218
 2956              	.L219:
 694:.\protocolo.c **** 							write_psoc1(val,msn_lecact[x]);				//LECTURA ACTUAL
 2957              		.loc 1 694 0 discriminator 3
 2958 0dfe 164A     		ldr	r2, .L625+36
 2959 0e00 1344     		add	r3, r3, r2
 2960 0e02 2046     		mov	r0, r4
 2961 0e04 197A     		ldrb	r1, [r3, #8]	@ zero_extendqisi2
 2962 0e06 FFF7FEFF 		bl	write_psoc1
 2963              	.LVL236:
 693:.\protocolo.c **** 						for(x=0;x<=14;x++){									
 2964              		.loc 1 693 0 discriminator 3
 2965 0e0a 124A     		ldr	r2, .L625+32
 2966 0e0c 1368     		ldr	r3, [r2]
 2967 0e0e 0133     		adds	r3, r3, #1
 2968 0e10 1360     		str	r3, [r2]
 2969              	.L218:
 693:.\protocolo.c **** 						for(x=0;x<=14;x++){									
 2970              		.loc 1 693 0 is_stmt 0 discriminator 1
 2971 0e12 104B     		ldr	r3, .L625+32
 2972 0e14 1B68     		ldr	r3, [r3]
 2973 0e16 0E2B     		cmp	r3, #14
 2974 0e18 F1D9     		bls	.L219
 695:.\protocolo.c **** 						}
 696:.\protocolo.c **** 						write_psoc1(val,10);
 2975              		.loc 1 696 0 is_stmt 1
 2976 0e1a 2046     		mov	r0, r4
 2977 0e1c 0A21     		movs	r1, #10
 2978 0e1e FFF7FEFF 		bl	write_psoc1
 2979              	.LVL237:
 697:.\protocolo.c **** 						print_totalesac(8,val);	
 2980              		.loc 1 697 0
 2981 0e22 0820     		movs	r0, #8
 2982 0e24 2146     		mov	r1, r4
 2983 0e26 FFF7FEFF 		bl	print_totalesac
 2984              	.LVL238:
 698:.\protocolo.c **** 						for(x=0;x<=16;x++){												
 2985              		.loc 1 698 0
 2986 0e2a 0022     		movs	r2, #0
 2987 0e2c 094B     		ldr	r3, .L625+32
 2988 0e2e 1A60     		str	r2, [r3]
 2989 0e30 2CE0     		b	.L220
 2990              	.L626:
 2991 0e32 00BF     		.align	2
 2992              	.L625:
 2993 0e34 00000000 		.word	resultado
 2994 0e38 00000000 		.word	rventa
 2995 0e3c 00000000 		.word	producto2
 2996 0e40 00000000 		.word	a
 2997 0e44 00000000 		.word	producto2b
 2998 0e48 00000000 		.word	b
 2999 0e4c 00000000 		.word	d
 3000 0e50 00000000 		.word	c
 3001 0e54 00000000 		.word	x
 3002 0e58 00000000 		.word	.LANCHOR1
ARM GAS  C:\Users\diego\AppData\Local\Temp\cckx56kg.s 			page 69


 3003 0e5c 00000000 		.word	producto2n
 3004 0e60 00000000 		.word	z
 3005 0e64 FFFFFFFF 		.word	rventa-1
 3006 0e68 00000000 		.word	buffer_i2c
 3007 0e6c 00000000 		.word	producto3
 3008 0e70 00000000 		.word	producto3b
 3009 0e74 00000000 		.word	producto3n
 3010              	.L221:
 699:.\protocolo.c **** 							write_psoc1(val,msn_lecaan[x]);				//LECTURA ANTERIOR
 3011              		.loc 1 699 0 discriminator 3
 3012 0e78 AC4A     		ldr	r2, .L627
 3013 0e7a 1344     		add	r3, r3, r2
 3014 0e7c 2046     		mov	r0, r4
 3015 0e7e 197E     		ldrb	r1, [r3, #24]	@ zero_extendqisi2
 3016 0e80 FFF7FEFF 		bl	write_psoc1
 3017              	.LVL239:
 698:.\protocolo.c **** 						for(x=0;x<=16;x++){												
 3018              		.loc 1 698 0 discriminator 3
 3019 0e84 AA4A     		ldr	r2, .L627+4
 3020 0e86 1368     		ldr	r3, [r2]
 3021 0e88 0133     		adds	r3, r3, #1
 3022 0e8a 1360     		str	r3, [r2]
 3023              	.L220:
 698:.\protocolo.c **** 						for(x=0;x<=16;x++){												
 3024              		.loc 1 698 0 is_stmt 0 discriminator 1
 3025 0e8c A84B     		ldr	r3, .L627+4
 3026 0e8e 1B68     		ldr	r3, [r3]
 3027 0e90 102B     		cmp	r3, #16
 3028 0e92 F1D9     		bls	.L221
 700:.\protocolo.c **** 						}
 701:.\protocolo.c **** 						write_psoc1(val,10);
 3029              		.loc 1 701 0 is_stmt 1
 3030 0e94 2046     		mov	r0, r4
 3031 0e96 0A21     		movs	r1, #10
 3032 0e98 FFF7FEFF 		bl	write_psoc1
 3033              	.LVL240:
 702:.\protocolo.c **** 						if(dir==a.dir){
 3034              		.loc 1 702 0
 3035 0e9c A54B     		ldr	r3, .L627+8
 3036 0e9e 1B78     		ldrb	r3, [r3]	@ zero_extendqisi2
 3037 0ea0 AB42     		cmp	r3, r5
 3038 0ea2 05D1     		bne	.L222
 703:.\protocolo.c **** 							leer_eeprom(256,25);
 3039              		.loc 1 703 0
 3040 0ea4 4FF48070 		mov	r0, #256
 3041 0ea8 1921     		movs	r1, #25
 3042 0eaa FFF7FEFF 		bl	leer_eeprom
 3043              	.LVL241:
 3044 0eae 04E0     		b	.L223
 3045              	.L222:
 704:.\protocolo.c **** 						}
 705:.\protocolo.c **** 						else{
 706:.\protocolo.c **** 							leer_eeprom(345,25);
 3046              		.loc 1 706 0
 3047 0eb0 40F25910 		movw	r0, #345
 3048 0eb4 1921     		movs	r1, #25
 3049 0eb6 FFF7FEFF 		bl	leer_eeprom
ARM GAS  C:\Users\diego\AppData\Local\Temp\cckx56kg.s 			page 70


 3050              	.LVL242:
 3051              	.L223:
 707:.\protocolo.c **** 						}
 708:.\protocolo.c **** 						print_totales(val);
 3052              		.loc 1 708 0
 3053 0eba 2046     		mov	r0, r4
 3054 0ebc FFF7FEFF 		bl	print_totales
 3055              	.LVL243:
 709:.\protocolo.c **** 						for(z=1;z<=8;z++){
 3056              		.loc 1 709 0
 3057 0ec0 0122     		movs	r2, #1
 3058 0ec2 9D4B     		ldr	r3, .L627+12
 3059 0ec4 1A60     		str	r2, [r3]
 3060 0ec6 10E0     		b	.L224
 3061              	.L225:
 710:.\protocolo.c **** 							minuendo[z]=rventa.tdinero[z-1];
 3062              		.loc 1 710 0 discriminator 3
 3063 0ec8 9C4A     		ldr	r2, .L627+16
 3064 0eca 1A44     		add	r2, r2, r3
 3065 0ecc 92F8CA10 		ldrb	r1, [r2, #202]	@ zero_extendqisi2
 3066 0ed0 10AA     		add	r2, sp, #64
 3067 0ed2 1A44     		add	r2, r2, r3
 3068 0ed4 02F82C1C 		strb	r1, [r2, #-44]
 711:.\protocolo.c **** 							sustraendo[z]=buffer_i2c[z+8];
 3069              		.loc 1 711 0 discriminator 3
 3070 0ed8 03F10801 		add	r1, r3, #8
 3071 0edc 9848     		ldr	r0, .L627+20
 3072 0ede 415C     		ldrb	r1, [r0, r1]	@ zero_extendqisi2
 3073 0ee0 02F83C1C 		strb	r1, [r2, #-60]
 709:.\protocolo.c **** 						for(z=1;z<=8;z++){
 3074              		.loc 1 709 0 discriminator 3
 3075 0ee4 0133     		adds	r3, r3, #1
 3076 0ee6 944A     		ldr	r2, .L627+12
 3077 0ee8 1360     		str	r3, [r2]
 3078              	.L224:
 709:.\protocolo.c **** 						for(z=1;z<=8;z++){
 3079              		.loc 1 709 0 is_stmt 0 discriminator 1
 3080 0eea 934B     		ldr	r3, .L627+12
 3081 0eec 1B68     		ldr	r3, [r3]
 3082 0eee 082B     		cmp	r3, #8
 3083 0ef0 EAD9     		bls	.L225
 712:.\protocolo.c **** 						}
 713:.\protocolo.c **** 						minuendo[0]=8;
 3084              		.loc 1 713 0 is_stmt 1
 3085 0ef2 10A9     		add	r1, sp, #64
 3086 0ef4 0823     		movs	r3, #8
 3087 0ef6 01F82C3D 		strb	r3, [r1, #-44]!
 714:.\protocolo.c **** 						operacion(2,minuendo,sustraendo);
 3088              		.loc 1 714 0
 3089 0efa 0220     		movs	r0, #2
 3090 0efc 01AA     		add	r2, sp, #4
 3091 0efe FFF7FEFF 		bl	operacion
 3092              	.LVL244:
 715:.\protocolo.c **** 						for(x=0;x<=17;x++){									
 3093              		.loc 1 715 0
 3094 0f02 0022     		movs	r2, #0
 3095 0f04 8A4B     		ldr	r3, .L627+4
ARM GAS  C:\Users\diego\AppData\Local\Temp\cckx56kg.s 			page 71


 3096 0f06 1A60     		str	r2, [r3]
 3097 0f08 0AE0     		b	.L226
 3098              	.L227:
 716:.\protocolo.c **** 							write_psoc1(val,msn_tventas[x]);				//Total de ventas
 3099              		.loc 1 716 0 discriminator 3
 3100 0f0a 884A     		ldr	r2, .L627
 3101 0f0c 1344     		add	r3, r3, r2
 3102 0f0e 2046     		mov	r0, r4
 3103 0f10 93F82C10 		ldrb	r1, [r3, #44]	@ zero_extendqisi2
 3104 0f14 FFF7FEFF 		bl	write_psoc1
 3105              	.LVL245:
 715:.\protocolo.c **** 						for(x=0;x<=17;x++){									
 3106              		.loc 1 715 0 discriminator 3
 3107 0f18 854A     		ldr	r2, .L627+4
 3108 0f1a 1368     		ldr	r3, [r2]
 3109 0f1c 0133     		adds	r3, r3, #1
 3110 0f1e 1360     		str	r3, [r2]
 3111              	.L226:
 715:.\protocolo.c **** 						for(x=0;x<=17;x++){									
 3112              		.loc 1 715 0 is_stmt 0 discriminator 1
 3113 0f20 834B     		ldr	r3, .L627+4
 3114 0f22 1B68     		ldr	r3, [r3]
 3115 0f24 112B     		cmp	r3, #17
 3116 0f26 F0D9     		bls	.L227
 717:.\protocolo.c **** 						}
 718:.\protocolo.c **** 						print_valor(resultado,val);							
 3117              		.loc 1 718 0 is_stmt 1
 3118 0f28 8648     		ldr	r0, .L627+24
 3119 0f2a 2146     		mov	r1, r4
 3120 0f2c FFF7FEFF 		bl	print_valor
 3121              	.LVL246:
 719:.\protocolo.c **** 						if(dir==a.dir){
 3122              		.loc 1 719 0
 3123 0f30 804B     		ldr	r3, .L627+8
 3124 0f32 1B78     		ldrb	r3, [r3]	@ zero_extendqisi2
 3125 0f34 AB42     		cmp	r3, r5
 3126 0f36 0AD1     		bne	.L228
 720:.\protocolo.c **** 							write_eeprom(256,corte);
 3127              		.loc 1 720 0
 3128 0f38 4FF48070 		mov	r0, #256
 3129 0f3c 09A9     		add	r1, sp, #36
 3130 0f3e FFF7FEFF 		bl	write_eeprom
 3131              	.LVL247:
 721:.\protocolo.c **** 							write_eeprom(525,resultado);
 3132              		.loc 1 721 0
 3133 0f42 40F20D20 		movw	r0, #525
 3134 0f46 7F49     		ldr	r1, .L627+24
 3135 0f48 FFF7FEFF 		bl	write_eeprom
 3136              	.LVL248:
 3137 0f4c 09E0     		b	.L213
 3138              	.L228:
 722:.\protocolo.c **** 						}
 723:.\protocolo.c **** 						else{
 724:.\protocolo.c **** 							write_eeprom(345,corte);
 3139              		.loc 1 724 0
 3140 0f4e 40F25910 		movw	r0, #345
 3141 0f52 09A9     		add	r1, sp, #36
ARM GAS  C:\Users\diego\AppData\Local\Temp\cckx56kg.s 			page 72


 3142 0f54 FFF7FEFF 		bl	write_eeprom
 3143              	.LVL249:
 725:.\protocolo.c **** 							write_eeprom(589,resultado);
 3144              		.loc 1 725 0
 3145 0f58 40F24D20 		movw	r0, #589
 3146 0f5c 7949     		ldr	r1, .L627+24
 3147 0f5e FFF7FEFF 		bl	write_eeprom
 3148              	.LVL250:
 3149              	.L213:
 726:.\protocolo.c **** 						}					
 727:.\protocolo.c **** 					}	
 728:.\protocolo.c ****                     
 729:.\protocolo.c ****                     if(((rventa.manguera==(producto4&0x0F))&&(dir==a.dir))||((rventa.manguera==(pro
 3150              		.loc 1 729 0
 3151 0f62 794B     		ldr	r3, .L627+28
 3152 0f64 93F8E020 		ldrb	r2, [r3, #224]	@ zero_extendqisi2
 3153 0f68 784B     		ldr	r3, .L627+32
 3154 0f6a 1B78     		ldrb	r3, [r3]	@ zero_extendqisi2
 3155 0f6c 03F00F03 		and	r3, r3, #15
 3156 0f70 9342     		cmp	r3, r2
 3157 0f72 03D1     		bne	.L229
 3158              		.loc 1 729 0 is_stmt 0 discriminator 1
 3159 0f74 6F4B     		ldr	r3, .L627+8
 3160 0f76 1B78     		ldrb	r3, [r3]	@ zero_extendqisi2
 3161 0f78 AB42     		cmp	r3, r5
 3162 0f7a 0BD0     		beq	.L230
 3163              	.L229:
 3164              		.loc 1 729 0 discriminator 3
 3165 0f7c 744B     		ldr	r3, .L627+36
 3166 0f7e 1B78     		ldrb	r3, [r3]	@ zero_extendqisi2
 3167 0f80 03F00F03 		and	r3, r3, #15
 3168 0f84 9A42     		cmp	r2, r3
 3169 0f86 40F0C280 		bne	.L231
 3170              		.loc 1 729 0 discriminator 4
 3171 0f8a 724B     		ldr	r3, .L627+40
 3172 0f8c 1B78     		ldrb	r3, [r3]	@ zero_extendqisi2
 3173 0f8e AB42     		cmp	r3, r5
 3174 0f90 40F0BD80 		bne	.L231
 3175              	.L230:
 730:.\protocolo.c **** 						for(x=0;x<=5;x++){									
 3176              		.loc 1 730 0 is_stmt 1
 3177 0f94 0022     		movs	r2, #0
 3178 0f96 664B     		ldr	r3, .L627+4
 3179 0f98 1A60     		str	r2, [r3]
 3180 0f9a 08E0     		b	.L232
 3181              	.L233:
 731:.\protocolo.c **** 						    write_psoc1(val,msn_tc[x]);
 3182              		.loc 1 731 0 discriminator 3
 3183 0f9c 2046     		mov	r0, r4
 3184 0f9e 634A     		ldr	r2, .L627
 3185 0fa0 D15C     		ldrb	r1, [r2, r3]	@ zero_extendqisi2
 3186 0fa2 FFF7FEFF 		bl	write_psoc1
 3187              	.LVL251:
 730:.\protocolo.c **** 						for(x=0;x<=5;x++){									
 3188              		.loc 1 730 0 discriminator 3
 3189 0fa6 624A     		ldr	r2, .L627+4
 3190 0fa8 1368     		ldr	r3, [r2]
ARM GAS  C:\Users\diego\AppData\Local\Temp\cckx56kg.s 			page 73


 3191 0faa 0133     		adds	r3, r3, #1
 3192 0fac 1360     		str	r3, [r2]
 3193              	.L232:
 730:.\protocolo.c **** 						for(x=0;x<=5;x++){									
 3194              		.loc 1 730 0 is_stmt 0 discriminator 1
 3195 0fae 604B     		ldr	r3, .L627+4
 3196 0fb0 1B68     		ldr	r3, [r3]
 3197 0fb2 052B     		cmp	r3, #5
 3198 0fb4 F2D9     		bls	.L233
 732:.\protocolo.c **** 					    }
 733:.\protocolo.c **** 					    write_psoc1(val,10);
 3199              		.loc 1 733 0 is_stmt 1
 3200 0fb6 2046     		mov	r0, r4
 3201 0fb8 0A21     		movs	r1, #10
 3202 0fba FFF7FEFF 		bl	write_psoc1
 3203              	.LVL252:
 734:.\protocolo.c ****                         for(x=0;x<=10;x++){									
 3204              		.loc 1 734 0
 3205 0fbe 0022     		movs	r2, #0
 3206 0fc0 5B4B     		ldr	r3, .L627+4
 3207 0fc2 1A60     		str	r2, [r3]
 3208 0fc4 08E0     		b	.L234
 3209              	.L235:
 735:.\protocolo.c **** 						    write_psoc1(val,producto4n[x]);
 3210              		.loc 1 735 0 discriminator 3
 3211 0fc6 2046     		mov	r0, r4
 3212 0fc8 634A     		ldr	r2, .L627+44
 3213 0fca D15C     		ldrb	r1, [r2, r3]	@ zero_extendqisi2
 3214 0fcc FFF7FEFF 		bl	write_psoc1
 3215              	.LVL253:
 734:.\protocolo.c ****                         for(x=0;x<=10;x++){									
 3216              		.loc 1 734 0 discriminator 3
 3217 0fd0 574A     		ldr	r2, .L627+4
 3218 0fd2 1368     		ldr	r3, [r2]
 3219 0fd4 0133     		adds	r3, r3, #1
 3220 0fd6 1360     		str	r3, [r2]
 3221              	.L234:
 734:.\protocolo.c ****                         for(x=0;x<=10;x++){									
 3222              		.loc 1 734 0 is_stmt 0 discriminator 1
 3223 0fd8 554B     		ldr	r3, .L627+4
 3224 0fda 1B68     		ldr	r3, [r3]
 3225 0fdc 0A2B     		cmp	r3, #10
 3226 0fde F2D9     		bls	.L235
 736:.\protocolo.c **** 					    }
 737:.\protocolo.c ****                         write_psoc1(val,10);
 3227              		.loc 1 737 0 is_stmt 1
 3228 0fe0 2046     		mov	r0, r4
 3229 0fe2 0A21     		movs	r1, #10
 3230 0fe4 FFF7FEFF 		bl	write_psoc1
 3231              	.LVL254:
 738:.\protocolo.c **** 						for(x=0;x<=14;x++){									
 3232              		.loc 1 738 0
 3233 0fe8 0022     		movs	r2, #0
 3234 0fea 514B     		ldr	r3, .L627+4
 3235 0fec 1A60     		str	r2, [r3]
 3236 0fee 09E0     		b	.L236
 3237              	.L237:
ARM GAS  C:\Users\diego\AppData\Local\Temp\cckx56kg.s 			page 74


 739:.\protocolo.c **** 							write_psoc1(val,msn_lecact[x]);				//LECTURA ACTUAL
 3238              		.loc 1 739 0 discriminator 3
 3239 0ff0 4E4A     		ldr	r2, .L627
 3240 0ff2 1344     		add	r3, r3, r2
 3241 0ff4 2046     		mov	r0, r4
 3242 0ff6 197A     		ldrb	r1, [r3, #8]	@ zero_extendqisi2
 3243 0ff8 FFF7FEFF 		bl	write_psoc1
 3244              	.LVL255:
 738:.\protocolo.c **** 						for(x=0;x<=14;x++){									
 3245              		.loc 1 738 0 discriminator 3
 3246 0ffc 4C4A     		ldr	r2, .L627+4
 3247 0ffe 1368     		ldr	r3, [r2]
 3248 1000 0133     		adds	r3, r3, #1
 3249 1002 1360     		str	r3, [r2]
 3250              	.L236:
 738:.\protocolo.c **** 						for(x=0;x<=14;x++){									
 3251              		.loc 1 738 0 is_stmt 0 discriminator 1
 3252 1004 4A4B     		ldr	r3, .L627+4
 3253 1006 1B68     		ldr	r3, [r3]
 3254 1008 0E2B     		cmp	r3, #14
 3255 100a F1D9     		bls	.L237
 740:.\protocolo.c **** 						}
 741:.\protocolo.c **** 						write_psoc1(val,10);
 3256              		.loc 1 741 0 is_stmt 1
 3257 100c 2046     		mov	r0, r4
 3258 100e 0A21     		movs	r1, #10
 3259 1010 FFF7FEFF 		bl	write_psoc1
 3260              	.LVL256:
 742:.\protocolo.c **** 						print_totalesac(8,val);	
 3261              		.loc 1 742 0
 3262 1014 0820     		movs	r0, #8
 3263 1016 2146     		mov	r1, r4
 3264 1018 FFF7FEFF 		bl	print_totalesac
 3265              	.LVL257:
 743:.\protocolo.c **** 						for(x=0;x<=16;x++){												
 3266              		.loc 1 743 0
 3267 101c 0022     		movs	r2, #0
 3268 101e 444B     		ldr	r3, .L627+4
 3269 1020 1A60     		str	r2, [r3]
 3270 1022 09E0     		b	.L238
 3271              	.L239:
 744:.\protocolo.c **** 							write_psoc1(val,msn_lecaan[x]);				//LECTURA ANTERIOR
 3272              		.loc 1 744 0 discriminator 3
 3273 1024 414A     		ldr	r2, .L627
 3274 1026 1344     		add	r3, r3, r2
 3275 1028 2046     		mov	r0, r4
 3276 102a 197E     		ldrb	r1, [r3, #24]	@ zero_extendqisi2
 3277 102c FFF7FEFF 		bl	write_psoc1
 3278              	.LVL258:
 743:.\protocolo.c **** 						for(x=0;x<=16;x++){												
 3279              		.loc 1 743 0 discriminator 3
 3280 1030 3F4A     		ldr	r2, .L627+4
 3281 1032 1368     		ldr	r3, [r2]
 3282 1034 0133     		adds	r3, r3, #1
 3283 1036 1360     		str	r3, [r2]
 3284              	.L238:
 743:.\protocolo.c **** 						for(x=0;x<=16;x++){												
ARM GAS  C:\Users\diego\AppData\Local\Temp\cckx56kg.s 			page 75


 3285              		.loc 1 743 0 is_stmt 0 discriminator 1
 3286 1038 3D4B     		ldr	r3, .L627+4
 3287 103a 1B68     		ldr	r3, [r3]
 3288 103c 102B     		cmp	r3, #16
 3289 103e F1D9     		bls	.L239
 745:.\protocolo.c **** 						}
 746:.\protocolo.c **** 						write_psoc1(val,10);
 3290              		.loc 1 746 0 is_stmt 1
 3291 1040 2046     		mov	r0, r4
 3292 1042 0A21     		movs	r1, #10
 3293 1044 FFF7FEFF 		bl	write_psoc1
 3294              	.LVL259:
 747:.\protocolo.c **** 						if(dir==a.dir){
 3295              		.loc 1 747 0
 3296 1048 3A4B     		ldr	r3, .L627+8
 3297 104a 1B78     		ldrb	r3, [r3]	@ zero_extendqisi2
 3298 104c AB42     		cmp	r3, r5
 3299 104e 05D1     		bne	.L240
 748:.\protocolo.c **** 							leer_eeprom(1096,25);
 3300              		.loc 1 748 0
 3301 1050 4FF48960 		mov	r0, #1096
 3302 1054 1921     		movs	r1, #25
 3303 1056 FFF7FEFF 		bl	leer_eeprom
 3304              	.LVL260:
 3305 105a 04E0     		b	.L241
 3306              	.L240:
 749:.\protocolo.c **** 						}
 750:.\protocolo.c **** 						else{
 751:.\protocolo.c **** 							leer_eeprom(1054,25);
 3307              		.loc 1 751 0
 3308 105c 40F21E40 		movw	r0, #1054
 3309 1060 1921     		movs	r1, #25
 3310 1062 FFF7FEFF 		bl	leer_eeprom
 3311              	.LVL261:
 3312              	.L241:
 752:.\protocolo.c **** 						}
 753:.\protocolo.c **** 						print_totales(val);
 3313              		.loc 1 753 0
 3314 1066 2046     		mov	r0, r4
 3315 1068 FFF7FEFF 		bl	print_totales
 3316              	.LVL262:
 754:.\protocolo.c **** 						for(z=1;z<=8;z++){
 3317              		.loc 1 754 0
 3318 106c 0122     		movs	r2, #1
 3319 106e 324B     		ldr	r3, .L627+12
 3320 1070 1A60     		str	r2, [r3]
 3321 1072 10E0     		b	.L242
 3322              	.L243:
 755:.\protocolo.c **** 							minuendo[z]=rventa.tdinero[z-1];
 3323              		.loc 1 755 0 discriminator 3
 3324 1074 314A     		ldr	r2, .L627+16
 3325 1076 1A44     		add	r2, r2, r3
 3326 1078 92F8CA10 		ldrb	r1, [r2, #202]	@ zero_extendqisi2
 3327 107c 10AA     		add	r2, sp, #64
 3328 107e 1A44     		add	r2, r2, r3
 3329 1080 02F82C1C 		strb	r1, [r2, #-44]
 756:.\protocolo.c **** 							sustraendo[z]=buffer_i2c[z+8];
ARM GAS  C:\Users\diego\AppData\Local\Temp\cckx56kg.s 			page 76


 3330              		.loc 1 756 0 discriminator 3
 3331 1084 03F10801 		add	r1, r3, #8
 3332 1088 2D48     		ldr	r0, .L627+20
 3333 108a 415C     		ldrb	r1, [r0, r1]	@ zero_extendqisi2
 3334 108c 02F83C1C 		strb	r1, [r2, #-60]
 754:.\protocolo.c **** 						for(z=1;z<=8;z++){
 3335              		.loc 1 754 0 discriminator 3
 3336 1090 0133     		adds	r3, r3, #1
 3337 1092 294A     		ldr	r2, .L627+12
 3338 1094 1360     		str	r3, [r2]
 3339              	.L242:
 754:.\protocolo.c **** 						for(z=1;z<=8;z++){
 3340              		.loc 1 754 0 is_stmt 0 discriminator 1
 3341 1096 284B     		ldr	r3, .L627+12
 3342 1098 1B68     		ldr	r3, [r3]
 3343 109a 082B     		cmp	r3, #8
 3344 109c EAD9     		bls	.L243
 757:.\protocolo.c **** 						}
 758:.\protocolo.c **** 						minuendo[0]=8;
 3345              		.loc 1 758 0 is_stmt 1
 3346 109e 10A9     		add	r1, sp, #64
 3347 10a0 0823     		movs	r3, #8
 3348 10a2 01F82C3D 		strb	r3, [r1, #-44]!
 759:.\protocolo.c **** 						operacion(2,minuendo,sustraendo);
 3349              		.loc 1 759 0
 3350 10a6 0220     		movs	r0, #2
 3351 10a8 01AA     		add	r2, sp, #4
 3352 10aa FFF7FEFF 		bl	operacion
 3353              	.LVL263:
 760:.\protocolo.c **** 						for(x=0;x<=17;x++){									
 3354              		.loc 1 760 0
 3355 10ae 0022     		movs	r2, #0
 3356 10b0 1F4B     		ldr	r3, .L627+4
 3357 10b2 1A60     		str	r2, [r3]
 3358 10b4 0AE0     		b	.L244
 3359              	.L245:
 761:.\protocolo.c **** 							write_psoc1(val,msn_tventas[x]);				//Total de ventas
 3360              		.loc 1 761 0 discriminator 3
 3361 10b6 1D4A     		ldr	r2, .L627
 3362 10b8 1344     		add	r3, r3, r2
 3363 10ba 2046     		mov	r0, r4
 3364 10bc 93F82C10 		ldrb	r1, [r3, #44]	@ zero_extendqisi2
 3365 10c0 FFF7FEFF 		bl	write_psoc1
 3366              	.LVL264:
 760:.\protocolo.c **** 						for(x=0;x<=17;x++){									
 3367              		.loc 1 760 0 discriminator 3
 3368 10c4 1A4A     		ldr	r2, .L627+4
 3369 10c6 1368     		ldr	r3, [r2]
 3370 10c8 0133     		adds	r3, r3, #1
 3371 10ca 1360     		str	r3, [r2]
 3372              	.L244:
 760:.\protocolo.c **** 						for(x=0;x<=17;x++){									
 3373              		.loc 1 760 0 is_stmt 0 discriminator 1
 3374 10cc 184B     		ldr	r3, .L627+4
 3375 10ce 1B68     		ldr	r3, [r3]
 3376 10d0 112B     		cmp	r3, #17
 3377 10d2 F0D9     		bls	.L245
ARM GAS  C:\Users\diego\AppData\Local\Temp\cckx56kg.s 			page 77


 762:.\protocolo.c **** 						}
 763:.\protocolo.c **** 						print_valor(resultado,val);							
 3378              		.loc 1 763 0 is_stmt 1
 3379 10d4 1B48     		ldr	r0, .L627+24
 3380 10d6 2146     		mov	r1, r4
 3381 10d8 FFF7FEFF 		bl	print_valor
 3382              	.LVL265:
 764:.\protocolo.c **** 						if(dir==a.dir){
 3383              		.loc 1 764 0
 3384 10dc 154B     		ldr	r3, .L627+8
 3385 10de 1B78     		ldrb	r3, [r3]	@ zero_extendqisi2
 3386 10e0 AB42     		cmp	r3, r5
 3387 10e2 0AD1     		bne	.L246
 765:.\protocolo.c **** 						    write_eeprom(1096,corte);
 3388              		.loc 1 765 0
 3389 10e4 4FF48960 		mov	r0, #1096
 3390 10e8 09A9     		add	r1, sp, #36
 3391 10ea FFF7FEFF 		bl	write_eeprom
 3392              	.LVL266:
 766:.\protocolo.c **** 						    write_eeprom(1038,resultado);
 3393              		.loc 1 766 0
 3394 10ee 40F20E40 		movw	r0, #1038
 3395 10f2 1449     		ldr	r1, .L627+24
 3396 10f4 FFF7FEFF 		bl	write_eeprom
 3397              	.LVL267:
 3398 10f8 09E0     		b	.L231
 3399              	.L246:
 767:.\protocolo.c **** 					    }
 768:.\protocolo.c **** 					    else{
 769:.\protocolo.c **** 						    write_eeprom(1054,corte);
 3400              		.loc 1 769 0
 3401 10fa 40F21E40 		movw	r0, #1054
 3402 10fe 09A9     		add	r1, sp, #36
 3403 1100 FFF7FEFF 		bl	write_eeprom
 3404              	.LVL268:
 770:.\protocolo.c **** 						    write_eeprom(1081,resultado);
 3405              		.loc 1 770 0
 3406 1104 40F23940 		movw	r0, #1081
 3407 1108 0E49     		ldr	r1, .L627+24
 3408 110a FFF7FEFF 		bl	write_eeprom
 3409              	.LVL269:
 3410              	.L231:
 580:.\protocolo.c **** 					rventa.manguera=(Surtidor_rxBuffer[y+2]&0x0F)+1;
 3411              		.loc 1 580 0 discriminator 2
 3412 110e 134A     		ldr	r2, .L627+48
 3413 1110 1368     		ldr	r3, [r2]
 3414 1112 1E33     		adds	r3, r3, #30
 3415 1114 1360     		str	r3, [r2]
 3416              	.L162:
 580:.\protocolo.c **** 					rventa.manguera=(Surtidor_rxBuffer[y+2]&0x0F)+1;
 3417              		.loc 1 580 0 is_stmt 0 discriminator 1
 3418 1116 114B     		ldr	r3, .L627+48
 3419 1118 1E68     		ldr	r6, [r3]
 3420 111a 1E2E     		cmp	r6, #30
 3421 111c 7FF6ECAB 		bls	.L247
 771:.\protocolo.c **** 						}					
 772:.\protocolo.c **** 					}
ARM GAS  C:\Users\diego\AppData\Local\Temp\cckx56kg.s 			page 78


 773:.\protocolo.c **** 				}
 774:.\protocolo.c **** 				Surtidor_ClearRxBuffer();
 3422              		.loc 1 774 0 is_stmt 1
 3423 1120 FFF7FEFF 		bl	Surtidor_ClearRxBuffer
 3424              	.LVL270:
 775:.\protocolo.c **** 				return 2;					
 3425              		.loc 1 775 0
 3426 1124 0220     		movs	r0, #2
 3427 1126 02F099B9 		b	.L78
 3428              	.L628:
 3429 112a 00BF     		.align	2
 3430              	.L627:
 3431 112c 00000000 		.word	.LANCHOR1
 3432 1130 00000000 		.word	x
 3433 1134 00000000 		.word	a
 3434 1138 00000000 		.word	z
 3435 113c FFFFFFFF 		.word	rventa-1
 3436 1140 00000000 		.word	buffer_i2c
 3437 1144 00000000 		.word	resultado
 3438 1148 00000000 		.word	rventa
 3439 114c 00000000 		.word	producto4
 3440 1150 00000000 		.word	producto4b
 3441 1154 00000000 		.word	b
 3442 1158 00000000 		.word	producto4n
 3443 115c 00000000 		.word	y
 3444              	.L75:
 776:.\protocolo.c **** 			}			
 777:.\protocolo.c **** 			else{
 778:.\protocolo.c **** 				return 0;
 779:.\protocolo.c **** 			}
 780:.\protocolo.c **** 		break;
 781:.\protocolo.c **** 		
 782:.\protocolo.c **** 		case 94:
 783:.\protocolo.c **** 			if((Surtidor_rxBuffer[0]==0xFF)&&(Surtidor_rxBuffer[1]==0xF6)&&(Surtidor_rxBuffer[93]==0xF0)&&(S
 3445              		.loc 1 783 0
 3446 1160 A64B     		ldr	r3, .L629
 3447 1162 1B78     		ldrb	r3, [r3]	@ zero_extendqisi2
 3448 1164 DBB2     		uxtb	r3, r3
 3449 1166 FF2B     		cmp	r3, #255
 3450 1168 42F05981 		bne	.L600
 3451              		.loc 1 783 0 is_stmt 0 discriminator 1
 3452 116c A34B     		ldr	r3, .L629
 3453 116e 5B78     		ldrb	r3, [r3, #1]	@ zero_extendqisi2
 3454 1170 DBB2     		uxtb	r3, r3
 3455 1172 F62B     		cmp	r3, #246
 3456 1174 42F05581 		bne	.L601
 3457              		.loc 1 783 0 discriminator 2
 3458 1178 A04B     		ldr	r3, .L629
 3459 117a 93F85D30 		ldrb	r3, [r3, #93]	@ zero_extendqisi2
 3460 117e DBB2     		uxtb	r3, r3
 3461 1180 F02B     		cmp	r3, #240
 3462 1182 42F05081 		bne	.L602
 3463              		.loc 1 783 0 discriminator 3
 3464 1186 9D4B     		ldr	r3, .L629
 3465 1188 DB78     		ldrb	r3, [r3, #3]	@ zero_extendqisi2
 3466 118a DBB2     		uxtb	r3, r3
 3467 118c F92B     		cmp	r3, #249
ARM GAS  C:\Users\diego\AppData\Local\Temp\cckx56kg.s 			page 79


 3468 118e 42F04C81 		bne	.L603
 784:.\protocolo.c **** 				for(y=0;y<=60;y+=30){
 3469              		.loc 1 784 0 is_stmt 1
 3470 1192 0022     		movs	r2, #0
 3471 1194 9A4B     		ldr	r3, .L629+4
 3472 1196 1A60     		str	r2, [r3]
 3473 1198 00F00FBC 		b	.L248
 3474              	.L333:
 785:.\protocolo.c **** 					rventa.manguera=(Surtidor_rxBuffer[y+2]&0x0F)+1;
 3475              		.loc 1 785 0
 3476 119c B31C     		adds	r3, r6, #2
 3477 119e 974A     		ldr	r2, .L629
 3478 11a0 D15C     		ldrb	r1, [r2, r3]	@ zero_extendqisi2
 3479 11a2 01F00F01 		and	r1, r1, #15
 3480 11a6 0131     		adds	r1, r1, #1
 3481 11a8 964B     		ldr	r3, .L629+8
 3482 11aa 83F8E010 		strb	r1, [r3, #224]
 786:.\protocolo.c **** 					for(x=0;x<=7;x++){
 3483              		.loc 1 786 0
 3484 11ae 0022     		movs	r2, #0
 3485 11b0 954B     		ldr	r3, .L629+12
 3486 11b2 1A60     		str	r2, [r3]
 3487 11b4 0CE0     		b	.L249
 3488              	.L250:
 787:.\protocolo.c **** 						rventa.tvolumen[x]=(Surtidor_rxBuffer[y+4+x]&0x0F);						
 3489              		.loc 1 787 0 discriminator 3
 3490 11b6 F218     		adds	r2, r6, r3
 3491 11b8 0432     		adds	r2, r2, #4
 3492 11ba 9048     		ldr	r0, .L629
 3493 11bc 805C     		ldrb	r0, [r0, r2]	@ zero_extendqisi2
 3494 11be 914A     		ldr	r2, .L629+8
 3495 11c0 1A44     		add	r2, r2, r3
 3496 11c2 00F00F00 		and	r0, r0, #15
 3497 11c6 82F8BD00 		strb	r0, [r2, #189]
 786:.\protocolo.c **** 					for(x=0;x<=7;x++){
 3498              		.loc 1 786 0 discriminator 3
 3499 11ca 0133     		adds	r3, r3, #1
 3500 11cc 8E4A     		ldr	r2, .L629+12
 3501 11ce 1360     		str	r3, [r2]
 3502              	.L249:
 786:.\protocolo.c **** 					for(x=0;x<=7;x++){
 3503              		.loc 1 786 0 is_stmt 0 discriminator 1
 3504 11d0 8D4B     		ldr	r3, .L629+12
 3505 11d2 1B68     		ldr	r3, [r3]
 3506 11d4 072B     		cmp	r3, #7
 3507 11d6 EED9     		bls	.L250
 788:.\protocolo.c **** 					}
 789:.\protocolo.c **** 					for(x=0;x<=7;x++){
 3508              		.loc 1 789 0 is_stmt 1
 3509 11d8 0022     		movs	r2, #0
 3510 11da 8B4B     		ldr	r3, .L629+12
 3511 11dc 1A60     		str	r2, [r3]
 3512 11de 0CE0     		b	.L251
 3513              	.L252:
 790:.\protocolo.c **** 						rventa.tdinero[x]=(Surtidor_rxBuffer[y+13+x]&0x0F);					
 3514              		.loc 1 790 0 discriminator 3
 3515 11e0 F218     		adds	r2, r6, r3
ARM GAS  C:\Users\diego\AppData\Local\Temp\cckx56kg.s 			page 80


 3516 11e2 0D32     		adds	r2, r2, #13
 3517 11e4 8548     		ldr	r0, .L629
 3518 11e6 805C     		ldrb	r0, [r0, r2]	@ zero_extendqisi2
 3519 11e8 864A     		ldr	r2, .L629+8
 3520 11ea 1A44     		add	r2, r2, r3
 3521 11ec 00F00F00 		and	r0, r0, #15
 3522 11f0 82F8CA00 		strb	r0, [r2, #202]
 789:.\protocolo.c **** 						rventa.tdinero[x]=(Surtidor_rxBuffer[y+13+x]&0x0F);					
 3523              		.loc 1 789 0 discriminator 3
 3524 11f4 0133     		adds	r3, r3, #1
 3525 11f6 844A     		ldr	r2, .L629+12
 3526 11f8 1360     		str	r3, [r2]
 3527              	.L251:
 789:.\protocolo.c **** 						rventa.tdinero[x]=(Surtidor_rxBuffer[y+13+x]&0x0F);					
 3528              		.loc 1 789 0 is_stmt 0 discriminator 1
 3529 11fa 834B     		ldr	r3, .L629+12
 3530 11fc 1B68     		ldr	r3, [r3]
 3531 11fe 072B     		cmp	r3, #7
 3532 1200 EED9     		bls	.L252
 791:.\protocolo.c **** 					}
 792:.\protocolo.c **** 					for(z=0;z<=7;z++){
 3533              		.loc 1 792 0 is_stmt 1
 3534 1202 0022     		movs	r2, #0
 3535 1204 814B     		ldr	r3, .L629+16
 3536 1206 1A60     		str	r2, [r3]
 3537 1208 0AE0     		b	.L253
 3538              	.L254:
 793:.\protocolo.c **** 						corte[z+1]=rventa.tvolumen[z];
 3539              		.loc 1 793 0 discriminator 3
 3540 120a 5A1C     		adds	r2, r3, #1
 3541 120c 7D48     		ldr	r0, .L629+8
 3542 120e 0344     		add	r3, r3, r0
 3543 1210 93F8BD00 		ldrb	r0, [r3, #189]	@ zero_extendqisi2
 3544 1214 10AB     		add	r3, sp, #64
 3545 1216 1344     		add	r3, r3, r2
 3546 1218 03F81C0C 		strb	r0, [r3, #-28]
 792:.\protocolo.c **** 						corte[z+1]=rventa.tvolumen[z];
 3547              		.loc 1 792 0 discriminator 3
 3548 121c 7B4B     		ldr	r3, .L629+16
 3549 121e 1A60     		str	r2, [r3]
 3550              	.L253:
 792:.\protocolo.c **** 						corte[z+1]=rventa.tvolumen[z];
 3551              		.loc 1 792 0 is_stmt 0 discriminator 1
 3552 1220 7A4B     		ldr	r3, .L629+16
 3553 1222 1B68     		ldr	r3, [r3]
 3554 1224 072B     		cmp	r3, #7
 3555 1226 F0D9     		bls	.L254
 794:.\protocolo.c **** 					}
 795:.\protocolo.c **** 					for(z=9;z<=16;z++){
 3556              		.loc 1 795 0 is_stmt 1
 3557 1228 0922     		movs	r2, #9
 3558 122a 784B     		ldr	r3, .L629+16
 3559 122c 1A60     		str	r2, [r3]
 3560 122e 0AE0     		b	.L255
 3561              	.L256:
 796:.\protocolo.c **** 						corte[z]=rventa.tdinero[z-9];
 3562              		.loc 1 796 0 discriminator 3
ARM GAS  C:\Users\diego\AppData\Local\Temp\cckx56kg.s 			page 81


 3563 1230 774A     		ldr	r2, .L629+20
 3564 1232 1A44     		add	r2, r2, r3
 3565 1234 92F8CA00 		ldrb	r0, [r2, #202]	@ zero_extendqisi2
 3566 1238 10AA     		add	r2, sp, #64
 3567 123a 1A44     		add	r2, r2, r3
 3568 123c 02F81C0C 		strb	r0, [r2, #-28]
 795:.\protocolo.c **** 						corte[z]=rventa.tdinero[z-9];
 3569              		.loc 1 795 0 discriminator 3
 3570 1240 0133     		adds	r3, r3, #1
 3571 1242 724A     		ldr	r2, .L629+16
 3572 1244 1360     		str	r3, [r2]
 3573              	.L255:
 795:.\protocolo.c **** 						corte[z]=rventa.tdinero[z-9];
 3574              		.loc 1 795 0 is_stmt 0 discriminator 1
 3575 1246 714B     		ldr	r3, .L629+16
 3576 1248 1B68     		ldr	r3, [r3]
 3577 124a 102B     		cmp	r3, #16
 3578 124c F0D9     		bls	.L256
 797:.\protocolo.c **** 					}
 798:.\protocolo.c **** 					corte[0]=16;		
 3579              		.loc 1 798 0 is_stmt 1
 3580 124e 1023     		movs	r3, #16
 3581 1250 8DF82430 		strb	r3, [sp, #36]
 799:.\protocolo.c **** 					if(((rventa.manguera==(producto1&0x0F))&&(dir==a.dir))||((rventa.manguera==(producto1b&0x0F))&
 3582              		.loc 1 799 0
 3583 1254 6F4B     		ldr	r3, .L629+24
 3584 1256 1B78     		ldrb	r3, [r3]	@ zero_extendqisi2
 3585 1258 03F00F03 		and	r3, r3, #15
 3586 125c 8B42     		cmp	r3, r1
 3587 125e 03D1     		bne	.L257
 3588              		.loc 1 799 0 is_stmt 0 discriminator 1
 3589 1260 6D4A     		ldr	r2, .L629+28
 3590 1262 1278     		ldrb	r2, [r2]	@ zero_extendqisi2
 3591 1264 AA42     		cmp	r2, r5
 3592 1266 17D0     		beq	.L258
 3593              	.L257:
 3594              		.loc 1 799 0 discriminator 3
 3595 1268 6C4A     		ldr	r2, .L629+32
 3596 126a 1278     		ldrb	r2, [r2]	@ zero_extendqisi2
 3597 126c 02F00F02 		and	r2, r2, #15
 3598 1270 9142     		cmp	r1, r2
 3599 1272 03D1     		bne	.L259
 3600              		.loc 1 799 0 discriminator 4
 3601 1274 6A48     		ldr	r0, .L629+36
 3602 1276 0078     		ldrb	r0, [r0]	@ zero_extendqisi2
 3603 1278 A842     		cmp	r0, r5
 3604 127a 0DD0     		beq	.L258
 3605              	.L259:
 3606              		.loc 1 799 0 discriminator 6
 3607 127c 8B42     		cmp	r3, r1
 3608 127e 03D1     		bne	.L260
 3609              		.loc 1 799 0 discriminator 7
 3610 1280 684B     		ldr	r3, .L629+40
 3611 1282 1B78     		ldrb	r3, [r3]	@ zero_extendqisi2
 3612 1284 AB42     		cmp	r3, r5
 3613 1286 07D0     		beq	.L258
 3614              	.L260:
ARM GAS  C:\Users\diego\AppData\Local\Temp\cckx56kg.s 			page 82


 3615              		.loc 1 799 0 discriminator 9
 3616 1288 9142     		cmp	r1, r2
 3617 128a 40F0E380 		bne	.L261
 3618              		.loc 1 799 0 discriminator 10
 3619 128e 664B     		ldr	r3, .L629+44
 3620 1290 1B78     		ldrb	r3, [r3]	@ zero_extendqisi2
 3621 1292 AB42     		cmp	r3, r5
 3622 1294 40F0DE80 		bne	.L261
 3623              	.L258:
 800:.\protocolo.c **** 						for(x=0;x<=5;x++){									
 3624              		.loc 1 800 0 is_stmt 1
 3625 1298 0022     		movs	r2, #0
 3626 129a 5B4B     		ldr	r3, .L629+12
 3627 129c 1A60     		str	r2, [r3]
 3628 129e 08E0     		b	.L262
 3629              	.L263:
 801:.\protocolo.c **** 							write_psoc1(val,msn_tc[x]);
 3630              		.loc 1 801 0 discriminator 3
 3631 12a0 2046     		mov	r0, r4
 3632 12a2 624A     		ldr	r2, .L629+48
 3633 12a4 D15C     		ldrb	r1, [r2, r3]	@ zero_extendqisi2
 3634 12a6 FFF7FEFF 		bl	write_psoc1
 3635              	.LVL271:
 800:.\protocolo.c **** 						for(x=0;x<=5;x++){									
 3636              		.loc 1 800 0 discriminator 3
 3637 12aa 574A     		ldr	r2, .L629+12
 3638 12ac 1368     		ldr	r3, [r2]
 3639 12ae 0133     		adds	r3, r3, #1
 3640 12b0 1360     		str	r3, [r2]
 3641              	.L262:
 800:.\protocolo.c **** 						for(x=0;x<=5;x++){									
 3642              		.loc 1 800 0 is_stmt 0 discriminator 1
 3643 12b2 554B     		ldr	r3, .L629+12
 3644 12b4 1B68     		ldr	r3, [r3]
 3645 12b6 052B     		cmp	r3, #5
 3646 12b8 F2D9     		bls	.L263
 802:.\protocolo.c **** 						}
 803:.\protocolo.c **** 						write_psoc1(val,10);
 3647              		.loc 1 803 0 is_stmt 1
 3648 12ba 2046     		mov	r0, r4
 3649 12bc 0A21     		movs	r1, #10
 3650 12be FFF7FEFF 		bl	write_psoc1
 3651              	.LVL272:
 804:.\protocolo.c ****                         for(x=0;x<=10;x++){									
 3652              		.loc 1 804 0
 3653 12c2 0022     		movs	r2, #0
 3654 12c4 504B     		ldr	r3, .L629+12
 3655 12c6 1A60     		str	r2, [r3]
 3656 12c8 08E0     		b	.L264
 3657              	.L265:
 805:.\protocolo.c **** 						write_psoc1(val,producto1n[x]);
 3658              		.loc 1 805 0 discriminator 3
 3659 12ca 2046     		mov	r0, r4
 3660 12cc 584A     		ldr	r2, .L629+52
 3661 12ce D15C     		ldrb	r1, [r2, r3]	@ zero_extendqisi2
 3662 12d0 FFF7FEFF 		bl	write_psoc1
 3663              	.LVL273:
ARM GAS  C:\Users\diego\AppData\Local\Temp\cckx56kg.s 			page 83


 804:.\protocolo.c ****                         for(x=0;x<=10;x++){									
 3664              		.loc 1 804 0 discriminator 3
 3665 12d4 4C4A     		ldr	r2, .L629+12
 3666 12d6 1368     		ldr	r3, [r2]
 3667 12d8 0133     		adds	r3, r3, #1
 3668 12da 1360     		str	r3, [r2]
 3669              	.L264:
 804:.\protocolo.c ****                         for(x=0;x<=10;x++){									
 3670              		.loc 1 804 0 is_stmt 0 discriminator 1
 3671 12dc 4A4B     		ldr	r3, .L629+12
 3672 12de 1B68     		ldr	r3, [r3]
 3673 12e0 0A2B     		cmp	r3, #10
 3674 12e2 F2D9     		bls	.L265
 806:.\protocolo.c **** 					    }
 807:.\protocolo.c ****                         write_psoc1(val,10);
 3675              		.loc 1 807 0 is_stmt 1
 3676 12e4 2046     		mov	r0, r4
 3677 12e6 0A21     		movs	r1, #10
 3678 12e8 FFF7FEFF 		bl	write_psoc1
 3679              	.LVL274:
 808:.\protocolo.c **** 						for(x=0;x<=14;x++){									
 3680              		.loc 1 808 0
 3681 12ec 0022     		movs	r2, #0
 3682 12ee 464B     		ldr	r3, .L629+12
 3683 12f0 1A60     		str	r2, [r3]
 3684 12f2 09E0     		b	.L266
 3685              	.L267:
 809:.\protocolo.c **** 							write_psoc1(val,msn_lecact[x]);				//LECTURA ACTUAL
 3686              		.loc 1 809 0 discriminator 3
 3687 12f4 4D4A     		ldr	r2, .L629+48
 3688 12f6 1344     		add	r3, r3, r2
 3689 12f8 2046     		mov	r0, r4
 3690 12fa 197A     		ldrb	r1, [r3, #8]	@ zero_extendqisi2
 3691 12fc FFF7FEFF 		bl	write_psoc1
 3692              	.LVL275:
 808:.\protocolo.c **** 						for(x=0;x<=14;x++){									
 3693              		.loc 1 808 0 discriminator 3
 3694 1300 414A     		ldr	r2, .L629+12
 3695 1302 1368     		ldr	r3, [r2]
 3696 1304 0133     		adds	r3, r3, #1
 3697 1306 1360     		str	r3, [r2]
 3698              	.L266:
 808:.\protocolo.c **** 						for(x=0;x<=14;x++){									
 3699              		.loc 1 808 0 is_stmt 0 discriminator 1
 3700 1308 3F4B     		ldr	r3, .L629+12
 3701 130a 1B68     		ldr	r3, [r3]
 3702 130c 0E2B     		cmp	r3, #14
 3703 130e F1D9     		bls	.L267
 810:.\protocolo.c **** 						}
 811:.\protocolo.c **** 						write_psoc1(val,10);
 3704              		.loc 1 811 0 is_stmt 1
 3705 1310 2046     		mov	r0, r4
 3706 1312 0A21     		movs	r1, #10
 3707 1314 FFF7FEFF 		bl	write_psoc1
 3708              	.LVL276:
 812:.\protocolo.c **** 						print_totalesac(8,val);	
 3709              		.loc 1 812 0
ARM GAS  C:\Users\diego\AppData\Local\Temp\cckx56kg.s 			page 84


 3710 1318 0820     		movs	r0, #8
 3711 131a 2146     		mov	r1, r4
 3712 131c FFF7FEFF 		bl	print_totalesac
 3713              	.LVL277:
 813:.\protocolo.c **** 						for(x=0;x<=16;x++){												
 3714              		.loc 1 813 0
 3715 1320 0022     		movs	r2, #0
 3716 1322 394B     		ldr	r3, .L629+12
 3717 1324 1A60     		str	r2, [r3]
 3718 1326 09E0     		b	.L268
 3719              	.L269:
 814:.\protocolo.c **** 							write_psoc1(val,msn_lecaan[x]);				//LECTURA ANTERIOR
 3720              		.loc 1 814 0 discriminator 3
 3721 1328 404A     		ldr	r2, .L629+48
 3722 132a 1344     		add	r3, r3, r2
 3723 132c 2046     		mov	r0, r4
 3724 132e 197E     		ldrb	r1, [r3, #24]	@ zero_extendqisi2
 3725 1330 FFF7FEFF 		bl	write_psoc1
 3726              	.LVL278:
 813:.\protocolo.c **** 						for(x=0;x<=16;x++){												
 3727              		.loc 1 813 0 discriminator 3
 3728 1334 344A     		ldr	r2, .L629+12
 3729 1336 1368     		ldr	r3, [r2]
 3730 1338 0133     		adds	r3, r3, #1
 3731 133a 1360     		str	r3, [r2]
 3732              	.L268:
 813:.\protocolo.c **** 						for(x=0;x<=16;x++){												
 3733              		.loc 1 813 0 is_stmt 0 discriminator 1
 3734 133c 324B     		ldr	r3, .L629+12
 3735 133e 1B68     		ldr	r3, [r3]
 3736 1340 102B     		cmp	r3, #16
 3737 1342 F1D9     		bls	.L269
 815:.\protocolo.c **** 						}
 816:.\protocolo.c **** 						write_psoc1(val,10);
 3738              		.loc 1 816 0 is_stmt 1
 3739 1344 2046     		mov	r0, r4
 3740 1346 0A21     		movs	r1, #10
 3741 1348 FFF7FEFF 		bl	write_psoc1
 3742              	.LVL279:
 817:.\protocolo.c **** 						if(dir==a.dir){
 3743              		.loc 1 817 0
 3744 134c 324B     		ldr	r3, .L629+28
 3745 134e 1B78     		ldrb	r3, [r3]	@ zero_extendqisi2
 3746 1350 AB42     		cmp	r3, r5
 3747 1352 04D1     		bne	.L270
 818:.\protocolo.c **** 							leer_eeprom(192,25);
 3748              		.loc 1 818 0
 3749 1354 C020     		movs	r0, #192
 3750 1356 1921     		movs	r1, #25
 3751 1358 FFF7FEFF 		bl	leer_eeprom
 3752              	.LVL280:
 3753 135c 04E0     		b	.L271
 3754              	.L270:
 819:.\protocolo.c **** 						}
 820:.\protocolo.c **** 						else{
 821:.\protocolo.c **** 							leer_eeprom(281,25);
 3755              		.loc 1 821 0
ARM GAS  C:\Users\diego\AppData\Local\Temp\cckx56kg.s 			page 85


 3756 135e 40F21910 		movw	r0, #281
 3757 1362 1921     		movs	r1, #25
 3758 1364 FFF7FEFF 		bl	leer_eeprom
 3759              	.LVL281:
 3760              	.L271:
 822:.\protocolo.c **** 						}
 823:.\protocolo.c **** 						print_totales(val);
 3761              		.loc 1 823 0
 3762 1368 2046     		mov	r0, r4
 3763 136a FFF7FEFF 		bl	print_totales
 3764              	.LVL282:
 824:.\protocolo.c **** 						for(z=1;z<=8;z++){
 3765              		.loc 1 824 0
 3766 136e 0122     		movs	r2, #1
 3767 1370 264B     		ldr	r3, .L629+16
 3768 1372 1A60     		str	r2, [r3]
 3769 1374 10E0     		b	.L272
 3770              	.L273:
 825:.\protocolo.c **** 							minuendo[z]=rventa.tdinero[z-1];
 3771              		.loc 1 825 0 discriminator 3
 3772 1376 2F4A     		ldr	r2, .L629+56
 3773 1378 1A44     		add	r2, r2, r3
 3774 137a 92F8CA10 		ldrb	r1, [r2, #202]	@ zero_extendqisi2
 3775 137e 10AA     		add	r2, sp, #64
 3776 1380 1A44     		add	r2, r2, r3
 3777 1382 02F82C1C 		strb	r1, [r2, #-44]
 826:.\protocolo.c **** 							sustraendo[z]=buffer_i2c[z+8];
 3778              		.loc 1 826 0 discriminator 3
 3779 1386 03F10801 		add	r1, r3, #8
 3780 138a 2B48     		ldr	r0, .L629+60
 3781 138c 415C     		ldrb	r1, [r0, r1]	@ zero_extendqisi2
 3782 138e 02F83C1C 		strb	r1, [r2, #-60]
 824:.\protocolo.c **** 						for(z=1;z<=8;z++){
 3783              		.loc 1 824 0 discriminator 3
 3784 1392 0133     		adds	r3, r3, #1
 3785 1394 1D4A     		ldr	r2, .L629+16
 3786 1396 1360     		str	r3, [r2]
 3787              	.L272:
 824:.\protocolo.c **** 						for(z=1;z<=8;z++){
 3788              		.loc 1 824 0 is_stmt 0 discriminator 1
 3789 1398 1C4B     		ldr	r3, .L629+16
 3790 139a 1B68     		ldr	r3, [r3]
 3791 139c 082B     		cmp	r3, #8
 3792 139e EAD9     		bls	.L273
 827:.\protocolo.c **** 						}
 828:.\protocolo.c **** 						minuendo[0]=8;
 3793              		.loc 1 828 0 is_stmt 1
 3794 13a0 10A9     		add	r1, sp, #64
 3795 13a2 0823     		movs	r3, #8
 3796 13a4 01F82C3D 		strb	r3, [r1, #-44]!
 829:.\protocolo.c **** 						operacion(2,minuendo,sustraendo);
 3797              		.loc 1 829 0
 3798 13a8 0220     		movs	r0, #2
 3799 13aa 01AA     		add	r2, sp, #4
 3800 13ac FFF7FEFF 		bl	operacion
 3801              	.LVL283:
 830:.\protocolo.c **** 						for(x=0;x<=17;x++){									
ARM GAS  C:\Users\diego\AppData\Local\Temp\cckx56kg.s 			page 86


 3802              		.loc 1 830 0
 3803 13b0 0022     		movs	r2, #0
 3804 13b2 154B     		ldr	r3, .L629+12
 3805 13b4 1A60     		str	r2, [r3]
 3806 13b6 0AE0     		b	.L274
 3807              	.L275:
 831:.\protocolo.c **** 							write_psoc1(val,msn_tventas[x]);				//Total de ventas
 3808              		.loc 1 831 0 discriminator 3
 3809 13b8 1C4A     		ldr	r2, .L629+48
 3810 13ba 1344     		add	r3, r3, r2
 3811 13bc 2046     		mov	r0, r4
 3812 13be 93F82C10 		ldrb	r1, [r3, #44]	@ zero_extendqisi2
 3813 13c2 FFF7FEFF 		bl	write_psoc1
 3814              	.LVL284:
 830:.\protocolo.c **** 						for(x=0;x<=17;x++){									
 3815              		.loc 1 830 0 discriminator 3
 3816 13c6 104A     		ldr	r2, .L629+12
 3817 13c8 1368     		ldr	r3, [r2]
 3818 13ca 0133     		adds	r3, r3, #1
 3819 13cc 1360     		str	r3, [r2]
 3820              	.L274:
 830:.\protocolo.c **** 						for(x=0;x<=17;x++){									
 3821              		.loc 1 830 0 is_stmt 0 discriminator 1
 3822 13ce 0E4B     		ldr	r3, .L629+12
 3823 13d0 1B68     		ldr	r3, [r3]
 3824 13d2 112B     		cmp	r3, #17
 3825 13d4 F0D9     		bls	.L275
 832:.\protocolo.c **** 						}
 833:.\protocolo.c **** 						print_valor(resultado,val);
 3826              		.loc 1 833 0 is_stmt 1
 3827 13d6 1948     		ldr	r0, .L629+64
 3828 13d8 2146     		mov	r1, r4
 3829 13da FFF7FEFF 		bl	print_valor
 3830              	.LVL285:
 834:.\protocolo.c **** 						if(dir==a.dir){
 3831              		.loc 1 834 0
 3832 13de 0E4B     		ldr	r3, .L629+28
 3833 13e0 1B78     		ldrb	r3, [r3]	@ zero_extendqisi2
 3834 13e2 AB42     		cmp	r3, r5
 3835 13e4 2CD1     		bne	.L276
 835:.\protocolo.c **** 							write_eeprom(192,corte);	
 3836              		.loc 1 835 0
 3837 13e6 C020     		movs	r0, #192
 3838 13e8 09A9     		add	r1, sp, #36
 3839 13ea FFF7FEFF 		bl	write_eeprom
 3840              	.LVL286:
 836:.\protocolo.c **** 							write_eeprom(512,resultado);
 3841              		.loc 1 836 0
 3842 13ee 4FF40070 		mov	r0, #512
 3843 13f2 1249     		ldr	r1, .L629+64
 3844 13f4 FFF7FEFF 		bl	write_eeprom
 3845              	.LVL287:
 3846 13f8 2CE0     		b	.L261
 3847              	.L630:
 3848 13fa 00BF     		.align	2
 3849              	.L629:
 3850 13fc 00000000 		.word	Surtidor_rxBuffer
ARM GAS  C:\Users\diego\AppData\Local\Temp\cckx56kg.s 			page 87


 3851 1400 00000000 		.word	y
 3852 1404 00000000 		.word	rventa
 3853 1408 00000000 		.word	x
 3854 140c 00000000 		.word	z
 3855 1410 F7FFFFFF 		.word	rventa-9
 3856 1414 00000000 		.word	producto1
 3857 1418 00000000 		.word	a
 3858 141c 00000000 		.word	producto1b
 3859 1420 00000000 		.word	b
 3860 1424 00000000 		.word	c
 3861 1428 00000000 		.word	d
 3862 142c 00000000 		.word	.LANCHOR1
 3863 1430 00000000 		.word	producto1n
 3864 1434 FFFFFFFF 		.word	rventa-1
 3865 1438 00000000 		.word	buffer_i2c
 3866 143c 00000000 		.word	resultado
 3867              	.L276:
 837:.\protocolo.c **** 						}
 838:.\protocolo.c **** 						else{
 839:.\protocolo.c **** 							write_eeprom(281,corte);
 3868              		.loc 1 839 0
 3869 1440 40F21910 		movw	r0, #281
 3870 1444 09A9     		add	r1, sp, #36
 3871 1446 FFF7FEFF 		bl	write_eeprom
 3872              	.LVL288:
 840:.\protocolo.c **** 							write_eeprom(551,resultado);
 3873              		.loc 1 840 0
 3874 144a 40F22720 		movw	r0, #551
 3875 144e A249     		ldr	r1, .L631
 3876 1450 FFF7FEFF 		bl	write_eeprom
 3877              	.LVL289:
 3878              	.L261:
 841:.\protocolo.c **** 						}
 842:.\protocolo.c **** 					}
 843:.\protocolo.c **** 					if(((rventa.manguera==(producto2&0x0F))&&(dir==a.dir))||((rventa.manguera==(producto2b&0x0F))&
 3879              		.loc 1 843 0
 3880 1454 A14B     		ldr	r3, .L631+4
 3881 1456 93F8E010 		ldrb	r1, [r3, #224]	@ zero_extendqisi2
 3882 145a A14B     		ldr	r3, .L631+8
 3883 145c 1B78     		ldrb	r3, [r3]	@ zero_extendqisi2
 3884 145e 03F00F03 		and	r3, r3, #15
 3885 1462 8B42     		cmp	r3, r1
 3886 1464 03D1     		bne	.L277
 3887              		.loc 1 843 0 is_stmt 0 discriminator 1
 3888 1466 9F4A     		ldr	r2, .L631+12
 3889 1468 1278     		ldrb	r2, [r2]	@ zero_extendqisi2
 3890 146a AA42     		cmp	r2, r5
 3891 146c 17D0     		beq	.L278
 3892              	.L277:
 3893              		.loc 1 843 0 discriminator 3
 3894 146e 9E4A     		ldr	r2, .L631+16
 3895 1470 1278     		ldrb	r2, [r2]	@ zero_extendqisi2
 3896 1472 02F00F02 		and	r2, r2, #15
 3897 1476 9142     		cmp	r1, r2
 3898 1478 03D1     		bne	.L279
 3899              		.loc 1 843 0 discriminator 4
 3900 147a 9C48     		ldr	r0, .L631+20
ARM GAS  C:\Users\diego\AppData\Local\Temp\cckx56kg.s 			page 88


 3901 147c 0078     		ldrb	r0, [r0]	@ zero_extendqisi2
 3902 147e A842     		cmp	r0, r5
 3903 1480 0DD0     		beq	.L278
 3904              	.L279:
 3905              		.loc 1 843 0 discriminator 6
 3906 1482 9142     		cmp	r1, r2
 3907 1484 03D1     		bne	.L280
 3908              		.loc 1 843 0 discriminator 7
 3909 1486 9A4A     		ldr	r2, .L631+24
 3910 1488 1278     		ldrb	r2, [r2]	@ zero_extendqisi2
 3911 148a AA42     		cmp	r2, r5
 3912 148c 07D0     		beq	.L278
 3913              	.L280:
 3914              		.loc 1 843 0 discriminator 9
 3915 148e 8B42     		cmp	r3, r1
 3916 1490 40F0C080 		bne	.L281
 3917              		.loc 1 843 0 discriminator 10
 3918 1494 974B     		ldr	r3, .L631+28
 3919 1496 1B78     		ldrb	r3, [r3]	@ zero_extendqisi2
 3920 1498 AB42     		cmp	r3, r5
 3921 149a 40F0BB80 		bne	.L281
 3922              	.L278:
 844:.\protocolo.c **** 						for(x=0;x<=5;x++){									
 3923              		.loc 1 844 0 is_stmt 1
 3924 149e 0022     		movs	r2, #0
 3925 14a0 954B     		ldr	r3, .L631+32
 3926 14a2 1A60     		str	r2, [r3]
 3927 14a4 08E0     		b	.L282
 3928              	.L283:
 845:.\protocolo.c **** 						    write_psoc1(val,msn_tc[x]);
 3929              		.loc 1 845 0 discriminator 3
 3930 14a6 2046     		mov	r0, r4
 3931 14a8 944A     		ldr	r2, .L631+36
 3932 14aa D15C     		ldrb	r1, [r2, r3]	@ zero_extendqisi2
 3933 14ac FFF7FEFF 		bl	write_psoc1
 3934              	.LVL290:
 844:.\protocolo.c **** 						for(x=0;x<=5;x++){									
 3935              		.loc 1 844 0 discriminator 3
 3936 14b0 914A     		ldr	r2, .L631+32
 3937 14b2 1368     		ldr	r3, [r2]
 3938 14b4 0133     		adds	r3, r3, #1
 3939 14b6 1360     		str	r3, [r2]
 3940              	.L282:
 844:.\protocolo.c **** 						for(x=0;x<=5;x++){									
 3941              		.loc 1 844 0 is_stmt 0 discriminator 1
 3942 14b8 8F4B     		ldr	r3, .L631+32
 3943 14ba 1B68     		ldr	r3, [r3]
 3944 14bc 052B     		cmp	r3, #5
 3945 14be F2D9     		bls	.L283
 846:.\protocolo.c **** 					    }
 847:.\protocolo.c **** 					    write_psoc1(val,10);
 3946              		.loc 1 847 0 is_stmt 1
 3947 14c0 2046     		mov	r0, r4
 3948 14c2 0A21     		movs	r1, #10
 3949 14c4 FFF7FEFF 		bl	write_psoc1
 3950              	.LVL291:
 848:.\protocolo.c ****                         for(x=0;x<=10;x++){									
ARM GAS  C:\Users\diego\AppData\Local\Temp\cckx56kg.s 			page 89


 3951              		.loc 1 848 0
 3952 14c8 0022     		movs	r2, #0
 3953 14ca 8B4B     		ldr	r3, .L631+32
 3954 14cc 1A60     		str	r2, [r3]
 3955 14ce 08E0     		b	.L284
 3956              	.L285:
 849:.\protocolo.c **** 						    write_psoc1(val,producto2n[x]);
 3957              		.loc 1 849 0 discriminator 3
 3958 14d0 2046     		mov	r0, r4
 3959 14d2 8B4A     		ldr	r2, .L631+40
 3960 14d4 D15C     		ldrb	r1, [r2, r3]	@ zero_extendqisi2
 3961 14d6 FFF7FEFF 		bl	write_psoc1
 3962              	.LVL292:
 848:.\protocolo.c ****                         for(x=0;x<=10;x++){									
 3963              		.loc 1 848 0 discriminator 3
 3964 14da 874A     		ldr	r2, .L631+32
 3965 14dc 1368     		ldr	r3, [r2]
 3966 14de 0133     		adds	r3, r3, #1
 3967 14e0 1360     		str	r3, [r2]
 3968              	.L284:
 848:.\protocolo.c ****                         for(x=0;x<=10;x++){									
 3969              		.loc 1 848 0 is_stmt 0 discriminator 1
 3970 14e2 854B     		ldr	r3, .L631+32
 3971 14e4 1B68     		ldr	r3, [r3]
 3972 14e6 0A2B     		cmp	r3, #10
 3973 14e8 F2D9     		bls	.L285
 850:.\protocolo.c **** 					    }
 851:.\protocolo.c ****                         write_psoc1(val,10);
 3974              		.loc 1 851 0 is_stmt 1
 3975 14ea 2046     		mov	r0, r4
 3976 14ec 0A21     		movs	r1, #10
 3977 14ee FFF7FEFF 		bl	write_psoc1
 3978              	.LVL293:
 852:.\protocolo.c **** 						for(x=0;x<=14;x++){									
 3979              		.loc 1 852 0
 3980 14f2 0022     		movs	r2, #0
 3981 14f4 804B     		ldr	r3, .L631+32
 3982 14f6 1A60     		str	r2, [r3]
 3983 14f8 09E0     		b	.L286
 3984              	.L287:
 853:.\protocolo.c **** 							write_psoc1(val,msn_lecact[x]);				//LECTURA ACTUAL
 3985              		.loc 1 853 0 discriminator 3
 3986 14fa 804A     		ldr	r2, .L631+36
 3987 14fc 1344     		add	r3, r3, r2
 3988 14fe 2046     		mov	r0, r4
 3989 1500 197A     		ldrb	r1, [r3, #8]	@ zero_extendqisi2
 3990 1502 FFF7FEFF 		bl	write_psoc1
 3991              	.LVL294:
 852:.\protocolo.c **** 						for(x=0;x<=14;x++){									
 3992              		.loc 1 852 0 discriminator 3
 3993 1506 7C4A     		ldr	r2, .L631+32
 3994 1508 1368     		ldr	r3, [r2]
 3995 150a 0133     		adds	r3, r3, #1
 3996 150c 1360     		str	r3, [r2]
 3997              	.L286:
 852:.\protocolo.c **** 						for(x=0;x<=14;x++){									
 3998              		.loc 1 852 0 is_stmt 0 discriminator 1
ARM GAS  C:\Users\diego\AppData\Local\Temp\cckx56kg.s 			page 90


 3999 150e 7A4B     		ldr	r3, .L631+32
 4000 1510 1B68     		ldr	r3, [r3]
 4001 1512 0E2B     		cmp	r3, #14
 4002 1514 F1D9     		bls	.L287
 854:.\protocolo.c **** 						}
 855:.\protocolo.c **** 						write_psoc1(val,10);
 4003              		.loc 1 855 0 is_stmt 1
 4004 1516 2046     		mov	r0, r4
 4005 1518 0A21     		movs	r1, #10
 4006 151a FFF7FEFF 		bl	write_psoc1
 4007              	.LVL295:
 856:.\protocolo.c **** 						print_totalesac(8,val);	
 4008              		.loc 1 856 0
 4009 151e 0820     		movs	r0, #8
 4010 1520 2146     		mov	r1, r4
 4011 1522 FFF7FEFF 		bl	print_totalesac
 4012              	.LVL296:
 857:.\protocolo.c **** 						for(x=0;x<=16;x++){												
 4013              		.loc 1 857 0
 4014 1526 0022     		movs	r2, #0
 4015 1528 734B     		ldr	r3, .L631+32
 4016 152a 1A60     		str	r2, [r3]
 4017 152c 09E0     		b	.L288
 4018              	.L289:
 858:.\protocolo.c **** 							write_psoc1(val,msn_lecaan[x]);				//LECTURA ANTERIOR
 4019              		.loc 1 858 0 discriminator 3
 4020 152e 734A     		ldr	r2, .L631+36
 4021 1530 1344     		add	r3, r3, r2
 4022 1532 2046     		mov	r0, r4
 4023 1534 197E     		ldrb	r1, [r3, #24]	@ zero_extendqisi2
 4024 1536 FFF7FEFF 		bl	write_psoc1
 4025              	.LVL297:
 857:.\protocolo.c **** 						for(x=0;x<=16;x++){												
 4026              		.loc 1 857 0 discriminator 3
 4027 153a 6F4A     		ldr	r2, .L631+32
 4028 153c 1368     		ldr	r3, [r2]
 4029 153e 0133     		adds	r3, r3, #1
 4030 1540 1360     		str	r3, [r2]
 4031              	.L288:
 857:.\protocolo.c **** 						for(x=0;x<=16;x++){												
 4032              		.loc 1 857 0 is_stmt 0 discriminator 1
 4033 1542 6D4B     		ldr	r3, .L631+32
 4034 1544 1B68     		ldr	r3, [r3]
 4035 1546 102B     		cmp	r3, #16
 4036 1548 F1D9     		bls	.L289
 859:.\protocolo.c **** 						}
 860:.\protocolo.c **** 						write_psoc1(val,10);
 4037              		.loc 1 860 0 is_stmt 1
 4038 154a 2046     		mov	r0, r4
 4039 154c 0A21     		movs	r1, #10
 4040 154e FFF7FEFF 		bl	write_psoc1
 4041              	.LVL298:
 861:.\protocolo.c **** 						if(dir==a.dir){
 4042              		.loc 1 861 0
 4043 1552 644B     		ldr	r3, .L631+12
 4044 1554 1B78     		ldrb	r3, [r3]	@ zero_extendqisi2
 4045 1556 AB42     		cmp	r3, r5
ARM GAS  C:\Users\diego\AppData\Local\Temp\cckx56kg.s 			page 91


 4046 1558 04D1     		bne	.L290
 862:.\protocolo.c **** 							leer_eeprom(217,25);
 4047              		.loc 1 862 0
 4048 155a D920     		movs	r0, #217
 4049 155c 1921     		movs	r1, #25
 4050 155e FFF7FEFF 		bl	leer_eeprom
 4051              	.LVL299:
 4052 1562 04E0     		b	.L291
 4053              	.L290:
 863:.\protocolo.c **** 						}
 864:.\protocolo.c **** 						else{
 865:.\protocolo.c **** 							leer_eeprom(320,25);
 4054              		.loc 1 865 0
 4055 1564 4FF4A070 		mov	r0, #320
 4056 1568 1921     		movs	r1, #25
 4057 156a FFF7FEFF 		bl	leer_eeprom
 4058              	.LVL300:
 4059              	.L291:
 866:.\protocolo.c **** 						}
 867:.\protocolo.c **** 						print_totales(val);
 4060              		.loc 1 867 0
 4061 156e 2046     		mov	r0, r4
 4062 1570 FFF7FEFF 		bl	print_totales
 4063              	.LVL301:
 868:.\protocolo.c **** 						for(z=1;z<=8;z++){
 4064              		.loc 1 868 0
 4065 1574 0122     		movs	r2, #1
 4066 1576 634B     		ldr	r3, .L631+44
 4067 1578 1A60     		str	r2, [r3]
 4068 157a 10E0     		b	.L292
 4069              	.L293:
 869:.\protocolo.c **** 							minuendo[z]=rventa.tdinero[z-1];
 4070              		.loc 1 869 0 discriminator 3
 4071 157c 624A     		ldr	r2, .L631+48
 4072 157e 1A44     		add	r2, r2, r3
 4073 1580 92F8CA10 		ldrb	r1, [r2, #202]	@ zero_extendqisi2
 4074 1584 10AA     		add	r2, sp, #64
 4075 1586 1A44     		add	r2, r2, r3
 4076 1588 02F82C1C 		strb	r1, [r2, #-44]
 870:.\protocolo.c **** 							sustraendo[z]=buffer_i2c[z+8];
 4077              		.loc 1 870 0 discriminator 3
 4078 158c 03F10801 		add	r1, r3, #8
 4079 1590 5E48     		ldr	r0, .L631+52
 4080 1592 415C     		ldrb	r1, [r0, r1]	@ zero_extendqisi2
 4081 1594 02F83C1C 		strb	r1, [r2, #-60]
 868:.\protocolo.c **** 						for(z=1;z<=8;z++){
 4082              		.loc 1 868 0 discriminator 3
 4083 1598 0133     		adds	r3, r3, #1
 4084 159a 5A4A     		ldr	r2, .L631+44
 4085 159c 1360     		str	r3, [r2]
 4086              	.L292:
 868:.\protocolo.c **** 						for(z=1;z<=8;z++){
 4087              		.loc 1 868 0 is_stmt 0 discriminator 1
 4088 159e 594B     		ldr	r3, .L631+44
 4089 15a0 1B68     		ldr	r3, [r3]
 4090 15a2 082B     		cmp	r3, #8
 4091 15a4 EAD9     		bls	.L293
ARM GAS  C:\Users\diego\AppData\Local\Temp\cckx56kg.s 			page 92


 871:.\protocolo.c **** 						}
 872:.\protocolo.c **** 						minuendo[0]=8;
 4092              		.loc 1 872 0 is_stmt 1
 4093 15a6 10A9     		add	r1, sp, #64
 4094 15a8 0823     		movs	r3, #8
 4095 15aa 01F82C3D 		strb	r3, [r1, #-44]!
 873:.\protocolo.c **** 						operacion(2,minuendo,sustraendo);
 4096              		.loc 1 873 0
 4097 15ae 0220     		movs	r0, #2
 4098 15b0 01AA     		add	r2, sp, #4
 4099 15b2 FFF7FEFF 		bl	operacion
 4100              	.LVL302:
 874:.\protocolo.c **** 						for(x=0;x<=17;x++){									
 4101              		.loc 1 874 0
 4102 15b6 0022     		movs	r2, #0
 4103 15b8 4F4B     		ldr	r3, .L631+32
 4104 15ba 1A60     		str	r2, [r3]
 4105 15bc 0AE0     		b	.L294
 4106              	.L295:
 875:.\protocolo.c **** 							write_psoc1(val,msn_tventas[x]);				//Total de ventas
 4107              		.loc 1 875 0 discriminator 3
 4108 15be 4F4A     		ldr	r2, .L631+36
 4109 15c0 1344     		add	r3, r3, r2
 4110 15c2 2046     		mov	r0, r4
 4111 15c4 93F82C10 		ldrb	r1, [r3, #44]	@ zero_extendqisi2
 4112 15c8 FFF7FEFF 		bl	write_psoc1
 4113              	.LVL303:
 874:.\protocolo.c **** 						for(x=0;x<=17;x++){									
 4114              		.loc 1 874 0 discriminator 3
 4115 15cc 4A4A     		ldr	r2, .L631+32
 4116 15ce 1368     		ldr	r3, [r2]
 4117 15d0 0133     		adds	r3, r3, #1
 4118 15d2 1360     		str	r3, [r2]
 4119              	.L294:
 874:.\protocolo.c **** 						for(x=0;x<=17;x++){									
 4120              		.loc 1 874 0 is_stmt 0 discriminator 1
 4121 15d4 484B     		ldr	r3, .L631+32
 4122 15d6 1B68     		ldr	r3, [r3]
 4123 15d8 112B     		cmp	r3, #17
 4124 15da F0D9     		bls	.L295
 876:.\protocolo.c **** 						}
 877:.\protocolo.c **** 						print_valor(resultado,val);				
 4125              		.loc 1 877 0 is_stmt 1
 4126 15dc 3E48     		ldr	r0, .L631
 4127 15de 2146     		mov	r1, r4
 4128 15e0 FFF7FEFF 		bl	print_valor
 4129              	.LVL304:
 878:.\protocolo.c **** 						if(dir==a.dir){
 4130              		.loc 1 878 0
 4131 15e4 3F4B     		ldr	r3, .L631+12
 4132 15e6 1B78     		ldrb	r3, [r3]	@ zero_extendqisi2
 4133 15e8 AB42     		cmp	r3, r5
 4134 15ea 09D1     		bne	.L296
 879:.\protocolo.c **** 							write_eeprom(217,corte);
 4135              		.loc 1 879 0
 4136 15ec D920     		movs	r0, #217
 4137 15ee 09A9     		add	r1, sp, #36
ARM GAS  C:\Users\diego\AppData\Local\Temp\cckx56kg.s 			page 93


 4138 15f0 FFF7FEFF 		bl	write_eeprom
 4139              	.LVL305:
 880:.\protocolo.c **** 							write_eeprom(538,resultado);
 4140              		.loc 1 880 0
 4141 15f4 40F21A20 		movw	r0, #538
 4142 15f8 3749     		ldr	r1, .L631
 4143 15fa FFF7FEFF 		bl	write_eeprom
 4144              	.LVL306:
 4145 15fe 09E0     		b	.L281
 4146              	.L296:
 881:.\protocolo.c **** 						}
 882:.\protocolo.c **** 						else{
 883:.\protocolo.c **** 							write_eeprom(320,corte);
 4147              		.loc 1 883 0
 4148 1600 4FF4A070 		mov	r0, #320
 4149 1604 09A9     		add	r1, sp, #36
 4150 1606 FFF7FEFF 		bl	write_eeprom
 4151              	.LVL307:
 884:.\protocolo.c **** 							write_eeprom(576,resultado);
 4152              		.loc 1 884 0
 4153 160a 4FF41070 		mov	r0, #576
 4154 160e 3249     		ldr	r1, .L631
 4155 1610 FFF7FEFF 		bl	write_eeprom
 4156              	.LVL308:
 4157              	.L281:
 885:.\protocolo.c **** 						}				
 886:.\protocolo.c **** 					}
 887:.\protocolo.c **** 					if(((rventa.manguera==(producto3&0x0F))&&(dir==a.dir))||((rventa.manguera==(producto3b&0x0F))&
 4158              		.loc 1 887 0
 4159 1614 314B     		ldr	r3, .L631+4
 4160 1616 93F8E020 		ldrb	r2, [r3, #224]	@ zero_extendqisi2
 4161 161a 3D4B     		ldr	r3, .L631+56
 4162 161c 1B78     		ldrb	r3, [r3]	@ zero_extendqisi2
 4163 161e 03F00F03 		and	r3, r3, #15
 4164 1622 9342     		cmp	r3, r2
 4165 1624 03D1     		bne	.L297
 4166              		.loc 1 887 0 is_stmt 0 discriminator 1
 4167 1626 2F4B     		ldr	r3, .L631+12
 4168 1628 1B78     		ldrb	r3, [r3]	@ zero_extendqisi2
 4169 162a AB42     		cmp	r3, r5
 4170 162c 0BD0     		beq	.L298
 4171              	.L297:
 4172              		.loc 1 887 0 discriminator 3
 4173 162e 394B     		ldr	r3, .L631+60
 4174 1630 1B78     		ldrb	r3, [r3]	@ zero_extendqisi2
 4175 1632 03F00F03 		and	r3, r3, #15
 4176 1636 9A42     		cmp	r2, r3
 4177 1638 40F0E580 		bne	.L299
 4178              		.loc 1 887 0 discriminator 4
 4179 163c 2B4B     		ldr	r3, .L631+20
 4180 163e 1B78     		ldrb	r3, [r3]	@ zero_extendqisi2
 4181 1640 AB42     		cmp	r3, r5
 4182 1642 40F0E080 		bne	.L299
 4183              	.L298:
 888:.\protocolo.c **** 						for(x=0;x<=5;x++){									
 4184              		.loc 1 888 0 is_stmt 1
 4185 1646 0022     		movs	r2, #0
ARM GAS  C:\Users\diego\AppData\Local\Temp\cckx56kg.s 			page 94


 4186 1648 2B4B     		ldr	r3, .L631+32
 4187 164a 1A60     		str	r2, [r3]
 4188 164c 08E0     		b	.L300
 4189              	.L301:
 889:.\protocolo.c **** 						    write_psoc1(val,msn_tc[x]);
 4190              		.loc 1 889 0 discriminator 3
 4191 164e 2046     		mov	r0, r4
 4192 1650 2A4A     		ldr	r2, .L631+36
 4193 1652 D15C     		ldrb	r1, [r2, r3]	@ zero_extendqisi2
 4194 1654 FFF7FEFF 		bl	write_psoc1
 4195              	.LVL309:
 888:.\protocolo.c **** 						for(x=0;x<=5;x++){									
 4196              		.loc 1 888 0 discriminator 3
 4197 1658 274A     		ldr	r2, .L631+32
 4198 165a 1368     		ldr	r3, [r2]
 4199 165c 0133     		adds	r3, r3, #1
 4200 165e 1360     		str	r3, [r2]
 4201              	.L300:
 888:.\protocolo.c **** 						for(x=0;x<=5;x++){									
 4202              		.loc 1 888 0 is_stmt 0 discriminator 1
 4203 1660 254B     		ldr	r3, .L631+32
 4204 1662 1B68     		ldr	r3, [r3]
 4205 1664 052B     		cmp	r3, #5
 4206 1666 F2D9     		bls	.L301
 890:.\protocolo.c **** 					    }
 891:.\protocolo.c **** 					    write_psoc1(val,10);
 4207              		.loc 1 891 0 is_stmt 1
 4208 1668 2046     		mov	r0, r4
 4209 166a 0A21     		movs	r1, #10
 4210 166c FFF7FEFF 		bl	write_psoc1
 4211              	.LVL310:
 892:.\protocolo.c ****                         for(x=0;x<=10;x++){									
 4212              		.loc 1 892 0
 4213 1670 0022     		movs	r2, #0
 4214 1672 214B     		ldr	r3, .L631+32
 4215 1674 1A60     		str	r2, [r3]
 4216 1676 08E0     		b	.L302
 4217              	.L303:
 893:.\protocolo.c **** 						    write_psoc1(val,producto3n[x]);
 4218              		.loc 1 893 0 discriminator 3
 4219 1678 2046     		mov	r0, r4
 4220 167a 274A     		ldr	r2, .L631+64
 4221 167c D15C     		ldrb	r1, [r2, r3]	@ zero_extendqisi2
 4222 167e FFF7FEFF 		bl	write_psoc1
 4223              	.LVL311:
 892:.\protocolo.c ****                         for(x=0;x<=10;x++){									
 4224              		.loc 1 892 0 discriminator 3
 4225 1682 1D4A     		ldr	r2, .L631+32
 4226 1684 1368     		ldr	r3, [r2]
 4227 1686 0133     		adds	r3, r3, #1
 4228 1688 1360     		str	r3, [r2]
 4229              	.L302:
 892:.\protocolo.c ****                         for(x=0;x<=10;x++){									
 4230              		.loc 1 892 0 is_stmt 0 discriminator 1
 4231 168a 1B4B     		ldr	r3, .L631+32
 4232 168c 1B68     		ldr	r3, [r3]
 4233 168e 0A2B     		cmp	r3, #10
ARM GAS  C:\Users\diego\AppData\Local\Temp\cckx56kg.s 			page 95


 4234 1690 F2D9     		bls	.L303
 894:.\protocolo.c **** 					    }
 895:.\protocolo.c ****                         write_psoc1(val,10);
 4235              		.loc 1 895 0 is_stmt 1
 4236 1692 2046     		mov	r0, r4
 4237 1694 0A21     		movs	r1, #10
 4238 1696 FFF7FEFF 		bl	write_psoc1
 4239              	.LVL312:
 896:.\protocolo.c **** 						for(x=0;x<=14;x++){									
 4240              		.loc 1 896 0
 4241 169a 0022     		movs	r2, #0
 4242 169c 164B     		ldr	r3, .L631+32
 4243 169e 1A60     		str	r2, [r3]
 4244 16a0 09E0     		b	.L304
 4245              	.L305:
 897:.\protocolo.c **** 							write_psoc1(val,msn_lecact[x]);				//LECTURA ACTUAL
 4246              		.loc 1 897 0 discriminator 3
 4247 16a2 164A     		ldr	r2, .L631+36
 4248 16a4 1344     		add	r3, r3, r2
 4249 16a6 2046     		mov	r0, r4
 4250 16a8 197A     		ldrb	r1, [r3, #8]	@ zero_extendqisi2
 4251 16aa FFF7FEFF 		bl	write_psoc1
 4252              	.LVL313:
 896:.\protocolo.c **** 						for(x=0;x<=14;x++){									
 4253              		.loc 1 896 0 discriminator 3
 4254 16ae 124A     		ldr	r2, .L631+32
 4255 16b0 1368     		ldr	r3, [r2]
 4256 16b2 0133     		adds	r3, r3, #1
 4257 16b4 1360     		str	r3, [r2]
 4258              	.L304:
 896:.\protocolo.c **** 						for(x=0;x<=14;x++){									
 4259              		.loc 1 896 0 is_stmt 0 discriminator 1
 4260 16b6 104B     		ldr	r3, .L631+32
 4261 16b8 1B68     		ldr	r3, [r3]
 4262 16ba 0E2B     		cmp	r3, #14
 4263 16bc F1D9     		bls	.L305
 898:.\protocolo.c **** 						}
 899:.\protocolo.c **** 						write_psoc1(val,10);
 4264              		.loc 1 899 0 is_stmt 1
 4265 16be 2046     		mov	r0, r4
 4266 16c0 0A21     		movs	r1, #10
 4267 16c2 FFF7FEFF 		bl	write_psoc1
 4268              	.LVL314:
 900:.\protocolo.c **** 						print_totalesac(8,val);	
 4269              		.loc 1 900 0
 4270 16c6 0820     		movs	r0, #8
 4271 16c8 2146     		mov	r1, r4
 4272 16ca FFF7FEFF 		bl	print_totalesac
 4273              	.LVL315:
 901:.\protocolo.c **** 						for(x=0;x<=16;x++){												
 4274              		.loc 1 901 0
 4275 16ce 0022     		movs	r2, #0
 4276 16d0 094B     		ldr	r3, .L631+32
 4277 16d2 1A60     		str	r2, [r3]
 4278 16d4 2CE0     		b	.L306
 4279              	.L632:
 4280 16d6 00BF     		.align	2
ARM GAS  C:\Users\diego\AppData\Local\Temp\cckx56kg.s 			page 96


 4281              	.L631:
 4282 16d8 00000000 		.word	resultado
 4283 16dc 00000000 		.word	rventa
 4284 16e0 00000000 		.word	producto2
 4285 16e4 00000000 		.word	a
 4286 16e8 00000000 		.word	producto2b
 4287 16ec 00000000 		.word	b
 4288 16f0 00000000 		.word	d
 4289 16f4 00000000 		.word	c
 4290 16f8 00000000 		.word	x
 4291 16fc 00000000 		.word	.LANCHOR1
 4292 1700 00000000 		.word	producto2n
 4293 1704 00000000 		.word	z
 4294 1708 FFFFFFFF 		.word	rventa-1
 4295 170c 00000000 		.word	buffer_i2c
 4296 1710 00000000 		.word	producto3
 4297 1714 00000000 		.word	producto3b
 4298 1718 00000000 		.word	producto3n
 4299              	.L307:
 902:.\protocolo.c **** 							write_psoc1(val,msn_lecaan[x]);				//LECTURA ANTERIOR
 4300              		.loc 1 902 0 discriminator 3
 4301 171c AC4A     		ldr	r2, .L633
 4302 171e 1344     		add	r3, r3, r2
 4303 1720 2046     		mov	r0, r4
 4304 1722 197E     		ldrb	r1, [r3, #24]	@ zero_extendqisi2
 4305 1724 FFF7FEFF 		bl	write_psoc1
 4306              	.LVL316:
 901:.\protocolo.c **** 						for(x=0;x<=16;x++){												
 4307              		.loc 1 901 0 discriminator 3
 4308 1728 AA4A     		ldr	r2, .L633+4
 4309 172a 1368     		ldr	r3, [r2]
 4310 172c 0133     		adds	r3, r3, #1
 4311 172e 1360     		str	r3, [r2]
 4312              	.L306:
 901:.\protocolo.c **** 						for(x=0;x<=16;x++){												
 4313              		.loc 1 901 0 is_stmt 0 discriminator 1
 4314 1730 A84B     		ldr	r3, .L633+4
 4315 1732 1B68     		ldr	r3, [r3]
 4316 1734 102B     		cmp	r3, #16
 4317 1736 F1D9     		bls	.L307
 903:.\protocolo.c **** 						}
 904:.\protocolo.c **** 						write_psoc1(val,10);
 4318              		.loc 1 904 0 is_stmt 1
 4319 1738 2046     		mov	r0, r4
 4320 173a 0A21     		movs	r1, #10
 4321 173c FFF7FEFF 		bl	write_psoc1
 4322              	.LVL317:
 905:.\protocolo.c **** 						if(dir==a.dir){
 4323              		.loc 1 905 0
 4324 1740 A54B     		ldr	r3, .L633+8
 4325 1742 1B78     		ldrb	r3, [r3]	@ zero_extendqisi2
 4326 1744 AB42     		cmp	r3, r5
 4327 1746 05D1     		bne	.L308
 906:.\protocolo.c **** 							leer_eeprom(256,25);
 4328              		.loc 1 906 0
 4329 1748 4FF48070 		mov	r0, #256
 4330 174c 1921     		movs	r1, #25
ARM GAS  C:\Users\diego\AppData\Local\Temp\cckx56kg.s 			page 97


 4331 174e FFF7FEFF 		bl	leer_eeprom
 4332              	.LVL318:
 4333 1752 04E0     		b	.L309
 4334              	.L308:
 907:.\protocolo.c **** 						}
 908:.\protocolo.c **** 						else{
 909:.\protocolo.c **** 							leer_eeprom(345,25);
 4335              		.loc 1 909 0
 4336 1754 40F25910 		movw	r0, #345
 4337 1758 1921     		movs	r1, #25
 4338 175a FFF7FEFF 		bl	leer_eeprom
 4339              	.LVL319:
 4340              	.L309:
 910:.\protocolo.c **** 						}
 911:.\protocolo.c **** 						print_totales(val);
 4341              		.loc 1 911 0
 4342 175e 2046     		mov	r0, r4
 4343 1760 FFF7FEFF 		bl	print_totales
 4344              	.LVL320:
 912:.\protocolo.c **** 						for(z=1;z<=8;z++){
 4345              		.loc 1 912 0
 4346 1764 0122     		movs	r2, #1
 4347 1766 9D4B     		ldr	r3, .L633+12
 4348 1768 1A60     		str	r2, [r3]
 4349 176a 10E0     		b	.L310
 4350              	.L311:
 913:.\protocolo.c **** 							minuendo[z]=rventa.tdinero[z-1];
 4351              		.loc 1 913 0 discriminator 3
 4352 176c 9C4A     		ldr	r2, .L633+16
 4353 176e 1A44     		add	r2, r2, r3
 4354 1770 92F8CA10 		ldrb	r1, [r2, #202]	@ zero_extendqisi2
 4355 1774 10AA     		add	r2, sp, #64
 4356 1776 1A44     		add	r2, r2, r3
 4357 1778 02F82C1C 		strb	r1, [r2, #-44]
 914:.\protocolo.c **** 							sustraendo[z]=buffer_i2c[z+8];
 4358              		.loc 1 914 0 discriminator 3
 4359 177c 03F10801 		add	r1, r3, #8
 4360 1780 9848     		ldr	r0, .L633+20
 4361 1782 415C     		ldrb	r1, [r0, r1]	@ zero_extendqisi2
 4362 1784 02F83C1C 		strb	r1, [r2, #-60]
 912:.\protocolo.c **** 						for(z=1;z<=8;z++){
 4363              		.loc 1 912 0 discriminator 3
 4364 1788 0133     		adds	r3, r3, #1
 4365 178a 944A     		ldr	r2, .L633+12
 4366 178c 1360     		str	r3, [r2]
 4367              	.L310:
 912:.\protocolo.c **** 						for(z=1;z<=8;z++){
 4368              		.loc 1 912 0 is_stmt 0 discriminator 1
 4369 178e 934B     		ldr	r3, .L633+12
 4370 1790 1B68     		ldr	r3, [r3]
 4371 1792 082B     		cmp	r3, #8
 4372 1794 EAD9     		bls	.L311
 915:.\protocolo.c **** 						}
 916:.\protocolo.c **** 						minuendo[0]=8;
 4373              		.loc 1 916 0 is_stmt 1
 4374 1796 10A9     		add	r1, sp, #64
 4375 1798 0823     		movs	r3, #8
ARM GAS  C:\Users\diego\AppData\Local\Temp\cckx56kg.s 			page 98


 4376 179a 01F82C3D 		strb	r3, [r1, #-44]!
 917:.\protocolo.c **** 						operacion(2,minuendo,sustraendo);
 4377              		.loc 1 917 0
 4378 179e 0220     		movs	r0, #2
 4379 17a0 01AA     		add	r2, sp, #4
 4380 17a2 FFF7FEFF 		bl	operacion
 4381              	.LVL321:
 918:.\protocolo.c **** 						for(x=0;x<=17;x++){									
 4382              		.loc 1 918 0
 4383 17a6 0022     		movs	r2, #0
 4384 17a8 8A4B     		ldr	r3, .L633+4
 4385 17aa 1A60     		str	r2, [r3]
 4386 17ac 0AE0     		b	.L312
 4387              	.L313:
 919:.\protocolo.c **** 							write_psoc1(val,msn_tventas[x]);				//Total de ventas
 4388              		.loc 1 919 0 discriminator 3
 4389 17ae 884A     		ldr	r2, .L633
 4390 17b0 1344     		add	r3, r3, r2
 4391 17b2 2046     		mov	r0, r4
 4392 17b4 93F82C10 		ldrb	r1, [r3, #44]	@ zero_extendqisi2
 4393 17b8 FFF7FEFF 		bl	write_psoc1
 4394              	.LVL322:
 918:.\protocolo.c **** 						for(x=0;x<=17;x++){									
 4395              		.loc 1 918 0 discriminator 3
 4396 17bc 854A     		ldr	r2, .L633+4
 4397 17be 1368     		ldr	r3, [r2]
 4398 17c0 0133     		adds	r3, r3, #1
 4399 17c2 1360     		str	r3, [r2]
 4400              	.L312:
 918:.\protocolo.c **** 						for(x=0;x<=17;x++){									
 4401              		.loc 1 918 0 is_stmt 0 discriminator 1
 4402 17c4 834B     		ldr	r3, .L633+4
 4403 17c6 1B68     		ldr	r3, [r3]
 4404 17c8 112B     		cmp	r3, #17
 4405 17ca F0D9     		bls	.L313
 920:.\protocolo.c **** 						}
 921:.\protocolo.c **** 						print_valor(resultado,val);							
 4406              		.loc 1 921 0 is_stmt 1
 4407 17cc 8648     		ldr	r0, .L633+24
 4408 17ce 2146     		mov	r1, r4
 4409 17d0 FFF7FEFF 		bl	print_valor
 4410              	.LVL323:
 922:.\protocolo.c **** 						if(dir==a.dir){
 4411              		.loc 1 922 0
 4412 17d4 804B     		ldr	r3, .L633+8
 4413 17d6 1B78     		ldrb	r3, [r3]	@ zero_extendqisi2
 4414 17d8 AB42     		cmp	r3, r5
 4415 17da 0AD1     		bne	.L314
 923:.\protocolo.c **** 							write_eeprom(256,corte);
 4416              		.loc 1 923 0
 4417 17dc 4FF48070 		mov	r0, #256
 4418 17e0 09A9     		add	r1, sp, #36
 4419 17e2 FFF7FEFF 		bl	write_eeprom
 4420              	.LVL324:
 924:.\protocolo.c **** 							write_eeprom(525,resultado);
 4421              		.loc 1 924 0
 4422 17e6 40F20D20 		movw	r0, #525
ARM GAS  C:\Users\diego\AppData\Local\Temp\cckx56kg.s 			page 99


 4423 17ea 7F49     		ldr	r1, .L633+24
 4424 17ec FFF7FEFF 		bl	write_eeprom
 4425              	.LVL325:
 4426 17f0 09E0     		b	.L299
 4427              	.L314:
 925:.\protocolo.c **** 						}
 926:.\protocolo.c **** 						else{
 927:.\protocolo.c **** 							write_eeprom(345,corte);
 4428              		.loc 1 927 0
 4429 17f2 40F25910 		movw	r0, #345
 4430 17f6 09A9     		add	r1, sp, #36
 4431 17f8 FFF7FEFF 		bl	write_eeprom
 4432              	.LVL326:
 928:.\protocolo.c **** 							write_eeprom(589,resultado);
 4433              		.loc 1 928 0
 4434 17fc 40F24D20 		movw	r0, #589
 4435 1800 7949     		ldr	r1, .L633+24
 4436 1802 FFF7FEFF 		bl	write_eeprom
 4437              	.LVL327:
 4438              	.L299:
 929:.\protocolo.c **** 						}					
 930:.\protocolo.c **** 					}
 931:.\protocolo.c ****                     
 932:.\protocolo.c ****                     if(((rventa.manguera==(producto4&0x0F))&&(dir==a.dir))||((rventa.manguera==(pro
 4439              		.loc 1 932 0
 4440 1806 794B     		ldr	r3, .L633+28
 4441 1808 93F8E020 		ldrb	r2, [r3, #224]	@ zero_extendqisi2
 4442 180c 784B     		ldr	r3, .L633+32
 4443 180e 1B78     		ldrb	r3, [r3]	@ zero_extendqisi2
 4444 1810 03F00F03 		and	r3, r3, #15
 4445 1814 9342     		cmp	r3, r2
 4446 1816 03D1     		bne	.L315
 4447              		.loc 1 932 0 is_stmt 0 discriminator 1
 4448 1818 6F4B     		ldr	r3, .L633+8
 4449 181a 1B78     		ldrb	r3, [r3]	@ zero_extendqisi2
 4450 181c AB42     		cmp	r3, r5
 4451 181e 0BD0     		beq	.L316
 4452              	.L315:
 4453              		.loc 1 932 0 discriminator 3
 4454 1820 744B     		ldr	r3, .L633+36
 4455 1822 1B78     		ldrb	r3, [r3]	@ zero_extendqisi2
 4456 1824 03F00F03 		and	r3, r3, #15
 4457 1828 9A42     		cmp	r2, r3
 4458 182a 40F0C280 		bne	.L317
 4459              		.loc 1 932 0 discriminator 4
 4460 182e 724B     		ldr	r3, .L633+40
 4461 1830 1B78     		ldrb	r3, [r3]	@ zero_extendqisi2
 4462 1832 AB42     		cmp	r3, r5
 4463 1834 40F0BD80 		bne	.L317
 4464              	.L316:
 933:.\protocolo.c **** 						for(x=0;x<=5;x++){									
 4465              		.loc 1 933 0 is_stmt 1
 4466 1838 0022     		movs	r2, #0
 4467 183a 664B     		ldr	r3, .L633+4
 4468 183c 1A60     		str	r2, [r3]
 4469 183e 08E0     		b	.L318
 4470              	.L319:
ARM GAS  C:\Users\diego\AppData\Local\Temp\cckx56kg.s 			page 100


 934:.\protocolo.c **** 						    write_psoc1(val,msn_tc[x]);
 4471              		.loc 1 934 0 discriminator 3
 4472 1840 2046     		mov	r0, r4
 4473 1842 634A     		ldr	r2, .L633
 4474 1844 D15C     		ldrb	r1, [r2, r3]	@ zero_extendqisi2
 4475 1846 FFF7FEFF 		bl	write_psoc1
 4476              	.LVL328:
 933:.\protocolo.c **** 						for(x=0;x<=5;x++){									
 4477              		.loc 1 933 0 discriminator 3
 4478 184a 624A     		ldr	r2, .L633+4
 4479 184c 1368     		ldr	r3, [r2]
 4480 184e 0133     		adds	r3, r3, #1
 4481 1850 1360     		str	r3, [r2]
 4482              	.L318:
 933:.\protocolo.c **** 						for(x=0;x<=5;x++){									
 4483              		.loc 1 933 0 is_stmt 0 discriminator 1
 4484 1852 604B     		ldr	r3, .L633+4
 4485 1854 1B68     		ldr	r3, [r3]
 4486 1856 052B     		cmp	r3, #5
 4487 1858 F2D9     		bls	.L319
 935:.\protocolo.c **** 					    }
 936:.\protocolo.c **** 					    write_psoc1(val,10);
 4488              		.loc 1 936 0 is_stmt 1
 4489 185a 2046     		mov	r0, r4
 4490 185c 0A21     		movs	r1, #10
 4491 185e FFF7FEFF 		bl	write_psoc1
 4492              	.LVL329:
 937:.\protocolo.c ****                         for(x=0;x<=10;x++){									
 4493              		.loc 1 937 0
 4494 1862 0022     		movs	r2, #0
 4495 1864 5B4B     		ldr	r3, .L633+4
 4496 1866 1A60     		str	r2, [r3]
 4497 1868 08E0     		b	.L320
 4498              	.L321:
 938:.\protocolo.c **** 						    write_psoc1(val,producto4n[x]);
 4499              		.loc 1 938 0 discriminator 3
 4500 186a 2046     		mov	r0, r4
 4501 186c 634A     		ldr	r2, .L633+44
 4502 186e D15C     		ldrb	r1, [r2, r3]	@ zero_extendqisi2
 4503 1870 FFF7FEFF 		bl	write_psoc1
 4504              	.LVL330:
 937:.\protocolo.c ****                         for(x=0;x<=10;x++){									
 4505              		.loc 1 937 0 discriminator 3
 4506 1874 574A     		ldr	r2, .L633+4
 4507 1876 1368     		ldr	r3, [r2]
 4508 1878 0133     		adds	r3, r3, #1
 4509 187a 1360     		str	r3, [r2]
 4510              	.L320:
 937:.\protocolo.c ****                         for(x=0;x<=10;x++){									
 4511              		.loc 1 937 0 is_stmt 0 discriminator 1
 4512 187c 554B     		ldr	r3, .L633+4
 4513 187e 1B68     		ldr	r3, [r3]
 4514 1880 0A2B     		cmp	r3, #10
 4515 1882 F2D9     		bls	.L321
 939:.\protocolo.c **** 					    }
 940:.\protocolo.c ****                         write_psoc1(val,10);
 4516              		.loc 1 940 0 is_stmt 1
ARM GAS  C:\Users\diego\AppData\Local\Temp\cckx56kg.s 			page 101


 4517 1884 2046     		mov	r0, r4
 4518 1886 0A21     		movs	r1, #10
 4519 1888 FFF7FEFF 		bl	write_psoc1
 4520              	.LVL331:
 941:.\protocolo.c **** 						for(x=0;x<=14;x++){									
 4521              		.loc 1 941 0
 4522 188c 0022     		movs	r2, #0
 4523 188e 514B     		ldr	r3, .L633+4
 4524 1890 1A60     		str	r2, [r3]
 4525 1892 09E0     		b	.L322
 4526              	.L323:
 942:.\protocolo.c **** 							write_psoc1(val,msn_lecact[x]);				//LECTURA ACTUAL
 4527              		.loc 1 942 0 discriminator 3
 4528 1894 4E4A     		ldr	r2, .L633
 4529 1896 1344     		add	r3, r3, r2
 4530 1898 2046     		mov	r0, r4
 4531 189a 197A     		ldrb	r1, [r3, #8]	@ zero_extendqisi2
 4532 189c FFF7FEFF 		bl	write_psoc1
 4533              	.LVL332:
 941:.\protocolo.c **** 						for(x=0;x<=14;x++){									
 4534              		.loc 1 941 0 discriminator 3
 4535 18a0 4C4A     		ldr	r2, .L633+4
 4536 18a2 1368     		ldr	r3, [r2]
 4537 18a4 0133     		adds	r3, r3, #1
 4538 18a6 1360     		str	r3, [r2]
 4539              	.L322:
 941:.\protocolo.c **** 						for(x=0;x<=14;x++){									
 4540              		.loc 1 941 0 is_stmt 0 discriminator 1
 4541 18a8 4A4B     		ldr	r3, .L633+4
 4542 18aa 1B68     		ldr	r3, [r3]
 4543 18ac 0E2B     		cmp	r3, #14
 4544 18ae F1D9     		bls	.L323
 943:.\protocolo.c **** 						}
 944:.\protocolo.c **** 						write_psoc1(val,10);
 4545              		.loc 1 944 0 is_stmt 1
 4546 18b0 2046     		mov	r0, r4
 4547 18b2 0A21     		movs	r1, #10
 4548 18b4 FFF7FEFF 		bl	write_psoc1
 4549              	.LVL333:
 945:.\protocolo.c **** 						print_totalesac(8,val);	
 4550              		.loc 1 945 0
 4551 18b8 0820     		movs	r0, #8
 4552 18ba 2146     		mov	r1, r4
 4553 18bc FFF7FEFF 		bl	print_totalesac
 4554              	.LVL334:
 946:.\protocolo.c **** 						for(x=0;x<=16;x++){												
 4555              		.loc 1 946 0
 4556 18c0 0022     		movs	r2, #0
 4557 18c2 444B     		ldr	r3, .L633+4
 4558 18c4 1A60     		str	r2, [r3]
 4559 18c6 09E0     		b	.L324
 4560              	.L325:
 947:.\protocolo.c **** 							write_psoc1(val,msn_lecaan[x]);				//LECTURA ANTERIOR
 4561              		.loc 1 947 0 discriminator 3
 4562 18c8 414A     		ldr	r2, .L633
 4563 18ca 1344     		add	r3, r3, r2
 4564 18cc 2046     		mov	r0, r4
ARM GAS  C:\Users\diego\AppData\Local\Temp\cckx56kg.s 			page 102


 4565 18ce 197E     		ldrb	r1, [r3, #24]	@ zero_extendqisi2
 4566 18d0 FFF7FEFF 		bl	write_psoc1
 4567              	.LVL335:
 946:.\protocolo.c **** 						for(x=0;x<=16;x++){												
 4568              		.loc 1 946 0 discriminator 3
 4569 18d4 3F4A     		ldr	r2, .L633+4
 4570 18d6 1368     		ldr	r3, [r2]
 4571 18d8 0133     		adds	r3, r3, #1
 4572 18da 1360     		str	r3, [r2]
 4573              	.L324:
 946:.\protocolo.c **** 						for(x=0;x<=16;x++){												
 4574              		.loc 1 946 0 is_stmt 0 discriminator 1
 4575 18dc 3D4B     		ldr	r3, .L633+4
 4576 18de 1B68     		ldr	r3, [r3]
 4577 18e0 102B     		cmp	r3, #16
 4578 18e2 F1D9     		bls	.L325
 948:.\protocolo.c **** 						}
 949:.\protocolo.c **** 						write_psoc1(val,10);
 4579              		.loc 1 949 0 is_stmt 1
 4580 18e4 2046     		mov	r0, r4
 4581 18e6 0A21     		movs	r1, #10
 4582 18e8 FFF7FEFF 		bl	write_psoc1
 4583              	.LVL336:
 950:.\protocolo.c **** 						if(dir==a.dir){
 4584              		.loc 1 950 0
 4585 18ec 3A4B     		ldr	r3, .L633+8
 4586 18ee 1B78     		ldrb	r3, [r3]	@ zero_extendqisi2
 4587 18f0 AB42     		cmp	r3, r5
 4588 18f2 05D1     		bne	.L326
 951:.\protocolo.c **** 							leer_eeprom(1096,25);
 4589              		.loc 1 951 0
 4590 18f4 4FF48960 		mov	r0, #1096
 4591 18f8 1921     		movs	r1, #25
 4592 18fa FFF7FEFF 		bl	leer_eeprom
 4593              	.LVL337:
 4594 18fe 04E0     		b	.L327
 4595              	.L326:
 952:.\protocolo.c **** 						}
 953:.\protocolo.c **** 						else{
 954:.\protocolo.c **** 							leer_eeprom(1054,25);
 4596              		.loc 1 954 0
 4597 1900 40F21E40 		movw	r0, #1054
 4598 1904 1921     		movs	r1, #25
 4599 1906 FFF7FEFF 		bl	leer_eeprom
 4600              	.LVL338:
 4601              	.L327:
 955:.\protocolo.c **** 						}
 956:.\protocolo.c **** 						print_totales(val);
 4602              		.loc 1 956 0
 4603 190a 2046     		mov	r0, r4
 4604 190c FFF7FEFF 		bl	print_totales
 4605              	.LVL339:
 957:.\protocolo.c **** 						for(z=1;z<=8;z++){
 4606              		.loc 1 957 0
 4607 1910 0122     		movs	r2, #1
 4608 1912 324B     		ldr	r3, .L633+12
 4609 1914 1A60     		str	r2, [r3]
ARM GAS  C:\Users\diego\AppData\Local\Temp\cckx56kg.s 			page 103


 4610 1916 10E0     		b	.L328
 4611              	.L329:
 958:.\protocolo.c **** 							minuendo[z]=rventa.tdinero[z-1];
 4612              		.loc 1 958 0 discriminator 3
 4613 1918 314A     		ldr	r2, .L633+16
 4614 191a 1A44     		add	r2, r2, r3
 4615 191c 92F8CA10 		ldrb	r1, [r2, #202]	@ zero_extendqisi2
 4616 1920 10AA     		add	r2, sp, #64
 4617 1922 1A44     		add	r2, r2, r3
 4618 1924 02F82C1C 		strb	r1, [r2, #-44]
 959:.\protocolo.c **** 							sustraendo[z]=buffer_i2c[z+8];
 4619              		.loc 1 959 0 discriminator 3
 4620 1928 03F10801 		add	r1, r3, #8
 4621 192c 2D48     		ldr	r0, .L633+20
 4622 192e 415C     		ldrb	r1, [r0, r1]	@ zero_extendqisi2
 4623 1930 02F83C1C 		strb	r1, [r2, #-60]
 957:.\protocolo.c **** 						for(z=1;z<=8;z++){
 4624              		.loc 1 957 0 discriminator 3
 4625 1934 0133     		adds	r3, r3, #1
 4626 1936 294A     		ldr	r2, .L633+12
 4627 1938 1360     		str	r3, [r2]
 4628              	.L328:
 957:.\protocolo.c **** 						for(z=1;z<=8;z++){
 4629              		.loc 1 957 0 is_stmt 0 discriminator 1
 4630 193a 284B     		ldr	r3, .L633+12
 4631 193c 1B68     		ldr	r3, [r3]
 4632 193e 082B     		cmp	r3, #8
 4633 1940 EAD9     		bls	.L329
 960:.\protocolo.c **** 						}
 961:.\protocolo.c **** 						minuendo[0]=8;
 4634              		.loc 1 961 0 is_stmt 1
 4635 1942 10A9     		add	r1, sp, #64
 4636 1944 0823     		movs	r3, #8
 4637 1946 01F82C3D 		strb	r3, [r1, #-44]!
 962:.\protocolo.c **** 						operacion(2,minuendo,sustraendo);
 4638              		.loc 1 962 0
 4639 194a 0220     		movs	r0, #2
 4640 194c 01AA     		add	r2, sp, #4
 4641 194e FFF7FEFF 		bl	operacion
 4642              	.LVL340:
 963:.\protocolo.c **** 						for(x=0;x<=17;x++){									
 4643              		.loc 1 963 0
 4644 1952 0022     		movs	r2, #0
 4645 1954 1F4B     		ldr	r3, .L633+4
 4646 1956 1A60     		str	r2, [r3]
 4647 1958 0AE0     		b	.L330
 4648              	.L331:
 964:.\protocolo.c **** 							write_psoc1(val,msn_tventas[x]);				//Total de ventas
 4649              		.loc 1 964 0 discriminator 3
 4650 195a 1D4A     		ldr	r2, .L633
 4651 195c 1344     		add	r3, r3, r2
 4652 195e 2046     		mov	r0, r4
 4653 1960 93F82C10 		ldrb	r1, [r3, #44]	@ zero_extendqisi2
 4654 1964 FFF7FEFF 		bl	write_psoc1
 4655              	.LVL341:
 963:.\protocolo.c **** 						for(x=0;x<=17;x++){									
 4656              		.loc 1 963 0 discriminator 3
ARM GAS  C:\Users\diego\AppData\Local\Temp\cckx56kg.s 			page 104


 4657 1968 1A4A     		ldr	r2, .L633+4
 4658 196a 1368     		ldr	r3, [r2]
 4659 196c 0133     		adds	r3, r3, #1
 4660 196e 1360     		str	r3, [r2]
 4661              	.L330:
 963:.\protocolo.c **** 						for(x=0;x<=17;x++){									
 4662              		.loc 1 963 0 is_stmt 0 discriminator 1
 4663 1970 184B     		ldr	r3, .L633+4
 4664 1972 1B68     		ldr	r3, [r3]
 4665 1974 112B     		cmp	r3, #17
 4666 1976 F0D9     		bls	.L331
 965:.\protocolo.c **** 						}
 966:.\protocolo.c **** 						print_valor(resultado,val);							
 4667              		.loc 1 966 0 is_stmt 1
 4668 1978 1B48     		ldr	r0, .L633+24
 4669 197a 2146     		mov	r1, r4
 4670 197c FFF7FEFF 		bl	print_valor
 4671              	.LVL342:
 967:.\protocolo.c **** 						if(dir==a.dir){
 4672              		.loc 1 967 0
 4673 1980 154B     		ldr	r3, .L633+8
 4674 1982 1B78     		ldrb	r3, [r3]	@ zero_extendqisi2
 4675 1984 AB42     		cmp	r3, r5
 4676 1986 0AD1     		bne	.L332
 968:.\protocolo.c **** 						    write_eeprom(1096,corte);
 4677              		.loc 1 968 0
 4678 1988 4FF48960 		mov	r0, #1096
 4679 198c 09A9     		add	r1, sp, #36
 4680 198e FFF7FEFF 		bl	write_eeprom
 4681              	.LVL343:
 969:.\protocolo.c **** 						    write_eeprom(1038,resultado);
 4682              		.loc 1 969 0
 4683 1992 40F20E40 		movw	r0, #1038
 4684 1996 1449     		ldr	r1, .L633+24
 4685 1998 FFF7FEFF 		bl	write_eeprom
 4686              	.LVL344:
 4687 199c 09E0     		b	.L317
 4688              	.L332:
 970:.\protocolo.c **** 					    }
 971:.\protocolo.c **** 					    else{
 972:.\protocolo.c **** 						    write_eeprom(1054,corte);
 4689              		.loc 1 972 0
 4690 199e 40F21E40 		movw	r0, #1054
 4691 19a2 09A9     		add	r1, sp, #36
 4692 19a4 FFF7FEFF 		bl	write_eeprom
 4693              	.LVL345:
 973:.\protocolo.c **** 						    write_eeprom(1081,resultado);
 4694              		.loc 1 973 0
 4695 19a8 40F23940 		movw	r0, #1081
 4696 19ac 0E49     		ldr	r1, .L633+24
 4697 19ae FFF7FEFF 		bl	write_eeprom
 4698              	.LVL346:
 4699              	.L317:
 784:.\protocolo.c **** 					rventa.manguera=(Surtidor_rxBuffer[y+2]&0x0F)+1;
 4700              		.loc 1 784 0 discriminator 2
 4701 19b2 134A     		ldr	r2, .L633+48
 4702 19b4 1368     		ldr	r3, [r2]
ARM GAS  C:\Users\diego\AppData\Local\Temp\cckx56kg.s 			page 105


 4703 19b6 1E33     		adds	r3, r3, #30
 4704 19b8 1360     		str	r3, [r2]
 4705              	.L248:
 784:.\protocolo.c **** 					rventa.manguera=(Surtidor_rxBuffer[y+2]&0x0F)+1;
 4706              		.loc 1 784 0 is_stmt 0 discriminator 1
 4707 19ba 114B     		ldr	r3, .L633+48
 4708 19bc 1E68     		ldr	r6, [r3]
 4709 19be 3C2E     		cmp	r6, #60
 4710 19c0 7FF6ECAB 		bls	.L333
 974:.\protocolo.c **** 						}					
 975:.\protocolo.c **** 					}
 976:.\protocolo.c ****                     
 977:.\protocolo.c **** 				}
 978:.\protocolo.c **** 				Surtidor_ClearRxBuffer();
 4711              		.loc 1 978 0 is_stmt 1
 4712 19c4 FFF7FEFF 		bl	Surtidor_ClearRxBuffer
 4713              	.LVL347:
 979:.\protocolo.c **** 				return 3;					
 4714              		.loc 1 979 0
 4715 19c8 0320     		movs	r0, #3
 4716 19ca 01F047BD 		b	.L78
 4717              	.L634:
 4718 19ce 00BF     		.align	2
 4719              	.L633:
 4720 19d0 00000000 		.word	.LANCHOR1
 4721 19d4 00000000 		.word	x
 4722 19d8 00000000 		.word	a
 4723 19dc 00000000 		.word	z
 4724 19e0 FFFFFFFF 		.word	rventa-1
 4725 19e4 00000000 		.word	buffer_i2c
 4726 19e8 00000000 		.word	resultado
 4727 19ec 00000000 		.word	rventa
 4728 19f0 00000000 		.word	producto4
 4729 19f4 00000000 		.word	producto4b
 4730 19f8 00000000 		.word	b
 4731 19fc 00000000 		.word	producto4n
 4732 1a00 00000000 		.word	y
 4733              	.L74:
 980:.\protocolo.c **** 			}			
 981:.\protocolo.c **** 			else{
 982:.\protocolo.c **** 				return 0;
 983:.\protocolo.c **** 			}			
 984:.\protocolo.c **** 		break;
 985:.\protocolo.c **** 
 986:.\protocolo.c **** 		case 46:
 987:.\protocolo.c **** 			if((Surtidor_rxBuffer[0]==0xFF)&&(Surtidor_rxBuffer[1]==0xF6)&&(Surtidor_rxBuffer[45]==0xF0)&&(S
 4734              		.loc 1 987 0
 4735 1a04 A34B     		ldr	r3, .L635
 4736 1a06 1B78     		ldrb	r3, [r3]	@ zero_extendqisi2
 4737 1a08 DBB2     		uxtb	r3, r3
 4738 1a0a FF2B     		cmp	r3, #255
 4739 1a0c 41F00F85 		bne	.L604
 4740              		.loc 1 987 0 is_stmt 0 discriminator 1
 4741 1a10 A04B     		ldr	r3, .L635
 4742 1a12 5B78     		ldrb	r3, [r3, #1]	@ zero_extendqisi2
 4743 1a14 DBB2     		uxtb	r3, r3
 4744 1a16 F62B     		cmp	r3, #246
ARM GAS  C:\Users\diego\AppData\Local\Temp\cckx56kg.s 			page 106


 4745 1a18 41F00B85 		bne	.L605
 4746              		.loc 1 987 0 discriminator 2
 4747 1a1c 9D4B     		ldr	r3, .L635
 4748 1a1e 93F82D30 		ldrb	r3, [r3, #45]	@ zero_extendqisi2
 4749 1a22 DBB2     		uxtb	r3, r3
 4750 1a24 F02B     		cmp	r3, #240
 4751 1a26 41F00685 		bne	.L606
 4752              		.loc 1 987 0 discriminator 3
 4753 1a2a 9A4B     		ldr	r3, .L635
 4754 1a2c DB78     		ldrb	r3, [r3, #3]	@ zero_extendqisi2
 4755 1a2e DBB2     		uxtb	r3, r3
 4756 1a30 F92B     		cmp	r3, #249
 4757 1a32 41F00285 		bne	.L607
 988:.\protocolo.c **** 				rventa.manguera=(Surtidor_rxBuffer[2]&0xF0)+1;
 4758              		.loc 1 988 0 is_stmt 1
 4759 1a36 974B     		ldr	r3, .L635
 4760 1a38 9978     		ldrb	r1, [r3, #2]	@ zero_extendqisi2
 4761 1a3a 01F0F001 		and	r1, r1, #240
 4762 1a3e 0131     		adds	r1, r1, #1
 4763 1a40 C9B2     		uxtb	r1, r1
 4764 1a42 954B     		ldr	r3, .L635+4
 4765 1a44 83F8E010 		strb	r1, [r3, #224]
 989:.\protocolo.c **** 				for(x=0;x<=11;x++){
 4766              		.loc 1 989 0
 4767 1a48 0022     		movs	r2, #0
 4768 1a4a 944B     		ldr	r3, .L635+8
