ARM GAS  C:\Users\diego\AppData\Local\Temp\ccwBHTp3.s 			page 1


   1              		.syntax unified
   2              		.cpu cortex-m3
   3              		.fpu softvfp
   4              		.eabi_attribute 20, 1
   5              		.eabi_attribute 21, 1
   6              		.eabi_attribute 23, 3
   7              		.eabi_attribute 24, 1
   8              		.eabi_attribute 25, 1
   9              		.eabi_attribute 26, 1
  10              		.eabi_attribute 30, 1
  11              		.eabi_attribute 34, 1
  12              		.eabi_attribute 18, 4
  13              		.thumb
  14              		.file	"protocolo.c"
  15              		.text
  16              	.Ltext0:
  17              		.cfi_sections	.debug_frame
  18              		.section	.text.ver_pos,"ax",%progbits
  19              		.align	2
  20              		.global	ver_pos
  21              		.thumb
  22              		.thumb_func
  23              		.type	ver_pos, %function
  24              	ver_pos:
  25              	.LFB63:
  26              		.file 1 ".\\protocolo.c"
   1:.\protocolo.c **** /*
   2:.\protocolo.c **** ***************************************************************************************************
   3:.\protocolo.c **** *                                           GRP550/700 CODE
   4:.\protocolo.c **** *
   5:.\protocolo.c **** *                             (c) Copyright 2013; Sistemas Insepet LTDA
   6:.\protocolo.c **** *
   7:.\protocolo.c **** *               All rights reserved.  Protected by international copyright laws.
   8:.\protocolo.c **** *               Knowledge of the source code may NOT be used to develop a similar product.
   9:.\protocolo.c **** *               Please help us continue to provide the Embedded community with the finest
  10:.\protocolo.c **** *               software available.  Your honesty is greatly appreciated.
  11:.\protocolo.c **** ***************************************************************************************************
  12:.\protocolo.c **** */
  13:.\protocolo.c **** 
  14:.\protocolo.c **** /*
  15:.\protocolo.c **** ***************************************************************************************************
  16:.\protocolo.c **** *
  17:.\protocolo.c **** *                                             GRP550/700 CODE
  18:.\protocolo.c **** *
  19:.\protocolo.c **** *                                             CYPRESS PSoC5LP
  20:.\protocolo.c **** *                                                with the
  21:.\protocolo.c **** *                                            CY8C5969AXI-LP035
  22:.\protocolo.c **** *
  23:.\protocolo.c **** * Filename      : Protocolo.c
  24:.\protocolo.c **** * Version       : V1.00
  25:.\protocolo.c **** * Programmer(s) : 
  26:.\protocolo.c ****                   
  27:.\protocolo.c **** ***************************************************************************************************
  28:.\protocolo.c **** */
  29:.\protocolo.c **** 
  30:.\protocolo.c **** 
  31:.\protocolo.c **** /*
ARM GAS  C:\Users\diego\AppData\Local\Temp\ccwBHTp3.s 			page 2


  32:.\protocolo.c **** ***************************************************************************************************
  33:.\protocolo.c **** *                                             INCLUDE FILES
  34:.\protocolo.c **** ***************************************************************************************************
  35:.\protocolo.c **** */
  36:.\protocolo.c **** 
  37:.\protocolo.c **** #include "VariablesG.h"
  38:.\protocolo.c **** #include "I2C.h"
  39:.\protocolo.c **** #include "Print.h"
  40:.\protocolo.c **** #include <string.h>
  41:.\protocolo.c **** 
  42:.\protocolo.c **** /*
  43:.\protocolo.c **** ***************************************************************************************************
  44:.\protocolo.c **** *                                            	MENSAJES
  45:.\protocolo.c **** ***************************************************************************************************
  46:.\protocolo.c **** */
  47:.\protocolo.c **** 
  48:.\protocolo.c **** uint8 msn_tc[6]="TOTAL";
  49:.\protocolo.c **** uint8 msn_lecact[15]="Valor actual: ";
  50:.\protocolo.c **** uint8 msn_lecaan[17]="Valor anterior:  ";
  51:.\protocolo.c **** uint8 msn_tventas[18]="Dinero total: $   ";
  52:.\protocolo.c **** uint8 msn_totalcero[15]="No toma totales";
  53:.\protocolo.c **** 
  54:.\protocolo.c **** 
  55:.\protocolo.c **** /*
  56:.\protocolo.c **** ***************************************************************************************************
  57:.\protocolo.c **** *                                         ver_pos( void )
  58:.\protocolo.c **** *
  59:.\protocolo.c **** * Description : 
  60:.\protocolo.c **** *               
  61:.\protocolo.c **** *
  62:.\protocolo.c **** * Argument(s) : none
  63:.\protocolo.c **** *
  64:.\protocolo.c **** * Return(s)   : none
  65:.\protocolo.c **** *
  66:.\protocolo.c **** * Caller(s)   : 
  67:.\protocolo.c **** *
  68:.\protocolo.c **** * Note(s)     : none.
  69:.\protocolo.c **** ***************************************************************************************************
  70:.\protocolo.c **** */
  71:.\protocolo.c **** uint8 ver_pos (void){
  27              		.loc 1 71 0
  28              		.cfi_startproc
  29              		@ args = 0, pretend = 0, frame = 0
  30              		@ frame_needed = 0, uses_anonymous_args = 0
  31 0000 10B5     		push	{r4, lr}
  32              		.cfi_def_cfa_offset 8
  33              		.cfi_offset 4, -8
  34              		.cfi_offset 14, -4
  72:.\protocolo.c **** uint8 x;
  73:.\protocolo.c ****     a.dir = 0xff;
  35              		.loc 1 73 0
  36 0002 FF23     		movs	r3, #255
  37 0004 3F4A     		ldr	r2, .L16
  38 0006 1370     		strb	r3, [r2]
  74:.\protocolo.c ****     b.dir = 0xff;
  39              		.loc 1 74 0
  40 0008 3F4A     		ldr	r2, .L16+4
ARM GAS  C:\Users\diego\AppData\Local\Temp\ccwBHTp3.s 			page 3


  41 000a 1370     		strb	r3, [r2]
  75:.\protocolo.c ****     c.dir = 0xff;
  42              		.loc 1 75 0
  43 000c 3F4A     		ldr	r2, .L16+8
  44 000e 1370     		strb	r3, [r2]
  76:.\protocolo.c ****     d.dir = 0xff;
  45              		.loc 1 76 0
  46 0010 3F4A     		ldr	r2, .L16+12
  47 0012 1370     		strb	r3, [r2]
  48              	.LVL0:
  77:.\protocolo.c ****      for(x=0;x<=15;x++){
  49              		.loc 1 77 0
  50 0014 0024     		movs	r4, #0
  51 0016 49E0     		b	.L2
  52              	.LVL1:
  53              	.L7:
  78:.\protocolo.c ****         Surtidor_PutChar(x);
  54              		.loc 1 78 0
  55 0018 2046     		mov	r0, r4
  56 001a FFF7FEFF 		bl	Surtidor_PutChar
  57              	.LVL2:
  79:.\protocolo.c ****         CyDelay(100);
  58              		.loc 1 79 0
  59 001e 6420     		movs	r0, #100
  60 0020 FFF7FEFF 		bl	CyDelay
  61              	.LVL3:
  80:.\protocolo.c ****         if((Surtidor_GetRxBufferSize()>=1)&&(a.dir==0xff)){
  62              		.loc 1 80 0
  63 0024 FFF7FEFF 		bl	Surtidor_GetRxBufferSize
  64              	.LVL4:
  65 0028 38B1     		cbz	r0, .L3
  66              		.loc 1 80 0 is_stmt 0 discriminator 1
  67 002a 364B     		ldr	r3, .L16
  68 002c 1B78     		ldrb	r3, [r3]	@ zero_extendqisi2
  69 002e FF2B     		cmp	r3, #255
  70 0030 03D1     		bne	.L3
  81:.\protocolo.c ****            a.dir=x;	
  71              		.loc 1 81 0 is_stmt 1
  72 0032 344B     		ldr	r3, .L16
  73 0034 1C70     		strb	r4, [r3]
  82:.\protocolo.c ****            Surtidor_ClearRxBuffer();
  74              		.loc 1 82 0
  75 0036 FFF7FEFF 		bl	Surtidor_ClearRxBuffer
  76              	.LVL5:
  77              	.L3:
  83:.\protocolo.c ****         }
  84:.\protocolo.c ****         if((Surtidor_GetRxBufferSize()>=1)&&(x!=a.dir)&&(c.dir==0xff)){
  78              		.loc 1 84 0
  79 003a FFF7FEFF 		bl	Surtidor_GetRxBufferSize
  80              	.LVL6:
  81 003e 58B1     		cbz	r0, .L4
  82              		.loc 1 84 0 is_stmt 0 discriminator 1
  83 0040 304B     		ldr	r3, .L16
  84 0042 1B78     		ldrb	r3, [r3]	@ zero_extendqisi2
  85 0044 A342     		cmp	r3, r4
  86 0046 07D0     		beq	.L4
  87              		.loc 1 84 0 discriminator 2
ARM GAS  C:\Users\diego\AppData\Local\Temp\ccwBHTp3.s 			page 4


  88 0048 304B     		ldr	r3, .L16+8
  89 004a 1B78     		ldrb	r3, [r3]	@ zero_extendqisi2
  90 004c FF2B     		cmp	r3, #255
  91 004e 03D1     		bne	.L4
  85:.\protocolo.c ****            c.dir=x;
  92              		.loc 1 85 0 is_stmt 1
  93 0050 2E4B     		ldr	r3, .L16+8
  94 0052 1C70     		strb	r4, [r3]
  86:.\protocolo.c ****            Surtidor_ClearRxBuffer();
  95              		.loc 1 86 0
  96 0054 FFF7FEFF 		bl	Surtidor_ClearRxBuffer
  97              	.LVL7:
  98              	.L4:
  87:.\protocolo.c ****         }
  88:.\protocolo.c ****         if((Surtidor_GetRxBufferSize()>=1)&&(x!=a.dir)&&(x!=b.dir)&&(b.dir==0xff)){
  99              		.loc 1 88 0
 100 0058 FFF7FEFF 		bl	Surtidor_GetRxBufferSize
 101              	.LVL8:
 102 005c 68B1     		cbz	r0, .L5
 103              		.loc 1 88 0 is_stmt 0 discriminator 1
 104 005e 294B     		ldr	r3, .L16
 105 0060 1B78     		ldrb	r3, [r3]	@ zero_extendqisi2
 106 0062 A342     		cmp	r3, r4
 107 0064 09D0     		beq	.L5
 108              		.loc 1 88 0 discriminator 2
 109 0066 284B     		ldr	r3, .L16+4
 110 0068 1B78     		ldrb	r3, [r3]	@ zero_extendqisi2
 111 006a A342     		cmp	r3, r4
 112 006c 05D0     		beq	.L5
 113              		.loc 1 88 0 discriminator 3
 114 006e FF2B     		cmp	r3, #255
 115 0070 03D1     		bne	.L5
  89:.\protocolo.c ****            b.dir=x;
 116              		.loc 1 89 0 is_stmt 1
 117 0072 254B     		ldr	r3, .L16+4
 118 0074 1C70     		strb	r4, [r3]
  90:.\protocolo.c ****            Surtidor_ClearRxBuffer();
 119              		.loc 1 90 0
 120 0076 FFF7FEFF 		bl	Surtidor_ClearRxBuffer
 121              	.LVL9:
 122              	.L5:
  91:.\protocolo.c ****         }
  92:.\protocolo.c ****         if((Surtidor_GetRxBufferSize()>=1)&&(x!=a.dir)&&(x!=b.dir)&&(x!=c.dir)&&(d.dir==0xff)){
 123              		.loc 1 92 0
 124 007a FFF7FEFF 		bl	Surtidor_GetRxBufferSize
 125              	.LVL10:
 126 007e 98B1     		cbz	r0, .L6
 127              		.loc 1 92 0 is_stmt 0 discriminator 1
 128 0080 204B     		ldr	r3, .L16
 129 0082 1B78     		ldrb	r3, [r3]	@ zero_extendqisi2
 130 0084 A342     		cmp	r3, r4
 131 0086 0FD0     		beq	.L6
 132              		.loc 1 92 0 discriminator 2
 133 0088 1F4B     		ldr	r3, .L16+4
 134 008a 1B78     		ldrb	r3, [r3]	@ zero_extendqisi2
 135 008c A342     		cmp	r3, r4
 136 008e 0BD0     		beq	.L6
ARM GAS  C:\Users\diego\AppData\Local\Temp\ccwBHTp3.s 			page 5


 137              		.loc 1 92 0 discriminator 3
 138 0090 1E4B     		ldr	r3, .L16+8
 139 0092 1B78     		ldrb	r3, [r3]	@ zero_extendqisi2
 140 0094 A342     		cmp	r3, r4
 141 0096 07D0     		beq	.L6
 142              		.loc 1 92 0 discriminator 4
 143 0098 1D4B     		ldr	r3, .L16+12
 144 009a 1B78     		ldrb	r3, [r3]	@ zero_extendqisi2
 145 009c FF2B     		cmp	r3, #255
 146 009e 03D1     		bne	.L6
  93:.\protocolo.c ****            d.dir=x;
 147              		.loc 1 93 0 is_stmt 1
 148 00a0 1B4B     		ldr	r3, .L16+12
 149 00a2 1C70     		strb	r4, [r3]
  94:.\protocolo.c ****            Surtidor_ClearRxBuffer();
 150              		.loc 1 94 0
 151 00a4 FFF7FEFF 		bl	Surtidor_ClearRxBuffer
 152              	.LVL11:
 153              	.L6:
  77:.\protocolo.c ****         Surtidor_PutChar(x);
 154              		.loc 1 77 0 discriminator 2
 155 00a8 0134     		adds	r4, r4, #1
 156              	.LVL12:
 157 00aa E4B2     		uxtb	r4, r4
 158              	.LVL13:
 159              	.L2:
  77:.\protocolo.c ****         Surtidor_PutChar(x);
 160              		.loc 1 77 0 is_stmt 0 discriminator 1
 161 00ac 0F2C     		cmp	r4, #15
 162 00ae B3D9     		bls	.L7
  95:.\protocolo.c ****         }
  96:.\protocolo.c ****     }
  97:.\protocolo.c ****     if((a.dir!=0xff)&&(b.dir!=0xff)&&(d.dir!=0xff)&&(c.dir!=0xff)){        
 163              		.loc 1 97 0 is_stmt 1
 164 00b0 144B     		ldr	r3, .L16
 165 00b2 1B78     		ldrb	r3, [r3]	@ zero_extendqisi2
 166 00b4 FF2B     		cmp	r3, #255
 167 00b6 0BD0     		beq	.L8
 168              		.loc 1 97 0 is_stmt 0 discriminator 1
 169 00b8 134A     		ldr	r2, .L16+4
 170 00ba 1278     		ldrb	r2, [r2]	@ zero_extendqisi2
 171 00bc FF2A     		cmp	r2, #255
 172 00be 07D0     		beq	.L8
 173              		.loc 1 97 0 discriminator 2
 174 00c0 134A     		ldr	r2, .L16+12
 175 00c2 1278     		ldrb	r2, [r2]	@ zero_extendqisi2
 176 00c4 FF2A     		cmp	r2, #255
 177 00c6 03D0     		beq	.L8
 178              		.loc 1 97 0 discriminator 3
 179 00c8 104A     		ldr	r2, .L16+8
 180 00ca 1278     		ldrb	r2, [r2]	@ zero_extendqisi2
 181 00cc FF2A     		cmp	r2, #255
 182 00ce 0FD1     		bne	.L10
 183              	.L8:
  98:.\protocolo.c ****         return 2;
  99:.\protocolo.c ****     }
 100:.\protocolo.c ****     else{
ARM GAS  C:\Users\diego\AppData\Local\Temp\ccwBHTp3.s 			page 6


 101:.\protocolo.c ****         if((a.dir!=0xff)||(b.dir!=0xff)||(c.dir!=0xff)||(d.dir!=0xff)){
 184              		.loc 1 101 0 is_stmt 1
 185 00d0 FF2B     		cmp	r3, #255
 186 00d2 0FD1     		bne	.L11
 187              		.loc 1 101 0 is_stmt 0 discriminator 1
 188 00d4 0C4B     		ldr	r3, .L16+4
 189 00d6 1B78     		ldrb	r3, [r3]	@ zero_extendqisi2
 190 00d8 FF2B     		cmp	r3, #255
 191 00da 0DD1     		bne	.L12
 192              		.loc 1 101 0 discriminator 2
 193 00dc 0B4B     		ldr	r3, .L16+8
 194 00de 1B78     		ldrb	r3, [r3]	@ zero_extendqisi2
 195 00e0 FF2B     		cmp	r3, #255
 196 00e2 0BD1     		bne	.L13
 197              		.loc 1 101 0 discriminator 3
 198 00e4 0A4B     		ldr	r3, .L16+12
 199 00e6 1B78     		ldrb	r3, [r3]	@ zero_extendqisi2
 200 00e8 FF2B     		cmp	r3, #255
 201 00ea 09D0     		beq	.L14
 102:.\protocolo.c ****             return 1;
 202              		.loc 1 102 0 is_stmt 1
 203 00ec 0120     		movs	r0, #1
 204 00ee 10BD     		pop	{r4, pc}
 205              	.LVL14:
 206              	.L10:
  98:.\protocolo.c ****         return 2;
 207              		.loc 1 98 0
 208 00f0 0220     		movs	r0, #2
 209 00f2 10BD     		pop	{r4, pc}
 210              	.LVL15:
 211              	.L11:
 212              		.loc 1 102 0
 213 00f4 0120     		movs	r0, #1
 214 00f6 10BD     		pop	{r4, pc}
 215              	.LVL16:
 216              	.L12:
 217 00f8 0120     		movs	r0, #1
 218 00fa 10BD     		pop	{r4, pc}
 219              	.LVL17:
 220              	.L13:
 221 00fc 0120     		movs	r0, #1
 222 00fe 10BD     		pop	{r4, pc}
 223              	.LVL18:
 224              	.L14:
 103:.\protocolo.c ****         }
 104:.\protocolo.c ****         else{
 105:.\protocolo.c ****             return 0;
 225              		.loc 1 105 0
 226 0100 0020     		movs	r0, #0
 106:.\protocolo.c ****         }
 107:.\protocolo.c ****     }
 108:.\protocolo.c ****         
 109:.\protocolo.c ****    
 110:.\protocolo.c ****     return 0;
 111:.\protocolo.c **** }
 227              		.loc 1 111 0
 228 0102 10BD     		pop	{r4, pc}
ARM GAS  C:\Users\diego\AppData\Local\Temp\ccwBHTp3.s 			page 7


 229              	.LVL19:
 230              	.L17:
 231              		.align	2
 232              	.L16:
 233 0104 00000000 		.word	a
 234 0108 00000000 		.word	b
 235 010c 00000000 		.word	c
 236 0110 00000000 		.word	d
 237              		.cfi_endproc
 238              	.LFE63:
 239              		.size	ver_pos, .-ver_pos
 240              		.section	.text.get_estado,"ax",%progbits
 241              		.align	2
 242              		.global	get_estado
 243              		.thumb
 244              		.thumb_func
 245              		.type	get_estado, %function
 246              	get_estado:
 247              	.LFB64:
 112:.\protocolo.c **** 
 113:.\protocolo.c **** /*
 114:.\protocolo.c **** ***************************************************************************************************
 115:.\protocolo.c **** *                                         ver_estado( void )
 116:.\protocolo.c **** *
 117:.\protocolo.c **** * Description : 
 118:.\protocolo.c **** *               
 119:.\protocolo.c **** *
 120:.\protocolo.c **** * Argument(s) : none
 121:.\protocolo.c **** *
 122:.\protocolo.c **** * Return(s)   : none
 123:.\protocolo.c **** *
 124:.\protocolo.c **** * Caller(s)   : 
 125:.\protocolo.c **** *
 126:.\protocolo.c **** * Note(s)     : none.
 127:.\protocolo.c **** ***************************************************************************************************
 128:.\protocolo.c **** */
 129:.\protocolo.c **** 
 130:.\protocolo.c **** uint8 get_estado(uint8 dir){
 248              		.loc 1 130 0
 249              		.cfi_startproc
 250              		@ args = 0, pretend = 0, frame = 0
 251              		@ frame_needed = 0, uses_anonymous_args = 0
 252              	.LVL20:
 253 0000 10B5     		push	{r4, lr}
 254              		.cfi_def_cfa_offset 8
 255              		.cfi_offset 4, -8
 256              		.cfi_offset 14, -4
 131:.\protocolo.c ****     uint8 estado;
 132:.\protocolo.c ****     Surtidor_PutChar(dir);
 257              		.loc 1 132 0
 258 0002 FFF7FEFF 		bl	Surtidor_PutChar
 259              	.LVL21:
 133:.\protocolo.c ****     CyDelay(50);
 260              		.loc 1 133 0
 261 0006 3220     		movs	r0, #50
 262 0008 FFF7FEFF 		bl	CyDelay
 263              	.LVL22:
ARM GAS  C:\Users\diego\AppData\Local\Temp\ccwBHTp3.s 			page 8


 134:.\protocolo.c ****     if(Surtidor_GetRxBufferSize()>=1){
 264              		.loc 1 134 0
 265 000c FFF7FEFF 		bl	Surtidor_GetRxBufferSize
 266              	.LVL23:
 267 0010 38B1     		cbz	r0, .L20
 135:.\protocolo.c ****        estado=(Surtidor_ReadRxData()&0xF0)>>4;
 268              		.loc 1 135 0
 269 0012 FFF7FEFF 		bl	Surtidor_ReadRxData
 270              	.LVL24:
 271 0016 C0F30714 		ubfx	r4, r0, #4, #8
 272              	.LVL25:
 136:.\protocolo.c ****        Surtidor_ClearRxBuffer();
 273              		.loc 1 136 0
 274 001a FFF7FEFF 		bl	Surtidor_ClearRxBuffer
 275              	.LVL26:
 137:.\protocolo.c ****        return estado;
 276              		.loc 1 137 0
 277 001e 2046     		mov	r0, r4
 278 0020 10BD     		pop	{r4, pc}
 279              	.LVL27:
 280              	.L20:
 138:.\protocolo.c ****     }
 139:.\protocolo.c ****     else{
 140:.\protocolo.c ****         return 0;
 281              		.loc 1 140 0
 282 0022 0020     		movs	r0, #0
 141:.\protocolo.c ****     }
 142:.\protocolo.c **** }
 283              		.loc 1 142 0
 284 0024 10BD     		pop	{r4, pc}
 285              		.cfi_endproc
 286              	.LFE64:
 287              		.size	get_estado, .-get_estado
 288 0026 00BF     		.section	.text.estado_ex,"ax",%progbits
 289              		.align	2
 290              		.global	estado_ex
 291              		.thumb
 292              		.thumb_func
 293              		.type	estado_ex, %function
 294              	estado_ex:
 295              	.LFB65:
 143:.\protocolo.c **** 
 144:.\protocolo.c **** //*
 145:.\protocolo.c **** //*************************************************************************************************
 146:.\protocolo.c **** //*                                         void ver_error(uint8 val)
 147:.\protocolo.c **** //*
 148:.\protocolo.c **** //* Description : 
 149:.\protocolo.c **** //*               
 150:.\protocolo.c **** //*
 151:.\protocolo.c **** //* Argument(s) : none
 152:.\protocolo.c **** //*
 153:.\protocolo.c **** //* Return(s)   : none
 154:.\protocolo.c **** //*
 155:.\protocolo.c **** //* Caller(s)   : 
 156:.\protocolo.c **** //*
 157:.\protocolo.c **** //* Note(s)     : none.
 158:.\protocolo.c **** //*************************************************************************************************
ARM GAS  C:\Users\diego\AppData\Local\Temp\ccwBHTp3.s 			page 9


 159:.\protocolo.c **** //*/
 160:.\protocolo.c **** //void ver_error(uint8 val){
 161:.\protocolo.c **** //    uint8 estado;
 162:.\protocolo.c **** //    Surtidor_PutChar(val);
 163:.\protocolo.c **** //    CyDelay(200);
 164:.\protocolo.c **** //    if(Surtidor_GetRxBufferSize()>=1){
 165:.\protocolo.c **** //       estado=(Surtidor_ReadRxData()&0xF0)>>4;
 166:.\protocolo.c **** //       Surtidor_ClearRxBuffer();
 167:.\protocolo.c **** //       if(estado==0){
 168:.\protocolo.c **** //
 169:.\protocolo.c **** //       }
 170:.\protocolo.c **** //    }    
 171:.\protocolo.c **** //}
 172:.\protocolo.c **** 
 173:.\protocolo.c **** /*
 174:.\protocolo.c **** ***************************************************************************************************
 175:.\protocolo.c **** *                                         estado_ex(uint8 val)
 176:.\protocolo.c **** *
 177:.\protocolo.c **** * Description : 
 178:.\protocolo.c **** *               
 179:.\protocolo.c **** *
 180:.\protocolo.c **** * Argument(s) : none
 181:.\protocolo.c **** *
 182:.\protocolo.c **** * Return(s)   : none
 183:.\protocolo.c **** *
 184:.\protocolo.c **** * Caller(s)   : 
 185:.\protocolo.c **** *
 186:.\protocolo.c **** * Note(s)     : none.
 187:.\protocolo.c **** ***************************************************************************************************
 188:.\protocolo.c **** */
 189:.\protocolo.c **** uint8 estado_ex(uint8 val){
 296              		.loc 1 189 0
 297              		.cfi_startproc
 298              		@ args = 0, pretend = 0, frame = 32
 299              		@ frame_needed = 0, uses_anonymous_args = 0
 300              	.LVL28:
 301 0000 10B5     		push	{r4, lr}
 302              		.cfi_def_cfa_offset 8
 303              		.cfi_offset 4, -8
 304              		.cfi_offset 14, -4
 305 0002 88B0     		sub	sp, sp, #32
 306              		.cfi_def_cfa_offset 40
 307 0004 0446     		mov	r4, r0
 190:.\protocolo.c ****     uint8 rx_extend[19],x,comand_exten[9]={0xFF,0xE9,0xFE,0xE0,0xE1,0xE0,0xFB,0xEE,0xF0};
 308              		.loc 1 190 0
 309 0006 364A     		ldr	r2, .L41
 310 0008 6B46     		mov	r3, sp
 311 000a 1068     		ldr	r0, [r2]	@ unaligned
 312              	.LVL29:
 313 000c 5168     		ldr	r1, [r2, #4]	@ unaligned
 314 000e 03C3     		stmia	r3!, {r0, r1}
 315 0010 127A     		ldrb	r2, [r2, #8]	@ zero_extendqisi2
 316 0012 1A70     		strb	r2, [r3]
 191:.\protocolo.c ****     Surtidor_PutChar(0x20|val);
 317              		.loc 1 191 0
 318 0014 44F02000 		orr	r0, r4, #32
 319 0018 FFF7FEFF 		bl	Surtidor_PutChar
ARM GAS  C:\Users\diego\AppData\Local\Temp\ccwBHTp3.s 			page 10


 320              	.LVL30:
 192:.\protocolo.c ****     producto=0xff;
 321              		.loc 1 192 0
 322 001c FF22     		movs	r2, #255
 323 001e 314B     		ldr	r3, .L41+4
 324 0020 1A70     		strb	r2, [r3]
 193:.\protocolo.c ****     CyDelay(100);
 325              		.loc 1 193 0
 326 0022 6420     		movs	r0, #100
 327 0024 FFF7FEFF 		bl	CyDelay
 328              	.LVL31:
 194:.\protocolo.c ****     if(Surtidor_GetRxBufferSize()>=1){
 329              		.loc 1 194 0
 330 0028 FFF7FEFF 		bl	Surtidor_GetRxBufferSize
 331              	.LVL32:
 332 002c 0028     		cmp	r0, #0
 333 002e 48D0     		beq	.L31
 195:.\protocolo.c ****         if(Surtidor_ReadRxData()==(0xD0|val)){
 334              		.loc 1 195 0
 335 0030 FFF7FEFF 		bl	Surtidor_ReadRxData
 336              	.LVL33:
 337 0034 44F0D004 		orr	r4, r4, #208
 338 0038 A042     		cmp	r0, r4
 339 003a 44D1     		bne	.L32
 196:.\protocolo.c ****             Surtidor_ClearRxBuffer();
 340              		.loc 1 196 0
 341 003c FFF7FEFF 		bl	Surtidor_ClearRxBuffer
 342              	.LVL34:
 197:.\protocolo.c ****             for(x=0;x<=8;x++){
 343              		.loc 1 197 0
 344 0040 0024     		movs	r4, #0
 345 0042 07E0     		b	.L24
 346              	.LVL35:
 347              	.L25:
 198:.\protocolo.c ****                Surtidor_PutChar(comand_exten[x]); 
 348              		.loc 1 198 0 discriminator 3
 349 0044 08AB     		add	r3, sp, #32
 350 0046 2344     		add	r3, r3, r4
 351 0048 13F8200C 		ldrb	r0, [r3, #-32]	@ zero_extendqisi2
 352 004c FFF7FEFF 		bl	Surtidor_PutChar
 353              	.LVL36:
 197:.\protocolo.c ****             for(x=0;x<=8;x++){
 354              		.loc 1 197 0 discriminator 3
 355 0050 0134     		adds	r4, r4, #1
 356              	.LVL37:
 357 0052 E4B2     		uxtb	r4, r4
 358              	.LVL38:
 359              	.L24:
 197:.\protocolo.c ****             for(x=0;x<=8;x++){
 360              		.loc 1 197 0 is_stmt 0 discriminator 1
 361 0054 082C     		cmp	r4, #8
 362 0056 F5D9     		bls	.L25
 199:.\protocolo.c ****             }
 200:.\protocolo.c ****             CyDelay(200);
 363              		.loc 1 200 0 is_stmt 1
 364 0058 C820     		movs	r0, #200
 365 005a FFF7FEFF 		bl	CyDelay
ARM GAS  C:\Users\diego\AppData\Local\Temp\ccwBHTp3.s 			page 11


 366              	.LVL39:
 201:.\protocolo.c ****             if(Surtidor_GetRxBufferSize()>=19){
 367              		.loc 1 201 0
 368 005e FFF7FEFF 		bl	Surtidor_GetRxBufferSize
 369              	.LVL40:
 370 0062 1228     		cmp	r0, #18
 371 0064 0AD8     		bhi	.L33
 202:.\protocolo.c ****                 for(x=0;x<=18;x++){
 203:.\protocolo.c ****                    rx_extend[x]=Surtidor_ReadRxData(); 
 204:.\protocolo.c ****                 }
 205:.\protocolo.c ****                 Surtidor_ClearRxBuffer();
 206:.\protocolo.c ****                 if((rx_extend[0]==0xBA)&&(rx_extend[17]==0x8D)&&(rx_extend[18]==0x8A)&&(rx_extend[1
 207:.\protocolo.c ****                     switch(rx_extend[14]){
 208:.\protocolo.c ****                         case 0xB1:
 209:.\protocolo.c ****                             return 1;
 210:.\protocolo.c ****                             break;
 211:.\protocolo.c ****                         case 0xB2:
 212:.\protocolo.c ****                             return 2;
 213:.\protocolo.c ****                             break;
 214:.\protocolo.c ****                         case 0xB3:
 215:.\protocolo.c ****                             return 3;
 216:.\protocolo.c ****                             break;
 217:.\protocolo.c ****                         default:
 218:.\protocolo.c ****                             return 0;
 219:.\protocolo.c ****                     }
 220:.\protocolo.c ****                 }
 221:.\protocolo.c ****                 else{
 222:.\protocolo.c ****                     return 0;
 223:.\protocolo.c ****                 }
 224:.\protocolo.c ****             }
 225:.\protocolo.c ****             else{
 226:.\protocolo.c ****                 return 0;
 372              		.loc 1 226 0
 373 0066 0020     		movs	r0, #0
 374 0068 38E0     		b	.L23
 375              	.L27:
 203:.\protocolo.c ****                 }
 376              		.loc 1 203 0 discriminator 3
 377 006a FFF7FEFF 		bl	Surtidor_ReadRxData
 378              	.LVL41:
 379 006e 08AB     		add	r3, sp, #32
 380 0070 2344     		add	r3, r3, r4
 381 0072 03F8140C 		strb	r0, [r3, #-20]
 202:.\protocolo.c ****                 for(x=0;x<=18;x++){
 382              		.loc 1 202 0 discriminator 3
 383 0076 0134     		adds	r4, r4, #1
 384              	.LVL42:
 385 0078 E4B2     		uxtb	r4, r4
 386              	.LVL43:
 387 007a 00E0     		b	.L26
 388              	.L33:
 389 007c 0024     		movs	r4, #0
 390              	.LVL44:
 391              	.L26:
 202:.\protocolo.c ****                 for(x=0;x<=18;x++){
 392              		.loc 1 202 0 is_stmt 0 discriminator 1
 393 007e 122C     		cmp	r4, #18
ARM GAS  C:\Users\diego\AppData\Local\Temp\ccwBHTp3.s 			page 12


 394 0080 F3D9     		bls	.L27
 205:.\protocolo.c ****                 if((rx_extend[0]==0xBA)&&(rx_extend[17]==0x8D)&&(rx_extend[18]==0x8A)&&(rx_extend[1
 395              		.loc 1 205 0 is_stmt 1
 396 0082 FFF7FEFF 		bl	Surtidor_ClearRxBuffer
 397              	.LVL45:
 206:.\protocolo.c ****                     switch(rx_extend[14]){
 398              		.loc 1 206 0
 399 0086 9DF80C30 		ldrb	r3, [sp, #12]	@ zero_extendqisi2
 400 008a BA2B     		cmp	r3, #186
 401 008c 1DD1     		bne	.L34
 206:.\protocolo.c ****                     switch(rx_extend[14]){
 402              		.loc 1 206 0 is_stmt 0 discriminator 1
 403 008e 9DF81D30 		ldrb	r3, [sp, #29]	@ zero_extendqisi2
 404 0092 8D2B     		cmp	r3, #141
 405 0094 1BD1     		bne	.L35
 206:.\protocolo.c ****                     switch(rx_extend[14]){
 406              		.loc 1 206 0 discriminator 2
 407 0096 9DF81E30 		ldrb	r3, [sp, #30]	@ zero_extendqisi2
 408 009a 8A2B     		cmp	r3, #138
 409 009c 19D1     		bne	.L36
 206:.\protocolo.c ****                     switch(rx_extend[14]){
 410              		.loc 1 206 0 discriminator 3
 411 009e 9DF81830 		ldrb	r3, [sp, #24]	@ zero_extendqisi2
 412 00a2 B12B     		cmp	r3, #177
 413 00a4 17D1     		bne	.L37
 207:.\protocolo.c ****                         case 0xB1:
 414              		.loc 1 207 0 is_stmt 1
 415 00a6 9DF81A30 		ldrb	r3, [sp, #26]	@ zero_extendqisi2
 416 00aa B22B     		cmp	r3, #178
 417 00ac 15D0     		beq	.L38
 418 00ae B32B     		cmp	r3, #179
 419 00b0 03D0     		beq	.L29
 420 00b2 B12B     		cmp	r3, #177
 421 00b4 03D1     		bne	.L39
 209:.\protocolo.c ****                             break;
 422              		.loc 1 209 0
 423 00b6 0120     		movs	r0, #1
 424 00b8 10E0     		b	.L23
 425              	.L29:
 215:.\protocolo.c ****                             break;
 426              		.loc 1 215 0
 427 00ba 0320     		movs	r0, #3
 428 00bc 0EE0     		b	.L23
 429              	.L39:
 218:.\protocolo.c ****                     }
 430              		.loc 1 218 0
 431 00be 0020     		movs	r0, #0
 432 00c0 0CE0     		b	.L23
 433              	.LVL46:
 434              	.L31:
 227:.\protocolo.c ****             }
 228:.\protocolo.c ****         }
 229:.\protocolo.c ****         else{
 230:.\protocolo.c ****             return 0;
 231:.\protocolo.c ****         }
 232:.\protocolo.c ****     }
 233:.\protocolo.c ****     else{
ARM GAS  C:\Users\diego\AppData\Local\Temp\ccwBHTp3.s 			page 13


 234:.\protocolo.c ****         return 0;
 435              		.loc 1 234 0
 436 00c2 0020     		movs	r0, #0
 437 00c4 0AE0     		b	.L23
 438              	.L32:
 230:.\protocolo.c ****         }
 439              		.loc 1 230 0
 440 00c6 0020     		movs	r0, #0
 441 00c8 08E0     		b	.L23
 442              	.LVL47:
 443              	.L34:
 222:.\protocolo.c ****                 }
 444              		.loc 1 222 0
 445 00ca 0020     		movs	r0, #0
 446 00cc 06E0     		b	.L23
 447              	.L35:
 448 00ce 0020     		movs	r0, #0
 449 00d0 04E0     		b	.L23
 450              	.L36:
 451 00d2 0020     		movs	r0, #0
 452 00d4 02E0     		b	.L23
 453              	.L37:
 454 00d6 0020     		movs	r0, #0
 455 00d8 00E0     		b	.L23
 456              	.L38:
 212:.\protocolo.c ****                             break;
 457              		.loc 1 212 0
 458 00da 0220     		movs	r0, #2
 459              	.LVL48:
 460              	.L23:
 235:.\protocolo.c ****     }
 236:.\protocolo.c **** }
 461              		.loc 1 236 0 discriminator 1
 462 00dc 08B0     		add	sp, sp, #32
 463              		.cfi_def_cfa_offset 8
 464              		@ sp needed
 465 00de 10BD     		pop	{r4, pc}
 466              	.L42:
 467              		.align	2
 468              	.L41:
 469 00e0 00000000 		.word	.LANCHOR0
 470 00e4 00000000 		.word	producto
 471              		.cfi_endproc
 472              	.LFE65:
 473              		.size	estado_ex, .-estado_ex
 474              		.section	.text.venta,"ax",%progbits
 475              		.align	2
 476              		.global	venta
 477              		.thumb
 478              		.thumb_func
 479              		.type	venta, %function
 480              	venta:
 481              	.LFB66:
 237:.\protocolo.c **** 
 238:.\protocolo.c **** ///*
 239:.\protocolo.c **** //*************************************************************************************************
 240:.\protocolo.c **** //*                                         void detener(uint8 val)
ARM GAS  C:\Users\diego\AppData\Local\Temp\ccwBHTp3.s 			page 14


 241:.\protocolo.c **** //*
 242:.\protocolo.c **** //* Description : 
 243:.\protocolo.c **** //*               
 244:.\protocolo.c **** //*
 245:.\protocolo.c **** //* Argument(s) : none
 246:.\protocolo.c **** //*
 247:.\protocolo.c **** //* Return(s)   : none
 248:.\protocolo.c **** //*
 249:.\protocolo.c **** //* Caller(s)   : 
 250:.\protocolo.c **** //*
 251:.\protocolo.c **** //* Note(s)     : none.
 252:.\protocolo.c **** //*************************************************************************************************
 253:.\protocolo.c **** //*/
 254:.\protocolo.c **** //void detener(uint8 val){
 255:.\protocolo.c **** //    Surtidor_PutChar(0x30|val);
 256:.\protocolo.c **** //    CyDelay(200);
 257:.\protocolo.c **** //}
 258:.\protocolo.c **** 
 259:.\protocolo.c **** /*
 260:.\protocolo.c **** ***************************************************************************************************
 261:.\protocolo.c **** *                                         void venta(uint8 val)
 262:.\protocolo.c **** *
 263:.\protocolo.c **** * Description : 
 264:.\protocolo.c **** *               
 265:.\protocolo.c **** *
 266:.\protocolo.c **** * Argument(s) : none
 267:.\protocolo.c **** *
 268:.\protocolo.c **** * Return(s)   : none
 269:.\protocolo.c **** *
 270:.\protocolo.c **** * Caller(s)   : 
 271:.\protocolo.c **** *
 272:.\protocolo.c **** * Note(s)     : none.
 273:.\protocolo.c **** ***************************************************************************************************
 274:.\protocolo.c **** */
 275:.\protocolo.c **** uint8 venta(uint8 val){
 482              		.loc 1 275 0
 483              		.cfi_startproc
 484              		@ args = 0, pretend = 0, frame = 40
 485              		@ frame_needed = 0, uses_anonymous_args = 0
 486              	.LVL49:
 487 0000 30B5     		push	{r4, r5, lr}
 488              		.cfi_def_cfa_offset 12
 489              		.cfi_offset 4, -12
 490              		.cfi_offset 5, -8
 491              		.cfi_offset 14, -4
 492 0002 8BB0     		sub	sp, sp, #44
 493              		.cfi_def_cfa_offset 56
 494 0004 0446     		mov	r4, r0
 495              	.LVL50:
 276:.\protocolo.c ****     uint8 rx_venta[39],x=0,pos,y; 
 277:.\protocolo.c ****     Surtidor_PutChar(0x40|val);
 496              		.loc 1 277 0
 497 0006 40F04000 		orr	r0, r0, #64
 498              	.LVL51:
 499 000a FFF7FEFF 		bl	Surtidor_PutChar
 500              	.LVL52:
 278:.\protocolo.c ****     CyDelay(300);
ARM GAS  C:\Users\diego\AppData\Local\Temp\ccwBHTp3.s 			page 15


 501              		.loc 1 278 0
 502 000e 4FF49670 		mov	r0, #300
 503 0012 FFF7FEFF 		bl	CyDelay
 504              	.LVL53:
 279:.\protocolo.c ****     if(Surtidor_GetRxBufferSize()<=39){
 505              		.loc 1 279 0
 506 0016 FFF7FEFF 		bl	Surtidor_GetRxBufferSize
 507              	.LVL54:
 508 001a 2728     		cmp	r0, #39
 509 001c 0AD9     		bls	.L60
 280:.\protocolo.c ****         while(Surtidor_GetRxBufferSize()>0){
 281:.\protocolo.c ****             rx_venta[x]=Surtidor_ReadRxData();  
 282:.\protocolo.c ****             x++;
 283:.\protocolo.c ****         }
 284:.\protocolo.c ****         Surtidor_ClearRxBuffer();
 285:.\protocolo.c ****         if(val==0){
 286:.\protocolo.c ****             pos=0x10;
 287:.\protocolo.c ****             rventa.posicion=pos;
 288:.\protocolo.c ****         }
 289:.\protocolo.c ****         else{
 290:.\protocolo.c ****             pos=val;
 291:.\protocolo.c ****             rventa.posicion=pos;
 292:.\protocolo.c ****         }
 293:.\protocolo.c ****         if((rx_venta[0]==0xFF)&&(rx_venta[2]==0xF8)&&((rx_venta[4]&0x0F)==(pos-1))){
 294:.\protocolo.c ****             x=0;
 295:.\protocolo.c ****             while((rx_venta[x]!=0xF6)||(x>=39)){
 296:.\protocolo.c ****                 x++;
 297:.\protocolo.c ****             }
 298:.\protocolo.c ****             x++;
 299:.\protocolo.c ****             rventa.producto=(rx_venta[x]&0x0F)+1;
 300:.\protocolo.c ****             while((rx_venta[x]!=0xF7)||(x>=39)){
 301:.\protocolo.c ****                 x++;
 302:.\protocolo.c ****             }
 303:.\protocolo.c ****             x++;
 304:.\protocolo.c ****             y=1;
 305:.\protocolo.c ****             while((rx_venta[x]!=0xF9)||(x>=39)){    
 306:.\protocolo.c ****                 rventa.ppu[y]=(rx_venta[x]&0x0F);
 307:.\protocolo.c ****                 x++;
 308:.\protocolo.c ****                 y++;
 309:.\protocolo.c ****             }
 310:.\protocolo.c **** 			rventa.ppu[0]=y-1;
 311:.\protocolo.c ****             x++;
 312:.\protocolo.c ****             y=1;
 313:.\protocolo.c ****             while((rx_venta[x]!=0xFA)||(x>=39)){
 314:.\protocolo.c ****                 rventa.volumen[y]=(rx_venta[x]&0x0F);
 315:.\protocolo.c ****                 x++;
 316:.\protocolo.c ****                 y++;    
 317:.\protocolo.c ****             }
 318:.\protocolo.c **** 			rventa.volumen[0]=y-1;
 319:.\protocolo.c ****             x++;
 320:.\protocolo.c ****             y=1;
 321:.\protocolo.c ****             while((rx_venta[x]!=0xFB)||(x>=39)){
 322:.\protocolo.c ****                 rventa.dinero[y]=(rx_venta[x]&0x0F);
 323:.\protocolo.c ****                 x++;
 324:.\protocolo.c ****                 y++;    
 325:.\protocolo.c ****             }
 326:.\protocolo.c **** 			rventa.dinero[0]=y-1;
ARM GAS  C:\Users\diego\AppData\Local\Temp\ccwBHTp3.s 			page 16


 327:.\protocolo.c ****             x+=2;
 328:.\protocolo.c ****             if((rx_venta[x]==0xF0)&&(x<=38)){								
 329:.\protocolo.c **** 				if(val==a.dir){
 330:.\protocolo.c **** 					write_eeprom(457,rventa.dinero);
 331:.\protocolo.c **** 					write_eeprom(466,rventa.volumen);
 332:.\protocolo.c **** 					write_eeprom(475,rventa.ppu);
 333:.\protocolo.c **** 				}				
 334:.\protocolo.c **** 				else{
 335:.\protocolo.c **** 					write_eeprom(482,rventa.dinero);
 336:.\protocolo.c **** 					write_eeprom(500,rventa.ppu);
 337:.\protocolo.c **** 					write_eeprom(491,rventa.volumen);				
 338:.\protocolo.c **** 				}
 339:.\protocolo.c ****                 return 1;
 340:.\protocolo.c ****             }
 341:.\protocolo.c ****             else{
 342:.\protocolo.c ****                 return 0;
 343:.\protocolo.c ****             }
 344:.\protocolo.c ****         }
 345:.\protocolo.c ****         else{
 346:.\protocolo.c ****             return 0;
 347:.\protocolo.c ****         }
 348:.\protocolo.c ****     }
 349:.\protocolo.c ****     else{
 350:.\protocolo.c ****         return 0;
 510              		.loc 1 350 0
 511 001e 0020     		movs	r0, #0
 512 0020 D9E0     		b	.L45
 513              	.LVL55:
 514              	.L46:
 281:.\protocolo.c ****             x++;
 515              		.loc 1 281 0
 516 0022 FFF7FEFF 		bl	Surtidor_ReadRxData
 517              	.LVL56:
 518 0026 0AAB     		add	r3, sp, #40
 519 0028 2B44     		add	r3, r3, r5
 520 002a 03F8280C 		strb	r0, [r3, #-40]
 282:.\protocolo.c ****         }
 521              		.loc 1 282 0
 522 002e 0135     		adds	r5, r5, #1
 523              	.LVL57:
 524 0030 EDB2     		uxtb	r5, r5
 525              	.LVL58:
 526 0032 00E0     		b	.L44
 527              	.LVL59:
 528              	.L60:
 529 0034 0025     		movs	r5, #0
 530              	.LVL60:
 531              	.L44:
 280:.\protocolo.c ****         while(Surtidor_GetRxBufferSize()>0){
 532              		.loc 1 280 0
 533 0036 FFF7FEFF 		bl	Surtidor_GetRxBufferSize
 534              	.LVL61:
 535 003a 0028     		cmp	r0, #0
 536 003c F1D1     		bne	.L46
 284:.\protocolo.c ****         if(val==0){
 537              		.loc 1 284 0
 538 003e FFF7FEFF 		bl	Surtidor_ClearRxBuffer
ARM GAS  C:\Users\diego\AppData\Local\Temp\ccwBHTp3.s 			page 17


 539              	.LVL62:
 285:.\protocolo.c ****             pos=0x10;
 540              		.loc 1 285 0
 541 0042 24B9     		cbnz	r4, .L47
 542              	.LVL63:
 287:.\protocolo.c ****         }
 543              		.loc 1 287 0
 544 0044 1023     		movs	r3, #16
 545 0046 654A     		ldr	r2, .L67
 546 0048 82F8A230 		strb	r3, [r2, #162]
 547 004c 03E0     		b	.L48
 548              	.LVL64:
 549              	.L47:
 291:.\protocolo.c ****         }
 550              		.loc 1 291 0
 551 004e 634B     		ldr	r3, .L67
 552 0050 83F8A240 		strb	r4, [r3, #162]
 290:.\protocolo.c ****             rventa.posicion=pos;
 553              		.loc 1 290 0
 554 0054 2346     		mov	r3, r4
 555              	.LVL65:
 556              	.L48:
 293:.\protocolo.c ****             x=0;
 557              		.loc 1 293 0
 558 0056 9DF80020 		ldrb	r2, [sp]	@ zero_extendqisi2
 559 005a FF2A     		cmp	r2, #255
 560 005c 40F0B480 		bne	.L61
 293:.\protocolo.c ****             x=0;
 561              		.loc 1 293 0 is_stmt 0 discriminator 1
 562 0060 9DF80220 		ldrb	r2, [sp, #2]	@ zero_extendqisi2
 563 0064 F82A     		cmp	r2, #248
 564 0066 40F0B180 		bne	.L62
 293:.\protocolo.c ****             x=0;
 565              		.loc 1 293 0 discriminator 2
 566 006a 9DF80420 		ldrb	r2, [sp, #4]	@ zero_extendqisi2
 567 006e 02F00F02 		and	r2, r2, #15
 568 0072 013B     		subs	r3, r3, #1
 569              	.LVL66:
 570 0074 9A42     		cmp	r2, r3
 571 0076 04D0     		beq	.L63
 346:.\protocolo.c ****         }
 572              		.loc 1 346 0 is_stmt 1
 573 0078 0020     		movs	r0, #0
 574 007a ACE0     		b	.L45
 575              	.LVL67:
 576              	.L50:
 296:.\protocolo.c ****             }
 577              		.loc 1 296 0
 578 007c 0133     		adds	r3, r3, #1
 579              	.LVL68:
 580 007e DBB2     		uxtb	r3, r3
 581              	.LVL69:
 582 0080 00E0     		b	.L49
 583              	.LVL70:
 584              	.L63:
 585 0082 0023     		movs	r3, #0
 586              	.LVL71:
ARM GAS  C:\Users\diego\AppData\Local\Temp\ccwBHTp3.s 			page 18


 587              	.L49:
 295:.\protocolo.c ****                 x++;
 588              		.loc 1 295 0
 589 0084 0AAA     		add	r2, sp, #40
 590 0086 1A44     		add	r2, r2, r3
 591 0088 12F8282C 		ldrb	r2, [r2, #-40]	@ zero_extendqisi2
 592 008c F62A     		cmp	r2, #246
 593 008e F5D1     		bne	.L50
 295:.\protocolo.c ****                 x++;
 594              		.loc 1 295 0 is_stmt 0 discriminator 1
 595 0090 262B     		cmp	r3, #38
 596 0092 F3D8     		bhi	.L50
 298:.\protocolo.c ****             rventa.producto=(rx_venta[x]&0x0F)+1;
 597              		.loc 1 298 0 is_stmt 1
 598 0094 0133     		adds	r3, r3, #1
 599              	.LVL72:
 600 0096 DBB2     		uxtb	r3, r3
 601              	.LVL73:
 299:.\protocolo.c ****             while((rx_venta[x]!=0xF7)||(x>=39)){
 602              		.loc 1 299 0
 603 0098 0AAA     		add	r2, sp, #40
 604 009a 1A44     		add	r2, r2, r3
 605 009c 12F8282C 		ldrb	r2, [r2, #-40]	@ zero_extendqisi2
 606 00a0 02F00F02 		and	r2, r2, #15
 607 00a4 0132     		adds	r2, r2, #1
 608 00a6 4D49     		ldr	r1, .L67
 609 00a8 81F8A320 		strb	r2, [r1, #163]
 300:.\protocolo.c ****                 x++;
 610              		.loc 1 300 0
 611 00ac 01E0     		b	.L51
 612              	.L52:
 301:.\protocolo.c ****             }
 613              		.loc 1 301 0
 614 00ae 0133     		adds	r3, r3, #1
 615              	.LVL74:
 616 00b0 DBB2     		uxtb	r3, r3
 617              	.LVL75:
 618              	.L51:
 300:.\protocolo.c ****                 x++;
 619              		.loc 1 300 0
 620 00b2 0AAA     		add	r2, sp, #40
 621 00b4 1A44     		add	r2, r2, r3
 622 00b6 12F8282C 		ldrb	r2, [r2, #-40]	@ zero_extendqisi2
 623 00ba F72A     		cmp	r2, #247
 624 00bc F7D1     		bne	.L52
 300:.\protocolo.c ****                 x++;
 625              		.loc 1 300 0 is_stmt 0 discriminator 1
 626 00be 262B     		cmp	r3, #38
 627 00c0 F5D8     		bhi	.L52
 303:.\protocolo.c ****             y=1;
 628              		.loc 1 303 0 is_stmt 1
 629 00c2 0133     		adds	r3, r3, #1
 630              	.LVL76:
 631 00c4 DBB2     		uxtb	r3, r3
 632              	.LVL77:
 304:.\protocolo.c ****             while((rx_venta[x]!=0xF9)||(x>=39)){    
 633              		.loc 1 304 0
ARM GAS  C:\Users\diego\AppData\Local\Temp\ccwBHTp3.s 			page 19


 634 00c6 0122     		movs	r2, #1
 305:.\protocolo.c ****                 rventa.ppu[y]=(rx_venta[x]&0x0F);
 635              		.loc 1 305 0
 636 00c8 09E0     		b	.L53
 637              	.LVL78:
 638              	.L54:
 306:.\protocolo.c ****                 x++;
 639              		.loc 1 306 0
 640 00ca 4448     		ldr	r0, .L67
 641 00cc 1044     		add	r0, r0, r2
 642 00ce 01F00F01 		and	r1, r1, #15
 643 00d2 80F8A410 		strb	r1, [r0, #164]
 307:.\protocolo.c ****                 y++;
 644              		.loc 1 307 0
 645 00d6 0133     		adds	r3, r3, #1
 646              	.LVL79:
 647 00d8 DBB2     		uxtb	r3, r3
 648              	.LVL80:
 308:.\protocolo.c ****             }
 649              		.loc 1 308 0
 650 00da 0132     		adds	r2, r2, #1
 651              	.LVL81:
 652 00dc D2B2     		uxtb	r2, r2
 653              	.LVL82:
 654              	.L53:
 305:.\protocolo.c ****                 rventa.ppu[y]=(rx_venta[x]&0x0F);
 655              		.loc 1 305 0
 656 00de 0AA9     		add	r1, sp, #40
 657 00e0 1944     		add	r1, r1, r3
 658 00e2 11F8281C 		ldrb	r1, [r1, #-40]	@ zero_extendqisi2
 659 00e6 F929     		cmp	r1, #249
 660 00e8 EFD1     		bne	.L54
 305:.\protocolo.c ****                 rventa.ppu[y]=(rx_venta[x]&0x0F);
 661              		.loc 1 305 0 is_stmt 0 discriminator 1
 662 00ea 262B     		cmp	r3, #38
 663 00ec EDD8     		bhi	.L54
 310:.\protocolo.c ****             x++;
 664              		.loc 1 310 0 is_stmt 1
 665 00ee 013A     		subs	r2, r2, #1
 666              	.LVL83:
 667 00f0 3A49     		ldr	r1, .L67
 668 00f2 81F8A420 		strb	r2, [r1, #164]
 311:.\protocolo.c ****             y=1;
 669              		.loc 1 311 0
 670 00f6 0133     		adds	r3, r3, #1
 671              	.LVL84:
 672 00f8 DBB2     		uxtb	r3, r3
 673              	.LVL85:
 312:.\protocolo.c ****             while((rx_venta[x]!=0xFA)||(x>=39)){
 674              		.loc 1 312 0
 675 00fa 0122     		movs	r2, #1
 313:.\protocolo.c ****                 rventa.volumen[y]=(rx_venta[x]&0x0F);
 676              		.loc 1 313 0
 677 00fc 09E0     		b	.L55
 678              	.LVL86:
 679              	.L56:
 314:.\protocolo.c ****                 x++;
ARM GAS  C:\Users\diego\AppData\Local\Temp\ccwBHTp3.s 			page 20


 680              		.loc 1 314 0
 681 00fe 3748     		ldr	r0, .L67
 682 0100 1044     		add	r0, r0, r2
 683 0102 01F00F01 		and	r1, r1, #15
 684 0106 80F8B410 		strb	r1, [r0, #180]
 315:.\protocolo.c ****                 y++;    
 685              		.loc 1 315 0
 686 010a 0133     		adds	r3, r3, #1
 687              	.LVL87:
 688 010c DBB2     		uxtb	r3, r3
 689              	.LVL88:
 316:.\protocolo.c ****             }
 690              		.loc 1 316 0
 691 010e 0132     		adds	r2, r2, #1
 692              	.LVL89:
 693 0110 D2B2     		uxtb	r2, r2
 694              	.LVL90:
 695              	.L55:
 313:.\protocolo.c ****                 rventa.volumen[y]=(rx_venta[x]&0x0F);
 696              		.loc 1 313 0
 697 0112 0AA9     		add	r1, sp, #40
 698 0114 1944     		add	r1, r1, r3
 699 0116 11F8281C 		ldrb	r1, [r1, #-40]	@ zero_extendqisi2
 700 011a FA29     		cmp	r1, #250
 701 011c EFD1     		bne	.L56
 313:.\protocolo.c ****                 rventa.volumen[y]=(rx_venta[x]&0x0F);
 702              		.loc 1 313 0 is_stmt 0 discriminator 1
 703 011e 262B     		cmp	r3, #38
 704 0120 EDD8     		bhi	.L56
 318:.\protocolo.c ****             x++;
 705              		.loc 1 318 0 is_stmt 1
 706 0122 013A     		subs	r2, r2, #1
 707              	.LVL91:
 708 0124 2D49     		ldr	r1, .L67
 709 0126 81F8B420 		strb	r2, [r1, #180]
 319:.\protocolo.c ****             y=1;
 710              		.loc 1 319 0
 711 012a 0133     		adds	r3, r3, #1
 712              	.LVL92:
 713 012c DBB2     		uxtb	r3, r3
 714              	.LVL93:
 320:.\protocolo.c ****             while((rx_venta[x]!=0xFB)||(x>=39)){
 715              		.loc 1 320 0
 716 012e 0122     		movs	r2, #1
 321:.\protocolo.c ****                 rventa.dinero[y]=(rx_venta[x]&0x0F);
 717              		.loc 1 321 0
 718 0130 09E0     		b	.L57
 719              	.LVL94:
 720              	.L58:
 322:.\protocolo.c ****                 x++;
 721              		.loc 1 322 0
 722 0132 2A48     		ldr	r0, .L67
 723 0134 1044     		add	r0, r0, r2
 724 0136 01F00F01 		and	r1, r1, #15
 725 013a 80F8AB10 		strb	r1, [r0, #171]
 323:.\protocolo.c ****                 y++;    
 726              		.loc 1 323 0
ARM GAS  C:\Users\diego\AppData\Local\Temp\ccwBHTp3.s 			page 21


 727 013e 0133     		adds	r3, r3, #1
 728              	.LVL95:
 729 0140 DBB2     		uxtb	r3, r3
 730              	.LVL96:
 324:.\protocolo.c ****             }
 731              		.loc 1 324 0
 732 0142 0132     		adds	r2, r2, #1
 733              	.LVL97:
 734 0144 D2B2     		uxtb	r2, r2
 735              	.LVL98:
 736              	.L57:
 321:.\protocolo.c ****                 rventa.dinero[y]=(rx_venta[x]&0x0F);
 737              		.loc 1 321 0
 738 0146 0AA9     		add	r1, sp, #40
 739 0148 1944     		add	r1, r1, r3
 740 014a 11F8281C 		ldrb	r1, [r1, #-40]	@ zero_extendqisi2
 741 014e FB29     		cmp	r1, #251
 742 0150 EFD1     		bne	.L58
 321:.\protocolo.c ****                 rventa.dinero[y]=(rx_venta[x]&0x0F);
 743              		.loc 1 321 0 is_stmt 0 discriminator 1
 744 0152 262B     		cmp	r3, #38
 745 0154 EDD8     		bhi	.L58
 326:.\protocolo.c ****             x+=2;
 746              		.loc 1 326 0 is_stmt 1
 747 0156 013A     		subs	r2, r2, #1
 748              	.LVL99:
 749 0158 2049     		ldr	r1, .L67
 750 015a 81F8AB20 		strb	r2, [r1, #171]
 327:.\protocolo.c ****             if((rx_venta[x]==0xF0)&&(x<=38)){								
 751              		.loc 1 327 0
 752 015e 0233     		adds	r3, r3, #2
 753              	.LVL100:
 754 0160 DBB2     		uxtb	r3, r3
 755              	.LVL101:
 328:.\protocolo.c **** 				if(val==a.dir){
 756              		.loc 1 328 0
 757 0162 0AAA     		add	r2, sp, #40
 758 0164 1A44     		add	r2, r2, r3
 759 0166 12F8282C 		ldrb	r2, [r2, #-40]	@ zero_extendqisi2
 760 016a F02A     		cmp	r2, #240
 761 016c 30D1     		bne	.L64
 328:.\protocolo.c **** 				if(val==a.dir){
 762              		.loc 1 328 0 is_stmt 0 discriminator 1
 763 016e 262B     		cmp	r3, #38
 764 0170 30D8     		bhi	.L65
 329:.\protocolo.c **** 					write_eeprom(457,rventa.dinero);
 765              		.loc 1 329 0 is_stmt 1
 766 0172 1B4B     		ldr	r3, .L67+4
 767              	.LVL102:
 768 0174 1B78     		ldrb	r3, [r3]	@ zero_extendqisi2
 769 0176 A342     		cmp	r3, r4
 770 0178 13D1     		bne	.L59
 330:.\protocolo.c **** 					write_eeprom(466,rventa.volumen);
 771              		.loc 1 330 0
 772 017a 01F1AB04 		add	r4, r1, #171
 773 017e 40F2C910 		movw	r0, #457
 774 0182 2146     		mov	r1, r4
ARM GAS  C:\Users\diego\AppData\Local\Temp\ccwBHTp3.s 			page 22


 775 0184 FFF7FEFF 		bl	write_eeprom
 776              	.LVL103:
 331:.\protocolo.c **** 					write_eeprom(475,rventa.ppu);
 777              		.loc 1 331 0
 778 0188 4FF4E970 		mov	r0, #466
 779 018c 04F10901 		add	r1, r4, #9
 780 0190 FFF7FEFF 		bl	write_eeprom
 781              	.LVL104:
 332:.\protocolo.c **** 				}				
 782              		.loc 1 332 0
 783 0194 40F2DB10 		movw	r0, #475
 784 0198 E11F     		subs	r1, r4, #7
 785 019a FFF7FEFF 		bl	write_eeprom
 786              	.LVL105:
 339:.\protocolo.c ****             }
 787              		.loc 1 339 0
 788 019e 0120     		movs	r0, #1
 789 01a0 19E0     		b	.L45
 790              	.L59:
 335:.\protocolo.c **** 					write_eeprom(500,rventa.ppu);
 791              		.loc 1 335 0
 792 01a2 104C     		ldr	r4, .L67+8
 793 01a4 4FF4F170 		mov	r0, #482
 794 01a8 2146     		mov	r1, r4
 795 01aa FFF7FEFF 		bl	write_eeprom
 796              	.LVL106:
 336:.\protocolo.c **** 					write_eeprom(491,rventa.volumen);				
 797              		.loc 1 336 0
 798 01ae 4FF4FA70 		mov	r0, #500
 799 01b2 E11F     		subs	r1, r4, #7
 800 01b4 FFF7FEFF 		bl	write_eeprom
 801              	.LVL107:
 337:.\protocolo.c **** 				}
 802              		.loc 1 337 0
 803 01b8 40F2EB10 		movw	r0, #491
 804 01bc 04F10901 		add	r1, r4, #9
 805 01c0 FFF7FEFF 		bl	write_eeprom
 806              	.LVL108:
 339:.\protocolo.c ****             }
 807              		.loc 1 339 0
 808 01c4 0120     		movs	r0, #1
 809 01c6 06E0     		b	.L45
 810              	.LVL109:
 811              	.L61:
 346:.\protocolo.c ****         }
 812              		.loc 1 346 0
 813 01c8 0020     		movs	r0, #0
 814 01ca 04E0     		b	.L45
 815              	.L62:
 816 01cc 0020     		movs	r0, #0
 817 01ce 02E0     		b	.L45
 818              	.LVL110:
 819              	.L64:
 342:.\protocolo.c ****             }
 820              		.loc 1 342 0
 821 01d0 0020     		movs	r0, #0
 822 01d2 00E0     		b	.L45
ARM GAS  C:\Users\diego\AppData\Local\Temp\ccwBHTp3.s 			page 23


 823              	.L65:
 824 01d4 0020     		movs	r0, #0
 825              	.LVL111:
 826              	.L45:
 351:.\protocolo.c ****     }
 352:.\protocolo.c **** }
 827              		.loc 1 352 0
 828 01d6 0BB0     		add	sp, sp, #44
 829              		.cfi_def_cfa_offset 12
 830              		@ sp needed
 831 01d8 30BD     		pop	{r4, r5, pc}
 832              	.L68:
 833 01da 00BF     		.align	2
 834              	.L67:
 835 01dc 00000000 		.word	rventa
 836 01e0 00000000 		.word	a
 837 01e4 AB000000 		.word	rventa+171
 838              		.cfi_endproc
 839              	.LFE66:
 840              		.size	venta, .-venta
 841              		.section	.text.get_totales,"ax",%progbits
 842              		.align	2
 843              		.global	get_totales
 844              		.thumb
 845              		.thumb_func
 846              		.type	get_totales, %function
 847              	get_totales:
 848              	.LFB67:
 353:.\protocolo.c **** 
 354:.\protocolo.c **** /*
 355:.\protocolo.c **** ***************************************************************************************************
 356:.\protocolo.c **** *                                         uint8 get_totales(uint8 dir)
 357:.\protocolo.c **** *
 358:.\protocolo.c **** * Description : 
 359:.\protocolo.c **** *               
 360:.\protocolo.c **** *
 361:.\protocolo.c **** * Argument(s) : none
 362:.\protocolo.c **** *
 363:.\protocolo.c **** * Return(s)   : none
 364:.\protocolo.c **** *
 365:.\protocolo.c **** * Caller(s)   : 
 366:.\protocolo.c **** *
 367:.\protocolo.c **** * Note(s)     : none.
 368:.\protocolo.c **** ***************************************************************************************************
 369:.\protocolo.c **** */
 370:.\protocolo.c **** uint8 get_totales(uint8 dir,uint8 val){ 
 849              		.loc 1 370 0
 850              		.cfi_startproc
 851              		@ args = 0, pretend = 0, frame = 64
 852              		@ frame_needed = 0, uses_anonymous_args = 0
 853              	.LVL112:
 854 0000 70B5     		push	{r4, r5, r6, lr}
 855              		.cfi_def_cfa_offset 16
 856              		.cfi_offset 4, -16
 857              		.cfi_offset 5, -12
 858              		.cfi_offset 6, -8
 859              		.cfi_offset 14, -4
ARM GAS  C:\Users\diego\AppData\Local\Temp\ccwBHTp3.s 			page 24


 860 0002 90B0     		sub	sp, sp, #64
 861              		.cfi_def_cfa_offset 80
 862 0004 0546     		mov	r5, r0
 863 0006 0C46     		mov	r4, r1
 371:.\protocolo.c **** 	uint8 corte[25], minuendo[14],sustraendo[14]; 
 372:.\protocolo.c ****     Surtidor_PutChar(0x50|dir);
 864              		.loc 1 372 0
 865 0008 40F05000 		orr	r0, r0, #80
 866              	.LVL113:
 867 000c FFF7FEFF 		bl	Surtidor_PutChar
 868              	.LVL114:
 373:.\protocolo.c **** 
 374:.\protocolo.c ****     CyDelay(1000);
 869              		.loc 1 374 0
 870 0010 4FF47A70 		mov	r0, #1000
 871 0014 FFF7FEFF 		bl	CyDelay
 872              	.LVL115:
 375:.\protocolo.c **** 	switch(Surtidor_GetRxBufferSize()){
 873              		.loc 1 375 0
 874 0018 FFF7FEFF 		bl	Surtidor_GetRxBufferSize
 875              	.LVL116:
 876 001c 4028     		cmp	r0, #64
 877 001e 00F01784 		beq	.L71
 878 0022 06D8     		bhi	.L72
 879 0024 2228     		cmp	r0, #34
 880 0026 0FD0     		beq	.L73
 881 0028 2E28     		cmp	r0, #46
 882 002a 01F07184 		beq	.L74
 883 002e 03F0EDB8 		b	.L70
 884              	.L72:
 885 0032 5E28     		cmp	r0, #94
 886 0034 01F03C80 		beq	.L75
 887 0038 8228     		cmp	r0, #130
 888 003a 02F0B884 		beq	.L76
 889 003e 5828     		cmp	r0, #88
 890 0040 43F0E480 		bne	.L70
 891 0044 02F087B8 		b	.L77
 892              	.L73:
 376:.\protocolo.c **** 		case 34:
 377:.\protocolo.c **** 			if((Surtidor_rxBuffer[0]==0xFF)&&(Surtidor_rxBuffer[1]==0xF6)&&(Surtidor_rxBuffer[33]==0xF0)&&(S
 893              		.loc 1 377 0
 894 0048 9C4B     		ldr	r3, .L594
 895 004a 1B78     		ldrb	r3, [r3]	@ zero_extendqisi2
 896 004c DBB2     		uxtb	r3, r3
 897 004e FF2B     		cmp	r3, #255
 898 0050 43F0F180 		bne	.L569
 899              		.loc 1 377 0 is_stmt 0 discriminator 1
 900 0054 994B     		ldr	r3, .L594
 901 0056 5B78     		ldrb	r3, [r3, #1]	@ zero_extendqisi2
 902 0058 DBB2     		uxtb	r3, r3
 903 005a F62B     		cmp	r3, #246
 904 005c 43F0ED80 		bne	.L570
 905              		.loc 1 377 0 discriminator 2
 906 0060 964B     		ldr	r3, .L594
 907 0062 93F82130 		ldrb	r3, [r3, #33]	@ zero_extendqisi2
 908 0066 DBB2     		uxtb	r3, r3
 909 0068 F02B     		cmp	r3, #240
ARM GAS  C:\Users\diego\AppData\Local\Temp\ccwBHTp3.s 			page 25


 910 006a 43F0E880 		bne	.L571
 911              		.loc 1 377 0 discriminator 3
 912 006e 934B     		ldr	r3, .L594
 913 0070 DB78     		ldrb	r3, [r3, #3]	@ zero_extendqisi2
 914 0072 DBB2     		uxtb	r3, r3
 915 0074 F92B     		cmp	r3, #249
 916 0076 43F0E480 		bne	.L572
 378:.\protocolo.c **** 				rventa.manguera=(Surtidor_rxBuffer[2]&0x0F)+1;			
 917              		.loc 1 378 0 is_stmt 1
 918 007a 904B     		ldr	r3, .L594
 919 007c 9978     		ldrb	r1, [r3, #2]	@ zero_extendqisi2
 920 007e 01F00F01 		and	r1, r1, #15
 921 0082 0131     		adds	r1, r1, #1
 922 0084 8E4B     		ldr	r3, .L594+4
 923 0086 83F8E010 		strb	r1, [r3, #224]
 379:.\protocolo.c **** 				for(x=0;x<=7;x++){												
 924              		.loc 1 379 0
 925 008a 0022     		movs	r2, #0
 926 008c 8D4B     		ldr	r3, .L594+8
 927 008e 1A60     		str	r2, [r3]
 928 0090 0BE0     		b	.L79
 929              	.L80:
 380:.\protocolo.c **** 					rventa.tvolumen[x]=(Surtidor_rxBuffer[x+4]&0x0F);
 930              		.loc 1 380 0 discriminator 3
 931 0092 1A1D     		adds	r2, r3, #4
 932 0094 8948     		ldr	r0, .L594
 933 0096 805C     		ldrb	r0, [r0, r2]	@ zero_extendqisi2
 934 0098 894A     		ldr	r2, .L594+4
 935 009a 1A44     		add	r2, r2, r3
 936 009c 00F00F00 		and	r0, r0, #15
 937 00a0 82F8BD00 		strb	r0, [r2, #189]
 379:.\protocolo.c **** 				for(x=0;x<=7;x++){												
 938              		.loc 1 379 0 discriminator 3
 939 00a4 0133     		adds	r3, r3, #1
 940 00a6 874A     		ldr	r2, .L594+8
 941 00a8 1360     		str	r3, [r2]
 942              	.L79:
 379:.\protocolo.c **** 				for(x=0;x<=7;x++){												
 943              		.loc 1 379 0 is_stmt 0 discriminator 1
 944 00aa 864B     		ldr	r3, .L594+8
 945 00ac 1B68     		ldr	r3, [r3]
 946 00ae 072B     		cmp	r3, #7
 947 00b0 EFD9     		bls	.L80
 381:.\protocolo.c **** 				}
 382:.\protocolo.c **** 				for(x=0;x<=7;x++){
 948              		.loc 1 382 0 is_stmt 1
 949 00b2 0022     		movs	r2, #0
 950 00b4 834B     		ldr	r3, .L594+8
 951 00b6 1A60     		str	r2, [r3]
 952 00b8 0CE0     		b	.L81
 953              	.L82:
 383:.\protocolo.c **** 					rventa.tdinero[x]=(Surtidor_rxBuffer[x+13]&0x0F);
 954              		.loc 1 383 0 discriminator 3
 955 00ba 03F10D02 		add	r2, r3, #13
 956 00be 7F48     		ldr	r0, .L594
 957 00c0 805C     		ldrb	r0, [r0, r2]	@ zero_extendqisi2
 958 00c2 7F4A     		ldr	r2, .L594+4
ARM GAS  C:\Users\diego\AppData\Local\Temp\ccwBHTp3.s 			page 26


 959 00c4 1A44     		add	r2, r2, r3
 960 00c6 00F00F00 		and	r0, r0, #15
 961 00ca 82F8CA00 		strb	r0, [r2, #202]
 382:.\protocolo.c **** 					rventa.tdinero[x]=(Surtidor_rxBuffer[x+13]&0x0F);
 962              		.loc 1 382 0 discriminator 3
 963 00ce 0133     		adds	r3, r3, #1
 964 00d0 7C4A     		ldr	r2, .L594+8
 965 00d2 1360     		str	r3, [r2]
 966              	.L81:
 382:.\protocolo.c **** 					rventa.tdinero[x]=(Surtidor_rxBuffer[x+13]&0x0F);
 967              		.loc 1 382 0 is_stmt 0 discriminator 1
 968 00d4 7B4B     		ldr	r3, .L594+8
 969 00d6 1B68     		ldr	r3, [r3]
 970 00d8 072B     		cmp	r3, #7
 971 00da EED9     		bls	.L82
 384:.\protocolo.c **** 				}
 385:.\protocolo.c **** 				for(z=0;z<=7;z++){
 972              		.loc 1 385 0 is_stmt 1
 973 00dc 0022     		movs	r2, #0
 974 00de 7A4B     		ldr	r3, .L594+12
 975 00e0 1A60     		str	r2, [r3]
 976 00e2 0AE0     		b	.L83
 977              	.L84:
 386:.\protocolo.c **** 					corte[z+1]=rventa.tvolumen[z];
 978              		.loc 1 386 0 discriminator 3
 979 00e4 5A1C     		adds	r2, r3, #1
 980 00e6 7648     		ldr	r0, .L594+4
 981 00e8 0344     		add	r3, r3, r0
 982 00ea 93F8BD00 		ldrb	r0, [r3, #189]	@ zero_extendqisi2
 983 00ee 10AB     		add	r3, sp, #64
 984 00f0 1344     		add	r3, r3, r2
 985 00f2 03F81C0C 		strb	r0, [r3, #-28]
 385:.\protocolo.c **** 					corte[z+1]=rventa.tvolumen[z];
 986              		.loc 1 385 0 discriminator 3
 987 00f6 744B     		ldr	r3, .L594+12
 988 00f8 1A60     		str	r2, [r3]
 989              	.L83:
 385:.\protocolo.c **** 					corte[z+1]=rventa.tvolumen[z];
 990              		.loc 1 385 0 is_stmt 0 discriminator 1
 991 00fa 734B     		ldr	r3, .L594+12
 992 00fc 1B68     		ldr	r3, [r3]
 993 00fe 072B     		cmp	r3, #7
 994 0100 F0D9     		bls	.L84
 387:.\protocolo.c **** 				}
 388:.\protocolo.c **** 				for(z=9;z<=16;z++){
 995              		.loc 1 388 0 is_stmt 1
 996 0102 0922     		movs	r2, #9
 997 0104 704B     		ldr	r3, .L594+12
 998 0106 1A60     		str	r2, [r3]
 999 0108 0AE0     		b	.L85
 1000              	.L86:
 389:.\protocolo.c **** 					corte[z]=rventa.tdinero[z-9];
 1001              		.loc 1 389 0 discriminator 3
 1002 010a 704A     		ldr	r2, .L594+16
 1003 010c 1A44     		add	r2, r2, r3
 1004 010e 92F8CA00 		ldrb	r0, [r2, #202]	@ zero_extendqisi2
 1005 0112 10AA     		add	r2, sp, #64
ARM GAS  C:\Users\diego\AppData\Local\Temp\ccwBHTp3.s 			page 27


 1006 0114 1A44     		add	r2, r2, r3
 1007 0116 02F81C0C 		strb	r0, [r2, #-28]
 388:.\protocolo.c **** 					corte[z]=rventa.tdinero[z-9];
 1008              		.loc 1 388 0 discriminator 3
 1009 011a 0133     		adds	r3, r3, #1
 1010 011c 6A4A     		ldr	r2, .L594+12
 1011 011e 1360     		str	r3, [r2]
 1012              	.L85:
 388:.\protocolo.c **** 					corte[z]=rventa.tdinero[z-9];
 1013              		.loc 1 388 0 is_stmt 0 discriminator 1
 1014 0120 694B     		ldr	r3, .L594+12
 1015 0122 1B68     		ldr	r3, [r3]
 1016 0124 102B     		cmp	r3, #16
 1017 0126 F0D9     		bls	.L86
 390:.\protocolo.c **** 				}
 391:.\protocolo.c **** 				corte[0]=16;				
 1018              		.loc 1 391 0 is_stmt 1
 1019 0128 1023     		movs	r3, #16
 1020 012a 8DF82430 		strb	r3, [sp, #36]
 392:.\protocolo.c **** 				if(((rventa.manguera==(producto1&0x0F))&&(dir==a.dir))||((rventa.manguera==(producto1b&0x0F))&&
 1021              		.loc 1 392 0
 1022 012e 684B     		ldr	r3, .L594+20
 1023 0130 1B78     		ldrb	r3, [r3]	@ zero_extendqisi2
 1024 0132 03F00F03 		and	r3, r3, #15
 1025 0136 9942     		cmp	r1, r3
 1026 0138 03D1     		bne	.L87
 1027              		.loc 1 392 0 is_stmt 0 discriminator 1
 1028 013a 664B     		ldr	r3, .L594+24
 1029 013c 1B78     		ldrb	r3, [r3]	@ zero_extendqisi2
 1030 013e AB42     		cmp	r3, r5
 1031 0140 0BD0     		beq	.L88
 1032              	.L87:
 1033              		.loc 1 392 0 discriminator 3
 1034 0142 654B     		ldr	r3, .L594+28
 1035 0144 1B78     		ldrb	r3, [r3]	@ zero_extendqisi2
 1036 0146 03F00F03 		and	r3, r3, #15
 1037 014a 9942     		cmp	r1, r3
 1038 014c 40F0DC80 		bne	.L89
 1039              		.loc 1 392 0 discriminator 4
 1040 0150 624B     		ldr	r3, .L594+32
 1041 0152 1B78     		ldrb	r3, [r3]	@ zero_extendqisi2
 1042 0154 AB42     		cmp	r3, r5
 1043 0156 40F0D780 		bne	.L89
 1044              	.L88:
 393:.\protocolo.c **** 					for(x=0;x<=5;x++){									
 1045              		.loc 1 393 0 is_stmt 1
 1046 015a 0022     		movs	r2, #0
 1047 015c 594B     		ldr	r3, .L594+8
 1048 015e 1A60     		str	r2, [r3]
 1049 0160 08E0     		b	.L90
 1050              	.L91:
 394:.\protocolo.c **** 						write_psoc1(val,msn_tc[x]);
 1051              		.loc 1 394 0 discriminator 3
 1052 0162 2046     		mov	r0, r4
 1053 0164 5E4A     		ldr	r2, .L594+36
 1054 0166 D15C     		ldrb	r1, [r2, r3]	@ zero_extendqisi2
 1055 0168 FFF7FEFF 		bl	write_psoc1
ARM GAS  C:\Users\diego\AppData\Local\Temp\ccwBHTp3.s 			page 28


 1056              	.LVL117:
 393:.\protocolo.c **** 					for(x=0;x<=5;x++){									
 1057              		.loc 1 393 0 discriminator 3
 1058 016c 554A     		ldr	r2, .L594+8
 1059 016e 1368     		ldr	r3, [r2]
 1060 0170 0133     		adds	r3, r3, #1
 1061 0172 1360     		str	r3, [r2]
 1062              	.L90:
 393:.\protocolo.c **** 					for(x=0;x<=5;x++){									
 1063              		.loc 1 393 0 is_stmt 0 discriminator 1
 1064 0174 534B     		ldr	r3, .L594+8
 1065 0176 1B68     		ldr	r3, [r3]
 1066 0178 052B     		cmp	r3, #5
 1067 017a F2D9     		bls	.L91
 395:.\protocolo.c **** 					}
 396:.\protocolo.c **** 					write_psoc1(val,10);
 1068              		.loc 1 396 0 is_stmt 1
 1069 017c 2046     		mov	r0, r4
 1070 017e 0A21     		movs	r1, #10
 1071 0180 FFF7FEFF 		bl	write_psoc1
 1072              	.LVL118:
 397:.\protocolo.c ****                     for(x=0;x<=10;x++){									
 1073              		.loc 1 397 0
 1074 0184 0022     		movs	r2, #0
 1075 0186 4F4B     		ldr	r3, .L594+8
 1076 0188 1A60     		str	r2, [r3]
 1077 018a 08E0     		b	.L92
 1078              	.L93:
 398:.\protocolo.c **** 						write_psoc1(val,producto1n[x]);
 1079              		.loc 1 398 0 discriminator 3
 1080 018c 2046     		mov	r0, r4
 1081 018e 554A     		ldr	r2, .L594+40
 1082 0190 D15C     		ldrb	r1, [r2, r3]	@ zero_extendqisi2
 1083 0192 FFF7FEFF 		bl	write_psoc1
 1084              	.LVL119:
 397:.\protocolo.c ****                     for(x=0;x<=10;x++){									
 1085              		.loc 1 397 0 discriminator 3
 1086 0196 4B4A     		ldr	r2, .L594+8
 1087 0198 1368     		ldr	r3, [r2]
 1088 019a 0133     		adds	r3, r3, #1
 1089 019c 1360     		str	r3, [r2]
 1090              	.L92:
 397:.\protocolo.c ****                     for(x=0;x<=10;x++){									
 1091              		.loc 1 397 0 is_stmt 0 discriminator 1
 1092 019e 494B     		ldr	r3, .L594+8
 1093 01a0 1B68     		ldr	r3, [r3]
 1094 01a2 0A2B     		cmp	r3, #10
 1095 01a4 F2D9     		bls	.L93
 399:.\protocolo.c **** 					}
 400:.\protocolo.c ****                     write_psoc1(val,10);
 1096              		.loc 1 400 0 is_stmt 1
 1097 01a6 2046     		mov	r0, r4
 1098 01a8 0A21     		movs	r1, #10
 1099 01aa FFF7FEFF 		bl	write_psoc1
 1100              	.LVL120:
 401:.\protocolo.c **** 					for(x=0;x<=14;x++){									
 1101              		.loc 1 401 0
ARM GAS  C:\Users\diego\AppData\Local\Temp\ccwBHTp3.s 			page 29


 1102 01ae 0022     		movs	r2, #0
 1103 01b0 444B     		ldr	r3, .L594+8
 1104 01b2 1A60     		str	r2, [r3]
 1105 01b4 09E0     		b	.L94
 1106              	.L95:
 402:.\protocolo.c **** 						write_psoc1(val,msn_lecact[x]);				//LECTURA ACTUAL
 1107              		.loc 1 402 0 discriminator 3
 1108 01b6 4A4A     		ldr	r2, .L594+36
 1109 01b8 1344     		add	r3, r3, r2
 1110 01ba 2046     		mov	r0, r4
 1111 01bc 197A     		ldrb	r1, [r3, #8]	@ zero_extendqisi2
 1112 01be FFF7FEFF 		bl	write_psoc1
 1113              	.LVL121:
 401:.\protocolo.c **** 					for(x=0;x<=14;x++){									
 1114              		.loc 1 401 0 discriminator 3
 1115 01c2 404A     		ldr	r2, .L594+8
 1116 01c4 1368     		ldr	r3, [r2]
 1117 01c6 0133     		adds	r3, r3, #1
 1118 01c8 1360     		str	r3, [r2]
 1119              	.L94:
 401:.\protocolo.c **** 					for(x=0;x<=14;x++){									
 1120              		.loc 1 401 0 is_stmt 0 discriminator 1
 1121 01ca 3E4B     		ldr	r3, .L594+8
 1122 01cc 1B68     		ldr	r3, [r3]
 1123 01ce 0E2B     		cmp	r3, #14
 1124 01d0 F1D9     		bls	.L95
 403:.\protocolo.c **** 					}
 404:.\protocolo.c **** 					write_psoc1(val,10);
 1125              		.loc 1 404 0 is_stmt 1
 1126 01d2 2046     		mov	r0, r4
 1127 01d4 0A21     		movs	r1, #10
 1128 01d6 FFF7FEFF 		bl	write_psoc1
 1129              	.LVL122:
 405:.\protocolo.c **** 					print_totalesac(8,val);	
 1130              		.loc 1 405 0
 1131 01da 0820     		movs	r0, #8
 1132 01dc 2146     		mov	r1, r4
 1133 01de FFF7FEFF 		bl	print_totalesac
 1134              	.LVL123:
 406:.\protocolo.c **** 					for(x=0;x<=16;x++){												
 1135              		.loc 1 406 0
 1136 01e2 0022     		movs	r2, #0
 1137 01e4 374B     		ldr	r3, .L594+8
 1138 01e6 1A60     		str	r2, [r3]
 1139 01e8 09E0     		b	.L96
 1140              	.L97:
 407:.\protocolo.c **** 						write_psoc1(val,msn_lecaan[x]);				//LECTURA ANTERIOR
 1141              		.loc 1 407 0 discriminator 3
 1142 01ea 3D4A     		ldr	r2, .L594+36
 1143 01ec 1344     		add	r3, r3, r2
 1144 01ee 2046     		mov	r0, r4
 1145 01f0 197E     		ldrb	r1, [r3, #24]	@ zero_extendqisi2
 1146 01f2 FFF7FEFF 		bl	write_psoc1
 1147              	.LVL124:
 406:.\protocolo.c **** 					for(x=0;x<=16;x++){												
 1148              		.loc 1 406 0 discriminator 3
 1149 01f6 334A     		ldr	r2, .L594+8
ARM GAS  C:\Users\diego\AppData\Local\Temp\ccwBHTp3.s 			page 30


 1150 01f8 1368     		ldr	r3, [r2]
 1151 01fa 0133     		adds	r3, r3, #1
 1152 01fc 1360     		str	r3, [r2]
 1153              	.L96:
 406:.\protocolo.c **** 					for(x=0;x<=16;x++){												
 1154              		.loc 1 406 0 is_stmt 0 discriminator 1
 1155 01fe 314B     		ldr	r3, .L594+8
 1156 0200 1B68     		ldr	r3, [r3]
 1157 0202 102B     		cmp	r3, #16
 1158 0204 F1D9     		bls	.L97
 408:.\protocolo.c **** 					}
 409:.\protocolo.c **** 					write_psoc1(val,10);
 1159              		.loc 1 409 0 is_stmt 1
 1160 0206 2046     		mov	r0, r4
 1161 0208 0A21     		movs	r1, #10
 1162 020a FFF7FEFF 		bl	write_psoc1
 1163              	.LVL125:
 410:.\protocolo.c **** 					if(dir==a.dir){
 1164              		.loc 1 410 0
 1165 020e 314B     		ldr	r3, .L594+24
 1166 0210 1B78     		ldrb	r3, [r3]	@ zero_extendqisi2
 1167 0212 AB42     		cmp	r3, r5
 1168 0214 04D1     		bne	.L98
 411:.\protocolo.c **** 						leer_eeprom(192,25);
 1169              		.loc 1 411 0
 1170 0216 C020     		movs	r0, #192
 1171 0218 1921     		movs	r1, #25
 1172 021a FFF7FEFF 		bl	leer_eeprom
 1173              	.LVL126:
 1174 021e 04E0     		b	.L99
 1175              	.L98:
 412:.\protocolo.c **** 					}
 413:.\protocolo.c **** 					else{
 414:.\protocolo.c **** 						leer_eeprom(281,25);
 1176              		.loc 1 414 0
 1177 0220 40F21910 		movw	r0, #281
 1178 0224 1921     		movs	r1, #25
 1179 0226 FFF7FEFF 		bl	leer_eeprom
 1180              	.LVL127:
 1181              	.L99:
 415:.\protocolo.c **** 					}
 416:.\protocolo.c **** 					print_totales(val);
 1182              		.loc 1 416 0
 1183 022a 2046     		mov	r0, r4
 1184 022c FFF7FEFF 		bl	print_totales
 1185              	.LVL128:
 417:.\protocolo.c **** 					for(z=1;z<=8;z++){
 1186              		.loc 1 417 0
 1187 0230 0122     		movs	r2, #1
 1188 0232 254B     		ldr	r3, .L594+12
 1189 0234 1A60     		str	r2, [r3]
 1190 0236 10E0     		b	.L100
 1191              	.L101:
 418:.\protocolo.c **** 						minuendo[z]=rventa.tdinero[z-1];
 1192              		.loc 1 418 0 discriminator 3
 1193 0238 2B4A     		ldr	r2, .L594+44
 1194 023a 1A44     		add	r2, r2, r3
ARM GAS  C:\Users\diego\AppData\Local\Temp\ccwBHTp3.s 			page 31


 1195 023c 92F8CA10 		ldrb	r1, [r2, #202]	@ zero_extendqisi2
 1196 0240 10AA     		add	r2, sp, #64
 1197 0242 1A44     		add	r2, r2, r3
 1198 0244 02F82C1C 		strb	r1, [r2, #-44]
 419:.\protocolo.c **** 						sustraendo[z]=buffer_i2c[z+8];
 1199              		.loc 1 419 0 discriminator 3
 1200 0248 03F10801 		add	r1, r3, #8
 1201 024c 2748     		ldr	r0, .L594+48
 1202 024e 415C     		ldrb	r1, [r0, r1]	@ zero_extendqisi2
 1203 0250 02F83C1C 		strb	r1, [r2, #-60]
 417:.\protocolo.c **** 					for(z=1;z<=8;z++){
 1204              		.loc 1 417 0 discriminator 3
 1205 0254 0133     		adds	r3, r3, #1
 1206 0256 1C4A     		ldr	r2, .L594+12
 1207 0258 1360     		str	r3, [r2]
 1208              	.L100:
 417:.\protocolo.c **** 					for(z=1;z<=8;z++){
 1209              		.loc 1 417 0 is_stmt 0 discriminator 1
 1210 025a 1B4B     		ldr	r3, .L594+12
 1211 025c 1B68     		ldr	r3, [r3]
 1212 025e 082B     		cmp	r3, #8
 1213 0260 EAD9     		bls	.L101
 420:.\protocolo.c **** 					}
 421:.\protocolo.c **** 					minuendo[0]=8;
 1214              		.loc 1 421 0 is_stmt 1
 1215 0262 10A9     		add	r1, sp, #64
 1216 0264 0823     		movs	r3, #8
 1217 0266 01F82C3D 		strb	r3, [r1, #-44]!
 422:.\protocolo.c **** 					operacion(2,minuendo,sustraendo);
 1218              		.loc 1 422 0
 1219 026a 0220     		movs	r0, #2
 1220 026c 01AA     		add	r2, sp, #4
 1221 026e FFF7FEFF 		bl	operacion
 1222              	.LVL129:
 423:.\protocolo.c **** 					for(x=0;x<=17;x++){									
 1223              		.loc 1 423 0
 1224 0272 0022     		movs	r2, #0
 1225 0274 134B     		ldr	r3, .L594+8
 1226 0276 1A60     		str	r2, [r3]
 1227 0278 0AE0     		b	.L102
 1228              	.L103:
 424:.\protocolo.c **** 						write_psoc1(val,msn_tventas[x]);				//Total de ventas
 1229              		.loc 1 424 0 discriminator 3
 1230 027a 194A     		ldr	r2, .L594+36
 1231 027c 1344     		add	r3, r3, r2
 1232 027e 2046     		mov	r0, r4
 1233 0280 93F82C10 		ldrb	r1, [r3, #44]	@ zero_extendqisi2
 1234 0284 FFF7FEFF 		bl	write_psoc1
 1235              	.LVL130:
 423:.\protocolo.c **** 					for(x=0;x<=17;x++){									
 1236              		.loc 1 423 0 discriminator 3
 1237 0288 0E4A     		ldr	r2, .L594+8
 1238 028a 1368     		ldr	r3, [r2]
 1239 028c 0133     		adds	r3, r3, #1
 1240 028e 1360     		str	r3, [r2]
 1241              	.L102:
 423:.\protocolo.c **** 					for(x=0;x<=17;x++){									
ARM GAS  C:\Users\diego\AppData\Local\Temp\ccwBHTp3.s 			page 32


 1242              		.loc 1 423 0 is_stmt 0 discriminator 1
 1243 0290 0C4B     		ldr	r3, .L594+8
 1244 0292 1B68     		ldr	r3, [r3]
 1245 0294 112B     		cmp	r3, #17
 1246 0296 F0D9     		bls	.L103
 425:.\protocolo.c **** 					}
 426:.\protocolo.c **** 					print_valor(resultado,val);
 1247              		.loc 1 426 0 is_stmt 1
 1248 0298 1548     		ldr	r0, .L594+52
 1249 029a 2146     		mov	r1, r4
 1250 029c FFF7FEFF 		bl	print_valor
 1251              	.LVL131:
 427:.\protocolo.c **** 					if(dir==a.dir){
 1252              		.loc 1 427 0
 1253 02a0 0C4B     		ldr	r3, .L594+24
 1254 02a2 1B78     		ldrb	r3, [r3]	@ zero_extendqisi2
 1255 02a4 AB42     		cmp	r3, r5
 1256 02a6 25D1     		bne	.L104
 428:.\protocolo.c **** 						write_eeprom(192,corte);	
 1257              		.loc 1 428 0
 1258 02a8 C020     		movs	r0, #192
 1259 02aa 09A9     		add	r1, sp, #36
 1260 02ac FFF7FEFF 		bl	write_eeprom
 1261              	.LVL132:
 429:.\protocolo.c **** 						write_eeprom(512,resultado);
 1262              		.loc 1 429 0
 1263 02b0 4FF40070 		mov	r0, #512
 1264 02b4 0E49     		ldr	r1, .L594+52
 1265 02b6 FFF7FEFF 		bl	write_eeprom
 1266              	.LVL133:
 1267 02ba 25E0     		b	.L89
 1268              	.L595:
 1269              		.align	2
 1270              	.L594:
 1271 02bc 00000000 		.word	Surtidor_rxBuffer
 1272 02c0 00000000 		.word	rventa
 1273 02c4 00000000 		.word	x
 1274 02c8 00000000 		.word	z
 1275 02cc F7FFFFFF 		.word	rventa-9
 1276 02d0 00000000 		.word	producto1
 1277 02d4 00000000 		.word	a
 1278 02d8 00000000 		.word	producto1b
 1279 02dc 00000000 		.word	b
 1280 02e0 00000000 		.word	.LANCHOR1
 1281 02e4 00000000 		.word	producto1n
 1282 02e8 FFFFFFFF 		.word	rventa-1
 1283 02ec 00000000 		.word	buffer_i2c
 1284 02f0 00000000 		.word	resultado
 1285              	.L104:
 430:.\protocolo.c **** 					}
 431:.\protocolo.c **** 					else{
 432:.\protocolo.c **** 						write_eeprom(281,corte);
 1286              		.loc 1 432 0
 1287 02f4 40F21910 		movw	r0, #281
 1288 02f8 09A9     		add	r1, sp, #36
 1289 02fa FFF7FEFF 		bl	write_eeprom
 1290              	.LVL134:
ARM GAS  C:\Users\diego\AppData\Local\Temp\ccwBHTp3.s 			page 33


 433:.\protocolo.c **** 						write_eeprom(551,resultado);
 1291              		.loc 1 433 0
 1292 02fe 40F22720 		movw	r0, #551
 1293 0302 B049     		ldr	r1, .L596
 1294 0304 FFF7FEFF 		bl	write_eeprom
 1295              	.LVL135:
 1296              	.L89:
 434:.\protocolo.c **** 					}
 435:.\protocolo.c **** 				}
 436:.\protocolo.c **** 				if(((rventa.manguera==(producto2&0x0F))&&(dir==a.dir))||((rventa.manguera==(producto2b&0x0F))&&
 1297              		.loc 1 436 0
 1298 0308 AF4B     		ldr	r3, .L596+4
 1299 030a 93F8E020 		ldrb	r2, [r3, #224]	@ zero_extendqisi2
 1300 030e AF4B     		ldr	r3, .L596+8
 1301 0310 1B78     		ldrb	r3, [r3]	@ zero_extendqisi2
 1302 0312 03F00F03 		and	r3, r3, #15
 1303 0316 9342     		cmp	r3, r2
 1304 0318 03D1     		bne	.L105
 1305              		.loc 1 436 0 is_stmt 0 discriminator 1
 1306 031a AD4B     		ldr	r3, .L596+12
 1307 031c 1B78     		ldrb	r3, [r3]	@ zero_extendqisi2
 1308 031e AB42     		cmp	r3, r5
 1309 0320 0BD0     		beq	.L106
 1310              	.L105:
 1311              		.loc 1 436 0 discriminator 3
 1312 0322 AC4B     		ldr	r3, .L596+16
 1313 0324 1B78     		ldrb	r3, [r3]	@ zero_extendqisi2
 1314 0326 03F00F03 		and	r3, r3, #15
 1315 032a 9A42     		cmp	r2, r3
 1316 032c 40F0C080 		bne	.L107
 1317              		.loc 1 436 0 discriminator 4
 1318 0330 A94B     		ldr	r3, .L596+20
 1319 0332 1B78     		ldrb	r3, [r3]	@ zero_extendqisi2
 1320 0334 AB42     		cmp	r3, r5
 1321 0336 40F0BB80 		bne	.L107
 1322              	.L106:
 437:.\protocolo.c **** 					for(x=0;x<=5;x++){									
 1323              		.loc 1 437 0 is_stmt 1
 1324 033a 0022     		movs	r2, #0
 1325 033c A74B     		ldr	r3, .L596+24
 1326 033e 1A60     		str	r2, [r3]
 1327 0340 08E0     		b	.L108
 1328              	.L109:
 438:.\protocolo.c **** 						write_psoc1(val,msn_tc[x]);
 1329              		.loc 1 438 0 discriminator 3
 1330 0342 2046     		mov	r0, r4
 1331 0344 A64A     		ldr	r2, .L596+28
 1332 0346 D15C     		ldrb	r1, [r2, r3]	@ zero_extendqisi2
 1333 0348 FFF7FEFF 		bl	write_psoc1
 1334              	.LVL136:
 437:.\protocolo.c **** 					for(x=0;x<=5;x++){									
 1335              		.loc 1 437 0 discriminator 3
 1336 034c A34A     		ldr	r2, .L596+24
 1337 034e 1368     		ldr	r3, [r2]
 1338 0350 0133     		adds	r3, r3, #1
 1339 0352 1360     		str	r3, [r2]
 1340              	.L108:
ARM GAS  C:\Users\diego\AppData\Local\Temp\ccwBHTp3.s 			page 34


 437:.\protocolo.c **** 					for(x=0;x<=5;x++){									
 1341              		.loc 1 437 0 is_stmt 0 discriminator 1
 1342 0354 A14B     		ldr	r3, .L596+24
 1343 0356 1B68     		ldr	r3, [r3]
 1344 0358 052B     		cmp	r3, #5
 1345 035a F2D9     		bls	.L109
 439:.\protocolo.c **** 					}
 440:.\protocolo.c **** 					write_psoc1(val,10);
 1346              		.loc 1 440 0 is_stmt 1
 1347 035c 2046     		mov	r0, r4
 1348 035e 0A21     		movs	r1, #10
 1349 0360 FFF7FEFF 		bl	write_psoc1
 1350              	.LVL137:
 441:.\protocolo.c ****                     for(x=0;x<=10;x++){									
 1351              		.loc 1 441 0
 1352 0364 0022     		movs	r2, #0
 1353 0366 9D4B     		ldr	r3, .L596+24
 1354 0368 1A60     		str	r2, [r3]
 1355 036a 08E0     		b	.L110
 1356              	.L111:
 442:.\protocolo.c **** 						write_psoc1(val,producto2n[x]);
 1357              		.loc 1 442 0 discriminator 3
 1358 036c 2046     		mov	r0, r4
 1359 036e 9D4A     		ldr	r2, .L596+32
 1360 0370 D15C     		ldrb	r1, [r2, r3]	@ zero_extendqisi2
 1361 0372 FFF7FEFF 		bl	write_psoc1
 1362              	.LVL138:
 441:.\protocolo.c ****                     for(x=0;x<=10;x++){									
 1363              		.loc 1 441 0 discriminator 3
 1364 0376 994A     		ldr	r2, .L596+24
 1365 0378 1368     		ldr	r3, [r2]
 1366 037a 0133     		adds	r3, r3, #1
 1367 037c 1360     		str	r3, [r2]
 1368              	.L110:
 441:.\protocolo.c ****                     for(x=0;x<=10;x++){									
 1369              		.loc 1 441 0 is_stmt 0 discriminator 1
 1370 037e 974B     		ldr	r3, .L596+24
 1371 0380 1B68     		ldr	r3, [r3]
 1372 0382 0A2B     		cmp	r3, #10
 1373 0384 F2D9     		bls	.L111
 443:.\protocolo.c **** 					}                    
 444:.\protocolo.c **** 					write_psoc1(val,10);
 1374              		.loc 1 444 0 is_stmt 1
 1375 0386 2046     		mov	r0, r4
 1376 0388 0A21     		movs	r1, #10
 1377 038a FFF7FEFF 		bl	write_psoc1
 1378              	.LVL139:
 445:.\protocolo.c **** 					for(x=0;x<=14;x++){									
 1379              		.loc 1 445 0
 1380 038e 0022     		movs	r2, #0
 1381 0390 924B     		ldr	r3, .L596+24
 1382 0392 1A60     		str	r2, [r3]
 1383 0394 09E0     		b	.L112
 1384              	.L113:
 446:.\protocolo.c **** 						write_psoc1(val,msn_lecact[x]);				//LECTURA ACTUAL
 1385              		.loc 1 446 0 discriminator 3
 1386 0396 924A     		ldr	r2, .L596+28
ARM GAS  C:\Users\diego\AppData\Local\Temp\ccwBHTp3.s 			page 35


 1387 0398 1344     		add	r3, r3, r2
 1388 039a 2046     		mov	r0, r4
 1389 039c 197A     		ldrb	r1, [r3, #8]	@ zero_extendqisi2
 1390 039e FFF7FEFF 		bl	write_psoc1
 1391              	.LVL140:
 445:.\protocolo.c **** 					for(x=0;x<=14;x++){									
 1392              		.loc 1 445 0 discriminator 3
 1393 03a2 8E4A     		ldr	r2, .L596+24
 1394 03a4 1368     		ldr	r3, [r2]
 1395 03a6 0133     		adds	r3, r3, #1
 1396 03a8 1360     		str	r3, [r2]
 1397              	.L112:
 445:.\protocolo.c **** 					for(x=0;x<=14;x++){									
 1398              		.loc 1 445 0 is_stmt 0 discriminator 1
 1399 03aa 8C4B     		ldr	r3, .L596+24
 1400 03ac 1B68     		ldr	r3, [r3]
 1401 03ae 0E2B     		cmp	r3, #14
 1402 03b0 F1D9     		bls	.L113
 447:.\protocolo.c **** 					}
 448:.\protocolo.c **** 					write_psoc1(val,10);
 1403              		.loc 1 448 0 is_stmt 1
 1404 03b2 2046     		mov	r0, r4
 1405 03b4 0A21     		movs	r1, #10
 1406 03b6 FFF7FEFF 		bl	write_psoc1
 1407              	.LVL141:
 449:.\protocolo.c **** 					print_totalesac(8,val);	
 1408              		.loc 1 449 0
 1409 03ba 0820     		movs	r0, #8
 1410 03bc 2146     		mov	r1, r4
 1411 03be FFF7FEFF 		bl	print_totalesac
 1412              	.LVL142:
 450:.\protocolo.c **** 					for(x=0;x<=16;x++){												
 1413              		.loc 1 450 0
 1414 03c2 0022     		movs	r2, #0
 1415 03c4 854B     		ldr	r3, .L596+24
 1416 03c6 1A60     		str	r2, [r3]
 1417 03c8 09E0     		b	.L114
 1418              	.L115:
 451:.\protocolo.c **** 						write_psoc1(val,msn_lecaan[x]);				//LECTURA ANTERIOR
 1419              		.loc 1 451 0 discriminator 3
 1420 03ca 854A     		ldr	r2, .L596+28
 1421 03cc 1344     		add	r3, r3, r2
 1422 03ce 2046     		mov	r0, r4
 1423 03d0 197E     		ldrb	r1, [r3, #24]	@ zero_extendqisi2
 1424 03d2 FFF7FEFF 		bl	write_psoc1
 1425              	.LVL143:
 450:.\protocolo.c **** 					for(x=0;x<=16;x++){												
 1426              		.loc 1 450 0 discriminator 3
 1427 03d6 814A     		ldr	r2, .L596+24
 1428 03d8 1368     		ldr	r3, [r2]
 1429 03da 0133     		adds	r3, r3, #1
 1430 03dc 1360     		str	r3, [r2]
 1431              	.L114:
 450:.\protocolo.c **** 					for(x=0;x<=16;x++){												
 1432              		.loc 1 450 0 is_stmt 0 discriminator 1
 1433 03de 7F4B     		ldr	r3, .L596+24
 1434 03e0 1B68     		ldr	r3, [r3]
ARM GAS  C:\Users\diego\AppData\Local\Temp\ccwBHTp3.s 			page 36


 1435 03e2 102B     		cmp	r3, #16
 1436 03e4 F1D9     		bls	.L115
 452:.\protocolo.c **** 					}
 453:.\protocolo.c **** 					write_psoc1(val,10);
 1437              		.loc 1 453 0 is_stmt 1
 1438 03e6 2046     		mov	r0, r4
 1439 03e8 0A21     		movs	r1, #10
 1440 03ea FFF7FEFF 		bl	write_psoc1
 1441              	.LVL144:
 454:.\protocolo.c **** 					if(dir==a.dir){
 1442              		.loc 1 454 0
 1443 03ee 784B     		ldr	r3, .L596+12
 1444 03f0 1B78     		ldrb	r3, [r3]	@ zero_extendqisi2
 1445 03f2 AB42     		cmp	r3, r5
 1446 03f4 04D1     		bne	.L116
 455:.\protocolo.c **** 						leer_eeprom(217,25);
 1447              		.loc 1 455 0
 1448 03f6 D920     		movs	r0, #217
 1449 03f8 1921     		movs	r1, #25
 1450 03fa FFF7FEFF 		bl	leer_eeprom
 1451              	.LVL145:
 1452 03fe 04E0     		b	.L117
 1453              	.L116:
 456:.\protocolo.c **** 					}
 457:.\protocolo.c **** 					else{
 458:.\protocolo.c **** 						leer_eeprom(320,25);
 1454              		.loc 1 458 0
 1455 0400 4FF4A070 		mov	r0, #320
 1456 0404 1921     		movs	r1, #25
 1457 0406 FFF7FEFF 		bl	leer_eeprom
 1458              	.LVL146:
 1459              	.L117:
 459:.\protocolo.c **** 					}
 460:.\protocolo.c **** 					print_totales(val);
 1460              		.loc 1 460 0
 1461 040a 2046     		mov	r0, r4
 1462 040c FFF7FEFF 		bl	print_totales
 1463              	.LVL147:
 461:.\protocolo.c **** 					for(z=1;z<=8;z++){
 1464              		.loc 1 461 0
 1465 0410 0122     		movs	r2, #1
 1466 0412 754B     		ldr	r3, .L596+36
 1467 0414 1A60     		str	r2, [r3]
 1468 0416 10E0     		b	.L118
 1469              	.L119:
 462:.\protocolo.c **** 						minuendo[z]=rventa.tdinero[z-1];
 1470              		.loc 1 462 0 discriminator 3
 1471 0418 744A     		ldr	r2, .L596+40
 1472 041a 1A44     		add	r2, r2, r3
 1473 041c 92F8CA10 		ldrb	r1, [r2, #202]	@ zero_extendqisi2
 1474 0420 10AA     		add	r2, sp, #64
 1475 0422 1A44     		add	r2, r2, r3
 1476 0424 02F82C1C 		strb	r1, [r2, #-44]
 463:.\protocolo.c **** 						sustraendo[z]=buffer_i2c[z+8];
 1477              		.loc 1 463 0 discriminator 3
 1478 0428 03F10801 		add	r1, r3, #8
 1479 042c 7048     		ldr	r0, .L596+44
ARM GAS  C:\Users\diego\AppData\Local\Temp\ccwBHTp3.s 			page 37


 1480 042e 415C     		ldrb	r1, [r0, r1]	@ zero_extendqisi2
 1481 0430 02F83C1C 		strb	r1, [r2, #-60]
 461:.\protocolo.c **** 					for(z=1;z<=8;z++){
 1482              		.loc 1 461 0 discriminator 3
 1483 0434 0133     		adds	r3, r3, #1
 1484 0436 6C4A     		ldr	r2, .L596+36
 1485 0438 1360     		str	r3, [r2]
 1486              	.L118:
 461:.\protocolo.c **** 					for(z=1;z<=8;z++){
 1487              		.loc 1 461 0 is_stmt 0 discriminator 1
 1488 043a 6B4B     		ldr	r3, .L596+36
 1489 043c 1B68     		ldr	r3, [r3]
 1490 043e 082B     		cmp	r3, #8
 1491 0440 EAD9     		bls	.L119
 464:.\protocolo.c **** 					}
 465:.\protocolo.c **** 					minuendo[0]=8;
 1492              		.loc 1 465 0 is_stmt 1
 1493 0442 10A9     		add	r1, sp, #64
 1494 0444 0823     		movs	r3, #8
 1495 0446 01F82C3D 		strb	r3, [r1, #-44]!
 466:.\protocolo.c **** 					operacion(2,minuendo,sustraendo);
 1496              		.loc 1 466 0
 1497 044a 0220     		movs	r0, #2
 1498 044c 01AA     		add	r2, sp, #4
 1499 044e FFF7FEFF 		bl	operacion
 1500              	.LVL148:
 467:.\protocolo.c **** 					for(x=0;x<=17;x++){									
 1501              		.loc 1 467 0
 1502 0452 0022     		movs	r2, #0
 1503 0454 614B     		ldr	r3, .L596+24
 1504 0456 1A60     		str	r2, [r3]
 1505 0458 0AE0     		b	.L120
 1506              	.L121:
 468:.\protocolo.c **** 						write_psoc1(val,msn_tventas[x]);				//Total de ventas
 1507              		.loc 1 468 0 discriminator 3
 1508 045a 614A     		ldr	r2, .L596+28
 1509 045c 1344     		add	r3, r3, r2
 1510 045e 2046     		mov	r0, r4
 1511 0460 93F82C10 		ldrb	r1, [r3, #44]	@ zero_extendqisi2
 1512 0464 FFF7FEFF 		bl	write_psoc1
 1513              	.LVL149:
 467:.\protocolo.c **** 					for(x=0;x<=17;x++){									
 1514              		.loc 1 467 0 discriminator 3
 1515 0468 5C4A     		ldr	r2, .L596+24
 1516 046a 1368     		ldr	r3, [r2]
 1517 046c 0133     		adds	r3, r3, #1
 1518 046e 1360     		str	r3, [r2]
 1519              	.L120:
 467:.\protocolo.c **** 					for(x=0;x<=17;x++){									
 1520              		.loc 1 467 0 is_stmt 0 discriminator 1
 1521 0470 5A4B     		ldr	r3, .L596+24
 1522 0472 1B68     		ldr	r3, [r3]
 1523 0474 112B     		cmp	r3, #17
 1524 0476 F0D9     		bls	.L121
 469:.\protocolo.c **** 					}
 470:.\protocolo.c **** 					print_valor(resultado,val);				
 1525              		.loc 1 470 0 is_stmt 1
ARM GAS  C:\Users\diego\AppData\Local\Temp\ccwBHTp3.s 			page 38


 1526 0478 5248     		ldr	r0, .L596
 1527 047a 2146     		mov	r1, r4
 1528 047c FFF7FEFF 		bl	print_valor
 1529              	.LVL150:
 471:.\protocolo.c **** 					if(dir==a.dir){
 1530              		.loc 1 471 0
 1531 0480 534B     		ldr	r3, .L596+12
 1532 0482 1B78     		ldrb	r3, [r3]	@ zero_extendqisi2
 1533 0484 AB42     		cmp	r3, r5
 1534 0486 09D1     		bne	.L122
 472:.\protocolo.c **** 						write_eeprom(217,corte);
 1535              		.loc 1 472 0
 1536 0488 D920     		movs	r0, #217
 1537 048a 09A9     		add	r1, sp, #36
 1538 048c FFF7FEFF 		bl	write_eeprom
 1539              	.LVL151:
 473:.\protocolo.c **** 						write_eeprom(538,resultado);
 1540              		.loc 1 473 0
 1541 0490 40F21A20 		movw	r0, #538
 1542 0494 4B49     		ldr	r1, .L596
 1543 0496 FFF7FEFF 		bl	write_eeprom
 1544              	.LVL152:
 1545 049a 09E0     		b	.L107
 1546              	.L122:
 474:.\protocolo.c **** 					}
 475:.\protocolo.c **** 					else{
 476:.\protocolo.c **** 						write_eeprom(320,corte);
 1547              		.loc 1 476 0
 1548 049c 4FF4A070 		mov	r0, #320
 1549 04a0 09A9     		add	r1, sp, #36
 1550 04a2 FFF7FEFF 		bl	write_eeprom
 1551              	.LVL153:
 477:.\protocolo.c **** 						write_eeprom(576,resultado);
 1552              		.loc 1 477 0
 1553 04a6 4FF41070 		mov	r0, #576
 1554 04aa 4649     		ldr	r1, .L596
 1555 04ac FFF7FEFF 		bl	write_eeprom
 1556              	.LVL154:
 1557              	.L107:
 478:.\protocolo.c **** 					}				
 479:.\protocolo.c **** 				}
 480:.\protocolo.c **** 				if(((rventa.manguera==(producto3&0x0F))&&(dir==a.dir))||((rventa.manguera==(producto3b&0x0F))&&
 1558              		.loc 1 480 0
 1559 04b0 454B     		ldr	r3, .L596+4
 1560 04b2 93F8E020 		ldrb	r2, [r3, #224]	@ zero_extendqisi2
 1561 04b6 4F4B     		ldr	r3, .L596+48
 1562 04b8 1B78     		ldrb	r3, [r3]	@ zero_extendqisi2
 1563 04ba 03F00F03 		and	r3, r3, #15
 1564 04be 9342     		cmp	r3, r2
 1565 04c0 03D1     		bne	.L123
 1566              		.loc 1 480 0 is_stmt 0 discriminator 1
 1567 04c2 434B     		ldr	r3, .L596+12
 1568 04c4 1B78     		ldrb	r3, [r3]	@ zero_extendqisi2
 1569 04c6 AB42     		cmp	r3, r5
 1570 04c8 0BD0     		beq	.L124
 1571              	.L123:
 1572              		.loc 1 480 0 discriminator 3
ARM GAS  C:\Users\diego\AppData\Local\Temp\ccwBHTp3.s 			page 39


 1573 04ca 4B4B     		ldr	r3, .L596+52
 1574 04cc 1B78     		ldrb	r3, [r3]	@ zero_extendqisi2
 1575 04ce 03F00F03 		and	r3, r3, #15
 1576 04d2 9A42     		cmp	r2, r3
 1577 04d4 40F0E180 		bne	.L125
 1578              		.loc 1 480 0 discriminator 4
 1579 04d8 3F4B     		ldr	r3, .L596+20
 1580 04da 1B78     		ldrb	r3, [r3]	@ zero_extendqisi2
 1581 04dc AB42     		cmp	r3, r5
 1582 04de 40F0DC80 		bne	.L125
 1583              	.L124:
 481:.\protocolo.c **** 					for(x=0;x<=5;x++){									
 1584              		.loc 1 481 0 is_stmt 1
 1585 04e2 0022     		movs	r2, #0
 1586 04e4 3D4B     		ldr	r3, .L596+24
 1587 04e6 1A60     		str	r2, [r3]
 1588 04e8 08E0     		b	.L126
 1589              	.L127:
 482:.\protocolo.c **** 						    write_psoc1(val,msn_tc[x]);
 1590              		.loc 1 482 0 discriminator 3
 1591 04ea 2046     		mov	r0, r4
 1592 04ec 3C4A     		ldr	r2, .L596+28
 1593 04ee D15C     		ldrb	r1, [r2, r3]	@ zero_extendqisi2
 1594 04f0 FFF7FEFF 		bl	write_psoc1
 1595              	.LVL155:
 481:.\protocolo.c **** 					for(x=0;x<=5;x++){									
 1596              		.loc 1 481 0 discriminator 3
 1597 04f4 394A     		ldr	r2, .L596+24
 1598 04f6 1368     		ldr	r3, [r2]
 1599 04f8 0133     		adds	r3, r3, #1
 1600 04fa 1360     		str	r3, [r2]
 1601              	.L126:
 481:.\protocolo.c **** 					for(x=0;x<=5;x++){									
 1602              		.loc 1 481 0 is_stmt 0 discriminator 1
 1603 04fc 374B     		ldr	r3, .L596+24
 1604 04fe 1B68     		ldr	r3, [r3]
 1605 0500 052B     		cmp	r3, #5
 1606 0502 F2D9     		bls	.L127
 483:.\protocolo.c **** 					    }
 484:.\protocolo.c **** 					    write_psoc1(val,10);
 1607              		.loc 1 484 0 is_stmt 1
 1608 0504 2046     		mov	r0, r4
 1609 0506 0A21     		movs	r1, #10
 1610 0508 FFF7FEFF 		bl	write_psoc1
 1611              	.LVL156:
 485:.\protocolo.c ****                     for(x=0;x<=10;x++){									
 1612              		.loc 1 485 0
 1613 050c 0022     		movs	r2, #0
 1614 050e 334B     		ldr	r3, .L596+24
 1615 0510 1A60     		str	r2, [r3]
 1616 0512 08E0     		b	.L128
 1617              	.L129:
 486:.\protocolo.c **** 						    write_psoc1(val,producto3n[x]);
 1618              		.loc 1 486 0 discriminator 3
 1619 0514 2046     		mov	r0, r4
 1620 0516 394A     		ldr	r2, .L596+56
 1621 0518 D15C     		ldrb	r1, [r2, r3]	@ zero_extendqisi2
ARM GAS  C:\Users\diego\AppData\Local\Temp\ccwBHTp3.s 			page 40


 1622 051a FFF7FEFF 		bl	write_psoc1
 1623              	.LVL157:
 485:.\protocolo.c ****                     for(x=0;x<=10;x++){									
 1624              		.loc 1 485 0 discriminator 3
 1625 051e 2F4A     		ldr	r2, .L596+24
 1626 0520 1368     		ldr	r3, [r2]
 1627 0522 0133     		adds	r3, r3, #1
 1628 0524 1360     		str	r3, [r2]
 1629              	.L128:
 485:.\protocolo.c ****                     for(x=0;x<=10;x++){									
 1630              		.loc 1 485 0 is_stmt 0 discriminator 1
 1631 0526 2D4B     		ldr	r3, .L596+24
 1632 0528 1B68     		ldr	r3, [r3]
 1633 052a 0A2B     		cmp	r3, #10
 1634 052c F2D9     		bls	.L129
 487:.\protocolo.c **** 					    }
 488:.\protocolo.c ****                     write_psoc1(val,10);
 1635              		.loc 1 488 0 is_stmt 1
 1636 052e 2046     		mov	r0, r4
 1637 0530 0A21     		movs	r1, #10
 1638 0532 FFF7FEFF 		bl	write_psoc1
 1639              	.LVL158:
 489:.\protocolo.c **** 					for(x=0;x<=14;x++){									
 1640              		.loc 1 489 0
 1641 0536 0022     		movs	r2, #0
 1642 0538 284B     		ldr	r3, .L596+24
 1643 053a 1A60     		str	r2, [r3]
 1644 053c 09E0     		b	.L130
 1645              	.L131:
 490:.\protocolo.c **** 						write_psoc1(val,msn_lecact[x]);				//LECTURA ACTUAL
 1646              		.loc 1 490 0 discriminator 3
 1647 053e 284A     		ldr	r2, .L596+28
 1648 0540 1344     		add	r3, r3, r2
 1649 0542 2046     		mov	r0, r4
 1650 0544 197A     		ldrb	r1, [r3, #8]	@ zero_extendqisi2
 1651 0546 FFF7FEFF 		bl	write_psoc1
 1652              	.LVL159:
 489:.\protocolo.c **** 					for(x=0;x<=14;x++){									
 1653              		.loc 1 489 0 discriminator 3
 1654 054a 244A     		ldr	r2, .L596+24
 1655 054c 1368     		ldr	r3, [r2]
 1656 054e 0133     		adds	r3, r3, #1
 1657 0550 1360     		str	r3, [r2]
 1658              	.L130:
 489:.\protocolo.c **** 					for(x=0;x<=14;x++){									
 1659              		.loc 1 489 0 is_stmt 0 discriminator 1
 1660 0552 224B     		ldr	r3, .L596+24
 1661 0554 1B68     		ldr	r3, [r3]
 1662 0556 0E2B     		cmp	r3, #14
 1663 0558 F1D9     		bls	.L131
 491:.\protocolo.c **** 					}
 492:.\protocolo.c **** 					write_psoc1(val,10);
 1664              		.loc 1 492 0 is_stmt 1
 1665 055a 2046     		mov	r0, r4
 1666 055c 0A21     		movs	r1, #10
 1667 055e FFF7FEFF 		bl	write_psoc1
 1668              	.LVL160:
ARM GAS  C:\Users\diego\AppData\Local\Temp\ccwBHTp3.s 			page 41


 493:.\protocolo.c **** 					print_totalesac(8,val);	
 1669              		.loc 1 493 0
 1670 0562 0820     		movs	r0, #8
 1671 0564 2146     		mov	r1, r4
 1672 0566 FFF7FEFF 		bl	print_totalesac
 1673              	.LVL161:
 494:.\protocolo.c **** 					for(x=0;x<=16;x++){												
 1674              		.loc 1 494 0
 1675 056a 0022     		movs	r2, #0
 1676 056c 1B4B     		ldr	r3, .L596+24
 1677 056e 1A60     		str	r2, [r3]
 1678 0570 09E0     		b	.L132
 1679              	.L133:
 495:.\protocolo.c **** 						write_psoc1(val,msn_lecaan[x]);				//LECTURA ANTERIOR
 1680              		.loc 1 495 0 discriminator 3
 1681 0572 1B4A     		ldr	r2, .L596+28
 1682 0574 1344     		add	r3, r3, r2
 1683 0576 2046     		mov	r0, r4
 1684 0578 197E     		ldrb	r1, [r3, #24]	@ zero_extendqisi2
 1685 057a FFF7FEFF 		bl	write_psoc1
 1686              	.LVL162:
 494:.\protocolo.c **** 					for(x=0;x<=16;x++){												
 1687              		.loc 1 494 0 discriminator 3
 1688 057e 174A     		ldr	r2, .L596+24
 1689 0580 1368     		ldr	r3, [r2]
 1690 0582 0133     		adds	r3, r3, #1
 1691 0584 1360     		str	r3, [r2]
 1692              	.L132:
 494:.\protocolo.c **** 					for(x=0;x<=16;x++){												
 1693              		.loc 1 494 0 is_stmt 0 discriminator 1
 1694 0586 154B     		ldr	r3, .L596+24
 1695 0588 1B68     		ldr	r3, [r3]
 1696 058a 102B     		cmp	r3, #16
 1697 058c F1D9     		bls	.L133
 496:.\protocolo.c **** 					}
 497:.\protocolo.c **** 					write_psoc1(val,10);
 1698              		.loc 1 497 0 is_stmt 1
 1699 058e 2046     		mov	r0, r4
 1700 0590 0A21     		movs	r1, #10
 1701 0592 FFF7FEFF 		bl	write_psoc1
 1702              	.LVL163:
 498:.\protocolo.c **** 					if(dir==a.dir){
 1703              		.loc 1 498 0
 1704 0596 0E4B     		ldr	r3, .L596+12
 1705 0598 1B78     		ldrb	r3, [r3]	@ zero_extendqisi2
 1706 059a AB42     		cmp	r3, r5
 1707 059c 05D1     		bne	.L134
 499:.\protocolo.c **** 						leer_eeprom(256,25);
 1708              		.loc 1 499 0
 1709 059e 4FF48070 		mov	r0, #256
 1710 05a2 1921     		movs	r1, #25
 1711 05a4 FFF7FEFF 		bl	leer_eeprom
 1712              	.LVL164:
 1713 05a8 04E0     		b	.L135
 1714              	.L134:
 500:.\protocolo.c **** 					}
 501:.\protocolo.c **** 					else{
ARM GAS  C:\Users\diego\AppData\Local\Temp\ccwBHTp3.s 			page 42


 502:.\protocolo.c **** 						leer_eeprom(345,25);
 1715              		.loc 1 502 0
 1716 05aa 40F25910 		movw	r0, #345
 1717 05ae 1921     		movs	r1, #25
 1718 05b0 FFF7FEFF 		bl	leer_eeprom
 1719              	.LVL165:
 1720              	.L135:
 503:.\protocolo.c **** 					}
 504:.\protocolo.c **** 					print_totales(val);
 1721              		.loc 1 504 0
 1722 05b4 2046     		mov	r0, r4
 1723 05b6 FFF7FEFF 		bl	print_totales
 1724              	.LVL166:
 505:.\protocolo.c **** 					for(z=1;z<=8;z++){
 1725              		.loc 1 505 0
 1726 05ba 0122     		movs	r2, #1
 1727 05bc 0A4B     		ldr	r3, .L596+36
 1728 05be 1A60     		str	r2, [r3]
 1729 05c0 2FE0     		b	.L136
 1730              	.L597:
 1731 05c2 00BF     		.align	2
 1732              	.L596:
 1733 05c4 00000000 		.word	resultado
 1734 05c8 00000000 		.word	rventa
 1735 05cc 00000000 		.word	producto2
 1736 05d0 00000000 		.word	a
 1737 05d4 00000000 		.word	producto2b
 1738 05d8 00000000 		.word	b
 1739 05dc 00000000 		.word	x
 1740 05e0 00000000 		.word	.LANCHOR1
 1741 05e4 00000000 		.word	producto2n
 1742 05e8 00000000 		.word	z
 1743 05ec FFFFFFFF 		.word	rventa-1
 1744 05f0 00000000 		.word	buffer_i2c
 1745 05f4 00000000 		.word	producto3
 1746 05f8 00000000 		.word	producto3b
 1747 05fc 00000000 		.word	producto3n
 1748              	.L137:
 506:.\protocolo.c **** 						minuendo[z]=rventa.tdinero[z-1];
 1749              		.loc 1 506 0 discriminator 3
 1750 0600 A94A     		ldr	r2, .L598
 1751 0602 1A44     		add	r2, r2, r3
 1752 0604 92F8CA10 		ldrb	r1, [r2, #202]	@ zero_extendqisi2
 1753 0608 10AA     		add	r2, sp, #64
 1754 060a 1A44     		add	r2, r2, r3
 1755 060c 02F82C1C 		strb	r1, [r2, #-44]
 507:.\protocolo.c **** 						sustraendo[z]=buffer_i2c[z+8];
 1756              		.loc 1 507 0 discriminator 3
 1757 0610 03F10801 		add	r1, r3, #8
 1758 0614 A548     		ldr	r0, .L598+4
 1759 0616 415C     		ldrb	r1, [r0, r1]	@ zero_extendqisi2
 1760 0618 02F83C1C 		strb	r1, [r2, #-60]
 505:.\protocolo.c **** 					for(z=1;z<=8;z++){
 1761              		.loc 1 505 0 discriminator 3
 1762 061c 0133     		adds	r3, r3, #1
 1763 061e A44A     		ldr	r2, .L598+8
 1764 0620 1360     		str	r3, [r2]
ARM GAS  C:\Users\diego\AppData\Local\Temp\ccwBHTp3.s 			page 43


 1765              	.L136:
 505:.\protocolo.c **** 					for(z=1;z<=8;z++){
 1766              		.loc 1 505 0 is_stmt 0 discriminator 1
 1767 0622 A34B     		ldr	r3, .L598+8
 1768 0624 1B68     		ldr	r3, [r3]
 1769 0626 082B     		cmp	r3, #8
 1770 0628 EAD9     		bls	.L137
 508:.\protocolo.c **** 					}
 509:.\protocolo.c **** 					minuendo[0]=8;
 1771              		.loc 1 509 0 is_stmt 1
 1772 062a 10A9     		add	r1, sp, #64
 1773 062c 0823     		movs	r3, #8
 1774 062e 01F82C3D 		strb	r3, [r1, #-44]!
 510:.\protocolo.c **** 					operacion(2,minuendo,sustraendo);
 1775              		.loc 1 510 0
 1776 0632 0220     		movs	r0, #2
 1777 0634 01AA     		add	r2, sp, #4
 1778 0636 FFF7FEFF 		bl	operacion
 1779              	.LVL167:
 511:.\protocolo.c **** 					for(x=0;x<=17;x++){									
 1780              		.loc 1 511 0
 1781 063a 0022     		movs	r2, #0
 1782 063c 9D4B     		ldr	r3, .L598+12
 1783 063e 1A60     		str	r2, [r3]
 1784 0640 0AE0     		b	.L138
 1785              	.L139:
 512:.\protocolo.c **** 						write_psoc1(val,msn_tventas[x]);				//Total de ventas
 1786              		.loc 1 512 0 discriminator 3
 1787 0642 9D4A     		ldr	r2, .L598+16
 1788 0644 1344     		add	r3, r3, r2
 1789 0646 2046     		mov	r0, r4
 1790 0648 93F82C10 		ldrb	r1, [r3, #44]	@ zero_extendqisi2
 1791 064c FFF7FEFF 		bl	write_psoc1
 1792              	.LVL168:
 511:.\protocolo.c **** 					for(x=0;x<=17;x++){									
 1793              		.loc 1 511 0 discriminator 3
 1794 0650 984A     		ldr	r2, .L598+12
 1795 0652 1368     		ldr	r3, [r2]
 1796 0654 0133     		adds	r3, r3, #1
 1797 0656 1360     		str	r3, [r2]
 1798              	.L138:
 511:.\protocolo.c **** 					for(x=0;x<=17;x++){									
 1799              		.loc 1 511 0 is_stmt 0 discriminator 1
 1800 0658 964B     		ldr	r3, .L598+12
 1801 065a 1B68     		ldr	r3, [r3]
 1802 065c 112B     		cmp	r3, #17
 1803 065e F0D9     		bls	.L139
 513:.\protocolo.c **** 					}
 514:.\protocolo.c **** 					print_valor(resultado,val);							
 1804              		.loc 1 514 0 is_stmt 1
 1805 0660 9648     		ldr	r0, .L598+20
 1806 0662 2146     		mov	r1, r4
 1807 0664 FFF7FEFF 		bl	print_valor
 1808              	.LVL169:
 515:.\protocolo.c **** 					if(dir==a.dir){
 1809              		.loc 1 515 0
 1810 0668 954B     		ldr	r3, .L598+24
ARM GAS  C:\Users\diego\AppData\Local\Temp\ccwBHTp3.s 			page 44


 1811 066a 1B78     		ldrb	r3, [r3]	@ zero_extendqisi2
 1812 066c AB42     		cmp	r3, r5
 1813 066e 0AD1     		bne	.L140
 516:.\protocolo.c **** 						write_eeprom(256,corte);
 1814              		.loc 1 516 0
 1815 0670 4FF48070 		mov	r0, #256
 1816 0674 09A9     		add	r1, sp, #36
 1817 0676 FFF7FEFF 		bl	write_eeprom
 1818              	.LVL170:
 517:.\protocolo.c **** 						write_eeprom(525,resultado);
 1819              		.loc 1 517 0
 1820 067a 40F20D20 		movw	r0, #525
 1821 067e 8F49     		ldr	r1, .L598+20
 1822 0680 FFF7FEFF 		bl	write_eeprom
 1823              	.LVL171:
 1824 0684 09E0     		b	.L125
 1825              	.L140:
 518:.\protocolo.c **** 					}
 519:.\protocolo.c **** 					else{
 520:.\protocolo.c **** 						write_eeprom(345,corte);
 1826              		.loc 1 520 0
 1827 0686 40F25910 		movw	r0, #345
 1828 068a 09A9     		add	r1, sp, #36
 1829 068c FFF7FEFF 		bl	write_eeprom
 1830              	.LVL172:
 521:.\protocolo.c **** 						write_eeprom(589,resultado);
 1831              		.loc 1 521 0
 1832 0690 40F24D20 		movw	r0, #589
 1833 0694 8949     		ldr	r1, .L598+20
 1834 0696 FFF7FEFF 		bl	write_eeprom
 1835              	.LVL173:
 1836              	.L125:
 522:.\protocolo.c **** 					}					
 523:.\protocolo.c **** 				}
 524:.\protocolo.c ****                 
 525:.\protocolo.c ****                 if(((rventa.manguera==(producto4&0x0F))&&(dir==a.dir))||((rventa.manguera==(product
 1837              		.loc 1 525 0
 1838 069a 8A4B     		ldr	r3, .L598+28
 1839 069c 93F8E020 		ldrb	r2, [r3, #224]	@ zero_extendqisi2
 1840 06a0 894B     		ldr	r3, .L598+32
 1841 06a2 1B78     		ldrb	r3, [r3]	@ zero_extendqisi2
 1842 06a4 03F00F03 		and	r3, r3, #15
 1843 06a8 9342     		cmp	r3, r2
 1844 06aa 03D1     		bne	.L141
 1845              		.loc 1 525 0 is_stmt 0 discriminator 1
 1846 06ac 844B     		ldr	r3, .L598+24
 1847 06ae 1B78     		ldrb	r3, [r3]	@ zero_extendqisi2
 1848 06b0 AB42     		cmp	r3, r5
 1849 06b2 0BD0     		beq	.L142
 1850              	.L141:
 1851              		.loc 1 525 0 discriminator 3
 1852 06b4 854B     		ldr	r3, .L598+36
 1853 06b6 1B78     		ldrb	r3, [r3]	@ zero_extendqisi2
 1854 06b8 03F00F03 		and	r3, r3, #15
 1855 06bc 9A42     		cmp	r2, r3
 1856 06be 40F0C280 		bne	.L143
 1857              		.loc 1 525 0 discriminator 4
ARM GAS  C:\Users\diego\AppData\Local\Temp\ccwBHTp3.s 			page 45


 1858 06c2 834B     		ldr	r3, .L598+40
 1859 06c4 1B78     		ldrb	r3, [r3]	@ zero_extendqisi2
 1860 06c6 AB42     		cmp	r3, r5
 1861 06c8 40F0BD80 		bne	.L143
 1862              	.L142:
 526:.\protocolo.c **** 					for(x=0;x<=5;x++){									
 1863              		.loc 1 526 0 is_stmt 1
 1864 06cc 0022     		movs	r2, #0
 1865 06ce 794B     		ldr	r3, .L598+12
 1866 06d0 1A60     		str	r2, [r3]
 1867 06d2 08E0     		b	.L144
 1868              	.L145:
 527:.\protocolo.c **** 						    write_psoc1(val,msn_tc[x]);
 1869              		.loc 1 527 0 discriminator 3
 1870 06d4 2046     		mov	r0, r4
 1871 06d6 784A     		ldr	r2, .L598+16
 1872 06d8 D15C     		ldrb	r1, [r2, r3]	@ zero_extendqisi2
 1873 06da FFF7FEFF 		bl	write_psoc1
 1874              	.LVL174:
 526:.\protocolo.c **** 					for(x=0;x<=5;x++){									
 1875              		.loc 1 526 0 discriminator 3
 1876 06de 754A     		ldr	r2, .L598+12
 1877 06e0 1368     		ldr	r3, [r2]
 1878 06e2 0133     		adds	r3, r3, #1
 1879 06e4 1360     		str	r3, [r2]
 1880              	.L144:
 526:.\protocolo.c **** 					for(x=0;x<=5;x++){									
 1881              		.loc 1 526 0 is_stmt 0 discriminator 1
 1882 06e6 734B     		ldr	r3, .L598+12
 1883 06e8 1B68     		ldr	r3, [r3]
 1884 06ea 052B     		cmp	r3, #5
 1885 06ec F2D9     		bls	.L145
 528:.\protocolo.c **** 					    }
 529:.\protocolo.c **** 					    write_psoc1(val,10);
 1886              		.loc 1 529 0 is_stmt 1
 1887 06ee 2046     		mov	r0, r4
 1888 06f0 0A21     		movs	r1, #10
 1889 06f2 FFF7FEFF 		bl	write_psoc1
 1890              	.LVL175:
 530:.\protocolo.c ****                     for(x=0;x<=10;x++){									
 1891              		.loc 1 530 0
 1892 06f6 0022     		movs	r2, #0
 1893 06f8 6E4B     		ldr	r3, .L598+12
 1894 06fa 1A60     		str	r2, [r3]
 1895 06fc 08E0     		b	.L146
 1896              	.L147:
 531:.\protocolo.c **** 						    write_psoc1(val,producto4n[x]);
 1897              		.loc 1 531 0 discriminator 3
 1898 06fe 2046     		mov	r0, r4
 1899 0700 744A     		ldr	r2, .L598+44
 1900 0702 D15C     		ldrb	r1, [r2, r3]	@ zero_extendqisi2
 1901 0704 FFF7FEFF 		bl	write_psoc1
 1902              	.LVL176:
 530:.\protocolo.c ****                     for(x=0;x<=10;x++){									
 1903              		.loc 1 530 0 discriminator 3
 1904 0708 6A4A     		ldr	r2, .L598+12
 1905 070a 1368     		ldr	r3, [r2]
ARM GAS  C:\Users\diego\AppData\Local\Temp\ccwBHTp3.s 			page 46


 1906 070c 0133     		adds	r3, r3, #1
 1907 070e 1360     		str	r3, [r2]
 1908              	.L146:
 530:.\protocolo.c ****                     for(x=0;x<=10;x++){									
 1909              		.loc 1 530 0 is_stmt 0 discriminator 1
 1910 0710 684B     		ldr	r3, .L598+12
 1911 0712 1B68     		ldr	r3, [r3]
 1912 0714 0A2B     		cmp	r3, #10
 1913 0716 F2D9     		bls	.L147
 532:.\protocolo.c **** 					    }
 533:.\protocolo.c ****                     write_psoc1(val,10);
 1914              		.loc 1 533 0 is_stmt 1
 1915 0718 2046     		mov	r0, r4
 1916 071a 0A21     		movs	r1, #10
 1917 071c FFF7FEFF 		bl	write_psoc1
 1918              	.LVL177:
 534:.\protocolo.c **** 					for(x=0;x<=14;x++){									
 1919              		.loc 1 534 0
 1920 0720 0022     		movs	r2, #0
 1921 0722 644B     		ldr	r3, .L598+12
 1922 0724 1A60     		str	r2, [r3]
 1923 0726 09E0     		b	.L148
 1924              	.L149:
 535:.\protocolo.c **** 						write_psoc1(val,msn_lecact[x]);				//LECTURA ACTUAL
 1925              		.loc 1 535 0 discriminator 3
 1926 0728 634A     		ldr	r2, .L598+16
 1927 072a 1344     		add	r3, r3, r2
 1928 072c 2046     		mov	r0, r4
 1929 072e 197A     		ldrb	r1, [r3, #8]	@ zero_extendqisi2
 1930 0730 FFF7FEFF 		bl	write_psoc1
 1931              	.LVL178:
 534:.\protocolo.c **** 					for(x=0;x<=14;x++){									
 1932              		.loc 1 534 0 discriminator 3
 1933 0734 5F4A     		ldr	r2, .L598+12
 1934 0736 1368     		ldr	r3, [r2]
 1935 0738 0133     		adds	r3, r3, #1
 1936 073a 1360     		str	r3, [r2]
 1937              	.L148:
 534:.\protocolo.c **** 					for(x=0;x<=14;x++){									
 1938              		.loc 1 534 0 is_stmt 0 discriminator 1
 1939 073c 5D4B     		ldr	r3, .L598+12
 1940 073e 1B68     		ldr	r3, [r3]
 1941 0740 0E2B     		cmp	r3, #14
 1942 0742 F1D9     		bls	.L149
 536:.\protocolo.c **** 					}
 537:.\protocolo.c **** 					write_psoc1(val,10);
 1943              		.loc 1 537 0 is_stmt 1
 1944 0744 2046     		mov	r0, r4
 1945 0746 0A21     		movs	r1, #10
 1946 0748 FFF7FEFF 		bl	write_psoc1
 1947              	.LVL179:
 538:.\protocolo.c **** 					print_totalesac(8,val);	
 1948              		.loc 1 538 0
 1949 074c 0820     		movs	r0, #8
 1950 074e 2146     		mov	r1, r4
 1951 0750 FFF7FEFF 		bl	print_totalesac
 1952              	.LVL180:
ARM GAS  C:\Users\diego\AppData\Local\Temp\ccwBHTp3.s 			page 47


 539:.\protocolo.c **** 					for(x=0;x<=16;x++){												
 1953              		.loc 1 539 0
 1954 0754 0022     		movs	r2, #0
 1955 0756 574B     		ldr	r3, .L598+12
 1956 0758 1A60     		str	r2, [r3]
 1957 075a 09E0     		b	.L150
 1958              	.L151:
 540:.\protocolo.c **** 						write_psoc1(val,msn_lecaan[x]);				//LECTURA ANTERIOR
 1959              		.loc 1 540 0 discriminator 3
 1960 075c 564A     		ldr	r2, .L598+16
 1961 075e 1344     		add	r3, r3, r2
 1962 0760 2046     		mov	r0, r4
 1963 0762 197E     		ldrb	r1, [r3, #24]	@ zero_extendqisi2
 1964 0764 FFF7FEFF 		bl	write_psoc1
 1965              	.LVL181:
 539:.\protocolo.c **** 					for(x=0;x<=16;x++){												
 1966              		.loc 1 539 0 discriminator 3
 1967 0768 524A     		ldr	r2, .L598+12
 1968 076a 1368     		ldr	r3, [r2]
 1969 076c 0133     		adds	r3, r3, #1
 1970 076e 1360     		str	r3, [r2]
 1971              	.L150:
 539:.\protocolo.c **** 					for(x=0;x<=16;x++){												
 1972              		.loc 1 539 0 is_stmt 0 discriminator 1
 1973 0770 504B     		ldr	r3, .L598+12
 1974 0772 1B68     		ldr	r3, [r3]
 1975 0774 102B     		cmp	r3, #16
 1976 0776 F1D9     		bls	.L151
 541:.\protocolo.c **** 					}
 542:.\protocolo.c **** 					write_psoc1(val,10);
 1977              		.loc 1 542 0 is_stmt 1
 1978 0778 2046     		mov	r0, r4
 1979 077a 0A21     		movs	r1, #10
 1980 077c FFF7FEFF 		bl	write_psoc1
 1981              	.LVL182:
 543:.\protocolo.c **** 					if(dir==a.dir){
 1982              		.loc 1 543 0
 1983 0780 4F4B     		ldr	r3, .L598+24
 1984 0782 1B78     		ldrb	r3, [r3]	@ zero_extendqisi2
 1985 0784 AB42     		cmp	r3, r5
 1986 0786 05D1     		bne	.L152
 544:.\protocolo.c **** 						leer_eeprom(1096,25);
 1987              		.loc 1 544 0
 1988 0788 4FF48960 		mov	r0, #1096
 1989 078c 1921     		movs	r1, #25
 1990 078e FFF7FEFF 		bl	leer_eeprom
 1991              	.LVL183:
 1992 0792 04E0     		b	.L153
 1993              	.L152:
 545:.\protocolo.c **** 					}
 546:.\protocolo.c **** 					else{
 547:.\protocolo.c **** 						leer_eeprom(1054,25);
 1994              		.loc 1 547 0
 1995 0794 40F21E40 		movw	r0, #1054
 1996 0798 1921     		movs	r1, #25
 1997 079a FFF7FEFF 		bl	leer_eeprom
 1998              	.LVL184:
ARM GAS  C:\Users\diego\AppData\Local\Temp\ccwBHTp3.s 			page 48


 1999              	.L153:
 548:.\protocolo.c **** 					}
 549:.\protocolo.c **** 					print_totales(val);
 2000              		.loc 1 549 0
 2001 079e 2046     		mov	r0, r4
 2002 07a0 FFF7FEFF 		bl	print_totales
 2003              	.LVL185:
 550:.\protocolo.c **** 					for(z=1;z<=8;z++){
 2004              		.loc 1 550 0
 2005 07a4 0122     		movs	r2, #1
 2006 07a6 424B     		ldr	r3, .L598+8
 2007 07a8 1A60     		str	r2, [r3]
 2008 07aa 10E0     		b	.L154
 2009              	.L155:
 551:.\protocolo.c **** 						minuendo[z]=rventa.tdinero[z-1];
 2010              		.loc 1 551 0 discriminator 3
 2011 07ac 3E4A     		ldr	r2, .L598
 2012 07ae 1A44     		add	r2, r2, r3
 2013 07b0 92F8CA10 		ldrb	r1, [r2, #202]	@ zero_extendqisi2
 2014 07b4 10AA     		add	r2, sp, #64
 2015 07b6 1A44     		add	r2, r2, r3
 2016 07b8 02F82C1C 		strb	r1, [r2, #-44]
 552:.\protocolo.c **** 						sustraendo[z]=buffer_i2c[z+8];
 2017              		.loc 1 552 0 discriminator 3
 2018 07bc 03F10801 		add	r1, r3, #8
 2019 07c0 3A48     		ldr	r0, .L598+4
 2020 07c2 415C     		ldrb	r1, [r0, r1]	@ zero_extendqisi2
 2021 07c4 02F83C1C 		strb	r1, [r2, #-60]
 550:.\protocolo.c **** 					for(z=1;z<=8;z++){
 2022              		.loc 1 550 0 discriminator 3
 2023 07c8 0133     		adds	r3, r3, #1
 2024 07ca 394A     		ldr	r2, .L598+8
 2025 07cc 1360     		str	r3, [r2]
 2026              	.L154:
 550:.\protocolo.c **** 					for(z=1;z<=8;z++){
 2027              		.loc 1 550 0 is_stmt 0 discriminator 1
 2028 07ce 384B     		ldr	r3, .L598+8
 2029 07d0 1B68     		ldr	r3, [r3]
 2030 07d2 082B     		cmp	r3, #8
 2031 07d4 EAD9     		bls	.L155
 553:.\protocolo.c **** 					}
 554:.\protocolo.c **** 					minuendo[0]=8;
 2032              		.loc 1 554 0 is_stmt 1
 2033 07d6 10A9     		add	r1, sp, #64
 2034 07d8 0823     		movs	r3, #8
 2035 07da 01F82C3D 		strb	r3, [r1, #-44]!
 555:.\protocolo.c **** 					operacion(2,minuendo,sustraendo);
 2036              		.loc 1 555 0
 2037 07de 0220     		movs	r0, #2
 2038 07e0 01AA     		add	r2, sp, #4
 2039 07e2 FFF7FEFF 		bl	operacion
 2040              	.LVL186:
 556:.\protocolo.c **** 					for(x=0;x<=17;x++){									
 2041              		.loc 1 556 0
 2042 07e6 0022     		movs	r2, #0
 2043 07e8 324B     		ldr	r3, .L598+12
 2044 07ea 1A60     		str	r2, [r3]
ARM GAS  C:\Users\diego\AppData\Local\Temp\ccwBHTp3.s 			page 49


 2045 07ec 0AE0     		b	.L156
 2046              	.L157:
 557:.\protocolo.c **** 						write_psoc1(val,msn_tventas[x]);				//Total de ventas
 2047              		.loc 1 557 0 discriminator 3
 2048 07ee 324A     		ldr	r2, .L598+16
 2049 07f0 1344     		add	r3, r3, r2
 2050 07f2 2046     		mov	r0, r4
 2051 07f4 93F82C10 		ldrb	r1, [r3, #44]	@ zero_extendqisi2
 2052 07f8 FFF7FEFF 		bl	write_psoc1
 2053              	.LVL187:
 556:.\protocolo.c **** 					for(x=0;x<=17;x++){									
 2054              		.loc 1 556 0 discriminator 3
 2055 07fc 2D4A     		ldr	r2, .L598+12
 2056 07fe 1368     		ldr	r3, [r2]
 2057 0800 0133     		adds	r3, r3, #1
 2058 0802 1360     		str	r3, [r2]
 2059              	.L156:
 556:.\protocolo.c **** 					for(x=0;x<=17;x++){									
 2060              		.loc 1 556 0 is_stmt 0 discriminator 1
 2061 0804 2B4B     		ldr	r3, .L598+12
 2062 0806 1B68     		ldr	r3, [r3]
 2063 0808 112B     		cmp	r3, #17
 2064 080a F0D9     		bls	.L157
 558:.\protocolo.c **** 					}
 559:.\protocolo.c **** 					print_valor(resultado,val);							
 2065              		.loc 1 559 0 is_stmt 1
 2066 080c 2B48     		ldr	r0, .L598+20
 2067 080e 2146     		mov	r1, r4
 2068 0810 FFF7FEFF 		bl	print_valor
 2069              	.LVL188:
 560:.\protocolo.c **** 					if(dir==a.dir){
 2070              		.loc 1 560 0
 2071 0814 2A4B     		ldr	r3, .L598+24
 2072 0816 1B78     		ldrb	r3, [r3]	@ zero_extendqisi2
 2073 0818 AB42     		cmp	r3, r5
 2074 081a 0AD1     		bne	.L158
 561:.\protocolo.c **** 						write_eeprom(1096,corte);
 2075              		.loc 1 561 0
 2076 081c 4FF48960 		mov	r0, #1096
 2077 0820 09A9     		add	r1, sp, #36
 2078 0822 FFF7FEFF 		bl	write_eeprom
 2079              	.LVL189:
 562:.\protocolo.c **** 						write_eeprom(1038,resultado);
 2080              		.loc 1 562 0
 2081 0826 40F20E40 		movw	r0, #1038
 2082 082a 2449     		ldr	r1, .L598+20
 2083 082c FFF7FEFF 		bl	write_eeprom
 2084              	.LVL190:
 2085 0830 09E0     		b	.L143
 2086              	.L158:
 563:.\protocolo.c **** 					}
 564:.\protocolo.c **** 					else{
 565:.\protocolo.c **** 						write_eeprom(1054,corte);
 2087              		.loc 1 565 0
 2088 0832 40F21E40 		movw	r0, #1054
 2089 0836 09A9     		add	r1, sp, #36
 2090 0838 FFF7FEFF 		bl	write_eeprom
ARM GAS  C:\Users\diego\AppData\Local\Temp\ccwBHTp3.s 			page 50


 2091              	.LVL191:
 566:.\protocolo.c **** 						write_eeprom(1081,resultado);
 2092              		.loc 1 566 0
 2093 083c 40F23940 		movw	r0, #1081
 2094 0840 1E49     		ldr	r1, .L598+20
 2095 0842 FFF7FEFF 		bl	write_eeprom
 2096              	.LVL192:
 2097              	.L143:
 567:.\protocolo.c **** 					}					
 568:.\protocolo.c **** 				}
 569:.\protocolo.c **** 				
 570:.\protocolo.c **** 				Surtidor_ClearRxBuffer();
 2098              		.loc 1 570 0
 2099 0846 FFF7FEFF 		bl	Surtidor_ClearRxBuffer
 2100              	.LVL193:
 571:.\protocolo.c **** 				return 1;
 2101              		.loc 1 571 0
 2102 084a 0120     		movs	r0, #1
 2103 084c 02F022BD 		b	.L78
 2104              	.L71:
 572:.\protocolo.c **** 			}
 573:.\protocolo.c **** 			else{
 574:.\protocolo.c **** 				return 0;
 575:.\protocolo.c **** 			}
 576:.\protocolo.c **** 		break;
 577:.\protocolo.c **** 
 578:.\protocolo.c **** 		case 64:
 579:.\protocolo.c **** 			if((Surtidor_rxBuffer[0]==0xFF)&&(Surtidor_rxBuffer[1]==0xF6)&&(Surtidor_rxBuffer[63]==0xF0)&&(S
 2105              		.loc 1 579 0
 2106 0850 214B     		ldr	r3, .L598+48
 2107 0852 1B78     		ldrb	r3, [r3]	@ zero_extendqisi2
 2108 0854 DBB2     		uxtb	r3, r3
 2109 0856 FF2B     		cmp	r3, #255
 2110 0858 42F0F584 		bne	.L573
 2111              		.loc 1 579 0 is_stmt 0 discriminator 1
 2112 085c 1E4B     		ldr	r3, .L598+48
 2113 085e 5B78     		ldrb	r3, [r3, #1]	@ zero_extendqisi2
 2114 0860 DBB2     		uxtb	r3, r3
 2115 0862 F62B     		cmp	r3, #246
 2116 0864 42F0F184 		bne	.L574
 2117              		.loc 1 579 0 discriminator 2
 2118 0868 1B4B     		ldr	r3, .L598+48
 2119 086a 93F83F30 		ldrb	r3, [r3, #63]	@ zero_extendqisi2
 2120 086e DBB2     		uxtb	r3, r3
 2121 0870 F02B     		cmp	r3, #240
 2122 0872 42F0EC84 		bne	.L575
 2123              		.loc 1 579 0 discriminator 3
 2124 0876 184B     		ldr	r3, .L598+48
 2125 0878 DB78     		ldrb	r3, [r3, #3]	@ zero_extendqisi2
 2126 087a DBB2     		uxtb	r3, r3
 2127 087c F92B     		cmp	r3, #249
 2128 087e 42F0E884 		bne	.L576
 580:.\protocolo.c **** 				for(y=0;y<=30;y+=30){
 2129              		.loc 1 580 0 is_stmt 1
 2130 0882 0022     		movs	r2, #0
 2131 0884 154B     		ldr	r3, .L598+52
 2132 0886 1A60     		str	r2, [r3]
ARM GAS  C:\Users\diego\AppData\Local\Temp\ccwBHTp3.s 			page 51


 2133 0888 00F008BC 		b	.L159
 2134              	.L240:
 581:.\protocolo.c **** 					rventa.manguera=(Surtidor_rxBuffer[y+2]&0x0F)+1;
 2135              		.loc 1 581 0
 2136 088c B31C     		adds	r3, r6, #2
 2137 088e 124A     		ldr	r2, .L598+48
 2138 0890 D15C     		ldrb	r1, [r2, r3]	@ zero_extendqisi2
 2139 0892 01F00F01 		and	r1, r1, #15
 2140 0896 0131     		adds	r1, r1, #1
 2141 0898 0A4B     		ldr	r3, .L598+28
 2142 089a 83F8E010 		strb	r1, [r3, #224]
 582:.\protocolo.c **** 					for(x=0;x<=7;x++){
 2143              		.loc 1 582 0
 2144 089e 0022     		movs	r2, #0
 2145 08a0 044B     		ldr	r3, .L598+12
 2146 08a2 1A60     		str	r2, [r3]
 2147 08a4 29E0     		b	.L160
 2148              	.L599:
 2149 08a6 00BF     		.align	2
 2150              	.L598:
 2151 08a8 FFFFFFFF 		.word	rventa-1
 2152 08ac 00000000 		.word	buffer_i2c
 2153 08b0 00000000 		.word	z
 2154 08b4 00000000 		.word	x
 2155 08b8 00000000 		.word	.LANCHOR1
 2156 08bc 00000000 		.word	resultado
 2157 08c0 00000000 		.word	a
 2158 08c4 00000000 		.word	rventa
 2159 08c8 00000000 		.word	producto4
 2160 08cc 00000000 		.word	producto4b
 2161 08d0 00000000 		.word	b
 2162 08d4 00000000 		.word	producto4n
 2163 08d8 00000000 		.word	Surtidor_rxBuffer
 2164 08dc 00000000 		.word	y
 2165              	.L161:
 583:.\protocolo.c **** 						rventa.tvolumen[x]=(Surtidor_rxBuffer[y+4+x]&0x0F);
 2166              		.loc 1 583 0 discriminator 3
 2167 08e0 F218     		adds	r2, r6, r3
 2168 08e2 0432     		adds	r2, r2, #4
 2169 08e4 A748     		ldr	r0, .L600
 2170 08e6 805C     		ldrb	r0, [r0, r2]	@ zero_extendqisi2
 2171 08e8 A74A     		ldr	r2, .L600+4
 2172 08ea 1A44     		add	r2, r2, r3
 2173 08ec 00F00F00 		and	r0, r0, #15
 2174 08f0 82F8BD00 		strb	r0, [r2, #189]
 582:.\protocolo.c **** 					for(x=0;x<=7;x++){
 2175              		.loc 1 582 0 discriminator 3
 2176 08f4 0133     		adds	r3, r3, #1
 2177 08f6 A54A     		ldr	r2, .L600+8
 2178 08f8 1360     		str	r3, [r2]
 2179              	.L160:
 582:.\protocolo.c **** 					for(x=0;x<=7;x++){
 2180              		.loc 1 582 0 is_stmt 0 discriminator 1
 2181 08fa A44B     		ldr	r3, .L600+8
 2182 08fc 1B68     		ldr	r3, [r3]
 2183 08fe 072B     		cmp	r3, #7
 2184 0900 EED9     		bls	.L161
ARM GAS  C:\Users\diego\AppData\Local\Temp\ccwBHTp3.s 			page 52


 584:.\protocolo.c **** 					}
 585:.\protocolo.c **** 					for(x=0;x<=7;x++){
 2185              		.loc 1 585 0 is_stmt 1
 2186 0902 0022     		movs	r2, #0
 2187 0904 A14B     		ldr	r3, .L600+8
 2188 0906 1A60     		str	r2, [r3]
 2189 0908 0CE0     		b	.L162
 2190              	.L163:
 586:.\protocolo.c **** 						rventa.tdinero[x]=(Surtidor_rxBuffer[y+13+x]&0x0F);
 2191              		.loc 1 586 0 discriminator 3
 2192 090a F218     		adds	r2, r6, r3
 2193 090c 0D32     		adds	r2, r2, #13
 2194 090e 9D48     		ldr	r0, .L600
 2195 0910 805C     		ldrb	r0, [r0, r2]	@ zero_extendqisi2
 2196 0912 9D4A     		ldr	r2, .L600+4
 2197 0914 1A44     		add	r2, r2, r3
 2198 0916 00F00F00 		and	r0, r0, #15
 2199 091a 82F8CA00 		strb	r0, [r2, #202]
 585:.\protocolo.c **** 						rventa.tdinero[x]=(Surtidor_rxBuffer[y+13+x]&0x0F);
 2200              		.loc 1 585 0 discriminator 3
 2201 091e 0133     		adds	r3, r3, #1
 2202 0920 9A4A     		ldr	r2, .L600+8
 2203 0922 1360     		str	r3, [r2]
 2204              	.L162:
 585:.\protocolo.c **** 						rventa.tdinero[x]=(Surtidor_rxBuffer[y+13+x]&0x0F);
 2205              		.loc 1 585 0 is_stmt 0 discriminator 1
 2206 0924 994B     		ldr	r3, .L600+8
 2207 0926 1B68     		ldr	r3, [r3]
 2208 0928 072B     		cmp	r3, #7
 2209 092a EED9     		bls	.L163
 587:.\protocolo.c ****                         
 588:.\protocolo.c **** 					}
 589:.\protocolo.c **** 					for(z=0;z<=7;z++){
 2210              		.loc 1 589 0 is_stmt 1
 2211 092c 0022     		movs	r2, #0
 2212 092e 984B     		ldr	r3, .L600+12
 2213 0930 1A60     		str	r2, [r3]
 2214 0932 0AE0     		b	.L164
 2215              	.L165:
 590:.\protocolo.c **** 						corte[z+1]=rventa.tvolumen[z];
 2216              		.loc 1 590 0 discriminator 3
 2217 0934 5A1C     		adds	r2, r3, #1
 2218 0936 9448     		ldr	r0, .L600+4
 2219 0938 0344     		add	r3, r3, r0
 2220 093a 93F8BD00 		ldrb	r0, [r3, #189]	@ zero_extendqisi2
 2221 093e 10AB     		add	r3, sp, #64
 2222 0940 1344     		add	r3, r3, r2
 2223 0942 03F81C0C 		strb	r0, [r3, #-28]
 589:.\protocolo.c **** 						corte[z+1]=rventa.tvolumen[z];
 2224              		.loc 1 589 0 discriminator 3
 2225 0946 924B     		ldr	r3, .L600+12
 2226 0948 1A60     		str	r2, [r3]
 2227              	.L164:
 589:.\protocolo.c **** 						corte[z+1]=rventa.tvolumen[z];
 2228              		.loc 1 589 0 is_stmt 0 discriminator 1
 2229 094a 914B     		ldr	r3, .L600+12
 2230 094c 1B68     		ldr	r3, [r3]
ARM GAS  C:\Users\diego\AppData\Local\Temp\ccwBHTp3.s 			page 53


 2231 094e 072B     		cmp	r3, #7
 2232 0950 F0D9     		bls	.L165
 591:.\protocolo.c **** 					}
 592:.\protocolo.c **** 					for(z=9;z<=16;z++){
 2233              		.loc 1 592 0 is_stmt 1
 2234 0952 0922     		movs	r2, #9
 2235 0954 8E4B     		ldr	r3, .L600+12
 2236 0956 1A60     		str	r2, [r3]
 2237 0958 0AE0     		b	.L166
 2238              	.L167:
 593:.\protocolo.c **** 						corte[z]=rventa.tdinero[z-9];
 2239              		.loc 1 593 0 discriminator 3
 2240 095a 8E4A     		ldr	r2, .L600+16
 2241 095c 1A44     		add	r2, r2, r3
 2242 095e 92F8CA00 		ldrb	r0, [r2, #202]	@ zero_extendqisi2
 2243 0962 10AA     		add	r2, sp, #64
 2244 0964 1A44     		add	r2, r2, r3
 2245 0966 02F81C0C 		strb	r0, [r2, #-28]
 592:.\protocolo.c **** 						corte[z]=rventa.tdinero[z-9];
 2246              		.loc 1 592 0 discriminator 3
 2247 096a 0133     		adds	r3, r3, #1
 2248 096c 884A     		ldr	r2, .L600+12
 2249 096e 1360     		str	r3, [r2]
 2250              	.L166:
 592:.\protocolo.c **** 						corte[z]=rventa.tdinero[z-9];
 2251              		.loc 1 592 0 is_stmt 0 discriminator 1
 2252 0970 874B     		ldr	r3, .L600+12
 2253 0972 1B68     		ldr	r3, [r3]
 2254 0974 102B     		cmp	r3, #16
 2255 0976 F0D9     		bls	.L167
 594:.\protocolo.c **** 					}
 595:.\protocolo.c **** 					corte[0]=16;							
 2256              		.loc 1 595 0 is_stmt 1
 2257 0978 1023     		movs	r3, #16
 2258 097a 8DF82430 		strb	r3, [sp, #36]
 596:.\protocolo.c **** 					if(((rventa.manguera==(producto1&0x0F))&&(dir==a.dir))||((rventa.manguera==(producto1b&0x0F))&
 2259              		.loc 1 596 0
 2260 097e 864B     		ldr	r3, .L600+20
 2261 0980 1B78     		ldrb	r3, [r3]	@ zero_extendqisi2
 2262 0982 03F00F03 		and	r3, r3, #15
 2263 0986 8B42     		cmp	r3, r1
 2264 0988 03D1     		bne	.L168
 2265              		.loc 1 596 0 is_stmt 0 discriminator 1
 2266 098a 844B     		ldr	r3, .L600+24
 2267 098c 1B78     		ldrb	r3, [r3]	@ zero_extendqisi2
 2268 098e AB42     		cmp	r3, r5
 2269 0990 0BD0     		beq	.L169
 2270              	.L168:
 2271              		.loc 1 596 0 discriminator 3
 2272 0992 834B     		ldr	r3, .L600+28
 2273 0994 1B78     		ldrb	r3, [r3]	@ zero_extendqisi2
 2274 0996 03F00F03 		and	r3, r3, #15
 2275 099a 9942     		cmp	r1, r3
 2276 099c 40F0C080 		bne	.L170
 2277              		.loc 1 596 0 discriminator 4
 2278 09a0 804B     		ldr	r3, .L600+32
 2279 09a2 1B78     		ldrb	r3, [r3]	@ zero_extendqisi2
ARM GAS  C:\Users\diego\AppData\Local\Temp\ccwBHTp3.s 			page 54


 2280 09a4 AB42     		cmp	r3, r5
 2281 09a6 40F0BB80 		bne	.L170
 2282              	.L169:
 597:.\protocolo.c **** 						for(x=0;x<=5;x++){									
 2283              		.loc 1 597 0 is_stmt 1
 2284 09aa 0022     		movs	r2, #0
 2285 09ac 774B     		ldr	r3, .L600+8
 2286 09ae 1A60     		str	r2, [r3]
 2287 09b0 08E0     		b	.L171
 2288              	.L172:
 598:.\protocolo.c **** 							write_psoc1(val,msn_tc[x]);
 2289              		.loc 1 598 0 discriminator 3
 2290 09b2 2046     		mov	r0, r4
 2291 09b4 7C4A     		ldr	r2, .L600+36
 2292 09b6 D15C     		ldrb	r1, [r2, r3]	@ zero_extendqisi2
 2293 09b8 FFF7FEFF 		bl	write_psoc1
 2294              	.LVL194:
 597:.\protocolo.c **** 						for(x=0;x<=5;x++){									
 2295              		.loc 1 597 0 discriminator 3
 2296 09bc 734A     		ldr	r2, .L600+8
 2297 09be 1368     		ldr	r3, [r2]
 2298 09c0 0133     		adds	r3, r3, #1
 2299 09c2 1360     		str	r3, [r2]
 2300              	.L171:
 597:.\protocolo.c **** 						for(x=0;x<=5;x++){									
 2301              		.loc 1 597 0 is_stmt 0 discriminator 1
 2302 09c4 714B     		ldr	r3, .L600+8
 2303 09c6 1B68     		ldr	r3, [r3]
 2304 09c8 052B     		cmp	r3, #5
 2305 09ca F2D9     		bls	.L172
 599:.\protocolo.c **** 						}
 600:.\protocolo.c **** 						write_psoc1(val,10);
 2306              		.loc 1 600 0 is_stmt 1
 2307 09cc 2046     		mov	r0, r4
 2308 09ce 0A21     		movs	r1, #10
 2309 09d0 FFF7FEFF 		bl	write_psoc1
 2310              	.LVL195:
 601:.\protocolo.c ****                         for(x=0;x<=10;x++){									
 2311              		.loc 1 601 0
 2312 09d4 0022     		movs	r2, #0
 2313 09d6 6D4B     		ldr	r3, .L600+8
 2314 09d8 1A60     		str	r2, [r3]
 2315 09da 08E0     		b	.L173
 2316              	.L174:
 602:.\protocolo.c **** 						write_psoc1(val,producto1n[x]);
 2317              		.loc 1 602 0 discriminator 3
 2318 09dc 2046     		mov	r0, r4
 2319 09de 734A     		ldr	r2, .L600+40
 2320 09e0 D15C     		ldrb	r1, [r2, r3]	@ zero_extendqisi2
 2321 09e2 FFF7FEFF 		bl	write_psoc1
 2322              	.LVL196:
 601:.\protocolo.c ****                         for(x=0;x<=10;x++){									
 2323              		.loc 1 601 0 discriminator 3
 2324 09e6 694A     		ldr	r2, .L600+8
 2325 09e8 1368     		ldr	r3, [r2]
 2326 09ea 0133     		adds	r3, r3, #1
 2327 09ec 1360     		str	r3, [r2]
ARM GAS  C:\Users\diego\AppData\Local\Temp\ccwBHTp3.s 			page 55


 2328              	.L173:
 601:.\protocolo.c ****                         for(x=0;x<=10;x++){									
 2329              		.loc 1 601 0 is_stmt 0 discriminator 1
 2330 09ee 674B     		ldr	r3, .L600+8
 2331 09f0 1B68     		ldr	r3, [r3]
 2332 09f2 0A2B     		cmp	r3, #10
 2333 09f4 F2D9     		bls	.L174
 603:.\protocolo.c **** 					    }
 604:.\protocolo.c ****                         write_psoc1(val,10);
 2334              		.loc 1 604 0 is_stmt 1
 2335 09f6 2046     		mov	r0, r4
 2336 09f8 0A21     		movs	r1, #10
 2337 09fa FFF7FEFF 		bl	write_psoc1
 2338              	.LVL197:
 605:.\protocolo.c **** 						for(x=0;x<=14;x++){									
 2339              		.loc 1 605 0
 2340 09fe 0022     		movs	r2, #0
 2341 0a00 624B     		ldr	r3, .L600+8
 2342 0a02 1A60     		str	r2, [r3]
 2343 0a04 09E0     		b	.L175
 2344              	.L176:
 606:.\protocolo.c **** 							write_psoc1(val,msn_lecact[x]);				//LECTURA ACTUAL
 2345              		.loc 1 606 0 discriminator 3
 2346 0a06 684A     		ldr	r2, .L600+36
 2347 0a08 1344     		add	r3, r3, r2
 2348 0a0a 2046     		mov	r0, r4
 2349 0a0c 197A     		ldrb	r1, [r3, #8]	@ zero_extendqisi2
 2350 0a0e FFF7FEFF 		bl	write_psoc1
 2351              	.LVL198:
 605:.\protocolo.c **** 						for(x=0;x<=14;x++){									
 2352              		.loc 1 605 0 discriminator 3
 2353 0a12 5E4A     		ldr	r2, .L600+8
 2354 0a14 1368     		ldr	r3, [r2]
 2355 0a16 0133     		adds	r3, r3, #1
 2356 0a18 1360     		str	r3, [r2]
 2357              	.L175:
 605:.\protocolo.c **** 						for(x=0;x<=14;x++){									
 2358              		.loc 1 605 0 is_stmt 0 discriminator 1
 2359 0a1a 5C4B     		ldr	r3, .L600+8
 2360 0a1c 1B68     		ldr	r3, [r3]
 2361 0a1e 0E2B     		cmp	r3, #14
 2362 0a20 F1D9     		bls	.L176
 607:.\protocolo.c **** 						}
 608:.\protocolo.c **** 						write_psoc1(val,10);
 2363              		.loc 1 608 0 is_stmt 1
 2364 0a22 2046     		mov	r0, r4
 2365 0a24 0A21     		movs	r1, #10
 2366 0a26 FFF7FEFF 		bl	write_psoc1
 2367              	.LVL199:
 609:.\protocolo.c **** 						print_totalesac(8,val);	
 2368              		.loc 1 609 0
 2369 0a2a 0820     		movs	r0, #8
 2370 0a2c 2146     		mov	r1, r4
 2371 0a2e FFF7FEFF 		bl	print_totalesac
 2372              	.LVL200:
 610:.\protocolo.c **** 						for(x=0;x<=16;x++){												
 2373              		.loc 1 610 0
ARM GAS  C:\Users\diego\AppData\Local\Temp\ccwBHTp3.s 			page 56


 2374 0a32 0022     		movs	r2, #0
 2375 0a34 554B     		ldr	r3, .L600+8
 2376 0a36 1A60     		str	r2, [r3]
 2377 0a38 09E0     		b	.L177
 2378              	.L178:
 611:.\protocolo.c **** 							write_psoc1(val,msn_lecaan[x]);				//LECTURA ANTERIOR
 2379              		.loc 1 611 0 discriminator 3
 2380 0a3a 5B4A     		ldr	r2, .L600+36
 2381 0a3c 1344     		add	r3, r3, r2
 2382 0a3e 2046     		mov	r0, r4
 2383 0a40 197E     		ldrb	r1, [r3, #24]	@ zero_extendqisi2
 2384 0a42 FFF7FEFF 		bl	write_psoc1
 2385              	.LVL201:
 610:.\protocolo.c **** 						for(x=0;x<=16;x++){												
 2386              		.loc 1 610 0 discriminator 3
 2387 0a46 514A     		ldr	r2, .L600+8
 2388 0a48 1368     		ldr	r3, [r2]
 2389 0a4a 0133     		adds	r3, r3, #1
 2390 0a4c 1360     		str	r3, [r2]
 2391              	.L177:
 610:.\protocolo.c **** 						for(x=0;x<=16;x++){												
 2392              		.loc 1 610 0 is_stmt 0 discriminator 1
 2393 0a4e 4F4B     		ldr	r3, .L600+8
 2394 0a50 1B68     		ldr	r3, [r3]
 2395 0a52 102B     		cmp	r3, #16
 2396 0a54 F1D9     		bls	.L178
 612:.\protocolo.c **** 						}
 613:.\protocolo.c **** 						write_psoc1(val,10);
 2397              		.loc 1 613 0 is_stmt 1
 2398 0a56 2046     		mov	r0, r4
 2399 0a58 0A21     		movs	r1, #10
 2400 0a5a FFF7FEFF 		bl	write_psoc1
 2401              	.LVL202:
 614:.\protocolo.c **** 						if(dir==a.dir){
 2402              		.loc 1 614 0
 2403 0a5e 4F4B     		ldr	r3, .L600+24
 2404 0a60 1B78     		ldrb	r3, [r3]	@ zero_extendqisi2
 2405 0a62 AB42     		cmp	r3, r5
 2406 0a64 04D1     		bne	.L179
 615:.\protocolo.c **** 							leer_eeprom(192,25);
 2407              		.loc 1 615 0
 2408 0a66 C020     		movs	r0, #192
 2409 0a68 1921     		movs	r1, #25
 2410 0a6a FFF7FEFF 		bl	leer_eeprom
 2411              	.LVL203:
 2412 0a6e 04E0     		b	.L180
 2413              	.L179:
 616:.\protocolo.c **** 						}
 617:.\protocolo.c **** 						else{
 618:.\protocolo.c **** 							leer_eeprom(281,25);
 2414              		.loc 1 618 0
 2415 0a70 40F21910 		movw	r0, #281
 2416 0a74 1921     		movs	r1, #25
 2417 0a76 FFF7FEFF 		bl	leer_eeprom
 2418              	.LVL204:
 2419              	.L180:
 619:.\protocolo.c **** 						}
ARM GAS  C:\Users\diego\AppData\Local\Temp\ccwBHTp3.s 			page 57


 620:.\protocolo.c **** 						print_totales(val);
 2420              		.loc 1 620 0
 2421 0a7a 2046     		mov	r0, r4
 2422 0a7c FFF7FEFF 		bl	print_totales
 2423              	.LVL205:
 621:.\protocolo.c **** 						for(z=1;z<=8;z++){
 2424              		.loc 1 621 0
 2425 0a80 0122     		movs	r2, #1
 2426 0a82 434B     		ldr	r3, .L600+12
 2427 0a84 1A60     		str	r2, [r3]
 2428 0a86 10E0     		b	.L181
 2429              	.L182:
 622:.\protocolo.c **** 							minuendo[z]=rventa.tdinero[z-1];
 2430              		.loc 1 622 0 discriminator 3
 2431 0a88 494A     		ldr	r2, .L600+44
 2432 0a8a 1A44     		add	r2, r2, r3
 2433 0a8c 92F8CA10 		ldrb	r1, [r2, #202]	@ zero_extendqisi2
 2434 0a90 10AA     		add	r2, sp, #64
 2435 0a92 1A44     		add	r2, r2, r3
 2436 0a94 02F82C1C 		strb	r1, [r2, #-44]
 623:.\protocolo.c **** 							sustraendo[z]=buffer_i2c[z+8];
 2437              		.loc 1 623 0 discriminator 3
 2438 0a98 03F10801 		add	r1, r3, #8
 2439 0a9c 4548     		ldr	r0, .L600+48
 2440 0a9e 415C     		ldrb	r1, [r0, r1]	@ zero_extendqisi2
 2441 0aa0 02F83C1C 		strb	r1, [r2, #-60]
 621:.\protocolo.c **** 						for(z=1;z<=8;z++){
 2442              		.loc 1 621 0 discriminator 3
 2443 0aa4 0133     		adds	r3, r3, #1
 2444 0aa6 3A4A     		ldr	r2, .L600+12
 2445 0aa8 1360     		str	r3, [r2]
 2446              	.L181:
 621:.\protocolo.c **** 						for(z=1;z<=8;z++){
 2447              		.loc 1 621 0 is_stmt 0 discriminator 1
 2448 0aaa 394B     		ldr	r3, .L600+12
 2449 0aac 1B68     		ldr	r3, [r3]
 2450 0aae 082B     		cmp	r3, #8
 2451 0ab0 EAD9     		bls	.L182
 624:.\protocolo.c **** 						}
 625:.\protocolo.c **** 						minuendo[0]=8;
 2452              		.loc 1 625 0 is_stmt 1
 2453 0ab2 10A9     		add	r1, sp, #64
 2454 0ab4 0823     		movs	r3, #8
 2455 0ab6 01F82C3D 		strb	r3, [r1, #-44]!
 626:.\protocolo.c **** 						operacion(2,minuendo,sustraendo);
 2456              		.loc 1 626 0
 2457 0aba 0220     		movs	r0, #2
 2458 0abc 01AA     		add	r2, sp, #4
 2459 0abe FFF7FEFF 		bl	operacion
 2460              	.LVL206:
 627:.\protocolo.c **** 						for(x=0;x<=17;x++){									
 2461              		.loc 1 627 0
 2462 0ac2 0022     		movs	r2, #0
 2463 0ac4 314B     		ldr	r3, .L600+8
 2464 0ac6 1A60     		str	r2, [r3]
 2465 0ac8 0AE0     		b	.L183
 2466              	.L184:
ARM GAS  C:\Users\diego\AppData\Local\Temp\ccwBHTp3.s 			page 58


 628:.\protocolo.c **** 							write_psoc1(val,msn_tventas[x]);				//Total de ventas
 2467              		.loc 1 628 0 discriminator 3
 2468 0aca 374A     		ldr	r2, .L600+36
 2469 0acc 1344     		add	r3, r3, r2
 2470 0ace 2046     		mov	r0, r4
 2471 0ad0 93F82C10 		ldrb	r1, [r3, #44]	@ zero_extendqisi2
 2472 0ad4 FFF7FEFF 		bl	write_psoc1
 2473              	.LVL207:
 627:.\protocolo.c **** 						for(x=0;x<=17;x++){									
 2474              		.loc 1 627 0 discriminator 3
 2475 0ad8 2C4A     		ldr	r2, .L600+8
 2476 0ada 1368     		ldr	r3, [r2]
 2477 0adc 0133     		adds	r3, r3, #1
 2478 0ade 1360     		str	r3, [r2]
 2479              	.L183:
 627:.\protocolo.c **** 						for(x=0;x<=17;x++){									
 2480              		.loc 1 627 0 is_stmt 0 discriminator 1
 2481 0ae0 2A4B     		ldr	r3, .L600+8
 2482 0ae2 1B68     		ldr	r3, [r3]
 2483 0ae4 112B     		cmp	r3, #17
 2484 0ae6 F0D9     		bls	.L184
 629:.\protocolo.c **** 						}
 630:.\protocolo.c **** 						print_valor(resultado,val);
 2485              		.loc 1 630 0 is_stmt 1
 2486 0ae8 3348     		ldr	r0, .L600+52
 2487 0aea 2146     		mov	r1, r4
 2488 0aec FFF7FEFF 		bl	print_valor
 2489              	.LVL208:
 631:.\protocolo.c **** 						if(dir==a.dir){
 2490              		.loc 1 631 0
 2491 0af0 2A4B     		ldr	r3, .L600+24
 2492 0af2 1B78     		ldrb	r3, [r3]	@ zero_extendqisi2
 2493 0af4 AB42     		cmp	r3, r5
 2494 0af6 09D1     		bne	.L185
 632:.\protocolo.c **** 							write_eeprom(192,corte);	
 2495              		.loc 1 632 0
 2496 0af8 C020     		movs	r0, #192
 2497 0afa 09A9     		add	r1, sp, #36
 2498 0afc FFF7FEFF 		bl	write_eeprom
 2499              	.LVL209:
 633:.\protocolo.c **** 							write_eeprom(512,resultado);
 2500              		.loc 1 633 0
 2501 0b00 4FF40070 		mov	r0, #512
 2502 0b04 2C49     		ldr	r1, .L600+52
 2503 0b06 FFF7FEFF 		bl	write_eeprom
 2504              	.LVL210:
 2505 0b0a 09E0     		b	.L170
 2506              	.L185:
 634:.\protocolo.c **** 						}
 635:.\protocolo.c **** 						else{
 636:.\protocolo.c **** 							write_eeprom(281,corte);
 2507              		.loc 1 636 0
 2508 0b0c 40F21910 		movw	r0, #281
 2509 0b10 09A9     		add	r1, sp, #36
 2510 0b12 FFF7FEFF 		bl	write_eeprom
 2511              	.LVL211:
 637:.\protocolo.c **** 							write_eeprom(551,resultado);
ARM GAS  C:\Users\diego\AppData\Local\Temp\ccwBHTp3.s 			page 59


 2512              		.loc 1 637 0
 2513 0b16 40F22720 		movw	r0, #551
 2514 0b1a 2749     		ldr	r1, .L600+52
 2515 0b1c FFF7FEFF 		bl	write_eeprom
 2516              	.LVL212:
 2517              	.L170:
 638:.\protocolo.c **** 						}
 639:.\protocolo.c **** 					}
 640:.\protocolo.c **** 					if(((rventa.manguera==(producto2&0x0F))&&(dir==a.dir))||((rventa.manguera==(producto2b&0x0F))&
 2518              		.loc 1 640 0
 2519 0b20 194B     		ldr	r3, .L600+4
 2520 0b22 93F8E020 		ldrb	r2, [r3, #224]	@ zero_extendqisi2
 2521 0b26 254B     		ldr	r3, .L600+56
 2522 0b28 1B78     		ldrb	r3, [r3]	@ zero_extendqisi2
 2523 0b2a 03F00F03 		and	r3, r3, #15
 2524 0b2e 9342     		cmp	r3, r2
 2525 0b30 03D1     		bne	.L186
 2526              		.loc 1 640 0 is_stmt 0 discriminator 1
 2527 0b32 1A4B     		ldr	r3, .L600+24
 2528 0b34 1B78     		ldrb	r3, [r3]	@ zero_extendqisi2
 2529 0b36 AB42     		cmp	r3, r5
 2530 0b38 0BD0     		beq	.L187
 2531              	.L186:
 2532              		.loc 1 640 0 discriminator 3
 2533 0b3a 214B     		ldr	r3, .L600+60
 2534 0b3c 1B78     		ldrb	r3, [r3]	@ zero_extendqisi2
 2535 0b3e 03F00F03 		and	r3, r3, #15
 2536 0b42 9A42     		cmp	r2, r3
 2537 0b44 40F0E080 		bne	.L188
 2538              		.loc 1 640 0 discriminator 4
 2539 0b48 164B     		ldr	r3, .L600+32
 2540 0b4a 1B78     		ldrb	r3, [r3]	@ zero_extendqisi2
 2541 0b4c AB42     		cmp	r3, r5
 2542 0b4e 40F0DB80 		bne	.L188
 2543              	.L187:
 641:.\protocolo.c **** 						for(x=0;x<=5;x++){									
 2544              		.loc 1 641 0 is_stmt 1
 2545 0b52 0022     		movs	r2, #0
 2546 0b54 0D4B     		ldr	r3, .L600+8
 2547 0b56 1A60     		str	r2, [r3]
 2548 0b58 08E0     		b	.L189
 2549              	.L190:
 642:.\protocolo.c **** 						    write_psoc1(val,msn_tc[x]);
 2550              		.loc 1 642 0 discriminator 3
 2551 0b5a 2046     		mov	r0, r4
 2552 0b5c 124A     		ldr	r2, .L600+36
 2553 0b5e D15C     		ldrb	r1, [r2, r3]	@ zero_extendqisi2
 2554 0b60 FFF7FEFF 		bl	write_psoc1
 2555              	.LVL213:
 641:.\protocolo.c **** 						for(x=0;x<=5;x++){									
 2556              		.loc 1 641 0 discriminator 3
 2557 0b64 094A     		ldr	r2, .L600+8
 2558 0b66 1368     		ldr	r3, [r2]
 2559 0b68 0133     		adds	r3, r3, #1
 2560 0b6a 1360     		str	r3, [r2]
 2561              	.L189:
 641:.\protocolo.c **** 						for(x=0;x<=5;x++){									
ARM GAS  C:\Users\diego\AppData\Local\Temp\ccwBHTp3.s 			page 60


 2562              		.loc 1 641 0 is_stmt 0 discriminator 1
 2563 0b6c 074B     		ldr	r3, .L600+8
 2564 0b6e 1B68     		ldr	r3, [r3]
 2565 0b70 052B     		cmp	r3, #5
 2566 0b72 F2D9     		bls	.L190
 643:.\protocolo.c **** 					    }
 644:.\protocolo.c **** 					    write_psoc1(val,10);
 2567              		.loc 1 644 0 is_stmt 1
 2568 0b74 2046     		mov	r0, r4
 2569 0b76 0A21     		movs	r1, #10
 2570 0b78 FFF7FEFF 		bl	write_psoc1
 2571              	.LVL214:
 645:.\protocolo.c ****                         for(x=0;x<=10;x++){									
 2572              		.loc 1 645 0
 2573 0b7c 0022     		movs	r2, #0
 2574 0b7e 034B     		ldr	r3, .L600+8
 2575 0b80 1A60     		str	r2, [r3]
 2576 0b82 28E0     		b	.L191
 2577              	.L601:
 2578              		.align	2
 2579              	.L600:
 2580 0b84 00000000 		.word	Surtidor_rxBuffer
 2581 0b88 00000000 		.word	rventa
 2582 0b8c 00000000 		.word	x
 2583 0b90 00000000 		.word	z
 2584 0b94 F7FFFFFF 		.word	rventa-9
 2585 0b98 00000000 		.word	producto1
 2586 0b9c 00000000 		.word	a
 2587 0ba0 00000000 		.word	producto1b
 2588 0ba4 00000000 		.word	b
 2589 0ba8 00000000 		.word	.LANCHOR1
 2590 0bac 00000000 		.word	producto1n
 2591 0bb0 FFFFFFFF 		.word	rventa-1
 2592 0bb4 00000000 		.word	buffer_i2c
 2593 0bb8 00000000 		.word	resultado
 2594 0bbc 00000000 		.word	producto2
 2595 0bc0 00000000 		.word	producto2b
 2596              	.L192:
 646:.\protocolo.c **** 						    write_psoc1(val,producto2n[x]);
 2597              		.loc 1 646 0 discriminator 3
 2598 0bc4 2046     		mov	r0, r4
 2599 0bc6 A54A     		ldr	r2, .L602
 2600 0bc8 D15C     		ldrb	r1, [r2, r3]	@ zero_extendqisi2
 2601 0bca FFF7FEFF 		bl	write_psoc1
 2602              	.LVL215:
 645:.\protocolo.c ****                         for(x=0;x<=10;x++){									
 2603              		.loc 1 645 0 discriminator 3
 2604 0bce A44A     		ldr	r2, .L602+4
 2605 0bd0 1368     		ldr	r3, [r2]
 2606 0bd2 0133     		adds	r3, r3, #1
 2607 0bd4 1360     		str	r3, [r2]
 2608              	.L191:
 645:.\protocolo.c ****                         for(x=0;x<=10;x++){									
 2609              		.loc 1 645 0 is_stmt 0 discriminator 1
 2610 0bd6 A24B     		ldr	r3, .L602+4
 2611 0bd8 1B68     		ldr	r3, [r3]
 2612 0bda 0A2B     		cmp	r3, #10
ARM GAS  C:\Users\diego\AppData\Local\Temp\ccwBHTp3.s 			page 61


 2613 0bdc F2D9     		bls	.L192
 647:.\protocolo.c **** 					    }
 648:.\protocolo.c ****                         write_psoc1(val,10);
 2614              		.loc 1 648 0 is_stmt 1
 2615 0bde 2046     		mov	r0, r4
 2616 0be0 0A21     		movs	r1, #10
 2617 0be2 FFF7FEFF 		bl	write_psoc1
 2618              	.LVL216:
 649:.\protocolo.c **** 						for(x=0;x<=14;x++){									
 2619              		.loc 1 649 0
 2620 0be6 0022     		movs	r2, #0
 2621 0be8 9D4B     		ldr	r3, .L602+4
 2622 0bea 1A60     		str	r2, [r3]
 2623 0bec 09E0     		b	.L193
 2624              	.L194:
 650:.\protocolo.c **** 							write_psoc1(val,msn_lecact[x]);				//LECTURA ACTUAL
 2625              		.loc 1 650 0 discriminator 3
 2626 0bee 9D4A     		ldr	r2, .L602+8
 2627 0bf0 1344     		add	r3, r3, r2
 2628 0bf2 2046     		mov	r0, r4
 2629 0bf4 197A     		ldrb	r1, [r3, #8]	@ zero_extendqisi2
 2630 0bf6 FFF7FEFF 		bl	write_psoc1
 2631              	.LVL217:
 649:.\protocolo.c **** 						for(x=0;x<=14;x++){									
 2632              		.loc 1 649 0 discriminator 3
 2633 0bfa 994A     		ldr	r2, .L602+4
 2634 0bfc 1368     		ldr	r3, [r2]
 2635 0bfe 0133     		adds	r3, r3, #1
 2636 0c00 1360     		str	r3, [r2]
 2637              	.L193:
 649:.\protocolo.c **** 						for(x=0;x<=14;x++){									
 2638              		.loc 1 649 0 is_stmt 0 discriminator 1
 2639 0c02 974B     		ldr	r3, .L602+4
 2640 0c04 1B68     		ldr	r3, [r3]
 2641 0c06 0E2B     		cmp	r3, #14
 2642 0c08 F1D9     		bls	.L194
 651:.\protocolo.c **** 						}
 652:.\protocolo.c **** 						write_psoc1(val,10);
 2643              		.loc 1 652 0 is_stmt 1
 2644 0c0a 2046     		mov	r0, r4
 2645 0c0c 0A21     		movs	r1, #10
 2646 0c0e FFF7FEFF 		bl	write_psoc1
 2647              	.LVL218:
 653:.\protocolo.c **** 						print_totalesac(8,val);	
 2648              		.loc 1 653 0
 2649 0c12 0820     		movs	r0, #8
 2650 0c14 2146     		mov	r1, r4
 2651 0c16 FFF7FEFF 		bl	print_totalesac
 2652              	.LVL219:
 654:.\protocolo.c **** 						for(x=0;x<=16;x++){												
 2653              		.loc 1 654 0
 2654 0c1a 0022     		movs	r2, #0
 2655 0c1c 904B     		ldr	r3, .L602+4
 2656 0c1e 1A60     		str	r2, [r3]
 2657 0c20 09E0     		b	.L195
 2658              	.L196:
 655:.\protocolo.c **** 							write_psoc1(val,msn_lecaan[x]);				//LECTURA ANTERIOR
ARM GAS  C:\Users\diego\AppData\Local\Temp\ccwBHTp3.s 			page 62


 2659              		.loc 1 655 0 discriminator 3
 2660 0c22 904A     		ldr	r2, .L602+8
 2661 0c24 1344     		add	r3, r3, r2
 2662 0c26 2046     		mov	r0, r4
 2663 0c28 197E     		ldrb	r1, [r3, #24]	@ zero_extendqisi2
 2664 0c2a FFF7FEFF 		bl	write_psoc1
 2665              	.LVL220:
 654:.\protocolo.c **** 						for(x=0;x<=16;x++){												
 2666              		.loc 1 654 0 discriminator 3
 2667 0c2e 8C4A     		ldr	r2, .L602+4
 2668 0c30 1368     		ldr	r3, [r2]
 2669 0c32 0133     		adds	r3, r3, #1
 2670 0c34 1360     		str	r3, [r2]
 2671              	.L195:
 654:.\protocolo.c **** 						for(x=0;x<=16;x++){												
 2672              		.loc 1 654 0 is_stmt 0 discriminator 1
 2673 0c36 8A4B     		ldr	r3, .L602+4
 2674 0c38 1B68     		ldr	r3, [r3]
 2675 0c3a 102B     		cmp	r3, #16
 2676 0c3c F1D9     		bls	.L196
 656:.\protocolo.c **** 						}
 657:.\protocolo.c **** 						write_psoc1(val,10);
 2677              		.loc 1 657 0 is_stmt 1
 2678 0c3e 2046     		mov	r0, r4
 2679 0c40 0A21     		movs	r1, #10
 2680 0c42 FFF7FEFF 		bl	write_psoc1
 2681              	.LVL221:
 658:.\protocolo.c **** 						if(dir==a.dir){
 2682              		.loc 1 658 0
 2683 0c46 884B     		ldr	r3, .L602+12
 2684 0c48 1B78     		ldrb	r3, [r3]	@ zero_extendqisi2
 2685 0c4a AB42     		cmp	r3, r5
 2686 0c4c 04D1     		bne	.L197
 659:.\protocolo.c **** 							leer_eeprom(217,25);
 2687              		.loc 1 659 0
 2688 0c4e D920     		movs	r0, #217
 2689 0c50 1921     		movs	r1, #25
 2690 0c52 FFF7FEFF 		bl	leer_eeprom
 2691              	.LVL222:
 2692 0c56 04E0     		b	.L198
 2693              	.L197:
 660:.\protocolo.c **** 						}
 661:.\protocolo.c **** 						else{
 662:.\protocolo.c **** 							leer_eeprom(320,25);
 2694              		.loc 1 662 0
 2695 0c58 4FF4A070 		mov	r0, #320
 2696 0c5c 1921     		movs	r1, #25
 2697 0c5e FFF7FEFF 		bl	leer_eeprom
 2698              	.LVL223:
 2699              	.L198:
 663:.\protocolo.c **** 						}
 664:.\protocolo.c **** 						print_totales(val);
 2700              		.loc 1 664 0
 2701 0c62 2046     		mov	r0, r4
 2702 0c64 FFF7FEFF 		bl	print_totales
 2703              	.LVL224:
 665:.\protocolo.c **** 						for(z=1;z<=8;z++){
ARM GAS  C:\Users\diego\AppData\Local\Temp\ccwBHTp3.s 			page 63


 2704              		.loc 1 665 0
 2705 0c68 0122     		movs	r2, #1
 2706 0c6a 804B     		ldr	r3, .L602+16
 2707 0c6c 1A60     		str	r2, [r3]
 2708 0c6e 10E0     		b	.L199
 2709              	.L200:
 666:.\protocolo.c **** 							minuendo[z]=rventa.tdinero[z-1];
 2710              		.loc 1 666 0 discriminator 3
 2711 0c70 7F4A     		ldr	r2, .L602+20
 2712 0c72 1A44     		add	r2, r2, r3
 2713 0c74 92F8CA10 		ldrb	r1, [r2, #202]	@ zero_extendqisi2
 2714 0c78 10AA     		add	r2, sp, #64
 2715 0c7a 1A44     		add	r2, r2, r3
 2716 0c7c 02F82C1C 		strb	r1, [r2, #-44]
 667:.\protocolo.c **** 							sustraendo[z]=buffer_i2c[z+8];
 2717              		.loc 1 667 0 discriminator 3
 2718 0c80 03F10801 		add	r1, r3, #8
 2719 0c84 7B48     		ldr	r0, .L602+24
 2720 0c86 415C     		ldrb	r1, [r0, r1]	@ zero_extendqisi2
 2721 0c88 02F83C1C 		strb	r1, [r2, #-60]
 665:.\protocolo.c **** 						for(z=1;z<=8;z++){
 2722              		.loc 1 665 0 discriminator 3
 2723 0c8c 0133     		adds	r3, r3, #1
 2724 0c8e 774A     		ldr	r2, .L602+16
 2725 0c90 1360     		str	r3, [r2]
 2726              	.L199:
 665:.\protocolo.c **** 						for(z=1;z<=8;z++){
 2727              		.loc 1 665 0 is_stmt 0 discriminator 1
 2728 0c92 764B     		ldr	r3, .L602+16
 2729 0c94 1B68     		ldr	r3, [r3]
 2730 0c96 082B     		cmp	r3, #8
 2731 0c98 EAD9     		bls	.L200
 668:.\protocolo.c **** 						}
 669:.\protocolo.c **** 						minuendo[0]=8;
 2732              		.loc 1 669 0 is_stmt 1
 2733 0c9a 10A9     		add	r1, sp, #64
 2734 0c9c 0823     		movs	r3, #8
 2735 0c9e 01F82C3D 		strb	r3, [r1, #-44]!
 670:.\protocolo.c **** 						operacion(2,minuendo,sustraendo);
 2736              		.loc 1 670 0
 2737 0ca2 0220     		movs	r0, #2
 2738 0ca4 01AA     		add	r2, sp, #4
 2739 0ca6 FFF7FEFF 		bl	operacion
 2740              	.LVL225:
 671:.\protocolo.c **** 						for(x=0;x<=17;x++){									
 2741              		.loc 1 671 0
 2742 0caa 0022     		movs	r2, #0
 2743 0cac 6C4B     		ldr	r3, .L602+4
 2744 0cae 1A60     		str	r2, [r3]
 2745 0cb0 0AE0     		b	.L201
 2746              	.L202:
 672:.\protocolo.c **** 							write_psoc1(val,msn_tventas[x]);				//Total de ventas
 2747              		.loc 1 672 0 discriminator 3
 2748 0cb2 6C4A     		ldr	r2, .L602+8
 2749 0cb4 1344     		add	r3, r3, r2
 2750 0cb6 2046     		mov	r0, r4
 2751 0cb8 93F82C10 		ldrb	r1, [r3, #44]	@ zero_extendqisi2
ARM GAS  C:\Users\diego\AppData\Local\Temp\ccwBHTp3.s 			page 64


 2752 0cbc FFF7FEFF 		bl	write_psoc1
 2753              	.LVL226:
 671:.\protocolo.c **** 						for(x=0;x<=17;x++){									
 2754              		.loc 1 671 0 discriminator 3
 2755 0cc0 674A     		ldr	r2, .L602+4
 2756 0cc2 1368     		ldr	r3, [r2]
 2757 0cc4 0133     		adds	r3, r3, #1
 2758 0cc6 1360     		str	r3, [r2]
 2759              	.L201:
 671:.\protocolo.c **** 						for(x=0;x<=17;x++){									
 2760              		.loc 1 671 0 is_stmt 0 discriminator 1
 2761 0cc8 654B     		ldr	r3, .L602+4
 2762 0cca 1B68     		ldr	r3, [r3]
 2763 0ccc 112B     		cmp	r3, #17
 2764 0cce F0D9     		bls	.L202
 673:.\protocolo.c **** 						}
 674:.\protocolo.c **** 						print_valor(resultado,val);				
 2765              		.loc 1 674 0 is_stmt 1
 2766 0cd0 6948     		ldr	r0, .L602+28
 2767 0cd2 2146     		mov	r1, r4
 2768 0cd4 FFF7FEFF 		bl	print_valor
 2769              	.LVL227:
 675:.\protocolo.c **** 						if(dir==a.dir){
 2770              		.loc 1 675 0
 2771 0cd8 634B     		ldr	r3, .L602+12
 2772 0cda 1B78     		ldrb	r3, [r3]	@ zero_extendqisi2
 2773 0cdc AB42     		cmp	r3, r5
 2774 0cde 09D1     		bne	.L203
 676:.\protocolo.c **** 							write_eeprom(217,corte);
 2775              		.loc 1 676 0
 2776 0ce0 D920     		movs	r0, #217
 2777 0ce2 09A9     		add	r1, sp, #36
 2778 0ce4 FFF7FEFF 		bl	write_eeprom
 2779              	.LVL228:
 677:.\protocolo.c **** 							write_eeprom(538,resultado);
 2780              		.loc 1 677 0
 2781 0ce8 40F21A20 		movw	r0, #538
 2782 0cec 6249     		ldr	r1, .L602+28
 2783 0cee FFF7FEFF 		bl	write_eeprom
 2784              	.LVL229:
 2785 0cf2 09E0     		b	.L188
 2786              	.L203:
 678:.\protocolo.c **** 						}
 679:.\protocolo.c **** 						else{
 680:.\protocolo.c **** 							write_eeprom(320,corte);
 2787              		.loc 1 680 0
 2788 0cf4 4FF4A070 		mov	r0, #320
 2789 0cf8 09A9     		add	r1, sp, #36
 2790 0cfa FFF7FEFF 		bl	write_eeprom
 2791              	.LVL230:
 681:.\protocolo.c **** 							write_eeprom(576,resultado);
 2792              		.loc 1 681 0
 2793 0cfe 4FF41070 		mov	r0, #576
 2794 0d02 5D49     		ldr	r1, .L602+28
 2795 0d04 FFF7FEFF 		bl	write_eeprom
 2796              	.LVL231:
 2797              	.L188:
ARM GAS  C:\Users\diego\AppData\Local\Temp\ccwBHTp3.s 			page 65


 682:.\protocolo.c **** 						}				
 683:.\protocolo.c **** 					}
 684:.\protocolo.c **** 					if(((rventa.manguera==(producto3&0x0F))&&(dir==a.dir))||((rventa.manguera==(producto3b&0x0F))&
 2798              		.loc 1 684 0
 2799 0d08 5C4B     		ldr	r3, .L602+32
 2800 0d0a 93F8E020 		ldrb	r2, [r3, #224]	@ zero_extendqisi2
 2801 0d0e 5C4B     		ldr	r3, .L602+36
 2802 0d10 1B78     		ldrb	r3, [r3]	@ zero_extendqisi2
 2803 0d12 03F00F03 		and	r3, r3, #15
 2804 0d16 9342     		cmp	r3, r2
 2805 0d18 03D1     		bne	.L204
 2806              		.loc 1 684 0 is_stmt 0 discriminator 1
 2807 0d1a 534B     		ldr	r3, .L602+12
 2808 0d1c 1B78     		ldrb	r3, [r3]	@ zero_extendqisi2
 2809 0d1e AB42     		cmp	r3, r5
 2810 0d20 0BD0     		beq	.L205
 2811              	.L204:
 2812              		.loc 1 684 0 discriminator 3
 2813 0d22 584B     		ldr	r3, .L602+40
 2814 0d24 1B78     		ldrb	r3, [r3]	@ zero_extendqisi2
 2815 0d26 03F00F03 		and	r3, r3, #15
 2816 0d2a 9A42     		cmp	r2, r3
 2817 0d2c 40F0DC80 		bne	.L206
 2818              		.loc 1 684 0 discriminator 4
 2819 0d30 554B     		ldr	r3, .L602+44
 2820 0d32 1B78     		ldrb	r3, [r3]	@ zero_extendqisi2
 2821 0d34 AB42     		cmp	r3, r5
 2822 0d36 40F0D780 		bne	.L206
 2823              	.L205:
 685:.\protocolo.c **** 						for(x=0;x<=5;x++){									
 2824              		.loc 1 685 0 is_stmt 1
 2825 0d3a 0022     		movs	r2, #0
 2826 0d3c 484B     		ldr	r3, .L602+4
 2827 0d3e 1A60     		str	r2, [r3]
 2828 0d40 08E0     		b	.L207
 2829              	.L208:
 686:.\protocolo.c **** 						    write_psoc1(val,msn_tc[x]);
 2830              		.loc 1 686 0 discriminator 3
 2831 0d42 2046     		mov	r0, r4
 2832 0d44 474A     		ldr	r2, .L602+8
 2833 0d46 D15C     		ldrb	r1, [r2, r3]	@ zero_extendqisi2
 2834 0d48 FFF7FEFF 		bl	write_psoc1
 2835              	.LVL232:
 685:.\protocolo.c **** 						for(x=0;x<=5;x++){									
 2836              		.loc 1 685 0 discriminator 3
 2837 0d4c 444A     		ldr	r2, .L602+4
 2838 0d4e 1368     		ldr	r3, [r2]
 2839 0d50 0133     		adds	r3, r3, #1
 2840 0d52 1360     		str	r3, [r2]
 2841              	.L207:
 685:.\protocolo.c **** 						for(x=0;x<=5;x++){									
 2842              		.loc 1 685 0 is_stmt 0 discriminator 1
 2843 0d54 424B     		ldr	r3, .L602+4
 2844 0d56 1B68     		ldr	r3, [r3]
 2845 0d58 052B     		cmp	r3, #5
 2846 0d5a F2D9     		bls	.L208
 687:.\protocolo.c **** 					    }
ARM GAS  C:\Users\diego\AppData\Local\Temp\ccwBHTp3.s 			page 66


 688:.\protocolo.c **** 					    write_psoc1(val,10);
 2847              		.loc 1 688 0 is_stmt 1
 2848 0d5c 2046     		mov	r0, r4
 2849 0d5e 0A21     		movs	r1, #10
 2850 0d60 FFF7FEFF 		bl	write_psoc1
 2851              	.LVL233:
 689:.\protocolo.c ****                         for(x=0;x<=10;x++){									
 2852              		.loc 1 689 0
 2853 0d64 0022     		movs	r2, #0
 2854 0d66 3E4B     		ldr	r3, .L602+4
 2855 0d68 1A60     		str	r2, [r3]
 2856 0d6a 08E0     		b	.L209
 2857              	.L210:
 690:.\protocolo.c **** 						    write_psoc1(val,producto3n[x]);
 2858              		.loc 1 690 0 discriminator 3
 2859 0d6c 2046     		mov	r0, r4
 2860 0d6e 474A     		ldr	r2, .L602+48
 2861 0d70 D15C     		ldrb	r1, [r2, r3]	@ zero_extendqisi2
 2862 0d72 FFF7FEFF 		bl	write_psoc1
 2863              	.LVL234:
 689:.\protocolo.c ****                         for(x=0;x<=10;x++){									
 2864              		.loc 1 689 0 discriminator 3
 2865 0d76 3A4A     		ldr	r2, .L602+4
 2866 0d78 1368     		ldr	r3, [r2]
 2867 0d7a 0133     		adds	r3, r3, #1
 2868 0d7c 1360     		str	r3, [r2]
 2869              	.L209:
 689:.\protocolo.c ****                         for(x=0;x<=10;x++){									
 2870              		.loc 1 689 0 is_stmt 0 discriminator 1
 2871 0d7e 384B     		ldr	r3, .L602+4
 2872 0d80 1B68     		ldr	r3, [r3]
 2873 0d82 0A2B     		cmp	r3, #10
 2874 0d84 F2D9     		bls	.L210
 691:.\protocolo.c **** 					    }
 692:.\protocolo.c ****                         write_psoc1(val,10);
 2875              		.loc 1 692 0 is_stmt 1
 2876 0d86 2046     		mov	r0, r4
 2877 0d88 0A21     		movs	r1, #10
 2878 0d8a FFF7FEFF 		bl	write_psoc1
 2879              	.LVL235:
 693:.\protocolo.c **** 						for(x=0;x<=14;x++){									
 2880              		.loc 1 693 0
 2881 0d8e 0022     		movs	r2, #0
 2882 0d90 334B     		ldr	r3, .L602+4
 2883 0d92 1A60     		str	r2, [r3]
 2884 0d94 09E0     		b	.L211
 2885              	.L212:
 694:.\protocolo.c **** 							write_psoc1(val,msn_lecact[x]);				//LECTURA ACTUAL
 2886              		.loc 1 694 0 discriminator 3
 2887 0d96 334A     		ldr	r2, .L602+8
 2888 0d98 1344     		add	r3, r3, r2
 2889 0d9a 2046     		mov	r0, r4
 2890 0d9c 197A     		ldrb	r1, [r3, #8]	@ zero_extendqisi2
 2891 0d9e FFF7FEFF 		bl	write_psoc1
 2892              	.LVL236:
 693:.\protocolo.c **** 						for(x=0;x<=14;x++){									
 2893              		.loc 1 693 0 discriminator 3
ARM GAS  C:\Users\diego\AppData\Local\Temp\ccwBHTp3.s 			page 67


 2894 0da2 2F4A     		ldr	r2, .L602+4
 2895 0da4 1368     		ldr	r3, [r2]
 2896 0da6 0133     		adds	r3, r3, #1
 2897 0da8 1360     		str	r3, [r2]
 2898              	.L211:
 693:.\protocolo.c **** 						for(x=0;x<=14;x++){									
 2899              		.loc 1 693 0 is_stmt 0 discriminator 1
 2900 0daa 2D4B     		ldr	r3, .L602+4
 2901 0dac 1B68     		ldr	r3, [r3]
 2902 0dae 0E2B     		cmp	r3, #14
 2903 0db0 F1D9     		bls	.L212
 695:.\protocolo.c **** 						}
 696:.\protocolo.c **** 						write_psoc1(val,10);
 2904              		.loc 1 696 0 is_stmt 1
 2905 0db2 2046     		mov	r0, r4
 2906 0db4 0A21     		movs	r1, #10
 2907 0db6 FFF7FEFF 		bl	write_psoc1
 2908              	.LVL237:
 697:.\protocolo.c **** 						print_totalesac(8,val);	
 2909              		.loc 1 697 0
 2910 0dba 0820     		movs	r0, #8
 2911 0dbc 2146     		mov	r1, r4
 2912 0dbe FFF7FEFF 		bl	print_totalesac
 2913              	.LVL238:
 698:.\protocolo.c **** 						for(x=0;x<=16;x++){												
 2914              		.loc 1 698 0
 2915 0dc2 0022     		movs	r2, #0
 2916 0dc4 264B     		ldr	r3, .L602+4
 2917 0dc6 1A60     		str	r2, [r3]
 2918 0dc8 09E0     		b	.L213
 2919              	.L214:
 699:.\protocolo.c **** 							write_psoc1(val,msn_lecaan[x]);				//LECTURA ANTERIOR
 2920              		.loc 1 699 0 discriminator 3
 2921 0dca 264A     		ldr	r2, .L602+8
 2922 0dcc 1344     		add	r3, r3, r2
 2923 0dce 2046     		mov	r0, r4
 2924 0dd0 197E     		ldrb	r1, [r3, #24]	@ zero_extendqisi2
 2925 0dd2 FFF7FEFF 		bl	write_psoc1
 2926              	.LVL239:
 698:.\protocolo.c **** 						for(x=0;x<=16;x++){												
 2927              		.loc 1 698 0 discriminator 3
 2928 0dd6 224A     		ldr	r2, .L602+4
 2929 0dd8 1368     		ldr	r3, [r2]
 2930 0dda 0133     		adds	r3, r3, #1
 2931 0ddc 1360     		str	r3, [r2]
 2932              	.L213:
 698:.\protocolo.c **** 						for(x=0;x<=16;x++){												
 2933              		.loc 1 698 0 is_stmt 0 discriminator 1
 2934 0dde 204B     		ldr	r3, .L602+4
 2935 0de0 1B68     		ldr	r3, [r3]
 2936 0de2 102B     		cmp	r3, #16
 2937 0de4 F1D9     		bls	.L214
 700:.\protocolo.c **** 						}
 701:.\protocolo.c **** 						write_psoc1(val,10);
 2938              		.loc 1 701 0 is_stmt 1
 2939 0de6 2046     		mov	r0, r4
 2940 0de8 0A21     		movs	r1, #10
ARM GAS  C:\Users\diego\AppData\Local\Temp\ccwBHTp3.s 			page 68


 2941 0dea FFF7FEFF 		bl	write_psoc1
 2942              	.LVL240:
 702:.\protocolo.c **** 						if(dir==a.dir){
 2943              		.loc 1 702 0
 2944 0dee 1E4B     		ldr	r3, .L602+12
 2945 0df0 1B78     		ldrb	r3, [r3]	@ zero_extendqisi2
 2946 0df2 AB42     		cmp	r3, r5
 2947 0df4 05D1     		bne	.L215
 703:.\protocolo.c **** 							leer_eeprom(256,25);
 2948              		.loc 1 703 0
 2949 0df6 4FF48070 		mov	r0, #256
 2950 0dfa 1921     		movs	r1, #25
 2951 0dfc FFF7FEFF 		bl	leer_eeprom
 2952              	.LVL241:
 2953 0e00 04E0     		b	.L216
 2954              	.L215:
 704:.\protocolo.c **** 						}
 705:.\protocolo.c **** 						else{
 706:.\protocolo.c **** 							leer_eeprom(345,25);
 2955              		.loc 1 706 0
 2956 0e02 40F25910 		movw	r0, #345
 2957 0e06 1921     		movs	r1, #25
 2958 0e08 FFF7FEFF 		bl	leer_eeprom
 2959              	.LVL242:
 2960              	.L216:
 707:.\protocolo.c **** 						}
 708:.\protocolo.c **** 						print_totales(val);
 2961              		.loc 1 708 0
 2962 0e0c 2046     		mov	r0, r4
 2963 0e0e FFF7FEFF 		bl	print_totales
 2964              	.LVL243:
 709:.\protocolo.c **** 						for(z=1;z<=8;z++){
 2965              		.loc 1 709 0
 2966 0e12 0122     		movs	r2, #1
 2967 0e14 154B     		ldr	r3, .L602+16
 2968 0e16 1A60     		str	r2, [r3]
 2969 0e18 10E0     		b	.L217
 2970              	.L218:
 710:.\protocolo.c **** 							minuendo[z]=rventa.tdinero[z-1];
 2971              		.loc 1 710 0 discriminator 3
 2972 0e1a 154A     		ldr	r2, .L602+20
 2973 0e1c 1A44     		add	r2, r2, r3
 2974 0e1e 92F8CA10 		ldrb	r1, [r2, #202]	@ zero_extendqisi2
 2975 0e22 10AA     		add	r2, sp, #64
 2976 0e24 1A44     		add	r2, r2, r3
 2977 0e26 02F82C1C 		strb	r1, [r2, #-44]
 711:.\protocolo.c **** 							sustraendo[z]=buffer_i2c[z+8];
 2978              		.loc 1 711 0 discriminator 3
 2979 0e2a 03F10801 		add	r1, r3, #8
 2980 0e2e 1148     		ldr	r0, .L602+24
 2981 0e30 415C     		ldrb	r1, [r0, r1]	@ zero_extendqisi2
 2982 0e32 02F83C1C 		strb	r1, [r2, #-60]
 709:.\protocolo.c **** 						for(z=1;z<=8;z++){
 2983              		.loc 1 709 0 discriminator 3
 2984 0e36 0133     		adds	r3, r3, #1
 2985 0e38 0C4A     		ldr	r2, .L602+16
 2986 0e3a 1360     		str	r3, [r2]
ARM GAS  C:\Users\diego\AppData\Local\Temp\ccwBHTp3.s 			page 69


 2987              	.L217:
 709:.\protocolo.c **** 						for(z=1;z<=8;z++){
 2988              		.loc 1 709 0 is_stmt 0 discriminator 1
 2989 0e3c 0B4B     		ldr	r3, .L602+16
 2990 0e3e 1B68     		ldr	r3, [r3]
 2991 0e40 082B     		cmp	r3, #8
 2992 0e42 EAD9     		bls	.L218
 712:.\protocolo.c **** 						}
 713:.\protocolo.c **** 						minuendo[0]=8;
 2993              		.loc 1 713 0 is_stmt 1
 2994 0e44 10A9     		add	r1, sp, #64
 2995 0e46 0823     		movs	r3, #8
 2996 0e48 01F82C3D 		strb	r3, [r1, #-44]!
 714:.\protocolo.c **** 						operacion(2,minuendo,sustraendo);
 2997              		.loc 1 714 0
 2998 0e4c 0220     		movs	r0, #2
 2999 0e4e 01AA     		add	r2, sp, #4
 3000 0e50 FFF7FEFF 		bl	operacion
 3001              	.LVL244:
 715:.\protocolo.c **** 						for(x=0;x<=17;x++){									
 3002              		.loc 1 715 0
 3003 0e54 0022     		movs	r2, #0
 3004 0e56 024B     		ldr	r3, .L602+4
 3005 0e58 1A60     		str	r2, [r3]
 3006 0e5a 24E0     		b	.L219
 3007              	.L603:
 3008              		.align	2
 3009              	.L602:
 3010 0e5c 00000000 		.word	producto2n
 3011 0e60 00000000 		.word	x
 3012 0e64 00000000 		.word	.LANCHOR1
 3013 0e68 00000000 		.word	a
 3014 0e6c 00000000 		.word	z
 3015 0e70 FFFFFFFF 		.word	rventa-1
 3016 0e74 00000000 		.word	buffer_i2c
 3017 0e78 00000000 		.word	resultado
 3018 0e7c 00000000 		.word	rventa
 3019 0e80 00000000 		.word	producto3
 3020 0e84 00000000 		.word	producto3b
 3021 0e88 00000000 		.word	b
 3022 0e8c 00000000 		.word	producto3n
 3023              	.L220:
 716:.\protocolo.c **** 							write_psoc1(val,msn_tventas[x]);				//Total de ventas
 3024              		.loc 1 716 0 discriminator 3
 3025 0e90 A74A     		ldr	r2, .L604
 3026 0e92 1344     		add	r3, r3, r2
 3027 0e94 2046     		mov	r0, r4
 3028 0e96 93F82C10 		ldrb	r1, [r3, #44]	@ zero_extendqisi2
 3029 0e9a FFF7FEFF 		bl	write_psoc1
 3030              	.LVL245:
 715:.\protocolo.c **** 						for(x=0;x<=17;x++){									
 3031              		.loc 1 715 0 discriminator 3
 3032 0e9e A54A     		ldr	r2, .L604+4
 3033 0ea0 1368     		ldr	r3, [r2]
 3034 0ea2 0133     		adds	r3, r3, #1
 3035 0ea4 1360     		str	r3, [r2]
 3036              	.L219:
ARM GAS  C:\Users\diego\AppData\Local\Temp\ccwBHTp3.s 			page 70


 715:.\protocolo.c **** 						for(x=0;x<=17;x++){									
 3037              		.loc 1 715 0 is_stmt 0 discriminator 1
 3038 0ea6 A34B     		ldr	r3, .L604+4
 3039 0ea8 1B68     		ldr	r3, [r3]
 3040 0eaa 112B     		cmp	r3, #17
 3041 0eac F0D9     		bls	.L220
 717:.\protocolo.c **** 						}
 718:.\protocolo.c **** 						print_valor(resultado,val);							
 3042              		.loc 1 718 0 is_stmt 1
 3043 0eae A248     		ldr	r0, .L604+8
 3044 0eb0 2146     		mov	r1, r4
 3045 0eb2 FFF7FEFF 		bl	print_valor
 3046              	.LVL246:
 719:.\protocolo.c **** 						if(dir==a.dir){
 3047              		.loc 1 719 0
 3048 0eb6 A14B     		ldr	r3, .L604+12
 3049 0eb8 1B78     		ldrb	r3, [r3]	@ zero_extendqisi2
 3050 0eba AB42     		cmp	r3, r5
 3051 0ebc 0AD1     		bne	.L221
 720:.\protocolo.c **** 							write_eeprom(256,corte);
 3052              		.loc 1 720 0
 3053 0ebe 4FF48070 		mov	r0, #256
 3054 0ec2 09A9     		add	r1, sp, #36
 3055 0ec4 FFF7FEFF 		bl	write_eeprom
 3056              	.LVL247:
 721:.\protocolo.c **** 							write_eeprom(525,resultado);
 3057              		.loc 1 721 0
 3058 0ec8 40F20D20 		movw	r0, #525
 3059 0ecc 9A49     		ldr	r1, .L604+8
 3060 0ece FFF7FEFF 		bl	write_eeprom
 3061              	.LVL248:
 3062 0ed2 09E0     		b	.L206
 3063              	.L221:
 722:.\protocolo.c **** 						}
 723:.\protocolo.c **** 						else{
 724:.\protocolo.c **** 							write_eeprom(345,corte);
 3064              		.loc 1 724 0
 3065 0ed4 40F25910 		movw	r0, #345
 3066 0ed8 09A9     		add	r1, sp, #36
 3067 0eda FFF7FEFF 		bl	write_eeprom
 3068              	.LVL249:
 725:.\protocolo.c **** 							write_eeprom(589,resultado);
 3069              		.loc 1 725 0
 3070 0ede 40F24D20 		movw	r0, #589
 3071 0ee2 9549     		ldr	r1, .L604+8
 3072 0ee4 FFF7FEFF 		bl	write_eeprom
 3073              	.LVL250:
 3074              	.L206:
 726:.\protocolo.c **** 						}					
 727:.\protocolo.c **** 					}	
 728:.\protocolo.c ****                     
 729:.\protocolo.c ****                     if(((rventa.manguera==(producto4&0x0F))&&(dir==a.dir))||((rventa.manguera==(pro
 3075              		.loc 1 729 0
 3076 0ee8 954B     		ldr	r3, .L604+16
 3077 0eea 93F8E020 		ldrb	r2, [r3, #224]	@ zero_extendqisi2
 3078 0eee 954B     		ldr	r3, .L604+20
 3079 0ef0 1B78     		ldrb	r3, [r3]	@ zero_extendqisi2
ARM GAS  C:\Users\diego\AppData\Local\Temp\ccwBHTp3.s 			page 71


 3080 0ef2 03F00F03 		and	r3, r3, #15
 3081 0ef6 9342     		cmp	r3, r2
 3082 0ef8 03D1     		bne	.L222
 3083              		.loc 1 729 0 is_stmt 0 discriminator 1
 3084 0efa 904B     		ldr	r3, .L604+12
 3085 0efc 1B78     		ldrb	r3, [r3]	@ zero_extendqisi2
 3086 0efe AB42     		cmp	r3, r5
 3087 0f00 0BD0     		beq	.L223
 3088              	.L222:
 3089              		.loc 1 729 0 discriminator 3
 3090 0f02 914B     		ldr	r3, .L604+24
 3091 0f04 1B78     		ldrb	r3, [r3]	@ zero_extendqisi2
 3092 0f06 03F00F03 		and	r3, r3, #15
 3093 0f0a 9A42     		cmp	r2, r3
 3094 0f0c 40F0C280 		bne	.L224
 3095              		.loc 1 729 0 discriminator 4
 3096 0f10 8E4B     		ldr	r3, .L604+28
 3097 0f12 1B78     		ldrb	r3, [r3]	@ zero_extendqisi2
 3098 0f14 AB42     		cmp	r3, r5
 3099 0f16 40F0BD80 		bne	.L224
 3100              	.L223:
 730:.\protocolo.c **** 						for(x=0;x<=5;x++){									
 3101              		.loc 1 730 0 is_stmt 1
 3102 0f1a 0022     		movs	r2, #0
 3103 0f1c 854B     		ldr	r3, .L604+4
 3104 0f1e 1A60     		str	r2, [r3]
 3105 0f20 08E0     		b	.L225
 3106              	.L226:
 731:.\protocolo.c **** 						    write_psoc1(val,msn_tc[x]);
 3107              		.loc 1 731 0 discriminator 3
 3108 0f22 2046     		mov	r0, r4
 3109 0f24 824A     		ldr	r2, .L604
 3110 0f26 D15C     		ldrb	r1, [r2, r3]	@ zero_extendqisi2
 3111 0f28 FFF7FEFF 		bl	write_psoc1
 3112              	.LVL251:
 730:.\protocolo.c **** 						for(x=0;x<=5;x++){									
 3113              		.loc 1 730 0 discriminator 3
 3114 0f2c 814A     		ldr	r2, .L604+4
 3115 0f2e 1368     		ldr	r3, [r2]
 3116 0f30 0133     		adds	r3, r3, #1
 3117 0f32 1360     		str	r3, [r2]
 3118              	.L225:
 730:.\protocolo.c **** 						for(x=0;x<=5;x++){									
 3119              		.loc 1 730 0 is_stmt 0 discriminator 1
 3120 0f34 7F4B     		ldr	r3, .L604+4
 3121 0f36 1B68     		ldr	r3, [r3]
 3122 0f38 052B     		cmp	r3, #5
 3123 0f3a F2D9     		bls	.L226
 732:.\protocolo.c **** 					    }
 733:.\protocolo.c **** 					    write_psoc1(val,10);
 3124              		.loc 1 733 0 is_stmt 1
 3125 0f3c 2046     		mov	r0, r4
 3126 0f3e 0A21     		movs	r1, #10
 3127 0f40 FFF7FEFF 		bl	write_psoc1
 3128              	.LVL252:
 734:.\protocolo.c ****                         for(x=0;x<=10;x++){									
 3129              		.loc 1 734 0
ARM GAS  C:\Users\diego\AppData\Local\Temp\ccwBHTp3.s 			page 72


 3130 0f44 0022     		movs	r2, #0
 3131 0f46 7B4B     		ldr	r3, .L604+4
 3132 0f48 1A60     		str	r2, [r3]
 3133 0f4a 08E0     		b	.L227
 3134              	.L228:
 735:.\protocolo.c **** 						    write_psoc1(val,producto4n[x]);
 3135              		.loc 1 735 0 discriminator 3
 3136 0f4c 2046     		mov	r0, r4
 3137 0f4e 804A     		ldr	r2, .L604+32
 3138 0f50 D15C     		ldrb	r1, [r2, r3]	@ zero_extendqisi2
 3139 0f52 FFF7FEFF 		bl	write_psoc1
 3140              	.LVL253:
 734:.\protocolo.c ****                         for(x=0;x<=10;x++){									
 3141              		.loc 1 734 0 discriminator 3
 3142 0f56 774A     		ldr	r2, .L604+4
 3143 0f58 1368     		ldr	r3, [r2]
 3144 0f5a 0133     		adds	r3, r3, #1
 3145 0f5c 1360     		str	r3, [r2]
 3146              	.L227:
 734:.\protocolo.c ****                         for(x=0;x<=10;x++){									
 3147              		.loc 1 734 0 is_stmt 0 discriminator 1
 3148 0f5e 754B     		ldr	r3, .L604+4
 3149 0f60 1B68     		ldr	r3, [r3]
 3150 0f62 0A2B     		cmp	r3, #10
 3151 0f64 F2D9     		bls	.L228
 736:.\protocolo.c **** 					    }
 737:.\protocolo.c ****                         write_psoc1(val,10);
 3152              		.loc 1 737 0 is_stmt 1
 3153 0f66 2046     		mov	r0, r4
 3154 0f68 0A21     		movs	r1, #10
 3155 0f6a FFF7FEFF 		bl	write_psoc1
 3156              	.LVL254:
 738:.\protocolo.c **** 						for(x=0;x<=14;x++){									
 3157              		.loc 1 738 0
 3158 0f6e 0022     		movs	r2, #0
 3159 0f70 704B     		ldr	r3, .L604+4
 3160 0f72 1A60     		str	r2, [r3]
 3161 0f74 09E0     		b	.L229
 3162              	.L230:
 739:.\protocolo.c **** 							write_psoc1(val,msn_lecact[x]);				//LECTURA ACTUAL
 3163              		.loc 1 739 0 discriminator 3
 3164 0f76 6E4A     		ldr	r2, .L604
 3165 0f78 1344     		add	r3, r3, r2
 3166 0f7a 2046     		mov	r0, r4
 3167 0f7c 197A     		ldrb	r1, [r3, #8]	@ zero_extendqisi2
 3168 0f7e FFF7FEFF 		bl	write_psoc1
 3169              	.LVL255:
 738:.\protocolo.c **** 						for(x=0;x<=14;x++){									
 3170              		.loc 1 738 0 discriminator 3
 3171 0f82 6C4A     		ldr	r2, .L604+4
 3172 0f84 1368     		ldr	r3, [r2]
 3173 0f86 0133     		adds	r3, r3, #1
 3174 0f88 1360     		str	r3, [r2]
 3175              	.L229:
 738:.\protocolo.c **** 						for(x=0;x<=14;x++){									
 3176              		.loc 1 738 0 is_stmt 0 discriminator 1
 3177 0f8a 6A4B     		ldr	r3, .L604+4
ARM GAS  C:\Users\diego\AppData\Local\Temp\ccwBHTp3.s 			page 73


 3178 0f8c 1B68     		ldr	r3, [r3]
 3179 0f8e 0E2B     		cmp	r3, #14
 3180 0f90 F1D9     		bls	.L230
 740:.\protocolo.c **** 						}
 741:.\protocolo.c **** 						write_psoc1(val,10);
 3181              		.loc 1 741 0 is_stmt 1
 3182 0f92 2046     		mov	r0, r4
 3183 0f94 0A21     		movs	r1, #10
 3184 0f96 FFF7FEFF 		bl	write_psoc1
 3185              	.LVL256:
 742:.\protocolo.c **** 						print_totalesac(8,val);	
 3186              		.loc 1 742 0
 3187 0f9a 0820     		movs	r0, #8
 3188 0f9c 2146     		mov	r1, r4
 3189 0f9e FFF7FEFF 		bl	print_totalesac
 3190              	.LVL257:
 743:.\protocolo.c **** 						for(x=0;x<=16;x++){												
 3191              		.loc 1 743 0
 3192 0fa2 0022     		movs	r2, #0
 3193 0fa4 634B     		ldr	r3, .L604+4
 3194 0fa6 1A60     		str	r2, [r3]
 3195 0fa8 09E0     		b	.L231
 3196              	.L232:
 744:.\protocolo.c **** 							write_psoc1(val,msn_lecaan[x]);				//LECTURA ANTERIOR
 3197              		.loc 1 744 0 discriminator 3
 3198 0faa 614A     		ldr	r2, .L604
 3199 0fac 1344     		add	r3, r3, r2
 3200 0fae 2046     		mov	r0, r4
 3201 0fb0 197E     		ldrb	r1, [r3, #24]	@ zero_extendqisi2
 3202 0fb2 FFF7FEFF 		bl	write_psoc1
 3203              	.LVL258:
 743:.\protocolo.c **** 						for(x=0;x<=16;x++){												
 3204              		.loc 1 743 0 discriminator 3
 3205 0fb6 5F4A     		ldr	r2, .L604+4
 3206 0fb8 1368     		ldr	r3, [r2]
 3207 0fba 0133     		adds	r3, r3, #1
 3208 0fbc 1360     		str	r3, [r2]
 3209              	.L231:
 743:.\protocolo.c **** 						for(x=0;x<=16;x++){												
 3210              		.loc 1 743 0 is_stmt 0 discriminator 1
 3211 0fbe 5D4B     		ldr	r3, .L604+4
 3212 0fc0 1B68     		ldr	r3, [r3]
 3213 0fc2 102B     		cmp	r3, #16
 3214 0fc4 F1D9     		bls	.L232
 745:.\protocolo.c **** 						}
 746:.\protocolo.c **** 						write_psoc1(val,10);
 3215              		.loc 1 746 0 is_stmt 1
 3216 0fc6 2046     		mov	r0, r4
 3217 0fc8 0A21     		movs	r1, #10
 3218 0fca FFF7FEFF 		bl	write_psoc1
 3219              	.LVL259:
 747:.\protocolo.c **** 						if(dir==a.dir){
 3220              		.loc 1 747 0
 3221 0fce 5B4B     		ldr	r3, .L604+12
 3222 0fd0 1B78     		ldrb	r3, [r3]	@ zero_extendqisi2
 3223 0fd2 AB42     		cmp	r3, r5
 3224 0fd4 05D1     		bne	.L233
ARM GAS  C:\Users\diego\AppData\Local\Temp\ccwBHTp3.s 			page 74


 748:.\protocolo.c **** 							leer_eeprom(1096,25);
 3225              		.loc 1 748 0
 3226 0fd6 4FF48960 		mov	r0, #1096
 3227 0fda 1921     		movs	r1, #25
 3228 0fdc FFF7FEFF 		bl	leer_eeprom
 3229              	.LVL260:
 3230 0fe0 04E0     		b	.L234
 3231              	.L233:
 749:.\protocolo.c **** 						}
 750:.\protocolo.c **** 						else{
 751:.\protocolo.c **** 							leer_eeprom(1054,25);
 3232              		.loc 1 751 0
 3233 0fe2 40F21E40 		movw	r0, #1054
 3234 0fe6 1921     		movs	r1, #25
 3235 0fe8 FFF7FEFF 		bl	leer_eeprom
 3236              	.LVL261:
 3237              	.L234:
 752:.\protocolo.c **** 						}
 753:.\protocolo.c **** 						print_totales(val);
 3238              		.loc 1 753 0
 3239 0fec 2046     		mov	r0, r4
 3240 0fee FFF7FEFF 		bl	print_totales
 3241              	.LVL262:
 754:.\protocolo.c **** 						for(z=1;z<=8;z++){
 3242              		.loc 1 754 0
 3243 0ff2 0122     		movs	r2, #1
 3244 0ff4 574B     		ldr	r3, .L604+36
 3245 0ff6 1A60     		str	r2, [r3]
 3246 0ff8 10E0     		b	.L235
 3247              	.L236:
 755:.\protocolo.c **** 							minuendo[z]=rventa.tdinero[z-1];
 3248              		.loc 1 755 0 discriminator 3
 3249 0ffa 574A     		ldr	r2, .L604+40
 3250 0ffc 1A44     		add	r2, r2, r3
 3251 0ffe 92F8CA10 		ldrb	r1, [r2, #202]	@ zero_extendqisi2
 3252 1002 10AA     		add	r2, sp, #64
 3253 1004 1A44     		add	r2, r2, r3
 3254 1006 02F82C1C 		strb	r1, [r2, #-44]
 756:.\protocolo.c **** 							sustraendo[z]=buffer_i2c[z+8];
 3255              		.loc 1 756 0 discriminator 3
 3256 100a 03F10801 		add	r1, r3, #8
 3257 100e 5348     		ldr	r0, .L604+44
 3258 1010 415C     		ldrb	r1, [r0, r1]	@ zero_extendqisi2
 3259 1012 02F83C1C 		strb	r1, [r2, #-60]
 754:.\protocolo.c **** 						for(z=1;z<=8;z++){
 3260              		.loc 1 754 0 discriminator 3
 3261 1016 0133     		adds	r3, r3, #1
 3262 1018 4E4A     		ldr	r2, .L604+36
 3263 101a 1360     		str	r3, [r2]
 3264              	.L235:
 754:.\protocolo.c **** 						for(z=1;z<=8;z++){
 3265              		.loc 1 754 0 is_stmt 0 discriminator 1
 3266 101c 4D4B     		ldr	r3, .L604+36
 3267 101e 1B68     		ldr	r3, [r3]
 3268 1020 082B     		cmp	r3, #8
 3269 1022 EAD9     		bls	.L236
 757:.\protocolo.c **** 						}
ARM GAS  C:\Users\diego\AppData\Local\Temp\ccwBHTp3.s 			page 75


 758:.\protocolo.c **** 						minuendo[0]=8;
 3270              		.loc 1 758 0 is_stmt 1
 3271 1024 10A9     		add	r1, sp, #64
 3272 1026 0823     		movs	r3, #8
 3273 1028 01F82C3D 		strb	r3, [r1, #-44]!
 759:.\protocolo.c **** 						operacion(2,minuendo,sustraendo);
 3274              		.loc 1 759 0
 3275 102c 0220     		movs	r0, #2
 3276 102e 01AA     		add	r2, sp, #4
 3277 1030 FFF7FEFF 		bl	operacion
 3278              	.LVL263:
 760:.\protocolo.c **** 						for(x=0;x<=17;x++){									
 3279              		.loc 1 760 0
 3280 1034 0022     		movs	r2, #0
 3281 1036 3F4B     		ldr	r3, .L604+4
 3282 1038 1A60     		str	r2, [r3]
 3283 103a 0AE0     		b	.L237
 3284              	.L238:
 761:.\protocolo.c **** 							write_psoc1(val,msn_tventas[x]);				//Total de ventas
 3285              		.loc 1 761 0 discriminator 3
 3286 103c 3C4A     		ldr	r2, .L604
 3287 103e 1344     		add	r3, r3, r2
 3288 1040 2046     		mov	r0, r4
 3289 1042 93F82C10 		ldrb	r1, [r3, #44]	@ zero_extendqisi2
 3290 1046 FFF7FEFF 		bl	write_psoc1
 3291              	.LVL264:
 760:.\protocolo.c **** 						for(x=0;x<=17;x++){									
 3292              		.loc 1 760 0 discriminator 3
 3293 104a 3A4A     		ldr	r2, .L604+4
 3294 104c 1368     		ldr	r3, [r2]
 3295 104e 0133     		adds	r3, r3, #1
 3296 1050 1360     		str	r3, [r2]
 3297              	.L237:
 760:.\protocolo.c **** 						for(x=0;x<=17;x++){									
 3298              		.loc 1 760 0 is_stmt 0 discriminator 1
 3299 1052 384B     		ldr	r3, .L604+4
 3300 1054 1B68     		ldr	r3, [r3]
 3301 1056 112B     		cmp	r3, #17
 3302 1058 F0D9     		bls	.L238
 762:.\protocolo.c **** 						}
 763:.\protocolo.c **** 						print_valor(resultado,val);							
 3303              		.loc 1 763 0 is_stmt 1
 3304 105a 3748     		ldr	r0, .L604+8
 3305 105c 2146     		mov	r1, r4
 3306 105e FFF7FEFF 		bl	print_valor
 3307              	.LVL265:
 764:.\protocolo.c **** 						if(dir==a.dir){
 3308              		.loc 1 764 0
 3309 1062 364B     		ldr	r3, .L604+12
 3310 1064 1B78     		ldrb	r3, [r3]	@ zero_extendqisi2
 3311 1066 AB42     		cmp	r3, r5
 3312 1068 0AD1     		bne	.L239
 765:.\protocolo.c **** 						    write_eeprom(1096,corte);
 3313              		.loc 1 765 0
 3314 106a 4FF48960 		mov	r0, #1096
 3315 106e 09A9     		add	r1, sp, #36
 3316 1070 FFF7FEFF 		bl	write_eeprom
ARM GAS  C:\Users\diego\AppData\Local\Temp\ccwBHTp3.s 			page 76


 3317              	.LVL266:
 766:.\protocolo.c **** 						    write_eeprom(1038,resultado);
 3318              		.loc 1 766 0
 3319 1074 40F20E40 		movw	r0, #1038
 3320 1078 2F49     		ldr	r1, .L604+8
 3321 107a FFF7FEFF 		bl	write_eeprom
 3322              	.LVL267:
 3323 107e 09E0     		b	.L224
 3324              	.L239:
 767:.\protocolo.c **** 					    }
 768:.\protocolo.c **** 					    else{
 769:.\protocolo.c **** 						    write_eeprom(1054,corte);
 3325              		.loc 1 769 0
 3326 1080 40F21E40 		movw	r0, #1054
 3327 1084 09A9     		add	r1, sp, #36
 3328 1086 FFF7FEFF 		bl	write_eeprom
 3329              	.LVL268:
 770:.\protocolo.c **** 						    write_eeprom(1081,resultado);
 3330              		.loc 1 770 0
 3331 108a 40F23940 		movw	r0, #1081
 3332 108e 2A49     		ldr	r1, .L604+8
 3333 1090 FFF7FEFF 		bl	write_eeprom
 3334              	.LVL269:
 3335              	.L224:
 580:.\protocolo.c **** 					rventa.manguera=(Surtidor_rxBuffer[y+2]&0x0F)+1;
 3336              		.loc 1 580 0 discriminator 2
 3337 1094 324A     		ldr	r2, .L604+48
 3338 1096 1368     		ldr	r3, [r2]
 3339 1098 1E33     		adds	r3, r3, #30
 3340 109a 1360     		str	r3, [r2]
 3341              	.L159:
 580:.\protocolo.c **** 					rventa.manguera=(Surtidor_rxBuffer[y+2]&0x0F)+1;
 3342              		.loc 1 580 0 is_stmt 0 discriminator 1
 3343 109c 304B     		ldr	r3, .L604+48
 3344 109e 1E68     		ldr	r6, [r3]
 3345 10a0 1E2E     		cmp	r6, #30
 3346 10a2 7FF6F3AB 		bls	.L240
 771:.\protocolo.c **** 						}					
 772:.\protocolo.c **** 					}
 773:.\protocolo.c **** 				}
 774:.\protocolo.c **** 				Surtidor_ClearRxBuffer();
 3347              		.loc 1 774 0 is_stmt 1
 3348 10a6 FFF7FEFF 		bl	Surtidor_ClearRxBuffer
 3349              	.LVL270:
 775:.\protocolo.c **** 				return 2;					
 3350              		.loc 1 775 0
 3351 10aa 0220     		movs	r0, #2
 3352 10ac 02F0F2B8 		b	.L78
 3353              	.L75:
 776:.\protocolo.c **** 			}			
 777:.\protocolo.c **** 			else{
 778:.\protocolo.c **** 				return 0;
 779:.\protocolo.c **** 			}
 780:.\protocolo.c **** 		break;
 781:.\protocolo.c **** 		
 782:.\protocolo.c **** 		case 94:
 783:.\protocolo.c **** 			if((Surtidor_rxBuffer[0]==0xFF)&&(Surtidor_rxBuffer[1]==0xF6)&&(Surtidor_rxBuffer[93]==0xF0)&&(S
ARM GAS  C:\Users\diego\AppData\Local\Temp\ccwBHTp3.s 			page 77


 3354              		.loc 1 783 0
 3355 10b0 2C4B     		ldr	r3, .L604+52
 3356 10b2 1B78     		ldrb	r3, [r3]	@ zero_extendqisi2
 3357 10b4 DBB2     		uxtb	r3, r3
 3358 10b6 FF2B     		cmp	r3, #255
 3359 10b8 42F0CD80 		bne	.L577
 3360              		.loc 1 783 0 is_stmt 0 discriminator 1
 3361 10bc 294B     		ldr	r3, .L604+52
 3362 10be 5B78     		ldrb	r3, [r3, #1]	@ zero_extendqisi2
 3363 10c0 DBB2     		uxtb	r3, r3
 3364 10c2 F62B     		cmp	r3, #246
 3365 10c4 42F0C980 		bne	.L578
 3366              		.loc 1 783 0 discriminator 2
 3367 10c8 264B     		ldr	r3, .L604+52
 3368 10ca 93F85D30 		ldrb	r3, [r3, #93]	@ zero_extendqisi2
 3369 10ce DBB2     		uxtb	r3, r3
 3370 10d0 F02B     		cmp	r3, #240
 3371 10d2 42F0C480 		bne	.L579
 3372              		.loc 1 783 0 discriminator 3
 3373 10d6 234B     		ldr	r3, .L604+52
 3374 10d8 DB78     		ldrb	r3, [r3, #3]	@ zero_extendqisi2
 3375 10da DBB2     		uxtb	r3, r3
 3376 10dc F92B     		cmp	r3, #249
 3377 10de 42F0C080 		bne	.L580
 784:.\protocolo.c **** 				for(y=0;y<=60;y+=30){
 3378              		.loc 1 784 0 is_stmt 1
 3379 10e2 0022     		movs	r2, #0
 3380 10e4 1E4B     		ldr	r3, .L604+48
 3381 10e6 1A60     		str	r2, [r3]
 3382 10e8 00F008BC 		b	.L241
 3383              	.L322:
 785:.\protocolo.c **** 					rventa.manguera=(Surtidor_rxBuffer[y+2]&0x0F)+1;
 3384              		.loc 1 785 0
 3385 10ec B31C     		adds	r3, r6, #2
 3386 10ee 1D4A     		ldr	r2, .L604+52
 3387 10f0 D15C     		ldrb	r1, [r2, r3]	@ zero_extendqisi2
 3388 10f2 01F00F01 		and	r1, r1, #15
 3389 10f6 0131     		adds	r1, r1, #1
 3390 10f8 114B     		ldr	r3, .L604+16
 3391 10fa 83F8E010 		strb	r1, [r3, #224]
 786:.\protocolo.c **** 					for(x=0;x<=7;x++){
 3392              		.loc 1 786 0
 3393 10fe 0022     		movs	r2, #0
 3394 1100 0C4B     		ldr	r3, .L604+4
 3395 1102 1A60     		str	r2, [r3]
 3396 1104 0CE0     		b	.L242
 3397              	.L243:
 787:.\protocolo.c **** 						rventa.tvolumen[x]=(Surtidor_rxBuffer[y+4+x]&0x0F);						
 3398              		.loc 1 787 0 discriminator 3
 3399 1106 F218     		adds	r2, r6, r3
 3400 1108 0432     		adds	r2, r2, #4
 3401 110a 1648     		ldr	r0, .L604+52
 3402 110c 805C     		ldrb	r0, [r0, r2]	@ zero_extendqisi2
 3403 110e 0C4A     		ldr	r2, .L604+16
 3404 1110 1A44     		add	r2, r2, r3
 3405 1112 00F00F00 		and	r0, r0, #15
 3406 1116 82F8BD00 		strb	r0, [r2, #189]
ARM GAS  C:\Users\diego\AppData\Local\Temp\ccwBHTp3.s 			page 78


 786:.\protocolo.c **** 					for(x=0;x<=7;x++){
 3407              		.loc 1 786 0 discriminator 3
 3408 111a 0133     		adds	r3, r3, #1
 3409 111c 054A     		ldr	r2, .L604+4
 3410 111e 1360     		str	r3, [r2]
 3411              	.L242:
 786:.\protocolo.c **** 					for(x=0;x<=7;x++){
 3412              		.loc 1 786 0 is_stmt 0 discriminator 1
 3413 1120 044B     		ldr	r3, .L604+4
 3414 1122 1B68     		ldr	r3, [r3]
 3415 1124 072B     		cmp	r3, #7
 3416 1126 EED9     		bls	.L243
 788:.\protocolo.c **** 					}
 789:.\protocolo.c **** 					for(x=0;x<=7;x++){
 3417              		.loc 1 789 0 is_stmt 1
 3418 1128 0022     		movs	r2, #0
 3419 112a 024B     		ldr	r3, .L604+4
 3420 112c 1A60     		str	r2, [r3]
 3421 112e 28E0     		b	.L244
 3422              	.L605:
 3423              		.align	2
 3424              	.L604:
 3425 1130 00000000 		.word	.LANCHOR1
 3426 1134 00000000 		.word	x
 3427 1138 00000000 		.word	resultado
 3428 113c 00000000 		.word	a
 3429 1140 00000000 		.word	rventa
 3430 1144 00000000 		.word	producto4
 3431 1148 00000000 		.word	producto4b
 3432 114c 00000000 		.word	b
 3433 1150 00000000 		.word	producto4n
 3434 1154 00000000 		.word	z
 3435 1158 FFFFFFFF 		.word	rventa-1
 3436 115c 00000000 		.word	buffer_i2c
 3437 1160 00000000 		.word	y
 3438 1164 00000000 		.word	Surtidor_rxBuffer
 3439              	.L245:
 790:.\protocolo.c **** 						rventa.tdinero[x]=(Surtidor_rxBuffer[y+13+x]&0x0F);					
 3440              		.loc 1 790 0 discriminator 3
 3441 1168 F218     		adds	r2, r6, r3
 3442 116a 0D32     		adds	r2, r2, #13
 3443 116c A748     		ldr	r0, .L606
 3444 116e 805C     		ldrb	r0, [r0, r2]	@ zero_extendqisi2
 3445 1170 A74A     		ldr	r2, .L606+4
 3446 1172 1A44     		add	r2, r2, r3
 3447 1174 00F00F00 		and	r0, r0, #15
 3448 1178 82F8CA00 		strb	r0, [r2, #202]
 789:.\protocolo.c **** 						rventa.tdinero[x]=(Surtidor_rxBuffer[y+13+x]&0x0F);					
 3449              		.loc 1 789 0 discriminator 3
 3450 117c 0133     		adds	r3, r3, #1
 3451 117e A54A     		ldr	r2, .L606+8
 3452 1180 1360     		str	r3, [r2]
 3453              	.L244:
 789:.\protocolo.c **** 						rventa.tdinero[x]=(Surtidor_rxBuffer[y+13+x]&0x0F);					
 3454              		.loc 1 789 0 is_stmt 0 discriminator 1
 3455 1182 A44B     		ldr	r3, .L606+8
 3456 1184 1B68     		ldr	r3, [r3]
ARM GAS  C:\Users\diego\AppData\Local\Temp\ccwBHTp3.s 			page 79


 3457 1186 072B     		cmp	r3, #7
 3458 1188 EED9     		bls	.L245
 791:.\protocolo.c **** 					}
 792:.\protocolo.c **** 					for(z=0;z<=7;z++){
 3459              		.loc 1 792 0 is_stmt 1
 3460 118a 0022     		movs	r2, #0
 3461 118c A24B     		ldr	r3, .L606+12
 3462 118e 1A60     		str	r2, [r3]
 3463 1190 0AE0     		b	.L246
 3464              	.L247:
 793:.\protocolo.c **** 						corte[z+1]=rventa.tvolumen[z];
 3465              		.loc 1 793 0 discriminator 3
 3466 1192 5A1C     		adds	r2, r3, #1
 3467 1194 9E48     		ldr	r0, .L606+4
 3468 1196 0344     		add	r3, r3, r0
 3469 1198 93F8BD00 		ldrb	r0, [r3, #189]	@ zero_extendqisi2
 3470 119c 10AB     		add	r3, sp, #64
 3471 119e 1344     		add	r3, r3, r2
 3472 11a0 03F81C0C 		strb	r0, [r3, #-28]
 792:.\protocolo.c **** 						corte[z+1]=rventa.tvolumen[z];
 3473              		.loc 1 792 0 discriminator 3
 3474 11a4 9C4B     		ldr	r3, .L606+12
 3475 11a6 1A60     		str	r2, [r3]
 3476              	.L246:
 792:.\protocolo.c **** 						corte[z+1]=rventa.tvolumen[z];
 3477              		.loc 1 792 0 is_stmt 0 discriminator 1
 3478 11a8 9B4B     		ldr	r3, .L606+12
 3479 11aa 1B68     		ldr	r3, [r3]
 3480 11ac 072B     		cmp	r3, #7
 3481 11ae F0D9     		bls	.L247
 794:.\protocolo.c **** 					}
 795:.\protocolo.c **** 					for(z=9;z<=16;z++){
 3482              		.loc 1 795 0 is_stmt 1
 3483 11b0 0922     		movs	r2, #9
 3484 11b2 994B     		ldr	r3, .L606+12
 3485 11b4 1A60     		str	r2, [r3]
 3486 11b6 0AE0     		b	.L248
 3487              	.L249:
 796:.\protocolo.c **** 						corte[z]=rventa.tdinero[z-9];
 3488              		.loc 1 796 0 discriminator 3
 3489 11b8 984A     		ldr	r2, .L606+16
 3490 11ba 1A44     		add	r2, r2, r3
 3491 11bc 92F8CA00 		ldrb	r0, [r2, #202]	@ zero_extendqisi2
 3492 11c0 10AA     		add	r2, sp, #64
 3493 11c2 1A44     		add	r2, r2, r3
 3494 11c4 02F81C0C 		strb	r0, [r2, #-28]
 795:.\protocolo.c **** 						corte[z]=rventa.tdinero[z-9];
 3495              		.loc 1 795 0 discriminator 3
 3496 11c8 0133     		adds	r3, r3, #1
 3497 11ca 934A     		ldr	r2, .L606+12
 3498 11cc 1360     		str	r3, [r2]
 3499              	.L248:
 795:.\protocolo.c **** 						corte[z]=rventa.tdinero[z-9];
 3500              		.loc 1 795 0 is_stmt 0 discriminator 1
 3501 11ce 924B     		ldr	r3, .L606+12
 3502 11d0 1B68     		ldr	r3, [r3]
 3503 11d2 102B     		cmp	r3, #16
ARM GAS  C:\Users\diego\AppData\Local\Temp\ccwBHTp3.s 			page 80


 3504 11d4 F0D9     		bls	.L249
 797:.\protocolo.c **** 					}
 798:.\protocolo.c **** 					corte[0]=16;		
 3505              		.loc 1 798 0 is_stmt 1
 3506 11d6 1023     		movs	r3, #16
 3507 11d8 8DF82430 		strb	r3, [sp, #36]
 799:.\protocolo.c **** 					if(((rventa.manguera==(producto1&0x0F))&&(dir==a.dir))||((rventa.manguera==(producto1b&0x0F))&
 3508              		.loc 1 799 0
 3509 11dc 904B     		ldr	r3, .L606+20
 3510 11de 1B78     		ldrb	r3, [r3]	@ zero_extendqisi2
 3511 11e0 03F00F03 		and	r3, r3, #15
 3512 11e4 8B42     		cmp	r3, r1
 3513 11e6 03D1     		bne	.L250
 3514              		.loc 1 799 0 is_stmt 0 discriminator 1
 3515 11e8 8E4B     		ldr	r3, .L606+24
 3516 11ea 1B78     		ldrb	r3, [r3]	@ zero_extendqisi2
 3517 11ec AB42     		cmp	r3, r5
 3518 11ee 0BD0     		beq	.L251
 3519              	.L250:
 3520              		.loc 1 799 0 discriminator 3
 3521 11f0 8D4B     		ldr	r3, .L606+28
 3522 11f2 1B78     		ldrb	r3, [r3]	@ zero_extendqisi2
 3523 11f4 03F00F03 		and	r3, r3, #15
 3524 11f8 9942     		cmp	r1, r3
 3525 11fa 40F0C080 		bne	.L252
 3526              		.loc 1 799 0 discriminator 4
 3527 11fe 8B4B     		ldr	r3, .L606+32
 3528 1200 1B78     		ldrb	r3, [r3]	@ zero_extendqisi2
 3529 1202 AB42     		cmp	r3, r5
 3530 1204 40F0BB80 		bne	.L252
 3531              	.L251:
 800:.\protocolo.c **** 						for(x=0;x<=5;x++){									
 3532              		.loc 1 800 0 is_stmt 1
 3533 1208 0022     		movs	r2, #0
 3534 120a 824B     		ldr	r3, .L606+8
 3535 120c 1A60     		str	r2, [r3]
 3536 120e 08E0     		b	.L253
 3537              	.L254:
 801:.\protocolo.c **** 							write_psoc1(val,msn_tc[x]);
 3538              		.loc 1 801 0 discriminator 3
 3539 1210 2046     		mov	r0, r4
 3540 1212 874A     		ldr	r2, .L606+36
 3541 1214 D15C     		ldrb	r1, [r2, r3]	@ zero_extendqisi2
 3542 1216 FFF7FEFF 		bl	write_psoc1
 3543              	.LVL271:
 800:.\protocolo.c **** 						for(x=0;x<=5;x++){									
 3544              		.loc 1 800 0 discriminator 3
 3545 121a 7E4A     		ldr	r2, .L606+8
 3546 121c 1368     		ldr	r3, [r2]
 3547 121e 0133     		adds	r3, r3, #1
 3548 1220 1360     		str	r3, [r2]
 3549              	.L253:
 800:.\protocolo.c **** 						for(x=0;x<=5;x++){									
 3550              		.loc 1 800 0 is_stmt 0 discriminator 1
 3551 1222 7C4B     		ldr	r3, .L606+8
 3552 1224 1B68     		ldr	r3, [r3]
 3553 1226 052B     		cmp	r3, #5
ARM GAS  C:\Users\diego\AppData\Local\Temp\ccwBHTp3.s 			page 81


 3554 1228 F2D9     		bls	.L254
 802:.\protocolo.c **** 						}
 803:.\protocolo.c **** 						write_psoc1(val,10);
 3555              		.loc 1 803 0 is_stmt 1
 3556 122a 2046     		mov	r0, r4
 3557 122c 0A21     		movs	r1, #10
 3558 122e FFF7FEFF 		bl	write_psoc1
 3559              	.LVL272:
 804:.\protocolo.c ****                         for(x=0;x<=10;x++){									
 3560              		.loc 1 804 0
 3561 1232 0022     		movs	r2, #0
 3562 1234 774B     		ldr	r3, .L606+8
 3563 1236 1A60     		str	r2, [r3]
 3564 1238 08E0     		b	.L255
 3565              	.L256:
 805:.\protocolo.c **** 						write_psoc1(val,producto1n[x]);
 3566              		.loc 1 805 0 discriminator 3
 3567 123a 2046     		mov	r0, r4
 3568 123c 7D4A     		ldr	r2, .L606+40
 3569 123e D15C     		ldrb	r1, [r2, r3]	@ zero_extendqisi2
 3570 1240 FFF7FEFF 		bl	write_psoc1
 3571              	.LVL273:
 804:.\protocolo.c ****                         for(x=0;x<=10;x++){									
 3572              		.loc 1 804 0 discriminator 3
 3573 1244 734A     		ldr	r2, .L606+8
 3574 1246 1368     		ldr	r3, [r2]
 3575 1248 0133     		adds	r3, r3, #1
 3576 124a 1360     		str	r3, [r2]
 3577              	.L255:
 804:.\protocolo.c ****                         for(x=0;x<=10;x++){									
 3578              		.loc 1 804 0 is_stmt 0 discriminator 1
 3579 124c 714B     		ldr	r3, .L606+8
 3580 124e 1B68     		ldr	r3, [r3]
 3581 1250 0A2B     		cmp	r3, #10
 3582 1252 F2D9     		bls	.L256
 806:.\protocolo.c **** 					    }
 807:.\protocolo.c ****                         write_psoc1(val,10);
 3583              		.loc 1 807 0 is_stmt 1
 3584 1254 2046     		mov	r0, r4
 3585 1256 0A21     		movs	r1, #10
 3586 1258 FFF7FEFF 		bl	write_psoc1
 3587              	.LVL274:
 808:.\protocolo.c **** 						for(x=0;x<=14;x++){									
 3588              		.loc 1 808 0
 3589 125c 0022     		movs	r2, #0
 3590 125e 6D4B     		ldr	r3, .L606+8
 3591 1260 1A60     		str	r2, [r3]
 3592 1262 09E0     		b	.L257
 3593              	.L258:
 809:.\protocolo.c **** 							write_psoc1(val,msn_lecact[x]);				//LECTURA ACTUAL
 3594              		.loc 1 809 0 discriminator 3
 3595 1264 724A     		ldr	r2, .L606+36
 3596 1266 1344     		add	r3, r3, r2
 3597 1268 2046     		mov	r0, r4
 3598 126a 197A     		ldrb	r1, [r3, #8]	@ zero_extendqisi2
 3599 126c FFF7FEFF 		bl	write_psoc1
 3600              	.LVL275:
ARM GAS  C:\Users\diego\AppData\Local\Temp\ccwBHTp3.s 			page 82


 808:.\protocolo.c **** 						for(x=0;x<=14;x++){									
 3601              		.loc 1 808 0 discriminator 3
 3602 1270 684A     		ldr	r2, .L606+8
 3603 1272 1368     		ldr	r3, [r2]
 3604 1274 0133     		adds	r3, r3, #1
 3605 1276 1360     		str	r3, [r2]
 3606              	.L257:
 808:.\protocolo.c **** 						for(x=0;x<=14;x++){									
 3607              		.loc 1 808 0 is_stmt 0 discriminator 1
 3608 1278 664B     		ldr	r3, .L606+8
 3609 127a 1B68     		ldr	r3, [r3]
 3610 127c 0E2B     		cmp	r3, #14
 3611 127e F1D9     		bls	.L258
 810:.\protocolo.c **** 						}
 811:.\protocolo.c **** 						write_psoc1(val,10);
 3612              		.loc 1 811 0 is_stmt 1
 3613 1280 2046     		mov	r0, r4
 3614 1282 0A21     		movs	r1, #10
 3615 1284 FFF7FEFF 		bl	write_psoc1
 3616              	.LVL276:
 812:.\protocolo.c **** 						print_totalesac(8,val);	
 3617              		.loc 1 812 0
 3618 1288 0820     		movs	r0, #8
 3619 128a 2146     		mov	r1, r4
 3620 128c FFF7FEFF 		bl	print_totalesac
 3621              	.LVL277:
 813:.\protocolo.c **** 						for(x=0;x<=16;x++){												
 3622              		.loc 1 813 0
 3623 1290 0022     		movs	r2, #0
 3624 1292 604B     		ldr	r3, .L606+8
 3625 1294 1A60     		str	r2, [r3]
 3626 1296 09E0     		b	.L259
 3627              	.L260:
 814:.\protocolo.c **** 							write_psoc1(val,msn_lecaan[x]);				//LECTURA ANTERIOR
 3628              		.loc 1 814 0 discriminator 3
 3629 1298 654A     		ldr	r2, .L606+36
 3630 129a 1344     		add	r3, r3, r2
 3631 129c 2046     		mov	r0, r4
 3632 129e 197E     		ldrb	r1, [r3, #24]	@ zero_extendqisi2
 3633 12a0 FFF7FEFF 		bl	write_psoc1
 3634              	.LVL278:
 813:.\protocolo.c **** 						for(x=0;x<=16;x++){												
 3635              		.loc 1 813 0 discriminator 3
 3636 12a4 5B4A     		ldr	r2, .L606+8
 3637 12a6 1368     		ldr	r3, [r2]
 3638 12a8 0133     		adds	r3, r3, #1
 3639 12aa 1360     		str	r3, [r2]
 3640              	.L259:
 813:.\protocolo.c **** 						for(x=0;x<=16;x++){												
 3641              		.loc 1 813 0 is_stmt 0 discriminator 1
 3642 12ac 594B     		ldr	r3, .L606+8
 3643 12ae 1B68     		ldr	r3, [r3]
 3644 12b0 102B     		cmp	r3, #16
 3645 12b2 F1D9     		bls	.L260
 815:.\protocolo.c **** 						}
 816:.\protocolo.c **** 						write_psoc1(val,10);
 3646              		.loc 1 816 0 is_stmt 1
ARM GAS  C:\Users\diego\AppData\Local\Temp\ccwBHTp3.s 			page 83


 3647 12b4 2046     		mov	r0, r4
 3648 12b6 0A21     		movs	r1, #10
 3649 12b8 FFF7FEFF 		bl	write_psoc1
 3650              	.LVL279:
 817:.\protocolo.c **** 						if(dir==a.dir){
 3651              		.loc 1 817 0
 3652 12bc 594B     		ldr	r3, .L606+24
 3653 12be 1B78     		ldrb	r3, [r3]	@ zero_extendqisi2
 3654 12c0 AB42     		cmp	r3, r5
 3655 12c2 04D1     		bne	.L261
 818:.\protocolo.c **** 							leer_eeprom(192,25);
 3656              		.loc 1 818 0
 3657 12c4 C020     		movs	r0, #192
 3658 12c6 1921     		movs	r1, #25
 3659 12c8 FFF7FEFF 		bl	leer_eeprom
 3660              	.LVL280:
 3661 12cc 04E0     		b	.L262
 3662              	.L261:
 819:.\protocolo.c **** 						}
 820:.\protocolo.c **** 						else{
 821:.\protocolo.c **** 							leer_eeprom(281,25);
 3663              		.loc 1 821 0
 3664 12ce 40F21910 		movw	r0, #281
 3665 12d2 1921     		movs	r1, #25
 3666 12d4 FFF7FEFF 		bl	leer_eeprom
 3667              	.LVL281:
 3668              	.L262:
 822:.\protocolo.c **** 						}
 823:.\protocolo.c **** 						print_totales(val);
 3669              		.loc 1 823 0
 3670 12d8 2046     		mov	r0, r4
 3671 12da FFF7FEFF 		bl	print_totales
 3672              	.LVL282:
 824:.\protocolo.c **** 						for(z=1;z<=8;z++){
 3673              		.loc 1 824 0
 3674 12de 0122     		movs	r2, #1
 3675 12e0 4D4B     		ldr	r3, .L606+12
 3676 12e2 1A60     		str	r2, [r3]
 3677 12e4 10E0     		b	.L263
 3678              	.L264:
 825:.\protocolo.c **** 							minuendo[z]=rventa.tdinero[z-1];
 3679              		.loc 1 825 0 discriminator 3
 3680 12e6 544A     		ldr	r2, .L606+44
 3681 12e8 1A44     		add	r2, r2, r3
 3682 12ea 92F8CA10 		ldrb	r1, [r2, #202]	@ zero_extendqisi2
 3683 12ee 10AA     		add	r2, sp, #64
 3684 12f0 1A44     		add	r2, r2, r3
 3685 12f2 02F82C1C 		strb	r1, [r2, #-44]
 826:.\protocolo.c **** 							sustraendo[z]=buffer_i2c[z+8];
 3686              		.loc 1 826 0 discriminator 3
 3687 12f6 03F10801 		add	r1, r3, #8
 3688 12fa 5048     		ldr	r0, .L606+48
 3689 12fc 415C     		ldrb	r1, [r0, r1]	@ zero_extendqisi2
 3690 12fe 02F83C1C 		strb	r1, [r2, #-60]
 824:.\protocolo.c **** 						for(z=1;z<=8;z++){
 3691              		.loc 1 824 0 discriminator 3
 3692 1302 0133     		adds	r3, r3, #1
ARM GAS  C:\Users\diego\AppData\Local\Temp\ccwBHTp3.s 			page 84


 3693 1304 444A     		ldr	r2, .L606+12
 3694 1306 1360     		str	r3, [r2]
 3695              	.L263:
 824:.\protocolo.c **** 						for(z=1;z<=8;z++){
 3696              		.loc 1 824 0 is_stmt 0 discriminator 1
 3697 1308 434B     		ldr	r3, .L606+12
 3698 130a 1B68     		ldr	r3, [r3]
 3699 130c 082B     		cmp	r3, #8
 3700 130e EAD9     		bls	.L264
 827:.\protocolo.c **** 						}
 828:.\protocolo.c **** 						minuendo[0]=8;
 3701              		.loc 1 828 0 is_stmt 1
 3702 1310 10A9     		add	r1, sp, #64
 3703 1312 0823     		movs	r3, #8
 3704 1314 01F82C3D 		strb	r3, [r1, #-44]!
 829:.\protocolo.c **** 						operacion(2,minuendo,sustraendo);
 3705              		.loc 1 829 0
 3706 1318 0220     		movs	r0, #2
 3707 131a 01AA     		add	r2, sp, #4
 3708 131c FFF7FEFF 		bl	operacion
 3709              	.LVL283:
 830:.\protocolo.c **** 						for(x=0;x<=17;x++){									
 3710              		.loc 1 830 0
 3711 1320 0022     		movs	r2, #0
 3712 1322 3C4B     		ldr	r3, .L606+8
 3713 1324 1A60     		str	r2, [r3]
 3714 1326 0AE0     		b	.L265
 3715              	.L266:
 831:.\protocolo.c **** 							write_psoc1(val,msn_tventas[x]);				//Total de ventas
 3716              		.loc 1 831 0 discriminator 3
 3717 1328 414A     		ldr	r2, .L606+36
 3718 132a 1344     		add	r3, r3, r2
 3719 132c 2046     		mov	r0, r4
 3720 132e 93F82C10 		ldrb	r1, [r3, #44]	@ zero_extendqisi2
 3721 1332 FFF7FEFF 		bl	write_psoc1
 3722              	.LVL284:
 830:.\protocolo.c **** 						for(x=0;x<=17;x++){									
 3723              		.loc 1 830 0 discriminator 3
 3724 1336 374A     		ldr	r2, .L606+8
 3725 1338 1368     		ldr	r3, [r2]
 3726 133a 0133     		adds	r3, r3, #1
 3727 133c 1360     		str	r3, [r2]
 3728              	.L265:
 830:.\protocolo.c **** 						for(x=0;x<=17;x++){									
 3729              		.loc 1 830 0 is_stmt 0 discriminator 1
 3730 133e 354B     		ldr	r3, .L606+8
 3731 1340 1B68     		ldr	r3, [r3]
 3732 1342 112B     		cmp	r3, #17
 3733 1344 F0D9     		bls	.L266
 832:.\protocolo.c **** 						}
 833:.\protocolo.c **** 						print_valor(resultado,val);
 3734              		.loc 1 833 0 is_stmt 1
 3735 1346 3E48     		ldr	r0, .L606+52
 3736 1348 2146     		mov	r1, r4
 3737 134a FFF7FEFF 		bl	print_valor
 3738              	.LVL285:
 834:.\protocolo.c **** 						if(dir==a.dir){
ARM GAS  C:\Users\diego\AppData\Local\Temp\ccwBHTp3.s 			page 85


 3739              		.loc 1 834 0
 3740 134e 354B     		ldr	r3, .L606+24
 3741 1350 1B78     		ldrb	r3, [r3]	@ zero_extendqisi2
 3742 1352 AB42     		cmp	r3, r5
 3743 1354 09D1     		bne	.L267
 835:.\protocolo.c **** 							write_eeprom(192,corte);	
 3744              		.loc 1 835 0
 3745 1356 C020     		movs	r0, #192
 3746 1358 09A9     		add	r1, sp, #36
 3747 135a FFF7FEFF 		bl	write_eeprom
 3748              	.LVL286:
 836:.\protocolo.c **** 							write_eeprom(512,resultado);
 3749              		.loc 1 836 0
 3750 135e 4FF40070 		mov	r0, #512
 3751 1362 3749     		ldr	r1, .L606+52
 3752 1364 FFF7FEFF 		bl	write_eeprom
 3753              	.LVL287:
 3754 1368 09E0     		b	.L252
 3755              	.L267:
 837:.\protocolo.c **** 						}
 838:.\protocolo.c **** 						else{
 839:.\protocolo.c **** 							write_eeprom(281,corte);
 3756              		.loc 1 839 0
 3757 136a 40F21910 		movw	r0, #281
 3758 136e 09A9     		add	r1, sp, #36
 3759 1370 FFF7FEFF 		bl	write_eeprom
 3760              	.LVL288:
 840:.\protocolo.c **** 							write_eeprom(551,resultado);
 3761              		.loc 1 840 0
 3762 1374 40F22720 		movw	r0, #551
 3763 1378 3149     		ldr	r1, .L606+52
 3764 137a FFF7FEFF 		bl	write_eeprom
 3765              	.LVL289:
 3766              	.L252:
 841:.\protocolo.c **** 						}
 842:.\protocolo.c **** 					}
 843:.\protocolo.c **** 					if(((rventa.manguera==(producto2&0x0F))&&(dir==a.dir))||((rventa.manguera==(producto2b&0x0F))&
 3767              		.loc 1 843 0
 3768 137e 244B     		ldr	r3, .L606+4
 3769 1380 93F8E020 		ldrb	r2, [r3, #224]	@ zero_extendqisi2
 3770 1384 2F4B     		ldr	r3, .L606+56
 3771 1386 1B78     		ldrb	r3, [r3]	@ zero_extendqisi2
 3772 1388 03F00F03 		and	r3, r3, #15
 3773 138c 9342     		cmp	r3, r2
 3774 138e 03D1     		bne	.L268
 3775              		.loc 1 843 0 is_stmt 0 discriminator 1
 3776 1390 244B     		ldr	r3, .L606+24
 3777 1392 1B78     		ldrb	r3, [r3]	@ zero_extendqisi2
 3778 1394 AB42     		cmp	r3, r5
 3779 1396 0BD0     		beq	.L269
 3780              	.L268:
 3781              		.loc 1 843 0 discriminator 3
 3782 1398 2B4B     		ldr	r3, .L606+60
 3783 139a 1B78     		ldrb	r3, [r3]	@ zero_extendqisi2
 3784 139c 03F00F03 		and	r3, r3, #15
 3785 13a0 9A42     		cmp	r2, r3
 3786 13a2 40F0E280 		bne	.L270
ARM GAS  C:\Users\diego\AppData\Local\Temp\ccwBHTp3.s 			page 86


 3787              		.loc 1 843 0 discriminator 4
 3788 13a6 214B     		ldr	r3, .L606+32
 3789 13a8 1B78     		ldrb	r3, [r3]	@ zero_extendqisi2
 3790 13aa AB42     		cmp	r3, r5
 3791 13ac 40F0DD80 		bne	.L270
 3792              	.L269:
 844:.\protocolo.c **** 						for(x=0;x<=5;x++){									
 3793              		.loc 1 844 0 is_stmt 1
 3794 13b0 0022     		movs	r2, #0
 3795 13b2 184B     		ldr	r3, .L606+8
 3796 13b4 1A60     		str	r2, [r3]
 3797 13b6 08E0     		b	.L271
 3798              	.L272:
 845:.\protocolo.c **** 						    write_psoc1(val,msn_tc[x]);
 3799              		.loc 1 845 0 discriminator 3
 3800 13b8 2046     		mov	r0, r4
 3801 13ba 1D4A     		ldr	r2, .L606+36
 3802 13bc D15C     		ldrb	r1, [r2, r3]	@ zero_extendqisi2
 3803 13be FFF7FEFF 		bl	write_psoc1
 3804              	.LVL290:
 844:.\protocolo.c **** 						for(x=0;x<=5;x++){									
 3805              		.loc 1 844 0 discriminator 3
 3806 13c2 144A     		ldr	r2, .L606+8
 3807 13c4 1368     		ldr	r3, [r2]
 3808 13c6 0133     		adds	r3, r3, #1
 3809 13c8 1360     		str	r3, [r2]
 3810              	.L271:
 844:.\protocolo.c **** 						for(x=0;x<=5;x++){									
 3811              		.loc 1 844 0 is_stmt 0 discriminator 1
 3812 13ca 124B     		ldr	r3, .L606+8
 3813 13cc 1B68     		ldr	r3, [r3]
 3814 13ce 052B     		cmp	r3, #5
 3815 13d0 F2D9     		bls	.L272
 846:.\protocolo.c **** 					    }
 847:.\protocolo.c **** 					    write_psoc1(val,10);
 3816              		.loc 1 847 0 is_stmt 1
 3817 13d2 2046     		mov	r0, r4
 3818 13d4 0A21     		movs	r1, #10
 3819 13d6 FFF7FEFF 		bl	write_psoc1
 3820              	.LVL291:
 848:.\protocolo.c ****                         for(x=0;x<=10;x++){									
 3821              		.loc 1 848 0
 3822 13da 0022     		movs	r2, #0
 3823 13dc 0D4B     		ldr	r3, .L606+8
 3824 13de 1A60     		str	r2, [r3]
 3825 13e0 08E0     		b	.L273
 3826              	.L274:
 849:.\protocolo.c **** 						    write_psoc1(val,producto2n[x]);
 3827              		.loc 1 849 0 discriminator 3
 3828 13e2 2046     		mov	r0, r4
 3829 13e4 194A     		ldr	r2, .L606+64
 3830 13e6 D15C     		ldrb	r1, [r2, r3]	@ zero_extendqisi2
 3831 13e8 FFF7FEFF 		bl	write_psoc1
 3832              	.LVL292:
 848:.\protocolo.c ****                         for(x=0;x<=10;x++){									
 3833              		.loc 1 848 0 discriminator 3
 3834 13ec 094A     		ldr	r2, .L606+8
ARM GAS  C:\Users\diego\AppData\Local\Temp\ccwBHTp3.s 			page 87


 3835 13ee 1368     		ldr	r3, [r2]
 3836 13f0 0133     		adds	r3, r3, #1
 3837 13f2 1360     		str	r3, [r2]
 3838              	.L273:
 848:.\protocolo.c ****                         for(x=0;x<=10;x++){									
 3839              		.loc 1 848 0 is_stmt 0 discriminator 1
 3840 13f4 074B     		ldr	r3, .L606+8
 3841 13f6 1B68     		ldr	r3, [r3]
 3842 13f8 0A2B     		cmp	r3, #10
 3843 13fa F2D9     		bls	.L274
 850:.\protocolo.c **** 					    }
 851:.\protocolo.c ****                         write_psoc1(val,10);
 3844              		.loc 1 851 0 is_stmt 1
 3845 13fc 2046     		mov	r0, r4
 3846 13fe 0A21     		movs	r1, #10
 3847 1400 FFF7FEFF 		bl	write_psoc1
 3848              	.LVL293:
 852:.\protocolo.c **** 						for(x=0;x<=14;x++){									
 3849              		.loc 1 852 0
 3850 1404 0022     		movs	r2, #0
 3851 1406 034B     		ldr	r3, .L606+8
 3852 1408 1A60     		str	r2, [r3]
 3853 140a 2BE0     		b	.L275
 3854              	.L607:
 3855              		.align	2
 3856              	.L606:
 3857 140c 00000000 		.word	Surtidor_rxBuffer
 3858 1410 00000000 		.word	rventa
 3859 1414 00000000 		.word	x
 3860 1418 00000000 		.word	z
 3861 141c F7FFFFFF 		.word	rventa-9
 3862 1420 00000000 		.word	producto1
 3863 1424 00000000 		.word	a
 3864 1428 00000000 		.word	producto1b
 3865 142c 00000000 		.word	b
 3866 1430 00000000 		.word	.LANCHOR1
 3867 1434 00000000 		.word	producto1n
 3868 1438 FFFFFFFF 		.word	rventa-1
 3869 143c 00000000 		.word	buffer_i2c
 3870 1440 00000000 		.word	resultado
 3871 1444 00000000 		.word	producto2
 3872 1448 00000000 		.word	producto2b
 3873 144c 00000000 		.word	producto2n
 3874              	.L276:
 853:.\protocolo.c **** 							write_psoc1(val,msn_lecact[x]);				//LECTURA ACTUAL
 3875              		.loc 1 853 0 discriminator 3
 3876 1450 AC4A     		ldr	r2, .L608
 3877 1452 1344     		add	r3, r3, r2
 3878 1454 2046     		mov	r0, r4
 3879 1456 197A     		ldrb	r1, [r3, #8]	@ zero_extendqisi2
 3880 1458 FFF7FEFF 		bl	write_psoc1
 3881              	.LVL294:
 852:.\protocolo.c **** 						for(x=0;x<=14;x++){									
 3882              		.loc 1 852 0 discriminator 3
 3883 145c AA4A     		ldr	r2, .L608+4
 3884 145e 1368     		ldr	r3, [r2]
 3885 1460 0133     		adds	r3, r3, #1
ARM GAS  C:\Users\diego\AppData\Local\Temp\ccwBHTp3.s 			page 88


 3886 1462 1360     		str	r3, [r2]
 3887              	.L275:
 852:.\protocolo.c **** 						for(x=0;x<=14;x++){									
 3888              		.loc 1 852 0 is_stmt 0 discriminator 1
 3889 1464 A84B     		ldr	r3, .L608+4
 3890 1466 1B68     		ldr	r3, [r3]
 3891 1468 0E2B     		cmp	r3, #14
 3892 146a F1D9     		bls	.L276
 854:.\protocolo.c **** 						}
 855:.\protocolo.c **** 						write_psoc1(val,10);
 3893              		.loc 1 855 0 is_stmt 1
 3894 146c 2046     		mov	r0, r4
 3895 146e 0A21     		movs	r1, #10
 3896 1470 FFF7FEFF 		bl	write_psoc1
 3897              	.LVL295:
 856:.\protocolo.c **** 						print_totalesac(8,val);	
 3898              		.loc 1 856 0
 3899 1474 0820     		movs	r0, #8
 3900 1476 2146     		mov	r1, r4
 3901 1478 FFF7FEFF 		bl	print_totalesac
 3902              	.LVL296:
 857:.\protocolo.c **** 						for(x=0;x<=16;x++){												
 3903              		.loc 1 857 0
 3904 147c 0022     		movs	r2, #0
 3905 147e A24B     		ldr	r3, .L608+4
 3906 1480 1A60     		str	r2, [r3]
 3907 1482 09E0     		b	.L277
 3908              	.L278:
 858:.\protocolo.c **** 							write_psoc1(val,msn_lecaan[x]);				//LECTURA ANTERIOR
 3909              		.loc 1 858 0 discriminator 3
 3910 1484 9F4A     		ldr	r2, .L608
 3911 1486 1344     		add	r3, r3, r2
 3912 1488 2046     		mov	r0, r4
 3913 148a 197E     		ldrb	r1, [r3, #24]	@ zero_extendqisi2
 3914 148c FFF7FEFF 		bl	write_psoc1
 3915              	.LVL297:
 857:.\protocolo.c **** 						for(x=0;x<=16;x++){												
 3916              		.loc 1 857 0 discriminator 3
 3917 1490 9D4A     		ldr	r2, .L608+4
 3918 1492 1368     		ldr	r3, [r2]
 3919 1494 0133     		adds	r3, r3, #1
 3920 1496 1360     		str	r3, [r2]
 3921              	.L277:
 857:.\protocolo.c **** 						for(x=0;x<=16;x++){												
 3922              		.loc 1 857 0 is_stmt 0 discriminator 1
 3923 1498 9B4B     		ldr	r3, .L608+4
 3924 149a 1B68     		ldr	r3, [r3]
 3925 149c 102B     		cmp	r3, #16
 3926 149e F1D9     		bls	.L278
 859:.\protocolo.c **** 						}
 860:.\protocolo.c **** 						write_psoc1(val,10);
 3927              		.loc 1 860 0 is_stmt 1
 3928 14a0 2046     		mov	r0, r4
 3929 14a2 0A21     		movs	r1, #10
 3930 14a4 FFF7FEFF 		bl	write_psoc1
 3931              	.LVL298:
 861:.\protocolo.c **** 						if(dir==a.dir){
ARM GAS  C:\Users\diego\AppData\Local\Temp\ccwBHTp3.s 			page 89


 3932              		.loc 1 861 0
 3933 14a8 984B     		ldr	r3, .L608+8
 3934 14aa 1B78     		ldrb	r3, [r3]	@ zero_extendqisi2
 3935 14ac AB42     		cmp	r3, r5
 3936 14ae 04D1     		bne	.L279
 862:.\protocolo.c **** 							leer_eeprom(217,25);
 3937              		.loc 1 862 0
 3938 14b0 D920     		movs	r0, #217
 3939 14b2 1921     		movs	r1, #25
 3940 14b4 FFF7FEFF 		bl	leer_eeprom
 3941              	.LVL299:
 3942 14b8 04E0     		b	.L280
 3943              	.L279:
 863:.\protocolo.c **** 						}
 864:.\protocolo.c **** 						else{
 865:.\protocolo.c **** 							leer_eeprom(320,25);
 3944              		.loc 1 865 0
 3945 14ba 4FF4A070 		mov	r0, #320
 3946 14be 1921     		movs	r1, #25
 3947 14c0 FFF7FEFF 		bl	leer_eeprom
 3948              	.LVL300:
 3949              	.L280:
 866:.\protocolo.c **** 						}
 867:.\protocolo.c **** 						print_totales(val);
 3950              		.loc 1 867 0
 3951 14c4 2046     		mov	r0, r4
 3952 14c6 FFF7FEFF 		bl	print_totales
 3953              	.LVL301:
 868:.\protocolo.c **** 						for(z=1;z<=8;z++){
 3954              		.loc 1 868 0
 3955 14ca 0122     		movs	r2, #1
 3956 14cc 904B     		ldr	r3, .L608+12
 3957 14ce 1A60     		str	r2, [r3]
 3958 14d0 10E0     		b	.L281
 3959              	.L282:
 869:.\protocolo.c **** 							minuendo[z]=rventa.tdinero[z-1];
 3960              		.loc 1 869 0 discriminator 3
 3961 14d2 904A     		ldr	r2, .L608+16
 3962 14d4 1A44     		add	r2, r2, r3
 3963 14d6 92F8CA10 		ldrb	r1, [r2, #202]	@ zero_extendqisi2
 3964 14da 10AA     		add	r2, sp, #64
 3965 14dc 1A44     		add	r2, r2, r3
 3966 14de 02F82C1C 		strb	r1, [r2, #-44]
 870:.\protocolo.c **** 							sustraendo[z]=buffer_i2c[z+8];
 3967              		.loc 1 870 0 discriminator 3
 3968 14e2 03F10801 		add	r1, r3, #8
 3969 14e6 8C48     		ldr	r0, .L608+20
 3970 14e8 415C     		ldrb	r1, [r0, r1]	@ zero_extendqisi2
 3971 14ea 02F83C1C 		strb	r1, [r2, #-60]
 868:.\protocolo.c **** 						for(z=1;z<=8;z++){
 3972              		.loc 1 868 0 discriminator 3
 3973 14ee 0133     		adds	r3, r3, #1
 3974 14f0 874A     		ldr	r2, .L608+12
 3975 14f2 1360     		str	r3, [r2]
 3976              	.L281:
 868:.\protocolo.c **** 						for(z=1;z<=8;z++){
 3977              		.loc 1 868 0 is_stmt 0 discriminator 1
ARM GAS  C:\Users\diego\AppData\Local\Temp\ccwBHTp3.s 			page 90


 3978 14f4 864B     		ldr	r3, .L608+12
 3979 14f6 1B68     		ldr	r3, [r3]
 3980 14f8 082B     		cmp	r3, #8
 3981 14fa EAD9     		bls	.L282
 871:.\protocolo.c **** 						}
 872:.\protocolo.c **** 						minuendo[0]=8;
 3982              		.loc 1 872 0 is_stmt 1
 3983 14fc 10A9     		add	r1, sp, #64
 3984 14fe 0823     		movs	r3, #8
 3985 1500 01F82C3D 		strb	r3, [r1, #-44]!
 873:.\protocolo.c **** 						operacion(2,minuendo,sustraendo);
 3986              		.loc 1 873 0
 3987 1504 0220     		movs	r0, #2
 3988 1506 01AA     		add	r2, sp, #4
 3989 1508 FFF7FEFF 		bl	operacion
 3990              	.LVL302:
 874:.\protocolo.c **** 						for(x=0;x<=17;x++){									
 3991              		.loc 1 874 0
 3992 150c 0022     		movs	r2, #0
 3993 150e 7E4B     		ldr	r3, .L608+4
 3994 1510 1A60     		str	r2, [r3]
 3995 1512 0AE0     		b	.L283
 3996              	.L284:
 875:.\protocolo.c **** 							write_psoc1(val,msn_tventas[x]);				//Total de ventas
 3997              		.loc 1 875 0 discriminator 3
 3998 1514 7B4A     		ldr	r2, .L608
 3999 1516 1344     		add	r3, r3, r2
 4000 1518 2046     		mov	r0, r4
 4001 151a 93F82C10 		ldrb	r1, [r3, #44]	@ zero_extendqisi2
 4002 151e FFF7FEFF 		bl	write_psoc1
 4003              	.LVL303:
 874:.\protocolo.c **** 						for(x=0;x<=17;x++){									
 4004              		.loc 1 874 0 discriminator 3
 4005 1522 794A     		ldr	r2, .L608+4
 4006 1524 1368     		ldr	r3, [r2]
 4007 1526 0133     		adds	r3, r3, #1
 4008 1528 1360     		str	r3, [r2]
 4009              	.L283:
 874:.\protocolo.c **** 						for(x=0;x<=17;x++){									
 4010              		.loc 1 874 0 is_stmt 0 discriminator 1
 4011 152a 774B     		ldr	r3, .L608+4
 4012 152c 1B68     		ldr	r3, [r3]
 4013 152e 112B     		cmp	r3, #17
 4014 1530 F0D9     		bls	.L284
 876:.\protocolo.c **** 						}
 877:.\protocolo.c **** 						print_valor(resultado,val);				
 4015              		.loc 1 877 0 is_stmt 1
 4016 1532 7A48     		ldr	r0, .L608+24
 4017 1534 2146     		mov	r1, r4
 4018 1536 FFF7FEFF 		bl	print_valor
 4019              	.LVL304:
 878:.\protocolo.c **** 						if(dir==a.dir){
 4020              		.loc 1 878 0
 4021 153a 744B     		ldr	r3, .L608+8
 4022 153c 1B78     		ldrb	r3, [r3]	@ zero_extendqisi2
 4023 153e AB42     		cmp	r3, r5
 4024 1540 09D1     		bne	.L285
ARM GAS  C:\Users\diego\AppData\Local\Temp\ccwBHTp3.s 			page 91


 879:.\protocolo.c **** 							write_eeprom(217,corte);
 4025              		.loc 1 879 0
 4026 1542 D920     		movs	r0, #217
 4027 1544 09A9     		add	r1, sp, #36
 4028 1546 FFF7FEFF 		bl	write_eeprom
 4029              	.LVL305:
 880:.\protocolo.c **** 							write_eeprom(538,resultado);
 4030              		.loc 1 880 0
 4031 154a 40F21A20 		movw	r0, #538
 4032 154e 7349     		ldr	r1, .L608+24
 4033 1550 FFF7FEFF 		bl	write_eeprom
 4034              	.LVL306:
 4035 1554 09E0     		b	.L270
 4036              	.L285:
 881:.\protocolo.c **** 						}
 882:.\protocolo.c **** 						else{
 883:.\protocolo.c **** 							write_eeprom(320,corte);
 4037              		.loc 1 883 0
 4038 1556 4FF4A070 		mov	r0, #320
 4039 155a 09A9     		add	r1, sp, #36
 4040 155c FFF7FEFF 		bl	write_eeprom
 4041              	.LVL307:
 884:.\protocolo.c **** 							write_eeprom(576,resultado);
 4042              		.loc 1 884 0
 4043 1560 4FF41070 		mov	r0, #576
 4044 1564 6D49     		ldr	r1, .L608+24
 4045 1566 FFF7FEFF 		bl	write_eeprom
 4046              	.LVL308:
 4047              	.L270:
 885:.\protocolo.c **** 						}				
 886:.\protocolo.c **** 					}
 887:.\protocolo.c **** 					if(((rventa.manguera==(producto3&0x0F))&&(dir==a.dir))||((rventa.manguera==(producto3b&0x0F))&
 4048              		.loc 1 887 0
 4049 156a 6D4B     		ldr	r3, .L608+28
 4050 156c 93F8E020 		ldrb	r2, [r3, #224]	@ zero_extendqisi2
 4051 1570 6C4B     		ldr	r3, .L608+32
 4052 1572 1B78     		ldrb	r3, [r3]	@ zero_extendqisi2
 4053 1574 03F00F03 		and	r3, r3, #15
 4054 1578 9342     		cmp	r3, r2
 4055 157a 03D1     		bne	.L286
 4056              		.loc 1 887 0 is_stmt 0 discriminator 1
 4057 157c 634B     		ldr	r3, .L608+8
 4058 157e 1B78     		ldrb	r3, [r3]	@ zero_extendqisi2
 4059 1580 AB42     		cmp	r3, r5
 4060 1582 0BD0     		beq	.L287
 4061              	.L286:
 4062              		.loc 1 887 0 discriminator 3
 4063 1584 684B     		ldr	r3, .L608+36
 4064 1586 1B78     		ldrb	r3, [r3]	@ zero_extendqisi2
 4065 1588 03F00F03 		and	r3, r3, #15
 4066 158c 9A42     		cmp	r2, r3
 4067 158e 40F0DB80 		bne	.L288
 4068              		.loc 1 887 0 discriminator 4
 4069 1592 664B     		ldr	r3, .L608+40
 4070 1594 1B78     		ldrb	r3, [r3]	@ zero_extendqisi2
 4071 1596 AB42     		cmp	r3, r5
 4072 1598 40F0D680 		bne	.L288
ARM GAS  C:\Users\diego\AppData\Local\Temp\ccwBHTp3.s 			page 92


 4073              	.L287:
 888:.\protocolo.c **** 						for(x=0;x<=5;x++){									
 4074              		.loc 1 888 0 is_stmt 1
 4075 159c 0022     		movs	r2, #0
 4076 159e 5A4B     		ldr	r3, .L608+4
 4077 15a0 1A60     		str	r2, [r3]
 4078 15a2 08E0     		b	.L289
 4079              	.L290:
 889:.\protocolo.c **** 						    write_psoc1(val,msn_tc[x]);
 4080              		.loc 1 889 0 discriminator 3
 4081 15a4 2046     		mov	r0, r4
 4082 15a6 574A     		ldr	r2, .L608
 4083 15a8 D15C     		ldrb	r1, [r2, r3]	@ zero_extendqisi2
 4084 15aa FFF7FEFF 		bl	write_psoc1
 4085              	.LVL309:
 888:.\protocolo.c **** 						for(x=0;x<=5;x++){									
 4086              		.loc 1 888 0 discriminator 3
 4087 15ae 564A     		ldr	r2, .L608+4
 4088 15b0 1368     		ldr	r3, [r2]
 4089 15b2 0133     		adds	r3, r3, #1
 4090 15b4 1360     		str	r3, [r2]
 4091              	.L289:
 888:.\protocolo.c **** 						for(x=0;x<=5;x++){									
 4092              		.loc 1 888 0 is_stmt 0 discriminator 1
 4093 15b6 544B     		ldr	r3, .L608+4
 4094 15b8 1B68     		ldr	r3, [r3]
 4095 15ba 052B     		cmp	r3, #5
 4096 15bc F2D9     		bls	.L290
 890:.\protocolo.c **** 					    }
 891:.\protocolo.c **** 					    write_psoc1(val,10);
 4097              		.loc 1 891 0 is_stmt 1
 4098 15be 2046     		mov	r0, r4
 4099 15c0 0A21     		movs	r1, #10
 4100 15c2 FFF7FEFF 		bl	write_psoc1
 4101              	.LVL310:
 892:.\protocolo.c ****                         for(x=0;x<=10;x++){									
 4102              		.loc 1 892 0
 4103 15c6 0022     		movs	r2, #0
 4104 15c8 4F4B     		ldr	r3, .L608+4
 4105 15ca 1A60     		str	r2, [r3]
 4106 15cc 08E0     		b	.L291
 4107              	.L292:
 893:.\protocolo.c **** 						    write_psoc1(val,producto3n[x]);
 4108              		.loc 1 893 0 discriminator 3
 4109 15ce 2046     		mov	r0, r4
 4110 15d0 574A     		ldr	r2, .L608+44
 4111 15d2 D15C     		ldrb	r1, [r2, r3]	@ zero_extendqisi2
 4112 15d4 FFF7FEFF 		bl	write_psoc1
 4113              	.LVL311:
 892:.\protocolo.c ****                         for(x=0;x<=10;x++){									
 4114              		.loc 1 892 0 discriminator 3
 4115 15d8 4B4A     		ldr	r2, .L608+4
 4116 15da 1368     		ldr	r3, [r2]
 4117 15dc 0133     		adds	r3, r3, #1
 4118 15de 1360     		str	r3, [r2]
 4119              	.L291:
 892:.\protocolo.c ****                         for(x=0;x<=10;x++){									
ARM GAS  C:\Users\diego\AppData\Local\Temp\ccwBHTp3.s 			page 93


 4120              		.loc 1 892 0 is_stmt 0 discriminator 1
 4121 15e0 494B     		ldr	r3, .L608+4
 4122 15e2 1B68     		ldr	r3, [r3]
 4123 15e4 0A2B     		cmp	r3, #10
 4124 15e6 F2D9     		bls	.L292
 894:.\protocolo.c **** 					    }
 895:.\protocolo.c ****                         write_psoc1(val,10);
 4125              		.loc 1 895 0 is_stmt 1
 4126 15e8 2046     		mov	r0, r4
 4127 15ea 0A21     		movs	r1, #10
 4128 15ec FFF7FEFF 		bl	write_psoc1
 4129              	.LVL312:
 896:.\protocolo.c **** 						for(x=0;x<=14;x++){									
 4130              		.loc 1 896 0
 4131 15f0 0022     		movs	r2, #0
 4132 15f2 454B     		ldr	r3, .L608+4
 4133 15f4 1A60     		str	r2, [r3]
 4134 15f6 09E0     		b	.L293
 4135              	.L294:
 897:.\protocolo.c **** 							write_psoc1(val,msn_lecact[x]);				//LECTURA ACTUAL
 4136              		.loc 1 897 0 discriminator 3
 4137 15f8 424A     		ldr	r2, .L608
 4138 15fa 1344     		add	r3, r3, r2
 4139 15fc 2046     		mov	r0, r4
 4140 15fe 197A     		ldrb	r1, [r3, #8]	@ zero_extendqisi2
 4141 1600 FFF7FEFF 		bl	write_psoc1
 4142              	.LVL313:
 896:.\protocolo.c **** 						for(x=0;x<=14;x++){									
 4143              		.loc 1 896 0 discriminator 3
 4144 1604 404A     		ldr	r2, .L608+4
 4145 1606 1368     		ldr	r3, [r2]
 4146 1608 0133     		adds	r3, r3, #1
 4147 160a 1360     		str	r3, [r2]
 4148              	.L293:
 896:.\protocolo.c **** 						for(x=0;x<=14;x++){									
 4149              		.loc 1 896 0 is_stmt 0 discriminator 1
 4150 160c 3E4B     		ldr	r3, .L608+4
 4151 160e 1B68     		ldr	r3, [r3]
 4152 1610 0E2B     		cmp	r3, #14
 4153 1612 F1D9     		bls	.L294
 898:.\protocolo.c **** 						}
 899:.\protocolo.c **** 						write_psoc1(val,10);
 4154              		.loc 1 899 0 is_stmt 1
 4155 1614 2046     		mov	r0, r4
 4156 1616 0A21     		movs	r1, #10
 4157 1618 FFF7FEFF 		bl	write_psoc1
 4158              	.LVL314:
 900:.\protocolo.c **** 						print_totalesac(8,val);	
 4159              		.loc 1 900 0
 4160 161c 0820     		movs	r0, #8
 4161 161e 2146     		mov	r1, r4
 4162 1620 FFF7FEFF 		bl	print_totalesac
 4163              	.LVL315:
 901:.\protocolo.c **** 						for(x=0;x<=16;x++){												
 4164              		.loc 1 901 0
 4165 1624 0022     		movs	r2, #0
 4166 1626 384B     		ldr	r3, .L608+4
ARM GAS  C:\Users\diego\AppData\Local\Temp\ccwBHTp3.s 			page 94


 4167 1628 1A60     		str	r2, [r3]
 4168 162a 09E0     		b	.L295
 4169              	.L296:
 902:.\protocolo.c **** 							write_psoc1(val,msn_lecaan[x]);				//LECTURA ANTERIOR
 4170              		.loc 1 902 0 discriminator 3
 4171 162c 354A     		ldr	r2, .L608
 4172 162e 1344     		add	r3, r3, r2
 4173 1630 2046     		mov	r0, r4
 4174 1632 197E     		ldrb	r1, [r3, #24]	@ zero_extendqisi2
 4175 1634 FFF7FEFF 		bl	write_psoc1
 4176              	.LVL316:
 901:.\protocolo.c **** 						for(x=0;x<=16;x++){												
 4177              		.loc 1 901 0 discriminator 3
 4178 1638 334A     		ldr	r2, .L608+4
 4179 163a 1368     		ldr	r3, [r2]
 4180 163c 0133     		adds	r3, r3, #1
 4181 163e 1360     		str	r3, [r2]
 4182              	.L295:
 901:.\protocolo.c **** 						for(x=0;x<=16;x++){												
 4183              		.loc 1 901 0 is_stmt 0 discriminator 1
 4184 1640 314B     		ldr	r3, .L608+4
 4185 1642 1B68     		ldr	r3, [r3]
 4186 1644 102B     		cmp	r3, #16
 4187 1646 F1D9     		bls	.L296
 903:.\protocolo.c **** 						}
 904:.\protocolo.c **** 						write_psoc1(val,10);
 4188              		.loc 1 904 0 is_stmt 1
 4189 1648 2046     		mov	r0, r4
 4190 164a 0A21     		movs	r1, #10
 4191 164c FFF7FEFF 		bl	write_psoc1
 4192              	.LVL317:
 905:.\protocolo.c **** 						if(dir==a.dir){
 4193              		.loc 1 905 0
 4194 1650 2E4B     		ldr	r3, .L608+8
 4195 1652 1B78     		ldrb	r3, [r3]	@ zero_extendqisi2
 4196 1654 AB42     		cmp	r3, r5
 4197 1656 05D1     		bne	.L297
 906:.\protocolo.c **** 							leer_eeprom(256,25);
 4198              		.loc 1 906 0
 4199 1658 4FF48070 		mov	r0, #256
 4200 165c 1921     		movs	r1, #25
 4201 165e FFF7FEFF 		bl	leer_eeprom
 4202              	.LVL318:
 4203 1662 04E0     		b	.L298
 4204              	.L297:
 907:.\protocolo.c **** 						}
 908:.\protocolo.c **** 						else{
 909:.\protocolo.c **** 							leer_eeprom(345,25);
 4205              		.loc 1 909 0
 4206 1664 40F25910 		movw	r0, #345
 4207 1668 1921     		movs	r1, #25
 4208 166a FFF7FEFF 		bl	leer_eeprom
 4209              	.LVL319:
 4210              	.L298:
 910:.\protocolo.c **** 						}
 911:.\protocolo.c **** 						print_totales(val);
 4211              		.loc 1 911 0
ARM GAS  C:\Users\diego\AppData\Local\Temp\ccwBHTp3.s 			page 95


 4212 166e 2046     		mov	r0, r4
 4213 1670 FFF7FEFF 		bl	print_totales
 4214              	.LVL320:
 912:.\protocolo.c **** 						for(z=1;z<=8;z++){
 4215              		.loc 1 912 0
 4216 1674 0122     		movs	r2, #1
 4217 1676 264B     		ldr	r3, .L608+12
 4218 1678 1A60     		str	r2, [r3]
 4219 167a 10E0     		b	.L299
 4220              	.L300:
 913:.\protocolo.c **** 							minuendo[z]=rventa.tdinero[z-1];
 4221              		.loc 1 913 0 discriminator 3
 4222 167c 254A     		ldr	r2, .L608+16
 4223 167e 1A44     		add	r2, r2, r3
 4224 1680 92F8CA10 		ldrb	r1, [r2, #202]	@ zero_extendqisi2
 4225 1684 10AA     		add	r2, sp, #64
 4226 1686 1A44     		add	r2, r2, r3
 4227 1688 02F82C1C 		strb	r1, [r2, #-44]
 914:.\protocolo.c **** 							sustraendo[z]=buffer_i2c[z+8];
 4228              		.loc 1 914 0 discriminator 3
 4229 168c 03F10801 		add	r1, r3, #8
 4230 1690 2148     		ldr	r0, .L608+20
 4231 1692 415C     		ldrb	r1, [r0, r1]	@ zero_extendqisi2
 4232 1694 02F83C1C 		strb	r1, [r2, #-60]
 912:.\protocolo.c **** 						for(z=1;z<=8;z++){
 4233              		.loc 1 912 0 discriminator 3
 4234 1698 0133     		adds	r3, r3, #1
 4235 169a 1D4A     		ldr	r2, .L608+12
 4236 169c 1360     		str	r3, [r2]
 4237              	.L299:
 912:.\protocolo.c **** 						for(z=1;z<=8;z++){
 4238              		.loc 1 912 0 is_stmt 0 discriminator 1
 4239 169e 1C4B     		ldr	r3, .L608+12
 4240 16a0 1B68     		ldr	r3, [r3]
 4241 16a2 082B     		cmp	r3, #8
 4242 16a4 EAD9     		bls	.L300
 915:.\protocolo.c **** 						}
 916:.\protocolo.c **** 						minuendo[0]=8;
 4243              		.loc 1 916 0 is_stmt 1
 4244 16a6 10A9     		add	r1, sp, #64
 4245 16a8 0823     		movs	r3, #8
 4246 16aa 01F82C3D 		strb	r3, [r1, #-44]!
 917:.\protocolo.c **** 						operacion(2,minuendo,sustraendo);
 4247              		.loc 1 917 0
 4248 16ae 0220     		movs	r0, #2
 4249 16b0 01AA     		add	r2, sp, #4
 4250 16b2 FFF7FEFF 		bl	operacion
 4251              	.LVL321:
 918:.\protocolo.c **** 						for(x=0;x<=17;x++){									
 4252              		.loc 1 918 0
 4253 16b6 0022     		movs	r2, #0
 4254 16b8 134B     		ldr	r3, .L608+4
 4255 16ba 1A60     		str	r2, [r3]
 4256 16bc 0AE0     		b	.L301
 4257              	.L302:
 919:.\protocolo.c **** 							write_psoc1(val,msn_tventas[x]);				//Total de ventas
 4258              		.loc 1 919 0 discriminator 3
ARM GAS  C:\Users\diego\AppData\Local\Temp\ccwBHTp3.s 			page 96


 4259 16be 114A     		ldr	r2, .L608
 4260 16c0 1344     		add	r3, r3, r2
 4261 16c2 2046     		mov	r0, r4
 4262 16c4 93F82C10 		ldrb	r1, [r3, #44]	@ zero_extendqisi2
 4263 16c8 FFF7FEFF 		bl	write_psoc1
 4264              	.LVL322:
 918:.\protocolo.c **** 						for(x=0;x<=17;x++){									
 4265              		.loc 1 918 0 discriminator 3
 4266 16cc 0E4A     		ldr	r2, .L608+4
 4267 16ce 1368     		ldr	r3, [r2]
 4268 16d0 0133     		adds	r3, r3, #1
 4269 16d2 1360     		str	r3, [r2]
 4270              	.L301:
 918:.\protocolo.c **** 						for(x=0;x<=17;x++){									
 4271              		.loc 1 918 0 is_stmt 0 discriminator 1
 4272 16d4 0C4B     		ldr	r3, .L608+4
 4273 16d6 1B68     		ldr	r3, [r3]
 4274 16d8 112B     		cmp	r3, #17
 4275 16da F0D9     		bls	.L302
 920:.\protocolo.c **** 						}
 921:.\protocolo.c **** 						print_valor(resultado,val);							
 4276              		.loc 1 921 0 is_stmt 1
 4277 16dc 0F48     		ldr	r0, .L608+24
 4278 16de 2146     		mov	r1, r4
 4279 16e0 FFF7FEFF 		bl	print_valor
 4280              	.LVL323:
 922:.\protocolo.c **** 						if(dir==a.dir){
 4281              		.loc 1 922 0
 4282 16e4 094B     		ldr	r3, .L608+8
 4283 16e6 1B78     		ldrb	r3, [r3]	@ zero_extendqisi2
 4284 16e8 AB42     		cmp	r3, r5
 4285 16ea 23D1     		bne	.L303
 923:.\protocolo.c **** 							write_eeprom(256,corte);
 4286              		.loc 1 923 0
 4287 16ec 4FF48070 		mov	r0, #256
 4288 16f0 09A9     		add	r1, sp, #36
 4289 16f2 FFF7FEFF 		bl	write_eeprom
 4290              	.LVL324:
 924:.\protocolo.c **** 							write_eeprom(525,resultado);
 4291              		.loc 1 924 0
 4292 16f6 40F20D20 		movw	r0, #525
 4293 16fa 0849     		ldr	r1, .L608+24
 4294 16fc FFF7FEFF 		bl	write_eeprom
 4295              	.LVL325:
 4296 1700 22E0     		b	.L288
 4297              	.L609:
 4298 1702 00BF     		.align	2
 4299              	.L608:
 4300 1704 00000000 		.word	.LANCHOR1
 4301 1708 00000000 		.word	x
 4302 170c 00000000 		.word	a
 4303 1710 00000000 		.word	z
 4304 1714 FFFFFFFF 		.word	rventa-1
 4305 1718 00000000 		.word	buffer_i2c
 4306 171c 00000000 		.word	resultado
 4307 1720 00000000 		.word	rventa
 4308 1724 00000000 		.word	producto3
ARM GAS  C:\Users\diego\AppData\Local\Temp\ccwBHTp3.s 			page 97


 4309 1728 00000000 		.word	producto3b
 4310 172c 00000000 		.word	b
 4311 1730 00000000 		.word	producto3n
 4312              	.L303:
 925:.\protocolo.c **** 						}
 926:.\protocolo.c **** 						else{
 927:.\protocolo.c **** 							write_eeprom(345,corte);
 4313              		.loc 1 927 0
 4314 1734 40F25910 		movw	r0, #345
 4315 1738 09A9     		add	r1, sp, #36
 4316 173a FFF7FEFF 		bl	write_eeprom
 4317              	.LVL326:
 928:.\protocolo.c **** 							write_eeprom(589,resultado);
 4318              		.loc 1 928 0
 4319 173e 40F24D20 		movw	r0, #589
 4320 1742 A449     		ldr	r1, .L610
 4321 1744 FFF7FEFF 		bl	write_eeprom
 4322              	.LVL327:
 4323              	.L288:
 929:.\protocolo.c **** 						}					
 930:.\protocolo.c **** 					}
 931:.\protocolo.c ****                     
 932:.\protocolo.c ****                     if(((rventa.manguera==(producto4&0x0F))&&(dir==a.dir))||((rventa.manguera==(pro
 4324              		.loc 1 932 0
 4325 1748 A34B     		ldr	r3, .L610+4
 4326 174a 93F8E020 		ldrb	r2, [r3, #224]	@ zero_extendqisi2
 4327 174e A34B     		ldr	r3, .L610+8
 4328 1750 1B78     		ldrb	r3, [r3]	@ zero_extendqisi2
 4329 1752 03F00F03 		and	r3, r3, #15
 4330 1756 9342     		cmp	r3, r2
 4331 1758 03D1     		bne	.L304
 4332              		.loc 1 932 0 is_stmt 0 discriminator 1
 4333 175a A14B     		ldr	r3, .L610+12
 4334 175c 1B78     		ldrb	r3, [r3]	@ zero_extendqisi2
 4335 175e AB42     		cmp	r3, r5
 4336 1760 0BD0     		beq	.L305
 4337              	.L304:
 4338              		.loc 1 932 0 discriminator 3
 4339 1762 A04B     		ldr	r3, .L610+16
 4340 1764 1B78     		ldrb	r3, [r3]	@ zero_extendqisi2
 4341 1766 03F00F03 		and	r3, r3, #15
 4342 176a 9A42     		cmp	r2, r3
 4343 176c 40F0C280 		bne	.L306
 4344              		.loc 1 932 0 discriminator 4
 4345 1770 9D4B     		ldr	r3, .L610+20
 4346 1772 1B78     		ldrb	r3, [r3]	@ zero_extendqisi2
 4347 1774 AB42     		cmp	r3, r5
 4348 1776 40F0BD80 		bne	.L306
 4349              	.L305:
 933:.\protocolo.c **** 						for(x=0;x<=5;x++){									
 4350              		.loc 1 933 0 is_stmt 1
 4351 177a 0022     		movs	r2, #0
 4352 177c 9B4B     		ldr	r3, .L610+24
 4353 177e 1A60     		str	r2, [r3]
 4354 1780 08E0     		b	.L307
 4355              	.L308:
 934:.\protocolo.c **** 						    write_psoc1(val,msn_tc[x]);
ARM GAS  C:\Users\diego\AppData\Local\Temp\ccwBHTp3.s 			page 98


 4356              		.loc 1 934 0 discriminator 3
 4357 1782 2046     		mov	r0, r4
 4358 1784 9A4A     		ldr	r2, .L610+28
 4359 1786 D15C     		ldrb	r1, [r2, r3]	@ zero_extendqisi2
 4360 1788 FFF7FEFF 		bl	write_psoc1
 4361              	.LVL328:
 933:.\protocolo.c **** 						for(x=0;x<=5;x++){									
 4362              		.loc 1 933 0 discriminator 3
 4363 178c 974A     		ldr	r2, .L610+24
 4364 178e 1368     		ldr	r3, [r2]
 4365 1790 0133     		adds	r3, r3, #1
 4366 1792 1360     		str	r3, [r2]
 4367              	.L307:
 933:.\protocolo.c **** 						for(x=0;x<=5;x++){									
 4368              		.loc 1 933 0 is_stmt 0 discriminator 1
 4369 1794 954B     		ldr	r3, .L610+24
 4370 1796 1B68     		ldr	r3, [r3]
 4371 1798 052B     		cmp	r3, #5
 4372 179a F2D9     		bls	.L308
 935:.\protocolo.c **** 					    }
 936:.\protocolo.c **** 					    write_psoc1(val,10);
 4373              		.loc 1 936 0 is_stmt 1
 4374 179c 2046     		mov	r0, r4
 4375 179e 0A21     		movs	r1, #10
 4376 17a0 FFF7FEFF 		bl	write_psoc1
 4377              	.LVL329:
 937:.\protocolo.c ****                         for(x=0;x<=10;x++){									
 4378              		.loc 1 937 0
 4379 17a4 0022     		movs	r2, #0
 4380 17a6 914B     		ldr	r3, .L610+24
 4381 17a8 1A60     		str	r2, [r3]
 4382 17aa 08E0     		b	.L309
 4383              	.L310:
 938:.\protocolo.c **** 						    write_psoc1(val,producto4n[x]);
 4384              		.loc 1 938 0 discriminator 3
 4385 17ac 2046     		mov	r0, r4
 4386 17ae 914A     		ldr	r2, .L610+32
 4387 17b0 D15C     		ldrb	r1, [r2, r3]	@ zero_extendqisi2
 4388 17b2 FFF7FEFF 		bl	write_psoc1
 4389              	.LVL330:
 937:.\protocolo.c ****                         for(x=0;x<=10;x++){									
 4390              		.loc 1 937 0 discriminator 3
 4391 17b6 8D4A     		ldr	r2, .L610+24
 4392 17b8 1368     		ldr	r3, [r2]
 4393 17ba 0133     		adds	r3, r3, #1
 4394 17bc 1360     		str	r3, [r2]
 4395              	.L309:
 937:.\protocolo.c ****                         for(x=0;x<=10;x++){									
 4396              		.loc 1 937 0 is_stmt 0 discriminator 1
 4397 17be 8B4B     		ldr	r3, .L610+24
 4398 17c0 1B68     		ldr	r3, [r3]
 4399 17c2 0A2B     		cmp	r3, #10
 4400 17c4 F2D9     		bls	.L310
 939:.\protocolo.c **** 					    }
 940:.\protocolo.c ****                         write_psoc1(val,10);
 4401              		.loc 1 940 0 is_stmt 1
 4402 17c6 2046     		mov	r0, r4
ARM GAS  C:\Users\diego\AppData\Local\Temp\ccwBHTp3.s 			page 99


 4403 17c8 0A21     		movs	r1, #10
 4404 17ca FFF7FEFF 		bl	write_psoc1
 4405              	.LVL331:
 941:.\protocolo.c **** 						for(x=0;x<=14;x++){									
 4406              		.loc 1 941 0
 4407 17ce 0022     		movs	r2, #0
 4408 17d0 864B     		ldr	r3, .L610+24
 4409 17d2 1A60     		str	r2, [r3]
 4410 17d4 09E0     		b	.L311
 4411              	.L312:
 942:.\protocolo.c **** 							write_psoc1(val,msn_lecact[x]);				//LECTURA ACTUAL
 4412              		.loc 1 942 0 discriminator 3
 4413 17d6 864A     		ldr	r2, .L610+28
 4414 17d8 1344     		add	r3, r3, r2
 4415 17da 2046     		mov	r0, r4
 4416 17dc 197A     		ldrb	r1, [r3, #8]	@ zero_extendqisi2
 4417 17de FFF7FEFF 		bl	write_psoc1
 4418              	.LVL332:
 941:.\protocolo.c **** 						for(x=0;x<=14;x++){									
 4419              		.loc 1 941 0 discriminator 3
 4420 17e2 824A     		ldr	r2, .L610+24
 4421 17e4 1368     		ldr	r3, [r2]
 4422 17e6 0133     		adds	r3, r3, #1
 4423 17e8 1360     		str	r3, [r2]
 4424              	.L311:
 941:.\protocolo.c **** 						for(x=0;x<=14;x++){									
 4425              		.loc 1 941 0 is_stmt 0 discriminator 1
 4426 17ea 804B     		ldr	r3, .L610+24
 4427 17ec 1B68     		ldr	r3, [r3]
 4428 17ee 0E2B     		cmp	r3, #14
 4429 17f0 F1D9     		bls	.L312
 943:.\protocolo.c **** 						}
 944:.\protocolo.c **** 						write_psoc1(val,10);
 4430              		.loc 1 944 0 is_stmt 1
 4431 17f2 2046     		mov	r0, r4
 4432 17f4 0A21     		movs	r1, #10
 4433 17f6 FFF7FEFF 		bl	write_psoc1
 4434              	.LVL333:
 945:.\protocolo.c **** 						print_totalesac(8,val);	
 4435              		.loc 1 945 0
 4436 17fa 0820     		movs	r0, #8
 4437 17fc 2146     		mov	r1, r4
 4438 17fe FFF7FEFF 		bl	print_totalesac
 4439              	.LVL334:
 946:.\protocolo.c **** 						for(x=0;x<=16;x++){												
 4440              		.loc 1 946 0
 4441 1802 0022     		movs	r2, #0
 4442 1804 794B     		ldr	r3, .L610+24
 4443 1806 1A60     		str	r2, [r3]
 4444 1808 09E0     		b	.L313
 4445              	.L314:
 947:.\protocolo.c **** 							write_psoc1(val,msn_lecaan[x]);				//LECTURA ANTERIOR
 4446              		.loc 1 947 0 discriminator 3
 4447 180a 794A     		ldr	r2, .L610+28
 4448 180c 1344     		add	r3, r3, r2
 4449 180e 2046     		mov	r0, r4
 4450 1810 197E     		ldrb	r1, [r3, #24]	@ zero_extendqisi2
ARM GAS  C:\Users\diego\AppData\Local\Temp\ccwBHTp3.s 			page 100


 4451 1812 FFF7FEFF 		bl	write_psoc1
 4452              	.LVL335:
 946:.\protocolo.c **** 						for(x=0;x<=16;x++){												
 4453              		.loc 1 946 0 discriminator 3
 4454 1816 754A     		ldr	r2, .L610+24
 4455 1818 1368     		ldr	r3, [r2]
 4456 181a 0133     		adds	r3, r3, #1
 4457 181c 1360     		str	r3, [r2]
 4458              	.L313:
 946:.\protocolo.c **** 						for(x=0;x<=16;x++){												
 4459              		.loc 1 946 0 is_stmt 0 discriminator 1
 4460 181e 734B     		ldr	r3, .L610+24
 4461 1820 1B68     		ldr	r3, [r3]
 4462 1822 102B     		cmp	r3, #16
 4463 1824 F1D9     		bls	.L314
 948:.\protocolo.c **** 						}
 949:.\protocolo.c **** 						write_psoc1(val,10);
 4464              		.loc 1 949 0 is_stmt 1
 4465 1826 2046     		mov	r0, r4
 4466 1828 0A21     		movs	r1, #10
 4467 182a FFF7FEFF 		bl	write_psoc1
 4468              	.LVL336:
 950:.\protocolo.c **** 						if(dir==a.dir){
 4469              		.loc 1 950 0
 4470 182e 6C4B     		ldr	r3, .L610+12
 4471 1830 1B78     		ldrb	r3, [r3]	@ zero_extendqisi2
 4472 1832 AB42     		cmp	r3, r5
 4473 1834 05D1     		bne	.L315
 951:.\protocolo.c **** 							leer_eeprom(1096,25);
 4474              		.loc 1 951 0
 4475 1836 4FF48960 		mov	r0, #1096
 4476 183a 1921     		movs	r1, #25
 4477 183c FFF7FEFF 		bl	leer_eeprom
 4478              	.LVL337:
 4479 1840 04E0     		b	.L316
 4480              	.L315:
 952:.\protocolo.c **** 						}
 953:.\protocolo.c **** 						else{
 954:.\protocolo.c **** 							leer_eeprom(1054,25);
 4481              		.loc 1 954 0
 4482 1842 40F21E40 		movw	r0, #1054
 4483 1846 1921     		movs	r1, #25
 4484 1848 FFF7FEFF 		bl	leer_eeprom
 4485              	.LVL338:
 4486              	.L316:
 955:.\protocolo.c **** 						}
 956:.\protocolo.c **** 						print_totales(val);
 4487              		.loc 1 956 0
 4488 184c 2046     		mov	r0, r4
 4489 184e FFF7FEFF 		bl	print_totales
 4490              	.LVL339:
 957:.\protocolo.c **** 						for(z=1;z<=8;z++){
 4491              		.loc 1 957 0
 4492 1852 0122     		movs	r2, #1
 4493 1854 684B     		ldr	r3, .L610+36
 4494 1856 1A60     		str	r2, [r3]
 4495 1858 10E0     		b	.L317
ARM GAS  C:\Users\diego\AppData\Local\Temp\ccwBHTp3.s 			page 101


 4496              	.L318:
 958:.\protocolo.c **** 							minuendo[z]=rventa.tdinero[z-1];
 4497              		.loc 1 958 0 discriminator 3
 4498 185a 684A     		ldr	r2, .L610+40
 4499 185c 1A44     		add	r2, r2, r3
 4500 185e 92F8CA10 		ldrb	r1, [r2, #202]	@ zero_extendqisi2
 4501 1862 10AA     		add	r2, sp, #64
 4502 1864 1A44     		add	r2, r2, r3
 4503 1866 02F82C1C 		strb	r1, [r2, #-44]
 959:.\protocolo.c **** 							sustraendo[z]=buffer_i2c[z+8];
 4504              		.loc 1 959 0 discriminator 3
 4505 186a 03F10801 		add	r1, r3, #8
 4506 186e 6448     		ldr	r0, .L610+44
 4507 1870 415C     		ldrb	r1, [r0, r1]	@ zero_extendqisi2
 4508 1872 02F83C1C 		strb	r1, [r2, #-60]
 957:.\protocolo.c **** 						for(z=1;z<=8;z++){
 4509              		.loc 1 957 0 discriminator 3
 4510 1876 0133     		adds	r3, r3, #1
 4511 1878 5F4A     		ldr	r2, .L610+36
 4512 187a 1360     		str	r3, [r2]
 4513              	.L317:
 957:.\protocolo.c **** 						for(z=1;z<=8;z++){
 4514              		.loc 1 957 0 is_stmt 0 discriminator 1
 4515 187c 5E4B     		ldr	r3, .L610+36
 4516 187e 1B68     		ldr	r3, [r3]
 4517 1880 082B     		cmp	r3, #8
 4518 1882 EAD9     		bls	.L318
 960:.\protocolo.c **** 						}
 961:.\protocolo.c **** 						minuendo[0]=8;
 4519              		.loc 1 961 0 is_stmt 1
 4520 1884 10A9     		add	r1, sp, #64
 4521 1886 0823     		movs	r3, #8
 4522 1888 01F82C3D 		strb	r3, [r1, #-44]!
 962:.\protocolo.c **** 						operacion(2,minuendo,sustraendo);
 4523              		.loc 1 962 0
 4524 188c 0220     		movs	r0, #2
 4525 188e 01AA     		add	r2, sp, #4
 4526 1890 FFF7FEFF 		bl	operacion
 4527              	.LVL340:
 963:.\protocolo.c **** 						for(x=0;x<=17;x++){									
 4528              		.loc 1 963 0
 4529 1894 0022     		movs	r2, #0
 4530 1896 554B     		ldr	r3, .L610+24
 4531 1898 1A60     		str	r2, [r3]
 4532 189a 0AE0     		b	.L319
 4533              	.L320:
 964:.\protocolo.c **** 							write_psoc1(val,msn_tventas[x]);				//Total de ventas
 4534              		.loc 1 964 0 discriminator 3
 4535 189c 544A     		ldr	r2, .L610+28
 4536 189e 1344     		add	r3, r3, r2
 4537 18a0 2046     		mov	r0, r4
 4538 18a2 93F82C10 		ldrb	r1, [r3, #44]	@ zero_extendqisi2
 4539 18a6 FFF7FEFF 		bl	write_psoc1
 4540              	.LVL341:
 963:.\protocolo.c **** 						for(x=0;x<=17;x++){									
 4541              		.loc 1 963 0 discriminator 3
 4542 18aa 504A     		ldr	r2, .L610+24
ARM GAS  C:\Users\diego\AppData\Local\Temp\ccwBHTp3.s 			page 102


 4543 18ac 1368     		ldr	r3, [r2]
 4544 18ae 0133     		adds	r3, r3, #1
 4545 18b0 1360     		str	r3, [r2]
 4546              	.L319:
 963:.\protocolo.c **** 						for(x=0;x<=17;x++){									
 4547              		.loc 1 963 0 is_stmt 0 discriminator 1
 4548 18b2 4E4B     		ldr	r3, .L610+24
 4549 18b4 1B68     		ldr	r3, [r3]
 4550 18b6 112B     		cmp	r3, #17
 4551 18b8 F0D9     		bls	.L320
 965:.\protocolo.c **** 						}
 966:.\protocolo.c **** 						print_valor(resultado,val);							
 4552              		.loc 1 966 0 is_stmt 1
 4553 18ba 4648     		ldr	r0, .L610
 4554 18bc 2146     		mov	r1, r4
 4555 18be FFF7FEFF 		bl	print_valor
 4556              	.LVL342:
 967:.\protocolo.c **** 						if(dir==a.dir){
 4557              		.loc 1 967 0
 4558 18c2 474B     		ldr	r3, .L610+12
 4559 18c4 1B78     		ldrb	r3, [r3]	@ zero_extendqisi2
 4560 18c6 AB42     		cmp	r3, r5
 4561 18c8 0AD1     		bne	.L321
 968:.\protocolo.c **** 						    write_eeprom(1096,corte);
 4562              		.loc 1 968 0
 4563 18ca 4FF48960 		mov	r0, #1096
 4564 18ce 09A9     		add	r1, sp, #36
 4565 18d0 FFF7FEFF 		bl	write_eeprom
 4566              	.LVL343:
 969:.\protocolo.c **** 						    write_eeprom(1038,resultado);
 4567              		.loc 1 969 0
 4568 18d4 40F20E40 		movw	r0, #1038
 4569 18d8 3E49     		ldr	r1, .L610
 4570 18da FFF7FEFF 		bl	write_eeprom
 4571              	.LVL344:
 4572 18de 09E0     		b	.L306
 4573              	.L321:
 970:.\protocolo.c **** 					    }
 971:.\protocolo.c **** 					    else{
 972:.\protocolo.c **** 						    write_eeprom(1054,corte);
 4574              		.loc 1 972 0
 4575 18e0 40F21E40 		movw	r0, #1054
 4576 18e4 09A9     		add	r1, sp, #36
 4577 18e6 FFF7FEFF 		bl	write_eeprom
 4578              	.LVL345:
 973:.\protocolo.c **** 						    write_eeprom(1081,resultado);
 4579              		.loc 1 973 0
 4580 18ea 40F23940 		movw	r0, #1081
 4581 18ee 3949     		ldr	r1, .L610
 4582 18f0 FFF7FEFF 		bl	write_eeprom
 4583              	.LVL346:
 4584              	.L306:
 784:.\protocolo.c **** 					rventa.manguera=(Surtidor_rxBuffer[y+2]&0x0F)+1;
 4585              		.loc 1 784 0 discriminator 2
 4586 18f4 434A     		ldr	r2, .L610+48
 4587 18f6 1368     		ldr	r3, [r2]
 4588 18f8 1E33     		adds	r3, r3, #30
ARM GAS  C:\Users\diego\AppData\Local\Temp\ccwBHTp3.s 			page 103


 4589 18fa 1360     		str	r3, [r2]
 4590              	.L241:
 784:.\protocolo.c **** 					rventa.manguera=(Surtidor_rxBuffer[y+2]&0x0F)+1;
 4591              		.loc 1 784 0 is_stmt 0 discriminator 1
 4592 18fc 414B     		ldr	r3, .L610+48
 4593 18fe 1E68     		ldr	r6, [r3]
 4594 1900 3C2E     		cmp	r6, #60
 4595 1902 7FF6F3AB 		bls	.L322
 974:.\protocolo.c **** 						}					
 975:.\protocolo.c **** 					}
 976:.\protocolo.c ****                     
 977:.\protocolo.c **** 				}
 978:.\protocolo.c **** 				Surtidor_ClearRxBuffer();
 4596              		.loc 1 978 0 is_stmt 1
 4597 1906 FFF7FEFF 		bl	Surtidor_ClearRxBuffer
 4598              	.LVL347:
 979:.\protocolo.c **** 				return 3;					
 4599              		.loc 1 979 0
 4600 190a 0320     		movs	r0, #3
 4601 190c 01F0C2BC 		b	.L78
 4602              	.L74:
 980:.\protocolo.c **** 			}			
 981:.\protocolo.c **** 			else{
 982:.\protocolo.c **** 				return 0;
 983:.\protocolo.c **** 			}			
 984:.\protocolo.c **** 		break;
 985:.\protocolo.c **** 
 986:.\protocolo.c **** 		case 46:
 987:.\protocolo.c **** 			if((Surtidor_rxBuffer[0]==0xFF)&&(Surtidor_rxBuffer[1]==0xF6)&&(Surtidor_rxBuffer[45]==0xF0)&&(S
 4603              		.loc 1 987 0
 4604 1910 3D4B     		ldr	r3, .L610+52
 4605 1912 1B78     		ldrb	r3, [r3]	@ zero_extendqisi2
 4606 1914 DBB2     		uxtb	r3, r3
 4607 1916 FF2B     		cmp	r3, #255
 4608 1918 41F0A584 		bne	.L581
 4609              		.loc 1 987 0 is_stmt 0 discriminator 1
 4610 191c 3A4B     		ldr	r3, .L610+52
 4611 191e 5B78     		ldrb	r3, [r3, #1]	@ zero_extendqisi2
 4612 1920 DBB2     		uxtb	r3, r3
 4613 1922 F62B     		cmp	r3, #246
 4614 1924 41F0A184 		bne	.L582
 4615              		.loc 1 987 0 discriminator 2
 4616 1928 374B     		ldr	r3, .L610+52
 4617 192a 93F82D30 		ldrb	r3, [r3, #45]	@ zero_extendqisi2
 4618 192e DBB2     		uxtb	r3, r3
 4619 1930 F02B     		cmp	r3, #240
 4620 1932 41F09C84 		bne	.L583
 4621              		.loc 1 987 0 discriminator 3
 4622 1936 344B     		ldr	r3, .L610+52
 4623 1938 DB78     		ldrb	r3, [r3, #3]	@ zero_extendqisi2
 4624 193a DBB2     		uxtb	r3, r3
 4625 193c F92B     		cmp	r3, #249
 4626 193e 41F09884 		bne	.L584
 988:.\protocolo.c **** 				rventa.manguera=(Surtidor_rxBuffer[2]&0xF0)+1;
 4627              		.loc 1 988 0 is_stmt 1
 4628 1942 314B     		ldr	r3, .L610+52
 4629 1944 9978     		ldrb	r1, [r3, #2]	@ zero_extendqisi2
ARM GAS  C:\Users\diego\AppData\Local\Temp\ccwBHTp3.s 			page 104


 4630 1946 01F0F001 		and	r1, r1, #240
 4631 194a 0131     		adds	r1, r1, #1
 4632 194c C9B2     		uxtb	r1, r1
 4633 194e 224B     		ldr	r3, .L610+4
 4634 1950 83F8E010 		strb	r1, [r3, #224]
 989:.\protocolo.c **** 				for(x=0;x<=11;x++){
 4635              		.loc 1 989 0
 4636 1954 0022     		movs	r2, #0
 4637 1956 254B     		ldr	r3, .L610+24
 4638 1958 1A60     		str	r2, [r3]
 4639 195a 0BE0     		b	.L323
 4640              	.L324:
 990:.\protocolo.c **** 					rventa.tvolumen[x]=(Surtidor_rxBuffer[x+4]&0x0F);
 4641              		.loc 1 990 0 discriminator 3
 4642 195c 1A1D     		adds	r2, r3, #4
 4643 195e 2A48     		ldr	r0, .L610+52
 4644 1960 805C     		ldrb	r0, [r0, r2]	@ zero_extendqisi2
 4645 1962 1D4A     		ldr	r2, .L610+4
 4646 1964 1A44     		add	r2, r2, r3
 4647 1966 00F00F00 		and	r0, r0, #15
 4648 196a 82F8BD00 		strb	r0, [r2, #189]
 989:.\protocolo.c **** 				for(x=0;x<=11;x++){
 4649              		.loc 1 989 0 discriminator 3
 4650 196e 0133     		adds	r3, r3, #1
 4651 1970 1E4A     		ldr	r2, .L610+24
 4652 1972 1360     		str	r3, [r2]
 4653              	.L323:
 989:.\protocolo.c **** 				for(x=0;x<=11;x++){
 4654              		.loc 1 989 0 is_stmt 0 discriminator 1
 4655 1974 1D4B     		ldr	r3, .L610+24
 4656 1976 1B68     		ldr	r3, [r3]
 4657 1978 0B2B     		cmp	r3, #11
 4658 197a EFD9     		bls	.L324
 991:.\protocolo.c **** 				}
 992:.\protocolo.c **** 				for(x=0;x<=11;x++){
 4659              		.loc 1 992 0 is_stmt 1
 4660 197c 0022     		movs	r2, #0
 4661 197e 1B4B     		ldr	r3, .L610+24
 4662 1980 1A60     		str	r2, [r3]
 4663 1982 0CE0     		b	.L325
 4664              	.L326:
 993:.\protocolo.c **** 					rventa.tdinero[x]=(Surtidor_rxBuffer[x+17]&0x0F);
 4665              		.loc 1 993 0 discriminator 3
 4666 1984 03F11102 		add	r2, r3, #17
 4667 1988 1F48     		ldr	r0, .L610+52
 4668 198a 805C     		ldrb	r0, [r0, r2]	@ zero_extendqisi2
 4669 198c 124A     		ldr	r2, .L610+4
 4670 198e 1A44     		add	r2, r2, r3
 4671 1990 00F00F00 		and	r0, r0, #15
 4672 1994 82F8CA00 		strb	r0, [r2, #202]
 992:.\protocolo.c **** 					rventa.tdinero[x]=(Surtidor_rxBuffer[x+17]&0x0F);
 4673              		.loc 1 992 0 discriminator 3
 4674 1998 0133     		adds	r3, r3, #1
 4675 199a 144A     		ldr	r2, .L610+24
 4676 199c 1360     		str	r3, [r2]
 4677              	.L325:
 992:.\protocolo.c **** 					rventa.tdinero[x]=(Surtidor_rxBuffer[x+17]&0x0F);
ARM GAS  C:\Users\diego\AppData\Local\Temp\ccwBHTp3.s 			page 105


 4678              		.loc 1 992 0 is_stmt 0 discriminator 1
 4679 199e 134B     		ldr	r3, .L610+24
 4680 19a0 1B68     		ldr	r3, [r3]
 4681 19a2 0B2B     		cmp	r3, #11
 4682 19a4 EED9     		bls	.L326
 994:.\protocolo.c **** 				}
 995:.\protocolo.c **** 				for(z=0;z<=11;z++){
 4683              		.loc 1 995 0 is_stmt 1
 4684 19a6 0022     		movs	r2, #0
 4685 19a8 134B     		ldr	r3, .L610+36
 4686 19aa 1A60     		str	r2, [r3]
 4687 19ac 0AE0     		b	.L327
 4688              	.L328:
 996:.\protocolo.c **** 					corte[z+1]=rventa.tvolumen[z];
 4689              		.loc 1 996 0 discriminator 3
 4690 19ae 5A1C     		adds	r2, r3, #1
 4691 19b0 0948     		ldr	r0, .L610+4
 4692 19b2 0344     		add	r3, r3, r0
 4693 19b4 93F8BD00 		ldrb	r0, [r3, #189]	@ zero_extendqisi2
 4694 19b8 10AB     		add	r3, sp, #64
 4695 19ba 1344     		add	r3, r3, r2
 4696 19bc 03F81C0C 		strb	r0, [r3, #-28]
 995:.\protocolo.c **** 					corte[z+1]=rventa.tvolumen[z];
 4697              		.loc 1 995 0 discriminator 3
 4698 19c0 0D4B     		ldr	r3, .L610+36
 4699 19c2 1A60     		str	r2, [r3]
 4700              	.L327:
 995:.\protocolo.c **** 					corte[z+1]=rventa.tvolumen[z];
 4701              		.loc 1 995 0 is_stmt 0 discriminator 1
 4702 19c4 0C4B     		ldr	r3, .L610+36
 4703 19c6 1B68     		ldr	r3, [r3]
 4704 19c8 0B2B     		cmp	r3, #11
 4705 19ca F0D9     		bls	.L328
 997:.\protocolo.c **** 				}
 998:.\protocolo.c **** 				for(z=13;z<=24;z++){
 4706              		.loc 1 998 0 is_stmt 1
 4707 19cc 0D22     		movs	r2, #13
 4708 19ce 0A4B     		ldr	r3, .L610+36
 4709 19d0 1A60     		str	r2, [r3]
 4710 19d2 26E0     		b	.L329
 4711              	.L611:
 4712              		.align	2
 4713              	.L610:
 4714 19d4 00000000 		.word	resultado
 4715 19d8 00000000 		.word	rventa
 4716 19dc 00000000 		.word	producto4
 4717 19e0 00000000 		.word	a
 4718 19e4 00000000 		.word	producto4b
 4719 19e8 00000000 		.word	b
 4720 19ec 00000000 		.word	x
 4721 19f0 00000000 		.word	.LANCHOR1
 4722 19f4 00000000 		.word	producto4n
 4723 19f8 00000000 		.word	z
 4724 19fc FFFFFFFF 		.word	rventa-1
 4725 1a00 00000000 		.word	buffer_i2c
 4726 1a04 00000000 		.word	y
 4727 1a08 00000000 		.word	Surtidor_rxBuffer
ARM GAS  C:\Users\diego\AppData\Local\Temp\ccwBHTp3.s 			page 106


 4728              	.L330:
 999:.\protocolo.c **** 					corte[z]=rventa.tdinero[z-13];
 4729              		.loc 1 999 0 discriminator 3
 4730 1a0c AF4A     		ldr	r2, .L612
 4731 1a0e 1A44     		add	r2, r2, r3
 4732 1a10 92F8CA00 		ldrb	r0, [r2, #202]	@ zero_extendqisi2
 4733 1a14 10AA     		add	r2, sp, #64
 4734 1a16 1A44     		add	r2, r2, r3
 4735 1a18 02F81C0C 		strb	r0, [r2, #-28]
 998:.\protocolo.c **** 					corte[z]=rventa.tdinero[z-13];
 4736              		.loc 1 998 0 discriminator 3
 4737 1a1c 0133     		adds	r3, r3, #1
 4738 1a1e AC4A     		ldr	r2, .L612+4
 4739 1a20 1360     		str	r3, [r2]
 4740              	.L329:
 998:.\protocolo.c **** 					corte[z]=rventa.tdinero[z-13];
 4741              		.loc 1 998 0 is_stmt 0 discriminator 1
 4742 1a22 AB4B     		ldr	r3, .L612+4
 4743 1a24 1B68     		ldr	r3, [r3]
 4744 1a26 182B     		cmp	r3, #24
 4745 1a28 F0D9     		bls	.L330
1000:.\protocolo.c **** 				}
1001:.\protocolo.c **** 				corte[0]=24;				
 4746              		.loc 1 1001 0 is_stmt 1
 4747 1a2a 1823     		movs	r3, #24
 4748 1a2c 8DF82430 		strb	r3, [sp, #36]
1002:.\protocolo.c **** 				if(((rventa.manguera==(producto1&0x0F))&&(dir==a.dir))||((rventa.manguera==(producto1b&0x0F))&&
 4749              		.loc 1 1002 0
 4750 1a30 A84B     		ldr	r3, .L612+8
 4751 1a32 1B78     		ldrb	r3, [r3]	@ zero_extendqisi2
 4752 1a34 03F00F03 		and	r3, r3, #15
 4753 1a38 8B42     		cmp	r3, r1
 4754 1a3a 03D1     		bne	.L331
 4755              		.loc 1 1002 0 is_stmt 0 discriminator 1
 4756 1a3c A64B     		ldr	r3, .L612+12
 4757 1a3e 1B78     		ldrb	r3, [r3]	@ zero_extendqisi2
 4758 1a40 AB42     		cmp	r3, r5
 4759 1a42 0BD0     		beq	.L332
 4760              	.L331:
 4761              		.loc 1 1002 0 discriminator 3
 4762 1a44 A54B     		ldr	r3, .L612+16
 4763 1a46 1B78     		ldrb	r3, [r3]	@ zero_extendqisi2
 4764 1a48 03F00F03 		and	r3, r3, #15
 4765 1a4c 9942     		cmp	r1, r3
 4766 1a4e 40F0C080 		bne	.L333
 4767              		.loc 1 1002 0 discriminator 4
 4768 1a52 A34B     		ldr	r3, .L612+20
 4769 1a54 1B78     		ldrb	r3, [r3]	@ zero_extendqisi2
 4770 1a56 AB42     		cmp	r3, r5
 4771 1a58 40F0BB80 		bne	.L333
 4772              	.L332:
1003:.\protocolo.c **** 					for(x=0;x<=5;x++){									
 4773              		.loc 1 1003 0 is_stmt 1
 4774 1a5c 0022     		movs	r2, #0
 4775 1a5e A14B     		ldr	r3, .L612+24
 4776 1a60 1A60     		str	r2, [r3]
 4777 1a62 08E0     		b	.L334
ARM GAS  C:\Users\diego\AppData\Local\Temp\ccwBHTp3.s 			page 107


 4778              	.L335:
1004:.\protocolo.c **** 						write_psoc1(val,msn_tc[x]);
 4779              		.loc 1 1004 0 discriminator 3
 4780 1a64 2046     		mov	r0, r4
 4781 1a66 A04A     		ldr	r2, .L612+28
 4782 1a68 D15C     		ldrb	r1, [r2, r3]	@ zero_extendqisi2
 4783 1a6a FFF7FEFF 		bl	write_psoc1
 4784              	.LVL348:
1003:.\protocolo.c **** 					for(x=0;x<=5;x++){									
 4785              		.loc 1 1003 0 discriminator 3
 4786 1a6e 9D4A     		ldr	r2, .L612+24
 4787 1a70 1368     		ldr	r3, [r2]
 4788 1a72 0133     		adds	r3, r3, #1
 4789 1a74 1360     		str	r3, [r2]
 4790              	.L334:
1003:.\protocolo.c **** 					for(x=0;x<=5;x++){									
 4791              		.loc 1 1003 0 is_stmt 0 discriminator 1
 4792 1a76 9B4B     		ldr	r3, .L612+24
 4793 1a78 1B68     		ldr	r3, [r3]
 4794 1a7a 052B     		cmp	r3, #5
 4795 1a7c F2D9     		bls	.L335
1005:.\protocolo.c **** 					}
1006:.\protocolo.c **** 					write_psoc1(val,10);
 4796              		.loc 1 1006 0 is_stmt 1
 4797 1a7e 2046     		mov	r0, r4
 4798 1a80 0A21     		movs	r1, #10
 4799 1a82 FFF7FEFF 		bl	write_psoc1
 4800              	.LVL349:
1007:.\protocolo.c ****                     for(x=0;x<=10;x++){									
 4801              		.loc 1 1007 0
 4802 1a86 0022     		movs	r2, #0
 4803 1a88 964B     		ldr	r3, .L612+24
 4804 1a8a 1A60     		str	r2, [r3]
 4805 1a8c 08E0     		b	.L336
 4806              	.L337:
1008:.\protocolo.c **** 						write_psoc1(val,producto1n[x]);
 4807              		.loc 1 1008 0 discriminator 3
 4808 1a8e 2046     		mov	r0, r4
 4809 1a90 964A     		ldr	r2, .L612+32
 4810 1a92 D15C     		ldrb	r1, [r2, r3]	@ zero_extendqisi2
 4811 1a94 FFF7FEFF 		bl	write_psoc1
 4812              	.LVL350:
1007:.\protocolo.c ****                     for(x=0;x<=10;x++){									
 4813              		.loc 1 1007 0 discriminator 3
 4814 1a98 924A     		ldr	r2, .L612+24
 4815 1a9a 1368     		ldr	r3, [r2]
 4816 1a9c 0133     		adds	r3, r3, #1
 4817 1a9e 1360     		str	r3, [r2]
 4818              	.L336:
1007:.\protocolo.c ****                     for(x=0;x<=10;x++){									
 4819              		.loc 1 1007 0 is_stmt 0 discriminator 1
 4820 1aa0 904B     		ldr	r3, .L612+24
 4821 1aa2 1B68     		ldr	r3, [r3]
 4822 1aa4 0A2B     		cmp	r3, #10
 4823 1aa6 F2D9     		bls	.L337
1009:.\protocolo.c **** 					}
1010:.\protocolo.c ****                     write_psoc1(val,10);
ARM GAS  C:\Users\diego\AppData\Local\Temp\ccwBHTp3.s 			page 108


 4824              		.loc 1 1010 0 is_stmt 1
 4825 1aa8 2046     		mov	r0, r4
 4826 1aaa 0A21     		movs	r1, #10
 4827 1aac FFF7FEFF 		bl	write_psoc1
 4828              	.LVL351:
1011:.\protocolo.c **** 					for(x=0;x<=14;x++){									
 4829              		.loc 1 1011 0
 4830 1ab0 0022     		movs	r2, #0
 4831 1ab2 8C4B     		ldr	r3, .L612+24
 4832 1ab4 1A60     		str	r2, [r3]
 4833 1ab6 09E0     		b	.L338
 4834              	.L339:
1012:.\protocolo.c **** 						write_psoc1(val,msn_lecact[x]);				//LECTURA ACTUAL
 4835              		.loc 1 1012 0 discriminator 3
 4836 1ab8 8B4A     		ldr	r2, .L612+28
 4837 1aba 1344     		add	r3, r3, r2
 4838 1abc 2046     		mov	r0, r4
 4839 1abe 197A     		ldrb	r1, [r3, #8]	@ zero_extendqisi2
 4840 1ac0 FFF7FEFF 		bl	write_psoc1
 4841              	.LVL352:
1011:.\protocolo.c **** 					for(x=0;x<=14;x++){									
 4842              		.loc 1 1011 0 discriminator 3
 4843 1ac4 874A     		ldr	r2, .L612+24
 4844 1ac6 1368     		ldr	r3, [r2]
 4845 1ac8 0133     		adds	r3, r3, #1
 4846 1aca 1360     		str	r3, [r2]
 4847              	.L338:
1011:.\protocolo.c **** 					for(x=0;x<=14;x++){									
 4848              		.loc 1 1011 0 is_stmt 0 discriminator 1
 4849 1acc 854B     		ldr	r3, .L612+24
 4850 1ace 1B68     		ldr	r3, [r3]
 4851 1ad0 0E2B     		cmp	r3, #14
 4852 1ad2 F1D9     		bls	.L339
1013:.\protocolo.c **** 					}
1014:.\protocolo.c **** 					write_psoc1(val,10);
 4853              		.loc 1 1014 0 is_stmt 1
 4854 1ad4 2046     		mov	r0, r4
 4855 1ad6 0A21     		movs	r1, #10
 4856 1ad8 FFF7FEFF 		bl	write_psoc1
 4857              	.LVL353:
1015:.\protocolo.c **** 					print_totalesac(12,val);	
 4858              		.loc 1 1015 0
 4859 1adc 0C20     		movs	r0, #12
 4860 1ade 2146     		mov	r1, r4
 4861 1ae0 FFF7FEFF 		bl	print_totalesac
 4862              	.LVL354:
1016:.\protocolo.c **** 					for(x=0;x<=16;x++){												
 4863              		.loc 1 1016 0
 4864 1ae4 0022     		movs	r2, #0
 4865 1ae6 7F4B     		ldr	r3, .L612+24
 4866 1ae8 1A60     		str	r2, [r3]
 4867 1aea 09E0     		b	.L340
 4868              	.L341:
1017:.\protocolo.c **** 						write_psoc1(val,msn_lecaan[x]);				//LECTURA ANTERIOR
 4869              		.loc 1 1017 0 discriminator 3
 4870 1aec 7E4A     		ldr	r2, .L612+28
 4871 1aee 1344     		add	r3, r3, r2
ARM GAS  C:\Users\diego\AppData\Local\Temp\ccwBHTp3.s 			page 109


 4872 1af0 2046     		mov	r0, r4
 4873 1af2 197E     		ldrb	r1, [r3, #24]	@ zero_extendqisi2
 4874 1af4 FFF7FEFF 		bl	write_psoc1
 4875              	.LVL355:
1016:.\protocolo.c **** 					for(x=0;x<=16;x++){												
 4876              		.loc 1 1016 0 discriminator 3
 4877 1af8 7A4A     		ldr	r2, .L612+24
 4878 1afa 1368     		ldr	r3, [r2]
 4879 1afc 0133     		adds	r3, r3, #1
 4880 1afe 1360     		str	r3, [r2]
 4881              	.L340:
1016:.\protocolo.c **** 					for(x=0;x<=16;x++){												
 4882              		.loc 1 1016 0 is_stmt 0 discriminator 1
 4883 1b00 784B     		ldr	r3, .L612+24
 4884 1b02 1B68     		ldr	r3, [r3]
 4885 1b04 102B     		cmp	r3, #16
 4886 1b06 F1D9     		bls	.L341
1018:.\protocolo.c **** 					}
1019:.\protocolo.c **** 					write_psoc1(val,10);
 4887              		.loc 1 1019 0 is_stmt 1
 4888 1b08 2046     		mov	r0, r4
 4889 1b0a 0A21     		movs	r1, #10
 4890 1b0c FFF7FEFF 		bl	write_psoc1
 4891              	.LVL356:
1020:.\protocolo.c **** 					if(dir==a.dir){
 4892              		.loc 1 1020 0
 4893 1b10 714B     		ldr	r3, .L612+12
 4894 1b12 1B78     		ldrb	r3, [r3]	@ zero_extendqisi2
 4895 1b14 AB42     		cmp	r3, r5
 4896 1b16 04D1     		bne	.L342
1021:.\protocolo.c **** 						leer_eeprom(192,25);
 4897              		.loc 1 1021 0
 4898 1b18 C020     		movs	r0, #192
 4899 1b1a 1921     		movs	r1, #25
 4900 1b1c FFF7FEFF 		bl	leer_eeprom
 4901              	.LVL357:
 4902 1b20 04E0     		b	.L343
 4903              	.L342:
1022:.\protocolo.c **** 					}
1023:.\protocolo.c **** 					else{
1024:.\protocolo.c **** 						leer_eeprom(281,25);
 4904              		.loc 1 1024 0
 4905 1b22 40F21910 		movw	r0, #281
 4906 1b26 1921     		movs	r1, #25
 4907 1b28 FFF7FEFF 		bl	leer_eeprom
 4908              	.LVL358:
 4909              	.L343:
1025:.\protocolo.c **** 					}
1026:.\protocolo.c **** 					print_totales(val);
 4910              		.loc 1 1026 0
 4911 1b2c 2046     		mov	r0, r4
 4912 1b2e FFF7FEFF 		bl	print_totales
 4913              	.LVL359:
1027:.\protocolo.c **** 					for(z=1;z<=12;z++){
 4914              		.loc 1 1027 0
 4915 1b32 0122     		movs	r2, #1
 4916 1b34 664B     		ldr	r3, .L612+4
ARM GAS  C:\Users\diego\AppData\Local\Temp\ccwBHTp3.s 			page 110


 4917 1b36 1A60     		str	r2, [r3]
 4918 1b38 10E0     		b	.L344
 4919              	.L345:
1028:.\protocolo.c **** 						minuendo[z]=rventa.tdinero[z-1];
 4920              		.loc 1 1028 0 discriminator 3
 4921 1b3a 6D4A     		ldr	r2, .L612+36
 4922 1b3c 1A44     		add	r2, r2, r3
 4923 1b3e 92F8CA10 		ldrb	r1, [r2, #202]	@ zero_extendqisi2
 4924 1b42 10AA     		add	r2, sp, #64
 4925 1b44 1A44     		add	r2, r2, r3
 4926 1b46 02F82C1C 		strb	r1, [r2, #-44]
1029:.\protocolo.c **** 						sustraendo[z]=buffer_i2c[z+12];
 4927              		.loc 1 1029 0 discriminator 3
 4928 1b4a 03F10C01 		add	r1, r3, #12
 4929 1b4e 6948     		ldr	r0, .L612+40
 4930 1b50 415C     		ldrb	r1, [r0, r1]	@ zero_extendqisi2
 4931 1b52 02F83C1C 		strb	r1, [r2, #-60]
1027:.\protocolo.c **** 					for(z=1;z<=12;z++){
 4932              		.loc 1 1027 0 discriminator 3
 4933 1b56 0133     		adds	r3, r3, #1
 4934 1b58 5D4A     		ldr	r2, .L612+4
 4935 1b5a 1360     		str	r3, [r2]
 4936              	.L344:
1027:.\protocolo.c **** 					for(z=1;z<=12;z++){
 4937              		.loc 1 1027 0 is_stmt 0 discriminator 1
 4938 1b5c 5C4B     		ldr	r3, .L612+4
 4939 1b5e 1B68     		ldr	r3, [r3]
 4940 1b60 0C2B     		cmp	r3, #12
 4941 1b62 EAD9     		bls	.L345
1030:.\protocolo.c **** 					}
1031:.\protocolo.c **** 					minuendo[0]=12;
 4942              		.loc 1 1031 0 is_stmt 1
 4943 1b64 10A9     		add	r1, sp, #64
 4944 1b66 0C23     		movs	r3, #12
 4945 1b68 01F82C3D 		strb	r3, [r1, #-44]!
1032:.\protocolo.c **** 					operacion(2,minuendo,sustraendo);
 4946              		.loc 1 1032 0
 4947 1b6c 0220     		movs	r0, #2
 4948 1b6e 01AA     		add	r2, sp, #4
 4949 1b70 FFF7FEFF 		bl	operacion
 4950              	.LVL360:
1033:.\protocolo.c **** 					for(x=0;x<=17;x++){									
 4951              		.loc 1 1033 0
 4952 1b74 0022     		movs	r2, #0
 4953 1b76 5B4B     		ldr	r3, .L612+24
 4954 1b78 1A60     		str	r2, [r3]
 4955 1b7a 0AE0     		b	.L346
 4956              	.L347:
1034:.\protocolo.c **** 						write_psoc1(val,msn_tventas[x]);				//Total de ventas
 4957              		.loc 1 1034 0 discriminator 3
 4958 1b7c 5A4A     		ldr	r2, .L612+28
 4959 1b7e 1344     		add	r3, r3, r2
 4960 1b80 2046     		mov	r0, r4
 4961 1b82 93F82C10 		ldrb	r1, [r3, #44]	@ zero_extendqisi2
 4962 1b86 FFF7FEFF 		bl	write_psoc1
 4963              	.LVL361:
1033:.\protocolo.c **** 					for(x=0;x<=17;x++){									
ARM GAS  C:\Users\diego\AppData\Local\Temp\ccwBHTp3.s 			page 111


 4964              		.loc 1 1033 0 discriminator 3
 4965 1b8a 564A     		ldr	r2, .L612+24
 4966 1b8c 1368     		ldr	r3, [r2]
 4967 1b8e 0133     		adds	r3, r3, #1
 4968 1b90 1360     		str	r3, [r2]
 4969              	.L346:
1033:.\protocolo.c **** 					for(x=0;x<=17;x++){									
 4970              		.loc 1 1033 0 is_stmt 0 discriminator 1
 4971 1b92 544B     		ldr	r3, .L612+24
 4972 1b94 1B68     		ldr	r3, [r3]
 4973 1b96 112B     		cmp	r3, #17
 4974 1b98 F0D9     		bls	.L347
1035:.\protocolo.c **** 					}
1036:.\protocolo.c **** 					print_valor(resultado,val);
 4975              		.loc 1 1036 0 is_stmt 1
 4976 1b9a 5748     		ldr	r0, .L612+44
 4977 1b9c 2146     		mov	r1, r4
 4978 1b9e FFF7FEFF 		bl	print_valor
 4979              	.LVL362:
1037:.\protocolo.c **** 					if(dir==a.dir){
 4980              		.loc 1 1037 0
 4981 1ba2 4D4B     		ldr	r3, .L612+12
 4982 1ba4 1B78     		ldrb	r3, [r3]	@ zero_extendqisi2
 4983 1ba6 AB42     		cmp	r3, r5
 4984 1ba8 09D1     		bne	.L348
1038:.\protocolo.c **** 						write_eeprom(192,corte);	
 4985              		.loc 1 1038 0
 4986 1baa C020     		movs	r0, #192
 4987 1bac 09A9     		add	r1, sp, #36
 4988 1bae FFF7FEFF 		bl	write_eeprom
 4989              	.LVL363:
1039:.\protocolo.c **** 						write_eeprom(512,resultado);
 4990              		.loc 1 1039 0
 4991 1bb2 4FF40070 		mov	r0, #512
 4992 1bb6 5049     		ldr	r1, .L612+44
 4993 1bb8 FFF7FEFF 		bl	write_eeprom
 4994              	.LVL364:
 4995 1bbc 09E0     		b	.L333
 4996              	.L348:
1040:.\protocolo.c **** 					}
1041:.\protocolo.c **** 					else{
1042:.\protocolo.c **** 						write_eeprom(281,corte);
 4997              		.loc 1 1042 0
 4998 1bbe 40F21910 		movw	r0, #281
 4999 1bc2 09A9     		add	r1, sp, #36
 5000 1bc4 FFF7FEFF 		bl	write_eeprom
 5001              	.LVL365:
1043:.\protocolo.c **** 						write_eeprom(551,resultado);
 5002              		.loc 1 1043 0
 5003 1bc8 40F22720 		movw	r0, #551
 5004 1bcc 4A49     		ldr	r1, .L612+44
 5005 1bce FFF7FEFF 		bl	write_eeprom
 5006              	.LVL366:
 5007              	.L333:
1044:.\protocolo.c **** 					}
1045:.\protocolo.c **** 				}
1046:.\protocolo.c **** 				if(((rventa.manguera==(producto2&0x0F))&&(dir==a.dir))||((rventa.manguera==(producto2b&0x0F))&&
ARM GAS  C:\Users\diego\AppData\Local\Temp\ccwBHTp3.s 			page 112


 5008              		.loc 1 1046 0
 5009 1bd2 4A4B     		ldr	r3, .L612+48
 5010 1bd4 93F8E020 		ldrb	r2, [r3, #224]	@ zero_extendqisi2
 5011 1bd8 494B     		ldr	r3, .L612+52
 5012 1bda 1B78     		ldrb	r3, [r3]	@ zero_extendqisi2
 5013 1bdc 03F00F03 		and	r3, r3, #15
 5014 1be0 9342     		cmp	r3, r2
 5015 1be2 03D1     		bne	.L349
 5016              		.loc 1 1046 0 is_stmt 0 discriminator 1
 5017 1be4 3C4B     		ldr	r3, .L612+12
 5018 1be6 1B78     		ldrb	r3, [r3]	@ zero_extendqisi2
 5019 1be8 AB42     		cmp	r3, r5
 5020 1bea 0BD0     		beq	.L350
 5021              	.L349:
 5022              		.loc 1 1046 0 discriminator 3
 5023 1bec 454B     		ldr	r3, .L612+56
 5024 1bee 1B78     		ldrb	r3, [r3]	@ zero_extendqisi2
 5025 1bf0 03F00F03 		and	r3, r3, #15
 5026 1bf4 9A42     		cmp	r2, r3
 5027 1bf6 40F0E180 		bne	.L351
 5028              		.loc 1 1046 0 discriminator 4
 5029 1bfa 394B     		ldr	r3, .L612+20
 5030 1bfc 1B78     		ldrb	r3, [r3]	@ zero_extendqisi2
 5031 1bfe AB42     		cmp	r3, r5
 5032 1c00 40F0DC80 		bne	.L351
 5033              	.L350:
1047:.\protocolo.c **** 					for(x=0;x<=5;x++){									
 5034              		.loc 1 1047 0 is_stmt 1
 5035 1c04 0022     		movs	r2, #0
 5036 1c06 374B     		ldr	r3, .L612+24
 5037 1c08 1A60     		str	r2, [r3]
 5038 1c0a 08E0     		b	.L352
 5039              	.L353:
1048:.\protocolo.c **** 						    write_psoc1(val,msn_tc[x]);
 5040              		.loc 1 1048 0 discriminator 3
 5041 1c0c 2046     		mov	r0, r4
 5042 1c0e 364A     		ldr	r2, .L612+28
 5043 1c10 D15C     		ldrb	r1, [r2, r3]	@ zero_extendqisi2
 5044 1c12 FFF7FEFF 		bl	write_psoc1
 5045              	.LVL367:
1047:.\protocolo.c **** 					for(x=0;x<=5;x++){									
 5046              		.loc 1 1047 0 discriminator 3
 5047 1c16 334A     		ldr	r2, .L612+24
 5048 1c18 1368     		ldr	r3, [r2]
 5049 1c1a 0133     		adds	r3, r3, #1
 5050 1c1c 1360     		str	r3, [r2]
 5051              	.L352:
1047:.\protocolo.c **** 					for(x=0;x<=5;x++){									
 5052              		.loc 1 1047 0 is_stmt 0 discriminator 1
 5053 1c1e 314B     		ldr	r3, .L612+24
 5054 1c20 1B68     		ldr	r3, [r3]
 5055 1c22 052B     		cmp	r3, #5
 5056 1c24 F2D9     		bls	.L353
1049:.\protocolo.c **** 					    }
1050:.\protocolo.c **** 					    write_psoc1(val,10);
 5057              		.loc 1 1050 0 is_stmt 1
 5058 1c26 2046     		mov	r0, r4
ARM GAS  C:\Users\diego\AppData\Local\Temp\ccwBHTp3.s 			page 113


 5059 1c28 0A21     		movs	r1, #10
 5060 1c2a FFF7FEFF 		bl	write_psoc1
 5061              	.LVL368:
1051:.\protocolo.c ****                     for(x=0;x<=10;x++){									
 5062              		.loc 1 1051 0
 5063 1c2e 0022     		movs	r2, #0
 5064 1c30 2C4B     		ldr	r3, .L612+24
 5065 1c32 1A60     		str	r2, [r3]
 5066 1c34 08E0     		b	.L354
 5067              	.L355:
1052:.\protocolo.c **** 						    write_psoc1(val,producto2n[x]);
 5068              		.loc 1 1052 0 discriminator 3
 5069 1c36 2046     		mov	r0, r4
 5070 1c38 334A     		ldr	r2, .L612+60
 5071 1c3a D15C     		ldrb	r1, [r2, r3]	@ zero_extendqisi2
 5072 1c3c FFF7FEFF 		bl	write_psoc1
 5073              	.LVL369:
1051:.\protocolo.c ****                     for(x=0;x<=10;x++){									
 5074              		.loc 1 1051 0 discriminator 3
 5075 1c40 284A     		ldr	r2, .L612+24
 5076 1c42 1368     		ldr	r3, [r2]
 5077 1c44 0133     		adds	r3, r3, #1
 5078 1c46 1360     		str	r3, [r2]
 5079              	.L354:
1051:.\protocolo.c ****                     for(x=0;x<=10;x++){									
 5080              		.loc 1 1051 0 is_stmt 0 discriminator 1
 5081 1c48 264B     		ldr	r3, .L612+24
 5082 1c4a 1B68     		ldr	r3, [r3]
 5083 1c4c 0A2B     		cmp	r3, #10
 5084 1c4e F2D9     		bls	.L355
1053:.\protocolo.c **** 					    }
1054:.\protocolo.c ****                     write_psoc1(val,10);
 5085              		.loc 1 1054 0 is_stmt 1
 5086 1c50 2046     		mov	r0, r4
 5087 1c52 0A21     		movs	r1, #10
 5088 1c54 FFF7FEFF 		bl	write_psoc1
 5089              	.LVL370:
1055:.\protocolo.c **** 					for(x=0;x<=14;x++){									
 5090              		.loc 1 1055 0
 5091 1c58 0022     		movs	r2, #0
 5092 1c5a 224B     		ldr	r3, .L612+24
 5093 1c5c 1A60     		str	r2, [r3]
 5094 1c5e 09E0     		b	.L356
 5095              	.L357:
1056:.\protocolo.c **** 						write_psoc1(val,msn_lecact[x]);				//LECTURA ACTUAL
 5096              		.loc 1 1056 0 discriminator 3
 5097 1c60 214A     		ldr	r2, .L612+28
 5098 1c62 1344     		add	r3, r3, r2
 5099 1c64 2046     		mov	r0, r4
 5100 1c66 197A     		ldrb	r1, [r3, #8]	@ zero_extendqisi2
 5101 1c68 FFF7FEFF 		bl	write_psoc1
 5102              	.LVL371:
1055:.\protocolo.c **** 					for(x=0;x<=14;x++){									
 5103              		.loc 1 1055 0 discriminator 3
 5104 1c6c 1D4A     		ldr	r2, .L612+24
 5105 1c6e 1368     		ldr	r3, [r2]
 5106 1c70 0133     		adds	r3, r3, #1
ARM GAS  C:\Users\diego\AppData\Local\Temp\ccwBHTp3.s 			page 114


 5107 1c72 1360     		str	r3, [r2]
 5108              	.L356:
1055:.\protocolo.c **** 					for(x=0;x<=14;x++){									
 5109              		.loc 1 1055 0 is_stmt 0 discriminator 1
 5110 1c74 1B4B     		ldr	r3, .L612+24
 5111 1c76 1B68     		ldr	r3, [r3]
 5112 1c78 0E2B     		cmp	r3, #14
 5113 1c7a F1D9     		bls	.L357
1057:.\protocolo.c **** 					}
1058:.\protocolo.c **** 					write_psoc1(val,10);
 5114              		.loc 1 1058 0 is_stmt 1
 5115 1c7c 2046     		mov	r0, r4
 5116 1c7e 0A21     		movs	r1, #10
 5117 1c80 FFF7FEFF 		bl	write_psoc1
 5118              	.LVL372:
1059:.\protocolo.c **** 					print_totalesac(12,val);	
 5119              		.loc 1 1059 0
 5120 1c84 0C20     		movs	r0, #12
 5121 1c86 2146     		mov	r1, r4
 5122 1c88 FFF7FEFF 		bl	print_totalesac
 5123              	.LVL373:
1060:.\protocolo.c **** 					for(x=0;x<=16;x++){												
 5124              		.loc 1 1060 0
 5125 1c8c 0022     		movs	r2, #0
 5126 1c8e 154B     		ldr	r3, .L612+24
 5127 1c90 1A60     		str	r2, [r3]
 5128 1c92 09E0     		b	.L358
 5129              	.L359:
1061:.\protocolo.c **** 						write_psoc1(val,msn_lecaan[x]);				//LECTURA ANTERIOR
 5130              		.loc 1 1061 0 discriminator 3
 5131 1c94 144A     		ldr	r2, .L612+28
 5132 1c96 1344     		add	r3, r3, r2
 5133 1c98 2046     		mov	r0, r4
 5134 1c9a 197E     		ldrb	r1, [r3, #24]	@ zero_extendqisi2
 5135 1c9c FFF7FEFF 		bl	write_psoc1
 5136              	.LVL374:
1060:.\protocolo.c **** 					for(x=0;x<=16;x++){												
 5137              		.loc 1 1060 0 discriminator 3
 5138 1ca0 104A     		ldr	r2, .L612+24
 5139 1ca2 1368     		ldr	r3, [r2]
 5140 1ca4 0133     		adds	r3, r3, #1
 5141 1ca6 1360     		str	r3, [r2]
 5142              	.L358:
1060:.\protocolo.c **** 					for(x=0;x<=16;x++){												
 5143              		.loc 1 1060 0 is_stmt 0 discriminator 1
 5144 1ca8 0E4B     		ldr	r3, .L612+24
 5145 1caa 1B68     		ldr	r3, [r3]
 5146 1cac 102B     		cmp	r3, #16
 5147 1cae F1D9     		bls	.L359
1062:.\protocolo.c **** 					}
1063:.\protocolo.c **** 					write_psoc1(val,10);
 5148              		.loc 1 1063 0 is_stmt 1
 5149 1cb0 2046     		mov	r0, r4
 5150 1cb2 0A21     		movs	r1, #10
 5151 1cb4 FFF7FEFF 		bl	write_psoc1
 5152              	.LVL375:
1064:.\protocolo.c **** 					if(dir==a.dir){
ARM GAS  C:\Users\diego\AppData\Local\Temp\ccwBHTp3.s 			page 115


 5153              		.loc 1 1064 0
 5154 1cb8 074B     		ldr	r3, .L612+12
 5155 1cba 1B78     		ldrb	r3, [r3]	@ zero_extendqisi2
 5156 1cbc AB42     		cmp	r3, r5
 5157 1cbe 25D1     		bne	.L360
1065:.\protocolo.c **** 						leer_eeprom(217,25);
 5158              		.loc 1 1065 0
 5159 1cc0 D920     		movs	r0, #217
 5160 1cc2 1921     		movs	r1, #25
 5161 1cc4 FFF7FEFF 		bl	leer_eeprom
 5162              	.LVL376:
 5163 1cc8 25E0     		b	.L361
 5164              	.L613:
 5165 1cca 00BF     		.align	2
 5166              	.L612:
 5167 1ccc F3FFFFFF 		.word	rventa-13
 5168 1cd0 00000000 		.word	z
 5169 1cd4 00000000 		.word	producto1
 5170 1cd8 00000000 		.word	a
 5171 1cdc 00000000 		.word	producto1b
 5172 1ce0 00000000 		.word	b
 5173 1ce4 00000000 		.word	x
 5174 1ce8 00000000 		.word	.LANCHOR1
 5175 1cec 00000000 		.word	producto1n
 5176 1cf0 FFFFFFFF 		.word	rventa-1
 5177 1cf4 00000000 		.word	buffer_i2c
 5178 1cf8 00000000 		.word	resultado
 5179 1cfc 00000000 		.word	rventa
 5180 1d00 00000000 		.word	producto2
 5181 1d04 00000000 		.word	producto2b
 5182 1d08 00000000 		.word	producto2n
 5183              	.L360:
1066:.\protocolo.c **** 					}
1067:.\protocolo.c **** 					else{
1068:.\protocolo.c **** 						leer_eeprom(320,25);
 5184              		.loc 1 1068 0
 5185 1d0c 4FF4A070 		mov	r0, #320
 5186 1d10 1921     		movs	r1, #25
 5187 1d12 FFF7FEFF 		bl	leer_eeprom
 5188              	.LVL377:
 5189              	.L361:
1069:.\protocolo.c **** 					}
1070:.\protocolo.c **** 					print_totales(val);
 5190              		.loc 1 1070 0
 5191 1d16 2046     		mov	r0, r4
 5192 1d18 FFF7FEFF 		bl	print_totales
 5193              	.LVL378:
1071:.\protocolo.c **** 					for(z=1;z<=12;z++){
 5194              		.loc 1 1071 0
 5195 1d1c 0122     		movs	r2, #1
 5196 1d1e AB4B     		ldr	r3, .L614
 5197 1d20 1A60     		str	r2, [r3]
 5198 1d22 10E0     		b	.L362
 5199              	.L363:
1072:.\protocolo.c **** 						minuendo[z]=rventa.tdinero[z-1];
 5200              		.loc 1 1072 0 discriminator 3
 5201 1d24 AA4A     		ldr	r2, .L614+4
ARM GAS  C:\Users\diego\AppData\Local\Temp\ccwBHTp3.s 			page 116


 5202 1d26 1A44     		add	r2, r2, r3
 5203 1d28 92F8CA10 		ldrb	r1, [r2, #202]	@ zero_extendqisi2
 5204 1d2c 10AA     		add	r2, sp, #64
 5205 1d2e 1A44     		add	r2, r2, r3
 5206 1d30 02F82C1C 		strb	r1, [r2, #-44]
1073:.\protocolo.c **** 						sustraendo[z]=buffer_i2c[z+12];
 5207              		.loc 1 1073 0 discriminator 3
 5208 1d34 03F10C01 		add	r1, r3, #12
 5209 1d38 A648     		ldr	r0, .L614+8
 5210 1d3a 415C     		ldrb	r1, [r0, r1]	@ zero_extendqisi2
 5211 1d3c 02F83C1C 		strb	r1, [r2, #-60]
1071:.\protocolo.c **** 					for(z=1;z<=12;z++){
 5212              		.loc 1 1071 0 discriminator 3
 5213 1d40 0133     		adds	r3, r3, #1
 5214 1d42 A24A     		ldr	r2, .L614
 5215 1d44 1360     		str	r3, [r2]
 5216              	.L362:
1071:.\protocolo.c **** 					for(z=1;z<=12;z++){
 5217              		.loc 1 1071 0 is_stmt 0 discriminator 1
 5218 1d46 A14B     		ldr	r3, .L614
 5219 1d48 1B68     		ldr	r3, [r3]
 5220 1d4a 0C2B     		cmp	r3, #12
 5221 1d4c EAD9     		bls	.L363
1074:.\protocolo.c **** 					}
1075:.\protocolo.c **** 					minuendo[0]=12;
 5222              		.loc 1 1075 0 is_stmt 1
 5223 1d4e 10A9     		add	r1, sp, #64
 5224 1d50 0C23     		movs	r3, #12
 5225 1d52 01F82C3D 		strb	r3, [r1, #-44]!
1076:.\protocolo.c **** 					operacion(2,minuendo,sustraendo);
 5226              		.loc 1 1076 0
 5227 1d56 0220     		movs	r0, #2
 5228 1d58 01AA     		add	r2, sp, #4
 5229 1d5a FFF7FEFF 		bl	operacion
 5230              	.LVL379:
1077:.\protocolo.c **** 					for(x=0;x<=17;x++){									
 5231              		.loc 1 1077 0
 5232 1d5e 0022     		movs	r2, #0
 5233 1d60 9D4B     		ldr	r3, .L614+12
 5234 1d62 1A60     		str	r2, [r3]
 5235 1d64 0AE0     		b	.L364
 5236              	.L365:
1078:.\protocolo.c **** 						write_psoc1(val,msn_tventas[x]);				//Total de ventas
 5237              		.loc 1 1078 0 discriminator 3
 5238 1d66 9D4A     		ldr	r2, .L614+16
 5239 1d68 1344     		add	r3, r3, r2
 5240 1d6a 2046     		mov	r0, r4
 5241 1d6c 93F82C10 		ldrb	r1, [r3, #44]	@ zero_extendqisi2
 5242 1d70 FFF7FEFF 		bl	write_psoc1
 5243              	.LVL380:
1077:.\protocolo.c **** 					for(x=0;x<=17;x++){									
 5244              		.loc 1 1077 0 discriminator 3
 5245 1d74 984A     		ldr	r2, .L614+12
 5246 1d76 1368     		ldr	r3, [r2]
 5247 1d78 0133     		adds	r3, r3, #1
 5248 1d7a 1360     		str	r3, [r2]
 5249              	.L364:
ARM GAS  C:\Users\diego\AppData\Local\Temp\ccwBHTp3.s 			page 117


1077:.\protocolo.c **** 					for(x=0;x<=17;x++){									
 5250              		.loc 1 1077 0 is_stmt 0 discriminator 1
 5251 1d7c 964B     		ldr	r3, .L614+12
 5252 1d7e 1B68     		ldr	r3, [r3]
 5253 1d80 112B     		cmp	r3, #17
 5254 1d82 F0D9     		bls	.L365
1079:.\protocolo.c **** 					}
1080:.\protocolo.c **** 					print_valor(resultado,val);				
 5255              		.loc 1 1080 0 is_stmt 1
 5256 1d84 9648     		ldr	r0, .L614+20
 5257 1d86 2146     		mov	r1, r4
 5258 1d88 FFF7FEFF 		bl	print_valor
 5259              	.LVL381:
1081:.\protocolo.c **** 					if(dir==a.dir){
 5260              		.loc 1 1081 0
 5261 1d8c 954B     		ldr	r3, .L614+24
 5262 1d8e 1B78     		ldrb	r3, [r3]	@ zero_extendqisi2
 5263 1d90 AB42     		cmp	r3, r5
 5264 1d92 09D1     		bne	.L366
1082:.\protocolo.c **** 						write_eeprom(217,corte);
 5265              		.loc 1 1082 0
 5266 1d94 D920     		movs	r0, #217
 5267 1d96 09A9     		add	r1, sp, #36
 5268 1d98 FFF7FEFF 		bl	write_eeprom
 5269              	.LVL382:
1083:.\protocolo.c **** 						write_eeprom(538,resultado);
 5270              		.loc 1 1083 0
 5271 1d9c 40F21A20 		movw	r0, #538
 5272 1da0 8F49     		ldr	r1, .L614+20
 5273 1da2 FFF7FEFF 		bl	write_eeprom
 5274              	.LVL383:
 5275 1da6 09E0     		b	.L351
 5276              	.L366:
1084:.\protocolo.c **** 					}
1085:.\protocolo.c **** 					else{
1086:.\protocolo.c **** 						write_eeprom(320,corte);
 5277              		.loc 1 1086 0
 5278 1da8 4FF4A070 		mov	r0, #320
 5279 1dac 09A9     		add	r1, sp, #36
 5280 1dae FFF7FEFF 		bl	write_eeprom
 5281              	.LVL384:
1087:.\protocolo.c **** 						write_eeprom(576,resultado);
 5282              		.loc 1 1087 0
 5283 1db2 4FF41070 		mov	r0, #576
 5284 1db6 8A49     		ldr	r1, .L614+20
 5285 1db8 FFF7FEFF 		bl	write_eeprom
 5286              	.LVL385:
 5287              	.L351:
1088:.\protocolo.c **** 					}				
1089:.\protocolo.c **** 				}
1090:.\protocolo.c **** 				if(((rventa.manguera==(producto3&0x0F))&&(dir==a.dir))||((rventa.manguera==(producto3b&0x0F))&&
 5288              		.loc 1 1090 0
 5289 1dbc 8A4B     		ldr	r3, .L614+28
 5290 1dbe 93F8E020 		ldrb	r2, [r3, #224]	@ zero_extendqisi2
 5291 1dc2 8A4B     		ldr	r3, .L614+32
 5292 1dc4 1B78     		ldrb	r3, [r3]	@ zero_extendqisi2
 5293 1dc6 03F00F03 		and	r3, r3, #15
ARM GAS  C:\Users\diego\AppData\Local\Temp\ccwBHTp3.s 			page 118


 5294 1dca 9342     		cmp	r3, r2
 5295 1dcc 03D1     		bne	.L367
 5296              		.loc 1 1090 0 is_stmt 0 discriminator 1
 5297 1dce 854B     		ldr	r3, .L614+24
 5298 1dd0 1B78     		ldrb	r3, [r3]	@ zero_extendqisi2
 5299 1dd2 AB42     		cmp	r3, r5
 5300 1dd4 0BD0     		beq	.L368
 5301              	.L367:
 5302              		.loc 1 1090 0 discriminator 3
 5303 1dd6 864B     		ldr	r3, .L614+36
 5304 1dd8 1B78     		ldrb	r3, [r3]	@ zero_extendqisi2
 5305 1dda 03F00F03 		and	r3, r3, #15
 5306 1dde 9A42     		cmp	r2, r3
 5307 1de0 40F0C280 		bne	.L369
 5308              		.loc 1 1090 0 discriminator 4
 5309 1de4 834B     		ldr	r3, .L614+40
 5310 1de6 1B78     		ldrb	r3, [r3]	@ zero_extendqisi2
 5311 1de8 AB42     		cmp	r3, r5
 5312 1dea 40F0BD80 		bne	.L369
 5313              	.L368:
1091:.\protocolo.c **** 					for(x=0;x<=5;x++){									
 5314              		.loc 1 1091 0 is_stmt 1
 5315 1dee 0022     		movs	r2, #0
 5316 1df0 794B     		ldr	r3, .L614+12
 5317 1df2 1A60     		str	r2, [r3]
 5318 1df4 08E0     		b	.L370
 5319              	.L371:
1092:.\protocolo.c **** 						    write_psoc1(val,msn_tc[x]);
 5320              		.loc 1 1092 0 discriminator 3
 5321 1df6 2046     		mov	r0, r4
 5322 1df8 784A     		ldr	r2, .L614+16
 5323 1dfa D15C     		ldrb	r1, [r2, r3]	@ zero_extendqisi2
 5324 1dfc FFF7FEFF 		bl	write_psoc1
 5325              	.LVL386:
1091:.\protocolo.c **** 					for(x=0;x<=5;x++){									
 5326              		.loc 1 1091 0 discriminator 3
 5327 1e00 754A     		ldr	r2, .L614+12
 5328 1e02 1368     		ldr	r3, [r2]
 5329 1e04 0133     		adds	r3, r3, #1
 5330 1e06 1360     		str	r3, [r2]
 5331              	.L370:
1091:.\protocolo.c **** 					for(x=0;x<=5;x++){									
 5332              		.loc 1 1091 0 is_stmt 0 discriminator 1
 5333 1e08 734B     		ldr	r3, .L614+12
 5334 1e0a 1B68     		ldr	r3, [r3]
 5335 1e0c 052B     		cmp	r3, #5
 5336 1e0e F2D9     		bls	.L371
1093:.\protocolo.c **** 					    }
1094:.\protocolo.c **** 					    write_psoc1(val,10);
 5337              		.loc 1 1094 0 is_stmt 1
 5338 1e10 2046     		mov	r0, r4
 5339 1e12 0A21     		movs	r1, #10
 5340 1e14 FFF7FEFF 		bl	write_psoc1
 5341              	.LVL387:
1095:.\protocolo.c ****                     for(x=0;x<=10;x++){									
 5342              		.loc 1 1095 0
 5343 1e18 0022     		movs	r2, #0
ARM GAS  C:\Users\diego\AppData\Local\Temp\ccwBHTp3.s 			page 119


 5344 1e1a 6F4B     		ldr	r3, .L614+12
 5345 1e1c 1A60     		str	r2, [r3]
 5346 1e1e 08E0     		b	.L372
 5347              	.L373:
1096:.\protocolo.c **** 						    write_psoc1(val,producto3n[x]);
 5348              		.loc 1 1096 0 discriminator 3
 5349 1e20 2046     		mov	r0, r4
 5350 1e22 754A     		ldr	r2, .L614+44
 5351 1e24 D15C     		ldrb	r1, [r2, r3]	@ zero_extendqisi2
 5352 1e26 FFF7FEFF 		bl	write_psoc1
 5353              	.LVL388:
1095:.\protocolo.c ****                     for(x=0;x<=10;x++){									
 5354              		.loc 1 1095 0 discriminator 3
 5355 1e2a 6B4A     		ldr	r2, .L614+12
 5356 1e2c 1368     		ldr	r3, [r2]
 5357 1e2e 0133     		adds	r3, r3, #1
 5358 1e30 1360     		str	r3, [r2]
 5359              	.L372:
1095:.\protocolo.c ****                     for(x=0;x<=10;x++){									
 5360              		.loc 1 1095 0 is_stmt 0 discriminator 1
 5361 1e32 694B     		ldr	r3, .L614+12
 5362 1e34 1B68     		ldr	r3, [r3]
 5363 1e36 0A2B     		cmp	r3, #10
 5364 1e38 F2D9     		bls	.L373
1097:.\protocolo.c **** 					    }
1098:.\protocolo.c ****                     write_psoc1(val,10);
 5365              		.loc 1 1098 0 is_stmt 1
 5366 1e3a 2046     		mov	r0, r4
 5367 1e3c 0A21     		movs	r1, #10
 5368 1e3e FFF7FEFF 		bl	write_psoc1
 5369              	.LVL389:
1099:.\protocolo.c **** 					for(x=0;x<=14;x++){									
 5370              		.loc 1 1099 0
 5371 1e42 0022     		movs	r2, #0
 5372 1e44 644B     		ldr	r3, .L614+12
 5373 1e46 1A60     		str	r2, [r3]
 5374 1e48 09E0     		b	.L374
 5375              	.L375:
1100:.\protocolo.c **** 						write_psoc1(val,msn_lecact[x]);				//LECTURA ACTUAL
 5376              		.loc 1 1100 0 discriminator 3
 5377 1e4a 644A     		ldr	r2, .L614+16
 5378 1e4c 1344     		add	r3, r3, r2
 5379 1e4e 2046     		mov	r0, r4
 5380 1e50 197A     		ldrb	r1, [r3, #8]	@ zero_extendqisi2
 5381 1e52 FFF7FEFF 		bl	write_psoc1
 5382              	.LVL390:
1099:.\protocolo.c **** 					for(x=0;x<=14;x++){									
 5383              		.loc 1 1099 0 discriminator 3
 5384 1e56 604A     		ldr	r2, .L614+12
 5385 1e58 1368     		ldr	r3, [r2]
 5386 1e5a 0133     		adds	r3, r3, #1
 5387 1e5c 1360     		str	r3, [r2]
 5388              	.L374:
1099:.\protocolo.c **** 					for(x=0;x<=14;x++){									
 5389              		.loc 1 1099 0 is_stmt 0 discriminator 1
 5390 1e5e 5E4B     		ldr	r3, .L614+12
 5391 1e60 1B68     		ldr	r3, [r3]
ARM GAS  C:\Users\diego\AppData\Local\Temp\ccwBHTp3.s 			page 120


 5392 1e62 0E2B     		cmp	r3, #14
 5393 1e64 F1D9     		bls	.L375
1101:.\protocolo.c **** 					}
1102:.\protocolo.c **** 					write_psoc1(val,10);
 5394              		.loc 1 1102 0 is_stmt 1
 5395 1e66 2046     		mov	r0, r4
 5396 1e68 0A21     		movs	r1, #10
 5397 1e6a FFF7FEFF 		bl	write_psoc1
 5398              	.LVL391:
1103:.\protocolo.c **** 					print_totalesac(12,val);	
 5399              		.loc 1 1103 0
 5400 1e6e 0C20     		movs	r0, #12
 5401 1e70 2146     		mov	r1, r4
 5402 1e72 FFF7FEFF 		bl	print_totalesac
 5403              	.LVL392:
1104:.\protocolo.c **** 					for(x=0;x<=16;x++){												
 5404              		.loc 1 1104 0
 5405 1e76 0022     		movs	r2, #0
 5406 1e78 574B     		ldr	r3, .L614+12
 5407 1e7a 1A60     		str	r2, [r3]
 5408 1e7c 09E0     		b	.L376
 5409              	.L377:
1105:.\protocolo.c **** 						write_psoc1(val,msn_lecaan[x]);				//LECTURA ANTERIOR
 5410              		.loc 1 1105 0 discriminator 3
 5411 1e7e 574A     		ldr	r2, .L614+16
 5412 1e80 1344     		add	r3, r3, r2
 5413 1e82 2046     		mov	r0, r4
 5414 1e84 197E     		ldrb	r1, [r3, #24]	@ zero_extendqisi2
 5415 1e86 FFF7FEFF 		bl	write_psoc1
 5416              	.LVL393:
1104:.\protocolo.c **** 					for(x=0;x<=16;x++){												
 5417              		.loc 1 1104 0 discriminator 3
 5418 1e8a 534A     		ldr	r2, .L614+12
 5419 1e8c 1368     		ldr	r3, [r2]
 5420 1e8e 0133     		adds	r3, r3, #1
 5421 1e90 1360     		str	r3, [r2]
 5422              	.L376:
1104:.\protocolo.c **** 					for(x=0;x<=16;x++){												
 5423              		.loc 1 1104 0 is_stmt 0 discriminator 1
 5424 1e92 514B     		ldr	r3, .L614+12
 5425 1e94 1B68     		ldr	r3, [r3]
 5426 1e96 102B     		cmp	r3, #16
 5427 1e98 F1D9     		bls	.L377
1106:.\protocolo.c **** 					}
1107:.\protocolo.c **** 					write_psoc1(val,10);
 5428              		.loc 1 1107 0 is_stmt 1
 5429 1e9a 2046     		mov	r0, r4
 5430 1e9c 0A21     		movs	r1, #10
 5431 1e9e FFF7FEFF 		bl	write_psoc1
 5432              	.LVL394:
1108:.\protocolo.c **** 					if(dir==a.dir){
 5433              		.loc 1 1108 0
 5434 1ea2 504B     		ldr	r3, .L614+24
 5435 1ea4 1B78     		ldrb	r3, [r3]	@ zero_extendqisi2
 5436 1ea6 AB42     		cmp	r3, r5
 5437 1ea8 05D1     		bne	.L378
1109:.\protocolo.c **** 						leer_eeprom(256,25);
ARM GAS  C:\Users\diego\AppData\Local\Temp\ccwBHTp3.s 			page 121


 5438              		.loc 1 1109 0
 5439 1eaa 4FF48070 		mov	r0, #256
 5440 1eae 1921     		movs	r1, #25
 5441 1eb0 FFF7FEFF 		bl	leer_eeprom
 5442              	.LVL395:
 5443 1eb4 04E0     		b	.L379
 5444              	.L378:
1110:.\protocolo.c **** 					}
1111:.\protocolo.c **** 					else{
1112:.\protocolo.c **** 						leer_eeprom(345,25);
 5445              		.loc 1 1112 0
 5446 1eb6 40F25910 		movw	r0, #345
 5447 1eba 1921     		movs	r1, #25
 5448 1ebc FFF7FEFF 		bl	leer_eeprom
 5449              	.LVL396:
 5450              	.L379:
1113:.\protocolo.c **** 					}
1114:.\protocolo.c **** 					print_totales(val);
 5451              		.loc 1 1114 0
 5452 1ec0 2046     		mov	r0, r4
 5453 1ec2 FFF7FEFF 		bl	print_totales
 5454              	.LVL397:
1115:.\protocolo.c **** 					for(z=1;z<=12;z++){
 5455              		.loc 1 1115 0
 5456 1ec6 0122     		movs	r2, #1
 5457 1ec8 404B     		ldr	r3, .L614
 5458 1eca 1A60     		str	r2, [r3]
 5459 1ecc 10E0     		b	.L380
 5460              	.L381:
1116:.\protocolo.c **** 						minuendo[z]=rventa.tdinero[z-1];
 5461              		.loc 1 1116 0 discriminator 3
 5462 1ece 404A     		ldr	r2, .L614+4
 5463 1ed0 1A44     		add	r2, r2, r3
 5464 1ed2 92F8CA10 		ldrb	r1, [r2, #202]	@ zero_extendqisi2
 5465 1ed6 10AA     		add	r2, sp, #64
 5466 1ed8 1A44     		add	r2, r2, r3
 5467 1eda 02F82C1C 		strb	r1, [r2, #-44]
1117:.\protocolo.c **** 						sustraendo[z]=buffer_i2c[z+12];
 5468              		.loc 1 1117 0 discriminator 3
 5469 1ede 03F10C01 		add	r1, r3, #12
 5470 1ee2 3C48     		ldr	r0, .L614+8
 5471 1ee4 415C     		ldrb	r1, [r0, r1]	@ zero_extendqisi2
 5472 1ee6 02F83C1C 		strb	r1, [r2, #-60]
1115:.\protocolo.c **** 					for(z=1;z<=12;z++){
 5473              		.loc 1 1115 0 discriminator 3
 5474 1eea 0133     		adds	r3, r3, #1
 5475 1eec 374A     		ldr	r2, .L614
 5476 1eee 1360     		str	r3, [r2]
 5477              	.L380:
1115:.\protocolo.c **** 					for(z=1;z<=12;z++){
 5478              		.loc 1 1115 0 is_stmt 0 discriminator 1
 5479 1ef0 364B     		ldr	r3, .L614
 5480 1ef2 1B68     		ldr	r3, [r3]
 5481 1ef4 0C2B     		cmp	r3, #12
 5482 1ef6 EAD9     		bls	.L381
1118:.\protocolo.c **** 					}
1119:.\protocolo.c **** 					minuendo[0]=12;
ARM GAS  C:\Users\diego\AppData\Local\Temp\ccwBHTp3.s 			page 122


 5483              		.loc 1 1119 0 is_stmt 1
 5484 1ef8 10A9     		add	r1, sp, #64
 5485 1efa 0C23     		movs	r3, #12
 5486 1efc 01F82C3D 		strb	r3, [r1, #-44]!
1120:.\protocolo.c **** 					operacion(2,minuendo,sustraendo);
 5487              		.loc 1 1120 0
 5488 1f00 0220     		movs	r0, #2
 5489 1f02 01AA     		add	r2, sp, #4
 5490 1f04 FFF7FEFF 		bl	operacion
 5491              	.LVL398:
1121:.\protocolo.c **** 					for(x=0;x<=17;x++){									
 5492              		.loc 1 1121 0
 5493 1f08 0022     		movs	r2, #0
 5494 1f0a 334B     		ldr	r3, .L614+12
 5495 1f0c 1A60     		str	r2, [r3]
 5496 1f0e 0AE0     		b	.L382
 5497              	.L383:
1122:.\protocolo.c **** 						write_psoc1(val,msn_tventas[x]);				//Total de ventas
 5498              		.loc 1 1122 0 discriminator 3
 5499 1f10 324A     		ldr	r2, .L614+16
 5500 1f12 1344     		add	r3, r3, r2
 5501 1f14 2046     		mov	r0, r4
 5502 1f16 93F82C10 		ldrb	r1, [r3, #44]	@ zero_extendqisi2
 5503 1f1a FFF7FEFF 		bl	write_psoc1
 5504              	.LVL399:
1121:.\protocolo.c **** 					for(x=0;x<=17;x++){									
 5505              		.loc 1 1121 0 discriminator 3
 5506 1f1e 2E4A     		ldr	r2, .L614+12
 5507 1f20 1368     		ldr	r3, [r2]
 5508 1f22 0133     		adds	r3, r3, #1
 5509 1f24 1360     		str	r3, [r2]
 5510              	.L382:
1121:.\protocolo.c **** 					for(x=0;x<=17;x++){									
 5511              		.loc 1 1121 0 is_stmt 0 discriminator 1
 5512 1f26 2C4B     		ldr	r3, .L614+12
 5513 1f28 1B68     		ldr	r3, [r3]
 5514 1f2a 112B     		cmp	r3, #17
 5515 1f2c F0D9     		bls	.L383
1123:.\protocolo.c **** 					}
1124:.\protocolo.c **** 					print_valor(resultado,val);							
 5516              		.loc 1 1124 0 is_stmt 1
 5517 1f2e 2C48     		ldr	r0, .L614+20
 5518 1f30 2146     		mov	r1, r4
 5519 1f32 FFF7FEFF 		bl	print_valor
 5520              	.LVL400:
1125:.\protocolo.c **** 					if(dir==a.dir){
 5521              		.loc 1 1125 0
 5522 1f36 2B4B     		ldr	r3, .L614+24
 5523 1f38 1B78     		ldrb	r3, [r3]	@ zero_extendqisi2
 5524 1f3a AB42     		cmp	r3, r5
 5525 1f3c 0AD1     		bne	.L384
1126:.\protocolo.c **** 						write_eeprom(256,corte);
 5526              		.loc 1 1126 0
 5527 1f3e 4FF48070 		mov	r0, #256
 5528 1f42 09A9     		add	r1, sp, #36
 5529 1f44 FFF7FEFF 		bl	write_eeprom
 5530              	.LVL401:
ARM GAS  C:\Users\diego\AppData\Local\Temp\ccwBHTp3.s 			page 123


1127:.\protocolo.c **** 						write_eeprom(525,resultado);
 5531              		.loc 1 1127 0
 5532 1f48 40F20D20 		movw	r0, #525
 5533 1f4c 2449     		ldr	r1, .L614+20
 5534 1f4e FFF7FEFF 		bl	write_eeprom
 5535              	.LVL402:
 5536 1f52 09E0     		b	.L369
 5537              	.L384:
1128:.\protocolo.c **** 					}
1129:.\protocolo.c **** 					else{
1130:.\protocolo.c **** 						write_eeprom(345,corte);
 5538              		.loc 1 1130 0
 5539 1f54 40F25910 		movw	r0, #345
 5540 1f58 09A9     		add	r1, sp, #36
 5541 1f5a FFF7FEFF 		bl	write_eeprom
 5542              	.LVL403:
1131:.\protocolo.c **** 						write_eeprom(589,resultado);
 5543              		.loc 1 1131 0
 5544 1f5e 40F24D20 		movw	r0, #589
 5545 1f62 1F49     		ldr	r1, .L614+20
 5546 1f64 FFF7FEFF 		bl	write_eeprom
 5547              	.LVL404:
 5548              	.L369:
1132:.\protocolo.c **** 					}					
1133:.\protocolo.c **** 				}
1134:.\protocolo.c ****                 
1135:.\protocolo.c ****                 if(((rventa.manguera==(producto4&0x0F))&&(dir==a.dir))||((rventa.manguera==(product
 5549              		.loc 1 1135 0
 5550 1f68 1F4B     		ldr	r3, .L614+28
 5551 1f6a 93F8E020 		ldrb	r2, [r3, #224]	@ zero_extendqisi2
 5552 1f6e 234B     		ldr	r3, .L614+48
 5553 1f70 1B78     		ldrb	r3, [r3]	@ zero_extendqisi2
 5554 1f72 03F00F03 		and	r3, r3, #15
 5555 1f76 9342     		cmp	r3, r2
 5556 1f78 03D1     		bne	.L385
 5557              		.loc 1 1135 0 is_stmt 0 discriminator 1
 5558 1f7a 1A4B     		ldr	r3, .L614+24
 5559 1f7c 1B78     		ldrb	r3, [r3]	@ zero_extendqisi2
 5560 1f7e AB42     		cmp	r3, r5
 5561 1f80 0BD0     		beq	.L386
 5562              	.L385:
 5563              		.loc 1 1135 0 discriminator 3
 5564 1f82 1F4B     		ldr	r3, .L614+52
 5565 1f84 1B78     		ldrb	r3, [r3]	@ zero_extendqisi2
 5566 1f86 03F00F03 		and	r3, r3, #15
 5567 1f8a 9A42     		cmp	r2, r3
 5568 1f8c 40F0DE80 		bne	.L387
 5569              		.loc 1 1135 0 discriminator 4
 5570 1f90 184B     		ldr	r3, .L614+40
 5571 1f92 1B78     		ldrb	r3, [r3]	@ zero_extendqisi2
 5572 1f94 AB42     		cmp	r3, r5
 5573 1f96 40F0D980 		bne	.L387
 5574              	.L386:
1136:.\protocolo.c **** 					for(x=0;x<=5;x++){									
 5575              		.loc 1 1136 0 is_stmt 1
 5576 1f9a 0022     		movs	r2, #0
 5577 1f9c 0E4B     		ldr	r3, .L614+12
ARM GAS  C:\Users\diego\AppData\Local\Temp\ccwBHTp3.s 			page 124


 5578 1f9e 1A60     		str	r2, [r3]
 5579 1fa0 08E0     		b	.L388
 5580              	.L389:
1137:.\protocolo.c **** 						    write_psoc1(val,msn_tc[x]);
 5581              		.loc 1 1137 0 discriminator 3
 5582 1fa2 2046     		mov	r0, r4
 5583 1fa4 0D4A     		ldr	r2, .L614+16
 5584 1fa6 D15C     		ldrb	r1, [r2, r3]	@ zero_extendqisi2
 5585 1fa8 FFF7FEFF 		bl	write_psoc1
 5586              	.LVL405:
1136:.\protocolo.c **** 					for(x=0;x<=5;x++){									
 5587              		.loc 1 1136 0 discriminator 3
 5588 1fac 0A4A     		ldr	r2, .L614+12
 5589 1fae 1368     		ldr	r3, [r2]
 5590 1fb0 0133     		adds	r3, r3, #1
 5591 1fb2 1360     		str	r3, [r2]
 5592              	.L388:
1136:.\protocolo.c **** 					for(x=0;x<=5;x++){									
 5593              		.loc 1 1136 0 is_stmt 0 discriminator 1
 5594 1fb4 084B     		ldr	r3, .L614+12
 5595 1fb6 1B68     		ldr	r3, [r3]
 5596 1fb8 052B     		cmp	r3, #5
 5597 1fba F2D9     		bls	.L389
1138:.\protocolo.c **** 					    }
1139:.\protocolo.c **** 					    write_psoc1(val,10);
 5598              		.loc 1 1139 0 is_stmt 1
 5599 1fbc 2046     		mov	r0, r4
 5600 1fbe 0A21     		movs	r1, #10
 5601 1fc0 FFF7FEFF 		bl	write_psoc1
 5602              	.LVL406:
1140:.\protocolo.c ****                     for(x=0;x<=10;x++){									
 5603              		.loc 1 1140 0
 5604 1fc4 0022     		movs	r2, #0
 5605 1fc6 044B     		ldr	r3, .L614+12
 5606 1fc8 1A60     		str	r2, [r3]
 5607 1fca 24E0     		b	.L390
 5608              	.L615:
 5609              		.align	2
 5610              	.L614:
 5611 1fcc 00000000 		.word	z
 5612 1fd0 FFFFFFFF 		.word	rventa-1
 5613 1fd4 00000000 		.word	buffer_i2c
 5614 1fd8 00000000 		.word	x
 5615 1fdc 00000000 		.word	.LANCHOR1
 5616 1fe0 00000000 		.word	resultado
 5617 1fe4 00000000 		.word	a
 5618 1fe8 00000000 		.word	rventa
 5619 1fec 00000000 		.word	producto3
 5620 1ff0 00000000 		.word	producto3b
 5621 1ff4 00000000 		.word	b
 5622 1ff8 00000000 		.word	producto3n
 5623 1ffc 00000000 		.word	producto4
 5624 2000 00000000 		.word	producto4b
 5625              	.L391:
1141:.\protocolo.c **** 						    write_psoc1(val,producto4n[x]);
 5626              		.loc 1 1141 0 discriminator 3
 5627 2004 2046     		mov	r0, r4
ARM GAS  C:\Users\diego\AppData\Local\Temp\ccwBHTp3.s 			page 125


 5628 2006 A64A     		ldr	r2, .L616
 5629 2008 D15C     		ldrb	r1, [r2, r3]	@ zero_extendqisi2
 5630 200a FFF7FEFF 		bl	write_psoc1
 5631              	.LVL407:
1140:.\protocolo.c ****                     for(x=0;x<=10;x++){									
 5632              		.loc 1 1140 0 discriminator 3
 5633 200e A54A     		ldr	r2, .L616+4
 5634 2010 1368     		ldr	r3, [r2]
 5635 2012 0133     		adds	r3, r3, #1
 5636 2014 1360     		str	r3, [r2]
 5637              	.L390:
1140:.\protocolo.c ****                     for(x=0;x<=10;x++){									
 5638              		.loc 1 1140 0 is_stmt 0 discriminator 1
 5639 2016 A34B     		ldr	r3, .L616+4
 5640 2018 1B68     		ldr	r3, [r3]
 5641 201a 0A2B     		cmp	r3, #10
 5642 201c F2D9     		bls	.L391
1142:.\protocolo.c **** 					    }
1143:.\protocolo.c ****                     write_psoc1(val,10);
 5643              		.loc 1 1143 0 is_stmt 1
 5644 201e 2046     		mov	r0, r4
 5645 2020 0A21     		movs	r1, #10
 5646 2022 FFF7FEFF 		bl	write_psoc1
 5647              	.LVL408:
1144:.\protocolo.c **** 					for(x=0;x<=14;x++){									
 5648              		.loc 1 1144 0
 5649 2026 0022     		movs	r2, #0
 5650 2028 9E4B     		ldr	r3, .L616+4
 5651 202a 1A60     		str	r2, [r3]
 5652 202c 09E0     		b	.L392
 5653              	.L393:
1145:.\protocolo.c **** 						write_psoc1(val,msn_lecact[x]);				//LECTURA ACTUAL
 5654              		.loc 1 1145 0 discriminator 3
 5655 202e 9E4A     		ldr	r2, .L616+8
 5656 2030 1344     		add	r3, r3, r2
 5657 2032 2046     		mov	r0, r4
 5658 2034 197A     		ldrb	r1, [r3, #8]	@ zero_extendqisi2
 5659 2036 FFF7FEFF 		bl	write_psoc1
 5660              	.LVL409:
1144:.\protocolo.c **** 					for(x=0;x<=14;x++){									
 5661              		.loc 1 1144 0 discriminator 3
 5662 203a 9A4A     		ldr	r2, .L616+4
 5663 203c 1368     		ldr	r3, [r2]
 5664 203e 0133     		adds	r3, r3, #1
 5665 2040 1360     		str	r3, [r2]
 5666              	.L392:
1144:.\protocolo.c **** 					for(x=0;x<=14;x++){									
 5667              		.loc 1 1144 0 is_stmt 0 discriminator 1
 5668 2042 984B     		ldr	r3, .L616+4
 5669 2044 1B68     		ldr	r3, [r3]
 5670 2046 0E2B     		cmp	r3, #14
 5671 2048 F1D9     		bls	.L393
1146:.\protocolo.c **** 					}
1147:.\protocolo.c **** 					write_psoc1(val,10);
 5672              		.loc 1 1147 0 is_stmt 1
 5673 204a 2046     		mov	r0, r4
 5674 204c 0A21     		movs	r1, #10
ARM GAS  C:\Users\diego\AppData\Local\Temp\ccwBHTp3.s 			page 126


 5675 204e FFF7FEFF 		bl	write_psoc1
 5676              	.LVL410:
1148:.\protocolo.c **** 					print_totalesac(12,val);	
 5677              		.loc 1 1148 0
 5678 2052 0C20     		movs	r0, #12
 5679 2054 2146     		mov	r1, r4
 5680 2056 FFF7FEFF 		bl	print_totalesac
 5681              	.LVL411:
1149:.\protocolo.c **** 					for(x=0;x<=16;x++){												
 5682              		.loc 1 1149 0
 5683 205a 0022     		movs	r2, #0
 5684 205c 914B     		ldr	r3, .L616+4
 5685 205e 1A60     		str	r2, [r3]
 5686 2060 09E0     		b	.L394
 5687              	.L395:
1150:.\protocolo.c **** 						write_psoc1(val,msn_lecaan[x]);				//LECTURA ANTERIOR
 5688              		.loc 1 1150 0 discriminator 3
 5689 2062 914A     		ldr	r2, .L616+8
 5690 2064 1344     		add	r3, r3, r2
 5691 2066 2046     		mov	r0, r4
 5692 2068 197E     		ldrb	r1, [r3, #24]	@ zero_extendqisi2
 5693 206a FFF7FEFF 		bl	write_psoc1
 5694              	.LVL412:
1149:.\protocolo.c **** 					for(x=0;x<=16;x++){												
 5695              		.loc 1 1149 0 discriminator 3
 5696 206e 8D4A     		ldr	r2, .L616+4
 5697 2070 1368     		ldr	r3, [r2]
 5698 2072 0133     		adds	r3, r3, #1
 5699 2074 1360     		str	r3, [r2]
 5700              	.L394:
1149:.\protocolo.c **** 					for(x=0;x<=16;x++){												
 5701              		.loc 1 1149 0 is_stmt 0 discriminator 1
 5702 2076 8B4B     		ldr	r3, .L616+4
 5703 2078 1B68     		ldr	r3, [r3]
 5704 207a 102B     		cmp	r3, #16
 5705 207c F1D9     		bls	.L395
1151:.\protocolo.c **** 					}
1152:.\protocolo.c **** 					write_psoc1(val,10);
 5706              		.loc 1 1152 0 is_stmt 1
 5707 207e 2046     		mov	r0, r4
 5708 2080 0A21     		movs	r1, #10
 5709 2082 FFF7FEFF 		bl	write_psoc1
 5710              	.LVL413:
1153:.\protocolo.c **** 					if(dir==a.dir){
 5711              		.loc 1 1153 0
 5712 2086 894B     		ldr	r3, .L616+12
 5713 2088 1B78     		ldrb	r3, [r3]	@ zero_extendqisi2
 5714 208a AB42     		cmp	r3, r5
 5715 208c 05D1     		bne	.L396
1154:.\protocolo.c **** 						leer_eeprom(1096,25);
 5716              		.loc 1 1154 0
 5717 208e 4FF48960 		mov	r0, #1096
 5718 2092 1921     		movs	r1, #25
 5719 2094 FFF7FEFF 		bl	leer_eeprom
 5720              	.LVL414:
 5721 2098 04E0     		b	.L397
 5722              	.L396:
ARM GAS  C:\Users\diego\AppData\Local\Temp\ccwBHTp3.s 			page 127


1155:.\protocolo.c **** 					}
1156:.\protocolo.c **** 					else{
1157:.\protocolo.c **** 						leer_eeprom(1054,25);
 5723              		.loc 1 1157 0
 5724 209a 40F21E40 		movw	r0, #1054
 5725 209e 1921     		movs	r1, #25
 5726 20a0 FFF7FEFF 		bl	leer_eeprom
 5727              	.LVL415:
 5728              	.L397:
1158:.\protocolo.c **** 					}
1159:.\protocolo.c **** 					print_totales(val);
 5729              		.loc 1 1159 0
 5730 20a4 2046     		mov	r0, r4
 5731 20a6 FFF7FEFF 		bl	print_totales
 5732              	.LVL416:
1160:.\protocolo.c **** 					for(z=1;z<=12;z++){
 5733              		.loc 1 1160 0
 5734 20aa 0122     		movs	r2, #1
 5735 20ac 804B     		ldr	r3, .L616+16
 5736 20ae 1A60     		str	r2, [r3]
 5737 20b0 10E0     		b	.L398
 5738              	.L399:
1161:.\protocolo.c **** 						minuendo[z]=rventa.tdinero[z-1];
 5739              		.loc 1 1161 0 discriminator 3
 5740 20b2 804A     		ldr	r2, .L616+20
 5741 20b4 1A44     		add	r2, r2, r3
 5742 20b6 92F8CA10 		ldrb	r1, [r2, #202]	@ zero_extendqisi2
 5743 20ba 10AA     		add	r2, sp, #64
 5744 20bc 1A44     		add	r2, r2, r3
 5745 20be 02F82C1C 		strb	r1, [r2, #-44]
1162:.\protocolo.c **** 						sustraendo[z]=buffer_i2c[z+12];
 5746              		.loc 1 1162 0 discriminator 3
 5747 20c2 03F10C01 		add	r1, r3, #12
 5748 20c6 7C48     		ldr	r0, .L616+24
 5749 20c8 415C     		ldrb	r1, [r0, r1]	@ zero_extendqisi2
 5750 20ca 02F83C1C 		strb	r1, [r2, #-60]
1160:.\protocolo.c **** 					for(z=1;z<=12;z++){
 5751              		.loc 1 1160 0 discriminator 3
 5752 20ce 0133     		adds	r3, r3, #1
 5753 20d0 774A     		ldr	r2, .L616+16
 5754 20d2 1360     		str	r3, [r2]
 5755              	.L398:
1160:.\protocolo.c **** 					for(z=1;z<=12;z++){
 5756              		.loc 1 1160 0 is_stmt 0 discriminator 1
 5757 20d4 764B     		ldr	r3, .L616+16
 5758 20d6 1B68     		ldr	r3, [r3]
 5759 20d8 0C2B     		cmp	r3, #12
 5760 20da EAD9     		bls	.L399
1163:.\protocolo.c **** 					}
1164:.\protocolo.c **** 					minuendo[0]=12;
 5761              		.loc 1 1164 0 is_stmt 1
 5762 20dc 10A9     		add	r1, sp, #64
 5763 20de 0C23     		movs	r3, #12
 5764 20e0 01F82C3D 		strb	r3, [r1, #-44]!
1165:.\protocolo.c **** 					operacion(2,minuendo,sustraendo);
 5765              		.loc 1 1165 0
 5766 20e4 0220     		movs	r0, #2
ARM GAS  C:\Users\diego\AppData\Local\Temp\ccwBHTp3.s 			page 128


 5767 20e6 01AA     		add	r2, sp, #4
 5768 20e8 FFF7FEFF 		bl	operacion
 5769              	.LVL417:
1166:.\protocolo.c **** 					for(x=0;x<=17;x++){									
 5770              		.loc 1 1166 0
 5771 20ec 0022     		movs	r2, #0
 5772 20ee 6D4B     		ldr	r3, .L616+4
 5773 20f0 1A60     		str	r2, [r3]
 5774 20f2 0AE0     		b	.L400
 5775              	.L401:
1167:.\protocolo.c **** 						write_psoc1(val,msn_tventas[x]);				//Total de ventas
 5776              		.loc 1 1167 0 discriminator 3
 5777 20f4 6C4A     		ldr	r2, .L616+8
 5778 20f6 1344     		add	r3, r3, r2
 5779 20f8 2046     		mov	r0, r4
 5780 20fa 93F82C10 		ldrb	r1, [r3, #44]	@ zero_extendqisi2
 5781 20fe FFF7FEFF 		bl	write_psoc1
 5782              	.LVL418:
1166:.\protocolo.c **** 					for(x=0;x<=17;x++){									
 5783              		.loc 1 1166 0 discriminator 3
 5784 2102 684A     		ldr	r2, .L616+4
 5785 2104 1368     		ldr	r3, [r2]
 5786 2106 0133     		adds	r3, r3, #1
 5787 2108 1360     		str	r3, [r2]
 5788              	.L400:
1166:.\protocolo.c **** 					for(x=0;x<=17;x++){									
 5789              		.loc 1 1166 0 is_stmt 0 discriminator 1
 5790 210a 664B     		ldr	r3, .L616+4
 5791 210c 1B68     		ldr	r3, [r3]
 5792 210e 112B     		cmp	r3, #17
 5793 2110 F0D9     		bls	.L401
1168:.\protocolo.c **** 					}
1169:.\protocolo.c **** 					print_valor(resultado,val);							
 5794              		.loc 1 1169 0 is_stmt 1
 5795 2112 6A48     		ldr	r0, .L616+28
 5796 2114 2146     		mov	r1, r4
 5797 2116 FFF7FEFF 		bl	print_valor
 5798              	.LVL419:
1170:.\protocolo.c **** 					if(dir==a.dir){
 5799              		.loc 1 1170 0
 5800 211a 644B     		ldr	r3, .L616+12
 5801 211c 1B78     		ldrb	r3, [r3]	@ zero_extendqisi2
 5802 211e AB42     		cmp	r3, r5
 5803 2120 0AD1     		bne	.L402
1171:.\protocolo.c **** 						write_eeprom(1096,corte);
 5804              		.loc 1 1171 0
 5805 2122 4FF48960 		mov	r0, #1096
 5806 2126 09A9     		add	r1, sp, #36
 5807 2128 FFF7FEFF 		bl	write_eeprom
 5808              	.LVL420:
1172:.\protocolo.c **** 						write_eeprom(1038,resultado);
 5809              		.loc 1 1172 0
 5810 212c 40F20E40 		movw	r0, #1038
 5811 2130 6249     		ldr	r1, .L616+28
 5812 2132 FFF7FEFF 		bl	write_eeprom
 5813              	.LVL421:
 5814 2136 09E0     		b	.L387
ARM GAS  C:\Users\diego\AppData\Local\Temp\ccwBHTp3.s 			page 129


 5815              	.L402:
1173:.\protocolo.c **** 					}
1174:.\protocolo.c **** 					else{
1175:.\protocolo.c **** 						write_eeprom(1054,corte);
 5816              		.loc 1 1175 0
 5817 2138 40F21E40 		movw	r0, #1054
 5818 213c 09A9     		add	r1, sp, #36
 5819 213e FFF7FEFF 		bl	write_eeprom
 5820              	.LVL422:
1176:.\protocolo.c **** 						write_eeprom(1081,resultado);
 5821              		.loc 1 1176 0
 5822 2142 40F23940 		movw	r0, #1081
 5823 2146 5D49     		ldr	r1, .L616+28
 5824 2148 FFF7FEFF 		bl	write_eeprom
 5825              	.LVL423:
 5826              	.L387:
1177:.\protocolo.c **** 				    }						
1178:.\protocolo.c **** 				}
1179:.\protocolo.c **** 				Surtidor_ClearRxBuffer();
 5827              		.loc 1 1179 0
 5828 214c FFF7FEFF 		bl	Surtidor_ClearRxBuffer
 5829              	.LVL424:
1180:.\protocolo.c **** 				return 1;
 5830              		.loc 1 1180 0
 5831 2150 0120     		movs	r0, #1
 5832 2152 01F09FB8 		b	.L78
 5833              	.L77:
1181:.\protocolo.c **** 			}
1182:.\protocolo.c **** 			else{
1183:.\protocolo.c **** 				return 0;
1184:.\protocolo.c **** 			}			
1185:.\protocolo.c **** 		break;
1186:.\protocolo.c **** 		
1187:.\protocolo.c **** 		case 88:
1188:.\protocolo.c **** 			if((Surtidor_rxBuffer[0]==0xFF)&&(Surtidor_rxBuffer[1]==0xF6)&&(Surtidor_rxBuffer[87]==0xF0)&&(S
 5834              		.loc 1 1188 0
 5835 2156 5A4B     		ldr	r3, .L616+32
 5836 2158 1B78     		ldrb	r3, [r3]	@ zero_extendqisi2
 5837 215a DBB2     		uxtb	r3, r3
 5838 215c FF2B     		cmp	r3, #255
 5839 215e 41F08A80 		bne	.L585
 5840              		.loc 1 1188 0 is_stmt 0 discriminator 1
 5841 2162 574B     		ldr	r3, .L616+32
 5842 2164 5B78     		ldrb	r3, [r3, #1]	@ zero_extendqisi2
 5843 2166 DBB2     		uxtb	r3, r3
 5844 2168 F62B     		cmp	r3, #246
 5845 216a 41F08680 		bne	.L586
 5846              		.loc 1 1188 0 discriminator 2
 5847 216e 544B     		ldr	r3, .L616+32
 5848 2170 93F85730 		ldrb	r3, [r3, #87]	@ zero_extendqisi2
 5849 2174 DBB2     		uxtb	r3, r3
 5850 2176 F02B     		cmp	r3, #240
 5851 2178 41F08180 		bne	.L587
 5852              		.loc 1 1188 0 discriminator 3
 5853 217c 504B     		ldr	r3, .L616+32
 5854 217e DB78     		ldrb	r3, [r3, #3]	@ zero_extendqisi2
 5855 2180 DBB2     		uxtb	r3, r3
ARM GAS  C:\Users\diego\AppData\Local\Temp\ccwBHTp3.s 			page 130


 5856 2182 F92B     		cmp	r3, #249
 5857 2184 41F07D80 		bne	.L588
1189:.\protocolo.c **** 				for(y=0;y<=42;y+=42){
 5858              		.loc 1 1189 0 is_stmt 1
 5859 2188 0022     		movs	r2, #0
 5860 218a 4E4B     		ldr	r3, .L616+36
 5861 218c 1A60     		str	r2, [r3]
 5862 218e 00F004BC 		b	.L403
 5863              	.L484:
1190:.\protocolo.c **** 					rventa.manguera=(Surtidor_rxBuffer[y+2]&0x0F)+1;
 5864              		.loc 1 1190 0
 5865 2192 B31C     		adds	r3, r6, #2
 5866 2194 4A4A     		ldr	r2, .L616+32
 5867 2196 D15C     		ldrb	r1, [r2, r3]	@ zero_extendqisi2
 5868 2198 01F00F01 		and	r1, r1, #15
 5869 219c 0131     		adds	r1, r1, #1
 5870 219e 4A4B     		ldr	r3, .L616+40
 5871 21a0 83F8E010 		strb	r1, [r3, #224]
1191:.\protocolo.c **** 					for(x=0;x<=11;x++){
 5872              		.loc 1 1191 0
 5873 21a4 0022     		movs	r2, #0
 5874 21a6 3F4B     		ldr	r3, .L616+4
 5875 21a8 1A60     		str	r2, [r3]
 5876 21aa 0CE0     		b	.L404
 5877              	.L405:
1192:.\protocolo.c **** 						rventa.tvolumen[x]=(Surtidor_rxBuffer[y+4+x]&0x0F);
 5878              		.loc 1 1192 0 discriminator 3
 5879 21ac F218     		adds	r2, r6, r3
 5880 21ae 0432     		adds	r2, r2, #4
 5881 21b0 4348     		ldr	r0, .L616+32
 5882 21b2 805C     		ldrb	r0, [r0, r2]	@ zero_extendqisi2
 5883 21b4 444A     		ldr	r2, .L616+40
 5884 21b6 1A44     		add	r2, r2, r3
 5885 21b8 00F00F00 		and	r0, r0, #15
 5886 21bc 82F8BD00 		strb	r0, [r2, #189]
1191:.\protocolo.c **** 					for(x=0;x<=11;x++){
 5887              		.loc 1 1191 0 discriminator 3
 5888 21c0 0133     		adds	r3, r3, #1
 5889 21c2 384A     		ldr	r2, .L616+4
 5890 21c4 1360     		str	r3, [r2]
 5891              	.L404:
1191:.\protocolo.c **** 					for(x=0;x<=11;x++){
 5892              		.loc 1 1191 0 is_stmt 0 discriminator 1
 5893 21c6 374B     		ldr	r3, .L616+4
 5894 21c8 1B68     		ldr	r3, [r3]
 5895 21ca 0B2B     		cmp	r3, #11
 5896 21cc EED9     		bls	.L405
1193:.\protocolo.c **** 					}
1194:.\protocolo.c **** 					for(x=0;x<=11;x++){
 5897              		.loc 1 1194 0 is_stmt 1
 5898 21ce 0022     		movs	r2, #0
 5899 21d0 344B     		ldr	r3, .L616+4
 5900 21d2 1A60     		str	r2, [r3]
 5901 21d4 0CE0     		b	.L406
 5902              	.L407:
1195:.\protocolo.c **** 						rventa.tdinero[x]=(Surtidor_rxBuffer[y+17+x]&0x0F);
 5903              		.loc 1 1195 0 discriminator 3
ARM GAS  C:\Users\diego\AppData\Local\Temp\ccwBHTp3.s 			page 131


 5904 21d6 F218     		adds	r2, r6, r3
 5905 21d8 1132     		adds	r2, r2, #17
 5906 21da 3948     		ldr	r0, .L616+32
 5907 21dc 805C     		ldrb	r0, [r0, r2]	@ zero_extendqisi2
 5908 21de 3A4A     		ldr	r2, .L616+40
 5909 21e0 1A44     		add	r2, r2, r3
 5910 21e2 00F00F00 		and	r0, r0, #15
 5911 21e6 82F8CA00 		strb	r0, [r2, #202]
1194:.\protocolo.c **** 						rventa.tdinero[x]=(Surtidor_rxBuffer[y+17+x]&0x0F);
 5912              		.loc 1 1194 0 discriminator 3
 5913 21ea 0133     		adds	r3, r3, #1
 5914 21ec 2D4A     		ldr	r2, .L616+4
 5915 21ee 1360     		str	r3, [r2]
 5916              	.L406:
1194:.\protocolo.c **** 						rventa.tdinero[x]=(Surtidor_rxBuffer[y+17+x]&0x0F);
 5917              		.loc 1 1194 0 is_stmt 0 discriminator 1
 5918 21f0 2C4B     		ldr	r3, .L616+4
 5919 21f2 1B68     		ldr	r3, [r3]
 5920 21f4 0B2B     		cmp	r3, #11
 5921 21f6 EED9     		bls	.L407
1196:.\protocolo.c **** 					}
1197:.\protocolo.c **** 					for(z=0;z<=11;z++){
 5922              		.loc 1 1197 0 is_stmt 1
 5923 21f8 0022     		movs	r2, #0
 5924 21fa 2D4B     		ldr	r3, .L616+16
 5925 21fc 1A60     		str	r2, [r3]
 5926 21fe 0AE0     		b	.L408
 5927              	.L409:
1198:.\protocolo.c **** 						corte[z+1]=rventa.tvolumen[z];
 5928              		.loc 1 1198 0 discriminator 3
 5929 2200 5A1C     		adds	r2, r3, #1
 5930 2202 3148     		ldr	r0, .L616+40
 5931 2204 0344     		add	r3, r3, r0
 5932 2206 93F8BD00 		ldrb	r0, [r3, #189]	@ zero_extendqisi2
 5933 220a 10AB     		add	r3, sp, #64
 5934 220c 1344     		add	r3, r3, r2
 5935 220e 03F81C0C 		strb	r0, [r3, #-28]
1197:.\protocolo.c **** 						corte[z+1]=rventa.tvolumen[z];
 5936              		.loc 1 1197 0 discriminator 3
 5937 2212 274B     		ldr	r3, .L616+16
 5938 2214 1A60     		str	r2, [r3]
 5939              	.L408:
1197:.\protocolo.c **** 						corte[z+1]=rventa.tvolumen[z];
 5940              		.loc 1 1197 0 is_stmt 0 discriminator 1
 5941 2216 264B     		ldr	r3, .L616+16
 5942 2218 1B68     		ldr	r3, [r3]
 5943 221a 0B2B     		cmp	r3, #11
 5944 221c F0D9     		bls	.L409
1199:.\protocolo.c **** 					}
1200:.\protocolo.c **** 					for(z=13;z<=24;z++){
 5945              		.loc 1 1200 0 is_stmt 1
 5946 221e 0D22     		movs	r2, #13
 5947 2220 234B     		ldr	r3, .L616+16
 5948 2222 1A60     		str	r2, [r3]
 5949 2224 0AE0     		b	.L410
 5950              	.L411:
1201:.\protocolo.c **** 						corte[z]=rventa.tdinero[z-13];
ARM GAS  C:\Users\diego\AppData\Local\Temp\ccwBHTp3.s 			page 132


 5951              		.loc 1 1201 0 discriminator 3
 5952 2226 294A     		ldr	r2, .L616+44
 5953 2228 1A44     		add	r2, r2, r3
 5954 222a 92F8CA00 		ldrb	r0, [r2, #202]	@ zero_extendqisi2
 5955 222e 10AA     		add	r2, sp, #64
 5956 2230 1A44     		add	r2, r2, r3
 5957 2232 02F81C0C 		strb	r0, [r2, #-28]
1200:.\protocolo.c **** 						corte[z]=rventa.tdinero[z-13];
 5958              		.loc 1 1200 0 discriminator 3
 5959 2236 0133     		adds	r3, r3, #1
 5960 2238 1D4A     		ldr	r2, .L616+16
 5961 223a 1360     		str	r3, [r2]
 5962              	.L410:
1200:.\protocolo.c **** 						corte[z]=rventa.tdinero[z-13];
 5963              		.loc 1 1200 0 is_stmt 0 discriminator 1
 5964 223c 1C4B     		ldr	r3, .L616+16
 5965 223e 1B68     		ldr	r3, [r3]
 5966 2240 182B     		cmp	r3, #24
 5967 2242 F0D9     		bls	.L411
1202:.\protocolo.c **** 					}
1203:.\protocolo.c **** 					corte[0]=24;				
 5968              		.loc 1 1203 0 is_stmt 1
 5969 2244 1823     		movs	r3, #24
 5970 2246 8DF82430 		strb	r3, [sp, #36]
1204:.\protocolo.c **** 					if(((rventa.manguera==(producto1&0x0F))&&(dir==a.dir))||((rventa.manguera==(producto1b&0x0F))&
 5971              		.loc 1 1204 0
 5972 224a 214B     		ldr	r3, .L616+48
 5973 224c 1B78     		ldrb	r3, [r3]	@ zero_extendqisi2
 5974 224e 03F00F03 		and	r3, r3, #15
 5975 2252 8B42     		cmp	r3, r1
 5976 2254 03D1     		bne	.L412
 5977              		.loc 1 1204 0 is_stmt 0 discriminator 1
 5978 2256 154B     		ldr	r3, .L616+12
 5979 2258 1B78     		ldrb	r3, [r3]	@ zero_extendqisi2
 5980 225a AB42     		cmp	r3, r5
 5981 225c 0BD0     		beq	.L413
 5982              	.L412:
 5983              		.loc 1 1204 0 discriminator 3
 5984 225e 1D4B     		ldr	r3, .L616+52
 5985 2260 1B78     		ldrb	r3, [r3]	@ zero_extendqisi2
 5986 2262 03F00F03 		and	r3, r3, #15
 5987 2266 9942     		cmp	r1, r3
 5988 2268 40F0DA80 		bne	.L414
 5989              		.loc 1 1204 0 discriminator 4
 5990 226c 1A4B     		ldr	r3, .L616+56
 5991 226e 1B78     		ldrb	r3, [r3]	@ zero_extendqisi2
 5992 2270 AB42     		cmp	r3, r5
 5993 2272 40F0D580 		bne	.L414
 5994              	.L413:
1205:.\protocolo.c **** 						for(x=0;x<=5;x++){									
 5995              		.loc 1 1205 0 is_stmt 1
 5996 2276 0022     		movs	r2, #0
 5997 2278 0A4B     		ldr	r3, .L616+4
 5998 227a 1A60     		str	r2, [r3]
 5999 227c 08E0     		b	.L415
 6000              	.L416:
1206:.\protocolo.c **** 							write_psoc1(val,msn_tc[x]);
ARM GAS  C:\Users\diego\AppData\Local\Temp\ccwBHTp3.s 			page 133


 6001              		.loc 1 1206 0 discriminator 3
 6002 227e 2046     		mov	r0, r4
 6003 2280 094A     		ldr	r2, .L616+8
 6004 2282 D15C     		ldrb	r1, [r2, r3]	@ zero_extendqisi2
 6005 2284 FFF7FEFF 		bl	write_psoc1
 6006              	.LVL425:
1205:.\protocolo.c **** 						for(x=0;x<=5;x++){									
 6007              		.loc 1 1205 0 discriminator 3
 6008 2288 064A     		ldr	r2, .L616+4
 6009 228a 1368     		ldr	r3, [r2]
 6010 228c 0133     		adds	r3, r3, #1
 6011 228e 1360     		str	r3, [r2]
 6012              	.L415:
1205:.\protocolo.c **** 						for(x=0;x<=5;x++){									
 6013              		.loc 1 1205 0 is_stmt 0 discriminator 1
 6014 2290 044B     		ldr	r3, .L616+4
 6015 2292 1B68     		ldr	r3, [r3]
 6016 2294 052B     		cmp	r3, #5
 6017 2296 F2D9     		bls	.L416
1207:.\protocolo.c **** 						}
1208:.\protocolo.c ****                         for(x=0;x<=10;x++){									
 6018              		.loc 1 1208 0 is_stmt 1
 6019 2298 0022     		movs	r2, #0
 6020 229a 024B     		ldr	r3, .L616+4
 6021 229c 1A60     		str	r2, [r3]
 6022 229e 26E0     		b	.L417
 6023              	.L617:
 6024              		.align	2
 6025              	.L616:
 6026 22a0 00000000 		.word	producto4n
 6027 22a4 00000000 		.word	x
 6028 22a8 00000000 		.word	.LANCHOR1
 6029 22ac 00000000 		.word	a
 6030 22b0 00000000 		.word	z
 6031 22b4 FFFFFFFF 		.word	rventa-1
 6032 22b8 00000000 		.word	buffer_i2c
 6033 22bc 00000000 		.word	resultado
 6034 22c0 00000000 		.word	Surtidor_rxBuffer
 6035 22c4 00000000 		.word	y
 6036 22c8 00000000 		.word	rventa
 6037 22cc F3FFFFFF 		.word	rventa-13
 6038 22d0 00000000 		.word	producto1
 6039 22d4 00000000 		.word	producto1b
 6040 22d8 00000000 		.word	b
 6041              	.L418:
1209:.\protocolo.c **** 						write_psoc1(val,producto1n[x]);
 6042              		.loc 1 1209 0 discriminator 3
 6043 22dc 2046     		mov	r0, r4
 6044 22de A54A     		ldr	r2, .L618
 6045 22e0 D15C     		ldrb	r1, [r2, r3]	@ zero_extendqisi2
 6046 22e2 FFF7FEFF 		bl	write_psoc1
 6047              	.LVL426:
1208:.\protocolo.c **** 						write_psoc1(val,producto1n[x]);
 6048              		.loc 1 1208 0 discriminator 3
 6049 22e6 A44A     		ldr	r2, .L618+4
 6050 22e8 1368     		ldr	r3, [r2]
 6051 22ea 0133     		adds	r3, r3, #1
ARM GAS  C:\Users\diego\AppData\Local\Temp\ccwBHTp3.s 			page 134


 6052 22ec 1360     		str	r3, [r2]
 6053              	.L417:
1208:.\protocolo.c **** 						write_psoc1(val,producto1n[x]);
 6054              		.loc 1 1208 0 is_stmt 0 discriminator 1
 6055 22ee A24B     		ldr	r3, .L618+4
 6056 22f0 1B68     		ldr	r3, [r3]
 6057 22f2 0A2B     		cmp	r3, #10
 6058 22f4 F2D9     		bls	.L418
1210:.\protocolo.c **** 					    }
1211:.\protocolo.c ****                         write_psoc1(val,10);						
 6059              		.loc 1 1211 0 is_stmt 1
 6060 22f6 2046     		mov	r0, r4
 6061 22f8 0A21     		movs	r1, #10
 6062 22fa FFF7FEFF 		bl	write_psoc1
 6063              	.LVL427:
1212:.\protocolo.c **** 						for(x=0;x<=14;x++){									
 6064              		.loc 1 1212 0
 6065 22fe 0022     		movs	r2, #0
 6066 2300 9D4B     		ldr	r3, .L618+4
 6067 2302 1A60     		str	r2, [r3]
 6068 2304 09E0     		b	.L419
 6069              	.L420:
1213:.\protocolo.c **** 							write_psoc1(val,msn_lecact[x]);				//LECTURA ACTUAL
 6070              		.loc 1 1213 0 discriminator 3
 6071 2306 9D4A     		ldr	r2, .L618+8
 6072 2308 1344     		add	r3, r3, r2
 6073 230a 2046     		mov	r0, r4
 6074 230c 197A     		ldrb	r1, [r3, #8]	@ zero_extendqisi2
 6075 230e FFF7FEFF 		bl	write_psoc1
 6076              	.LVL428:
1212:.\protocolo.c **** 						for(x=0;x<=14;x++){									
 6077              		.loc 1 1212 0 discriminator 3
 6078 2312 994A     		ldr	r2, .L618+4
 6079 2314 1368     		ldr	r3, [r2]
 6080 2316 0133     		adds	r3, r3, #1
 6081 2318 1360     		str	r3, [r2]
 6082              	.L419:
1212:.\protocolo.c **** 						for(x=0;x<=14;x++){									
 6083              		.loc 1 1212 0 is_stmt 0 discriminator 1
 6084 231a 974B     		ldr	r3, .L618+4
 6085 231c 1B68     		ldr	r3, [r3]
 6086 231e 0E2B     		cmp	r3, #14
 6087 2320 F1D9     		bls	.L420
1214:.\protocolo.c **** 						}
1215:.\protocolo.c **** 						write_psoc1(val,10);
 6088              		.loc 1 1215 0 is_stmt 1
 6089 2322 2046     		mov	r0, r4
 6090 2324 0A21     		movs	r1, #10
 6091 2326 FFF7FEFF 		bl	write_psoc1
 6092              	.LVL429:
1216:.\protocolo.c **** 						print_totalesac(12,val);	
 6093              		.loc 1 1216 0
 6094 232a 0C20     		movs	r0, #12
 6095 232c 2146     		mov	r1, r4
 6096 232e FFF7FEFF 		bl	print_totalesac
 6097              	.LVL430:
1217:.\protocolo.c **** 						for(x=0;x<=16;x++){												
ARM GAS  C:\Users\diego\AppData\Local\Temp\ccwBHTp3.s 			page 135


 6098              		.loc 1 1217 0
 6099 2332 0022     		movs	r2, #0
 6100 2334 904B     		ldr	r3, .L618+4
 6101 2336 1A60     		str	r2, [r3]
 6102 2338 09E0     		b	.L421
 6103              	.L422:
1218:.\protocolo.c **** 							write_psoc1(val,msn_lecaan[x]);				//LECTURA ANTERIOR
 6104              		.loc 1 1218 0 discriminator 3
 6105 233a 904A     		ldr	r2, .L618+8
 6106 233c 1344     		add	r3, r3, r2
 6107 233e 2046     		mov	r0, r4
 6108 2340 197E     		ldrb	r1, [r3, #24]	@ zero_extendqisi2
 6109 2342 FFF7FEFF 		bl	write_psoc1
 6110              	.LVL431:
1217:.\protocolo.c **** 						for(x=0;x<=16;x++){												
 6111              		.loc 1 1217 0 discriminator 3
 6112 2346 8C4A     		ldr	r2, .L618+4
 6113 2348 1368     		ldr	r3, [r2]
 6114 234a 0133     		adds	r3, r3, #1
 6115 234c 1360     		str	r3, [r2]
 6116              	.L421:
1217:.\protocolo.c **** 						for(x=0;x<=16;x++){												
 6117              		.loc 1 1217 0 is_stmt 0 discriminator 1
 6118 234e 8A4B     		ldr	r3, .L618+4
 6119 2350 1B68     		ldr	r3, [r3]
 6120 2352 102B     		cmp	r3, #16
 6121 2354 F1D9     		bls	.L422
1219:.\protocolo.c **** 						}
1220:.\protocolo.c **** 						write_psoc1(val,10);
 6122              		.loc 1 1220 0 is_stmt 1
 6123 2356 2046     		mov	r0, r4
 6124 2358 0A21     		movs	r1, #10
 6125 235a FFF7FEFF 		bl	write_psoc1
 6126              	.LVL432:
1221:.\protocolo.c **** 						if(dir==a.dir){
 6127              		.loc 1 1221 0
 6128 235e 884B     		ldr	r3, .L618+12
 6129 2360 1B78     		ldrb	r3, [r3]	@ zero_extendqisi2
 6130 2362 AB42     		cmp	r3, r5
 6131 2364 04D1     		bne	.L423
1222:.\protocolo.c **** 							leer_eeprom(192,25);
 6132              		.loc 1 1222 0
 6133 2366 C020     		movs	r0, #192
 6134 2368 1921     		movs	r1, #25
 6135 236a FFF7FEFF 		bl	leer_eeprom
 6136              	.LVL433:
 6137 236e 04E0     		b	.L424
 6138              	.L423:
1223:.\protocolo.c **** 						}
1224:.\protocolo.c **** 						else{
1225:.\protocolo.c **** 							leer_eeprom(281,25);
 6139              		.loc 1 1225 0
 6140 2370 40F21910 		movw	r0, #281
 6141 2374 1921     		movs	r1, #25
 6142 2376 FFF7FEFF 		bl	leer_eeprom
 6143              	.LVL434:
 6144              	.L424:
ARM GAS  C:\Users\diego\AppData\Local\Temp\ccwBHTp3.s 			page 136


1226:.\protocolo.c **** 						}
1227:.\protocolo.c **** 						print_totales(val);
 6145              		.loc 1 1227 0
 6146 237a 2046     		mov	r0, r4
 6147 237c FFF7FEFF 		bl	print_totales
 6148              	.LVL435:
1228:.\protocolo.c **** 						for(z=1;z<=12;z++){
 6149              		.loc 1 1228 0
 6150 2380 0122     		movs	r2, #1
 6151 2382 804B     		ldr	r3, .L618+16
 6152 2384 1A60     		str	r2, [r3]
 6153 2386 10E0     		b	.L425
 6154              	.L426:
1229:.\protocolo.c **** 							minuendo[z]=rventa.tdinero[z-1];
 6155              		.loc 1 1229 0 discriminator 3
 6156 2388 7F4A     		ldr	r2, .L618+20
 6157 238a 1A44     		add	r2, r2, r3
 6158 238c 92F8CA10 		ldrb	r1, [r2, #202]	@ zero_extendqisi2
 6159 2390 10AA     		add	r2, sp, #64
 6160 2392 1A44     		add	r2, r2, r3
 6161 2394 02F82C1C 		strb	r1, [r2, #-44]
1230:.\protocolo.c **** 							sustraendo[z]=buffer_i2c[z+12];
 6162              		.loc 1 1230 0 discriminator 3
 6163 2398 03F10C01 		add	r1, r3, #12
 6164 239c 7B48     		ldr	r0, .L618+24
 6165 239e 415C     		ldrb	r1, [r0, r1]	@ zero_extendqisi2
 6166 23a0 02F83C1C 		strb	r1, [r2, #-60]
1228:.\protocolo.c **** 						for(z=1;z<=12;z++){
 6167              		.loc 1 1228 0 discriminator 3
 6168 23a4 0133     		adds	r3, r3, #1
 6169 23a6 774A     		ldr	r2, .L618+16
 6170 23a8 1360     		str	r3, [r2]
 6171              	.L425:
1228:.\protocolo.c **** 						for(z=1;z<=12;z++){
 6172              		.loc 1 1228 0 is_stmt 0 discriminator 1
 6173 23aa 764B     		ldr	r3, .L618+16
 6174 23ac 1B68     		ldr	r3, [r3]
 6175 23ae 0C2B     		cmp	r3, #12
 6176 23b0 EAD9     		bls	.L426
1231:.\protocolo.c **** 						}
1232:.\protocolo.c **** 						minuendo[0]=12;
 6177              		.loc 1 1232 0 is_stmt 1
 6178 23b2 10A9     		add	r1, sp, #64
 6179 23b4 0C23     		movs	r3, #12
 6180 23b6 01F82C3D 		strb	r3, [r1, #-44]!
1233:.\protocolo.c **** 						operacion(2,minuendo,sustraendo);
 6181              		.loc 1 1233 0
 6182 23ba 0220     		movs	r0, #2
 6183 23bc 01AA     		add	r2, sp, #4
 6184 23be FFF7FEFF 		bl	operacion
 6185              	.LVL436:
1234:.\protocolo.c **** 						for(x=0;x<=17;x++){									
 6186              		.loc 1 1234 0
 6187 23c2 0022     		movs	r2, #0
 6188 23c4 6C4B     		ldr	r3, .L618+4
 6189 23c6 1A60     		str	r2, [r3]
 6190 23c8 0AE0     		b	.L427
ARM GAS  C:\Users\diego\AppData\Local\Temp\ccwBHTp3.s 			page 137


 6191              	.L428:
1235:.\protocolo.c **** 							write_psoc1(val,msn_tventas[x]);				//Total de ventas
 6192              		.loc 1 1235 0 discriminator 3
 6193 23ca 6C4A     		ldr	r2, .L618+8
 6194 23cc 1344     		add	r3, r3, r2
 6195 23ce 2046     		mov	r0, r4
 6196 23d0 93F82C10 		ldrb	r1, [r3, #44]	@ zero_extendqisi2
 6197 23d4 FFF7FEFF 		bl	write_psoc1
 6198              	.LVL437:
1234:.\protocolo.c **** 						for(x=0;x<=17;x++){									
 6199              		.loc 1 1234 0 discriminator 3
 6200 23d8 674A     		ldr	r2, .L618+4
 6201 23da 1368     		ldr	r3, [r2]
 6202 23dc 0133     		adds	r3, r3, #1
 6203 23de 1360     		str	r3, [r2]
 6204              	.L427:
1234:.\protocolo.c **** 						for(x=0;x<=17;x++){									
 6205              		.loc 1 1234 0 is_stmt 0 discriminator 1
 6206 23e0 654B     		ldr	r3, .L618+4
 6207 23e2 1B68     		ldr	r3, [r3]
 6208 23e4 112B     		cmp	r3, #17
 6209 23e6 F0D9     		bls	.L428
1236:.\protocolo.c **** 						}
1237:.\protocolo.c **** 						print_valor(resultado,val);
 6210              		.loc 1 1237 0 is_stmt 1
 6211 23e8 6948     		ldr	r0, .L618+28
 6212 23ea 2146     		mov	r1, r4
 6213 23ec FFF7FEFF 		bl	print_valor
 6214              	.LVL438:
1238:.\protocolo.c **** 						if(dir==a.dir){
 6215              		.loc 1 1238 0
 6216 23f0 634B     		ldr	r3, .L618+12
 6217 23f2 1B78     		ldrb	r3, [r3]	@ zero_extendqisi2
 6218 23f4 AB42     		cmp	r3, r5
 6219 23f6 09D1     		bne	.L429
1239:.\protocolo.c **** 							write_eeprom(192,corte);	
 6220              		.loc 1 1239 0
 6221 23f8 C020     		movs	r0, #192
 6222 23fa 09A9     		add	r1, sp, #36
 6223 23fc FFF7FEFF 		bl	write_eeprom
 6224              	.LVL439:
1240:.\protocolo.c **** 							write_eeprom(512,resultado);
 6225              		.loc 1 1240 0
 6226 2400 4FF40070 		mov	r0, #512
 6227 2404 6249     		ldr	r1, .L618+28
 6228 2406 FFF7FEFF 		bl	write_eeprom
 6229              	.LVL440:
 6230 240a 09E0     		b	.L414
 6231              	.L429:
1241:.\protocolo.c **** 						}
1242:.\protocolo.c **** 						else{
1243:.\protocolo.c **** 							write_eeprom(281,corte);
 6232              		.loc 1 1243 0
 6233 240c 40F21910 		movw	r0, #281
 6234 2410 09A9     		add	r1, sp, #36
 6235 2412 FFF7FEFF 		bl	write_eeprom
 6236              	.LVL441:
ARM GAS  C:\Users\diego\AppData\Local\Temp\ccwBHTp3.s 			page 138


1244:.\protocolo.c **** 							write_eeprom(551,resultado);
 6237              		.loc 1 1244 0
 6238 2416 40F22720 		movw	r0, #551
 6239 241a 5D49     		ldr	r1, .L618+28
 6240 241c FFF7FEFF 		bl	write_eeprom
 6241              	.LVL442:
 6242              	.L414:
1245:.\protocolo.c **** 						}
1246:.\protocolo.c **** 					}
1247:.\protocolo.c **** 					if(((rventa.manguera==(producto2&0x0F))&&(dir==a.dir))||((rventa.manguera==(producto2b&0x0F))&
 6243              		.loc 1 1247 0
 6244 2420 5C4B     		ldr	r3, .L618+32
 6245 2422 93F8E020 		ldrb	r2, [r3, #224]	@ zero_extendqisi2
 6246 2426 5C4B     		ldr	r3, .L618+36
 6247 2428 1B78     		ldrb	r3, [r3]	@ zero_extendqisi2
 6248 242a 03F00F03 		and	r3, r3, #15
 6249 242e 9342     		cmp	r3, r2
 6250 2430 03D1     		bne	.L430
 6251              		.loc 1 1247 0 is_stmt 0 discriminator 1
 6252 2432 534B     		ldr	r3, .L618+12
 6253 2434 1B78     		ldrb	r3, [r3]	@ zero_extendqisi2
 6254 2436 AB42     		cmp	r3, r5
 6255 2438 0BD0     		beq	.L431
 6256              	.L430:
 6257              		.loc 1 1247 0 discriminator 3
 6258 243a 584B     		ldr	r3, .L618+40
 6259 243c 1B78     		ldrb	r3, [r3]	@ zero_extendqisi2
 6260 243e 03F00F03 		and	r3, r3, #15
 6261 2442 9A42     		cmp	r2, r3
 6262 2444 40F0DB80 		bne	.L432
 6263              		.loc 1 1247 0 discriminator 4
 6264 2448 554B     		ldr	r3, .L618+44
 6265 244a 1B78     		ldrb	r3, [r3]	@ zero_extendqisi2
 6266 244c AB42     		cmp	r3, r5
 6267 244e 40F0D680 		bne	.L432
 6268              	.L431:
1248:.\protocolo.c **** 						for(x=0;x<=5;x++){									
 6269              		.loc 1 1248 0 is_stmt 1
 6270 2452 0022     		movs	r2, #0
 6271 2454 484B     		ldr	r3, .L618+4
 6272 2456 1A60     		str	r2, [r3]
 6273 2458 08E0     		b	.L433
 6274              	.L434:
1249:.\protocolo.c **** 						    write_psoc1(val,msn_tc[x]);
 6275              		.loc 1 1249 0 discriminator 3
 6276 245a 2046     		mov	r0, r4
 6277 245c 474A     		ldr	r2, .L618+8
 6278 245e D15C     		ldrb	r1, [r2, r3]	@ zero_extendqisi2
 6279 2460 FFF7FEFF 		bl	write_psoc1
 6280              	.LVL443:
1248:.\protocolo.c **** 						for(x=0;x<=5;x++){									
 6281              		.loc 1 1248 0 discriminator 3
 6282 2464 444A     		ldr	r2, .L618+4
 6283 2466 1368     		ldr	r3, [r2]
 6284 2468 0133     		adds	r3, r3, #1
 6285 246a 1360     		str	r3, [r2]
 6286              	.L433:
ARM GAS  C:\Users\diego\AppData\Local\Temp\ccwBHTp3.s 			page 139


1248:.\protocolo.c **** 						for(x=0;x<=5;x++){									
 6287              		.loc 1 1248 0 is_stmt 0 discriminator 1
 6288 246c 424B     		ldr	r3, .L618+4
 6289 246e 1B68     		ldr	r3, [r3]
 6290 2470 052B     		cmp	r3, #5
 6291 2472 F2D9     		bls	.L434
1250:.\protocolo.c **** 					    }
1251:.\protocolo.c **** 					    write_psoc1(val,10);
 6292              		.loc 1 1251 0 is_stmt 1
 6293 2474 2046     		mov	r0, r4
 6294 2476 0A21     		movs	r1, #10
 6295 2478 FFF7FEFF 		bl	write_psoc1
 6296              	.LVL444:
1252:.\protocolo.c ****                         for(x=0;x<=10;x++){									
 6297              		.loc 1 1252 0
 6298 247c 0022     		movs	r2, #0
 6299 247e 3E4B     		ldr	r3, .L618+4
 6300 2480 1A60     		str	r2, [r3]
 6301 2482 08E0     		b	.L435
 6302              	.L436:
1253:.\protocolo.c **** 						    write_psoc1(val,producto2n[x]);
 6303              		.loc 1 1253 0 discriminator 3
 6304 2484 2046     		mov	r0, r4
 6305 2486 474A     		ldr	r2, .L618+48
 6306 2488 D15C     		ldrb	r1, [r2, r3]	@ zero_extendqisi2
 6307 248a FFF7FEFF 		bl	write_psoc1
 6308              	.LVL445:
1252:.\protocolo.c ****                         for(x=0;x<=10;x++){									
 6309              		.loc 1 1252 0 discriminator 3
 6310 248e 3A4A     		ldr	r2, .L618+4
 6311 2490 1368     		ldr	r3, [r2]
 6312 2492 0133     		adds	r3, r3, #1
 6313 2494 1360     		str	r3, [r2]
 6314              	.L435:
1252:.\protocolo.c ****                         for(x=0;x<=10;x++){									
 6315              		.loc 1 1252 0 is_stmt 0 discriminator 1
 6316 2496 384B     		ldr	r3, .L618+4
 6317 2498 1B68     		ldr	r3, [r3]
 6318 249a 0A2B     		cmp	r3, #10
 6319 249c F2D9     		bls	.L436
1254:.\protocolo.c **** 					    }
1255:.\protocolo.c ****                         write_psoc1(val,10);
 6320              		.loc 1 1255 0 is_stmt 1
 6321 249e 2046     		mov	r0, r4
 6322 24a0 0A21     		movs	r1, #10
 6323 24a2 FFF7FEFF 		bl	write_psoc1
 6324              	.LVL446:
1256:.\protocolo.c **** 						for(x=0;x<=14;x++){									
 6325              		.loc 1 1256 0
 6326 24a6 0022     		movs	r2, #0
 6327 24a8 334B     		ldr	r3, .L618+4
 6328 24aa 1A60     		str	r2, [r3]
 6329 24ac 09E0     		b	.L437
 6330              	.L438:
1257:.\protocolo.c **** 							write_psoc1(val,msn_lecact[x]);				//LECTURA ACTUAL
 6331              		.loc 1 1257 0 discriminator 3
 6332 24ae 334A     		ldr	r2, .L618+8
ARM GAS  C:\Users\diego\AppData\Local\Temp\ccwBHTp3.s 			page 140


 6333 24b0 1344     		add	r3, r3, r2
 6334 24b2 2046     		mov	r0, r4
 6335 24b4 197A     		ldrb	r1, [r3, #8]	@ zero_extendqisi2
 6336 24b6 FFF7FEFF 		bl	write_psoc1
 6337              	.LVL447:
1256:.\protocolo.c **** 						for(x=0;x<=14;x++){									
 6338              		.loc 1 1256 0 discriminator 3
 6339 24ba 2F4A     		ldr	r2, .L618+4
 6340 24bc 1368     		ldr	r3, [r2]
 6341 24be 0133     		adds	r3, r3, #1
 6342 24c0 1360     		str	r3, [r2]
 6343              	.L437:
1256:.\protocolo.c **** 						for(x=0;x<=14;x++){									
 6344              		.loc 1 1256 0 is_stmt 0 discriminator 1
 6345 24c2 2D4B     		ldr	r3, .L618+4
 6346 24c4 1B68     		ldr	r3, [r3]
 6347 24c6 0E2B     		cmp	r3, #14
 6348 24c8 F1D9     		bls	.L438
1258:.\protocolo.c **** 						}
1259:.\protocolo.c **** 						write_psoc1(val,10);
 6349              		.loc 1 1259 0 is_stmt 1
 6350 24ca 2046     		mov	r0, r4
 6351 24cc 0A21     		movs	r1, #10
 6352 24ce FFF7FEFF 		bl	write_psoc1
 6353              	.LVL448:
1260:.\protocolo.c **** 						print_totalesac(12,val);	
 6354              		.loc 1 1260 0
 6355 24d2 0C20     		movs	r0, #12
 6356 24d4 2146     		mov	r1, r4
 6357 24d6 FFF7FEFF 		bl	print_totalesac
 6358              	.LVL449:
1261:.\protocolo.c **** 						for(x=0;x<=16;x++){												
 6359              		.loc 1 1261 0
 6360 24da 0022     		movs	r2, #0
 6361 24dc 264B     		ldr	r3, .L618+4
 6362 24de 1A60     		str	r2, [r3]
 6363 24e0 09E0     		b	.L439
 6364              	.L440:
1262:.\protocolo.c **** 							write_psoc1(val,msn_lecaan[x]);				//LECTURA ANTERIOR
 6365              		.loc 1 1262 0 discriminator 3
 6366 24e2 264A     		ldr	r2, .L618+8
 6367 24e4 1344     		add	r3, r3, r2
 6368 24e6 2046     		mov	r0, r4
 6369 24e8 197E     		ldrb	r1, [r3, #24]	@ zero_extendqisi2
 6370 24ea FFF7FEFF 		bl	write_psoc1
 6371              	.LVL450:
1261:.\protocolo.c **** 						for(x=0;x<=16;x++){												
 6372              		.loc 1 1261 0 discriminator 3
 6373 24ee 224A     		ldr	r2, .L618+4
 6374 24f0 1368     		ldr	r3, [r2]
 6375 24f2 0133     		adds	r3, r3, #1
 6376 24f4 1360     		str	r3, [r2]
 6377              	.L439:
1261:.\protocolo.c **** 						for(x=0;x<=16;x++){												
 6378              		.loc 1 1261 0 is_stmt 0 discriminator 1
 6379 24f6 204B     		ldr	r3, .L618+4
 6380 24f8 1B68     		ldr	r3, [r3]
ARM GAS  C:\Users\diego\AppData\Local\Temp\ccwBHTp3.s 			page 141


 6381 24fa 102B     		cmp	r3, #16
 6382 24fc F1D9     		bls	.L440
1263:.\protocolo.c **** 						}
1264:.\protocolo.c **** 						write_psoc1(val,10);
 6383              		.loc 1 1264 0 is_stmt 1
 6384 24fe 2046     		mov	r0, r4
 6385 2500 0A21     		movs	r1, #10
 6386 2502 FFF7FEFF 		bl	write_psoc1
 6387              	.LVL451:
1265:.\protocolo.c **** 						if(dir==a.dir){
 6388              		.loc 1 1265 0
 6389 2506 1E4B     		ldr	r3, .L618+12
 6390 2508 1B78     		ldrb	r3, [r3]	@ zero_extendqisi2
 6391 250a AB42     		cmp	r3, r5
 6392 250c 04D1     		bne	.L441
1266:.\protocolo.c **** 							leer_eeprom(217,25);
 6393              		.loc 1 1266 0
 6394 250e D920     		movs	r0, #217
 6395 2510 1921     		movs	r1, #25
 6396 2512 FFF7FEFF 		bl	leer_eeprom
 6397              	.LVL452:
 6398 2516 04E0     		b	.L442
 6399              	.L441:
1267:.\protocolo.c **** 						}
1268:.\protocolo.c **** 						else{
1269:.\protocolo.c **** 							leer_eeprom(320,25);
 6400              		.loc 1 1269 0
 6401 2518 4FF4A070 		mov	r0, #320
 6402 251c 1921     		movs	r1, #25
 6403 251e FFF7FEFF 		bl	leer_eeprom
 6404              	.LVL453:
 6405              	.L442:
1270:.\protocolo.c **** 						}
1271:.\protocolo.c **** 						print_totales(val);
 6406              		.loc 1 1271 0
 6407 2522 2046     		mov	r0, r4
 6408 2524 FFF7FEFF 		bl	print_totales
 6409              	.LVL454:
1272:.\protocolo.c **** 						for(z=1;z<=12;z++){
 6410              		.loc 1 1272 0
 6411 2528 0122     		movs	r2, #1
 6412 252a 164B     		ldr	r3, .L618+16
 6413 252c 1A60     		str	r2, [r3]
 6414 252e 10E0     		b	.L443
 6415              	.L444:
1273:.\protocolo.c **** 							minuendo[z]=rventa.tdinero[z-1];
 6416              		.loc 1 1273 0 discriminator 3
 6417 2530 154A     		ldr	r2, .L618+20
 6418 2532 1A44     		add	r2, r2, r3
 6419 2534 92F8CA10 		ldrb	r1, [r2, #202]	@ zero_extendqisi2
 6420 2538 10AA     		add	r2, sp, #64
 6421 253a 1A44     		add	r2, r2, r3
 6422 253c 02F82C1C 		strb	r1, [r2, #-44]
1274:.\protocolo.c **** 							sustraendo[z]=buffer_i2c[z+12];
 6423              		.loc 1 1274 0 discriminator 3
 6424 2540 03F10C01 		add	r1, r3, #12
 6425 2544 1148     		ldr	r0, .L618+24
ARM GAS  C:\Users\diego\AppData\Local\Temp\ccwBHTp3.s 			page 142


 6426 2546 415C     		ldrb	r1, [r0, r1]	@ zero_extendqisi2
 6427 2548 02F83C1C 		strb	r1, [r2, #-60]
1272:.\protocolo.c **** 						for(z=1;z<=12;z++){
 6428              		.loc 1 1272 0 discriminator 3
 6429 254c 0133     		adds	r3, r3, #1
 6430 254e 0D4A     		ldr	r2, .L618+16
 6431 2550 1360     		str	r3, [r2]
 6432              	.L443:
1272:.\protocolo.c **** 						for(z=1;z<=12;z++){
 6433              		.loc 1 1272 0 is_stmt 0 discriminator 1
 6434 2552 0C4B     		ldr	r3, .L618+16
 6435 2554 1B68     		ldr	r3, [r3]
 6436 2556 0C2B     		cmp	r3, #12
 6437 2558 EAD9     		bls	.L444
1275:.\protocolo.c **** 						}
1276:.\protocolo.c **** 						minuendo[0]=12;
 6438              		.loc 1 1276 0 is_stmt 1
 6439 255a 10A9     		add	r1, sp, #64
 6440 255c 0C23     		movs	r3, #12
 6441 255e 01F82C3D 		strb	r3, [r1, #-44]!
1277:.\protocolo.c **** 						operacion(2,minuendo,sustraendo);
 6442              		.loc 1 1277 0
 6443 2562 0220     		movs	r0, #2
 6444 2564 01AA     		add	r2, sp, #4
 6445 2566 FFF7FEFF 		bl	operacion
 6446              	.LVL455:
1278:.\protocolo.c **** 						for(x=0;x<=17;x++){									
 6447              		.loc 1 1278 0
 6448 256a 0022     		movs	r2, #0
 6449 256c 024B     		ldr	r3, .L618+4
 6450 256e 1A60     		str	r2, [r3]
 6451 2570 25E0     		b	.L445
 6452              	.L619:
 6453 2572 00BF     		.align	2
 6454              	.L618:
 6455 2574 00000000 		.word	producto1n
 6456 2578 00000000 		.word	x
 6457 257c 00000000 		.word	.LANCHOR1
 6458 2580 00000000 		.word	a
 6459 2584 00000000 		.word	z
 6460 2588 FFFFFFFF 		.word	rventa-1
 6461 258c 00000000 		.word	buffer_i2c
 6462 2590 00000000 		.word	resultado
 6463 2594 00000000 		.word	rventa
 6464 2598 00000000 		.word	producto2
 6465 259c 00000000 		.word	producto2b
 6466 25a0 00000000 		.word	b
 6467 25a4 00000000 		.word	producto2n
 6468              	.L446:
1279:.\protocolo.c **** 							write_psoc1(val,msn_tventas[x]);				//Total de ventas
 6469              		.loc 1 1279 0 discriminator 3
 6470 25a8 A34A     		ldr	r2, .L620
 6471 25aa 1344     		add	r3, r3, r2
 6472 25ac 2046     		mov	r0, r4
 6473 25ae 93F82C10 		ldrb	r1, [r3, #44]	@ zero_extendqisi2
 6474 25b2 FFF7FEFF 		bl	write_psoc1
 6475              	.LVL456:
ARM GAS  C:\Users\diego\AppData\Local\Temp\ccwBHTp3.s 			page 143


1278:.\protocolo.c **** 						for(x=0;x<=17;x++){									
 6476              		.loc 1 1278 0 discriminator 3
 6477 25b6 A14A     		ldr	r2, .L620+4
 6478 25b8 1368     		ldr	r3, [r2]
 6479 25ba 0133     		adds	r3, r3, #1
 6480 25bc 1360     		str	r3, [r2]
 6481              	.L445:
1278:.\protocolo.c **** 						for(x=0;x<=17;x++){									
 6482              		.loc 1 1278 0 is_stmt 0 discriminator 1
 6483 25be 9F4B     		ldr	r3, .L620+4
 6484 25c0 1B68     		ldr	r3, [r3]
 6485 25c2 112B     		cmp	r3, #17
 6486 25c4 F0D9     		bls	.L446
1280:.\protocolo.c **** 						}
1281:.\protocolo.c **** 						print_valor(resultado,val);				
 6487              		.loc 1 1281 0 is_stmt 1
 6488 25c6 9E48     		ldr	r0, .L620+8
 6489 25c8 2146     		mov	r1, r4
 6490 25ca FFF7FEFF 		bl	print_valor
 6491              	.LVL457:
1282:.\protocolo.c **** 						if(dir==a.dir){
 6492              		.loc 1 1282 0
 6493 25ce 9D4B     		ldr	r3, .L620+12
 6494 25d0 1B78     		ldrb	r3, [r3]	@ zero_extendqisi2
 6495 25d2 AB42     		cmp	r3, r5
 6496 25d4 09D1     		bne	.L447
1283:.\protocolo.c **** 							write_eeprom(217,corte);
 6497              		.loc 1 1283 0
 6498 25d6 D920     		movs	r0, #217
 6499 25d8 09A9     		add	r1, sp, #36
 6500 25da FFF7FEFF 		bl	write_eeprom
 6501              	.LVL458:
1284:.\protocolo.c **** 							write_eeprom(538,resultado);
 6502              		.loc 1 1284 0
 6503 25de 40F21A20 		movw	r0, #538
 6504 25e2 9749     		ldr	r1, .L620+8
 6505 25e4 FFF7FEFF 		bl	write_eeprom
 6506              	.LVL459:
 6507 25e8 09E0     		b	.L432
 6508              	.L447:
1285:.\protocolo.c **** 						}
1286:.\protocolo.c **** 						else{
1287:.\protocolo.c **** 							write_eeprom(320,corte);
 6509              		.loc 1 1287 0
 6510 25ea 4FF4A070 		mov	r0, #320
 6511 25ee 09A9     		add	r1, sp, #36
 6512 25f0 FFF7FEFF 		bl	write_eeprom
 6513              	.LVL460:
1288:.\protocolo.c **** 							write_eeprom(576,resultado);
 6514              		.loc 1 1288 0
 6515 25f4 4FF41070 		mov	r0, #576
 6516 25f8 9149     		ldr	r1, .L620+8
 6517 25fa FFF7FEFF 		bl	write_eeprom
 6518              	.LVL461:
 6519              	.L432:
1289:.\protocolo.c **** 						}				
1290:.\protocolo.c **** 					}
ARM GAS  C:\Users\diego\AppData\Local\Temp\ccwBHTp3.s 			page 144


1291:.\protocolo.c **** 					if(((rventa.manguera==(producto3&0x0F))&&(dir==a.dir))||((rventa.manguera==(producto3b&0x0F))&
 6520              		.loc 1 1291 0
 6521 25fe 924B     		ldr	r3, .L620+16
 6522 2600 93F8E020 		ldrb	r2, [r3, #224]	@ zero_extendqisi2
 6523 2604 914B     		ldr	r3, .L620+20
 6524 2606 1B78     		ldrb	r3, [r3]	@ zero_extendqisi2
 6525 2608 03F00F03 		and	r3, r3, #15
 6526 260c 9342     		cmp	r3, r2
 6527 260e 03D1     		bne	.L448
 6528              		.loc 1 1291 0 is_stmt 0 discriminator 1
 6529 2610 8C4B     		ldr	r3, .L620+12
 6530 2612 1B78     		ldrb	r3, [r3]	@ zero_extendqisi2
 6531 2614 AB42     		cmp	r3, r5
 6532 2616 0BD0     		beq	.L449
 6533              	.L448:
 6534              		.loc 1 1291 0 discriminator 3
 6535 2618 8D4B     		ldr	r3, .L620+24
 6536 261a 1B78     		ldrb	r3, [r3]	@ zero_extendqisi2
 6537 261c 03F00F03 		and	r3, r3, #15
 6538 2620 9A42     		cmp	r2, r3
 6539 2622 40F0C280 		bne	.L450
 6540              		.loc 1 1291 0 discriminator 4
 6541 2626 8B4B     		ldr	r3, .L620+28
 6542 2628 1B78     		ldrb	r3, [r3]	@ zero_extendqisi2
 6543 262a AB42     		cmp	r3, r5
 6544 262c 40F0BD80 		bne	.L450
 6545              	.L449:
1292:.\protocolo.c **** 						for(x=0;x<=5;x++){									
 6546              		.loc 1 1292 0 is_stmt 1
 6547 2630 0022     		movs	r2, #0
 6548 2632 824B     		ldr	r3, .L620+4
 6549 2634 1A60     		str	r2, [r3]
 6550 2636 08E0     		b	.L451
 6551              	.L452:
1293:.\protocolo.c **** 						    write_psoc1(val,msn_tc[x]);
 6552              		.loc 1 1293 0 discriminator 3
 6553 2638 2046     		mov	r0, r4
 6554 263a 7F4A     		ldr	r2, .L620
 6555 263c D15C     		ldrb	r1, [r2, r3]	@ zero_extendqisi2
 6556 263e FFF7FEFF 		bl	write_psoc1
 6557              	.LVL462:
1292:.\protocolo.c **** 						for(x=0;x<=5;x++){									
 6558              		.loc 1 1292 0 discriminator 3
 6559 2642 7E4A     		ldr	r2, .L620+4
 6560 2644 1368     		ldr	r3, [r2]
 6561 2646 0133     		adds	r3, r3, #1
 6562 2648 1360     		str	r3, [r2]
 6563              	.L451:
1292:.\protocolo.c **** 						for(x=0;x<=5;x++){									
 6564              		.loc 1 1292 0 is_stmt 0 discriminator 1
 6565 264a 7C4B     		ldr	r3, .L620+4
 6566 264c 1B68     		ldr	r3, [r3]
 6567 264e 052B     		cmp	r3, #5
 6568 2650 F2D9     		bls	.L452
1294:.\protocolo.c **** 					    }
1295:.\protocolo.c **** 					    write_psoc1(val,10);
 6569              		.loc 1 1295 0 is_stmt 1
ARM GAS  C:\Users\diego\AppData\Local\Temp\ccwBHTp3.s 			page 145


 6570 2652 2046     		mov	r0, r4
 6571 2654 0A21     		movs	r1, #10
 6572 2656 FFF7FEFF 		bl	write_psoc1
 6573              	.LVL463:
1296:.\protocolo.c ****                         for(x=0;x<=10;x++){									
 6574              		.loc 1 1296 0
 6575 265a 0022     		movs	r2, #0
 6576 265c 774B     		ldr	r3, .L620+4
 6577 265e 1A60     		str	r2, [r3]
 6578 2660 08E0     		b	.L453
 6579              	.L454:
1297:.\protocolo.c **** 						    write_psoc1(val,producto3n[x]);
 6580              		.loc 1 1297 0 discriminator 3
 6581 2662 2046     		mov	r0, r4
 6582 2664 7C4A     		ldr	r2, .L620+32
 6583 2666 D15C     		ldrb	r1, [r2, r3]	@ zero_extendqisi2
 6584 2668 FFF7FEFF 		bl	write_psoc1
 6585              	.LVL464:
1296:.\protocolo.c ****                         for(x=0;x<=10;x++){									
 6586              		.loc 1 1296 0 discriminator 3
 6587 266c 734A     		ldr	r2, .L620+4
 6588 266e 1368     		ldr	r3, [r2]
 6589 2670 0133     		adds	r3, r3, #1
 6590 2672 1360     		str	r3, [r2]
 6591              	.L453:
1296:.\protocolo.c ****                         for(x=0;x<=10;x++){									
 6592              		.loc 1 1296 0 is_stmt 0 discriminator 1
 6593 2674 714B     		ldr	r3, .L620+4
 6594 2676 1B68     		ldr	r3, [r3]
 6595 2678 0A2B     		cmp	r3, #10
 6596 267a F2D9     		bls	.L454
1298:.\protocolo.c **** 					    }
1299:.\protocolo.c ****                         write_psoc1(val,10);
 6597              		.loc 1 1299 0 is_stmt 1
 6598 267c 2046     		mov	r0, r4
 6599 267e 0A21     		movs	r1, #10
 6600 2680 FFF7FEFF 		bl	write_psoc1
 6601              	.LVL465:
1300:.\protocolo.c **** 						for(x=0;x<=14;x++){									
 6602              		.loc 1 1300 0
 6603 2684 0022     		movs	r2, #0
 6604 2686 6D4B     		ldr	r3, .L620+4
 6605 2688 1A60     		str	r2, [r3]
 6606 268a 09E0     		b	.L455
 6607              	.L456:
1301:.\protocolo.c **** 							write_psoc1(val,msn_lecact[x]);				//LECTURA ACTUAL
 6608              		.loc 1 1301 0 discriminator 3
 6609 268c 6A4A     		ldr	r2, .L620
 6610 268e 1344     		add	r3, r3, r2
 6611 2690 2046     		mov	r0, r4
 6612 2692 197A     		ldrb	r1, [r3, #8]	@ zero_extendqisi2
 6613 2694 FFF7FEFF 		bl	write_psoc1
 6614              	.LVL466:
1300:.\protocolo.c **** 						for(x=0;x<=14;x++){									
 6615              		.loc 1 1300 0 discriminator 3
 6616 2698 684A     		ldr	r2, .L620+4
 6617 269a 1368     		ldr	r3, [r2]
ARM GAS  C:\Users\diego\AppData\Local\Temp\ccwBHTp3.s 			page 146


 6618 269c 0133     		adds	r3, r3, #1
 6619 269e 1360     		str	r3, [r2]
 6620              	.L455:
1300:.\protocolo.c **** 						for(x=0;x<=14;x++){									
 6621              		.loc 1 1300 0 is_stmt 0 discriminator 1
 6622 26a0 664B     		ldr	r3, .L620+4
 6623 26a2 1B68     		ldr	r3, [r3]
 6624 26a4 0E2B     		cmp	r3, #14
 6625 26a6 F1D9     		bls	.L456
1302:.\protocolo.c **** 						}
1303:.\protocolo.c **** 						write_psoc1(val,10);
 6626              		.loc 1 1303 0 is_stmt 1
 6627 26a8 2046     		mov	r0, r4
 6628 26aa 0A21     		movs	r1, #10
 6629 26ac FFF7FEFF 		bl	write_psoc1
 6630              	.LVL467:
1304:.\protocolo.c **** 						print_totalesac(12,val);	
 6631              		.loc 1 1304 0
 6632 26b0 0C20     		movs	r0, #12
 6633 26b2 2146     		mov	r1, r4
 6634 26b4 FFF7FEFF 		bl	print_totalesac
 6635              	.LVL468:
1305:.\protocolo.c **** 						for(x=0;x<=16;x++){												
 6636              		.loc 1 1305 0
 6637 26b8 0022     		movs	r2, #0
 6638 26ba 604B     		ldr	r3, .L620+4
 6639 26bc 1A60     		str	r2, [r3]
 6640 26be 09E0     		b	.L457
 6641              	.L458:
1306:.\protocolo.c **** 							write_psoc1(val,msn_lecaan[x]);				//LECTURA ANTERIOR
 6642              		.loc 1 1306 0 discriminator 3
 6643 26c0 5D4A     		ldr	r2, .L620
 6644 26c2 1344     		add	r3, r3, r2
 6645 26c4 2046     		mov	r0, r4
 6646 26c6 197E     		ldrb	r1, [r3, #24]	@ zero_extendqisi2
 6647 26c8 FFF7FEFF 		bl	write_psoc1
 6648              	.LVL469:
1305:.\protocolo.c **** 						for(x=0;x<=16;x++){												
 6649              		.loc 1 1305 0 discriminator 3
 6650 26cc 5B4A     		ldr	r2, .L620+4
 6651 26ce 1368     		ldr	r3, [r2]
 6652 26d0 0133     		adds	r3, r3, #1
 6653 26d2 1360     		str	r3, [r2]
 6654              	.L457:
1305:.\protocolo.c **** 						for(x=0;x<=16;x++){												
 6655              		.loc 1 1305 0 is_stmt 0 discriminator 1
 6656 26d4 594B     		ldr	r3, .L620+4
 6657 26d6 1B68     		ldr	r3, [r3]
 6658 26d8 102B     		cmp	r3, #16
 6659 26da F1D9     		bls	.L458
1307:.\protocolo.c **** 						}
1308:.\protocolo.c **** 						write_psoc1(val,10);
 6660              		.loc 1 1308 0 is_stmt 1
 6661 26dc 2046     		mov	r0, r4
 6662 26de 0A21     		movs	r1, #10
 6663 26e0 FFF7FEFF 		bl	write_psoc1
 6664              	.LVL470:
ARM GAS  C:\Users\diego\AppData\Local\Temp\ccwBHTp3.s 			page 147


1309:.\protocolo.c **** 						if(dir==a.dir){
 6665              		.loc 1 1309 0
 6666 26e4 574B     		ldr	r3, .L620+12
 6667 26e6 1B78     		ldrb	r3, [r3]	@ zero_extendqisi2
 6668 26e8 AB42     		cmp	r3, r5
 6669 26ea 05D1     		bne	.L459
1310:.\protocolo.c **** 							leer_eeprom(256,25);
 6670              		.loc 1 1310 0
 6671 26ec 4FF48070 		mov	r0, #256
 6672 26f0 1921     		movs	r1, #25
 6673 26f2 FFF7FEFF 		bl	leer_eeprom
 6674              	.LVL471:
 6675 26f6 04E0     		b	.L460
 6676              	.L459:
1311:.\protocolo.c **** 						}
1312:.\protocolo.c **** 						else{
1313:.\protocolo.c **** 							leer_eeprom(345,25);
 6677              		.loc 1 1313 0
 6678 26f8 40F25910 		movw	r0, #345
 6679 26fc 1921     		movs	r1, #25
 6680 26fe FFF7FEFF 		bl	leer_eeprom
 6681              	.LVL472:
 6682              	.L460:
1314:.\protocolo.c **** 						}
1315:.\protocolo.c **** 						print_totales(val);
 6683              		.loc 1 1315 0
 6684 2702 2046     		mov	r0, r4
 6685 2704 FFF7FEFF 		bl	print_totales
 6686              	.LVL473:
1316:.\protocolo.c **** 						for(z=1;z<=12;z++){
 6687              		.loc 1 1316 0
 6688 2708 0122     		movs	r2, #1
 6689 270a 544B     		ldr	r3, .L620+36
 6690 270c 1A60     		str	r2, [r3]
 6691 270e 10E0     		b	.L461
 6692              	.L462:
1317:.\protocolo.c **** 							minuendo[z]=rventa.tdinero[z-1];
 6693              		.loc 1 1317 0 discriminator 3
 6694 2710 534A     		ldr	r2, .L620+40
 6695 2712 1A44     		add	r2, r2, r3
 6696 2714 92F8CA10 		ldrb	r1, [r2, #202]	@ zero_extendqisi2
 6697 2718 10AA     		add	r2, sp, #64
 6698 271a 1A44     		add	r2, r2, r3
 6699 271c 02F82C1C 		strb	r1, [r2, #-44]
1318:.\protocolo.c **** 							sustraendo[z]=buffer_i2c[z+12];
 6700              		.loc 1 1318 0 discriminator 3
 6701 2720 03F10C01 		add	r1, r3, #12
 6702 2724 4F48     		ldr	r0, .L620+44
 6703 2726 415C     		ldrb	r1, [r0, r1]	@ zero_extendqisi2
 6704 2728 02F83C1C 		strb	r1, [r2, #-60]
1316:.\protocolo.c **** 						for(z=1;z<=12;z++){
 6705              		.loc 1 1316 0 discriminator 3
 6706 272c 0133     		adds	r3, r3, #1
 6707 272e 4B4A     		ldr	r2, .L620+36
 6708 2730 1360     		str	r3, [r2]
 6709              	.L461:
1316:.\protocolo.c **** 						for(z=1;z<=12;z++){
ARM GAS  C:\Users\diego\AppData\Local\Temp\ccwBHTp3.s 			page 148


 6710              		.loc 1 1316 0 is_stmt 0 discriminator 1
 6711 2732 4A4B     		ldr	r3, .L620+36
 6712 2734 1B68     		ldr	r3, [r3]
 6713 2736 0C2B     		cmp	r3, #12
 6714 2738 EAD9     		bls	.L462
1319:.\protocolo.c **** 						}
1320:.\protocolo.c **** 						minuendo[0]=12;
 6715              		.loc 1 1320 0 is_stmt 1
 6716 273a 10A9     		add	r1, sp, #64
 6717 273c 0C23     		movs	r3, #12
 6718 273e 01F82C3D 		strb	r3, [r1, #-44]!
1321:.\protocolo.c **** 						operacion(2,minuendo,sustraendo);
 6719              		.loc 1 1321 0
 6720 2742 0220     		movs	r0, #2
 6721 2744 01AA     		add	r2, sp, #4
 6722 2746 FFF7FEFF 		bl	operacion
 6723              	.LVL474:
1322:.\protocolo.c **** 						for(x=0;x<=17;x++){									
 6724              		.loc 1 1322 0
 6725 274a 0022     		movs	r2, #0
 6726 274c 3B4B     		ldr	r3, .L620+4
 6727 274e 1A60     		str	r2, [r3]
 6728 2750 0AE0     		b	.L463
 6729              	.L464:
1323:.\protocolo.c **** 							write_psoc1(val,msn_tventas[x]);				//Total de ventas
 6730              		.loc 1 1323 0 discriminator 3
 6731 2752 394A     		ldr	r2, .L620
 6732 2754 1344     		add	r3, r3, r2
 6733 2756 2046     		mov	r0, r4
 6734 2758 93F82C10 		ldrb	r1, [r3, #44]	@ zero_extendqisi2
 6735 275c FFF7FEFF 		bl	write_psoc1
 6736              	.LVL475:
1322:.\protocolo.c **** 						for(x=0;x<=17;x++){									
 6737              		.loc 1 1322 0 discriminator 3
 6738 2760 364A     		ldr	r2, .L620+4
 6739 2762 1368     		ldr	r3, [r2]
 6740 2764 0133     		adds	r3, r3, #1
 6741 2766 1360     		str	r3, [r2]
 6742              	.L463:
1322:.\protocolo.c **** 						for(x=0;x<=17;x++){									
 6743              		.loc 1 1322 0 is_stmt 0 discriminator 1
 6744 2768 344B     		ldr	r3, .L620+4
 6745 276a 1B68     		ldr	r3, [r3]
 6746 276c 112B     		cmp	r3, #17
 6747 276e F0D9     		bls	.L464
1324:.\protocolo.c **** 						}
1325:.\protocolo.c **** 						print_valor(resultado,val);							
 6748              		.loc 1 1325 0 is_stmt 1
 6749 2770 3348     		ldr	r0, .L620+8
 6750 2772 2146     		mov	r1, r4
 6751 2774 FFF7FEFF 		bl	print_valor
 6752              	.LVL476:
1326:.\protocolo.c **** 						if(dir==a.dir){
 6753              		.loc 1 1326 0
 6754 2778 324B     		ldr	r3, .L620+12
 6755 277a 1B78     		ldrb	r3, [r3]	@ zero_extendqisi2
 6756 277c AB42     		cmp	r3, r5
ARM GAS  C:\Users\diego\AppData\Local\Temp\ccwBHTp3.s 			page 149


 6757 277e 0AD1     		bne	.L465
1327:.\protocolo.c **** 							write_eeprom(256,corte);
 6758              		.loc 1 1327 0
 6759 2780 4FF48070 		mov	r0, #256
 6760 2784 09A9     		add	r1, sp, #36
 6761 2786 FFF7FEFF 		bl	write_eeprom
 6762              	.LVL477:
1328:.\protocolo.c **** 							write_eeprom(525,resultado);
 6763              		.loc 1 1328 0
 6764 278a 40F20D20 		movw	r0, #525
 6765 278e 2C49     		ldr	r1, .L620+8
 6766 2790 FFF7FEFF 		bl	write_eeprom
 6767              	.LVL478:
 6768 2794 09E0     		b	.L450
 6769              	.L465:
1329:.\protocolo.c **** 						}
1330:.\protocolo.c **** 						else{
1331:.\protocolo.c **** 							write_eeprom(345,corte);
 6770              		.loc 1 1331 0
 6771 2796 40F25910 		movw	r0, #345
 6772 279a 09A9     		add	r1, sp, #36
 6773 279c FFF7FEFF 		bl	write_eeprom
 6774              	.LVL479:
1332:.\protocolo.c **** 							write_eeprom(589,resultado);
 6775              		.loc 1 1332 0
 6776 27a0 40F24D20 		movw	r0, #589
 6777 27a4 2649     		ldr	r1, .L620+8
 6778 27a6 FFF7FEFF 		bl	write_eeprom
 6779              	.LVL480:
 6780              	.L450:
1333:.\protocolo.c **** 						}					
1334:.\protocolo.c **** 					}
1335:.\protocolo.c ****                     
1336:.\protocolo.c ****                     
1337:.\protocolo.c ****                     if(((rventa.manguera==(producto4&0x0F))&&(dir==a.dir))||((rventa.manguera==(pro
 6781              		.loc 1 1337 0
 6782 27aa 274B     		ldr	r3, .L620+16
 6783 27ac 93F8E020 		ldrb	r2, [r3, #224]	@ zero_extendqisi2
 6784 27b0 2D4B     		ldr	r3, .L620+48
 6785 27b2 1B78     		ldrb	r3, [r3]	@ zero_extendqisi2
 6786 27b4 03F00F03 		and	r3, r3, #15
 6787 27b8 9342     		cmp	r3, r2
 6788 27ba 03D1     		bne	.L466
 6789              		.loc 1 1337 0 is_stmt 0 discriminator 1
 6790 27bc 214B     		ldr	r3, .L620+12
 6791 27be 1B78     		ldrb	r3, [r3]	@ zero_extendqisi2
 6792 27c0 AB42     		cmp	r3, r5
 6793 27c2 0BD0     		beq	.L467
 6794              	.L466:
 6795              		.loc 1 1337 0 discriminator 3
 6796 27c4 294B     		ldr	r3, .L620+52
 6797 27c6 1B78     		ldrb	r3, [r3]	@ zero_extendqisi2
 6798 27c8 03F00F03 		and	r3, r3, #15
 6799 27cc 9A42     		cmp	r2, r3
 6800 27ce 40F0E080 		bne	.L468
 6801              		.loc 1 1337 0 discriminator 4
 6802 27d2 204B     		ldr	r3, .L620+28
ARM GAS  C:\Users\diego\AppData\Local\Temp\ccwBHTp3.s 			page 150


 6803 27d4 1B78     		ldrb	r3, [r3]	@ zero_extendqisi2
 6804 27d6 AB42     		cmp	r3, r5
 6805 27d8 40F0DB80 		bne	.L468
 6806              	.L467:
1338:.\protocolo.c **** 						for(x=0;x<=5;x++){									
 6807              		.loc 1 1338 0 is_stmt 1
 6808 27dc 0022     		movs	r2, #0
 6809 27de 174B     		ldr	r3, .L620+4
 6810 27e0 1A60     		str	r2, [r3]
 6811 27e2 08E0     		b	.L469
 6812              	.L470:
1339:.\protocolo.c **** 						    write_psoc1(val,msn_tc[x]);
 6813              		.loc 1 1339 0 discriminator 3
 6814 27e4 2046     		mov	r0, r4
 6815 27e6 144A     		ldr	r2, .L620
 6816 27e8 D15C     		ldrb	r1, [r2, r3]	@ zero_extendqisi2
 6817 27ea FFF7FEFF 		bl	write_psoc1
 6818              	.LVL481:
1338:.\protocolo.c **** 						for(x=0;x<=5;x++){									
 6819              		.loc 1 1338 0 discriminator 3
 6820 27ee 134A     		ldr	r2, .L620+4
 6821 27f0 1368     		ldr	r3, [r2]
 6822 27f2 0133     		adds	r3, r3, #1
 6823 27f4 1360     		str	r3, [r2]
 6824              	.L469:
1338:.\protocolo.c **** 						for(x=0;x<=5;x++){									
 6825              		.loc 1 1338 0 is_stmt 0 discriminator 1
 6826 27f6 114B     		ldr	r3, .L620+4
 6827 27f8 1B68     		ldr	r3, [r3]
 6828 27fa 052B     		cmp	r3, #5
 6829 27fc F2D9     		bls	.L470
1340:.\protocolo.c **** 					    }
1341:.\protocolo.c **** 					    write_psoc1(val,10);
 6830              		.loc 1 1341 0 is_stmt 1
 6831 27fe 2046     		mov	r0, r4
 6832 2800 0A21     		movs	r1, #10
 6833 2802 FFF7FEFF 		bl	write_psoc1
 6834              	.LVL482:
1342:.\protocolo.c ****                         for(x=0;x<=10;x++){									
 6835              		.loc 1 1342 0
 6836 2806 0022     		movs	r2, #0
 6837 2808 0C4B     		ldr	r3, .L620+4
 6838 280a 1A60     		str	r2, [r3]
 6839 280c 08E0     		b	.L471
 6840              	.L472:
1343:.\protocolo.c **** 						    write_psoc1(val,producto4n[x]);
 6841              		.loc 1 1343 0 discriminator 3
 6842 280e 2046     		mov	r0, r4
 6843 2810 174A     		ldr	r2, .L620+56
 6844 2812 D15C     		ldrb	r1, [r2, r3]	@ zero_extendqisi2
 6845 2814 FFF7FEFF 		bl	write_psoc1
 6846              	.LVL483:
1342:.\protocolo.c ****                         for(x=0;x<=10;x++){									
 6847              		.loc 1 1342 0 discriminator 3
 6848 2818 084A     		ldr	r2, .L620+4
 6849 281a 1368     		ldr	r3, [r2]
 6850 281c 0133     		adds	r3, r3, #1
ARM GAS  C:\Users\diego\AppData\Local\Temp\ccwBHTp3.s 			page 151


 6851 281e 1360     		str	r3, [r2]
 6852              	.L471:
1342:.\protocolo.c ****                         for(x=0;x<=10;x++){									
 6853              		.loc 1 1342 0 is_stmt 0 discriminator 1
 6854 2820 064B     		ldr	r3, .L620+4
 6855 2822 1B68     		ldr	r3, [r3]
 6856 2824 0A2B     		cmp	r3, #10
 6857 2826 F2D9     		bls	.L472
1344:.\protocolo.c **** 					    }
1345:.\protocolo.c ****                         write_psoc1(val,10);
 6858              		.loc 1 1345 0 is_stmt 1
 6859 2828 2046     		mov	r0, r4
 6860 282a 0A21     		movs	r1, #10
 6861 282c FFF7FEFF 		bl	write_psoc1
 6862              	.LVL484:
1346:.\protocolo.c **** 						for(x=0;x<=14;x++){									
 6863              		.loc 1 1346 0
 6864 2830 0022     		movs	r2, #0
 6865 2832 024B     		ldr	r3, .L620+4
 6866 2834 1A60     		str	r2, [r3]
 6867 2836 27E0     		b	.L473
 6868              	.L621:
 6869              		.align	2
 6870              	.L620:
 6871 2838 00000000 		.word	.LANCHOR1
 6872 283c 00000000 		.word	x
 6873 2840 00000000 		.word	resultado
 6874 2844 00000000 		.word	a
 6875 2848 00000000 		.word	rventa
 6876 284c 00000000 		.word	producto3
 6877 2850 00000000 		.word	producto3b
 6878 2854 00000000 		.word	b
 6879 2858 00000000 		.word	producto3n
 6880 285c 00000000 		.word	z
 6881 2860 FFFFFFFF 		.word	rventa-1
 6882 2864 00000000 		.word	buffer_i2c
 6883 2868 00000000 		.word	producto4
 6884 286c 00000000 		.word	producto4b
 6885 2870 00000000 		.word	producto4n
 6886              	.L474:
1347:.\protocolo.c **** 							write_psoc1(val,msn_lecact[x]);				//LECTURA ACTUAL
 6887              		.loc 1 1347 0 discriminator 3
 6888 2874 AD4A     		ldr	r2, .L622
 6889 2876 1344     		add	r3, r3, r2
 6890 2878 2046     		mov	r0, r4
 6891 287a 197A     		ldrb	r1, [r3, #8]	@ zero_extendqisi2
 6892 287c FFF7FEFF 		bl	write_psoc1
 6893              	.LVL485:
1346:.\protocolo.c **** 						for(x=0;x<=14;x++){									
 6894              		.loc 1 1346 0 discriminator 3
 6895 2880 AB4A     		ldr	r2, .L622+4
 6896 2882 1368     		ldr	r3, [r2]
 6897 2884 0133     		adds	r3, r3, #1
 6898 2886 1360     		str	r3, [r2]
 6899              	.L473:
1346:.\protocolo.c **** 						for(x=0;x<=14;x++){									
 6900              		.loc 1 1346 0 is_stmt 0 discriminator 1
ARM GAS  C:\Users\diego\AppData\Local\Temp\ccwBHTp3.s 			page 152


 6901 2888 A94B     		ldr	r3, .L622+4
 6902 288a 1B68     		ldr	r3, [r3]
 6903 288c 0E2B     		cmp	r3, #14
 6904 288e F1D9     		bls	.L474
1348:.\protocolo.c **** 						}
1349:.\protocolo.c **** 						write_psoc1(val,10);
 6905              		.loc 1 1349 0 is_stmt 1
 6906 2890 2046     		mov	r0, r4
 6907 2892 0A21     		movs	r1, #10
 6908 2894 FFF7FEFF 		bl	write_psoc1
 6909              	.LVL486:
1350:.\protocolo.c **** 						print_totalesac(12,val);	
 6910              		.loc 1 1350 0
 6911 2898 0C20     		movs	r0, #12
 6912 289a 2146     		mov	r1, r4
 6913 289c FFF7FEFF 		bl	print_totalesac
 6914              	.LVL487:
1351:.\protocolo.c **** 						for(x=0;x<=16;x++){												
 6915              		.loc 1 1351 0
 6916 28a0 0022     		movs	r2, #0
 6917 28a2 A34B     		ldr	r3, .L622+4
 6918 28a4 1A60     		str	r2, [r3]
 6919 28a6 09E0     		b	.L475
 6920              	.L476:
1352:.\protocolo.c **** 							write_psoc1(val,msn_lecaan[x]);				//LECTURA ANTERIOR
 6921              		.loc 1 1352 0 discriminator 3
 6922 28a8 A04A     		ldr	r2, .L622
 6923 28aa 1344     		add	r3, r3, r2
 6924 28ac 2046     		mov	r0, r4
 6925 28ae 197E     		ldrb	r1, [r3, #24]	@ zero_extendqisi2
 6926 28b0 FFF7FEFF 		bl	write_psoc1
 6927              	.LVL488:
1351:.\protocolo.c **** 						for(x=0;x<=16;x++){												
 6928              		.loc 1 1351 0 discriminator 3
 6929 28b4 9E4A     		ldr	r2, .L622+4
 6930 28b6 1368     		ldr	r3, [r2]
 6931 28b8 0133     		adds	r3, r3, #1
 6932 28ba 1360     		str	r3, [r2]
 6933              	.L475:
1351:.\protocolo.c **** 						for(x=0;x<=16;x++){												
 6934              		.loc 1 1351 0 is_stmt 0 discriminator 1
 6935 28bc 9C4B     		ldr	r3, .L622+4
 6936 28be 1B68     		ldr	r3, [r3]
 6937 28c0 102B     		cmp	r3, #16
 6938 28c2 F1D9     		bls	.L476
1353:.\protocolo.c **** 						}
1354:.\protocolo.c **** 						write_psoc1(val,10);
 6939              		.loc 1 1354 0 is_stmt 1
 6940 28c4 2046     		mov	r0, r4
 6941 28c6 0A21     		movs	r1, #10
 6942 28c8 FFF7FEFF 		bl	write_psoc1
 6943              	.LVL489:
1355:.\protocolo.c **** 						if(dir==a.dir){
 6944              		.loc 1 1355 0
 6945 28cc 994B     		ldr	r3, .L622+8
 6946 28ce 1B78     		ldrb	r3, [r3]	@ zero_extendqisi2
 6947 28d0 AB42     		cmp	r3, r5
ARM GAS  C:\Users\diego\AppData\Local\Temp\ccwBHTp3.s 			page 153


 6948 28d2 05D1     		bne	.L477
1356:.\protocolo.c **** 							leer_eeprom(1096,25);
 6949              		.loc 1 1356 0
 6950 28d4 4FF48960 		mov	r0, #1096
 6951 28d8 1921     		movs	r1, #25
 6952 28da FFF7FEFF 		bl	leer_eeprom
 6953              	.LVL490:
 6954 28de 04E0     		b	.L478
 6955              	.L477:
1357:.\protocolo.c **** 						}
1358:.\protocolo.c **** 						else{
1359:.\protocolo.c **** 							leer_eeprom(1054,25);
 6956              		.loc 1 1359 0
 6957 28e0 40F21E40 		movw	r0, #1054
 6958 28e4 1921     		movs	r1, #25
 6959 28e6 FFF7FEFF 		bl	leer_eeprom
 6960              	.LVL491:
 6961              	.L478:
1360:.\protocolo.c **** 						}
1361:.\protocolo.c **** 						print_totales(val);
 6962              		.loc 1 1361 0
 6963 28ea 2046     		mov	r0, r4
 6964 28ec FFF7FEFF 		bl	print_totales
 6965              	.LVL492:
1362:.\protocolo.c **** 						for(z=1;z<=12;z++){
 6966              		.loc 1 1362 0
 6967 28f0 0122     		movs	r2, #1
 6968 28f2 914B     		ldr	r3, .L622+12
 6969 28f4 1A60     		str	r2, [r3]
 6970 28f6 10E0     		b	.L479
 6971              	.L480:
1363:.\protocolo.c **** 							minuendo[z]=rventa.tdinero[z-1];
 6972              		.loc 1 1363 0 discriminator 3
 6973 28f8 904A     		ldr	r2, .L622+16
 6974 28fa 1A44     		add	r2, r2, r3
 6975 28fc 92F8CA10 		ldrb	r1, [r2, #202]	@ zero_extendqisi2
 6976 2900 10AA     		add	r2, sp, #64
 6977 2902 1A44     		add	r2, r2, r3
 6978 2904 02F82C1C 		strb	r1, [r2, #-44]
1364:.\protocolo.c **** 							sustraendo[z]=buffer_i2c[z+12];
 6979              		.loc 1 1364 0 discriminator 3
 6980 2908 03F10C01 		add	r1, r3, #12
 6981 290c 8C48     		ldr	r0, .L622+20
 6982 290e 415C     		ldrb	r1, [r0, r1]	@ zero_extendqisi2
 6983 2910 02F83C1C 		strb	r1, [r2, #-60]
1362:.\protocolo.c **** 						for(z=1;z<=12;z++){
 6984              		.loc 1 1362 0 discriminator 3
 6985 2914 0133     		adds	r3, r3, #1
 6986 2916 884A     		ldr	r2, .L622+12
 6987 2918 1360     		str	r3, [r2]
 6988              	.L479:
1362:.\protocolo.c **** 						for(z=1;z<=12;z++){
 6989              		.loc 1 1362 0 is_stmt 0 discriminator 1
 6990 291a 874B     		ldr	r3, .L622+12
 6991 291c 1B68     		ldr	r3, [r3]
 6992 291e 0C2B     		cmp	r3, #12
 6993 2920 EAD9     		bls	.L480
ARM GAS  C:\Users\diego\AppData\Local\Temp\ccwBHTp3.s 			page 154


1365:.\protocolo.c **** 						}
1366:.\protocolo.c **** 						minuendo[0]=12;
 6994              		.loc 1 1366 0 is_stmt 1
 6995 2922 10A9     		add	r1, sp, #64
 6996 2924 0C23     		movs	r3, #12
 6997 2926 01F82C3D 		strb	r3, [r1, #-44]!
1367:.\protocolo.c **** 						operacion(2,minuendo,sustraendo);
 6998              		.loc 1 1367 0
 6999 292a 0220     		movs	r0, #2
 7000 292c 01AA     		add	r2, sp, #4
 7001 292e FFF7FEFF 		bl	operacion
 7002              	.LVL493:
1368:.\protocolo.c **** 						for(x=0;x<=17;x++){									
 7003              		.loc 1 1368 0
 7004 2932 0022     		movs	r2, #0
 7005 2934 7E4B     		ldr	r3, .L622+4
 7006 2936 1A60     		str	r2, [r3]
 7007 2938 0AE0     		b	.L481
 7008              	.L482:
1369:.\protocolo.c **** 							write_psoc1(val,msn_tventas[x]);				//Total de ventas
 7009              		.loc 1 1369 0 discriminator 3
 7010 293a 7C4A     		ldr	r2, .L622
 7011 293c 1344     		add	r3, r3, r2
 7012 293e 2046     		mov	r0, r4
 7013 2940 93F82C10 		ldrb	r1, [r3, #44]	@ zero_extendqisi2
 7014 2944 FFF7FEFF 		bl	write_psoc1
 7015              	.LVL494:
1368:.\protocolo.c **** 						for(x=0;x<=17;x++){									
 7016              		.loc 1 1368 0 discriminator 3
 7017 2948 794A     		ldr	r2, .L622+4
 7018 294a 1368     		ldr	r3, [r2]
 7019 294c 0133     		adds	r3, r3, #1
 7020 294e 1360     		str	r3, [r2]
 7021              	.L481:
1368:.\protocolo.c **** 						for(x=0;x<=17;x++){									
 7022              		.loc 1 1368 0 is_stmt 0 discriminator 1
 7023 2950 774B     		ldr	r3, .L622+4
 7024 2952 1B68     		ldr	r3, [r3]
 7025 2954 112B     		cmp	r3, #17
 7026 2956 F0D9     		bls	.L482
1370:.\protocolo.c **** 						}
1371:.\protocolo.c **** 						print_valor(resultado,val);							
 7027              		.loc 1 1371 0 is_stmt 1
 7028 2958 7A48     		ldr	r0, .L622+24
 7029 295a 2146     		mov	r1, r4
 7030 295c FFF7FEFF 		bl	print_valor
 7031              	.LVL495:
1372:.\protocolo.c **** 						if(dir==a.dir){
 7032              		.loc 1 1372 0
 7033 2960 744B     		ldr	r3, .L622+8
 7034 2962 1B78     		ldrb	r3, [r3]	@ zero_extendqisi2
 7035 2964 AB42     		cmp	r3, r5
 7036 2966 0AD1     		bne	.L483
1373:.\protocolo.c **** 						    write_eeprom(1096,corte);
 7037              		.loc 1 1373 0
 7038 2968 4FF48960 		mov	r0, #1096
 7039 296c 09A9     		add	r1, sp, #36
ARM GAS  C:\Users\diego\AppData\Local\Temp\ccwBHTp3.s 			page 155


 7040 296e FFF7FEFF 		bl	write_eeprom
 7041              	.LVL496:
1374:.\protocolo.c **** 						    write_eeprom(1038,resultado);
 7042              		.loc 1 1374 0
 7043 2972 40F20E40 		movw	r0, #1038
 7044 2976 7349     		ldr	r1, .L622+24
 7045 2978 FFF7FEFF 		bl	write_eeprom
 7046              	.LVL497:
 7047 297c 09E0     		b	.L468
 7048              	.L483:
1375:.\protocolo.c **** 					    }
1376:.\protocolo.c **** 					    else{
1377:.\protocolo.c **** 						    write_eeprom(1054,corte);
 7049              		.loc 1 1377 0
 7050 297e 40F21E40 		movw	r0, #1054
 7051 2982 09A9     		add	r1, sp, #36
 7052 2984 FFF7FEFF 		bl	write_eeprom
 7053              	.LVL498:
1378:.\protocolo.c **** 						    write_eeprom(1081,resultado);
 7054              		.loc 1 1378 0
 7055 2988 40F23940 		movw	r0, #1081
 7056 298c 6D49     		ldr	r1, .L622+24
 7057 298e FFF7FEFF 		bl	write_eeprom
 7058              	.LVL499:
 7059              	.L468:
1189:.\protocolo.c **** 					rventa.manguera=(Surtidor_rxBuffer[y+2]&0x0F)+1;
 7060              		.loc 1 1189 0 discriminator 2
 7061 2992 6D4A     		ldr	r2, .L622+28
 7062 2994 1368     		ldr	r3, [r2]
 7063 2996 2A33     		adds	r3, r3, #42
 7064 2998 1360     		str	r3, [r2]
 7065              	.L403:
1189:.\protocolo.c **** 					rventa.manguera=(Surtidor_rxBuffer[y+2]&0x0F)+1;
 7066              		.loc 1 1189 0 is_stmt 0 discriminator 1
 7067 299a 6B4B     		ldr	r3, .L622+28
 7068 299c 1E68     		ldr	r6, [r3]
 7069 299e 2A2E     		cmp	r6, #42
 7070 29a0 7FF6F7AB 		bls	.L484
1379:.\protocolo.c **** 				        }					
1380:.\protocolo.c **** 					}
1381:.\protocolo.c **** 				}
1382:.\protocolo.c **** 				Surtidor_ClearRxBuffer();
 7071              		.loc 1 1382 0 is_stmt 1
 7072 29a4 FFF7FEFF 		bl	Surtidor_ClearRxBuffer
 7073              	.LVL500:
1383:.\protocolo.c **** 				return 2;					
 7074              		.loc 1 1383 0
 7075 29a8 0220     		movs	r0, #2
 7076 29aa 00F073BC 		b	.L78
 7077              	.L76:
1384:.\protocolo.c **** 			}			
1385:.\protocolo.c **** 			else{
1386:.\protocolo.c **** 				return 0;
1387:.\protocolo.c **** 			}			
1388:.\protocolo.c **** 		break;
1389:.\protocolo.c **** 		
1390:.\protocolo.c **** 		case 130:
ARM GAS  C:\Users\diego\AppData\Local\Temp\ccwBHTp3.s 			page 156


1391:.\protocolo.c **** 			if((Surtidor_rxBuffer[0]==0xFF)&&(Surtidor_rxBuffer[1]==0xF6)&&(Surtidor_rxBuffer[129]==0xF0)&&(
 7078              		.loc 1 1391 0
 7079 29ae 674B     		ldr	r3, .L622+32
 7080 29b0 1B78     		ldrb	r3, [r3]	@ zero_extendqisi2
 7081 29b2 DBB2     		uxtb	r3, r3
 7082 29b4 FF2B     		cmp	r3, #255
 7083 29b6 40F06684 		bne	.L589
 7084              		.loc 1 1391 0 is_stmt 0 discriminator 1
 7085 29ba 644B     		ldr	r3, .L622+32
 7086 29bc 5B78     		ldrb	r3, [r3, #1]	@ zero_extendqisi2
 7087 29be DBB2     		uxtb	r3, r3
 7088 29c0 F62B     		cmp	r3, #246
 7089 29c2 40F06284 		bne	.L590
 7090              		.loc 1 1391 0 discriminator 2
 7091 29c6 614B     		ldr	r3, .L622+32
 7092 29c8 93F88130 		ldrb	r3, [r3, #129]	@ zero_extendqisi2
 7093 29cc DBB2     		uxtb	r3, r3
 7094 29ce F02B     		cmp	r3, #240
 7095 29d0 40F05D84 		bne	.L591
 7096              		.loc 1 1391 0 discriminator 3
 7097 29d4 5D4B     		ldr	r3, .L622+32
 7098 29d6 DB78     		ldrb	r3, [r3, #3]	@ zero_extendqisi2
 7099 29d8 DBB2     		uxtb	r3, r3
 7100 29da F92B     		cmp	r3, #249
 7101 29dc 40F05984 		bne	.L592
1392:.\protocolo.c **** 				for(y=0;y<=84;y+=42){
 7102              		.loc 1 1392 0 is_stmt 1
 7103 29e0 0022     		movs	r2, #0
 7104 29e2 594B     		ldr	r3, .L622+28
 7105 29e4 1A60     		str	r2, [r3]
 7106 29e6 00F008BC 		b	.L485
 7107              	.L566:
1393:.\protocolo.c **** 					rventa.manguera=(Surtidor_rxBuffer[y+2]&0x0F)+1;
 7108              		.loc 1 1393 0
 7109 29ea B31C     		adds	r3, r6, #2
 7110 29ec 574A     		ldr	r2, .L622+32
 7111 29ee D15C     		ldrb	r1, [r2, r3]	@ zero_extendqisi2
 7112 29f0 01F00F01 		and	r1, r1, #15
 7113 29f4 0131     		adds	r1, r1, #1
 7114 29f6 564B     		ldr	r3, .L622+36
 7115 29f8 83F8E010 		strb	r1, [r3, #224]
1394:.\protocolo.c **** 					for(x=0;x<=11;x++){
 7116              		.loc 1 1394 0
 7117 29fc 0022     		movs	r2, #0
 7118 29fe 4C4B     		ldr	r3, .L622+4
 7119 2a00 1A60     		str	r2, [r3]
 7120 2a02 0CE0     		b	.L486
 7121              	.L487:
1395:.\protocolo.c **** 						rventa.tvolumen[x]=(Surtidor_rxBuffer[y+4+x]&0x0F);
 7122              		.loc 1 1395 0 discriminator 3
 7123 2a04 F218     		adds	r2, r6, r3
 7124 2a06 0432     		adds	r2, r2, #4
 7125 2a08 5048     		ldr	r0, .L622+32
 7126 2a0a 805C     		ldrb	r0, [r0, r2]	@ zero_extendqisi2
 7127 2a0c 504A     		ldr	r2, .L622+36
 7128 2a0e 1A44     		add	r2, r2, r3
 7129 2a10 00F00F00 		and	r0, r0, #15
ARM GAS  C:\Users\diego\AppData\Local\Temp\ccwBHTp3.s 			page 157


 7130 2a14 82F8BD00 		strb	r0, [r2, #189]
1394:.\protocolo.c **** 					for(x=0;x<=11;x++){
 7131              		.loc 1 1394 0 discriminator 3
 7132 2a18 0133     		adds	r3, r3, #1
 7133 2a1a 454A     		ldr	r2, .L622+4
 7134 2a1c 1360     		str	r3, [r2]
 7135              	.L486:
1394:.\protocolo.c **** 					for(x=0;x<=11;x++){
 7136              		.loc 1 1394 0 is_stmt 0 discriminator 1
 7137 2a1e 444B     		ldr	r3, .L622+4
 7138 2a20 1B68     		ldr	r3, [r3]
 7139 2a22 0B2B     		cmp	r3, #11
 7140 2a24 EED9     		bls	.L487
1396:.\protocolo.c **** 					}
1397:.\protocolo.c **** 					for(x=0;x<=11;x++){
 7141              		.loc 1 1397 0 is_stmt 1
 7142 2a26 0022     		movs	r2, #0
 7143 2a28 414B     		ldr	r3, .L622+4
 7144 2a2a 1A60     		str	r2, [r3]
 7145 2a2c 0CE0     		b	.L488
 7146              	.L489:
1398:.\protocolo.c **** 						rventa.tdinero[x]=(Surtidor_rxBuffer[y+17+x]&0x0F);
 7147              		.loc 1 1398 0 discriminator 3
 7148 2a2e F218     		adds	r2, r6, r3
 7149 2a30 1132     		adds	r2, r2, #17
 7150 2a32 4648     		ldr	r0, .L622+32
 7151 2a34 805C     		ldrb	r0, [r0, r2]	@ zero_extendqisi2
 7152 2a36 464A     		ldr	r2, .L622+36
 7153 2a38 1A44     		add	r2, r2, r3
 7154 2a3a 00F00F00 		and	r0, r0, #15
 7155 2a3e 82F8CA00 		strb	r0, [r2, #202]
1397:.\protocolo.c **** 						rventa.tdinero[x]=(Surtidor_rxBuffer[y+17+x]&0x0F);
 7156              		.loc 1 1397 0 discriminator 3
 7157 2a42 0133     		adds	r3, r3, #1
 7158 2a44 3A4A     		ldr	r2, .L622+4
 7159 2a46 1360     		str	r3, [r2]
 7160              	.L488:
1397:.\protocolo.c **** 						rventa.tdinero[x]=(Surtidor_rxBuffer[y+17+x]&0x0F);
 7161              		.loc 1 1397 0 is_stmt 0 discriminator 1
 7162 2a48 394B     		ldr	r3, .L622+4
 7163 2a4a 1B68     		ldr	r3, [r3]
 7164 2a4c 0B2B     		cmp	r3, #11
 7165 2a4e EED9     		bls	.L489
1399:.\protocolo.c **** 					}
1400:.\protocolo.c **** 					for(z=0;z<=11;z++){
 7166              		.loc 1 1400 0 is_stmt 1
 7167 2a50 0022     		movs	r2, #0
 7168 2a52 394B     		ldr	r3, .L622+12
 7169 2a54 1A60     		str	r2, [r3]
 7170 2a56 0AE0     		b	.L490
 7171              	.L491:
1401:.\protocolo.c **** 						corte[z+1]=rventa.tvolumen[z];
 7172              		.loc 1 1401 0 discriminator 3
 7173 2a58 5A1C     		adds	r2, r3, #1
 7174 2a5a 3D48     		ldr	r0, .L622+36
 7175 2a5c 0344     		add	r3, r3, r0
 7176 2a5e 93F8BD00 		ldrb	r0, [r3, #189]	@ zero_extendqisi2
ARM GAS  C:\Users\diego\AppData\Local\Temp\ccwBHTp3.s 			page 158


 7177 2a62 10AB     		add	r3, sp, #64
 7178 2a64 1344     		add	r3, r3, r2
 7179 2a66 03F81C0C 		strb	r0, [r3, #-28]
1400:.\protocolo.c **** 						corte[z+1]=rventa.tvolumen[z];
 7180              		.loc 1 1400 0 discriminator 3
 7181 2a6a 334B     		ldr	r3, .L622+12
 7182 2a6c 1A60     		str	r2, [r3]
 7183              	.L490:
1400:.\protocolo.c **** 						corte[z+1]=rventa.tvolumen[z];
 7184              		.loc 1 1400 0 is_stmt 0 discriminator 1
 7185 2a6e 324B     		ldr	r3, .L622+12
 7186 2a70 1B68     		ldr	r3, [r3]
 7187 2a72 0B2B     		cmp	r3, #11
 7188 2a74 F0D9     		bls	.L491
1402:.\protocolo.c **** 					}
1403:.\protocolo.c **** 					for(z=13;z<=24;z++){
 7189              		.loc 1 1403 0 is_stmt 1
 7190 2a76 0D22     		movs	r2, #13
 7191 2a78 2F4B     		ldr	r3, .L622+12
 7192 2a7a 1A60     		str	r2, [r3]
 7193 2a7c 0AE0     		b	.L492
 7194              	.L493:
1404:.\protocolo.c **** 						corte[z]=rventa.tdinero[z-13];
 7195              		.loc 1 1404 0 discriminator 3
 7196 2a7e 354A     		ldr	r2, .L622+40
 7197 2a80 1A44     		add	r2, r2, r3
 7198 2a82 92F8CA00 		ldrb	r0, [r2, #202]	@ zero_extendqisi2
 7199 2a86 10AA     		add	r2, sp, #64
 7200 2a88 1A44     		add	r2, r2, r3
 7201 2a8a 02F81C0C 		strb	r0, [r2, #-28]
1403:.\protocolo.c **** 						corte[z]=rventa.tdinero[z-13];
 7202              		.loc 1 1403 0 discriminator 3
 7203 2a8e 0133     		adds	r3, r3, #1
 7204 2a90 294A     		ldr	r2, .L622+12
 7205 2a92 1360     		str	r3, [r2]
 7206              	.L492:
1403:.\protocolo.c **** 						corte[z]=rventa.tdinero[z-13];
 7207              		.loc 1 1403 0 is_stmt 0 discriminator 1
 7208 2a94 284B     		ldr	r3, .L622+12
 7209 2a96 1B68     		ldr	r3, [r3]
 7210 2a98 182B     		cmp	r3, #24
 7211 2a9a F0D9     		bls	.L493
1405:.\protocolo.c **** 					}
1406:.\protocolo.c **** 					corte[0]=24;				
 7212              		.loc 1 1406 0 is_stmt 1
 7213 2a9c 1823     		movs	r3, #24
 7214 2a9e 8DF82430 		strb	r3, [sp, #36]
1407:.\protocolo.c **** 					if(((rventa.manguera==(producto1&0x0F))&&(dir==a.dir))||((rventa.manguera==(producto1b&0x0F))&
 7215              		.loc 1 1407 0
 7216 2aa2 2D4B     		ldr	r3, .L622+44
 7217 2aa4 1B78     		ldrb	r3, [r3]	@ zero_extendqisi2
 7218 2aa6 03F00F03 		and	r3, r3, #15
 7219 2aaa 8B42     		cmp	r3, r1
 7220 2aac 03D1     		bne	.L494
 7221              		.loc 1 1407 0 is_stmt 0 discriminator 1
 7222 2aae 214B     		ldr	r3, .L622+8
 7223 2ab0 1B78     		ldrb	r3, [r3]	@ zero_extendqisi2
ARM GAS  C:\Users\diego\AppData\Local\Temp\ccwBHTp3.s 			page 159


 7224 2ab2 AB42     		cmp	r3, r5
 7225 2ab4 0BD0     		beq	.L495
 7226              	.L494:
 7227              		.loc 1 1407 0 discriminator 3
 7228 2ab6 294B     		ldr	r3, .L622+48
 7229 2ab8 1B78     		ldrb	r3, [r3]	@ zero_extendqisi2
 7230 2aba 03F00F03 		and	r3, r3, #15
 7231 2abe 9942     		cmp	r1, r3
 7232 2ac0 40F0DF80 		bne	.L496
 7233              		.loc 1 1407 0 discriminator 4
 7234 2ac4 264B     		ldr	r3, .L622+52
 7235 2ac6 1B78     		ldrb	r3, [r3]	@ zero_extendqisi2
 7236 2ac8 AB42     		cmp	r3, r5
 7237 2aca 40F0DA80 		bne	.L496
 7238              	.L495:
1408:.\protocolo.c **** 						for(x=0;x<=5;x++){									
 7239              		.loc 1 1408 0 is_stmt 1
 7240 2ace 0022     		movs	r2, #0
 7241 2ad0 174B     		ldr	r3, .L622+4
 7242 2ad2 1A60     		str	r2, [r3]
 7243 2ad4 08E0     		b	.L497
 7244              	.L498:
1409:.\protocolo.c **** 							write_psoc1(val,msn_tc[x]);
 7245              		.loc 1 1409 0 discriminator 3
 7246 2ad6 2046     		mov	r0, r4
 7247 2ad8 144A     		ldr	r2, .L622
 7248 2ada D15C     		ldrb	r1, [r2, r3]	@ zero_extendqisi2
 7249 2adc FFF7FEFF 		bl	write_psoc1
 7250              	.LVL501:
1408:.\protocolo.c **** 						for(x=0;x<=5;x++){									
 7251              		.loc 1 1408 0 discriminator 3
 7252 2ae0 134A     		ldr	r2, .L622+4
 7253 2ae2 1368     		ldr	r3, [r2]
 7254 2ae4 0133     		adds	r3, r3, #1
 7255 2ae6 1360     		str	r3, [r2]
 7256              	.L497:
1408:.\protocolo.c **** 						for(x=0;x<=5;x++){									
 7257              		.loc 1 1408 0 is_stmt 0 discriminator 1
 7258 2ae8 114B     		ldr	r3, .L622+4
 7259 2aea 1B68     		ldr	r3, [r3]
 7260 2aec 052B     		cmp	r3, #5
 7261 2aee F2D9     		bls	.L498
1410:.\protocolo.c **** 						}
1411:.\protocolo.c **** 						write_psoc1(val,10);
 7262              		.loc 1 1411 0 is_stmt 1
 7263 2af0 2046     		mov	r0, r4
 7264 2af2 0A21     		movs	r1, #10
 7265 2af4 FFF7FEFF 		bl	write_psoc1
 7266              	.LVL502:
1412:.\protocolo.c ****                         for(x=0;x<=10;x++){									
 7267              		.loc 1 1412 0
 7268 2af8 0022     		movs	r2, #0
 7269 2afa 0D4B     		ldr	r3, .L622+4
 7270 2afc 1A60     		str	r2, [r3]
 7271 2afe 08E0     		b	.L499
 7272              	.L500:
1413:.\protocolo.c **** 						write_psoc1(val,producto1n[x]);
ARM GAS  C:\Users\diego\AppData\Local\Temp\ccwBHTp3.s 			page 160


 7273              		.loc 1 1413 0 discriminator 3
 7274 2b00 2046     		mov	r0, r4
 7275 2b02 184A     		ldr	r2, .L622+56
 7276 2b04 D15C     		ldrb	r1, [r2, r3]	@ zero_extendqisi2
 7277 2b06 FFF7FEFF 		bl	write_psoc1
 7278              	.LVL503:
1412:.\protocolo.c ****                         for(x=0;x<=10;x++){									
 7279              		.loc 1 1412 0 discriminator 3
 7280 2b0a 094A     		ldr	r2, .L622+4
 7281 2b0c 1368     		ldr	r3, [r2]
 7282 2b0e 0133     		adds	r3, r3, #1
 7283 2b10 1360     		str	r3, [r2]
 7284              	.L499:
1412:.\protocolo.c ****                         for(x=0;x<=10;x++){									
 7285              		.loc 1 1412 0 is_stmt 0 discriminator 1
 7286 2b12 074B     		ldr	r3, .L622+4
 7287 2b14 1B68     		ldr	r3, [r3]
 7288 2b16 0A2B     		cmp	r3, #10
 7289 2b18 F2D9     		bls	.L500
1414:.\protocolo.c **** 					    }
1415:.\protocolo.c ****                         write_psoc1(val,10);
 7290              		.loc 1 1415 0 is_stmt 1
 7291 2b1a 2046     		mov	r0, r4
 7292 2b1c 0A21     		movs	r1, #10
 7293 2b1e FFF7FEFF 		bl	write_psoc1
 7294              	.LVL504:
1416:.\protocolo.c **** 						for(x=0;x<=14;x++){									
 7295              		.loc 1 1416 0
 7296 2b22 0022     		movs	r2, #0
 7297 2b24 024B     		ldr	r3, .L622+4
 7298 2b26 1A60     		str	r2, [r3]
 7299 2b28 28E0     		b	.L501
 7300              	.L623:
 7301 2b2a 00BF     		.align	2
 7302              	.L622:
 7303 2b2c 00000000 		.word	.LANCHOR1
 7304 2b30 00000000 		.word	x
 7305 2b34 00000000 		.word	a
 7306 2b38 00000000 		.word	z
 7307 2b3c FFFFFFFF 		.word	rventa-1
 7308 2b40 00000000 		.word	buffer_i2c
 7309 2b44 00000000 		.word	resultado
 7310 2b48 00000000 		.word	y
 7311 2b4c 00000000 		.word	Surtidor_rxBuffer
 7312 2b50 00000000 		.word	rventa
 7313 2b54 F3FFFFFF 		.word	rventa-13
 7314 2b58 00000000 		.word	producto1
 7315 2b5c 00000000 		.word	producto1b
 7316 2b60 00000000 		.word	b
 7317 2b64 00000000 		.word	producto1n
 7318              	.L502:
1417:.\protocolo.c **** 							write_psoc1(val,msn_lecact[x]);				//LECTURA ACTUAL
 7319              		.loc 1 1417 0 discriminator 3
 7320 2b68 AB4A     		ldr	r2, .L624
 7321 2b6a 1344     		add	r3, r3, r2
 7322 2b6c 2046     		mov	r0, r4
 7323 2b6e 197A     		ldrb	r1, [r3, #8]	@ zero_extendqisi2
ARM GAS  C:\Users\diego\AppData\Local\Temp\ccwBHTp3.s 			page 161


 7324 2b70 FFF7FEFF 		bl	write_psoc1
 7325              	.LVL505:
1416:.\protocolo.c **** 						for(x=0;x<=14;x++){									
 7326              		.loc 1 1416 0 discriminator 3
 7327 2b74 A94A     		ldr	r2, .L624+4
 7328 2b76 1368     		ldr	r3, [r2]
 7329 2b78 0133     		adds	r3, r3, #1
 7330 2b7a 1360     		str	r3, [r2]
 7331              	.L501:
1416:.\protocolo.c **** 						for(x=0;x<=14;x++){									
 7332              		.loc 1 1416 0 is_stmt 0 discriminator 1
 7333 2b7c A74B     		ldr	r3, .L624+4
 7334 2b7e 1B68     		ldr	r3, [r3]
 7335 2b80 0E2B     		cmp	r3, #14
 7336 2b82 F1D9     		bls	.L502
1418:.\protocolo.c **** 						}
1419:.\protocolo.c **** 						write_psoc1(val,10);
 7337              		.loc 1 1419 0 is_stmt 1
 7338 2b84 2046     		mov	r0, r4
 7339 2b86 0A21     		movs	r1, #10
 7340 2b88 FFF7FEFF 		bl	write_psoc1
 7341              	.LVL506:
1420:.\protocolo.c **** 						print_totalesac(12,val);	
 7342              		.loc 1 1420 0
 7343 2b8c 0C20     		movs	r0, #12
 7344 2b8e 2146     		mov	r1, r4
 7345 2b90 FFF7FEFF 		bl	print_totalesac
 7346              	.LVL507:
1421:.\protocolo.c **** 						for(x=0;x<=16;x++){												
 7347              		.loc 1 1421 0
 7348 2b94 0022     		movs	r2, #0
 7349 2b96 A14B     		ldr	r3, .L624+4
 7350 2b98 1A60     		str	r2, [r3]
 7351 2b9a 09E0     		b	.L503
 7352              	.L504:
1422:.\protocolo.c **** 							write_psoc1(val,msn_lecaan[x]);				//LECTURA ANTERIOR
 7353              		.loc 1 1422 0 discriminator 3
 7354 2b9c 9E4A     		ldr	r2, .L624
 7355 2b9e 1344     		add	r3, r3, r2
 7356 2ba0 2046     		mov	r0, r4
 7357 2ba2 197E     		ldrb	r1, [r3, #24]	@ zero_extendqisi2
 7358 2ba4 FFF7FEFF 		bl	write_psoc1
 7359              	.LVL508:
1421:.\protocolo.c **** 						for(x=0;x<=16;x++){												
 7360              		.loc 1 1421 0 discriminator 3
 7361 2ba8 9C4A     		ldr	r2, .L624+4
 7362 2baa 1368     		ldr	r3, [r2]
 7363 2bac 0133     		adds	r3, r3, #1
 7364 2bae 1360     		str	r3, [r2]
 7365              	.L503:
1421:.\protocolo.c **** 						for(x=0;x<=16;x++){												
 7366              		.loc 1 1421 0 is_stmt 0 discriminator 1
 7367 2bb0 9A4B     		ldr	r3, .L624+4
 7368 2bb2 1B68     		ldr	r3, [r3]
 7369 2bb4 102B     		cmp	r3, #16
 7370 2bb6 F1D9     		bls	.L504
1423:.\protocolo.c **** 						}
ARM GAS  C:\Users\diego\AppData\Local\Temp\ccwBHTp3.s 			page 162


1424:.\protocolo.c **** 						write_psoc1(val,10);
 7371              		.loc 1 1424 0 is_stmt 1
 7372 2bb8 2046     		mov	r0, r4
 7373 2bba 0A21     		movs	r1, #10
 7374 2bbc FFF7FEFF 		bl	write_psoc1
 7375              	.LVL509:
1425:.\protocolo.c **** 						if(dir==a.dir){
 7376              		.loc 1 1425 0
 7377 2bc0 974B     		ldr	r3, .L624+8
 7378 2bc2 1B78     		ldrb	r3, [r3]	@ zero_extendqisi2
 7379 2bc4 AB42     		cmp	r3, r5
 7380 2bc6 04D1     		bne	.L505
1426:.\protocolo.c **** 							leer_eeprom(192,25);
 7381              		.loc 1 1426 0
 7382 2bc8 C020     		movs	r0, #192
 7383 2bca 1921     		movs	r1, #25
 7384 2bcc FFF7FEFF 		bl	leer_eeprom
 7385              	.LVL510:
 7386 2bd0 04E0     		b	.L506
 7387              	.L505:
1427:.\protocolo.c **** 						}
1428:.\protocolo.c **** 						else{
1429:.\protocolo.c **** 							leer_eeprom(281,25);
 7388              		.loc 1 1429 0
 7389 2bd2 40F21910 		movw	r0, #281
 7390 2bd6 1921     		movs	r1, #25
 7391 2bd8 FFF7FEFF 		bl	leer_eeprom
 7392              	.LVL511:
 7393              	.L506:
1430:.\protocolo.c **** 						}
1431:.\protocolo.c **** 						print_totales(val);
 7394              		.loc 1 1431 0
 7395 2bdc 2046     		mov	r0, r4
 7396 2bde FFF7FEFF 		bl	print_totales
 7397              	.LVL512:
1432:.\protocolo.c **** 						for(z=1;z<=12;z++){
 7398              		.loc 1 1432 0
 7399 2be2 0122     		movs	r2, #1
 7400 2be4 8F4B     		ldr	r3, .L624+12
 7401 2be6 1A60     		str	r2, [r3]
 7402 2be8 10E0     		b	.L507
 7403              	.L508:
1433:.\protocolo.c **** 							minuendo[z]=rventa.tdinero[z-1];
 7404              		.loc 1 1433 0 discriminator 3
 7405 2bea 8F4A     		ldr	r2, .L624+16
 7406 2bec 1A44     		add	r2, r2, r3
 7407 2bee 92F8CA10 		ldrb	r1, [r2, #202]	@ zero_extendqisi2
 7408 2bf2 10AA     		add	r2, sp, #64
 7409 2bf4 1A44     		add	r2, r2, r3
 7410 2bf6 02F82C1C 		strb	r1, [r2, #-44]
1434:.\protocolo.c **** 							sustraendo[z]=buffer_i2c[z+12];
 7411              		.loc 1 1434 0 discriminator 3
 7412 2bfa 03F10C01 		add	r1, r3, #12
 7413 2bfe 8B48     		ldr	r0, .L624+20
 7414 2c00 415C     		ldrb	r1, [r0, r1]	@ zero_extendqisi2
 7415 2c02 02F83C1C 		strb	r1, [r2, #-60]
1432:.\protocolo.c **** 						for(z=1;z<=12;z++){
ARM GAS  C:\Users\diego\AppData\Local\Temp\ccwBHTp3.s 			page 163


 7416              		.loc 1 1432 0 discriminator 3
 7417 2c06 0133     		adds	r3, r3, #1
 7418 2c08 864A     		ldr	r2, .L624+12
 7419 2c0a 1360     		str	r3, [r2]
 7420              	.L507:
1432:.\protocolo.c **** 						for(z=1;z<=12;z++){
 7421              		.loc 1 1432 0 is_stmt 0 discriminator 1
 7422 2c0c 854B     		ldr	r3, .L624+12
 7423 2c0e 1B68     		ldr	r3, [r3]
 7424 2c10 0C2B     		cmp	r3, #12
 7425 2c12 EAD9     		bls	.L508
1435:.\protocolo.c **** 						}
1436:.\protocolo.c **** 						minuendo[0]=12;
 7426              		.loc 1 1436 0 is_stmt 1
 7427 2c14 10A9     		add	r1, sp, #64
 7428 2c16 0C23     		movs	r3, #12
 7429 2c18 01F82C3D 		strb	r3, [r1, #-44]!
1437:.\protocolo.c **** 						operacion(2,minuendo,sustraendo);
 7430              		.loc 1 1437 0
 7431 2c1c 0220     		movs	r0, #2
 7432 2c1e 01AA     		add	r2, sp, #4
 7433 2c20 FFF7FEFF 		bl	operacion
 7434              	.LVL513:
1438:.\protocolo.c **** 						for(x=0;x<=17;x++){									
 7435              		.loc 1 1438 0
 7436 2c24 0022     		movs	r2, #0
 7437 2c26 7D4B     		ldr	r3, .L624+4
 7438 2c28 1A60     		str	r2, [r3]
 7439 2c2a 0AE0     		b	.L509
 7440              	.L510:
1439:.\protocolo.c **** 							write_psoc1(val,msn_tventas[x]);				//Total de ventas
 7441              		.loc 1 1439 0 discriminator 3
 7442 2c2c 7A4A     		ldr	r2, .L624
 7443 2c2e 1344     		add	r3, r3, r2
 7444 2c30 2046     		mov	r0, r4
 7445 2c32 93F82C10 		ldrb	r1, [r3, #44]	@ zero_extendqisi2
 7446 2c36 FFF7FEFF 		bl	write_psoc1
 7447              	.LVL514:
1438:.\protocolo.c **** 						for(x=0;x<=17;x++){									
 7448              		.loc 1 1438 0 discriminator 3
 7449 2c3a 784A     		ldr	r2, .L624+4
 7450 2c3c 1368     		ldr	r3, [r2]
 7451 2c3e 0133     		adds	r3, r3, #1
 7452 2c40 1360     		str	r3, [r2]
 7453              	.L509:
1438:.\protocolo.c **** 						for(x=0;x<=17;x++){									
 7454              		.loc 1 1438 0 is_stmt 0 discriminator 1
 7455 2c42 764B     		ldr	r3, .L624+4
 7456 2c44 1B68     		ldr	r3, [r3]
 7457 2c46 112B     		cmp	r3, #17
 7458 2c48 F0D9     		bls	.L510
1440:.\protocolo.c **** 						}
1441:.\protocolo.c **** 						print_valor(resultado,val);
 7459              		.loc 1 1441 0 is_stmt 1
 7460 2c4a 7948     		ldr	r0, .L624+24
 7461 2c4c 2146     		mov	r1, r4
 7462 2c4e FFF7FEFF 		bl	print_valor
ARM GAS  C:\Users\diego\AppData\Local\Temp\ccwBHTp3.s 			page 164


 7463              	.LVL515:
1442:.\protocolo.c **** 						if(dir==a.dir){
 7464              		.loc 1 1442 0
 7465 2c52 734B     		ldr	r3, .L624+8
 7466 2c54 1B78     		ldrb	r3, [r3]	@ zero_extendqisi2
 7467 2c56 AB42     		cmp	r3, r5
 7468 2c58 09D1     		bne	.L511
1443:.\protocolo.c **** 							write_eeprom(192,corte);	
 7469              		.loc 1 1443 0
 7470 2c5a C020     		movs	r0, #192
 7471 2c5c 09A9     		add	r1, sp, #36
 7472 2c5e FFF7FEFF 		bl	write_eeprom
 7473              	.LVL516:
1444:.\protocolo.c **** 							write_eeprom(512,resultado);
 7474              		.loc 1 1444 0
 7475 2c62 4FF40070 		mov	r0, #512
 7476 2c66 7249     		ldr	r1, .L624+24
 7477 2c68 FFF7FEFF 		bl	write_eeprom
 7478              	.LVL517:
 7479 2c6c 09E0     		b	.L496
 7480              	.L511:
1445:.\protocolo.c **** 						}
1446:.\protocolo.c **** 						else{
1447:.\protocolo.c **** 							write_eeprom(281,corte);
 7481              		.loc 1 1447 0
 7482 2c6e 40F21910 		movw	r0, #281
 7483 2c72 09A9     		add	r1, sp, #36
 7484 2c74 FFF7FEFF 		bl	write_eeprom
 7485              	.LVL518:
1448:.\protocolo.c **** 							write_eeprom(551,resultado);
 7486              		.loc 1 1448 0
 7487 2c78 40F22720 		movw	r0, #551
 7488 2c7c 6C49     		ldr	r1, .L624+24
 7489 2c7e FFF7FEFF 		bl	write_eeprom
 7490              	.LVL519:
 7491              	.L496:
1449:.\protocolo.c **** 						}
1450:.\protocolo.c **** 					}
1451:.\protocolo.c **** 					if(((rventa.manguera==(producto2&0x0F))&&(dir==a.dir))||((rventa.manguera==(producto2b&0x0F))&
 7492              		.loc 1 1451 0
 7493 2c82 6C4B     		ldr	r3, .L624+28
 7494 2c84 93F8E020 		ldrb	r2, [r3, #224]	@ zero_extendqisi2
 7495 2c88 6B4B     		ldr	r3, .L624+32
 7496 2c8a 1B78     		ldrb	r3, [r3]	@ zero_extendqisi2
 7497 2c8c 03F00F03 		and	r3, r3, #15
 7498 2c90 9342     		cmp	r3, r2
 7499 2c92 03D1     		bne	.L512
 7500              		.loc 1 1451 0 is_stmt 0 discriminator 1
 7501 2c94 624B     		ldr	r3, .L624+8
 7502 2c96 1B78     		ldrb	r3, [r3]	@ zero_extendqisi2
 7503 2c98 AB42     		cmp	r3, r5
 7504 2c9a 0BD0     		beq	.L513
 7505              	.L512:
 7506              		.loc 1 1451 0 discriminator 3
 7507 2c9c 674B     		ldr	r3, .L624+36
 7508 2c9e 1B78     		ldrb	r3, [r3]	@ zero_extendqisi2
 7509 2ca0 03F00F03 		and	r3, r3, #15
ARM GAS  C:\Users\diego\AppData\Local\Temp\ccwBHTp3.s 			page 165


 7510 2ca4 9A42     		cmp	r2, r3
 7511 2ca6 40F0D980 		bne	.L514
 7512              		.loc 1 1451 0 discriminator 4
 7513 2caa 654B     		ldr	r3, .L624+40
 7514 2cac 1B78     		ldrb	r3, [r3]	@ zero_extendqisi2
 7515 2cae AB42     		cmp	r3, r5
 7516 2cb0 40F0D480 		bne	.L514
 7517              	.L513:
1452:.\protocolo.c **** 						for(x=0;x<=5;x++){									
 7518              		.loc 1 1452 0 is_stmt 1
 7519 2cb4 0022     		movs	r2, #0
 7520 2cb6 594B     		ldr	r3, .L624+4
 7521 2cb8 1A60     		str	r2, [r3]
 7522 2cba 08E0     		b	.L515
 7523              	.L516:
1453:.\protocolo.c **** 						    write_psoc1(val,msn_tc[x]);
 7524              		.loc 1 1453 0 discriminator 3
 7525 2cbc 2046     		mov	r0, r4
 7526 2cbe 564A     		ldr	r2, .L624
 7527 2cc0 D15C     		ldrb	r1, [r2, r3]	@ zero_extendqisi2
 7528 2cc2 FFF7FEFF 		bl	write_psoc1
 7529              	.LVL520:
1452:.\protocolo.c **** 						for(x=0;x<=5;x++){									
 7530              		.loc 1 1452 0 discriminator 3
 7531 2cc6 554A     		ldr	r2, .L624+4
 7532 2cc8 1368     		ldr	r3, [r2]
 7533 2cca 0133     		adds	r3, r3, #1
 7534 2ccc 1360     		str	r3, [r2]
 7535              	.L515:
1452:.\protocolo.c **** 						for(x=0;x<=5;x++){									
 7536              		.loc 1 1452 0 is_stmt 0 discriminator 1
 7537 2cce 534B     		ldr	r3, .L624+4
 7538 2cd0 1B68     		ldr	r3, [r3]
 7539 2cd2 052B     		cmp	r3, #5
 7540 2cd4 F2D9     		bls	.L516
1454:.\protocolo.c **** 					    }
1455:.\protocolo.c **** 					    write_psoc1(val,10);
 7541              		.loc 1 1455 0 is_stmt 1
 7542 2cd6 2046     		mov	r0, r4
 7543 2cd8 0A21     		movs	r1, #10
 7544 2cda FFF7FEFF 		bl	write_psoc1
 7545              	.LVL521:
1456:.\protocolo.c ****                         for(x=0;x<=10;x++){									
 7546              		.loc 1 1456 0
 7547 2cde 0022     		movs	r2, #0
 7548 2ce0 4E4B     		ldr	r3, .L624+4
 7549 2ce2 1A60     		str	r2, [r3]
 7550 2ce4 08E0     		b	.L517
 7551              	.L518:
1457:.\protocolo.c **** 						    write_psoc1(val,producto2n[x]);
 7552              		.loc 1 1457 0 discriminator 3
 7553 2ce6 2046     		mov	r0, r4
 7554 2ce8 564A     		ldr	r2, .L624+44
 7555 2cea D15C     		ldrb	r1, [r2, r3]	@ zero_extendqisi2
 7556 2cec FFF7FEFF 		bl	write_psoc1
 7557              	.LVL522:
1456:.\protocolo.c ****                         for(x=0;x<=10;x++){									
ARM GAS  C:\Users\diego\AppData\Local\Temp\ccwBHTp3.s 			page 166


 7558              		.loc 1 1456 0 discriminator 3
 7559 2cf0 4A4A     		ldr	r2, .L624+4
 7560 2cf2 1368     		ldr	r3, [r2]
 7561 2cf4 0133     		adds	r3, r3, #1
 7562 2cf6 1360     		str	r3, [r2]
 7563              	.L517:
1456:.\protocolo.c ****                         for(x=0;x<=10;x++){									
 7564              		.loc 1 1456 0 is_stmt 0 discriminator 1
 7565 2cf8 484B     		ldr	r3, .L624+4
 7566 2cfa 1B68     		ldr	r3, [r3]
 7567 2cfc 0A2B     		cmp	r3, #10
 7568 2cfe F2D9     		bls	.L518
1458:.\protocolo.c **** 					    }
1459:.\protocolo.c ****                         write_psoc1(val,10);
 7569              		.loc 1 1459 0 is_stmt 1
 7570 2d00 2046     		mov	r0, r4
 7571 2d02 0A21     		movs	r1, #10
 7572 2d04 FFF7FEFF 		bl	write_psoc1
 7573              	.LVL523:
1460:.\protocolo.c **** 						for(x=0;x<=14;x++){									
 7574              		.loc 1 1460 0
 7575 2d08 0022     		movs	r2, #0
 7576 2d0a 444B     		ldr	r3, .L624+4
 7577 2d0c 1A60     		str	r2, [r3]
 7578 2d0e 09E0     		b	.L519
 7579              	.L520:
1461:.\protocolo.c **** 							write_psoc1(val,msn_lecact[x]);				//LECTURA ACTUAL
 7580              		.loc 1 1461 0 discriminator 3
 7581 2d10 414A     		ldr	r2, .L624
 7582 2d12 1344     		add	r3, r3, r2
 7583 2d14 2046     		mov	r0, r4
 7584 2d16 197A     		ldrb	r1, [r3, #8]	@ zero_extendqisi2
 7585 2d18 FFF7FEFF 		bl	write_psoc1
 7586              	.LVL524:
1460:.\protocolo.c **** 						for(x=0;x<=14;x++){									
 7587              		.loc 1 1460 0 discriminator 3
 7588 2d1c 3F4A     		ldr	r2, .L624+4
 7589 2d1e 1368     		ldr	r3, [r2]
 7590 2d20 0133     		adds	r3, r3, #1
 7591 2d22 1360     		str	r3, [r2]
 7592              	.L519:
1460:.\protocolo.c **** 						for(x=0;x<=14;x++){									
 7593              		.loc 1 1460 0 is_stmt 0 discriminator 1
 7594 2d24 3D4B     		ldr	r3, .L624+4
 7595 2d26 1B68     		ldr	r3, [r3]
 7596 2d28 0E2B     		cmp	r3, #14
 7597 2d2a F1D9     		bls	.L520
1462:.\protocolo.c **** 						}
1463:.\protocolo.c **** 						write_psoc1(val,10);
 7598              		.loc 1 1463 0 is_stmt 1
 7599 2d2c 2046     		mov	r0, r4
 7600 2d2e 0A21     		movs	r1, #10
 7601 2d30 FFF7FEFF 		bl	write_psoc1
 7602              	.LVL525:
1464:.\protocolo.c **** 						print_totalesac(12,val);	
 7603              		.loc 1 1464 0
 7604 2d34 0C20     		movs	r0, #12
ARM GAS  C:\Users\diego\AppData\Local\Temp\ccwBHTp3.s 			page 167


 7605 2d36 2146     		mov	r1, r4
 7606 2d38 FFF7FEFF 		bl	print_totalesac
 7607              	.LVL526:
1465:.\protocolo.c **** 						for(x=0;x<=16;x++){												
 7608              		.loc 1 1465 0
 7609 2d3c 0022     		movs	r2, #0
 7610 2d3e 374B     		ldr	r3, .L624+4
 7611 2d40 1A60     		str	r2, [r3]
 7612 2d42 09E0     		b	.L521
 7613              	.L522:
1466:.\protocolo.c **** 							write_psoc1(val,msn_lecaan[x]);				//LECTURA ANTERIOR
 7614              		.loc 1 1466 0 discriminator 3
 7615 2d44 344A     		ldr	r2, .L624
 7616 2d46 1344     		add	r3, r3, r2
 7617 2d48 2046     		mov	r0, r4
 7618 2d4a 197E     		ldrb	r1, [r3, #24]	@ zero_extendqisi2
 7619 2d4c FFF7FEFF 		bl	write_psoc1
 7620              	.LVL527:
1465:.\protocolo.c **** 						for(x=0;x<=16;x++){												
 7621              		.loc 1 1465 0 discriminator 3
 7622 2d50 324A     		ldr	r2, .L624+4
 7623 2d52 1368     		ldr	r3, [r2]
 7624 2d54 0133     		adds	r3, r3, #1
 7625 2d56 1360     		str	r3, [r2]
 7626              	.L521:
1465:.\protocolo.c **** 						for(x=0;x<=16;x++){												
 7627              		.loc 1 1465 0 is_stmt 0 discriminator 1
 7628 2d58 304B     		ldr	r3, .L624+4
 7629 2d5a 1B68     		ldr	r3, [r3]
 7630 2d5c 102B     		cmp	r3, #16
 7631 2d5e F1D9     		bls	.L522
1467:.\protocolo.c **** 						}
1468:.\protocolo.c **** 						write_psoc1(val,10);
 7632              		.loc 1 1468 0 is_stmt 1
 7633 2d60 2046     		mov	r0, r4
 7634 2d62 0A21     		movs	r1, #10
 7635 2d64 FFF7FEFF 		bl	write_psoc1
 7636              	.LVL528:
1469:.\protocolo.c **** 						if(dir==a.dir){
 7637              		.loc 1 1469 0
 7638 2d68 2D4B     		ldr	r3, .L624+8
 7639 2d6a 1B78     		ldrb	r3, [r3]	@ zero_extendqisi2
 7640 2d6c AB42     		cmp	r3, r5
 7641 2d6e 04D1     		bne	.L523
1470:.\protocolo.c **** 							leer_eeprom(217,25);
 7642              		.loc 1 1470 0
 7643 2d70 D920     		movs	r0, #217
 7644 2d72 1921     		movs	r1, #25
 7645 2d74 FFF7FEFF 		bl	leer_eeprom
 7646              	.LVL529:
 7647 2d78 04E0     		b	.L524
 7648              	.L523:
1471:.\protocolo.c **** 						}
1472:.\protocolo.c **** 						else{
1473:.\protocolo.c **** 							leer_eeprom(320,25);
 7649              		.loc 1 1473 0
 7650 2d7a 4FF4A070 		mov	r0, #320
ARM GAS  C:\Users\diego\AppData\Local\Temp\ccwBHTp3.s 			page 168


 7651 2d7e 1921     		movs	r1, #25
 7652 2d80 FFF7FEFF 		bl	leer_eeprom
 7653              	.LVL530:
 7654              	.L524:
1474:.\protocolo.c **** 						}
1475:.\protocolo.c **** 						print_totales(val);
 7655              		.loc 1 1475 0
 7656 2d84 2046     		mov	r0, r4
 7657 2d86 FFF7FEFF 		bl	print_totales
 7658              	.LVL531:
1476:.\protocolo.c **** 						for(z=1;z<=12;z++){
 7659              		.loc 1 1476 0
 7660 2d8a 0122     		movs	r2, #1
 7661 2d8c 254B     		ldr	r3, .L624+12
 7662 2d8e 1A60     		str	r2, [r3]
 7663 2d90 10E0     		b	.L525
 7664              	.L526:
1477:.\protocolo.c **** 							minuendo[z]=rventa.tdinero[z-1];
 7665              		.loc 1 1477 0 discriminator 3
 7666 2d92 254A     		ldr	r2, .L624+16
 7667 2d94 1A44     		add	r2, r2, r3
 7668 2d96 92F8CA10 		ldrb	r1, [r2, #202]	@ zero_extendqisi2
 7669 2d9a 10AA     		add	r2, sp, #64
 7670 2d9c 1A44     		add	r2, r2, r3
 7671 2d9e 02F82C1C 		strb	r1, [r2, #-44]
1478:.\protocolo.c **** 							sustraendo[z]=buffer_i2c[z+12];
 7672              		.loc 1 1478 0 discriminator 3
 7673 2da2 03F10C01 		add	r1, r3, #12
 7674 2da6 2148     		ldr	r0, .L624+20
 7675 2da8 415C     		ldrb	r1, [r0, r1]	@ zero_extendqisi2
 7676 2daa 02F83C1C 		strb	r1, [r2, #-60]
1476:.\protocolo.c **** 						for(z=1;z<=12;z++){
 7677              		.loc 1 1476 0 discriminator 3
 7678 2dae 0133     		adds	r3, r3, #1
 7679 2db0 1C4A     		ldr	r2, .L624+12
 7680 2db2 1360     		str	r3, [r2]
 7681              	.L525:
1476:.\protocolo.c **** 						for(z=1;z<=12;z++){
 7682              		.loc 1 1476 0 is_stmt 0 discriminator 1
 7683 2db4 1B4B     		ldr	r3, .L624+12
 7684 2db6 1B68     		ldr	r3, [r3]
 7685 2db8 0C2B     		cmp	r3, #12
 7686 2dba EAD9     		bls	.L526
1479:.\protocolo.c **** 						}
1480:.\protocolo.c **** 						minuendo[0]=12;
 7687              		.loc 1 1480 0 is_stmt 1
 7688 2dbc 10A9     		add	r1, sp, #64
 7689 2dbe 0C23     		movs	r3, #12
 7690 2dc0 01F82C3D 		strb	r3, [r1, #-44]!
1481:.\protocolo.c **** 						operacion(2,minuendo,sustraendo);
 7691              		.loc 1 1481 0
 7692 2dc4 0220     		movs	r0, #2
 7693 2dc6 01AA     		add	r2, sp, #4
 7694 2dc8 FFF7FEFF 		bl	operacion
 7695              	.LVL532:
1482:.\protocolo.c **** 						for(x=0;x<=17;x++){									
 7696              		.loc 1 1482 0
ARM GAS  C:\Users\diego\AppData\Local\Temp\ccwBHTp3.s 			page 169


 7697 2dcc 0022     		movs	r2, #0
 7698 2dce 134B     		ldr	r3, .L624+4
 7699 2dd0 1A60     		str	r2, [r3]
 7700 2dd2 0AE0     		b	.L527
 7701              	.L528:
1483:.\protocolo.c **** 							write_psoc1(val,msn_tventas[x]);				//Total de ventas
 7702              		.loc 1 1483 0 discriminator 3
 7703 2dd4 104A     		ldr	r2, .L624
 7704 2dd6 1344     		add	r3, r3, r2
 7705 2dd8 2046     		mov	r0, r4
 7706 2dda 93F82C10 		ldrb	r1, [r3, #44]	@ zero_extendqisi2
 7707 2dde FFF7FEFF 		bl	write_psoc1
 7708              	.LVL533:
1482:.\protocolo.c **** 						for(x=0;x<=17;x++){									
 7709              		.loc 1 1482 0 discriminator 3
 7710 2de2 0E4A     		ldr	r2, .L624+4
 7711 2de4 1368     		ldr	r3, [r2]
 7712 2de6 0133     		adds	r3, r3, #1
 7713 2de8 1360     		str	r3, [r2]
 7714              	.L527:
1482:.\protocolo.c **** 						for(x=0;x<=17;x++){									
 7715              		.loc 1 1482 0 is_stmt 0 discriminator 1
 7716 2dea 0C4B     		ldr	r3, .L624+4
 7717 2dec 1B68     		ldr	r3, [r3]
 7718 2dee 112B     		cmp	r3, #17
 7719 2df0 F0D9     		bls	.L528
1484:.\protocolo.c **** 						}
1485:.\protocolo.c **** 						print_valor(resultado,val);				
 7720              		.loc 1 1485 0 is_stmt 1
 7721 2df2 0F48     		ldr	r0, .L624+24
 7722 2df4 2146     		mov	r1, r4
 7723 2df6 FFF7FEFF 		bl	print_valor
 7724              	.LVL534:
1486:.\protocolo.c **** 						if(dir==a.dir){
 7725              		.loc 1 1486 0
 7726 2dfa 094B     		ldr	r3, .L624+8
 7727 2dfc 1B78     		ldrb	r3, [r3]	@ zero_extendqisi2
 7728 2dfe AB42     		cmp	r3, r5
 7729 2e00 22D1     		bne	.L529
1487:.\protocolo.c **** 							write_eeprom(217,corte);
 7730              		.loc 1 1487 0
 7731 2e02 D920     		movs	r0, #217
 7732 2e04 09A9     		add	r1, sp, #36
 7733 2e06 FFF7FEFF 		bl	write_eeprom
 7734              	.LVL535:
1488:.\protocolo.c **** 							write_eeprom(538,resultado);
 7735              		.loc 1 1488 0
 7736 2e0a 40F21A20 		movw	r0, #538
 7737 2e0e 0849     		ldr	r1, .L624+24
 7738 2e10 FFF7FEFF 		bl	write_eeprom
 7739              	.LVL536:
 7740 2e14 22E0     		b	.L514
 7741              	.L625:
 7742 2e16 00BF     		.align	2
 7743              	.L624:
 7744 2e18 00000000 		.word	.LANCHOR1
 7745 2e1c 00000000 		.word	x
ARM GAS  C:\Users\diego\AppData\Local\Temp\ccwBHTp3.s 			page 170


 7746 2e20 00000000 		.word	a
 7747 2e24 00000000 		.word	z
 7748 2e28 FFFFFFFF 		.word	rventa-1
 7749 2e2c 00000000 		.word	buffer_i2c
 7750 2e30 00000000 		.word	resultado
 7751 2e34 00000000 		.word	rventa
 7752 2e38 00000000 		.word	producto2
 7753 2e3c 00000000 		.word	producto2b
 7754 2e40 00000000 		.word	b
 7755 2e44 00000000 		.word	producto2n
 7756              	.L529:
1489:.\protocolo.c **** 						}
1490:.\protocolo.c **** 						else{
1491:.\protocolo.c **** 							write_eeprom(320,corte);
 7757              		.loc 1 1491 0
 7758 2e48 4FF4A070 		mov	r0, #320
 7759 2e4c 09A9     		add	r1, sp, #36
 7760 2e4e FFF7FEFF 		bl	write_eeprom
 7761              	.LVL537:
1492:.\protocolo.c **** 							write_eeprom(576,resultado);
 7762              		.loc 1 1492 0
 7763 2e52 4FF41070 		mov	r0, #576
 7764 2e56 AB49     		ldr	r1, .L626
 7765 2e58 FFF7FEFF 		bl	write_eeprom
 7766              	.LVL538:
 7767              	.L514:
1493:.\protocolo.c **** 						}				
1494:.\protocolo.c **** 					}
1495:.\protocolo.c **** 					if(((rventa.manguera==(producto3&0x0F))&&(dir==a.dir))||((rventa.manguera==(producto3b&0x0F))&
 7768              		.loc 1 1495 0
 7769 2e5c AA4B     		ldr	r3, .L626+4
 7770 2e5e 93F8E020 		ldrb	r2, [r3, #224]	@ zero_extendqisi2
 7771 2e62 AA4B     		ldr	r3, .L626+8
 7772 2e64 1B78     		ldrb	r3, [r3]	@ zero_extendqisi2
 7773 2e66 03F00F03 		and	r3, r3, #15
 7774 2e6a 9342     		cmp	r3, r2
 7775 2e6c 03D1     		bne	.L530
 7776              		.loc 1 1495 0 is_stmt 0 discriminator 1
 7777 2e6e A84B     		ldr	r3, .L626+12
 7778 2e70 1B78     		ldrb	r3, [r3]	@ zero_extendqisi2
 7779 2e72 AB42     		cmp	r3, r5
 7780 2e74 0BD0     		beq	.L531
 7781              	.L530:
 7782              		.loc 1 1495 0 discriminator 3
 7783 2e76 A74B     		ldr	r3, .L626+16
 7784 2e78 1B78     		ldrb	r3, [r3]	@ zero_extendqisi2
 7785 2e7a 03F00F03 		and	r3, r3, #15
 7786 2e7e 9A42     		cmp	r2, r3
 7787 2e80 40F0C280 		bne	.L532
 7788              		.loc 1 1495 0 discriminator 4
 7789 2e84 A44B     		ldr	r3, .L626+20
 7790 2e86 1B78     		ldrb	r3, [r3]	@ zero_extendqisi2
 7791 2e88 AB42     		cmp	r3, r5
 7792 2e8a 40F0BD80 		bne	.L532
 7793              	.L531:
1496:.\protocolo.c **** 						for(x=0;x<=5;x++){									
 7794              		.loc 1 1496 0 is_stmt 1
ARM GAS  C:\Users\diego\AppData\Local\Temp\ccwBHTp3.s 			page 171


 7795 2e8e 0022     		movs	r2, #0
 7796 2e90 A24B     		ldr	r3, .L626+24
 7797 2e92 1A60     		str	r2, [r3]
 7798 2e94 08E0     		b	.L533
 7799              	.L534:
1497:.\protocolo.c **** 						    write_psoc1(val,msn_tc[x]);
 7800              		.loc 1 1497 0 discriminator 3
 7801 2e96 2046     		mov	r0, r4
 7802 2e98 A14A     		ldr	r2, .L626+28
 7803 2e9a D15C     		ldrb	r1, [r2, r3]	@ zero_extendqisi2
 7804 2e9c FFF7FEFF 		bl	write_psoc1
 7805              	.LVL539:
1496:.\protocolo.c **** 						for(x=0;x<=5;x++){									
 7806              		.loc 1 1496 0 discriminator 3
 7807 2ea0 9E4A     		ldr	r2, .L626+24
 7808 2ea2 1368     		ldr	r3, [r2]
 7809 2ea4 0133     		adds	r3, r3, #1
 7810 2ea6 1360     		str	r3, [r2]
 7811              	.L533:
1496:.\protocolo.c **** 						for(x=0;x<=5;x++){									
 7812              		.loc 1 1496 0 is_stmt 0 discriminator 1
 7813 2ea8 9C4B     		ldr	r3, .L626+24
 7814 2eaa 1B68     		ldr	r3, [r3]
 7815 2eac 052B     		cmp	r3, #5
 7816 2eae F2D9     		bls	.L534
1498:.\protocolo.c **** 					    }
1499:.\protocolo.c **** 					    write_psoc1(val,10);
 7817              		.loc 1 1499 0 is_stmt 1
 7818 2eb0 2046     		mov	r0, r4
 7819 2eb2 0A21     		movs	r1, #10
 7820 2eb4 FFF7FEFF 		bl	write_psoc1
 7821              	.LVL540:
1500:.\protocolo.c ****                         for(x=0;x<=10;x++){									
 7822              		.loc 1 1500 0
 7823 2eb8 0022     		movs	r2, #0
 7824 2eba 984B     		ldr	r3, .L626+24
 7825 2ebc 1A60     		str	r2, [r3]
 7826 2ebe 08E0     		b	.L535
 7827              	.L536:
1501:.\protocolo.c **** 						    write_psoc1(val,producto3n[x]);
 7828              		.loc 1 1501 0 discriminator 3
 7829 2ec0 2046     		mov	r0, r4
 7830 2ec2 984A     		ldr	r2, .L626+32
 7831 2ec4 D15C     		ldrb	r1, [r2, r3]	@ zero_extendqisi2
 7832 2ec6 FFF7FEFF 		bl	write_psoc1
 7833              	.LVL541:
1500:.\protocolo.c ****                         for(x=0;x<=10;x++){									
 7834              		.loc 1 1500 0 discriminator 3
 7835 2eca 944A     		ldr	r2, .L626+24
 7836 2ecc 1368     		ldr	r3, [r2]
 7837 2ece 0133     		adds	r3, r3, #1
 7838 2ed0 1360     		str	r3, [r2]
 7839              	.L535:
1500:.\protocolo.c ****                         for(x=0;x<=10;x++){									
 7840              		.loc 1 1500 0 is_stmt 0 discriminator 1
 7841 2ed2 924B     		ldr	r3, .L626+24
 7842 2ed4 1B68     		ldr	r3, [r3]
ARM GAS  C:\Users\diego\AppData\Local\Temp\ccwBHTp3.s 			page 172


 7843 2ed6 0A2B     		cmp	r3, #10
 7844 2ed8 F2D9     		bls	.L536
1502:.\protocolo.c **** 					    }
1503:.\protocolo.c ****                         write_psoc1(val,10);
 7845              		.loc 1 1503 0 is_stmt 1
 7846 2eda 2046     		mov	r0, r4
 7847 2edc 0A21     		movs	r1, #10
 7848 2ede FFF7FEFF 		bl	write_psoc1
 7849              	.LVL542:
1504:.\protocolo.c **** 						for(x=0;x<=14;x++){									
 7850              		.loc 1 1504 0
 7851 2ee2 0022     		movs	r2, #0
 7852 2ee4 8D4B     		ldr	r3, .L626+24
 7853 2ee6 1A60     		str	r2, [r3]
 7854 2ee8 09E0     		b	.L537
 7855              	.L538:
1505:.\protocolo.c **** 							write_psoc1(val,msn_lecact[x]);				//LECTURA ACTUAL
 7856              		.loc 1 1505 0 discriminator 3
 7857 2eea 8D4A     		ldr	r2, .L626+28
 7858 2eec 1344     		add	r3, r3, r2
 7859 2eee 2046     		mov	r0, r4
 7860 2ef0 197A     		ldrb	r1, [r3, #8]	@ zero_extendqisi2
 7861 2ef2 FFF7FEFF 		bl	write_psoc1
 7862              	.LVL543:
1504:.\protocolo.c **** 						for(x=0;x<=14;x++){									
 7863              		.loc 1 1504 0 discriminator 3
 7864 2ef6 894A     		ldr	r2, .L626+24
 7865 2ef8 1368     		ldr	r3, [r2]
 7866 2efa 0133     		adds	r3, r3, #1
 7867 2efc 1360     		str	r3, [r2]
 7868              	.L537:
1504:.\protocolo.c **** 						for(x=0;x<=14;x++){									
 7869              		.loc 1 1504 0 is_stmt 0 discriminator 1
 7870 2efe 874B     		ldr	r3, .L626+24
 7871 2f00 1B68     		ldr	r3, [r3]
 7872 2f02 0E2B     		cmp	r3, #14
 7873 2f04 F1D9     		bls	.L538
1506:.\protocolo.c **** 						}
1507:.\protocolo.c **** 						write_psoc1(val,10);
 7874              		.loc 1 1507 0 is_stmt 1
 7875 2f06 2046     		mov	r0, r4
 7876 2f08 0A21     		movs	r1, #10
 7877 2f0a FFF7FEFF 		bl	write_psoc1
 7878              	.LVL544:
1508:.\protocolo.c **** 						print_totalesac(12,val);	
 7879              		.loc 1 1508 0
 7880 2f0e 0C20     		movs	r0, #12
 7881 2f10 2146     		mov	r1, r4
 7882 2f12 FFF7FEFF 		bl	print_totalesac
 7883              	.LVL545:
1509:.\protocolo.c **** 						for(x=0;x<=16;x++){												
 7884              		.loc 1 1509 0
 7885 2f16 0022     		movs	r2, #0
 7886 2f18 804B     		ldr	r3, .L626+24
 7887 2f1a 1A60     		str	r2, [r3]
 7888 2f1c 09E0     		b	.L539
 7889              	.L540:
ARM GAS  C:\Users\diego\AppData\Local\Temp\ccwBHTp3.s 			page 173


1510:.\protocolo.c **** 							write_psoc1(val,msn_lecaan[x]);				//LECTURA ANTERIOR
 7890              		.loc 1 1510 0 discriminator 3
 7891 2f1e 804A     		ldr	r2, .L626+28
 7892 2f20 1344     		add	r3, r3, r2
 7893 2f22 2046     		mov	r0, r4
 7894 2f24 197E     		ldrb	r1, [r3, #24]	@ zero_extendqisi2
 7895 2f26 FFF7FEFF 		bl	write_psoc1
 7896              	.LVL546:
1509:.\protocolo.c **** 						for(x=0;x<=16;x++){												
 7897              		.loc 1 1509 0 discriminator 3
 7898 2f2a 7C4A     		ldr	r2, .L626+24
 7899 2f2c 1368     		ldr	r3, [r2]
 7900 2f2e 0133     		adds	r3, r3, #1
 7901 2f30 1360     		str	r3, [r2]
 7902              	.L539:
1509:.\protocolo.c **** 						for(x=0;x<=16;x++){												
 7903              		.loc 1 1509 0 is_stmt 0 discriminator 1
 7904 2f32 7A4B     		ldr	r3, .L626+24
 7905 2f34 1B68     		ldr	r3, [r3]
 7906 2f36 102B     		cmp	r3, #16
 7907 2f38 F1D9     		bls	.L540
1511:.\protocolo.c **** 						}
1512:.\protocolo.c **** 						write_psoc1(val,10);
 7908              		.loc 1 1512 0 is_stmt 1
 7909 2f3a 2046     		mov	r0, r4
 7910 2f3c 0A21     		movs	r1, #10
 7911 2f3e FFF7FEFF 		bl	write_psoc1
 7912              	.LVL547:
1513:.\protocolo.c **** 						if(dir==a.dir){
 7913              		.loc 1 1513 0
 7914 2f42 734B     		ldr	r3, .L626+12
 7915 2f44 1B78     		ldrb	r3, [r3]	@ zero_extendqisi2
 7916 2f46 AB42     		cmp	r3, r5
 7917 2f48 05D1     		bne	.L541
1514:.\protocolo.c **** 							leer_eeprom(256,25);
 7918              		.loc 1 1514 0
 7919 2f4a 4FF48070 		mov	r0, #256
 7920 2f4e 1921     		movs	r1, #25
 7921 2f50 FFF7FEFF 		bl	leer_eeprom
 7922              	.LVL548:
 7923 2f54 04E0     		b	.L542
 7924              	.L541:
1515:.\protocolo.c **** 						}
1516:.\protocolo.c **** 						else{
1517:.\protocolo.c **** 							leer_eeprom(345,25);
 7925              		.loc 1 1517 0
 7926 2f56 40F25910 		movw	r0, #345
 7927 2f5a 1921     		movs	r1, #25
 7928 2f5c FFF7FEFF 		bl	leer_eeprom
 7929              	.LVL549:
 7930              	.L542:
1518:.\protocolo.c **** 						}
1519:.\protocolo.c **** 						print_totales(val);
 7931              		.loc 1 1519 0
 7932 2f60 2046     		mov	r0, r4
 7933 2f62 FFF7FEFF 		bl	print_totales
 7934              	.LVL550:
ARM GAS  C:\Users\diego\AppData\Local\Temp\ccwBHTp3.s 			page 174


1520:.\protocolo.c **** 						for(z=1;z<=12;z++){
 7935              		.loc 1 1520 0
 7936 2f66 0122     		movs	r2, #1
 7937 2f68 6F4B     		ldr	r3, .L626+36
 7938 2f6a 1A60     		str	r2, [r3]
 7939 2f6c 10E0     		b	.L543
 7940              	.L544:
1521:.\protocolo.c **** 							minuendo[z]=rventa.tdinero[z-1];
 7941              		.loc 1 1521 0 discriminator 3
 7942 2f6e 6F4A     		ldr	r2, .L626+40
 7943 2f70 1A44     		add	r2, r2, r3
 7944 2f72 92F8CA10 		ldrb	r1, [r2, #202]	@ zero_extendqisi2
 7945 2f76 10AA     		add	r2, sp, #64
 7946 2f78 1A44     		add	r2, r2, r3
 7947 2f7a 02F82C1C 		strb	r1, [r2, #-44]
1522:.\protocolo.c **** 							sustraendo[z]=buffer_i2c[z+12];
 7948              		.loc 1 1522 0 discriminator 3
 7949 2f7e 03F10C01 		add	r1, r3, #12
 7950 2f82 6B48     		ldr	r0, .L626+44
 7951 2f84 415C     		ldrb	r1, [r0, r1]	@ zero_extendqisi2
 7952 2f86 02F83C1C 		strb	r1, [r2, #-60]
1520:.\protocolo.c **** 						for(z=1;z<=12;z++){
 7953              		.loc 1 1520 0 discriminator 3
 7954 2f8a 0133     		adds	r3, r3, #1
 7955 2f8c 664A     		ldr	r2, .L626+36
 7956 2f8e 1360     		str	r3, [r2]
 7957              	.L543:
1520:.\protocolo.c **** 						for(z=1;z<=12;z++){
 7958              		.loc 1 1520 0 is_stmt 0 discriminator 1
 7959 2f90 654B     		ldr	r3, .L626+36
 7960 2f92 1B68     		ldr	r3, [r3]
 7961 2f94 0C2B     		cmp	r3, #12
 7962 2f96 EAD9     		bls	.L544
1523:.\protocolo.c **** 						}
1524:.\protocolo.c **** 						minuendo[0]=12;
 7963              		.loc 1 1524 0 is_stmt 1
 7964 2f98 10A9     		add	r1, sp, #64
 7965 2f9a 0C23     		movs	r3, #12
 7966 2f9c 01F82C3D 		strb	r3, [r1, #-44]!
1525:.\protocolo.c **** 						operacion(2,minuendo,sustraendo);
 7967              		.loc 1 1525 0
 7968 2fa0 0220     		movs	r0, #2
 7969 2fa2 01AA     		add	r2, sp, #4
 7970 2fa4 FFF7FEFF 		bl	operacion
 7971              	.LVL551:
1526:.\protocolo.c **** 						for(x=0;x<=17;x++){									
 7972              		.loc 1 1526 0
 7973 2fa8 0022     		movs	r2, #0
 7974 2faa 5C4B     		ldr	r3, .L626+24
 7975 2fac 1A60     		str	r2, [r3]
 7976 2fae 0AE0     		b	.L545
 7977              	.L546:
1527:.\protocolo.c **** 							write_psoc1(val,msn_tventas[x]);				//Total de ventas
 7978              		.loc 1 1527 0 discriminator 3
 7979 2fb0 5B4A     		ldr	r2, .L626+28
 7980 2fb2 1344     		add	r3, r3, r2
 7981 2fb4 2046     		mov	r0, r4
ARM GAS  C:\Users\diego\AppData\Local\Temp\ccwBHTp3.s 			page 175


 7982 2fb6 93F82C10 		ldrb	r1, [r3, #44]	@ zero_extendqisi2
 7983 2fba FFF7FEFF 		bl	write_psoc1
 7984              	.LVL552:
1526:.\protocolo.c **** 						for(x=0;x<=17;x++){									
 7985              		.loc 1 1526 0 discriminator 3
 7986 2fbe 574A     		ldr	r2, .L626+24
 7987 2fc0 1368     		ldr	r3, [r2]
 7988 2fc2 0133     		adds	r3, r3, #1
 7989 2fc4 1360     		str	r3, [r2]
 7990              	.L545:
1526:.\protocolo.c **** 						for(x=0;x<=17;x++){									
 7991              		.loc 1 1526 0 is_stmt 0 discriminator 1
 7992 2fc6 554B     		ldr	r3, .L626+24
 7993 2fc8 1B68     		ldr	r3, [r3]
 7994 2fca 112B     		cmp	r3, #17
 7995 2fcc F0D9     		bls	.L546
1528:.\protocolo.c **** 						}
1529:.\protocolo.c **** 						print_valor(resultado,val);							
 7996              		.loc 1 1529 0 is_stmt 1
 7997 2fce 4D48     		ldr	r0, .L626
 7998 2fd0 2146     		mov	r1, r4
 7999 2fd2 FFF7FEFF 		bl	print_valor
 8000              	.LVL553:
1530:.\protocolo.c **** 						if(dir==a.dir){
 8001              		.loc 1 1530 0
 8002 2fd6 4E4B     		ldr	r3, .L626+12
 8003 2fd8 1B78     		ldrb	r3, [r3]	@ zero_extendqisi2
 8004 2fda AB42     		cmp	r3, r5
 8005 2fdc 0AD1     		bne	.L547
1531:.\protocolo.c **** 							write_eeprom(256,corte);
 8006              		.loc 1 1531 0
 8007 2fde 4FF48070 		mov	r0, #256
 8008 2fe2 09A9     		add	r1, sp, #36
 8009 2fe4 FFF7FEFF 		bl	write_eeprom
 8010              	.LVL554:
1532:.\protocolo.c **** 							write_eeprom(525,resultado);
 8011              		.loc 1 1532 0
 8012 2fe8 40F20D20 		movw	r0, #525
 8013 2fec 4549     		ldr	r1, .L626
 8014 2fee FFF7FEFF 		bl	write_eeprom
 8015              	.LVL555:
 8016 2ff2 09E0     		b	.L532
 8017              	.L547:
1533:.\protocolo.c **** 						}
1534:.\protocolo.c **** 						else{
1535:.\protocolo.c **** 							write_eeprom(345,corte);
 8018              		.loc 1 1535 0
 8019 2ff4 40F25910 		movw	r0, #345
 8020 2ff8 09A9     		add	r1, sp, #36
 8021 2ffa FFF7FEFF 		bl	write_eeprom
 8022              	.LVL556:
1536:.\protocolo.c **** 							write_eeprom(589,resultado);
 8023              		.loc 1 1536 0
 8024 2ffe 40F24D20 		movw	r0, #589
 8025 3002 4049     		ldr	r1, .L626
 8026 3004 FFF7FEFF 		bl	write_eeprom
 8027              	.LVL557:
ARM GAS  C:\Users\diego\AppData\Local\Temp\ccwBHTp3.s 			page 176


 8028              	.L532:
1537:.\protocolo.c **** 						}					
1538:.\protocolo.c **** 					}
1539:.\protocolo.c ****                     
1540:.\protocolo.c ****                     if(((rventa.manguera==(producto4&0x0F))&&(dir==a.dir))||((rventa.manguera==(pro
 8029              		.loc 1 1540 0
 8030 3008 3F4B     		ldr	r3, .L626+4
 8031 300a 93F8E020 		ldrb	r2, [r3, #224]	@ zero_extendqisi2
 8032 300e 494B     		ldr	r3, .L626+48
 8033 3010 1B78     		ldrb	r3, [r3]	@ zero_extendqisi2
 8034 3012 03F00F03 		and	r3, r3, #15
 8035 3016 9342     		cmp	r3, r2
 8036 3018 03D1     		bne	.L548
 8037              		.loc 1 1540 0 is_stmt 0 discriminator 1
 8038 301a 3D4B     		ldr	r3, .L626+12
 8039 301c 1B78     		ldrb	r3, [r3]	@ zero_extendqisi2
 8040 301e AB42     		cmp	r3, r5
 8041 3020 0BD0     		beq	.L549
 8042              	.L548:
 8043              		.loc 1 1540 0 discriminator 3
 8044 3022 454B     		ldr	r3, .L626+52
 8045 3024 1B78     		ldrb	r3, [r3]	@ zero_extendqisi2
 8046 3026 03F00F03 		and	r3, r3, #15
 8047 302a 9A42     		cmp	r2, r3
 8048 302c 40F0E180 		bne	.L550
 8049              		.loc 1 1540 0 discriminator 4
 8050 3030 394B     		ldr	r3, .L626+20
 8051 3032 1B78     		ldrb	r3, [r3]	@ zero_extendqisi2
 8052 3034 AB42     		cmp	r3, r5
 8053 3036 40F0DC80 		bne	.L550
 8054              	.L549:
1541:.\protocolo.c **** 						for(x=0;x<=5;x++){									
 8055              		.loc 1 1541 0 is_stmt 1
 8056 303a 0022     		movs	r2, #0
 8057 303c 374B     		ldr	r3, .L626+24
 8058 303e 1A60     		str	r2, [r3]
 8059 3040 08E0     		b	.L551
 8060              	.L552:
1542:.\protocolo.c **** 						    write_psoc1(val,msn_tc[x]);
 8061              		.loc 1 1542 0 discriminator 3
 8062 3042 2046     		mov	r0, r4
 8063 3044 364A     		ldr	r2, .L626+28
 8064 3046 D15C     		ldrb	r1, [r2, r3]	@ zero_extendqisi2
 8065 3048 FFF7FEFF 		bl	write_psoc1
 8066              	.LVL558:
1541:.\protocolo.c **** 						for(x=0;x<=5;x++){									
 8067              		.loc 1 1541 0 discriminator 3
 8068 304c 334A     		ldr	r2, .L626+24
 8069 304e 1368     		ldr	r3, [r2]
 8070 3050 0133     		adds	r3, r3, #1
 8071 3052 1360     		str	r3, [r2]
 8072              	.L551:
1541:.\protocolo.c **** 						for(x=0;x<=5;x++){									
 8073              		.loc 1 1541 0 is_stmt 0 discriminator 1
 8074 3054 314B     		ldr	r3, .L626+24
 8075 3056 1B68     		ldr	r3, [r3]
 8076 3058 052B     		cmp	r3, #5
ARM GAS  C:\Users\diego\AppData\Local\Temp\ccwBHTp3.s 			page 177


 8077 305a F2D9     		bls	.L552
1543:.\protocolo.c **** 					    }
1544:.\protocolo.c **** 					    write_psoc1(val,10);
 8078              		.loc 1 1544 0 is_stmt 1
 8079 305c 2046     		mov	r0, r4
 8080 305e 0A21     		movs	r1, #10
 8081 3060 FFF7FEFF 		bl	write_psoc1
 8082              	.LVL559:
1545:.\protocolo.c ****                         for(x=0;x<=10;x++){									
 8083              		.loc 1 1545 0
 8084 3064 0022     		movs	r2, #0
 8085 3066 2D4B     		ldr	r3, .L626+24
 8086 3068 1A60     		str	r2, [r3]
 8087 306a 08E0     		b	.L553
 8088              	.L554:
1546:.\protocolo.c **** 						    write_psoc1(val,producto4n[x]);
 8089              		.loc 1 1546 0 discriminator 3
 8090 306c 2046     		mov	r0, r4
 8091 306e 334A     		ldr	r2, .L626+56
 8092 3070 D15C     		ldrb	r1, [r2, r3]	@ zero_extendqisi2
 8093 3072 FFF7FEFF 		bl	write_psoc1
 8094              	.LVL560:
1545:.\protocolo.c ****                         for(x=0;x<=10;x++){									
 8095              		.loc 1 1545 0 discriminator 3
 8096 3076 294A     		ldr	r2, .L626+24
 8097 3078 1368     		ldr	r3, [r2]
 8098 307a 0133     		adds	r3, r3, #1
 8099 307c 1360     		str	r3, [r2]
 8100              	.L553:
1545:.\protocolo.c ****                         for(x=0;x<=10;x++){									
 8101              		.loc 1 1545 0 is_stmt 0 discriminator 1
 8102 307e 274B     		ldr	r3, .L626+24
 8103 3080 1B68     		ldr	r3, [r3]
 8104 3082 0A2B     		cmp	r3, #10
 8105 3084 F2D9     		bls	.L554
1547:.\protocolo.c **** 					    }
1548:.\protocolo.c ****                         write_psoc1(val,10);
 8106              		.loc 1 1548 0 is_stmt 1
 8107 3086 2046     		mov	r0, r4
 8108 3088 0A21     		movs	r1, #10
 8109 308a FFF7FEFF 		bl	write_psoc1
 8110              	.LVL561:
1549:.\protocolo.c **** 						for(x=0;x<=14;x++){									
 8111              		.loc 1 1549 0
 8112 308e 0022     		movs	r2, #0
 8113 3090 224B     		ldr	r3, .L626+24
 8114 3092 1A60     		str	r2, [r3]
 8115 3094 09E0     		b	.L555
 8116              	.L556:
1550:.\protocolo.c **** 							write_psoc1(val,msn_lecact[x]);				//LECTURA ACTUAL
 8117              		.loc 1 1550 0 discriminator 3
 8118 3096 224A     		ldr	r2, .L626+28
 8119 3098 1344     		add	r3, r3, r2
 8120 309a 2046     		mov	r0, r4
 8121 309c 197A     		ldrb	r1, [r3, #8]	@ zero_extendqisi2
 8122 309e FFF7FEFF 		bl	write_psoc1
 8123              	.LVL562:
ARM GAS  C:\Users\diego\AppData\Local\Temp\ccwBHTp3.s 			page 178


1549:.\protocolo.c **** 						for(x=0;x<=14;x++){									
 8124              		.loc 1 1549 0 discriminator 3
 8125 30a2 1E4A     		ldr	r2, .L626+24
 8126 30a4 1368     		ldr	r3, [r2]
 8127 30a6 0133     		adds	r3, r3, #1
 8128 30a8 1360     		str	r3, [r2]
 8129              	.L555:
1549:.\protocolo.c **** 						for(x=0;x<=14;x++){									
 8130              		.loc 1 1549 0 is_stmt 0 discriminator 1
 8131 30aa 1C4B     		ldr	r3, .L626+24
 8132 30ac 1B68     		ldr	r3, [r3]
 8133 30ae 0E2B     		cmp	r3, #14
 8134 30b0 F1D9     		bls	.L556
1551:.\protocolo.c **** 						}
1552:.\protocolo.c **** 						write_psoc1(val,10);
 8135              		.loc 1 1552 0 is_stmt 1
 8136 30b2 2046     		mov	r0, r4
 8137 30b4 0A21     		movs	r1, #10
 8138 30b6 FFF7FEFF 		bl	write_psoc1
 8139              	.LVL563:
1553:.\protocolo.c **** 						print_totalesac(12,val);	
 8140              		.loc 1 1553 0
 8141 30ba 0C20     		movs	r0, #12
 8142 30bc 2146     		mov	r1, r4
 8143 30be FFF7FEFF 		bl	print_totalesac
 8144              	.LVL564:
1554:.\protocolo.c **** 						for(x=0;x<=16;x++){												
 8145              		.loc 1 1554 0
 8146 30c2 0022     		movs	r2, #0
 8147 30c4 154B     		ldr	r3, .L626+24
 8148 30c6 1A60     		str	r2, [r3]
 8149 30c8 09E0     		b	.L557
 8150              	.L558:
1555:.\protocolo.c **** 							write_psoc1(val,msn_lecaan[x]);				//LECTURA ANTERIOR
 8151              		.loc 1 1555 0 discriminator 3
 8152 30ca 154A     		ldr	r2, .L626+28
 8153 30cc 1344     		add	r3, r3, r2
 8154 30ce 2046     		mov	r0, r4
 8155 30d0 197E     		ldrb	r1, [r3, #24]	@ zero_extendqisi2
 8156 30d2 FFF7FEFF 		bl	write_psoc1
 8157              	.LVL565:
1554:.\protocolo.c **** 						for(x=0;x<=16;x++){												
 8158              		.loc 1 1554 0 discriminator 3
 8159 30d6 114A     		ldr	r2, .L626+24
 8160 30d8 1368     		ldr	r3, [r2]
 8161 30da 0133     		adds	r3, r3, #1
 8162 30dc 1360     		str	r3, [r2]
 8163              	.L557:
1554:.\protocolo.c **** 						for(x=0;x<=16;x++){												
 8164              		.loc 1 1554 0 is_stmt 0 discriminator 1
 8165 30de 0F4B     		ldr	r3, .L626+24
 8166 30e0 1B68     		ldr	r3, [r3]
 8167 30e2 102B     		cmp	r3, #16
 8168 30e4 F1D9     		bls	.L558
1556:.\protocolo.c **** 						}
1557:.\protocolo.c **** 						write_psoc1(val,10);
 8169              		.loc 1 1557 0 is_stmt 1
ARM GAS  C:\Users\diego\AppData\Local\Temp\ccwBHTp3.s 			page 179


 8170 30e6 2046     		mov	r0, r4
 8171 30e8 0A21     		movs	r1, #10
 8172 30ea FFF7FEFF 		bl	write_psoc1
 8173              	.LVL566:
1558:.\protocolo.c **** 						if(dir==a.dir){
 8174              		.loc 1 1558 0
 8175 30ee 084B     		ldr	r3, .L626+12
 8176 30f0 1B78     		ldrb	r3, [r3]	@ zero_extendqisi2
 8177 30f2 AB42     		cmp	r3, r5
 8178 30f4 24D1     		bne	.L559
1559:.\protocolo.c **** 							leer_eeprom(1096,25);
 8179              		.loc 1 1559 0
 8180 30f6 4FF48960 		mov	r0, #1096
 8181 30fa 1921     		movs	r1, #25
 8182 30fc FFF7FEFF 		bl	leer_eeprom
 8183              	.LVL567:
 8184 3100 23E0     		b	.L560
 8185              	.L627:
 8186 3102 00BF     		.align	2
 8187              	.L626:
 8188 3104 00000000 		.word	resultado
 8189 3108 00000000 		.word	rventa
 8190 310c 00000000 		.word	producto3
 8191 3110 00000000 		.word	a
 8192 3114 00000000 		.word	producto3b
 8193 3118 00000000 		.word	b
 8194 311c 00000000 		.word	x
 8195 3120 00000000 		.word	.LANCHOR1
 8196 3124 00000000 		.word	producto3n
 8197 3128 00000000 		.word	z
 8198 312c FFFFFFFF 		.word	rventa-1
 8199 3130 00000000 		.word	buffer_i2c
 8200 3134 00000000 		.word	producto4
 8201 3138 00000000 		.word	producto4b
 8202 313c 00000000 		.word	producto4n
 8203              	.L559:
1560:.\protocolo.c **** 						}
1561:.\protocolo.c **** 						else{
1562:.\protocolo.c **** 							leer_eeprom(1054,25);
 8204              		.loc 1 1562 0
 8205 3140 40F21E40 		movw	r0, #1054
 8206 3144 1921     		movs	r1, #25
 8207 3146 FFF7FEFF 		bl	leer_eeprom
 8208              	.LVL568:
 8209              	.L560:
1563:.\protocolo.c **** 						}
1564:.\protocolo.c **** 						print_totales(val);
 8210              		.loc 1 1564 0
 8211 314a 2046     		mov	r0, r4
 8212 314c FFF7FEFF 		bl	print_totales
 8213              	.LVL569:
1565:.\protocolo.c **** 						for(z=1;z<=12;z++){
 8214              		.loc 1 1565 0
 8215 3150 0122     		movs	r2, #1
 8216 3152 514B     		ldr	r3, .L628
 8217 3154 1A60     		str	r2, [r3]
 8218 3156 10E0     		b	.L561
ARM GAS  C:\Users\diego\AppData\Local\Temp\ccwBHTp3.s 			page 180


 8219              	.L562:
1566:.\protocolo.c **** 							minuendo[z]=rventa.tdinero[z-1];
 8220              		.loc 1 1566 0 discriminator 3
 8221 3158 504A     		ldr	r2, .L628+4
 8222 315a 1A44     		add	r2, r2, r3
 8223 315c 92F8CA10 		ldrb	r1, [r2, #202]	@ zero_extendqisi2
 8224 3160 10AA     		add	r2, sp, #64
 8225 3162 1A44     		add	r2, r2, r3
 8226 3164 02F82C1C 		strb	r1, [r2, #-44]
1567:.\protocolo.c **** 							sustraendo[z]=buffer_i2c[z+12];
 8227              		.loc 1 1567 0 discriminator 3
 8228 3168 03F10C01 		add	r1, r3, #12
 8229 316c 4C48     		ldr	r0, .L628+8
 8230 316e 415C     		ldrb	r1, [r0, r1]	@ zero_extendqisi2
 8231 3170 02F83C1C 		strb	r1, [r2, #-60]
1565:.\protocolo.c **** 						for(z=1;z<=12;z++){
 8232              		.loc 1 1565 0 discriminator 3
 8233 3174 0133     		adds	r3, r3, #1
 8234 3176 484A     		ldr	r2, .L628
 8235 3178 1360     		str	r3, [r2]
 8236              	.L561:
1565:.\protocolo.c **** 						for(z=1;z<=12;z++){
 8237              		.loc 1 1565 0 is_stmt 0 discriminator 1
 8238 317a 474B     		ldr	r3, .L628
 8239 317c 1B68     		ldr	r3, [r3]
 8240 317e 0C2B     		cmp	r3, #12
 8241 3180 EAD9     		bls	.L562
1568:.\protocolo.c **** 						}
1569:.\protocolo.c **** 						minuendo[0]=12;
 8242              		.loc 1 1569 0 is_stmt 1
 8243 3182 10A9     		add	r1, sp, #64
 8244 3184 0C23     		movs	r3, #12
 8245 3186 01F82C3D 		strb	r3, [r1, #-44]!
1570:.\protocolo.c **** 						operacion(2,minuendo,sustraendo);
 8246              		.loc 1 1570 0
 8247 318a 0220     		movs	r0, #2
 8248 318c 01AA     		add	r2, sp, #4
 8249 318e FFF7FEFF 		bl	operacion
 8250              	.LVL570:
1571:.\protocolo.c **** 						for(x=0;x<=17;x++){									
 8251              		.loc 1 1571 0
 8252 3192 0022     		movs	r2, #0
 8253 3194 434B     		ldr	r3, .L628+12
 8254 3196 1A60     		str	r2, [r3]
 8255 3198 0AE0     		b	.L563
 8256              	.L564:
1572:.\protocolo.c **** 							write_psoc1(val,msn_tventas[x]);				//Total de ventas
 8257              		.loc 1 1572 0 discriminator 3
 8258 319a 434A     		ldr	r2, .L628+16
 8259 319c 1344     		add	r3, r3, r2
 8260 319e 2046     		mov	r0, r4
 8261 31a0 93F82C10 		ldrb	r1, [r3, #44]	@ zero_extendqisi2
 8262 31a4 FFF7FEFF 		bl	write_psoc1
 8263              	.LVL571:
1571:.\protocolo.c **** 						for(x=0;x<=17;x++){									
 8264              		.loc 1 1571 0 discriminator 3
 8265 31a8 3E4A     		ldr	r2, .L628+12
ARM GAS  C:\Users\diego\AppData\Local\Temp\ccwBHTp3.s 			page 181


 8266 31aa 1368     		ldr	r3, [r2]
 8267 31ac 0133     		adds	r3, r3, #1
 8268 31ae 1360     		str	r3, [r2]
 8269              	.L563:
1571:.\protocolo.c **** 						for(x=0;x<=17;x++){									
 8270              		.loc 1 1571 0 is_stmt 0 discriminator 1
 8271 31b0 3C4B     		ldr	r3, .L628+12
 8272 31b2 1B68     		ldr	r3, [r3]
 8273 31b4 112B     		cmp	r3, #17
 8274 31b6 F0D9     		bls	.L564
1573:.\protocolo.c **** 						}
1574:.\protocolo.c **** 						print_valor(resultado,val);							
 8275              		.loc 1 1574 0 is_stmt 1
 8276 31b8 3C48     		ldr	r0, .L628+20
 8277 31ba 2146     		mov	r1, r4
 8278 31bc FFF7FEFF 		bl	print_valor
 8279              	.LVL572:
1575:.\protocolo.c **** 						if(dir==a.dir){
 8280              		.loc 1 1575 0
 8281 31c0 3B4B     		ldr	r3, .L628+24
 8282 31c2 1B78     		ldrb	r3, [r3]	@ zero_extendqisi2
 8283 31c4 AB42     		cmp	r3, r5
 8284 31c6 0AD1     		bne	.L565
1576:.\protocolo.c **** 						    write_eeprom(1096,corte);
 8285              		.loc 1 1576 0
 8286 31c8 4FF48960 		mov	r0, #1096
 8287 31cc 09A9     		add	r1, sp, #36
 8288 31ce FFF7FEFF 		bl	write_eeprom
 8289              	.LVL573:
1577:.\protocolo.c **** 						    write_eeprom(1038,resultado);
 8290              		.loc 1 1577 0
 8291 31d2 40F20E40 		movw	r0, #1038
 8292 31d6 3549     		ldr	r1, .L628+20
 8293 31d8 FFF7FEFF 		bl	write_eeprom
 8294              	.LVL574:
 8295 31dc 09E0     		b	.L550
 8296              	.L565:
1578:.\protocolo.c **** 					    }
1579:.\protocolo.c **** 					    else{
1580:.\protocolo.c **** 						    write_eeprom(1054,corte);
 8297              		.loc 1 1580 0
 8298 31de 40F21E40 		movw	r0, #1054
 8299 31e2 09A9     		add	r1, sp, #36
 8300 31e4 FFF7FEFF 		bl	write_eeprom
 8301              	.LVL575:
1581:.\protocolo.c **** 						    write_eeprom(1081,resultado);
 8302              		.loc 1 1581 0
 8303 31e8 40F23940 		movw	r0, #1081
 8304 31ec 2F49     		ldr	r1, .L628+20
 8305 31ee FFF7FEFF 		bl	write_eeprom
 8306              	.LVL576:
 8307              	.L550:
1392:.\protocolo.c **** 					rventa.manguera=(Surtidor_rxBuffer[y+2]&0x0F)+1;
 8308              		.loc 1 1392 0 discriminator 2
 8309 31f2 304A     		ldr	r2, .L628+28
 8310 31f4 1368     		ldr	r3, [r2]
 8311 31f6 2A33     		adds	r3, r3, #42
ARM GAS  C:\Users\diego\AppData\Local\Temp\ccwBHTp3.s 			page 182


 8312 31f8 1360     		str	r3, [r2]
 8313              	.L485:
1392:.\protocolo.c **** 					rventa.manguera=(Surtidor_rxBuffer[y+2]&0x0F)+1;
 8314              		.loc 1 1392 0 is_stmt 0 discriminator 1
 8315 31fa 2E4B     		ldr	r3, .L628+28
 8316 31fc 1E68     		ldr	r6, [r3]
 8317 31fe 542E     		cmp	r6, #84
 8318 3200 7FF6F3AB 		bls	.L566
1582:.\protocolo.c **** 				        }					
1583:.\protocolo.c **** 					}
1584:.\protocolo.c **** 				}
1585:.\protocolo.c **** 				Surtidor_ClearRxBuffer();
 8319              		.loc 1 1585 0 is_stmt 1
 8320 3204 FFF7FEFF 		bl	Surtidor_ClearRxBuffer
 8321              	.LVL577:
1586:.\protocolo.c **** 				return 3;					
 8322              		.loc 1 1586 0
 8323 3208 0320     		movs	r0, #3
 8324 320a 43E0     		b	.L78
 8325              	.L70:
1587:.\protocolo.c **** 			}			
1588:.\protocolo.c **** 			else{
1589:.\protocolo.c **** 				return 0;
1590:.\protocolo.c **** 			}			
1591:.\protocolo.c **** 		break;
1592:.\protocolo.c **** 			
1593:.\protocolo.c **** 		default:
1594:.\protocolo.c ****             for(x=0;x<15;x++){									
 8326              		.loc 1 1594 0
 8327 320c 0022     		movs	r2, #0
 8328 320e 254B     		ldr	r3, .L628+12
 8329 3210 1A60     		str	r2, [r3]
 8330 3212 0AE0     		b	.L567
 8331              	.L568:
1595:.\protocolo.c **** 				write_psoc1(val,msn_totalcero[x]);				//Total de ventas
 8332              		.loc 1 1595 0 discriminator 3
 8333 3214 244A     		ldr	r2, .L628+16
 8334 3216 1344     		add	r3, r3, r2
 8335 3218 2046     		mov	r0, r4
 8336 321a 93F84010 		ldrb	r1, [r3, #64]	@ zero_extendqisi2
 8337 321e FFF7FEFF 		bl	write_psoc1
 8338              	.LVL578:
1594:.\protocolo.c **** 				write_psoc1(val,msn_totalcero[x]);				//Total de ventas
 8339              		.loc 1 1594 0 discriminator 3
 8340 3222 204A     		ldr	r2, .L628+12
 8341 3224 1368     		ldr	r3, [r2]
 8342 3226 0133     		adds	r3, r3, #1
 8343 3228 1360     		str	r3, [r2]
 8344              	.L567:
1594:.\protocolo.c **** 				write_psoc1(val,msn_totalcero[x]);				//Total de ventas
 8345              		.loc 1 1594 0 is_stmt 0 discriminator 1
 8346 322a 1E4B     		ldr	r3, .L628+12
 8347 322c 1B68     		ldr	r3, [r3]
 8348 322e 0E2B     		cmp	r3, #14
 8349 3230 F0D9     		bls	.L568
1596:.\protocolo.c **** 			}
1597:.\protocolo.c **** 			return 0;	
ARM GAS  C:\Users\diego\AppData\Local\Temp\ccwBHTp3.s 			page 183


 8350              		.loc 1 1597 0 is_stmt 1
 8351 3232 0020     		movs	r0, #0
 8352 3234 2EE0     		b	.L78
 8353              	.L569:
 574:.\protocolo.c **** 			}
 8354              		.loc 1 574 0
 8355 3236 0020     		movs	r0, #0
 8356 3238 2CE0     		b	.L78
 8357              	.L570:
 8358 323a 0020     		movs	r0, #0
 8359 323c 2AE0     		b	.L78
 8360              	.L571:
 8361 323e 0020     		movs	r0, #0
 8362 3240 28E0     		b	.L78
 8363              	.L572:
 8364 3242 0020     		movs	r0, #0
 8365 3244 26E0     		b	.L78
 8366              	.L573:
 778:.\protocolo.c **** 			}
 8367              		.loc 1 778 0
 8368 3246 0020     		movs	r0, #0
 8369 3248 24E0     		b	.L78
 8370              	.L574:
 8371 324a 0020     		movs	r0, #0
 8372 324c 22E0     		b	.L78
 8373              	.L575:
 8374 324e 0020     		movs	r0, #0
 8375 3250 20E0     		b	.L78
 8376              	.L576:
 8377 3252 0020     		movs	r0, #0
 8378 3254 1EE0     		b	.L78
 8379              	.L577:
 982:.\protocolo.c **** 			}			
 8380              		.loc 1 982 0
 8381 3256 0020     		movs	r0, #0
 8382 3258 1CE0     		b	.L78
 8383              	.L578:
 8384 325a 0020     		movs	r0, #0
 8385 325c 1AE0     		b	.L78
 8386              	.L579:
 8387 325e 0020     		movs	r0, #0
 8388 3260 18E0     		b	.L78
 8389              	.L580:
 8390 3262 0020     		movs	r0, #0
 8391 3264 16E0     		b	.L78
 8392              	.L581:
1183:.\protocolo.c **** 			}			
 8393              		.loc 1 1183 0
 8394 3266 0020     		movs	r0, #0
 8395 3268 14E0     		b	.L78
 8396              	.L582:
 8397 326a 0020     		movs	r0, #0
 8398 326c 12E0     		b	.L78
 8399              	.L583:
 8400 326e 0020     		movs	r0, #0
 8401 3270 10E0     		b	.L78
 8402              	.L584:
ARM GAS  C:\Users\diego\AppData\Local\Temp\ccwBHTp3.s 			page 184


 8403 3272 0020     		movs	r0, #0
 8404 3274 0EE0     		b	.L78
 8405              	.L585:
1386:.\protocolo.c **** 			}			
 8406              		.loc 1 1386 0
 8407 3276 0020     		movs	r0, #0
 8408 3278 0CE0     		b	.L78
 8409              	.L586:
 8410 327a 0020     		movs	r0, #0
 8411 327c 0AE0     		b	.L78
 8412              	.L587:
 8413 327e 0020     		movs	r0, #0
 8414 3280 08E0     		b	.L78
 8415              	.L588:
 8416 3282 0020     		movs	r0, #0
 8417 3284 06E0     		b	.L78
 8418              	.L589:
1589:.\protocolo.c **** 			}			
 8419              		.loc 1 1589 0
 8420 3286 0020     		movs	r0, #0
 8421 3288 04E0     		b	.L78
 8422              	.L590:
 8423 328a 0020     		movs	r0, #0
 8424 328c 02E0     		b	.L78
 8425              	.L591:
 8426 328e 0020     		movs	r0, #0
 8427 3290 00E0     		b	.L78
 8428              	.L592:
 8429 3292 0020     		movs	r0, #0
 8430              	.L78:
1598:.\protocolo.c **** 		break;	
1599:.\protocolo.c **** 	}		
1600:.\protocolo.c **** }
 8431              		.loc 1 1600 0
 8432 3294 10B0     		add	sp, sp, #64
 8433              		.cfi_def_cfa_offset 16
 8434              		@ sp needed
 8435 3296 70BD     		pop	{r4, r5, r6, pc}
 8436              	.L629:
 8437              		.align	2
 8438              	.L628:
 8439 3298 00000000 		.word	z
 8440 329c FFFFFFFF 		.word	rventa-1
 8441 32a0 00000000 		.word	buffer_i2c
 8442 32a4 00000000 		.word	x
 8443 32a8 00000000 		.word	.LANCHOR1
 8444 32ac 00000000 		.word	resultado
 8445 32b0 00000000 		.word	a
 8446 32b4 00000000 		.word	y
 8447              		.cfi_endproc
 8448              	.LFE67:
 8449              		.size	get_totales, .-get_totales
 8450              		.section	.text.programar,"ax",%progbits
 8451              		.align	2
 8452              		.global	programar
 8453              		.thumb
 8454              		.thumb_func
ARM GAS  C:\Users\diego\AppData\Local\Temp\ccwBHTp3.s 			page 185


 8455              		.type	programar, %function
 8456              	programar:
 8457              	.LFB68:
1601:.\protocolo.c **** 
1602:.\protocolo.c **** /*
1603:.\protocolo.c **** ***************************************************************************************************
1604:.\protocolo.c **** *                                         uint8 programar(uint8 dir)
1605:.\protocolo.c **** *
1606:.\protocolo.c **** * Description : 
1607:.\protocolo.c **** *               
1608:.\protocolo.c **** *
1609:.\protocolo.c **** * Argument(s) : none
1610:.\protocolo.c **** *
1611:.\protocolo.c **** * Return(s)   : none
1612:.\protocolo.c **** *
1613:.\protocolo.c **** * Caller(s)   : 
1614:.\protocolo.c **** *
1615:.\protocolo.c **** * Note(s)     : none.
1616:.\protocolo.c **** ***************************************************************************************************
1617:.\protocolo.c **** */
1618:.\protocolo.c **** uint8 programar(uint8 dir, uint8 grado, uint8 *valor, uint8 preset){
 8458              		.loc 1 1618 0
 8459              		.cfi_startproc
 8460              		@ args = 0, pretend = 0, frame = 24
 8461              		@ frame_needed = 0, uses_anonymous_args = 0
 8462              	.LVL579:
 8463 0000 2DE9F041 		push	{r4, r5, r6, r7, r8, lr}
 8464              		.cfi_def_cfa_offset 24
 8465              		.cfi_offset 4, -24
 8466              		.cfi_offset 5, -20
 8467              		.cfi_offset 6, -16
 8468              		.cfi_offset 7, -12
 8469              		.cfi_offset 8, -8
 8470              		.cfi_offset 14, -4
 8471 0004 86B0     		sub	sp, sp, #24
 8472              		.cfi_def_cfa_offset 48
1619:.\protocolo.c **** 	uint8 buffer[18]={0,0,0,0,0,0,0,0,0,0,0,0,0,0,0,0,0,0},size,temp,i,j,decimal=0;
 8473              		.loc 1 1619 0
 8474 0006 0024     		movs	r4, #0
 8475 0008 0194     		str	r4, [sp, #4]
 8476 000a 0294     		str	r4, [sp, #8]
 8477 000c 0394     		str	r4, [sp, #12]
 8478 000e 0494     		str	r4, [sp, #16]
 8479 0010 ADF81440 		strh	r4, [sp, #20]	@ movhi
 8480              	.LVL580:
1620:.\protocolo.c **** 	temp=4;
1621:.\protocolo.c **** 	if(((versurt==5)||(versurt==6))&&(preset==1)){
 8481              		.loc 1 1621 0
 8482 0014 C14C     		ldr	r4, .L693
 8483 0016 2478     		ldrb	r4, [r4]	@ zero_extendqisi2
 8484 0018 651F     		subs	r5, r4, #5
 8485 001a EDB2     		uxtb	r5, r5
 8486 001c 012D     		cmp	r5, #1
 8487 001e 04D8     		bhi	.L681
 8488              		.loc 1 1621 0 is_stmt 0 discriminator 1
 8489 0020 012B     		cmp	r3, #1
 8490 0022 05D0     		beq	.L682
ARM GAS  C:\Users\diego\AppData\Local\Temp\ccwBHTp3.s 			page 186


1620:.\protocolo.c **** 	temp=4;
 8491              		.loc 1 1620 0 is_stmt 1
 8492 0024 4FF0040E 		mov	lr, #4
 8493 0028 04E0     		b	.L631
 8494              	.L681:
 8495 002a 4FF0040E 		mov	lr, #4
 8496 002e 01E0     		b	.L631
 8497              	.L682:
1622:.\protocolo.c **** 		temp=3;
 8498              		.loc 1 1622 0
 8499 0030 4FF0030E 		mov	lr, #3
 8500              	.L631:
 8501              	.LVL581:
1623:.\protocolo.c **** 	}
1624:.\protocolo.c **** 	if((versurt==5)&&(preset==2)){
 8502              		.loc 1 1624 0
 8503 0034 052C     		cmp	r4, #5
 8504 0036 03D1     		bne	.L632
 8505              		.loc 1 1624 0 is_stmt 0 discriminator 1
 8506 0038 022B     		cmp	r3, #2
 8507 003a 01D1     		bne	.L632
1625:.\protocolo.c **** 		temp=5;
 8508              		.loc 1 1625 0 is_stmt 1
 8509 003c 4FF0050E 		mov	lr, #5
 8510              	.LVL582:
 8511              	.L632:
1626:.\protocolo.c **** 	}
1627:.\protocolo.c **** 	if((versurt==7)&&(preset==1)){
 8512              		.loc 1 1627 0
 8513 0040 072C     		cmp	r4, #7
 8514 0042 03D1     		bne	.L633
 8515              		.loc 1 1627 0 is_stmt 0 discriminator 1
 8516 0044 012B     		cmp	r3, #1
 8517 0046 01D1     		bne	.L633
1628:.\protocolo.c **** 		temp=0;
 8518              		.loc 1 1628 0 is_stmt 1
 8519 0048 4FF0000E 		mov	lr, #0
 8520              	.LVL583:
 8521              	.L633:
1629:.\protocolo.c **** 	}
1630:.\protocolo.c **** 	if((versurt==7)&&(preset==2)){
 8522              		.loc 1 1630 0
 8523 004c 072C     		cmp	r4, #7
 8524 004e 03D1     		bne	.L634
 8525              		.loc 1 1630 0 is_stmt 0 discriminator 1
 8526 0050 022B     		cmp	r3, #2
 8527 0052 01D1     		bne	.L634
1631:.\protocolo.c **** 		temp=2;
 8528              		.loc 1 1631 0 is_stmt 1
 8529 0054 4FF0020E 		mov	lr, #2
 8530              	.LVL584:
 8531              	.L634:
1632:.\protocolo.c **** 	}	
1633:.\protocolo.c **** 	decimal=0;
 8532              		.loc 1 1633 0
 8533 0058 0025     		movs	r5, #0
1634:.\protocolo.c **** 	for(i=1;i<=valor[0];i++){
ARM GAS  C:\Users\diego\AppData\Local\Temp\ccwBHTp3.s 			page 187


 8534              		.loc 1 1634 0
 8535 005a 0124     		movs	r4, #1
 8536 005c 0FE0     		b	.L635
 8537              	.LVL585:
 8538              	.L638:
1635:.\protocolo.c **** 		if(decimal>=1){
 8539              		.loc 1 1635 0
 8540 005e 25B1     		cbz	r5, .L636
1636:.\protocolo.c **** 			decimal++;
 8541              		.loc 1 1636 0
 8542 0060 0135     		adds	r5, r5, #1
 8543              	.LVL586:
 8544 0062 EDB2     		uxtb	r5, r5
 8545              	.LVL587:
1637:.\protocolo.c **** 			valor[i]=valor[i+1];
 8546              		.loc 1 1637 0
 8547 0064 1719     		adds	r7, r2, r4
 8548 0066 7F78     		ldrb	r7, [r7, #1]	@ zero_extendqisi2
 8549 0068 1755     		strb	r7, [r2, r4]
 8550              	.L636:
1638:.\protocolo.c **** 		}				
1639:.\protocolo.c **** 		if(valor[i]==','){
 8551              		.loc 1 1639 0
 8552 006a 175D     		ldrb	r7, [r2, r4]	@ zero_extendqisi2
 8553 006c 2C2F     		cmp	r7, #44
 8554 006e 04D1     		bne	.L637
1640:.\protocolo.c **** 			decimal++;
 8555              		.loc 1 1640 0
 8556 0070 0135     		adds	r5, r5, #1
 8557              	.LVL588:
 8558 0072 EDB2     		uxtb	r5, r5
 8559              	.LVL589:
1641:.\protocolo.c **** 			valor[i]=valor[i+1];
 8560              		.loc 1 1641 0
 8561 0074 1719     		adds	r7, r2, r4
 8562 0076 7F78     		ldrb	r7, [r7, #1]	@ zero_extendqisi2
 8563 0078 1755     		strb	r7, [r2, r4]
 8564              	.L637:
1634:.\protocolo.c **** 		if(decimal>=1){
 8565              		.loc 1 1634 0 discriminator 2
 8566 007a 0134     		adds	r4, r4, #1
 8567              	.LVL590:
 8568 007c E4B2     		uxtb	r4, r4
 8569              	.LVL591:
 8570              	.L635:
1634:.\protocolo.c **** 		if(decimal>=1){
 8571              		.loc 1 1634 0 is_stmt 0 discriminator 1
 8572 007e 1778     		ldrb	r7, [r2]	@ zero_extendqisi2
 8573 0080 A742     		cmp	r7, r4
 8574 0082 ECD2     		bcs	.L638
1642:.\protocolo.c **** 		}
1643:.\protocolo.c **** 	}
1644:.\protocolo.c **** 	if(decimal>=1){
 8575              		.loc 1 1644 0 is_stmt 1
 8576 0084 1DB1     		cbz	r5, .L639
1645:.\protocolo.c **** 		decimal=decimal-1;
 8577              		.loc 1 1645 0
ARM GAS  C:\Users\diego\AppData\Local\Temp\ccwBHTp3.s 			page 188


 8578 0086 013D     		subs	r5, r5, #1
 8579              	.LVL592:
 8580 0088 EDB2     		uxtb	r5, r5
 8581              	.LVL593:
1646:.\protocolo.c **** 		valor[0]=valor[0]-1;
 8582              		.loc 1 1646 0
 8583 008a 013F     		subs	r7, r7, #1
 8584 008c 1770     		strb	r7, [r2]
 8585              	.L639:
1647:.\protocolo.c **** 	}	
1648:.\protocolo.c **** 	if(decimal>=4){
 8586              		.loc 1 1648 0
 8587 008e 032D     		cmp	r5, #3
 8588 0090 00F2EA81 		bhi	.L686
1649:.\protocolo.c **** 		return 0;
1650:.\protocolo.c **** 	}	
1651:.\protocolo.c **** 	if(versurt!=7){		
 8589              		.loc 1 1651 0
 8590 0094 A14C     		ldr	r4, .L693
 8591              	.LVL594:
 8592 0096 94F800C0 		ldrb	ip, [r4]	@ zero_extendqisi2
 8593 009a BCF1070F 		cmp	ip, #7
 8594 009e 00F0EF80 		beq	.L641
1652:.\protocolo.c **** 		buffer[0]=0xFF;
 8595              		.loc 1 1652 0
 8596 00a2 FF24     		movs	r4, #255
 8597 00a4 8DF80440 		strb	r4, [sp, #4]
1653:.\protocolo.c **** 		buffer[1]=(0xE0|temp);
 8598              		.loc 1 1653 0
 8599 00a8 6EF01F04 		orn	r4, lr, #31
 8600 00ac 8DF80540 		strb	r4, [sp, #5]
1654:.\protocolo.c **** 		buffer[2]=(0xF0|preset);
 8601              		.loc 1 1654 0
 8602 00b0 63F00F04 		orn	r4, r3, #15
 8603 00b4 8DF80640 		strb	r4, [sp, #6]
1655:.\protocolo.c **** 		buffer[3]=0xF4;
 8604              		.loc 1 1655 0
 8605 00b8 F424     		movs	r4, #244
 8606 00ba 8DF80740 		strb	r4, [sp, #7]
1656:.\protocolo.c **** 		buffer[4]=0xF8;	
 8607              		.loc 1 1656 0
 8608 00be F824     		movs	r4, #248
 8609 00c0 8DF80840 		strb	r4, [sp, #8]
 8610              	.LVL595:
1657:.\protocolo.c **** 		for(i=5;i<((5+decimalD)-decimal);i++){
 8611              		.loc 1 1657 0
 8612 00c4 0524     		movs	r4, #5
 8613 00c6 06E0     		b	.L642
 8614              	.LVL596:
 8615              	.L643:
1658:.\protocolo.c **** 			buffer[i]=0xE0;
 8616              		.loc 1 1658 0 discriminator 3
 8617 00c8 06AE     		add	r6, sp, #24
 8618 00ca 2644     		add	r6, r6, r4
 8619 00cc E027     		movs	r7, #224
 8620 00ce 06F8147C 		strb	r7, [r6, #-20]
1657:.\protocolo.c **** 		for(i=5;i<((5+decimalD)-decimal);i++){
ARM GAS  C:\Users\diego\AppData\Local\Temp\ccwBHTp3.s 			page 189


 8621              		.loc 1 1657 0 discriminator 3
 8622 00d2 0134     		adds	r4, r4, #1
 8623              	.LVL597:
 8624 00d4 E4B2     		uxtb	r4, r4
 8625              	.LVL598:
 8626              	.L642:
1657:.\protocolo.c **** 		for(i=5;i<((5+decimalD)-decimal);i++){
 8627              		.loc 1 1657 0 is_stmt 0 discriminator 1
 8628 00d6 A046     		mov	r8, r4
 8629 00d8 914E     		ldr	r6, .L693+4
 8630 00da 3678     		ldrb	r6, [r6]	@ zero_extendqisi2
 8631 00dc 0536     		adds	r6, r6, #5
 8632 00de 761B     		subs	r6, r6, r5
 8633 00e0 B442     		cmp	r4, r6
 8634 00e2 F1DB     		blt	.L643
 8635 00e4 0DE0     		b	.L644
 8636              	.LVL599:
 8637              	.L645:
1659:.\protocolo.c **** 		}
1660:.\protocolo.c **** 		for(j=i;j<(i+valor[0]);j++){
1661:.\protocolo.c **** 			buffer[j]=(0xE0|(valor[valor[0]-(j-i)]&0x0F));	
 8638              		.loc 1 1661 0 is_stmt 1 discriminator 3
 8639 00e6 C4EB0806 		rsb	r6, r4, r8
 8640 00ea 3744     		add	r7, r7, r6
 8641 00ec D65D     		ldrb	r6, [r2, r7]	@ zero_extendqisi2
 8642 00ee 06AF     		add	r7, sp, #24
 8643 00f0 2744     		add	r7, r7, r4
 8644 00f2 06F00F06 		and	r6, r6, #15
 8645 00f6 66F01F06 		orn	r6, r6, #31
 8646 00fa 07F8146C 		strb	r6, [r7, #-20]
1660:.\protocolo.c **** 			buffer[j]=(0xE0|(valor[valor[0]-(j-i)]&0x0F));	
 8647              		.loc 1 1660 0 discriminator 3
 8648 00fe 0134     		adds	r4, r4, #1
 8649              	.LVL600:
 8650 0100 E4B2     		uxtb	r4, r4
 8651              	.LVL601:
 8652              	.L644:
1660:.\protocolo.c **** 			buffer[j]=(0xE0|(valor[valor[0]-(j-i)]&0x0F));	
 8653              		.loc 1 1660 0 is_stmt 0 discriminator 1
 8654 0102 1778     		ldrb	r7, [r2]	@ zero_extendqisi2
 8655 0104 08EB0706 		add	r6, r8, r7
 8656 0108 B442     		cmp	r4, r6
 8657 010a ECDB     		blt	.L645
 8658 010c 07E0     		b	.L646
 8659              	.LVL602:
 8660              	.L647:
1662:.\protocolo.c **** 		}
1663:.\protocolo.c **** 		for(i=j;i<=10;i++){
1664:.\protocolo.c **** 			buffer[i]=0xE0;
 8661              		.loc 1 1664 0 is_stmt 1 discriminator 3
 8662 010e 06AE     		add	r6, sp, #24
 8663 0110 2644     		add	r6, r6, r4
 8664 0112 4FF0E008 		mov	r8, #224
 8665 0116 06F8148C 		strb	r8, [r6, #-20]
1663:.\protocolo.c **** 			buffer[i]=0xE0;
 8666              		.loc 1 1663 0 discriminator 3
 8667 011a 0134     		adds	r4, r4, #1
ARM GAS  C:\Users\diego\AppData\Local\Temp\ccwBHTp3.s 			page 190


 8668              	.LVL603:
 8669 011c E4B2     		uxtb	r4, r4
 8670              	.LVL604:
 8671              	.L646:
1663:.\protocolo.c **** 			buffer[i]=0xE0;
 8672              		.loc 1 1663 0 is_stmt 0 discriminator 1
 8673 011e 0A2C     		cmp	r4, #10
 8674 0120 F5D9     		bls	.L647
1665:.\protocolo.c **** 		}
1666:.\protocolo.c **** 		buffer[11]=0xFB;
 8675              		.loc 1 1666 0 is_stmt 1
 8676 0122 FB24     		movs	r4, #251
 8677              	.LVL605:
 8678 0124 8DF80F40 		strb	r4, [sp, #15]
1667:.\protocolo.c **** 		buffer[12]=0;
 8679              		.loc 1 1667 0
 8680 0128 0024     		movs	r4, #0
 8681 012a 8DF81040 		strb	r4, [sp, #16]
 8682              	.LVL606:
1668:.\protocolo.c **** 		for(i=0;i<=11;i++){
 8683              		.loc 1 1668 0
 8684 012e 0CE0     		b	.L648
 8685              	.LVL607:
 8686              	.L649:
1669:.\protocolo.c **** 			buffer[12]+=(buffer[i]&0x0F);	
 8687              		.loc 1 1669 0 discriminator 3
 8688 0130 06AE     		add	r6, sp, #24
 8689 0132 2644     		add	r6, r6, r4
 8690 0134 16F8146C 		ldrb	r6, [r6, #-20]	@ zero_extendqisi2
 8691 0138 06F00F06 		and	r6, r6, #15
 8692 013c 9DF81080 		ldrb	r8, [sp, #16]	@ zero_extendqisi2
 8693 0140 4644     		add	r6, r6, r8
 8694 0142 8DF81060 		strb	r6, [sp, #16]
1668:.\protocolo.c **** 		for(i=0;i<=11;i++){
 8695              		.loc 1 1668 0 discriminator 3
 8696 0146 0134     		adds	r4, r4, #1
 8697              	.LVL608:
 8698 0148 E4B2     		uxtb	r4, r4
 8699              	.LVL609:
 8700              	.L648:
1668:.\protocolo.c **** 		for(i=0;i<=11;i++){
 8701              		.loc 1 1668 0 is_stmt 0 discriminator 1
 8702 014a 0B2C     		cmp	r4, #11
 8703 014c F0D9     		bls	.L649
1670:.\protocolo.c **** 		}
1671:.\protocolo.c **** 		buffer[12]=(((~buffer[12])+1)&0x0F)|0xE0;
 8704              		.loc 1 1671 0 is_stmt 1
 8705 014e 9DF81040 		ldrb	r4, [sp, #16]	@ zero_extendqisi2
 8706              	.LVL610:
 8707 0152 6442     		negs	r4, r4
 8708 0154 04F00F04 		and	r4, r4, #15
 8709 0158 64F01F04 		orn	r4, r4, #31
 8710 015c 8DF81040 		strb	r4, [sp, #16]
1672:.\protocolo.c **** 		buffer[13]=0xF0;
 8711              		.loc 1 1672 0
 8712 0160 F024     		movs	r4, #240
 8713 0162 8DF81140 		strb	r4, [sp, #17]
ARM GAS  C:\Users\diego\AppData\Local\Temp\ccwBHTp3.s 			page 191


 8714              	.LVL611:
1673:.\protocolo.c **** 		size=13;
1674:.\protocolo.c **** 		if(versurt==5){
 8715              		.loc 1 1674 0
 8716 0166 BCF1050F 		cmp	ip, #5
 8717 016a 23D1     		bne	.L687
1675:.\protocolo.c **** 			buffer[10]=0xFB;
 8718              		.loc 1 1675 0
 8719 016c FB24     		movs	r4, #251
 8720 016e 8DF80E40 		strb	r4, [sp, #14]
1676:.\protocolo.c **** 			buffer[11]=0;
 8721              		.loc 1 1676 0
 8722 0172 0024     		movs	r4, #0
 8723 0174 8DF80F40 		strb	r4, [sp, #15]
 8724              	.LVL612:
1677:.\protocolo.c **** 			for(i=0;i<=10;i++){
 8725              		.loc 1 1677 0
 8726 0178 0CE0     		b	.L651
 8727              	.LVL613:
 8728              	.L652:
1678:.\protocolo.c **** 				buffer[11]+=(buffer[i]&0x0F);	
 8729              		.loc 1 1678 0 discriminator 3
 8730 017a 06AE     		add	r6, sp, #24
 8731 017c 2644     		add	r6, r6, r4
 8732 017e 16F8146C 		ldrb	r6, [r6, #-20]	@ zero_extendqisi2
 8733 0182 06F00F06 		and	r6, r6, #15
 8734 0186 9DF80FC0 		ldrb	ip, [sp, #15]	@ zero_extendqisi2
 8735 018a 6644     		add	r6, r6, ip
 8736 018c 8DF80F60 		strb	r6, [sp, #15]
1677:.\protocolo.c **** 			for(i=0;i<=10;i++){
 8737              		.loc 1 1677 0 discriminator 3
 8738 0190 0134     		adds	r4, r4, #1
 8739              	.LVL614:
 8740 0192 E4B2     		uxtb	r4, r4
 8741              	.LVL615:
 8742              	.L651:
1677:.\protocolo.c **** 			for(i=0;i<=10;i++){
 8743              		.loc 1 1677 0 is_stmt 0 discriminator 1
 8744 0194 0A2C     		cmp	r4, #10
 8745 0196 F0D9     		bls	.L652
1679:.\protocolo.c **** 			}
1680:.\protocolo.c **** 			buffer[11]=(((~buffer[11])+1)&0x0F)|0xE0;
 8746              		.loc 1 1680 0 is_stmt 1
 8747 0198 9DF80F40 		ldrb	r4, [sp, #15]	@ zero_extendqisi2
 8748              	.LVL616:
 8749 019c 6442     		negs	r4, r4
 8750 019e 04F00F04 		and	r4, r4, #15
 8751 01a2 64F01F04 		orn	r4, r4, #31
 8752 01a6 8DF80F40 		strb	r4, [sp, #15]
1681:.\protocolo.c **** 			buffer[12]=0xF0;
 8753              		.loc 1 1681 0
 8754 01aa F024     		movs	r4, #240
 8755 01ac 8DF81040 		strb	r4, [sp, #16]
 8756              	.LVL617:
1682:.\protocolo.c **** 			size=12;		
 8757              		.loc 1 1682 0
 8758 01b0 0C26     		movs	r6, #12
ARM GAS  C:\Users\diego\AppData\Local\Temp\ccwBHTp3.s 			page 192


 8759 01b2 00E0     		b	.L650
 8760              	.LVL618:
 8761              	.L687:
1673:.\protocolo.c **** 		if(versurt==5){
 8762              		.loc 1 1673 0
 8763 01b4 0D26     		movs	r6, #13
 8764              	.LVL619:
 8765              	.L650:
1683:.\protocolo.c **** 		}
1684:.\protocolo.c **** 		if(preset==1){
 8766              		.loc 1 1684 0
 8767 01b6 012B     		cmp	r3, #1
 8768 01b8 62D1     		bne	.L641
1685:.\protocolo.c **** 			if(decimal==3){
 8769              		.loc 1 1685 0
 8770 01ba 032D     		cmp	r5, #3
 8771 01bc 03D1     		bne	.L653
1686:.\protocolo.c **** 				valor[0]=valor[0]-1;
 8772              		.loc 1 1686 0
 8773 01be 013F     		subs	r7, r7, #1
 8774 01c0 1770     		strb	r7, [r2]
1687:.\protocolo.c **** 				decimal=decimal-1;
 8775              		.loc 1 1687 0
 8776 01c2 013D     		subs	r5, r5, #1
 8777              	.LVL620:
 8778 01c4 EDB2     		uxtb	r5, r5
 8779              	.LVL621:
 8780              	.L653:
1688:.\protocolo.c **** 			}
1689:.\protocolo.c **** 			buffer[4]=0xF6;
 8781              		.loc 1 1689 0
 8782 01c6 F624     		movs	r4, #246
 8783 01c8 8DF80840 		strb	r4, [sp, #8]
1690:.\protocolo.c **** 			buffer[5]=(0xE0|(grado-1));
 8784              		.loc 1 1690 0
 8785 01cc 4C1E     		subs	r4, r1, #1
 8786 01ce 64F01F04 		orn	r4, r4, #31
 8787 01d2 8DF80940 		strb	r4, [sp, #9]
1691:.\protocolo.c **** 			buffer[6]=0xF8;
 8788              		.loc 1 1691 0
 8789 01d6 F824     		movs	r4, #248
 8790 01d8 8DF80A40 		strb	r4, [sp, #10]
 8791              	.LVL622:
1692:.\protocolo.c **** 			for(i=7;i<((7+(decimalV-1))-decimal);i++){
 8792              		.loc 1 1692 0
 8793 01dc 0724     		movs	r4, #7
 8794 01de 06E0     		b	.L654
 8795              	.LVL623:
 8796              	.L655:
1693:.\protocolo.c **** 				buffer[i]=0xE0;
 8797              		.loc 1 1693 0 discriminator 3
 8798 01e0 06AE     		add	r6, sp, #24
 8799 01e2 2644     		add	r6, r6, r4
 8800 01e4 E027     		movs	r7, #224
 8801 01e6 06F8147C 		strb	r7, [r6, #-20]
1692:.\protocolo.c **** 			for(i=7;i<((7+(decimalV-1))-decimal);i++){
 8802              		.loc 1 1692 0 discriminator 3
ARM GAS  C:\Users\diego\AppData\Local\Temp\ccwBHTp3.s 			page 193


 8803 01ea 0134     		adds	r4, r4, #1
 8804              	.LVL624:
 8805 01ec E4B2     		uxtb	r4, r4
 8806              	.LVL625:
 8807              	.L654:
1692:.\protocolo.c **** 			for(i=7;i<((7+(decimalV-1))-decimal);i++){
 8808              		.loc 1 1692 0 is_stmt 0 discriminator 1
 8809 01ee 2746     		mov	r7, r4
 8810 01f0 4C4E     		ldr	r6, .L693+8
 8811 01f2 3678     		ldrb	r6, [r6]	@ zero_extendqisi2
 8812 01f4 0636     		adds	r6, r6, #6
 8813 01f6 761B     		subs	r6, r6, r5
 8814 01f8 B442     		cmp	r4, r6
 8815 01fa F1DB     		blt	.L655
 8816 01fc 0DE0     		b	.L656
 8817              	.LVL626:
 8818              	.L657:
1694:.\protocolo.c **** 			}
1695:.\protocolo.c **** 			for(j=i;j<(i+valor[0]);j++){
1696:.\protocolo.c **** 				buffer[j]=(0xE0|(valor[valor[0]-(j-i)]&0x0F));	
 8819              		.loc 1 1696 0 is_stmt 1 discriminator 3
 8820 01fe 3E1B     		subs	r6, r7, r4
 8821 0200 6644     		add	r6, r6, ip
 8822 0202 965D     		ldrb	r6, [r2, r6]	@ zero_extendqisi2
 8823 0204 0DF1180C 		add	ip, sp, #24
 8824 0208 A444     		add	ip, ip, r4
 8825 020a 06F00F06 		and	r6, r6, #15
 8826 020e 66F01F06 		orn	r6, r6, #31
 8827 0212 0CF8146C 		strb	r6, [ip, #-20]
1695:.\protocolo.c **** 				buffer[j]=(0xE0|(valor[valor[0]-(j-i)]&0x0F));	
 8828              		.loc 1 1695 0 discriminator 3
 8829 0216 0134     		adds	r4, r4, #1
 8830              	.LVL627:
 8831 0218 E4B2     		uxtb	r4, r4
 8832              	.LVL628:
 8833              	.L656:
1695:.\protocolo.c **** 				buffer[j]=(0xE0|(valor[valor[0]-(j-i)]&0x0F));	
 8834              		.loc 1 1695 0 is_stmt 0 discriminator 1
 8835 021a 92F800C0 		ldrb	ip, [r2]	@ zero_extendqisi2
 8836 021e 07EB0C06 		add	r6, r7, ip
 8837 0222 B442     		cmp	r4, r6
 8838 0224 EBDB     		blt	.L657
 8839 0226 06E0     		b	.L658
 8840              	.LVL629:
 8841              	.L659:
1697:.\protocolo.c **** 			}
1698:.\protocolo.c **** 			for(i=j;i<=11;i++){
1699:.\protocolo.c **** 				buffer[i]=0xE0;
 8842              		.loc 1 1699 0 is_stmt 1 discriminator 3
 8843 0228 06AE     		add	r6, sp, #24
 8844 022a 2644     		add	r6, r6, r4
 8845 022c E027     		movs	r7, #224
 8846 022e 06F8147C 		strb	r7, [r6, #-20]
1698:.\protocolo.c **** 				buffer[i]=0xE0;
 8847              		.loc 1 1698 0 discriminator 3
 8848 0232 0134     		adds	r4, r4, #1
 8849              	.LVL630:
ARM GAS  C:\Users\diego\AppData\Local\Temp\ccwBHTp3.s 			page 194


 8850 0234 E4B2     		uxtb	r4, r4
 8851              	.LVL631:
 8852              	.L658:
1698:.\protocolo.c **** 				buffer[i]=0xE0;
 8853              		.loc 1 1698 0 is_stmt 0 discriminator 1
 8854 0236 0B2C     		cmp	r4, #11
 8855 0238 F6D9     		bls	.L659
1700:.\protocolo.c **** 			}			
1701:.\protocolo.c **** 			buffer[12]=0xFB;
 8856              		.loc 1 1701 0 is_stmt 1
 8857 023a FB24     		movs	r4, #251
 8858              	.LVL632:
 8859 023c 8DF81040 		strb	r4, [sp, #16]
1702:.\protocolo.c **** 			buffer[13]=0;
 8860              		.loc 1 1702 0
 8861 0240 0024     		movs	r4, #0
 8862 0242 8DF81140 		strb	r4, [sp, #17]
 8863              	.LVL633:
1703:.\protocolo.c **** 			for(i=0;i<=12;i++){
 8864              		.loc 1 1703 0
 8865 0246 0CE0     		b	.L660
 8866              	.LVL634:
 8867              	.L661:
1704:.\protocolo.c **** 				buffer[13]+=(buffer[i]&0x0F);	
 8868              		.loc 1 1704 0 discriminator 3
 8869 0248 06AE     		add	r6, sp, #24
 8870 024a 2644     		add	r6, r6, r4
 8871 024c 16F8146C 		ldrb	r6, [r6, #-20]	@ zero_extendqisi2
 8872 0250 06F00F06 		and	r6, r6, #15
 8873 0254 9DF81170 		ldrb	r7, [sp, #17]	@ zero_extendqisi2
 8874 0258 3E44     		add	r6, r6, r7
 8875 025a 8DF81160 		strb	r6, [sp, #17]
1703:.\protocolo.c **** 			for(i=0;i<=12;i++){
 8876              		.loc 1 1703 0 discriminator 3
 8877 025e 0134     		adds	r4, r4, #1
 8878              	.LVL635:
 8879 0260 E4B2     		uxtb	r4, r4
 8880              	.LVL636:
 8881              	.L660:
1703:.\protocolo.c **** 			for(i=0;i<=12;i++){
 8882              		.loc 1 1703 0 is_stmt 0 discriminator 1
 8883 0262 0C2C     		cmp	r4, #12
 8884 0264 F0D9     		bls	.L661
1705:.\protocolo.c **** 			}
1706:.\protocolo.c **** 			buffer[13]=(((~buffer[13])+1)&0x0F)|0xE0;			
 8885              		.loc 1 1706 0 is_stmt 1
 8886 0266 9DF81140 		ldrb	r4, [sp, #17]	@ zero_extendqisi2
 8887              	.LVL637:
 8888 026a 6442     		negs	r4, r4
 8889 026c 04F00F04 		and	r4, r4, #15
 8890 0270 64F01F04 		orn	r4, r4, #31
 8891 0274 8DF81140 		strb	r4, [sp, #17]
1707:.\protocolo.c **** 			buffer[14]=0xF0;
 8892              		.loc 1 1707 0
 8893 0278 F024     		movs	r4, #240
 8894 027a 8DF81240 		strb	r4, [sp, #18]
 8895              	.LVL638:
ARM GAS  C:\Users\diego\AppData\Local\Temp\ccwBHTp3.s 			page 195


1708:.\protocolo.c **** 			size=14;
 8896              		.loc 1 1708 0
 8897 027e 0E26     		movs	r6, #14
 8898              	.LVL639:
 8899              	.L641:
1709:.\protocolo.c **** 		}	
1710:.\protocolo.c **** 	}	
1711:.\protocolo.c **** 	if(versurt==7){
 8900              		.loc 1 1711 0
 8901 0280 264C     		ldr	r4, .L693
 8902 0282 2478     		ldrb	r4, [r4]	@ zero_extendqisi2
 8903 0284 072C     		cmp	r4, #7
 8904 0286 40F0C780 		bne	.L662
1712:.\protocolo.c **** 		buffer[0]=0xFF;
 8905              		.loc 1 1712 0
 8906 028a FF24     		movs	r4, #255
 8907 028c 8DF80440 		strb	r4, [sp, #4]
1713:.\protocolo.c **** 		buffer[1]=(0xE0|temp);
 8908              		.loc 1 1713 0
 8909 0290 6EF01F0E 		orn	lr, lr, #31
 8910              	.LVL640:
 8911 0294 8DF805E0 		strb	lr, [sp, #5]
1714:.\protocolo.c **** 		buffer[2]=(0xF0|preset);
 8912              		.loc 1 1714 0
 8913 0298 63F00F04 		orn	r4, r3, #15
 8914 029c 8DF80640 		strb	r4, [sp, #6]
1715:.\protocolo.c **** 		buffer[3]=0xF4;
 8915              		.loc 1 1715 0
 8916 02a0 F424     		movs	r4, #244
 8917 02a2 8DF80740 		strb	r4, [sp, #7]
1716:.\protocolo.c **** 		buffer[4]=0xF8;	
 8918              		.loc 1 1716 0
 8919 02a6 F824     		movs	r4, #248
 8920 02a8 8DF80840 		strb	r4, [sp, #8]
 8921              	.LVL641:
1717:.\protocolo.c **** 		for(i=5;i<((5+decimalD)-decimal);i++){
 8922              		.loc 1 1717 0
 8923 02ac 0524     		movs	r4, #5
 8924 02ae 06E0     		b	.L663
 8925              	.LVL642:
 8926              	.L664:
1718:.\protocolo.c **** 			buffer[i]=0xE0;
 8927              		.loc 1 1718 0 discriminator 3
 8928 02b0 06AE     		add	r6, sp, #24
 8929 02b2 2644     		add	r6, r6, r4
 8930 02b4 E027     		movs	r7, #224
 8931 02b6 06F8147C 		strb	r7, [r6, #-20]
1717:.\protocolo.c **** 		for(i=5;i<((5+decimalD)-decimal);i++){
 8932              		.loc 1 1717 0 discriminator 3
 8933 02ba 0134     		adds	r4, r4, #1
 8934              	.LVL643:
 8935 02bc E4B2     		uxtb	r4, r4
 8936              	.LVL644:
 8937              	.L663:
1717:.\protocolo.c **** 		for(i=5;i<((5+decimalD)-decimal);i++){
 8938              		.loc 1 1717 0 is_stmt 0 discriminator 1
 8939 02be A646     		mov	lr, r4
ARM GAS  C:\Users\diego\AppData\Local\Temp\ccwBHTp3.s 			page 196


 8940 02c0 174E     		ldr	r6, .L693+4
 8941 02c2 3678     		ldrb	r6, [r6]	@ zero_extendqisi2
 8942 02c4 0536     		adds	r6, r6, #5
 8943 02c6 2F46     		mov	r7, r5
 8944 02c8 761B     		subs	r6, r6, r5
 8945 02ca B442     		cmp	r4, r6
 8946 02cc F0DB     		blt	.L664
 8947 02ce 0DE0     		b	.L665
 8948              	.LVL645:
 8949              	.L666:
1719:.\protocolo.c **** 		}
1720:.\protocolo.c **** 		for(j=i;j<(i+valor[0]);j++){
1721:.\protocolo.c **** 			buffer[j]=(0xE0|(valor[valor[0]-(j-i)]&0x0F));	
 8950              		.loc 1 1721 0 is_stmt 1 discriminator 3
 8951 02d0 C4EB0E05 		rsb	r5, r4, lr
 8952 02d4 2E44     		add	r6, r6, r5
 8953 02d6 955D     		ldrb	r5, [r2, r6]	@ zero_extendqisi2
 8954 02d8 06AE     		add	r6, sp, #24
 8955 02da 2644     		add	r6, r6, r4
 8956 02dc 05F00F05 		and	r5, r5, #15
 8957 02e0 65F01F05 		orn	r5, r5, #31
 8958 02e4 06F8145C 		strb	r5, [r6, #-20]
1720:.\protocolo.c **** 			buffer[j]=(0xE0|(valor[valor[0]-(j-i)]&0x0F));	
 8959              		.loc 1 1720 0 discriminator 3
 8960 02e8 0134     		adds	r4, r4, #1
 8961              	.LVL646:
 8962 02ea E4B2     		uxtb	r4, r4
 8963              	.LVL647:
 8964              	.L665:
1720:.\protocolo.c **** 			buffer[j]=(0xE0|(valor[valor[0]-(j-i)]&0x0F));	
 8965              		.loc 1 1720 0 is_stmt 0 discriminator 1
 8966 02ec 1678     		ldrb	r6, [r2]	@ zero_extendqisi2
 8967 02ee 0EEB0605 		add	r5, lr, r6
 8968 02f2 AC42     		cmp	r4, r5
 8969 02f4 ECDB     		blt	.L666
 8970 02f6 07E0     		b	.L667
 8971              	.LVL648:
 8972              	.L668:
1722:.\protocolo.c **** 		}
1723:.\protocolo.c **** 		for(i=j;i<=12;i++){
1724:.\protocolo.c **** 			buffer[i]=0xE0;
 8973              		.loc 1 1724 0 is_stmt 1 discriminator 3
 8974 02f8 06AD     		add	r5, sp, #24
 8975 02fa 2544     		add	r5, r5, r4
 8976 02fc 4FF0E00E 		mov	lr, #224
 8977 0300 05F814EC 		strb	lr, [r5, #-20]
1723:.\protocolo.c **** 			buffer[i]=0xE0;
 8978              		.loc 1 1723 0 discriminator 3
 8979 0304 0134     		adds	r4, r4, #1
 8980              	.LVL649:
 8981 0306 E4B2     		uxtb	r4, r4
 8982              	.LVL650:
 8983              	.L667:
1723:.\protocolo.c **** 			buffer[i]=0xE0;
 8984              		.loc 1 1723 0 is_stmt 0 discriminator 1
 8985 0308 0C2C     		cmp	r4, #12
 8986 030a F5D9     		bls	.L668
ARM GAS  C:\Users\diego\AppData\Local\Temp\ccwBHTp3.s 			page 197


1725:.\protocolo.c **** 		}
1726:.\protocolo.c **** 		buffer[13]=0xFB;
 8987              		.loc 1 1726 0 is_stmt 1
 8988 030c FB24     		movs	r4, #251
 8989              	.LVL651:
 8990 030e 8DF81140 		strb	r4, [sp, #17]
1727:.\protocolo.c **** 		buffer[14]=0;
 8991              		.loc 1 1727 0
 8992 0312 0024     		movs	r4, #0
 8993 0314 8DF81240 		strb	r4, [sp, #18]
 8994              	.LVL652:
1728:.\protocolo.c **** 		for(i=0;i<=13;i++){
 8995              		.loc 1 1728 0
 8996 0318 13E0     		b	.L669
 8997              	.L694:
 8998 031a 00BF     		.align	2
 8999              	.L693:
 9000 031c 00000000 		.word	versurt
 9001 0320 00000000 		.word	decimalD
 9002 0324 00000000 		.word	decimalV
 9003              	.LVL653:
 9004              	.L670:
1729:.\protocolo.c **** 			buffer[14]+=(buffer[i]&0x0F);	
 9005              		.loc 1 1729 0 discriminator 3
 9006 0328 06AD     		add	r5, sp, #24
 9007 032a 2544     		add	r5, r5, r4
 9008 032c 15F8145C 		ldrb	r5, [r5, #-20]	@ zero_extendqisi2
 9009 0330 05F00F05 		and	r5, r5, #15
 9010 0334 9DF812E0 		ldrb	lr, [sp, #18]	@ zero_extendqisi2
 9011 0338 7544     		add	r5, r5, lr
 9012 033a 8DF81250 		strb	r5, [sp, #18]
1728:.\protocolo.c **** 		for(i=0;i<=13;i++){
 9013              		.loc 1 1728 0 discriminator 3
 9014 033e 0134     		adds	r4, r4, #1
 9015              	.LVL654:
 9016 0340 E4B2     		uxtb	r4, r4
 9017              	.LVL655:
 9018              	.L669:
1728:.\protocolo.c **** 		for(i=0;i<=13;i++){
 9019              		.loc 1 1728 0 is_stmt 0 discriminator 1
 9020 0342 0D2C     		cmp	r4, #13
 9021 0344 F0D9     		bls	.L670
1730:.\protocolo.c **** 		}
1731:.\protocolo.c **** 		buffer[14]=(((~buffer[14])+1)&0x0F)|0xE0;
 9022              		.loc 1 1731 0 is_stmt 1
 9023 0346 9DF81240 		ldrb	r4, [sp, #18]	@ zero_extendqisi2
 9024              	.LVL656:
 9025 034a 6442     		negs	r4, r4
 9026 034c 04F00F04 		and	r4, r4, #15
 9027 0350 64F01F04 		orn	r4, r4, #31
 9028 0354 8DF81240 		strb	r4, [sp, #18]
1732:.\protocolo.c **** 		buffer[15]=0xF0;
 9029              		.loc 1 1732 0
 9030 0358 F024     		movs	r4, #240
 9031 035a 8DF81340 		strb	r4, [sp, #19]
 9032              	.LVL657:
1733:.\protocolo.c **** 		size=15;
ARM GAS  C:\Users\diego\AppData\Local\Temp\ccwBHTp3.s 			page 198


1734:.\protocolo.c **** 		if(preset==1){
 9033              		.loc 1 1734 0
 9034 035e 012B     		cmp	r3, #1
 9035 0360 59D1     		bne	.L688
1735:.\protocolo.c **** 			buffer[4]=0xF6;
 9036              		.loc 1 1735 0
 9037 0362 F623     		movs	r3, #246
 9038              	.LVL658:
 9039 0364 8DF80830 		strb	r3, [sp, #8]
1736:.\protocolo.c **** 			buffer[5]=(0xE0|(grado-1));
 9040              		.loc 1 1736 0
 9041 0368 4B1E     		subs	r3, r1, #1
 9042 036a 63F01F03 		orn	r3, r3, #31
 9043 036e 8DF80930 		strb	r3, [sp, #9]
1737:.\protocolo.c **** 			buffer[6]=0xF8;
 9044              		.loc 1 1737 0
 9045 0372 F823     		movs	r3, #248
 9046 0374 8DF80A30 		strb	r3, [sp, #10]
 9047              	.LVL659:
1738:.\protocolo.c **** 			for(i=7;i<((7+decimalV)-decimal);i++){
 9048              		.loc 1 1738 0
 9049 0378 0723     		movs	r3, #7
 9050 037a 06E0     		b	.L671
 9051              	.LVL660:
 9052              	.L672:
1739:.\protocolo.c **** 				buffer[i]=0xE0;
 9053              		.loc 1 1739 0 discriminator 3
 9054 037c 06A9     		add	r1, sp, #24
 9055 037e 1944     		add	r1, r1, r3
 9056 0380 E024     		movs	r4, #224
 9057 0382 01F8144C 		strb	r4, [r1, #-20]
1738:.\protocolo.c **** 			for(i=7;i<((7+decimalV)-decimal);i++){
 9058              		.loc 1 1738 0 discriminator 3
 9059 0386 0133     		adds	r3, r3, #1
 9060              	.LVL661:
 9061 0388 DBB2     		uxtb	r3, r3
 9062              	.LVL662:
 9063              	.L671:
1738:.\protocolo.c **** 			for(i=7;i<((7+decimalV)-decimal);i++){
 9064              		.loc 1 1738 0 is_stmt 0 discriminator 1
 9065 038a 1C46     		mov	r4, r3
 9066 038c 3C49     		ldr	r1, .L695
 9067 038e 0978     		ldrb	r1, [r1]	@ zero_extendqisi2
 9068 0390 0731     		adds	r1, r1, #7
 9069 0392 C91B     		subs	r1, r1, r7
 9070 0394 8B42     		cmp	r3, r1
 9071 0396 F1DB     		blt	.L672
 9072 0398 0CE0     		b	.L673
 9073              	.LVL663:
 9074              	.L674:
1740:.\protocolo.c **** 			}
1741:.\protocolo.c **** 			for(j=i;j<(i+valor[0]);j++){
1742:.\protocolo.c **** 				buffer[j]=(0xE0|(valor[valor[0]-(j-i)]&0x0F));	
 9075              		.loc 1 1742 0 is_stmt 1 discriminator 3
 9076 039a E11A     		subs	r1, r4, r3
 9077 039c 3144     		add	r1, r1, r6
 9078 039e 515C     		ldrb	r1, [r2, r1]	@ zero_extendqisi2
ARM GAS  C:\Users\diego\AppData\Local\Temp\ccwBHTp3.s 			page 199


 9079 03a0 06AD     		add	r5, sp, #24
 9080 03a2 1D44     		add	r5, r5, r3
 9081 03a4 01F00F01 		and	r1, r1, #15
 9082 03a8 61F01F01 		orn	r1, r1, #31
 9083 03ac 05F8141C 		strb	r1, [r5, #-20]
1741:.\protocolo.c **** 				buffer[j]=(0xE0|(valor[valor[0]-(j-i)]&0x0F));	
 9084              		.loc 1 1741 0 discriminator 3
 9085 03b0 0133     		adds	r3, r3, #1
 9086              	.LVL664:
 9087 03b2 DBB2     		uxtb	r3, r3
 9088              	.LVL665:
 9089              	.L673:
1741:.\protocolo.c **** 				buffer[j]=(0xE0|(valor[valor[0]-(j-i)]&0x0F));	
 9090              		.loc 1 1741 0 is_stmt 0 discriminator 1
 9091 03b4 3119     		adds	r1, r6, r4
 9092 03b6 8B42     		cmp	r3, r1
 9093 03b8 EFDB     		blt	.L674
 9094 03ba 06E0     		b	.L675
 9095              	.LVL666:
 9096              	.L676:
1743:.\protocolo.c **** 			}
1744:.\protocolo.c **** 			for(i=j;i<=14;i++){
1745:.\protocolo.c **** 				buffer[i]=0xE0;
 9097              		.loc 1 1745 0 is_stmt 1 discriminator 3
 9098 03bc 06AA     		add	r2, sp, #24
 9099 03be 1A44     		add	r2, r2, r3
 9100 03c0 E021     		movs	r1, #224
 9101 03c2 02F8141C 		strb	r1, [r2, #-20]
1744:.\protocolo.c **** 				buffer[i]=0xE0;
 9102              		.loc 1 1744 0 discriminator 3
 9103 03c6 0133     		adds	r3, r3, #1
 9104              	.LVL667:
 9105 03c8 DBB2     		uxtb	r3, r3
 9106              	.LVL668:
 9107              	.L675:
1744:.\protocolo.c **** 				buffer[i]=0xE0;
 9108              		.loc 1 1744 0 is_stmt 0 discriminator 1
 9109 03ca 0E2B     		cmp	r3, #14
 9110 03cc F6D9     		bls	.L676
1746:.\protocolo.c **** 			}			
1747:.\protocolo.c **** 			buffer[15]=0xFB;
 9111              		.loc 1 1747 0 is_stmt 1
 9112 03ce FB23     		movs	r3, #251
 9113              	.LVL669:
 9114 03d0 8DF81330 		strb	r3, [sp, #19]
1748:.\protocolo.c **** 			buffer[16]=0;
 9115              		.loc 1 1748 0
 9116 03d4 0023     		movs	r3, #0
 9117 03d6 8DF81430 		strb	r3, [sp, #20]
 9118              	.LVL670:
1749:.\protocolo.c **** 			for(i=0;i<=15;i++){
 9119              		.loc 1 1749 0
 9120 03da 0CE0     		b	.L677
 9121              	.LVL671:
 9122              	.L678:
1750:.\protocolo.c **** 				buffer[16]+=(buffer[i]&0x0F);	
 9123              		.loc 1 1750 0 discriminator 3
ARM GAS  C:\Users\diego\AppData\Local\Temp\ccwBHTp3.s 			page 200


 9124 03dc 06AA     		add	r2, sp, #24
 9125 03de 1A44     		add	r2, r2, r3
 9126 03e0 12F8142C 		ldrb	r2, [r2, #-20]	@ zero_extendqisi2
 9127 03e4 02F00F02 		and	r2, r2, #15
 9128 03e8 9DF81410 		ldrb	r1, [sp, #20]	@ zero_extendqisi2
 9129 03ec 0A44     		add	r2, r2, r1
 9130 03ee 8DF81420 		strb	r2, [sp, #20]
1749:.\protocolo.c **** 			for(i=0;i<=15;i++){
 9131              		.loc 1 1749 0 discriminator 3
 9132 03f2 0133     		adds	r3, r3, #1
 9133              	.LVL672:
 9134 03f4 DBB2     		uxtb	r3, r3
 9135              	.LVL673:
 9136              	.L677:
1749:.\protocolo.c **** 			for(i=0;i<=15;i++){
 9137              		.loc 1 1749 0 is_stmt 0 discriminator 1
 9138 03f6 0F2B     		cmp	r3, #15
 9139 03f8 F0D9     		bls	.L678
1751:.\protocolo.c **** 			}
1752:.\protocolo.c **** 			buffer[16]=(((~buffer[16])+1)&0x0F)|0xE0;			
 9140              		.loc 1 1752 0 is_stmt 1
 9141 03fa 9DF81430 		ldrb	r3, [sp, #20]	@ zero_extendqisi2
 9142              	.LVL674:
 9143 03fe 5B42     		negs	r3, r3
 9144 0400 03F00F03 		and	r3, r3, #15
 9145 0404 63F01F03 		orn	r3, r3, #31
 9146 0408 8DF81430 		strb	r3, [sp, #20]
1753:.\protocolo.c **** 			buffer[17]=0xF0;
 9147              		.loc 1 1753 0
 9148 040c F023     		movs	r3, #240
 9149 040e 8DF81530 		strb	r3, [sp, #21]
 9150              	.LVL675:
1754:.\protocolo.c **** 			size=17;
 9151              		.loc 1 1754 0
 9152 0412 1126     		movs	r6, #17
 9153 0414 00E0     		b	.L662
 9154              	.LVL676:
 9155              	.L688:
1733:.\protocolo.c **** 		if(preset==1){
 9156              		.loc 1 1733 0
 9157 0416 0F26     		movs	r6, #15
 9158              	.LVL677:
 9159              	.L662:
 9160 0418 0446     		mov	r4, r0
 9161              	.LVL678:
1755:.\protocolo.c **** 		}		
1756:.\protocolo.c **** 	}	
1757:.\protocolo.c **** 	Surtidor_PutChar(0x20|dir);	
 9162              		.loc 1 1757 0
 9163 041a 40F02000 		orr	r0, r0, #32
 9164              	.LVL679:
 9165 041e FFF7FEFF 		bl	Surtidor_PutChar
 9166              	.LVL680:
1758:.\protocolo.c ****     CyDelay(50);
 9167              		.loc 1 1758 0
 9168 0422 3220     		movs	r0, #50
 9169 0424 FFF7FEFF 		bl	CyDelay
ARM GAS  C:\Users\diego\AppData\Local\Temp\ccwBHTp3.s 			page 201


 9170              	.LVL681:
1759:.\protocolo.c ****     if(Surtidor_GetRxBufferSize()>=1){
 9171              		.loc 1 1759 0
 9172 0428 FFF7FEFF 		bl	Surtidor_GetRxBufferSize
 9173              	.LVL682:
 9174 042c F0B1     		cbz	r0, .L689
1760:.\protocolo.c **** 		if(Surtidor_ReadRxData()==(0xD0|dir)){
 9175              		.loc 1 1760 0
 9176 042e FFF7FEFF 		bl	Surtidor_ReadRxData
 9177              	.LVL683:
 9178 0432 44F0D003 		orr	r3, r4, #208
 9179 0436 9842     		cmp	r0, r3
 9180 0438 1AD1     		bne	.L690
1761:.\protocolo.c ****             Surtidor_ClearRxBuffer();
 9181              		.loc 1 1761 0
 9182 043a FFF7FEFF 		bl	Surtidor_ClearRxBuffer
 9183              	.LVL684:
1762:.\protocolo.c ****             for(i=0;i<=size;i++){
 9184              		.loc 1 1762 0
 9185 043e 0025     		movs	r5, #0
 9186 0440 07E0     		b	.L679
 9187              	.LVL685:
 9188              	.L680:
1763:.\protocolo.c ****                	Surtidor_PutChar(buffer[i]);
 9189              		.loc 1 1763 0 discriminator 3
 9190 0442 06AB     		add	r3, sp, #24
 9191 0444 2B44     		add	r3, r3, r5
 9192 0446 13F8140C 		ldrb	r0, [r3, #-20]	@ zero_extendqisi2
 9193 044a FFF7FEFF 		bl	Surtidor_PutChar
 9194              	.LVL686:
1762:.\protocolo.c ****             for(i=0;i<=size;i++){
 9195              		.loc 1 1762 0 discriminator 3
 9196 044e 0135     		adds	r5, r5, #1
 9197              	.LVL687:
 9198 0450 EDB2     		uxtb	r5, r5
 9199              	.LVL688:
 9200              	.L679:
1762:.\protocolo.c ****             for(i=0;i<=size;i++){
 9201              		.loc 1 1762 0 is_stmt 0 discriminator 1
 9202 0452 B542     		cmp	r5, r6
 9203 0454 F5D9     		bls	.L680
1764:.\protocolo.c ****             }
1765:.\protocolo.c **** 			CyDelay(50);
 9204              		.loc 1 1765 0 is_stmt 1
 9205 0456 3220     		movs	r0, #50
 9206 0458 FFF7FEFF 		bl	CyDelay
 9207              	.LVL689:
1766:.\protocolo.c **** 			if(get_estado(dir)==0){
 9208              		.loc 1 1766 0
 9209 045c 2046     		mov	r0, r4
 9210 045e FFF7FEFF 		bl	get_estado
 9211              	.LVL690:
 9212 0462 0346     		mov	r3, r0
 9213 0464 30B9     		cbnz	r0, .L691
 9214 0466 06E0     		b	.L640
 9215              	.LVL691:
 9216              	.L686:
ARM GAS  C:\Users\diego\AppData\Local\Temp\ccwBHTp3.s 			page 202


1649:.\protocolo.c **** 	}	
 9217              		.loc 1 1649 0
 9218 0468 0023     		movs	r3, #0
 9219              	.LVL692:
 9220 046a 04E0     		b	.L640
 9221              	.LVL693:
 9222              	.L689:
1767:.\protocolo.c **** 				return 0;
1768:.\protocolo.c **** 			}
1769:.\protocolo.c **** 			else{
1770:.\protocolo.c **** 				return 1;
1771:.\protocolo.c **** 			}
1772:.\protocolo.c **** 		}
1773:.\protocolo.c **** 		else{
1774:.\protocolo.c **** 			return 0;
1775:.\protocolo.c **** 		}
1776:.\protocolo.c **** 	}
1777:.\protocolo.c **** 	else{
1778:.\protocolo.c **** 		return 0;	
 9223              		.loc 1 1778 0
 9224 046c 0023     		movs	r3, #0
 9225 046e 02E0     		b	.L640
 9226              	.L690:
1774:.\protocolo.c **** 		}
 9227              		.loc 1 1774 0
 9228 0470 0023     		movs	r3, #0
 9229 0472 00E0     		b	.L640
 9230              	.LVL694:
 9231              	.L691:
1770:.\protocolo.c **** 			}
 9232              		.loc 1 1770 0
 9233 0474 0123     		movs	r3, #1
 9234              	.LVL695:
 9235              	.L640:
1779:.\protocolo.c **** 	}
1780:.\protocolo.c **** }
 9236              		.loc 1 1780 0
 9237 0476 1846     		mov	r0, r3
 9238 0478 06B0     		add	sp, sp, #24
 9239              		.cfi_def_cfa_offset 24
 9240              		@ sp needed
 9241 047a BDE8F081 		pop	{r4, r5, r6, r7, r8, pc}
 9242              	.L696:
 9243 047e 00BF     		.align	2
 9244              	.L695:
 9245 0480 00000000 		.word	decimalV
 9246              		.cfi_endproc
 9247              	.LFE68:
 9248              		.size	programar, .-programar
 9249              		.section	.text.cambiar_precio,"ax",%progbits
 9250              		.align	2
 9251              		.global	cambiar_precio
 9252              		.thumb
 9253              		.thumb_func
 9254              		.type	cambiar_precio, %function
 9255              	cambiar_precio:
 9256              	.LFB69:
ARM GAS  C:\Users\diego\AppData\Local\Temp\ccwBHTp3.s 			page 203


1781:.\protocolo.c **** /*
1782:.\protocolo.c **** ***************************************************************************************************
1783:.\protocolo.c **** *                                         uint8 cambiar precio(uint8 dir)
1784:.\protocolo.c **** *
1785:.\protocolo.c **** * Description : 
1786:.\protocolo.c **** *               
1787:.\protocolo.c **** *
1788:.\protocolo.c **** * Argument(s) : none
1789:.\protocolo.c **** *
1790:.\protocolo.c **** * Return(s)   : none
1791:.\protocolo.c **** *
1792:.\protocolo.c **** * Caller(s)   : 
1793:.\protocolo.c **** *
1794:.\protocolo.c **** * Note(s)     : none.
1795:.\protocolo.c **** ***************************************************************************************************
1796:.\protocolo.c **** */
1797:.\protocolo.c **** uint8 cambiar_precio(uint8 dir){
 9257              		.loc 1 1797 0
 9258              		.cfi_startproc
 9259              		@ args = 0, pretend = 0, frame = 16
 9260              		@ frame_needed = 0, uses_anonymous_args = 0
 9261              	.LVL696:
 9262 0000 30B5     		push	{r4, r5, lr}
 9263              		.cfi_def_cfa_offset 12
 9264              		.cfi_offset 4, -12
 9265              		.cfi_offset 5, -8
 9266              		.cfi_offset 14, -4
 9267 0002 85B0     		sub	sp, sp, #20
 9268              		.cfi_def_cfa_offset 32
 9269 0004 0446     		mov	r4, r0
1798:.\protocolo.c **** 	uint8 buffer[15]={0,0,0,0,0,0,0,0,0,0,0,0,0,0,0},size;
 9270              		.loc 1 1798 0
 9271 0006 0023     		movs	r3, #0
 9272 0008 8DF80030 		strb	r3, [sp]
 9273 000c 8DF80130 		strb	r3, [sp, #1]
 9274 0010 8DF80230 		strb	r3, [sp, #2]
 9275 0014 8DF80330 		strb	r3, [sp, #3]
 9276 0018 8DF80430 		strb	r3, [sp, #4]
 9277 001c 8DF80530 		strb	r3, [sp, #5]
 9278 0020 8DF80630 		strb	r3, [sp, #6]
 9279 0024 8DF80730 		strb	r3, [sp, #7]
 9280 0028 8DF80830 		strb	r3, [sp, #8]
 9281 002c 8DF80930 		strb	r3, [sp, #9]
 9282 0030 8DF80A30 		strb	r3, [sp, #10]
 9283 0034 8DF80B30 		strb	r3, [sp, #11]
 9284 0038 8DF80C30 		strb	r3, [sp, #12]
 9285 003c 8DF80D30 		strb	r3, [sp, #13]
 9286 0040 8DF80E30 		strb	r3, [sp, #14]
1799:.\protocolo.c **** 	if(versurt!=7){
 9287              		.loc 1 1799 0
 9288 0044 984B     		ldr	r3, .L724
 9289 0046 1B78     		ldrb	r3, [r3]	@ zero_extendqisi2
 9290 0048 072B     		cmp	r3, #7
 9291 004a 00F08A80 		beq	.L698
1800:.\protocolo.c **** 		buffer[0]=0xFF;
 9292              		.loc 1 1800 0
 9293 004e FF23     		movs	r3, #255
ARM GAS  C:\Users\diego\AppData\Local\Temp\ccwBHTp3.s 			page 204


 9294 0050 8DF80030 		strb	r3, [sp]
1801:.\protocolo.c **** 		buffer[1]=0xE5;
 9295              		.loc 1 1801 0
 9296 0054 E523     		movs	r3, #229
 9297 0056 8DF80130 		strb	r3, [sp, #1]
1802:.\protocolo.c **** 		buffer[2]=0xF4;
 9298              		.loc 1 1802 0
 9299 005a F423     		movs	r3, #244
 9300 005c 8DF80230 		strb	r3, [sp, #2]
1803:.\protocolo.c **** 		buffer[3]=0xF6;
 9301              		.loc 1 1803 0
 9302 0060 F623     		movs	r3, #246
 9303 0062 8DF80330 		strb	r3, [sp, #3]
1804:.\protocolo.c **** 		buffer[4]=(0xE0|((rventa.producto&0x0f)-1));
 9304              		.loc 1 1804 0
 9305 0066 914B     		ldr	r3, .L724+4
 9306 0068 93F8A330 		ldrb	r3, [r3, #163]	@ zero_extendqisi2
 9307 006c 03F00F03 		and	r3, r3, #15
 9308 0070 013B     		subs	r3, r3, #1
 9309 0072 63F01F03 		orn	r3, r3, #31
 9310 0076 8DF80430 		strb	r3, [sp, #4]
1805:.\protocolo.c **** 		buffer[5]=0xF7;	
 9311              		.loc 1 1805 0
 9312 007a F723     		movs	r3, #247
 9313 007c 8DF80530 		strb	r3, [sp, #5]
1806:.\protocolo.c **** 		if(ppux10==0){
 9314              		.loc 1 1806 0
 9315 0080 8B4B     		ldr	r3, .L724+8
 9316 0082 1B78     		ldrb	r3, [r3]	@ zero_extendqisi2
 9317 0084 D3B9     		cbnz	r3, .L699
1807:.\protocolo.c **** 			for(x=6;x<(6+teclas1);x++){
 9318              		.loc 1 1807 0
 9319 0086 0622     		movs	r2, #6
 9320 0088 8A4B     		ldr	r3, .L724+12
 9321 008a 1A60     		str	r2, [r3]
 9322 008c 0EE0     		b	.L700
 9323              	.L701:
1808:.\protocolo.c **** 				buffer[x]=(0xE0|(Buffer_LCD1.valor[teclas1-(x-6)]&0x0F));
 9324              		.loc 1 1808 0 discriminator 3
 9325 008e D21A     		subs	r2, r2, r3
 9326 0090 8949     		ldr	r1, .L724+16
 9327 0092 0A44     		add	r2, r2, r1
 9328 0094 D27A     		ldrb	r2, [r2, #11]	@ zero_extendqisi2
 9329 0096 04A9     		add	r1, sp, #16
 9330 0098 1944     		add	r1, r1, r3
 9331 009a 02F00F02 		and	r2, r2, #15
 9332 009e 62F01F02 		orn	r2, r2, #31
 9333 00a2 01F8102C 		strb	r2, [r1, #-16]
1807:.\protocolo.c **** 			for(x=6;x<(6+teclas1);x++){
 9334              		.loc 1 1807 0 discriminator 3
 9335 00a6 0133     		adds	r3, r3, #1
 9336 00a8 824A     		ldr	r2, .L724+12
 9337 00aa 1360     		str	r3, [r2]
 9338              	.L700:
1807:.\protocolo.c **** 			for(x=6;x<(6+teclas1);x++){
 9339              		.loc 1 1807 0 is_stmt 0 discriminator 1
 9340 00ac 834B     		ldr	r3, .L724+20
ARM GAS  C:\Users\diego\AppData\Local\Temp\ccwBHTp3.s 			page 205


 9341 00ae 1A78     		ldrb	r2, [r3]	@ zero_extendqisi2
 9342 00b0 911D     		adds	r1, r2, #6
 9343 00b2 804B     		ldr	r3, .L724+12
 9344 00b4 1B68     		ldr	r3, [r3]
 9345 00b6 9942     		cmp	r1, r3
 9346 00b8 E9D8     		bhi	.L701
 9347 00ba 1CE0     		b	.L702
 9348              	.L699:
1809:.\protocolo.c **** 			}
1810:.\protocolo.c **** 		}
1811:.\protocolo.c **** 		else{
1812:.\protocolo.c **** 			teclas1=teclas1-1;
 9349              		.loc 1 1812 0 is_stmt 1
 9350 00bc 7F4B     		ldr	r3, .L724+20
 9351 00be 1978     		ldrb	r1, [r3]	@ zero_extendqisi2
 9352 00c0 0139     		subs	r1, r1, #1
 9353 00c2 C9B2     		uxtb	r1, r1
 9354 00c4 1970     		strb	r1, [r3]
1813:.\protocolo.c **** 			for(x=6;x<(6+teclas1);x++){
 9355              		.loc 1 1813 0
 9356 00c6 0622     		movs	r2, #6
 9357 00c8 7A4B     		ldr	r3, .L724+12
 9358 00ca 1A60     		str	r2, [r3]
 9359 00cc 0EE0     		b	.L703
 9360              	.LVL697:
 9361              	.L704:
1814:.\protocolo.c **** 				buffer[x]=(0xE0|(Buffer_LCD1.valor[teclas1-(x-6)]&0x0F));
 9362              		.loc 1 1814 0 discriminator 3
 9363 00ce C81A     		subs	r0, r1, r3
 9364 00d0 794A     		ldr	r2, .L724+16
 9365 00d2 0244     		add	r2, r2, r0
 9366 00d4 D27A     		ldrb	r2, [r2, #11]	@ zero_extendqisi2
 9367 00d6 04A8     		add	r0, sp, #16
 9368 00d8 1844     		add	r0, r0, r3
 9369 00da 02F00F02 		and	r2, r2, #15
 9370 00de 62F01F02 		orn	r2, r2, #31
 9371 00e2 00F8102C 		strb	r2, [r0, #-16]
1813:.\protocolo.c **** 			for(x=6;x<(6+teclas1);x++){
 9372              		.loc 1 1813 0 discriminator 3
 9373 00e6 0133     		adds	r3, r3, #1
 9374 00e8 724A     		ldr	r2, .L724+12
 9375 00ea 1360     		str	r3, [r2]
 9376              	.L703:
1813:.\protocolo.c **** 			for(x=6;x<(6+teclas1);x++){
 9377              		.loc 1 1813 0 is_stmt 0 discriminator 1
 9378 00ec 8A1D     		adds	r2, r1, #6
 9379 00ee 714B     		ldr	r3, .L724+12
 9380 00f0 1B68     		ldr	r3, [r3]
 9381 00f2 9A42     		cmp	r2, r3
 9382 00f4 EBD8     		bhi	.L704
 9383              	.L702:
1815:.\protocolo.c **** 			}	
1816:.\protocolo.c **** 		}
1817:.\protocolo.c **** 		for(y=x;y<=9;y++){
 9384              		.loc 1 1817 0 is_stmt 1
 9385 00f6 6F4B     		ldr	r3, .L724+12
 9386 00f8 1A68     		ldr	r2, [r3]
ARM GAS  C:\Users\diego\AppData\Local\Temp\ccwBHTp3.s 			page 206


 9387 00fa 714B     		ldr	r3, .L724+24
 9388 00fc 1A60     		str	r2, [r3]
 9389 00fe 07E0     		b	.L705
 9390              	.L706:
1818:.\protocolo.c **** 			buffer[y]=0xE0;	
 9391              		.loc 1 1818 0 discriminator 3
 9392 0100 04AA     		add	r2, sp, #16
 9393 0102 1A44     		add	r2, r2, r3
 9394 0104 E021     		movs	r1, #224
 9395 0106 02F8101C 		strb	r1, [r2, #-16]
1817:.\protocolo.c **** 			buffer[y]=0xE0;	
 9396              		.loc 1 1817 0 discriminator 3
 9397 010a 0133     		adds	r3, r3, #1
 9398 010c 6C4A     		ldr	r2, .L724+24
 9399 010e 1360     		str	r3, [r2]
 9400              	.L705:
1817:.\protocolo.c **** 			buffer[y]=0xE0;	
 9401              		.loc 1 1817 0 is_stmt 0 discriminator 1
 9402 0110 6B4B     		ldr	r3, .L724+24
 9403 0112 1B68     		ldr	r3, [r3]
 9404 0114 092B     		cmp	r3, #9
 9405 0116 F3D9     		bls	.L706
1819:.\protocolo.c **** 		}
1820:.\protocolo.c **** 		buffer[10]=0xFB;
 9406              		.loc 1 1820 0 is_stmt 1
 9407 0118 FB23     		movs	r3, #251
 9408 011a 8DF80A30 		strb	r3, [sp, #10]
1821:.\protocolo.c **** 		for(x=0;x<=10;x++){
 9409              		.loc 1 1821 0
 9410 011e 0022     		movs	r2, #0
 9411 0120 644B     		ldr	r3, .L724+12
 9412 0122 1A60     		str	r2, [r3]
 9413 0124 0DE0     		b	.L707
 9414              	.L708:
1822:.\protocolo.c **** 			buffer[11]+=(buffer[x]&0x0F);	
 9415              		.loc 1 1822 0 discriminator 3
 9416 0126 04AA     		add	r2, sp, #16
 9417 0128 1A44     		add	r2, r2, r3
 9418 012a 12F8102C 		ldrb	r2, [r2, #-16]	@ zero_extendqisi2
 9419 012e 02F00F02 		and	r2, r2, #15
 9420 0132 9DF80B10 		ldrb	r1, [sp, #11]	@ zero_extendqisi2
 9421 0136 0A44     		add	r2, r2, r1
 9422 0138 8DF80B20 		strb	r2, [sp, #11]
1821:.\protocolo.c **** 		for(x=0;x<=10;x++){
 9423              		.loc 1 1821 0 discriminator 3
 9424 013c 0133     		adds	r3, r3, #1
 9425 013e 5D4A     		ldr	r2, .L724+12
 9426 0140 1360     		str	r3, [r2]
 9427              	.L707:
1821:.\protocolo.c **** 		for(x=0;x<=10;x++){
 9428              		.loc 1 1821 0 is_stmt 0 discriminator 1
 9429 0142 5C4B     		ldr	r3, .L724+12
 9430 0144 1B68     		ldr	r3, [r3]
 9431 0146 0A2B     		cmp	r3, #10
 9432 0148 EDD9     		bls	.L708
1823:.\protocolo.c **** 		}
1824:.\protocolo.c **** 		buffer[11]=(((~buffer[11])+1)&0x0F)|0xE0;
ARM GAS  C:\Users\diego\AppData\Local\Temp\ccwBHTp3.s 			page 207


 9433              		.loc 1 1824 0 is_stmt 1
 9434 014a 9DF80B30 		ldrb	r3, [sp, #11]	@ zero_extendqisi2
 9435 014e 5B42     		negs	r3, r3
 9436 0150 03F00F03 		and	r3, r3, #15
 9437 0154 63F01F03 		orn	r3, r3, #31
 9438 0158 8DF80B30 		strb	r3, [sp, #11]
1825:.\protocolo.c **** 		buffer[12]=0xF0;
 9439              		.loc 1 1825 0
 9440 015c F023     		movs	r3, #240
 9441 015e 8DF80C30 		strb	r3, [sp, #12]
 9442              	.LVL698:
 9443              	.L698:
1826:.\protocolo.c **** 		size=12;
1827:.\protocolo.c **** 	}
1828:.\protocolo.c **** 	if(versurt==7){
 9444              		.loc 1 1828 0
 9445 0162 514B     		ldr	r3, .L724
 9446 0164 1B78     		ldrb	r3, [r3]	@ zero_extendqisi2
 9447 0166 072B     		cmp	r3, #7
 9448 0168 68D1     		bne	.L719
1829:.\protocolo.c **** 		buffer[0]=0xFF;
 9449              		.loc 1 1829 0
 9450 016a FF23     		movs	r3, #255
 9451 016c 8DF80030 		strb	r3, [sp]
1830:.\protocolo.c **** 		buffer[1]=0xE3;
 9452              		.loc 1 1830 0
 9453 0170 E323     		movs	r3, #227
 9454 0172 8DF80130 		strb	r3, [sp, #1]
1831:.\protocolo.c **** 		buffer[2]=0xF4;
 9455              		.loc 1 1831 0
 9456 0176 F423     		movs	r3, #244
 9457 0178 8DF80230 		strb	r3, [sp, #2]
1832:.\protocolo.c **** 		buffer[3]=0xF6;
 9458              		.loc 1 1832 0
 9459 017c F623     		movs	r3, #246
 9460 017e 8DF80330 		strb	r3, [sp, #3]
1833:.\protocolo.c **** 		buffer[4]=(0xE0|((rventa.producto&0x0f)-1));
 9461              		.loc 1 1833 0
 9462 0182 4A4B     		ldr	r3, .L724+4
 9463 0184 93F8A330 		ldrb	r3, [r3, #163]	@ zero_extendqisi2
 9464 0188 03F00F03 		and	r3, r3, #15
 9465 018c 013B     		subs	r3, r3, #1
 9466 018e 63F01F03 		orn	r3, r3, #31
 9467 0192 8DF80430 		strb	r3, [sp, #4]
1834:.\protocolo.c **** 		buffer[5]=0xF7;		
 9468              		.loc 1 1834 0
 9469 0196 F723     		movs	r3, #247
 9470 0198 8DF80530 		strb	r3, [sp, #5]
1835:.\protocolo.c **** 		for(x=6;x<(6+teclas1);x++){
 9471              		.loc 1 1835 0
 9472 019c 0622     		movs	r2, #6
 9473 019e 454B     		ldr	r3, .L724+12
 9474 01a0 1A60     		str	r2, [r3]
 9475 01a2 0EE0     		b	.L710
 9476              	.L711:
1836:.\protocolo.c **** 			buffer[x]=(0xE0|(Buffer_LCD1.valor[teclas1-(x-6)]&0x0F));
 9477              		.loc 1 1836 0 discriminator 3
ARM GAS  C:\Users\diego\AppData\Local\Temp\ccwBHTp3.s 			page 208


 9478 01a4 D21A     		subs	r2, r2, r3
 9479 01a6 4449     		ldr	r1, .L724+16
 9480 01a8 0A44     		add	r2, r2, r1
 9481 01aa D27A     		ldrb	r2, [r2, #11]	@ zero_extendqisi2
 9482 01ac 04A9     		add	r1, sp, #16
 9483 01ae 1944     		add	r1, r1, r3
 9484 01b0 02F00F02 		and	r2, r2, #15
 9485 01b4 62F01F02 		orn	r2, r2, #31
 9486 01b8 01F8102C 		strb	r2, [r1, #-16]
1835:.\protocolo.c **** 		for(x=6;x<(6+teclas1);x++){
 9487              		.loc 1 1835 0 discriminator 3
 9488 01bc 0133     		adds	r3, r3, #1
 9489 01be 3D4A     		ldr	r2, .L724+12
 9490 01c0 1360     		str	r3, [r2]
 9491              	.L710:
1835:.\protocolo.c **** 		for(x=6;x<(6+teclas1);x++){
 9492              		.loc 1 1835 0 is_stmt 0 discriminator 1
 9493 01c2 3E4B     		ldr	r3, .L724+20
 9494 01c4 1A78     		ldrb	r2, [r3]	@ zero_extendqisi2
 9495 01c6 911D     		adds	r1, r2, #6
 9496 01c8 3A4B     		ldr	r3, .L724+12
 9497 01ca 1B68     		ldr	r3, [r3]
 9498 01cc 9942     		cmp	r1, r3
 9499 01ce E9D8     		bhi	.L711
1837:.\protocolo.c **** 		}	
1838:.\protocolo.c **** 		for(y=x;y<=11;y++){
 9500              		.loc 1 1838 0 is_stmt 1
 9501 01d0 3B4A     		ldr	r2, .L724+24
 9502 01d2 1360     		str	r3, [r2]
 9503 01d4 07E0     		b	.L712
 9504              	.L713:
1839:.\protocolo.c **** 			buffer[y]=0xE0;	
 9505              		.loc 1 1839 0 discriminator 3
 9506 01d6 04AA     		add	r2, sp, #16
 9507 01d8 1A44     		add	r2, r2, r3
 9508 01da E021     		movs	r1, #224
 9509 01dc 02F8101C 		strb	r1, [r2, #-16]
1838:.\protocolo.c **** 			buffer[y]=0xE0;	
 9510              		.loc 1 1838 0 discriminator 3
 9511 01e0 0133     		adds	r3, r3, #1
 9512 01e2 374A     		ldr	r2, .L724+24
 9513 01e4 1360     		str	r3, [r2]
 9514              	.L712:
1838:.\protocolo.c **** 			buffer[y]=0xE0;	
 9515              		.loc 1 1838 0 is_stmt 0 discriminator 1
 9516 01e6 364B     		ldr	r3, .L724+24
 9517 01e8 1B68     		ldr	r3, [r3]
 9518 01ea 0B2B     		cmp	r3, #11
 9519 01ec F3D9     		bls	.L713
1840:.\protocolo.c **** 		}		
1841:.\protocolo.c **** 		buffer[12]=0xFB;
 9520              		.loc 1 1841 0 is_stmt 1
 9521 01ee FB23     		movs	r3, #251
 9522 01f0 8DF80C30 		strb	r3, [sp, #12]
1842:.\protocolo.c **** 		for(x=0;x<=12;x++){
 9523              		.loc 1 1842 0
 9524 01f4 0022     		movs	r2, #0
ARM GAS  C:\Users\diego\AppData\Local\Temp\ccwBHTp3.s 			page 209


 9525 01f6 2F4B     		ldr	r3, .L724+12
 9526 01f8 1A60     		str	r2, [r3]
 9527 01fa 0DE0     		b	.L714
 9528              	.L715:
1843:.\protocolo.c **** 			buffer[13]+=(buffer[x]&0x0F);	
 9529              		.loc 1 1843 0 discriminator 3
 9530 01fc 04AA     		add	r2, sp, #16
 9531 01fe 1A44     		add	r2, r2, r3
 9532 0200 12F8102C 		ldrb	r2, [r2, #-16]	@ zero_extendqisi2
 9533 0204 02F00F02 		and	r2, r2, #15
 9534 0208 9DF80D10 		ldrb	r1, [sp, #13]	@ zero_extendqisi2
 9535 020c 0A44     		add	r2, r2, r1
 9536 020e 8DF80D20 		strb	r2, [sp, #13]
1842:.\protocolo.c **** 		for(x=0;x<=12;x++){
 9537              		.loc 1 1842 0 discriminator 3
 9538 0212 0133     		adds	r3, r3, #1
 9539 0214 274A     		ldr	r2, .L724+12
 9540 0216 1360     		str	r3, [r2]
 9541              	.L714:
1842:.\protocolo.c **** 		for(x=0;x<=12;x++){
 9542              		.loc 1 1842 0 is_stmt 0 discriminator 1
 9543 0218 264B     		ldr	r3, .L724+12
 9544 021a 1B68     		ldr	r3, [r3]
 9545 021c 0C2B     		cmp	r3, #12
 9546 021e EDD9     		bls	.L715
1844:.\protocolo.c **** 		}
1845:.\protocolo.c **** 		buffer[13]=(((~buffer[13])+1)&0x0F)|0xE0;
 9547              		.loc 1 1845 0 is_stmt 1
 9548 0220 9DF80D30 		ldrb	r3, [sp, #13]	@ zero_extendqisi2
 9549 0224 5B42     		negs	r3, r3
 9550 0226 03F00F03 		and	r3, r3, #15
 9551 022a 63F01F03 		orn	r3, r3, #31
 9552 022e 8DF80D30 		strb	r3, [sp, #13]
1846:.\protocolo.c **** 		buffer[14]=0xF0;
 9553              		.loc 1 1846 0
 9554 0232 F023     		movs	r3, #240
 9555 0234 8DF80E30 		strb	r3, [sp, #14]
 9556              	.LVL699:
1847:.\protocolo.c **** 		size=14;
 9557              		.loc 1 1847 0
 9558 0238 0E25     		movs	r5, #14
 9559 023a 00E0     		b	.L709
 9560              	.LVL700:
 9561              	.L719:
 9562 023c 0C25     		movs	r5, #12
 9563              	.LVL701:
 9564              	.L709:
1848:.\protocolo.c **** 	}	
1849:.\protocolo.c **** 	Surtidor_PutChar(0x20|dir);	
 9565              		.loc 1 1849 0
 9566 023e 44F02000 		orr	r0, r4, #32
 9567 0242 FFF7FEFF 		bl	Surtidor_PutChar
 9568              	.LVL702:
1850:.\protocolo.c ****     CyDelay(100);
 9569              		.loc 1 1850 0
 9570 0246 6420     		movs	r0, #100
 9571 0248 FFF7FEFF 		bl	CyDelay
ARM GAS  C:\Users\diego\AppData\Local\Temp\ccwBHTp3.s 			page 210


 9572              	.LVL703:
1851:.\protocolo.c ****     if(Surtidor_GetRxBufferSize()>=1){
 9573              		.loc 1 1851 0
 9574 024c FFF7FEFF 		bl	Surtidor_GetRxBufferSize
 9575              	.LVL704:
 9576 0250 10B3     		cbz	r0, .L720
1852:.\protocolo.c **** 		if(Surtidor_ReadRxData()==(0xD0|dir)){
 9577              		.loc 1 1852 0
 9578 0252 FFF7FEFF 		bl	Surtidor_ReadRxData
 9579              	.LVL705:
 9580 0256 44F0D003 		orr	r3, r4, #208
 9581 025a 9842     		cmp	r0, r3
 9582 025c 1ED1     		bne	.L721
1853:.\protocolo.c ****             Surtidor_ClearRxBuffer();
 9583              		.loc 1 1853 0
 9584 025e FFF7FEFF 		bl	Surtidor_ClearRxBuffer
 9585              	.LVL706:
1854:.\protocolo.c ****             for(x=0;x<=size;x++){
 9586              		.loc 1 1854 0
 9587 0262 0022     		movs	r2, #0
 9588 0264 134B     		ldr	r3, .L724+12
 9589 0266 1A60     		str	r2, [r3]
 9590 0268 09E0     		b	.L717
 9591              	.L718:
1855:.\protocolo.c ****                	Surtidor_PutChar(buffer[x]); 	
 9592              		.loc 1 1855 0 discriminator 3
 9593 026a 04AA     		add	r2, sp, #16
 9594 026c 1344     		add	r3, r3, r2
 9595 026e 13F8100C 		ldrb	r0, [r3, #-16]	@ zero_extendqisi2
 9596 0272 FFF7FEFF 		bl	Surtidor_PutChar
 9597              	.LVL707:
1854:.\protocolo.c ****             for(x=0;x<=size;x++){
 9598              		.loc 1 1854 0 discriminator 3
 9599 0276 0F4A     		ldr	r2, .L724+12
 9600 0278 1368     		ldr	r3, [r2]
 9601 027a 0133     		adds	r3, r3, #1
 9602 027c 1360     		str	r3, [r2]
 9603              	.L717:
1854:.\protocolo.c ****             for(x=0;x<=size;x++){
 9604              		.loc 1 1854 0 is_stmt 0 discriminator 1
 9605 027e 0D4B     		ldr	r3, .L724+12
 9606 0280 1B68     		ldr	r3, [r3]
 9607 0282 9D42     		cmp	r5, r3
 9608 0284 F1D2     		bcs	.L718
1856:.\protocolo.c ****             }
1857:.\protocolo.c **** 			CyDelay(50);
 9609              		.loc 1 1857 0 is_stmt 1
 9610 0286 3220     		movs	r0, #50
 9611 0288 FFF7FEFF 		bl	CyDelay
 9612              	.LVL708:
1858:.\protocolo.c **** 			if(get_estado(dir)==0){
 9613              		.loc 1 1858 0
 9614 028c 2046     		mov	r0, r4
 9615 028e FFF7FEFF 		bl	get_estado
 9616              	.LVL709:
 9617 0292 0346     		mov	r3, r0
 9618 0294 20B9     		cbnz	r0, .L722
ARM GAS  C:\Users\diego\AppData\Local\Temp\ccwBHTp3.s 			page 211


 9619 0296 04E0     		b	.L716
 9620              	.L720:
1859:.\protocolo.c **** 				return 0;
1860:.\protocolo.c **** 			}
1861:.\protocolo.c **** 			else{
1862:.\protocolo.c **** 				return 1;
1863:.\protocolo.c **** 			}
1864:.\protocolo.c **** 		}
1865:.\protocolo.c **** 		else{
1866:.\protocolo.c **** 			return 0;
1867:.\protocolo.c **** 		}
1868:.\protocolo.c **** 	}
1869:.\protocolo.c **** 	else{
1870:.\protocolo.c **** 		return 0;	
 9621              		.loc 1 1870 0
 9622 0298 0023     		movs	r3, #0
 9623 029a 02E0     		b	.L716
 9624              	.L721:
1866:.\protocolo.c **** 		}
 9625              		.loc 1 1866 0
 9626 029c 0023     		movs	r3, #0
 9627 029e 00E0     		b	.L716
 9628              	.L722:
1862:.\protocolo.c **** 			}
 9629              		.loc 1 1862 0
 9630 02a0 0123     		movs	r3, #1
 9631              	.L716:
1871:.\protocolo.c **** 	}
1872:.\protocolo.c **** }
 9632              		.loc 1 1872 0
 9633 02a2 1846     		mov	r0, r3
 9634 02a4 05B0     		add	sp, sp, #20
 9635              		.cfi_def_cfa_offset 12
 9636              		@ sp needed
 9637 02a6 30BD     		pop	{r4, r5, pc}
 9638              	.LVL710:
 9639              	.L725:
 9640              		.align	2
 9641              	.L724:
 9642 02a8 00000000 		.word	versurt
 9643 02ac 00000000 		.word	rventa
 9644 02b0 00000000 		.word	ppux10
 9645 02b4 00000000 		.word	x
 9646 02b8 06000000 		.word	Buffer_LCD1+6
 9647 02bc 00000000 		.word	teclas1
 9648 02c0 00000000 		.word	y
 9649              		.cfi_endproc
 9650              	.LFE69:
 9651              		.size	cambiar_precio, .-cambiar_precio
 9652              		.global	msn_totalcero
 9653              		.global	msn_tventas
 9654              		.global	msn_lecaan
 9655              		.global	msn_lecact
 9656              		.global	msn_tc
 9657              		.comm	rventa2,225,4
 9658              		.comm	rventa,225,4
 9659              		.comm	producto,1,1
ARM GAS  C:\Users\diego\AppData\Local\Temp\ccwBHTp3.s 			page 212


 9660              		.comm	grado4,1,1
 9661              		.comm	grado3,1,1
 9662              		.comm	grado2,1,1
 9663              		.comm	grado1,1,1
 9664              		.comm	modulo,400,4
 9665              		.comm	w,4,4
 9666              		.comm	z,4,4
 9667              		.comm	y,4,4
 9668              		.comm	x,4,4
 9669              		.comm	d,4,4
 9670              		.comm	c,4,4
 9671              		.comm	b,4,4
 9672              		.comm	a,4,4
 9673              		.comm	estado_0,1,1
 9674              		.comm	Buffer_LCD4,152,4
 9675              		.comm	Buffer_LCD3,152,4
 9676              		.comm	Buffer_LCD2,152,4
 9677              		.comm	Buffer_LCD1,152,4
 9678              		.comm	no_venta,4,4
 9679              		.comm	id_corte,2,2
 9680              		.comm	venta_activa4,1,1
 9681              		.comm	venta_activa2,1,1
 9682              		.comm	venta_activa3,1,1
 9683              		.comm	venta_activa,1,1
 9684              		.comm	seleccion_pos2,1,1
 9685              		.comm	seleccion_pos,1,1
 9686              		.comm	estado_lcd2,1,1
 9687              		.comm	estado_lcd1,1,1
 9688              		.comm	flujo_pos4,1,1
 9689              		.comm	flujo_pos3,1,1
 9690              		.comm	flujo_pos2,1,1
 9691              		.comm	flujo_pos,1,1
 9692              		.comm	imagen,1,1
 9693              		.comm	no_imprime2,1,1
 9694              		.comm	no_imprime,1,1
 9695              		.comm	n_copias,1,4
 9696              		.comm	a_copias,1,1
 9697              		.comm	producto4n,11,4
 9698              		.comm	producto3n,11,4
 9699              		.comm	producto2n,11,4
 9700              		.comm	producto1n,11,4
 9701              		.comm	nombreproducto,1,1
 9702              		.comm	id_venta,6,4
 9703              		.comm	copia_recibo2,2,4
 9704              		.comm	copia_recibo,2,4
 9705              		.comm	print2,2,4
 9706              		.comm	print1,2,4
 9707              		.comm	crc_total,1,1
 9708              		.comm	pos_ibutton,1,1
 9709              		.comm	fecha_corte,6,4
 9710              		.comm	decimalD,1,1
 9711              		.comm	decimalV,1,1
 9712              		.comm	tipo_imp,2,4
 9713              		.comm	bandera,2,4
 9714              		.comm	ppux10,1,1
 9715              		.comm	teclado2,1,1
 9716              		.comm	teclado,1,1
ARM GAS  C:\Users\diego\AppData\Local\Temp\ccwBHTp3.s 			page 213


 9717              		.comm	resultado,14,4
 9718              		.comm	buffer_i2c,64,4
 9719              		.comm	producto4b,1,1
 9720              		.comm	producto3b,1,1
 9721              		.comm	producto2b,1,1
 9722              		.comm	producto1b,1,1
 9723              		.comm	producto4,1,1
 9724              		.comm	producto3,1,1
 9725              		.comm	producto2,1,1
 9726              		.comm	producto1,1,1
 9727              		.comm	versurt,1,1
 9728              		.comm	comas2,1,1
 9729              		.comm	comas1,1,1
 9730              		.comm	teclas2,1,1
 9731              		.comm	teclas1,1,1
 9732              		.comm	cont1,1,1
 9733              		.comm	flujo_LCD4,1,1
 9734              		.comm	flujo_LCD3,1,1
 9735              		.comm	flujo_LCD2,1,1
 9736              		.comm	flujo_LCD,1,1
 9737              		.section	.rodata
 9738              		.align	2
 9739              		.set	.LANCHOR0,. + 0
 9740              	.LC0:
 9741 0000 FF       		.byte	-1
 9742 0001 E9       		.byte	-23
 9743 0002 FE       		.byte	-2
 9744 0003 E0       		.byte	-32
 9745 0004 E1       		.byte	-31
 9746 0005 E0       		.byte	-32
 9747 0006 FB       		.byte	-5
 9748 0007 EE       		.byte	-18
 9749 0008 F0       		.byte	-16
 9750 0009 000000   		.data
 9751              		.align	2
 9752              		.set	.LANCHOR1,. + 0
 9753              		.type	msn_tc, %object
 9754              		.size	msn_tc, 6
 9755              	msn_tc:
 9756 0000 544F5441 		.ascii	"TOTAL\000"
 9756      4C00
 9757 0006 0000     		.space	2
 9758              		.type	msn_lecact, %object
 9759              		.size	msn_lecact, 15
 9760              	msn_lecact:
 9761 0008 56616C6F 		.ascii	"Valor actual: \000"
 9761      72206163 
 9761      7475616C 
 9761      3A2000
 9762 0017 00       		.space	1
 9763              		.type	msn_lecaan, %object
 9764              		.size	msn_lecaan, 17
 9765              	msn_lecaan:
 9766 0018 56616C6F 		.ascii	"Valor anterior:  "
 9766      7220616E 
 9766      74657269 
 9766      6F723A20 
ARM GAS  C:\Users\diego\AppData\Local\Temp\ccwBHTp3.s 			page 214


 9766      20
 9767 0029 000000   		.space	3
 9768              		.type	msn_tventas, %object
 9769              		.size	msn_tventas, 18
 9770              	msn_tventas:
 9771 002c 44696E65 		.ascii	"Dinero total: $   "
 9771      726F2074 
 9771      6F74616C 
 9771      3A202420 
 9771      2020
 9772 003e 0000     		.space	2
 9773              		.type	msn_totalcero, %object
 9774              		.size	msn_totalcero, 15
 9775              	msn_totalcero:
 9776 0040 4E6F2074 		.ascii	"No toma totales"
 9776      6F6D6120 
 9776      746F7461 
 9776      6C6573
 9777 004f 00       		.text
 9778              	.Letext0:
 9779              		.file 2 "c:\\program files (x86)\\cypress\\psoc creator\\3.3\\psoc creator\\import\\gnu\\arm\\4.9.
 9780              		.file 3 "c:\\program files (x86)\\cypress\\psoc creator\\3.3\\psoc creator\\import\\gnu\\arm\\4.9.
 9781              		.file 4 "Generated_Source\\PSoC5/cytypes.h"
 9782              		.file 5 ".\\VariablesG.h"
 9783              		.file 6 "Generated_Source\\PSoC5/Surtidor.h"
 9784              		.file 7 "Generated_Source\\PSoC5/core_cm3.h"
 9785              		.file 8 "Generated_Source\\PSoC5/CyLib.h"
 9786              		.file 9 ".\\I2C.h"
 9787              		.file 10 ".\\Print.h"
 9788              		.section	.debug_info,"",%progbits
 9789              	.Ldebug_info0:
 9790 0000 AA3C0000 		.4byte	0x3caa
 9791 0004 0400     		.2byte	0x4
 9792 0006 00000000 		.4byte	.Ldebug_abbrev0
 9793 000a 04       		.byte	0x4
 9794 000b 01       		.uleb128 0x1
 9795 000c B8050000 		.4byte	.LASF151
 9796 0010 01       		.byte	0x1
 9797 0011 E7040000 		.4byte	.LASF152
 9798 0015 89000000 		.4byte	.LASF153
 9799 0019 00000000 		.4byte	.Ldebug_ranges0+0
 9800 001d 00000000 		.4byte	0
 9801 0021 00000000 		.4byte	.Ldebug_line0
 9802 0025 02       		.uleb128 0x2
 9803 0026 01       		.byte	0x1
 9804 0027 06       		.byte	0x6
 9805 0028 57060000 		.4byte	.LASF0
 9806 002c 02       		.uleb128 0x2
 9807 002d 01       		.byte	0x1
 9808 002e 08       		.byte	0x8
 9809 002f AA050000 		.4byte	.LASF1
 9810 0033 02       		.uleb128 0x2
 9811 0034 02       		.byte	0x2
 9812 0035 05       		.byte	0x5
 9813 0036 AE040000 		.4byte	.LASF2
 9814 003a 02       		.uleb128 0x2
 9815 003b 02       		.byte	0x2
ARM GAS  C:\Users\diego\AppData\Local\Temp\ccwBHTp3.s 			page 215


 9816 003c 07       		.byte	0x7
 9817 003d 69060000 		.4byte	.LASF3
 9818 0041 03       		.uleb128 0x3
 9819 0042 51000000 		.4byte	.LASF9
 9820 0046 02       		.byte	0x2
 9821 0047 3F       		.byte	0x3f
 9822 0048 4C000000 		.4byte	0x4c
 9823 004c 02       		.uleb128 0x2
 9824 004d 04       		.byte	0x4
 9825 004e 05       		.byte	0x5
 9826 004f B8040000 		.4byte	.LASF4
 9827 0053 02       		.uleb128 0x2
 9828 0054 04       		.byte	0x4
 9829 0055 07       		.byte	0x7
 9830 0056 5C050000 		.4byte	.LASF5
 9831 005a 02       		.uleb128 0x2
 9832 005b 08       		.byte	0x8
 9833 005c 05       		.byte	0x5
 9834 005d B3030000 		.4byte	.LASF6
 9835 0061 02       		.uleb128 0x2
 9836 0062 08       		.byte	0x8
 9837 0063 07       		.byte	0x7
 9838 0064 24020000 		.4byte	.LASF7
 9839 0068 04       		.uleb128 0x4
 9840 0069 04       		.byte	0x4
 9841 006a 05       		.byte	0x5
 9842 006b 696E7400 		.ascii	"int\000"
 9843 006f 02       		.uleb128 0x2
 9844 0070 04       		.byte	0x4
 9845 0071 07       		.byte	0x7
 9846 0072 36000000 		.4byte	.LASF8
 9847 0076 03       		.uleb128 0x3
 9848 0077 8B050000 		.4byte	.LASF10
 9849 007b 03       		.byte	0x3
 9850 007c 2C       		.byte	0x2c
 9851 007d 41000000 		.4byte	0x41
 9852 0081 05       		.uleb128 0x5
 9853 0082 AF060000 		.4byte	.LASF11
 9854 0086 04       		.byte	0x4
 9855 0087 3801     		.2byte	0x138
 9856 0089 2C000000 		.4byte	0x2c
 9857 008d 05       		.uleb128 0x5
 9858 008e 69030000 		.4byte	.LASF12
 9859 0092 04       		.byte	0x4
 9860 0093 3901     		.2byte	0x139
 9861 0095 3A000000 		.4byte	0x3a
 9862 0099 05       		.uleb128 0x5
 9863 009a 12040000 		.4byte	.LASF13
 9864 009e 04       		.byte	0x4
 9865 009f 3A01     		.2byte	0x13a
 9866 00a1 53000000 		.4byte	0x53
 9867 00a5 02       		.uleb128 0x2
 9868 00a6 04       		.byte	0x4
 9869 00a7 04       		.byte	0x4
 9870 00a8 C8010000 		.4byte	.LASF14
 9871 00ac 02       		.uleb128 0x2
 9872 00ad 08       		.byte	0x8
ARM GAS  C:\Users\diego\AppData\Local\Temp\ccwBHTp3.s 			page 216


 9873 00ae 04       		.byte	0x4
 9874 00af B5060000 		.4byte	.LASF15
 9875 00b3 02       		.uleb128 0x2
 9876 00b4 01       		.byte	0x1
 9877 00b5 08       		.byte	0x8
 9878 00b6 4C030000 		.4byte	.LASF16
 9879 00ba 02       		.uleb128 0x2
 9880 00bb 04       		.byte	0x4
 9881 00bc 07       		.byte	0x7
 9882 00bd 53050000 		.4byte	.LASF17
 9883 00c1 06       		.uleb128 0x6
 9884 00c2 2F000000 		.4byte	.LASF28
 9885 00c6 98       		.byte	0x98
 9886 00c7 05       		.byte	0x5
 9887 00c8 97       		.byte	0x97
 9888 00c9 68010000 		.4byte	0x168
 9889 00cd 07       		.uleb128 0x7
 9890 00ce 0D040000 		.4byte	.LASF18
 9891 00d2 05       		.byte	0x5
 9892 00d3 98       		.byte	0x98
 9893 00d4 81000000 		.4byte	0x81
 9894 00d8 00       		.byte	0
 9895 00d9 08       		.uleb128 0x8
 9896 00da 706F7300 		.ascii	"pos\000"
 9897 00de 05       		.byte	0x5
 9898 00df 99       		.byte	0x99
 9899 00e0 81000000 		.4byte	0x81
 9900 00e4 01       		.byte	0x1
 9901 00e5 07       		.uleb128 0x7
 9902 00e6 EE000000 		.4byte	.LASF19
 9903 00ea 05       		.byte	0x5
 9904 00eb 9A       		.byte	0x9a
 9905 00ec 81000000 		.4byte	0x81
 9906 00f0 02       		.byte	0x2
 9907 00f1 07       		.uleb128 0x7
 9908 00f2 A1010000 		.4byte	.LASF20
 9909 00f6 05       		.byte	0x5
 9910 00f7 9B       		.byte	0x9b
 9911 00f8 81000000 		.4byte	0x81
 9912 00fc 03       		.byte	0x3
 9913 00fd 08       		.uleb128 0x8
 9914 00fe 6B6D00   		.ascii	"km\000"
 9915 0101 05       		.byte	0x5
 9916 0102 9C       		.byte	0x9c
 9917 0103 68010000 		.4byte	0x168
 9918 0107 04       		.byte	0x4
 9919 0108 07       		.uleb128 0x7
 9920 0109 63060000 		.4byte	.LASF21
 9921 010d 05       		.byte	0x5
 9922 010e 9D       		.byte	0x9d
 9923 010f 78010000 		.4byte	0x178
 9924 0113 0B       		.byte	0xb
 9925 0114 08       		.uleb128 0x8
 9926 0115 696400   		.ascii	"id\000"
 9927 0118 05       		.byte	0x5
 9928 0119 9E       		.byte	0x9e
 9929 011a 78010000 		.4byte	0x178
ARM GAS  C:\Users\diego\AppData\Local\Temp\ccwBHTp3.s 			page 217


 9930 011e 29       		.byte	0x29
 9931 011f 07       		.uleb128 0x7
 9932 0120 43020000 		.4byte	.LASF22
 9933 0124 05       		.byte	0x5
 9934 0125 9F       		.byte	0x9f
 9935 0126 78010000 		.4byte	0x178
 9936 012a 47       		.byte	0x47
 9937 012b 07       		.uleb128 0x7
 9938 012c 94020000 		.4byte	.LASF23
 9939 0130 05       		.byte	0x5
 9940 0131 A0       		.byte	0xa0
 9941 0132 78010000 		.4byte	0x178
 9942 0136 65       		.byte	0x65
 9943 0137 07       		.uleb128 0x7
 9944 0138 5B000000 		.4byte	.LASF24
 9945 013c 05       		.byte	0x5
 9946 013d A1       		.byte	0xa1
 9947 013e 81000000 		.4byte	0x81
 9948 0142 83       		.byte	0x83
 9949 0143 07       		.uleb128 0x7
 9950 0144 E3030000 		.4byte	.LASF25
 9951 0148 05       		.byte	0x5
 9952 0149 A2       		.byte	0xa2
 9953 014a 88010000 		.4byte	0x188
 9954 014e 84       		.byte	0x84
 9955 014f 07       		.uleb128 0x7
 9956 0150 00000000 		.4byte	.LASF26
 9957 0154 05       		.byte	0x5
 9958 0155 A3       		.byte	0xa3
 9959 0156 98010000 		.4byte	0x198
 9960 015a 8E       		.byte	0x8e
 9961 015b 07       		.uleb128 0x7
 9962 015c 8A030000 		.4byte	.LASF27
 9963 0160 05       		.byte	0x5
 9964 0161 A4       		.byte	0xa4
 9965 0162 81000000 		.4byte	0x81
 9966 0166 97       		.byte	0x97
 9967 0167 00       		.byte	0
 9968 0168 09       		.uleb128 0x9
 9969 0169 81000000 		.4byte	0x81
 9970 016d 78010000 		.4byte	0x178
 9971 0171 0A       		.uleb128 0xa
 9972 0172 BA000000 		.4byte	0xba
 9973 0176 06       		.byte	0x6
 9974 0177 00       		.byte	0
 9975 0178 09       		.uleb128 0x9
 9976 0179 81000000 		.4byte	0x81
 9977 017d 88010000 		.4byte	0x188
 9978 0181 0A       		.uleb128 0xa
 9979 0182 BA000000 		.4byte	0xba
 9980 0186 1D       		.byte	0x1d
 9981 0187 00       		.byte	0
 9982 0188 09       		.uleb128 0x9
 9983 0189 81000000 		.4byte	0x81
 9984 018d 98010000 		.4byte	0x198
 9985 0191 0A       		.uleb128 0xa
 9986 0192 BA000000 		.4byte	0xba
ARM GAS  C:\Users\diego\AppData\Local\Temp\ccwBHTp3.s 			page 218


 9987 0196 09       		.byte	0x9
 9988 0197 00       		.byte	0
 9989 0198 09       		.uleb128 0x9
 9990 0199 81000000 		.4byte	0x81
 9991 019d A8010000 		.4byte	0x1a8
 9992 01a1 0A       		.uleb128 0xa
 9993 01a2 BA000000 		.4byte	0xba
 9994 01a6 08       		.byte	0x8
 9995 01a7 00       		.byte	0
 9996 01a8 0B       		.uleb128 0xb
 9997 01a9 706F7300 		.ascii	"pos\000"
 9998 01ad 04       		.byte	0x4
 9999 01ae 05       		.byte	0x5
 10000 01af AD       		.byte	0xad
 10001 01b0 E5010000 		.4byte	0x1e5
 10002 01b4 08       		.uleb128 0x8
 10003 01b5 64697200 		.ascii	"dir\000"
 10004 01b9 05       		.byte	0x5
 10005 01ba AE       		.byte	0xae
 10006 01bb 81000000 		.4byte	0x81
 10007 01bf 00       		.byte	0
 10008 01c0 07       		.uleb128 0x7
 10009 01c1 45040000 		.4byte	.LASF29
 10010 01c5 05       		.byte	0x5
 10011 01c6 AF       		.byte	0xaf
 10012 01c7 81000000 		.4byte	0x81
 10013 01cb 01       		.byte	0x1
 10014 01cc 07       		.uleb128 0x7
 10015 01cd CF060000 		.4byte	.LASF30
 10016 01d1 05       		.byte	0x5
 10017 01d2 B0       		.byte	0xb0
 10018 01d3 81000000 		.4byte	0x81
 10019 01d7 02       		.byte	0x2
 10020 01d8 07       		.uleb128 0x7
 10021 01d9 14000000 		.4byte	.LASF31
 10022 01dd 05       		.byte	0x5
 10023 01de B1       		.byte	0xb1
 10024 01df 81000000 		.4byte	0x81
 10025 01e3 03       		.byte	0x3
 10026 01e4 00       		.byte	0
 10027 01e5 06       		.uleb128 0x6
 10028 01e6 2B040000 		.4byte	.LASF32
 10029 01ea E1       		.byte	0xe1
 10030 01eb 05       		.byte	0x5
 10031 01ec BB       		.byte	0xbb
 10032 01ed CA020000 		.4byte	0x2ca
 10033 01f1 07       		.uleb128 0x7
 10034 01f2 7E040000 		.4byte	.LASF33
 10035 01f6 05       		.byte	0x5
 10036 01f7 BC       		.byte	0xbc
 10037 01f8 78010000 		.4byte	0x178
 10038 01fc 00       		.byte	0
 10039 01fd 08       		.uleb128 0x8
 10040 01fe 6E697400 		.ascii	"nit\000"
 10041 0202 05       		.byte	0x5
 10042 0203 BD       		.byte	0xbd
 10043 0204 CA020000 		.4byte	0x2ca
ARM GAS  C:\Users\diego\AppData\Local\Temp\ccwBHTp3.s 			page 219


 10044 0208 1E       		.byte	0x1e
 10045 0209 07       		.uleb128 0x7
 10046 020a CA030000 		.4byte	.LASF34
 10047 020e 05       		.byte	0x5
 10048 020f BE       		.byte	0xbe
 10049 0210 DA020000 		.4byte	0x2da
 10050 0214 2D       		.byte	0x2d
 10051 0215 07       		.uleb128 0x7
 10052 0216 F4020000 		.4byte	.LASF35
 10053 021a 05       		.byte	0x5
 10054 021b BF       		.byte	0xbf
 10055 021c EA020000 		.4byte	0x2ea
 10056 0220 2F       		.byte	0x2f
 10057 0221 07       		.uleb128 0x7
 10058 0222 81010000 		.4byte	.LASF36
 10059 0226 05       		.byte	0x5
 10060 0227 C0       		.byte	0xc0
 10061 0228 78010000 		.4byte	0x178
 10062 022c 43       		.byte	0x43
 10063 022d 07       		.uleb128 0x7
 10064 022e EE010000 		.4byte	.LASF37
 10065 0232 05       		.byte	0x5
 10066 0233 C1       		.byte	0xc1
 10067 0234 78010000 		.4byte	0x178
 10068 0238 61       		.byte	0x61
 10069 0239 07       		.uleb128 0x7
 10070 023a F4010000 		.4byte	.LASF38
 10071 023e 05       		.byte	0x5
 10072 023f C2       		.byte	0xc2
 10073 0240 78010000 		.4byte	0x178
 10074 0244 7F       		.byte	0x7f
 10075 0245 07       		.uleb128 0x7
 10076 0246 51060000 		.4byte	.LASF39
 10077 024a 05       		.byte	0x5
 10078 024b C3       		.byte	0xc3
 10079 024c FA020000 		.4byte	0x2fa
 10080 0250 9D       		.byte	0x9d
 10081 0251 07       		.uleb128 0x7
 10082 0252 31010000 		.4byte	.LASF40
 10083 0256 05       		.byte	0x5
 10084 0257 C4       		.byte	0xc4
 10085 0258 DA020000 		.4byte	0x2da
 10086 025c A0       		.byte	0xa0
 10087 025d 07       		.uleb128 0x7
 10088 025e 67010000 		.4byte	.LASF41
 10089 0262 05       		.byte	0x5
 10090 0263 C5       		.byte	0xc5
 10091 0264 81000000 		.4byte	0x81
 10092 0268 A2       		.byte	0xa2
 10093 0269 07       		.uleb128 0x7
 10094 026a C1030000 		.4byte	.LASF42
 10095 026e 05       		.byte	0x5
 10096 026f C6       		.byte	0xc6
 10097 0270 81000000 		.4byte	0x81
 10098 0274 A3       		.byte	0xa3
 10099 0275 08       		.uleb128 0x8
 10100 0276 70707500 		.ascii	"ppu\000"
ARM GAS  C:\Users\diego\AppData\Local\Temp\ccwBHTp3.s 			page 220


 10101 027a 05       		.byte	0x5
 10102 027b C7       		.byte	0xc7
 10103 027c 68010000 		.4byte	0x168
 10104 0280 A4       		.byte	0xa4
 10105 0281 07       		.uleb128 0x7
 10106 0282 32040000 		.4byte	.LASF43
 10107 0286 05       		.byte	0x5
 10108 0287 C8       		.byte	0xc8
 10109 0288 98010000 		.4byte	0x198
 10110 028c AB       		.byte	0xab
 10111 028d 07       		.uleb128 0x7
 10112 028e E6020000 		.4byte	.LASF44
 10113 0292 05       		.byte	0x5
 10114 0293 C9       		.byte	0xc9
 10115 0294 98010000 		.4byte	0x198
 10116 0298 B4       		.byte	0xb4
 10117 0299 07       		.uleb128 0x7
 10118 029a 11030000 		.4byte	.LASF45
 10119 029e 05       		.byte	0x5
 10120 029f CA       		.byte	0xca
 10121 02a0 0A030000 		.4byte	0x30a
 10122 02a4 BD       		.byte	0xbd
 10123 02a5 07       		.uleb128 0x7
 10124 02a6 5F010000 		.4byte	.LASF46
 10125 02aa 05       		.byte	0x5
 10126 02ab CB       		.byte	0xcb
 10127 02ac 0A030000 		.4byte	0x30a
 10128 02b0 CA       		.byte	0xca
 10129 02b1 07       		.uleb128 0x7
 10130 02b2 00000000 		.4byte	.LASF26
 10131 02b6 05       		.byte	0x5
 10132 02b7 CC       		.byte	0xcc
 10133 02b8 98010000 		.4byte	0x198
 10134 02bc D7       		.byte	0xd7
 10135 02bd 07       		.uleb128 0x7
 10136 02be CF060000 		.4byte	.LASF30
 10137 02c2 05       		.byte	0x5
 10138 02c3 CD       		.byte	0xcd
 10139 02c4 81000000 		.4byte	0x81
 10140 02c8 E0       		.byte	0xe0
 10141 02c9 00       		.byte	0
 10142 02ca 09       		.uleb128 0x9
 10143 02cb 81000000 		.4byte	0x81
 10144 02cf DA020000 		.4byte	0x2da
 10145 02d3 0A       		.uleb128 0xa
 10146 02d4 BA000000 		.4byte	0xba
 10147 02d8 0E       		.byte	0xe
 10148 02d9 00       		.byte	0
 10149 02da 09       		.uleb128 0x9
 10150 02db 81000000 		.4byte	0x81
 10151 02df EA020000 		.4byte	0x2ea
 10152 02e3 0A       		.uleb128 0xa
 10153 02e4 BA000000 		.4byte	0xba
 10154 02e8 01       		.byte	0x1
 10155 02e9 00       		.byte	0
 10156 02ea 09       		.uleb128 0x9
 10157 02eb 81000000 		.4byte	0x81
ARM GAS  C:\Users\diego\AppData\Local\Temp\ccwBHTp3.s 			page 221


 10158 02ef FA020000 		.4byte	0x2fa
 10159 02f3 0A       		.uleb128 0xa
 10160 02f4 BA000000 		.4byte	0xba
 10161 02f8 13       		.byte	0x13
 10162 02f9 00       		.byte	0
 10163 02fa 09       		.uleb128 0x9
 10164 02fb 81000000 		.4byte	0x81
 10165 02ff 0A030000 		.4byte	0x30a
 10166 0303 0A       		.uleb128 0xa
 10167 0304 BA000000 		.4byte	0xba
 10168 0308 02       		.byte	0x2
 10169 0309 00       		.byte	0
 10170 030a 09       		.uleb128 0x9
 10171 030b 81000000 		.4byte	0x81
 10172 030f 1A030000 		.4byte	0x31a
 10173 0313 0A       		.uleb128 0xa
 10174 0314 BA000000 		.4byte	0xba
 10175 0318 0C       		.byte	0xc
 10176 0319 00       		.byte	0
 10177 031a 0C       		.uleb128 0xc
 10178 031b DE020000 		.4byte	.LASF47
 10179 031f 01       		.byte	0x1
 10180 0320 47       		.byte	0x47
 10181 0321 81000000 		.4byte	0x81
 10182 0325 00000000 		.4byte	.LFB63
 10183 0329 14010000 		.4byte	.LFE63-.LFB63
 10184 032d 01       		.uleb128 0x1
 10185 032e 9C       		.byte	0x9c
 10186 032f B1030000 		.4byte	0x3b1
 10187 0333 0D       		.uleb128 0xd
 10188 0334 7800     		.ascii	"x\000"
 10189 0336 01       		.byte	0x1
 10190 0337 48       		.byte	0x48
 10191 0338 81000000 		.4byte	0x81
 10192 033c 00000000 		.4byte	.LLST0
 10193 0340 0E       		.uleb128 0xe
 10194 0341 1E000000 		.4byte	.LVL2
 10195 0345 CC3B0000 		.4byte	0x3bcc
 10196 0349 54030000 		.4byte	0x354
 10197 034d 0F       		.uleb128 0xf
 10198 034e 01       		.uleb128 0x1
 10199 034f 50       		.byte	0x50
 10200 0350 02       		.uleb128 0x2
 10201 0351 74       		.byte	0x74
 10202 0352 00       		.sleb128 0
 10203 0353 00       		.byte	0
 10204 0354 0E       		.uleb128 0xe
 10205 0355 24000000 		.4byte	.LVL3
 10206 0359 DD3B0000 		.4byte	0x3bdd
 10207 035d 68030000 		.4byte	0x368
 10208 0361 0F       		.uleb128 0xf
 10209 0362 01       		.uleb128 0x1
 10210 0363 50       		.byte	0x50
 10211 0364 02       		.uleb128 0x2
 10212 0365 08       		.byte	0x8
 10213 0366 64       		.byte	0x64
 10214 0367 00       		.byte	0
ARM GAS  C:\Users\diego\AppData\Local\Temp\ccwBHTp3.s 			page 222


 10215 0368 10       		.uleb128 0x10
 10216 0369 28000000 		.4byte	.LVL4
 10217 036d EE3B0000 		.4byte	0x3bee
 10218 0371 10       		.uleb128 0x10
 10219 0372 3A000000 		.4byte	.LVL5
 10220 0376 F93B0000 		.4byte	0x3bf9
 10221 037a 10       		.uleb128 0x10
 10222 037b 3E000000 		.4byte	.LVL6
 10223 037f EE3B0000 		.4byte	0x3bee
 10224 0383 10       		.uleb128 0x10
 10225 0384 58000000 		.4byte	.LVL7
 10226 0388 F93B0000 		.4byte	0x3bf9
 10227 038c 10       		.uleb128 0x10
 10228 038d 5C000000 		.4byte	.LVL8
 10229 0391 EE3B0000 		.4byte	0x3bee
 10230 0395 10       		.uleb128 0x10
 10231 0396 7A000000 		.4byte	.LVL9
 10232 039a F93B0000 		.4byte	0x3bf9
 10233 039e 10       		.uleb128 0x10
 10234 039f 7E000000 		.4byte	.LVL10
 10235 03a3 EE3B0000 		.4byte	0x3bee
 10236 03a7 10       		.uleb128 0x10
 10237 03a8 A8000000 		.4byte	.LVL11
 10238 03ac F93B0000 		.4byte	0x3bf9
 10239 03b0 00       		.byte	0
 10240 03b1 0C       		.uleb128 0xc
 10241 03b2 46060000 		.4byte	.LASF48
 10242 03b6 01       		.byte	0x1
 10243 03b7 82       		.byte	0x82
 10244 03b8 81000000 		.4byte	0x81
 10245 03bc 00000000 		.4byte	.LFB64
 10246 03c0 26000000 		.4byte	.LFE64-.LFB64
 10247 03c4 01       		.uleb128 0x1
 10248 03c5 9C       		.byte	0x9c
 10249 03c6 21040000 		.4byte	0x421
 10250 03ca 11       		.uleb128 0x11
 10251 03cb 64697200 		.ascii	"dir\000"
 10252 03cf 01       		.byte	0x1
 10253 03d0 82       		.byte	0x82
 10254 03d1 81000000 		.4byte	0x81
 10255 03d5 2A000000 		.4byte	.LLST1
 10256 03d9 12       		.uleb128 0x12
 10257 03da 45040000 		.4byte	.LASF29
 10258 03de 01       		.byte	0x1
 10259 03df 83       		.byte	0x83
 10260 03e0 81000000 		.4byte	0x81
 10261 03e4 4B000000 		.4byte	.LLST2
 10262 03e8 10       		.uleb128 0x10
 10263 03e9 06000000 		.4byte	.LVL21
 10264 03ed CC3B0000 		.4byte	0x3bcc
 10265 03f1 0E       		.uleb128 0xe
 10266 03f2 0C000000 		.4byte	.LVL22
 10267 03f6 DD3B0000 		.4byte	0x3bdd
 10268 03fa 05040000 		.4byte	0x405
 10269 03fe 0F       		.uleb128 0xf
 10270 03ff 01       		.uleb128 0x1
 10271 0400 50       		.byte	0x50
ARM GAS  C:\Users\diego\AppData\Local\Temp\ccwBHTp3.s 			page 223


 10272 0401 02       		.uleb128 0x2
 10273 0402 08       		.byte	0x8
 10274 0403 32       		.byte	0x32
 10275 0404 00       		.byte	0
 10276 0405 10       		.uleb128 0x10
 10277 0406 10000000 		.4byte	.LVL23
 10278 040a EE3B0000 		.4byte	0x3bee
 10279 040e 10       		.uleb128 0x10
 10280 040f 16000000 		.4byte	.LVL24
 10281 0413 003C0000 		.4byte	0x3c00
 10282 0417 10       		.uleb128 0x10
 10283 0418 1E000000 		.4byte	.LVL26
 10284 041c F93B0000 		.4byte	0x3bf9
 10285 0420 00       		.byte	0
 10286 0421 0C       		.uleb128 0xc
 10287 0422 39050000 		.4byte	.LASF49
 10288 0426 01       		.byte	0x1
 10289 0427 BD       		.byte	0xbd
 10290 0428 81000000 		.4byte	0x81
 10291 042c 00000000 		.4byte	.LFB65
 10292 0430 E8000000 		.4byte	.LFE65-.LFB65
 10293 0434 01       		.uleb128 0x1
 10294 0435 9C       		.byte	0x9c
 10295 0436 04050000 		.4byte	0x504
 10296 043a 11       		.uleb128 0x11
 10297 043b 76616C00 		.ascii	"val\000"
 10298 043f 01       		.byte	0x1
 10299 0440 BD       		.byte	0xbd
 10300 0441 81000000 		.4byte	0x81
 10301 0445 5E000000 		.4byte	.LLST3
 10302 0449 13       		.uleb128 0x13
 10303 044a BC060000 		.4byte	.LASF50
 10304 044e 01       		.byte	0x1
 10305 044f BE       		.byte	0xbe
 10306 0450 04050000 		.4byte	0x504
 10307 0454 02       		.uleb128 0x2
 10308 0455 91       		.byte	0x91
 10309 0456 64       		.sleb128 -28
 10310 0457 0D       		.uleb128 0xd
 10311 0458 7800     		.ascii	"x\000"
 10312 045a 01       		.byte	0x1
 10313 045b BE       		.byte	0xbe
 10314 045c 81000000 		.4byte	0x81
 10315 0460 7F000000 		.4byte	.LLST4
 10316 0464 13       		.uleb128 0x13
 10317 0465 33030000 		.4byte	.LASF51
 10318 0469 01       		.byte	0x1
 10319 046a BE       		.byte	0xbe
 10320 046b 98010000 		.4byte	0x198
 10321 046f 02       		.uleb128 0x2
 10322 0470 91       		.byte	0x91
 10323 0471 58       		.sleb128 -40
 10324 0472 0E       		.uleb128 0xe
 10325 0473 1C000000 		.4byte	.LVL30
 10326 0477 CC3B0000 		.4byte	0x3bcc
 10327 047b 89040000 		.4byte	0x489
 10328 047f 0F       		.uleb128 0xf
ARM GAS  C:\Users\diego\AppData\Local\Temp\ccwBHTp3.s 			page 224


 10329 0480 01       		.uleb128 0x1
 10330 0481 50       		.byte	0x50
 10331 0482 05       		.uleb128 0x5
 10332 0483 74       		.byte	0x74
 10333 0484 00       		.sleb128 0
 10334 0485 08       		.byte	0x8
 10335 0486 20       		.byte	0x20
 10336 0487 21       		.byte	0x21
 10337 0488 00       		.byte	0
 10338 0489 0E       		.uleb128 0xe
 10339 048a 28000000 		.4byte	.LVL31
 10340 048e DD3B0000 		.4byte	0x3bdd
 10341 0492 9D040000 		.4byte	0x49d
 10342 0496 0F       		.uleb128 0xf
 10343 0497 01       		.uleb128 0x1
 10344 0498 50       		.byte	0x50
 10345 0499 02       		.uleb128 0x2
 10346 049a 08       		.byte	0x8
 10347 049b 64       		.byte	0x64
 10348 049c 00       		.byte	0
 10349 049d 10       		.uleb128 0x10
 10350 049e 2C000000 		.4byte	.LVL32
 10351 04a2 EE3B0000 		.4byte	0x3bee
 10352 04a6 10       		.uleb128 0x10
 10353 04a7 34000000 		.4byte	.LVL33
 10354 04ab 003C0000 		.4byte	0x3c00
 10355 04af 10       		.uleb128 0x10
 10356 04b0 40000000 		.4byte	.LVL34
 10357 04b4 F93B0000 		.4byte	0x3bf9
 10358 04b8 0E       		.uleb128 0xe
 10359 04b9 50000000 		.4byte	.LVL36
 10360 04bd CC3B0000 		.4byte	0x3bcc
 10361 04c1 D4040000 		.4byte	0x4d4
 10362 04c5 0F       		.uleb128 0xf
 10363 04c6 01       		.uleb128 0x1
 10364 04c7 50       		.byte	0x50
 10365 04c8 0A       		.uleb128 0xa
 10366 04c9 91       		.byte	0x91
 10367 04ca 00       		.sleb128 0
 10368 04cb 74       		.byte	0x74
 10369 04cc 00       		.sleb128 0
 10370 04cd 22       		.byte	0x22
 10371 04ce 08       		.byte	0x8
 10372 04cf 28       		.byte	0x28
 10373 04d0 1C       		.byte	0x1c
 10374 04d1 94       		.byte	0x94
 10375 04d2 01       		.byte	0x1
 10376 04d3 00       		.byte	0
 10377 04d4 0E       		.uleb128 0xe
 10378 04d5 5E000000 		.4byte	.LVL39
 10379 04d9 DD3B0000 		.4byte	0x3bdd
 10380 04dd E8040000 		.4byte	0x4e8
 10381 04e1 0F       		.uleb128 0xf
 10382 04e2 01       		.uleb128 0x1
 10383 04e3 50       		.byte	0x50
 10384 04e4 02       		.uleb128 0x2
 10385 04e5 08       		.byte	0x8
ARM GAS  C:\Users\diego\AppData\Local\Temp\ccwBHTp3.s 			page 225


 10386 04e6 C8       		.byte	0xc8
 10387 04e7 00       		.byte	0
 10388 04e8 10       		.uleb128 0x10
 10389 04e9 62000000 		.4byte	.LVL40
 10390 04ed EE3B0000 		.4byte	0x3bee
 10391 04f1 10       		.uleb128 0x10
 10392 04f2 6E000000 		.4byte	.LVL41
 10393 04f6 003C0000 		.4byte	0x3c00
 10394 04fa 10       		.uleb128 0x10
 10395 04fb 86000000 		.4byte	.LVL45
 10396 04ff F93B0000 		.4byte	0x3bf9
 10397 0503 00       		.byte	0
 10398 0504 09       		.uleb128 0x9
 10399 0505 81000000 		.4byte	0x81
 10400 0509 14050000 		.4byte	0x514
 10401 050d 0A       		.uleb128 0xa
 10402 050e BA000000 		.4byte	0xba
 10403 0512 12       		.byte	0x12
 10404 0513 00       		.byte	0
 10405 0514 14       		.uleb128 0x14
 10406 0515 EE020000 		.4byte	.LASF52
 10407 0519 01       		.byte	0x1
 10408 051a 1301     		.2byte	0x113
 10409 051c 81000000 		.4byte	0x81
 10410 0520 00000000 		.4byte	.LFB66
 10411 0524 E8010000 		.4byte	.LFE66-.LFB66
 10412 0528 01       		.uleb128 0x1
 10413 0529 9C       		.byte	0x9c
 10414 052a 68060000 		.4byte	0x668
 10415 052e 15       		.uleb128 0x15
 10416 052f 76616C00 		.ascii	"val\000"
 10417 0533 01       		.byte	0x1
 10418 0534 1301     		.2byte	0x113
 10419 0536 81000000 		.4byte	0x81
 10420 053a BF000000 		.4byte	.LLST5
 10421 053e 16       		.uleb128 0x16
 10422 053f 6E050000 		.4byte	.LASF53
 10423 0543 01       		.byte	0x1
 10424 0544 1401     		.2byte	0x114
 10425 0546 68060000 		.4byte	0x668
 10426 054a 02       		.uleb128 0x2
 10427 054b 91       		.byte	0x91
 10428 054c 48       		.sleb128 -56
 10429 054d 17       		.uleb128 0x17
 10430 054e 7800     		.ascii	"x\000"
 10431 0550 01       		.byte	0x1
 10432 0551 1401     		.2byte	0x114
 10433 0553 81000000 		.4byte	0x81
 10434 0557 E0000000 		.4byte	.LLST6
 10435 055b 17       		.uleb128 0x17
 10436 055c 706F7300 		.ascii	"pos\000"
 10437 0560 01       		.byte	0x1
 10438 0561 1401     		.2byte	0x114
 10439 0563 81000000 		.4byte	0x81
 10440 0567 C6010000 		.4byte	.LLST7
 10441 056b 17       		.uleb128 0x17
 10442 056c 7900     		.ascii	"y\000"
ARM GAS  C:\Users\diego\AppData\Local\Temp\ccwBHTp3.s 			page 226


 10443 056e 01       		.byte	0x1
 10444 056f 1401     		.2byte	0x114
 10445 0571 81000000 		.4byte	0x81
 10446 0575 FB010000 		.4byte	.LLST8
 10447 0579 0E       		.uleb128 0xe
 10448 057a 0E000000 		.4byte	.LVL52
 10449 057e CC3B0000 		.4byte	0x3bcc
 10450 0582 90050000 		.4byte	0x590
 10451 0586 0F       		.uleb128 0xf
 10452 0587 01       		.uleb128 0x1
 10453 0588 50       		.byte	0x50
 10454 0589 05       		.uleb128 0x5
 10455 058a 74       		.byte	0x74
 10456 058b 00       		.sleb128 0
 10457 058c 08       		.byte	0x8
 10458 058d 40       		.byte	0x40
 10459 058e 21       		.byte	0x21
 10460 058f 00       		.byte	0
 10461 0590 0E       		.uleb128 0xe
 10462 0591 16000000 		.4byte	.LVL53
 10463 0595 DD3B0000 		.4byte	0x3bdd
 10464 0599 A5050000 		.4byte	0x5a5
 10465 059d 0F       		.uleb128 0xf
 10466 059e 01       		.uleb128 0x1
 10467 059f 50       		.byte	0x50
 10468 05a0 03       		.uleb128 0x3
 10469 05a1 0A       		.byte	0xa
 10470 05a2 2C01     		.2byte	0x12c
 10471 05a4 00       		.byte	0
 10472 05a5 10       		.uleb128 0x10
 10473 05a6 1A000000 		.4byte	.LVL54
 10474 05aa EE3B0000 		.4byte	0x3bee
 10475 05ae 10       		.uleb128 0x10
 10476 05af 26000000 		.4byte	.LVL56
 10477 05b3 003C0000 		.4byte	0x3c00
 10478 05b7 10       		.uleb128 0x10
 10479 05b8 3A000000 		.4byte	.LVL61
 10480 05bc EE3B0000 		.4byte	0x3bee
 10481 05c0 10       		.uleb128 0x10
 10482 05c1 42000000 		.4byte	.LVL62
 10483 05c5 F93B0000 		.4byte	0x3bf9
 10484 05c9 0E       		.uleb128 0xe
 10485 05ca 88010000 		.4byte	.LVL103
 10486 05ce 0B3C0000 		.4byte	0x3c0b
 10487 05d2 E4050000 		.4byte	0x5e4
 10488 05d6 0F       		.uleb128 0xf
 10489 05d7 01       		.uleb128 0x1
 10490 05d8 51       		.byte	0x51
 10491 05d9 02       		.uleb128 0x2
 10492 05da 74       		.byte	0x74
 10493 05db 00       		.sleb128 0
 10494 05dc 0F       		.uleb128 0xf
 10495 05dd 01       		.uleb128 0x1
 10496 05de 50       		.byte	0x50
 10497 05df 03       		.uleb128 0x3
 10498 05e0 0A       		.byte	0xa
 10499 05e1 C901     		.2byte	0x1c9
ARM GAS  C:\Users\diego\AppData\Local\Temp\ccwBHTp3.s 			page 227


 10500 05e3 00       		.byte	0
 10501 05e4 0E       		.uleb128 0xe
 10502 05e5 94010000 		.4byte	.LVL104
 10503 05e9 0B3C0000 		.4byte	0x3c0b
 10504 05ed FF050000 		.4byte	0x5ff
 10505 05f1 0F       		.uleb128 0xf
 10506 05f2 01       		.uleb128 0x1
 10507 05f3 51       		.byte	0x51
 10508 05f4 02       		.uleb128 0x2
 10509 05f5 74       		.byte	0x74
 10510 05f6 09       		.sleb128 9
 10511 05f7 0F       		.uleb128 0xf
 10512 05f8 01       		.uleb128 0x1
 10513 05f9 50       		.byte	0x50
 10514 05fa 03       		.uleb128 0x3
 10515 05fb 0A       		.byte	0xa
 10516 05fc D201     		.2byte	0x1d2
 10517 05fe 00       		.byte	0
 10518 05ff 0E       		.uleb128 0xe
 10519 0600 9E010000 		.4byte	.LVL105
 10520 0604 0B3C0000 		.4byte	0x3c0b
 10521 0608 1A060000 		.4byte	0x61a
 10522 060c 0F       		.uleb128 0xf
 10523 060d 01       		.uleb128 0x1
 10524 060e 51       		.byte	0x51
 10525 060f 02       		.uleb128 0x2
 10526 0610 74       		.byte	0x74
 10527 0611 79       		.sleb128 -7
 10528 0612 0F       		.uleb128 0xf
 10529 0613 01       		.uleb128 0x1
 10530 0614 50       		.byte	0x50
 10531 0615 03       		.uleb128 0x3
 10532 0616 0A       		.byte	0xa
 10533 0617 DB01     		.2byte	0x1db
 10534 0619 00       		.byte	0
 10535 061a 0E       		.uleb128 0xe
 10536 061b AE010000 		.4byte	.LVL106
 10537 061f 0B3C0000 		.4byte	0x3c0b
 10538 0623 35060000 		.4byte	0x635
 10539 0627 0F       		.uleb128 0xf
 10540 0628 01       		.uleb128 0x1
 10541 0629 51       		.byte	0x51
 10542 062a 02       		.uleb128 0x2
 10543 062b 74       		.byte	0x74
 10544 062c 00       		.sleb128 0
 10545 062d 0F       		.uleb128 0xf
 10546 062e 01       		.uleb128 0x1
 10547 062f 50       		.byte	0x50
 10548 0630 03       		.uleb128 0x3
 10549 0631 0A       		.byte	0xa
 10550 0632 E201     		.2byte	0x1e2
 10551 0634 00       		.byte	0
 10552 0635 0E       		.uleb128 0xe
 10553 0636 B8010000 		.4byte	.LVL107
 10554 063a 0B3C0000 		.4byte	0x3c0b
 10555 063e 50060000 		.4byte	0x650
 10556 0642 0F       		.uleb128 0xf
ARM GAS  C:\Users\diego\AppData\Local\Temp\ccwBHTp3.s 			page 228


 10557 0643 01       		.uleb128 0x1
 10558 0644 51       		.byte	0x51
 10559 0645 02       		.uleb128 0x2
 10560 0646 74       		.byte	0x74
 10561 0647 79       		.sleb128 -7
 10562 0648 0F       		.uleb128 0xf
 10563 0649 01       		.uleb128 0x1
 10564 064a 50       		.byte	0x50
 10565 064b 03       		.uleb128 0x3
 10566 064c 0A       		.byte	0xa
 10567 064d F401     		.2byte	0x1f4
 10568 064f 00       		.byte	0
 10569 0650 18       		.uleb128 0x18
 10570 0651 C4010000 		.4byte	.LVL108
 10571 0655 0B3C0000 		.4byte	0x3c0b
 10572 0659 0F       		.uleb128 0xf
 10573 065a 01       		.uleb128 0x1
 10574 065b 51       		.byte	0x51
 10575 065c 02       		.uleb128 0x2
 10576 065d 74       		.byte	0x74
 10577 065e 09       		.sleb128 9
 10578 065f 0F       		.uleb128 0xf
 10579 0660 01       		.uleb128 0x1
 10580 0661 50       		.byte	0x50
 10581 0662 03       		.uleb128 0x3
 10582 0663 0A       		.byte	0xa
 10583 0664 EB01     		.2byte	0x1eb
 10584 0666 00       		.byte	0
 10585 0667 00       		.byte	0
 10586 0668 09       		.uleb128 0x9
 10587 0669 81000000 		.4byte	0x81
 10588 066d 78060000 		.4byte	0x678
 10589 0671 0A       		.uleb128 0xa
 10590 0672 BA000000 		.4byte	0xba
 10591 0676 26       		.byte	0x26
 10592 0677 00       		.byte	0
 10593 0678 14       		.uleb128 0x14
 10594 0679 DB040000 		.4byte	.LASF54
 10595 067d 01       		.byte	0x1
 10596 067e 7201     		.2byte	0x172
 10597 0680 81000000 		.4byte	0x81
 10598 0684 00000000 		.4byte	.LFB67
 10599 0688 B8320000 		.4byte	.LFE67-.LFB67
 10600 068c 01       		.uleb128 0x1
 10601 068d 9C       		.byte	0x9c
 10602 068e 6B330000 		.4byte	0x336b
 10603 0692 15       		.uleb128 0x15
 10604 0693 64697200 		.ascii	"dir\000"
 10605 0697 01       		.byte	0x1
 10606 0698 7201     		.2byte	0x172
 10607 069a 81000000 		.4byte	0x81
 10608 069e 69020000 		.4byte	.LLST9
 10609 06a2 15       		.uleb128 0x15
 10610 06a3 76616C00 		.ascii	"val\000"
 10611 06a7 01       		.byte	0x1
 10612 06a8 7201     		.2byte	0x172
 10613 06aa 81000000 		.4byte	0x81
ARM GAS  C:\Users\diego\AppData\Local\Temp\ccwBHTp3.s 			page 229


 10614 06ae 8A020000 		.4byte	.LLST10
 10615 06b2 16       		.uleb128 0x16
 10616 06b3 51030000 		.4byte	.LASF55
 10617 06b7 01       		.byte	0x1
 10618 06b8 7301     		.2byte	0x173
 10619 06ba 6B330000 		.4byte	0x336b
 10620 06be 02       		.uleb128 0x2
 10621 06bf 91       		.byte	0x91
 10622 06c0 54       		.sleb128 -44
 10623 06c1 16       		.uleb128 0x16
 10624 06c2 7C060000 		.4byte	.LASF56
 10625 06c6 01       		.byte	0x1
 10626 06c7 7301     		.2byte	0x173
 10627 06c9 7B330000 		.4byte	0x337b
 10628 06cd 02       		.uleb128 0x2
 10629 06ce 91       		.byte	0x91
 10630 06cf 44       		.sleb128 -60
 10631 06d0 16       		.uleb128 0x16
 10632 06d1 9A020000 		.4byte	.LASF57
 10633 06d5 01       		.byte	0x1
 10634 06d6 7301     		.2byte	0x173
 10635 06d8 7B330000 		.4byte	0x337b
 10636 06dc 03       		.uleb128 0x3
 10637 06dd 91       		.byte	0x91
 10638 06de B47F     		.sleb128 -76
 10639 06e0 0E       		.uleb128 0xe
 10640 06e1 10000000 		.4byte	.LVL114
 10641 06e5 CC3B0000 		.4byte	0x3bcc
 10642 06e9 F7060000 		.4byte	0x6f7
 10643 06ed 0F       		.uleb128 0xf
 10644 06ee 01       		.uleb128 0x1
 10645 06ef 50       		.byte	0x50
 10646 06f0 05       		.uleb128 0x5
 10647 06f1 75       		.byte	0x75
 10648 06f2 00       		.sleb128 0
 10649 06f3 08       		.byte	0x8
 10650 06f4 50       		.byte	0x50
 10651 06f5 21       		.byte	0x21
 10652 06f6 00       		.byte	0
 10653 06f7 0E       		.uleb128 0xe
 10654 06f8 18000000 		.4byte	.LVL115
 10655 06fc DD3B0000 		.4byte	0x3bdd
 10656 0700 0C070000 		.4byte	0x70c
 10657 0704 0F       		.uleb128 0xf
 10658 0705 01       		.uleb128 0x1
 10659 0706 50       		.byte	0x50
 10660 0707 03       		.uleb128 0x3
 10661 0708 0A       		.byte	0xa
 10662 0709 E803     		.2byte	0x3e8
 10663 070b 00       		.byte	0
 10664 070c 10       		.uleb128 0x10
 10665 070d 1C000000 		.4byte	.LVL116
 10666 0711 EE3B0000 		.4byte	0x3bee
 10667 0715 0E       		.uleb128 0xe
 10668 0716 6C010000 		.4byte	.LVL117
 10669 071a 253C0000 		.4byte	0x3c25
 10670 071e 29070000 		.4byte	0x729
ARM GAS  C:\Users\diego\AppData\Local\Temp\ccwBHTp3.s 			page 230


 10671 0722 0F       		.uleb128 0xf
 10672 0723 01       		.uleb128 0x1
 10673 0724 50       		.byte	0x50
 10674 0725 02       		.uleb128 0x2
 10675 0726 74       		.byte	0x74
 10676 0727 00       		.sleb128 0
 10677 0728 00       		.byte	0
 10678 0729 0E       		.uleb128 0xe
 10679 072a 84010000 		.4byte	.LVL118
 10680 072e 253C0000 		.4byte	0x3c25
 10681 0732 42070000 		.4byte	0x742
 10682 0736 0F       		.uleb128 0xf
 10683 0737 01       		.uleb128 0x1
 10684 0738 51       		.byte	0x51
 10685 0739 01       		.uleb128 0x1
 10686 073a 3A       		.byte	0x3a
 10687 073b 0F       		.uleb128 0xf
 10688 073c 01       		.uleb128 0x1
 10689 073d 50       		.byte	0x50
 10690 073e 02       		.uleb128 0x2
 10691 073f 74       		.byte	0x74
 10692 0740 00       		.sleb128 0
 10693 0741 00       		.byte	0
 10694 0742 0E       		.uleb128 0xe
 10695 0743 96010000 		.4byte	.LVL119
 10696 0747 253C0000 		.4byte	0x3c25
 10697 074b 56070000 		.4byte	0x756
 10698 074f 0F       		.uleb128 0xf
 10699 0750 01       		.uleb128 0x1
 10700 0751 50       		.byte	0x50
 10701 0752 02       		.uleb128 0x2
 10702 0753 74       		.byte	0x74
 10703 0754 00       		.sleb128 0
 10704 0755 00       		.byte	0
 10705 0756 0E       		.uleb128 0xe
 10706 0757 AE010000 		.4byte	.LVL120
 10707 075b 253C0000 		.4byte	0x3c25
 10708 075f 6F070000 		.4byte	0x76f
 10709 0763 0F       		.uleb128 0xf
 10710 0764 01       		.uleb128 0x1
 10711 0765 51       		.byte	0x51
 10712 0766 01       		.uleb128 0x1
 10713 0767 3A       		.byte	0x3a
 10714 0768 0F       		.uleb128 0xf
 10715 0769 01       		.uleb128 0x1
 10716 076a 50       		.byte	0x50
 10717 076b 02       		.uleb128 0x2
 10718 076c 74       		.byte	0x74
 10719 076d 00       		.sleb128 0
 10720 076e 00       		.byte	0
 10721 076f 0E       		.uleb128 0xe
 10722 0770 C2010000 		.4byte	.LVL121
 10723 0774 253C0000 		.4byte	0x3c25
 10724 0778 83070000 		.4byte	0x783
 10725 077c 0F       		.uleb128 0xf
 10726 077d 01       		.uleb128 0x1
 10727 077e 50       		.byte	0x50
ARM GAS  C:\Users\diego\AppData\Local\Temp\ccwBHTp3.s 			page 231


 10728 077f 02       		.uleb128 0x2
 10729 0780 74       		.byte	0x74
 10730 0781 00       		.sleb128 0
 10731 0782 00       		.byte	0
 10732 0783 0E       		.uleb128 0xe
 10733 0784 DA010000 		.4byte	.LVL122
 10734 0788 253C0000 		.4byte	0x3c25
 10735 078c 9C070000 		.4byte	0x79c
 10736 0790 0F       		.uleb128 0xf
 10737 0791 01       		.uleb128 0x1
 10738 0792 51       		.byte	0x51
 10739 0793 01       		.uleb128 0x1
 10740 0794 3A       		.byte	0x3a
 10741 0795 0F       		.uleb128 0xf
 10742 0796 01       		.uleb128 0x1
 10743 0797 50       		.byte	0x50
 10744 0798 02       		.uleb128 0x2
 10745 0799 74       		.byte	0x74
 10746 079a 00       		.sleb128 0
 10747 079b 00       		.byte	0
 10748 079c 0E       		.uleb128 0xe
 10749 079d E2010000 		.4byte	.LVL123
 10750 07a1 3F3C0000 		.4byte	0x3c3f
 10751 07a5 B5070000 		.4byte	0x7b5
 10752 07a9 0F       		.uleb128 0xf
 10753 07aa 01       		.uleb128 0x1
 10754 07ab 51       		.byte	0x51
 10755 07ac 02       		.uleb128 0x2
 10756 07ad 74       		.byte	0x74
 10757 07ae 00       		.sleb128 0
 10758 07af 0F       		.uleb128 0xf
 10759 07b0 01       		.uleb128 0x1
 10760 07b1 50       		.byte	0x50
 10761 07b2 01       		.uleb128 0x1
 10762 07b3 38       		.byte	0x38
 10763 07b4 00       		.byte	0
 10764 07b5 0E       		.uleb128 0xe
 10765 07b6 F6010000 		.4byte	.LVL124
 10766 07ba 253C0000 		.4byte	0x3c25
 10767 07be C9070000 		.4byte	0x7c9
 10768 07c2 0F       		.uleb128 0xf
 10769 07c3 01       		.uleb128 0x1
 10770 07c4 50       		.byte	0x50
 10771 07c5 02       		.uleb128 0x2
 10772 07c6 74       		.byte	0x74
 10773 07c7 00       		.sleb128 0
 10774 07c8 00       		.byte	0
 10775 07c9 0E       		.uleb128 0xe
 10776 07ca 0E020000 		.4byte	.LVL125
 10777 07ce 253C0000 		.4byte	0x3c25
 10778 07d2 E2070000 		.4byte	0x7e2
 10779 07d6 0F       		.uleb128 0xf
 10780 07d7 01       		.uleb128 0x1
 10781 07d8 51       		.byte	0x51
 10782 07d9 01       		.uleb128 0x1
 10783 07da 3A       		.byte	0x3a
 10784 07db 0F       		.uleb128 0xf
ARM GAS  C:\Users\diego\AppData\Local\Temp\ccwBHTp3.s 			page 232


 10785 07dc 01       		.uleb128 0x1
 10786 07dd 50       		.byte	0x50
 10787 07de 02       		.uleb128 0x2
 10788 07df 74       		.byte	0x74
 10789 07e0 00       		.sleb128 0
 10790 07e1 00       		.byte	0
 10791 07e2 0E       		.uleb128 0xe
 10792 07e3 1E020000 		.4byte	.LVL126
 10793 07e7 553C0000 		.4byte	0x3c55
 10794 07eb FB070000 		.4byte	0x7fb
 10795 07ef 0F       		.uleb128 0xf
 10796 07f0 01       		.uleb128 0x1
 10797 07f1 51       		.byte	0x51
 10798 07f2 01       		.uleb128 0x1
 10799 07f3 49       		.byte	0x49
 10800 07f4 0F       		.uleb128 0xf
 10801 07f5 01       		.uleb128 0x1
 10802 07f6 50       		.byte	0x50
 10803 07f7 02       		.uleb128 0x2
 10804 07f8 08       		.byte	0x8
 10805 07f9 C0       		.byte	0xc0
 10806 07fa 00       		.byte	0
 10807 07fb 0E       		.uleb128 0xe
 10808 07fc 2A020000 		.4byte	.LVL127
 10809 0800 553C0000 		.4byte	0x3c55
 10810 0804 15080000 		.4byte	0x815
 10811 0808 0F       		.uleb128 0xf
 10812 0809 01       		.uleb128 0x1
 10813 080a 51       		.byte	0x51
 10814 080b 01       		.uleb128 0x1
 10815 080c 49       		.byte	0x49
 10816 080d 0F       		.uleb128 0xf
 10817 080e 01       		.uleb128 0x1
 10818 080f 50       		.byte	0x50
 10819 0810 03       		.uleb128 0x3
 10820 0811 0A       		.byte	0xa
 10821 0812 1901     		.2byte	0x119
 10822 0814 00       		.byte	0
 10823 0815 0E       		.uleb128 0xe
 10824 0816 30020000 		.4byte	.LVL128
 10825 081a 6F3C0000 		.4byte	0x3c6f
 10826 081e 29080000 		.4byte	0x829
 10827 0822 0F       		.uleb128 0xf
 10828 0823 01       		.uleb128 0x1
 10829 0824 50       		.byte	0x50
 10830 0825 02       		.uleb128 0x2
 10831 0826 74       		.byte	0x74
 10832 0827 00       		.sleb128 0
 10833 0828 00       		.byte	0
 10834 0829 0E       		.uleb128 0xe
 10835 082a 72020000 		.4byte	.LVL129
 10836 082e 803C0000 		.4byte	0x3c80
 10837 0832 49080000 		.4byte	0x849
 10838 0836 0F       		.uleb128 0xf
 10839 0837 01       		.uleb128 0x1
 10840 0838 52       		.byte	0x52
 10841 0839 03       		.uleb128 0x3
ARM GAS  C:\Users\diego\AppData\Local\Temp\ccwBHTp3.s 			page 233


 10842 083a 91       		.byte	0x91
 10843 083b B47F     		.sleb128 -76
 10844 083d 0F       		.uleb128 0xf
 10845 083e 01       		.uleb128 0x1
 10846 083f 51       		.byte	0x51
 10847 0840 02       		.uleb128 0x2
 10848 0841 91       		.byte	0x91
 10849 0842 44       		.sleb128 -60
 10850 0843 0F       		.uleb128 0xf
 10851 0844 01       		.uleb128 0x1
 10852 0845 50       		.byte	0x50
 10853 0846 01       		.uleb128 0x1
 10854 0847 32       		.byte	0x32
 10855 0848 00       		.byte	0
 10856 0849 0E       		.uleb128 0xe
 10857 084a 88020000 		.4byte	.LVL130
 10858 084e 253C0000 		.4byte	0x3c25
 10859 0852 5D080000 		.4byte	0x85d
 10860 0856 0F       		.uleb128 0xf
 10861 0857 01       		.uleb128 0x1
 10862 0858 50       		.byte	0x50
 10863 0859 02       		.uleb128 0x2
 10864 085a 74       		.byte	0x74
 10865 085b 00       		.sleb128 0
 10866 085c 00       		.byte	0
 10867 085d 0E       		.uleb128 0xe
 10868 085e A0020000 		.4byte	.LVL131
 10869 0862 9B3C0000 		.4byte	0x3c9b
 10870 0866 7A080000 		.4byte	0x87a
 10871 086a 0F       		.uleb128 0xf
 10872 086b 01       		.uleb128 0x1
 10873 086c 51       		.byte	0x51
 10874 086d 02       		.uleb128 0x2
 10875 086e 74       		.byte	0x74
 10876 086f 00       		.sleb128 0
 10877 0870 0F       		.uleb128 0xf
 10878 0871 01       		.uleb128 0x1
 10879 0872 50       		.byte	0x50
 10880 0873 05       		.uleb128 0x5
 10881 0874 03       		.byte	0x3
 10882 0875 00000000 		.4byte	resultado
 10883 0879 00       		.byte	0
 10884 087a 0E       		.uleb128 0xe
 10885 087b B0020000 		.4byte	.LVL132
 10886 087f 0B3C0000 		.4byte	0x3c0b
 10887 0883 94080000 		.4byte	0x894
 10888 0887 0F       		.uleb128 0xf
 10889 0888 01       		.uleb128 0x1
 10890 0889 51       		.byte	0x51
 10891 088a 02       		.uleb128 0x2
 10892 088b 91       		.byte	0x91
 10893 088c 54       		.sleb128 -44
 10894 088d 0F       		.uleb128 0xf
 10895 088e 01       		.uleb128 0x1
 10896 088f 50       		.byte	0x50
 10897 0890 02       		.uleb128 0x2
 10898 0891 08       		.byte	0x8
ARM GAS  C:\Users\diego\AppData\Local\Temp\ccwBHTp3.s 			page 234


 10899 0892 C0       		.byte	0xc0
 10900 0893 00       		.byte	0
 10901 0894 0E       		.uleb128 0xe
 10902 0895 BA020000 		.4byte	.LVL133
 10903 0899 0B3C0000 		.4byte	0x3c0b
 10904 089d B2080000 		.4byte	0x8b2
 10905 08a1 0F       		.uleb128 0xf
 10906 08a2 01       		.uleb128 0x1
 10907 08a3 51       		.byte	0x51
 10908 08a4 05       		.uleb128 0x5
 10909 08a5 03       		.byte	0x3
 10910 08a6 00000000 		.4byte	resultado
 10911 08aa 0F       		.uleb128 0xf
 10912 08ab 01       		.uleb128 0x1
 10913 08ac 50       		.byte	0x50
 10914 08ad 03       		.uleb128 0x3
 10915 08ae 0A       		.byte	0xa
 10916 08af 0002     		.2byte	0x200
 10917 08b1 00       		.byte	0
 10918 08b2 0E       		.uleb128 0xe
 10919 08b3 FE020000 		.4byte	.LVL134
 10920 08b7 0B3C0000 		.4byte	0x3c0b
 10921 08bb CD080000 		.4byte	0x8cd
 10922 08bf 0F       		.uleb128 0xf
 10923 08c0 01       		.uleb128 0x1
 10924 08c1 51       		.byte	0x51
 10925 08c2 02       		.uleb128 0x2
 10926 08c3 91       		.byte	0x91
 10927 08c4 54       		.sleb128 -44
 10928 08c5 0F       		.uleb128 0xf
 10929 08c6 01       		.uleb128 0x1
 10930 08c7 50       		.byte	0x50
 10931 08c8 03       		.uleb128 0x3
 10932 08c9 0A       		.byte	0xa
 10933 08ca 1901     		.2byte	0x119
 10934 08cc 00       		.byte	0
 10935 08cd 0E       		.uleb128 0xe
 10936 08ce 08030000 		.4byte	.LVL135
 10937 08d2 0B3C0000 		.4byte	0x3c0b
 10938 08d6 EB080000 		.4byte	0x8eb
 10939 08da 0F       		.uleb128 0xf
 10940 08db 01       		.uleb128 0x1
 10941 08dc 51       		.byte	0x51
 10942 08dd 05       		.uleb128 0x5
 10943 08de 03       		.byte	0x3
 10944 08df 00000000 		.4byte	resultado
 10945 08e3 0F       		.uleb128 0xf
 10946 08e4 01       		.uleb128 0x1
 10947 08e5 50       		.byte	0x50
 10948 08e6 03       		.uleb128 0x3
 10949 08e7 0A       		.byte	0xa
 10950 08e8 2702     		.2byte	0x227
 10951 08ea 00       		.byte	0
 10952 08eb 0E       		.uleb128 0xe
 10953 08ec 4C030000 		.4byte	.LVL136
 10954 08f0 253C0000 		.4byte	0x3c25
 10955 08f4 FF080000 		.4byte	0x8ff
ARM GAS  C:\Users\diego\AppData\Local\Temp\ccwBHTp3.s 			page 235


 10956 08f8 0F       		.uleb128 0xf
 10957 08f9 01       		.uleb128 0x1
 10958 08fa 50       		.byte	0x50
 10959 08fb 02       		.uleb128 0x2
 10960 08fc 74       		.byte	0x74
 10961 08fd 00       		.sleb128 0
 10962 08fe 00       		.byte	0
 10963 08ff 0E       		.uleb128 0xe
 10964 0900 64030000 		.4byte	.LVL137
 10965 0904 253C0000 		.4byte	0x3c25
 10966 0908 18090000 		.4byte	0x918
 10967 090c 0F       		.uleb128 0xf
 10968 090d 01       		.uleb128 0x1
 10969 090e 51       		.byte	0x51
 10970 090f 01       		.uleb128 0x1
 10971 0910 3A       		.byte	0x3a
 10972 0911 0F       		.uleb128 0xf
 10973 0912 01       		.uleb128 0x1
 10974 0913 50       		.byte	0x50
 10975 0914 02       		.uleb128 0x2
 10976 0915 74       		.byte	0x74
 10977 0916 00       		.sleb128 0
 10978 0917 00       		.byte	0
 10979 0918 0E       		.uleb128 0xe
 10980 0919 76030000 		.4byte	.LVL138
 10981 091d 253C0000 		.4byte	0x3c25
 10982 0921 2C090000 		.4byte	0x92c
 10983 0925 0F       		.uleb128 0xf
 10984 0926 01       		.uleb128 0x1
 10985 0927 50       		.byte	0x50
 10986 0928 02       		.uleb128 0x2
 10987 0929 74       		.byte	0x74
 10988 092a 00       		.sleb128 0
 10989 092b 00       		.byte	0
 10990 092c 0E       		.uleb128 0xe
 10991 092d 8E030000 		.4byte	.LVL139
 10992 0931 253C0000 		.4byte	0x3c25
 10993 0935 45090000 		.4byte	0x945
 10994 0939 0F       		.uleb128 0xf
 10995 093a 01       		.uleb128 0x1
 10996 093b 51       		.byte	0x51
 10997 093c 01       		.uleb128 0x1
 10998 093d 3A       		.byte	0x3a
 10999 093e 0F       		.uleb128 0xf
 11000 093f 01       		.uleb128 0x1
 11001 0940 50       		.byte	0x50
 11002 0941 02       		.uleb128 0x2
 11003 0942 74       		.byte	0x74
 11004 0943 00       		.sleb128 0
 11005 0944 00       		.byte	0
 11006 0945 0E       		.uleb128 0xe
 11007 0946 A2030000 		.4byte	.LVL140
 11008 094a 253C0000 		.4byte	0x3c25
 11009 094e 59090000 		.4byte	0x959
 11010 0952 0F       		.uleb128 0xf
 11011 0953 01       		.uleb128 0x1
 11012 0954 50       		.byte	0x50
ARM GAS  C:\Users\diego\AppData\Local\Temp\ccwBHTp3.s 			page 236


 11013 0955 02       		.uleb128 0x2
 11014 0956 74       		.byte	0x74
 11015 0957 00       		.sleb128 0
 11016 0958 00       		.byte	0
 11017 0959 0E       		.uleb128 0xe
 11018 095a BA030000 		.4byte	.LVL141
 11019 095e 253C0000 		.4byte	0x3c25
 11020 0962 72090000 		.4byte	0x972
 11021 0966 0F       		.uleb128 0xf
 11022 0967 01       		.uleb128 0x1
 11023 0968 51       		.byte	0x51
 11024 0969 01       		.uleb128 0x1
 11025 096a 3A       		.byte	0x3a
 11026 096b 0F       		.uleb128 0xf
 11027 096c 01       		.uleb128 0x1
 11028 096d 50       		.byte	0x50
 11029 096e 02       		.uleb128 0x2
 11030 096f 74       		.byte	0x74
 11031 0970 00       		.sleb128 0
 11032 0971 00       		.byte	0
 11033 0972 0E       		.uleb128 0xe
 11034 0973 C2030000 		.4byte	.LVL142
 11035 0977 3F3C0000 		.4byte	0x3c3f
 11036 097b 8B090000 		.4byte	0x98b
 11037 097f 0F       		.uleb128 0xf
 11038 0980 01       		.uleb128 0x1
 11039 0981 51       		.byte	0x51
 11040 0982 02       		.uleb128 0x2
 11041 0983 74       		.byte	0x74
 11042 0984 00       		.sleb128 0
 11043 0985 0F       		.uleb128 0xf
 11044 0986 01       		.uleb128 0x1
 11045 0987 50       		.byte	0x50
 11046 0988 01       		.uleb128 0x1
 11047 0989 38       		.byte	0x38
 11048 098a 00       		.byte	0
 11049 098b 0E       		.uleb128 0xe
 11050 098c D6030000 		.4byte	.LVL143
 11051 0990 253C0000 		.4byte	0x3c25
 11052 0994 9F090000 		.4byte	0x99f
 11053 0998 0F       		.uleb128 0xf
 11054 0999 01       		.uleb128 0x1
 11055 099a 50       		.byte	0x50
 11056 099b 02       		.uleb128 0x2
 11057 099c 74       		.byte	0x74
 11058 099d 00       		.sleb128 0
 11059 099e 00       		.byte	0
 11060 099f 0E       		.uleb128 0xe
 11061 09a0 EE030000 		.4byte	.LVL144
 11062 09a4 253C0000 		.4byte	0x3c25
 11063 09a8 B8090000 		.4byte	0x9b8
 11064 09ac 0F       		.uleb128 0xf
 11065 09ad 01       		.uleb128 0x1
 11066 09ae 51       		.byte	0x51
 11067 09af 01       		.uleb128 0x1
 11068 09b0 3A       		.byte	0x3a
 11069 09b1 0F       		.uleb128 0xf
ARM GAS  C:\Users\diego\AppData\Local\Temp\ccwBHTp3.s 			page 237


 11070 09b2 01       		.uleb128 0x1
 11071 09b3 50       		.byte	0x50
 11072 09b4 02       		.uleb128 0x2
 11073 09b5 74       		.byte	0x74
 11074 09b6 00       		.sleb128 0
 11075 09b7 00       		.byte	0
 11076 09b8 0E       		.uleb128 0xe
 11077 09b9 FE030000 		.4byte	.LVL145
 11078 09bd 553C0000 		.4byte	0x3c55
 11079 09c1 D1090000 		.4byte	0x9d1
 11080 09c5 0F       		.uleb128 0xf
 11081 09c6 01       		.uleb128 0x1
 11082 09c7 51       		.byte	0x51
 11083 09c8 01       		.uleb128 0x1
 11084 09c9 49       		.byte	0x49
 11085 09ca 0F       		.uleb128 0xf
 11086 09cb 01       		.uleb128 0x1
 11087 09cc 50       		.byte	0x50
 11088 09cd 02       		.uleb128 0x2
 11089 09ce 08       		.byte	0x8
 11090 09cf D9       		.byte	0xd9
 11091 09d0 00       		.byte	0
 11092 09d1 0E       		.uleb128 0xe
 11093 09d2 0A040000 		.4byte	.LVL146
 11094 09d6 553C0000 		.4byte	0x3c55
 11095 09da EB090000 		.4byte	0x9eb
 11096 09de 0F       		.uleb128 0xf
 11097 09df 01       		.uleb128 0x1
 11098 09e0 51       		.byte	0x51
 11099 09e1 01       		.uleb128 0x1
 11100 09e2 49       		.byte	0x49
 11101 09e3 0F       		.uleb128 0xf
 11102 09e4 01       		.uleb128 0x1
 11103 09e5 50       		.byte	0x50
 11104 09e6 03       		.uleb128 0x3
 11105 09e7 0A       		.byte	0xa
 11106 09e8 4001     		.2byte	0x140
 11107 09ea 00       		.byte	0
 11108 09eb 0E       		.uleb128 0xe
 11109 09ec 10040000 		.4byte	.LVL147
 11110 09f0 6F3C0000 		.4byte	0x3c6f
 11111 09f4 FF090000 		.4byte	0x9ff
 11112 09f8 0F       		.uleb128 0xf
 11113 09f9 01       		.uleb128 0x1
 11114 09fa 50       		.byte	0x50
 11115 09fb 02       		.uleb128 0x2
 11116 09fc 74       		.byte	0x74
 11117 09fd 00       		.sleb128 0
 11118 09fe 00       		.byte	0
 11119 09ff 0E       		.uleb128 0xe
 11120 0a00 52040000 		.4byte	.LVL148
 11121 0a04 803C0000 		.4byte	0x3c80
 11122 0a08 1F0A0000 		.4byte	0xa1f
 11123 0a0c 0F       		.uleb128 0xf
 11124 0a0d 01       		.uleb128 0x1
 11125 0a0e 52       		.byte	0x52
 11126 0a0f 03       		.uleb128 0x3
ARM GAS  C:\Users\diego\AppData\Local\Temp\ccwBHTp3.s 			page 238


 11127 0a10 91       		.byte	0x91
 11128 0a11 B47F     		.sleb128 -76
 11129 0a13 0F       		.uleb128 0xf
 11130 0a14 01       		.uleb128 0x1
 11131 0a15 51       		.byte	0x51
 11132 0a16 02       		.uleb128 0x2
 11133 0a17 91       		.byte	0x91
 11134 0a18 44       		.sleb128 -60
 11135 0a19 0F       		.uleb128 0xf
 11136 0a1a 01       		.uleb128 0x1
 11137 0a1b 50       		.byte	0x50
 11138 0a1c 01       		.uleb128 0x1
 11139 0a1d 32       		.byte	0x32
 11140 0a1e 00       		.byte	0
 11141 0a1f 0E       		.uleb128 0xe
 11142 0a20 68040000 		.4byte	.LVL149
 11143 0a24 253C0000 		.4byte	0x3c25
 11144 0a28 330A0000 		.4byte	0xa33
 11145 0a2c 0F       		.uleb128 0xf
 11146 0a2d 01       		.uleb128 0x1
 11147 0a2e 50       		.byte	0x50
 11148 0a2f 02       		.uleb128 0x2
 11149 0a30 74       		.byte	0x74
 11150 0a31 00       		.sleb128 0
 11151 0a32 00       		.byte	0
 11152 0a33 0E       		.uleb128 0xe
 11153 0a34 80040000 		.4byte	.LVL150
 11154 0a38 9B3C0000 		.4byte	0x3c9b
 11155 0a3c 500A0000 		.4byte	0xa50
 11156 0a40 0F       		.uleb128 0xf
 11157 0a41 01       		.uleb128 0x1
 11158 0a42 51       		.byte	0x51
 11159 0a43 02       		.uleb128 0x2
 11160 0a44 74       		.byte	0x74
 11161 0a45 00       		.sleb128 0
 11162 0a46 0F       		.uleb128 0xf
 11163 0a47 01       		.uleb128 0x1
 11164 0a48 50       		.byte	0x50
 11165 0a49 05       		.uleb128 0x5
 11166 0a4a 03       		.byte	0x3
 11167 0a4b 00000000 		.4byte	resultado
 11168 0a4f 00       		.byte	0
 11169 0a50 0E       		.uleb128 0xe
 11170 0a51 90040000 		.4byte	.LVL151
 11171 0a55 0B3C0000 		.4byte	0x3c0b
 11172 0a59 6A0A0000 		.4byte	0xa6a
 11173 0a5d 0F       		.uleb128 0xf
 11174 0a5e 01       		.uleb128 0x1
 11175 0a5f 51       		.byte	0x51
 11176 0a60 02       		.uleb128 0x2
 11177 0a61 91       		.byte	0x91
 11178 0a62 54       		.sleb128 -44
 11179 0a63 0F       		.uleb128 0xf
 11180 0a64 01       		.uleb128 0x1
 11181 0a65 50       		.byte	0x50
 11182 0a66 02       		.uleb128 0x2
 11183 0a67 08       		.byte	0x8
ARM GAS  C:\Users\diego\AppData\Local\Temp\ccwBHTp3.s 			page 239


 11184 0a68 D9       		.byte	0xd9
 11185 0a69 00       		.byte	0
 11186 0a6a 0E       		.uleb128 0xe
 11187 0a6b 9A040000 		.4byte	.LVL152
 11188 0a6f 0B3C0000 		.4byte	0x3c0b
 11189 0a73 880A0000 		.4byte	0xa88
 11190 0a77 0F       		.uleb128 0xf
 11191 0a78 01       		.uleb128 0x1
 11192 0a79 51       		.byte	0x51
 11193 0a7a 05       		.uleb128 0x5
 11194 0a7b 03       		.byte	0x3
 11195 0a7c 00000000 		.4byte	resultado
 11196 0a80 0F       		.uleb128 0xf
 11197 0a81 01       		.uleb128 0x1
 11198 0a82 50       		.byte	0x50
 11199 0a83 03       		.uleb128 0x3
 11200 0a84 0A       		.byte	0xa
 11201 0a85 1A02     		.2byte	0x21a
 11202 0a87 00       		.byte	0
 11203 0a88 0E       		.uleb128 0xe
 11204 0a89 A6040000 		.4byte	.LVL153
 11205 0a8d 0B3C0000 		.4byte	0x3c0b
 11206 0a91 A30A0000 		.4byte	0xaa3
 11207 0a95 0F       		.uleb128 0xf
 11208 0a96 01       		.uleb128 0x1
 11209 0a97 51       		.byte	0x51
 11210 0a98 02       		.uleb128 0x2
 11211 0a99 91       		.byte	0x91
 11212 0a9a 54       		.sleb128 -44
 11213 0a9b 0F       		.uleb128 0xf
 11214 0a9c 01       		.uleb128 0x1
 11215 0a9d 50       		.byte	0x50
 11216 0a9e 03       		.uleb128 0x3
 11217 0a9f 0A       		.byte	0xa
 11218 0aa0 4001     		.2byte	0x140
 11219 0aa2 00       		.byte	0
 11220 0aa3 0E       		.uleb128 0xe
 11221 0aa4 B0040000 		.4byte	.LVL154
 11222 0aa8 0B3C0000 		.4byte	0x3c0b
 11223 0aac C10A0000 		.4byte	0xac1
 11224 0ab0 0F       		.uleb128 0xf
 11225 0ab1 01       		.uleb128 0x1
 11226 0ab2 51       		.byte	0x51
 11227 0ab3 05       		.uleb128 0x5
 11228 0ab4 03       		.byte	0x3
 11229 0ab5 00000000 		.4byte	resultado
 11230 0ab9 0F       		.uleb128 0xf
 11231 0aba 01       		.uleb128 0x1
 11232 0abb 50       		.byte	0x50
 11233 0abc 03       		.uleb128 0x3
 11234 0abd 0A       		.byte	0xa
 11235 0abe 4002     		.2byte	0x240
 11236 0ac0 00       		.byte	0
 11237 0ac1 0E       		.uleb128 0xe
 11238 0ac2 F4040000 		.4byte	.LVL155
 11239 0ac6 253C0000 		.4byte	0x3c25
 11240 0aca D50A0000 		.4byte	0xad5
ARM GAS  C:\Users\diego\AppData\Local\Temp\ccwBHTp3.s 			page 240


 11241 0ace 0F       		.uleb128 0xf
 11242 0acf 01       		.uleb128 0x1
 11243 0ad0 50       		.byte	0x50
 11244 0ad1 02       		.uleb128 0x2
 11245 0ad2 74       		.byte	0x74
 11246 0ad3 00       		.sleb128 0
 11247 0ad4 00       		.byte	0
 11248 0ad5 0E       		.uleb128 0xe
 11249 0ad6 0C050000 		.4byte	.LVL156
 11250 0ada 253C0000 		.4byte	0x3c25
 11251 0ade EE0A0000 		.4byte	0xaee
 11252 0ae2 0F       		.uleb128 0xf
 11253 0ae3 01       		.uleb128 0x1
 11254 0ae4 51       		.byte	0x51
 11255 0ae5 01       		.uleb128 0x1
 11256 0ae6 3A       		.byte	0x3a
 11257 0ae7 0F       		.uleb128 0xf
 11258 0ae8 01       		.uleb128 0x1
 11259 0ae9 50       		.byte	0x50
 11260 0aea 02       		.uleb128 0x2
 11261 0aeb 74       		.byte	0x74
 11262 0aec 00       		.sleb128 0
 11263 0aed 00       		.byte	0
 11264 0aee 0E       		.uleb128 0xe
 11265 0aef 1E050000 		.4byte	.LVL157
 11266 0af3 253C0000 		.4byte	0x3c25
 11267 0af7 020B0000 		.4byte	0xb02
 11268 0afb 0F       		.uleb128 0xf
 11269 0afc 01       		.uleb128 0x1
 11270 0afd 50       		.byte	0x50
 11271 0afe 02       		.uleb128 0x2
 11272 0aff 74       		.byte	0x74
 11273 0b00 00       		.sleb128 0
 11274 0b01 00       		.byte	0
 11275 0b02 0E       		.uleb128 0xe
 11276 0b03 36050000 		.4byte	.LVL158
 11277 0b07 253C0000 		.4byte	0x3c25
 11278 0b0b 1B0B0000 		.4byte	0xb1b
 11279 0b0f 0F       		.uleb128 0xf
 11280 0b10 01       		.uleb128 0x1
 11281 0b11 51       		.byte	0x51
 11282 0b12 01       		.uleb128 0x1
 11283 0b13 3A       		.byte	0x3a
 11284 0b14 0F       		.uleb128 0xf
 11285 0b15 01       		.uleb128 0x1
 11286 0b16 50       		.byte	0x50
 11287 0b17 02       		.uleb128 0x2
 11288 0b18 74       		.byte	0x74
 11289 0b19 00       		.sleb128 0
 11290 0b1a 00       		.byte	0
 11291 0b1b 0E       		.uleb128 0xe
 11292 0b1c 4A050000 		.4byte	.LVL159
 11293 0b20 253C0000 		.4byte	0x3c25
 11294 0b24 2F0B0000 		.4byte	0xb2f
 11295 0b28 0F       		.uleb128 0xf
 11296 0b29 01       		.uleb128 0x1
 11297 0b2a 50       		.byte	0x50
ARM GAS  C:\Users\diego\AppData\Local\Temp\ccwBHTp3.s 			page 241


 11298 0b2b 02       		.uleb128 0x2
 11299 0b2c 74       		.byte	0x74
 11300 0b2d 00       		.sleb128 0
 11301 0b2e 00       		.byte	0
 11302 0b2f 0E       		.uleb128 0xe
 11303 0b30 62050000 		.4byte	.LVL160
 11304 0b34 253C0000 		.4byte	0x3c25
 11305 0b38 480B0000 		.4byte	0xb48
 11306 0b3c 0F       		.uleb128 0xf
 11307 0b3d 01       		.uleb128 0x1
 11308 0b3e 51       		.byte	0x51
 11309 0b3f 01       		.uleb128 0x1
 11310 0b40 3A       		.byte	0x3a
 11311 0b41 0F       		.uleb128 0xf
 11312 0b42 01       		.uleb128 0x1
 11313 0b43 50       		.byte	0x50
 11314 0b44 02       		.uleb128 0x2
 11315 0b45 74       		.byte	0x74
 11316 0b46 00       		.sleb128 0
 11317 0b47 00       		.byte	0
 11318 0b48 0E       		.uleb128 0xe
 11319 0b49 6A050000 		.4byte	.LVL161
 11320 0b4d 3F3C0000 		.4byte	0x3c3f
 11321 0b51 610B0000 		.4byte	0xb61
 11322 0b55 0F       		.uleb128 0xf
 11323 0b56 01       		.uleb128 0x1
 11324 0b57 51       		.byte	0x51
 11325 0b58 02       		.uleb128 0x2
 11326 0b59 74       		.byte	0x74
 11327 0b5a 00       		.sleb128 0
 11328 0b5b 0F       		.uleb128 0xf
 11329 0b5c 01       		.uleb128 0x1
 11330 0b5d 50       		.byte	0x50
 11331 0b5e 01       		.uleb128 0x1
 11332 0b5f 38       		.byte	0x38
 11333 0b60 00       		.byte	0
 11334 0b61 0E       		.uleb128 0xe
 11335 0b62 7E050000 		.4byte	.LVL162
 11336 0b66 253C0000 		.4byte	0x3c25
 11337 0b6a 750B0000 		.4byte	0xb75
 11338 0b6e 0F       		.uleb128 0xf
 11339 0b6f 01       		.uleb128 0x1
 11340 0b70 50       		.byte	0x50
 11341 0b71 02       		.uleb128 0x2
 11342 0b72 74       		.byte	0x74
 11343 0b73 00       		.sleb128 0
 11344 0b74 00       		.byte	0
 11345 0b75 0E       		.uleb128 0xe
 11346 0b76 96050000 		.4byte	.LVL163
 11347 0b7a 253C0000 		.4byte	0x3c25
 11348 0b7e 8E0B0000 		.4byte	0xb8e
 11349 0b82 0F       		.uleb128 0xf
 11350 0b83 01       		.uleb128 0x1
 11351 0b84 51       		.byte	0x51
 11352 0b85 01       		.uleb128 0x1
 11353 0b86 3A       		.byte	0x3a
 11354 0b87 0F       		.uleb128 0xf
ARM GAS  C:\Users\diego\AppData\Local\Temp\ccwBHTp3.s 			page 242


 11355 0b88 01       		.uleb128 0x1
 11356 0b89 50       		.byte	0x50
 11357 0b8a 02       		.uleb128 0x2
 11358 0b8b 74       		.byte	0x74
 11359 0b8c 00       		.sleb128 0
 11360 0b8d 00       		.byte	0
 11361 0b8e 0E       		.uleb128 0xe
 11362 0b8f A8050000 		.4byte	.LVL164
 11363 0b93 553C0000 		.4byte	0x3c55
 11364 0b97 A80B0000 		.4byte	0xba8
 11365 0b9b 0F       		.uleb128 0xf
 11366 0b9c 01       		.uleb128 0x1
 11367 0b9d 51       		.byte	0x51
 11368 0b9e 01       		.uleb128 0x1
 11369 0b9f 49       		.byte	0x49
 11370 0ba0 0F       		.uleb128 0xf
 11371 0ba1 01       		.uleb128 0x1
 11372 0ba2 50       		.byte	0x50
 11373 0ba3 03       		.uleb128 0x3
 11374 0ba4 0A       		.byte	0xa
 11375 0ba5 0001     		.2byte	0x100
 11376 0ba7 00       		.byte	0
 11377 0ba8 0E       		.uleb128 0xe
 11378 0ba9 B4050000 		.4byte	.LVL165
 11379 0bad 553C0000 		.4byte	0x3c55
 11380 0bb1 C20B0000 		.4byte	0xbc2
 11381 0bb5 0F       		.uleb128 0xf
 11382 0bb6 01       		.uleb128 0x1
 11383 0bb7 51       		.byte	0x51
 11384 0bb8 01       		.uleb128 0x1
 11385 0bb9 49       		.byte	0x49
 11386 0bba 0F       		.uleb128 0xf
 11387 0bbb 01       		.uleb128 0x1
 11388 0bbc 50       		.byte	0x50
 11389 0bbd 03       		.uleb128 0x3
 11390 0bbe 0A       		.byte	0xa
 11391 0bbf 5901     		.2byte	0x159
 11392 0bc1 00       		.byte	0
 11393 0bc2 0E       		.uleb128 0xe
 11394 0bc3 BA050000 		.4byte	.LVL166
 11395 0bc7 6F3C0000 		.4byte	0x3c6f
 11396 0bcb D60B0000 		.4byte	0xbd6
 11397 0bcf 0F       		.uleb128 0xf
 11398 0bd0 01       		.uleb128 0x1
 11399 0bd1 50       		.byte	0x50
 11400 0bd2 02       		.uleb128 0x2
 11401 0bd3 74       		.byte	0x74
 11402 0bd4 00       		.sleb128 0
 11403 0bd5 00       		.byte	0
 11404 0bd6 0E       		.uleb128 0xe
 11405 0bd7 3A060000 		.4byte	.LVL167
 11406 0bdb 803C0000 		.4byte	0x3c80
 11407 0bdf F60B0000 		.4byte	0xbf6
 11408 0be3 0F       		.uleb128 0xf
 11409 0be4 01       		.uleb128 0x1
 11410 0be5 52       		.byte	0x52
 11411 0be6 03       		.uleb128 0x3
ARM GAS  C:\Users\diego\AppData\Local\Temp\ccwBHTp3.s 			page 243


 11412 0be7 91       		.byte	0x91
 11413 0be8 B47F     		.sleb128 -76
 11414 0bea 0F       		.uleb128 0xf
 11415 0beb 01       		.uleb128 0x1
 11416 0bec 51       		.byte	0x51
 11417 0bed 02       		.uleb128 0x2
 11418 0bee 91       		.byte	0x91
 11419 0bef 44       		.sleb128 -60
 11420 0bf0 0F       		.uleb128 0xf
 11421 0bf1 01       		.uleb128 0x1
 11422 0bf2 50       		.byte	0x50
 11423 0bf3 01       		.uleb128 0x1
 11424 0bf4 32       		.byte	0x32
 11425 0bf5 00       		.byte	0
 11426 0bf6 0E       		.uleb128 0xe
 11427 0bf7 50060000 		.4byte	.LVL168
 11428 0bfb 253C0000 		.4byte	0x3c25
 11429 0bff 0A0C0000 		.4byte	0xc0a
 11430 0c03 0F       		.uleb128 0xf
 11431 0c04 01       		.uleb128 0x1
 11432 0c05 50       		.byte	0x50
 11433 0c06 02       		.uleb128 0x2
 11434 0c07 74       		.byte	0x74
 11435 0c08 00       		.sleb128 0
 11436 0c09 00       		.byte	0
 11437 0c0a 0E       		.uleb128 0xe
 11438 0c0b 68060000 		.4byte	.LVL169
 11439 0c0f 9B3C0000 		.4byte	0x3c9b
 11440 0c13 270C0000 		.4byte	0xc27
 11441 0c17 0F       		.uleb128 0xf
 11442 0c18 01       		.uleb128 0x1
 11443 0c19 51       		.byte	0x51
 11444 0c1a 02       		.uleb128 0x2
 11445 0c1b 74       		.byte	0x74
 11446 0c1c 00       		.sleb128 0
 11447 0c1d 0F       		.uleb128 0xf
 11448 0c1e 01       		.uleb128 0x1
 11449 0c1f 50       		.byte	0x50
 11450 0c20 05       		.uleb128 0x5
 11451 0c21 03       		.byte	0x3
 11452 0c22 00000000 		.4byte	resultado
 11453 0c26 00       		.byte	0
 11454 0c27 0E       		.uleb128 0xe
 11455 0c28 7A060000 		.4byte	.LVL170
 11456 0c2c 0B3C0000 		.4byte	0x3c0b
 11457 0c30 420C0000 		.4byte	0xc42
 11458 0c34 0F       		.uleb128 0xf
 11459 0c35 01       		.uleb128 0x1
 11460 0c36 51       		.byte	0x51
 11461 0c37 02       		.uleb128 0x2
 11462 0c38 91       		.byte	0x91
 11463 0c39 54       		.sleb128 -44
 11464 0c3a 0F       		.uleb128 0xf
 11465 0c3b 01       		.uleb128 0x1
 11466 0c3c 50       		.byte	0x50
 11467 0c3d 03       		.uleb128 0x3
 11468 0c3e 0A       		.byte	0xa
ARM GAS  C:\Users\diego\AppData\Local\Temp\ccwBHTp3.s 			page 244


 11469 0c3f 0001     		.2byte	0x100
 11470 0c41 00       		.byte	0
 11471 0c42 0E       		.uleb128 0xe
 11472 0c43 84060000 		.4byte	.LVL171
 11473 0c47 0B3C0000 		.4byte	0x3c0b
 11474 0c4b 600C0000 		.4byte	0xc60
 11475 0c4f 0F       		.uleb128 0xf
 11476 0c50 01       		.uleb128 0x1
 11477 0c51 51       		.byte	0x51
 11478 0c52 05       		.uleb128 0x5
 11479 0c53 03       		.byte	0x3
 11480 0c54 00000000 		.4byte	resultado
 11481 0c58 0F       		.uleb128 0xf
 11482 0c59 01       		.uleb128 0x1
 11483 0c5a 50       		.byte	0x50
 11484 0c5b 03       		.uleb128 0x3
 11485 0c5c 0A       		.byte	0xa
 11486 0c5d 0D02     		.2byte	0x20d
 11487 0c5f 00       		.byte	0
 11488 0c60 0E       		.uleb128 0xe
 11489 0c61 90060000 		.4byte	.LVL172
 11490 0c65 0B3C0000 		.4byte	0x3c0b
 11491 0c69 7B0C0000 		.4byte	0xc7b
 11492 0c6d 0F       		.uleb128 0xf
 11493 0c6e 01       		.uleb128 0x1
 11494 0c6f 51       		.byte	0x51
 11495 0c70 02       		.uleb128 0x2
 11496 0c71 91       		.byte	0x91
 11497 0c72 54       		.sleb128 -44
 11498 0c73 0F       		.uleb128 0xf
 11499 0c74 01       		.uleb128 0x1
 11500 0c75 50       		.byte	0x50
 11501 0c76 03       		.uleb128 0x3
 11502 0c77 0A       		.byte	0xa
 11503 0c78 5901     		.2byte	0x159
 11504 0c7a 00       		.byte	0
 11505 0c7b 0E       		.uleb128 0xe
 11506 0c7c 9A060000 		.4byte	.LVL173
 11507 0c80 0B3C0000 		.4byte	0x3c0b
 11508 0c84 990C0000 		.4byte	0xc99
 11509 0c88 0F       		.uleb128 0xf
 11510 0c89 01       		.uleb128 0x1
 11511 0c8a 51       		.byte	0x51
 11512 0c8b 05       		.uleb128 0x5
 11513 0c8c 03       		.byte	0x3
 11514 0c8d 00000000 		.4byte	resultado
 11515 0c91 0F       		.uleb128 0xf
 11516 0c92 01       		.uleb128 0x1
 11517 0c93 50       		.byte	0x50
 11518 0c94 03       		.uleb128 0x3
 11519 0c95 0A       		.byte	0xa
 11520 0c96 4D02     		.2byte	0x24d
 11521 0c98 00       		.byte	0
 11522 0c99 0E       		.uleb128 0xe
 11523 0c9a DE060000 		.4byte	.LVL174
 11524 0c9e 253C0000 		.4byte	0x3c25
 11525 0ca2 AD0C0000 		.4byte	0xcad
ARM GAS  C:\Users\diego\AppData\Local\Temp\ccwBHTp3.s 			page 245


 11526 0ca6 0F       		.uleb128 0xf
 11527 0ca7 01       		.uleb128 0x1
 11528 0ca8 50       		.byte	0x50
 11529 0ca9 02       		.uleb128 0x2
 11530 0caa 74       		.byte	0x74
 11531 0cab 00       		.sleb128 0
 11532 0cac 00       		.byte	0
 11533 0cad 0E       		.uleb128 0xe
 11534 0cae F6060000 		.4byte	.LVL175
 11535 0cb2 253C0000 		.4byte	0x3c25
 11536 0cb6 C60C0000 		.4byte	0xcc6
 11537 0cba 0F       		.uleb128 0xf
 11538 0cbb 01       		.uleb128 0x1
 11539 0cbc 51       		.byte	0x51
 11540 0cbd 01       		.uleb128 0x1
 11541 0cbe 3A       		.byte	0x3a
 11542 0cbf 0F       		.uleb128 0xf
 11543 0cc0 01       		.uleb128 0x1
 11544 0cc1 50       		.byte	0x50
 11545 0cc2 02       		.uleb128 0x2
 11546 0cc3 74       		.byte	0x74
 11547 0cc4 00       		.sleb128 0
 11548 0cc5 00       		.byte	0
 11549 0cc6 0E       		.uleb128 0xe
 11550 0cc7 08070000 		.4byte	.LVL176
 11551 0ccb 253C0000 		.4byte	0x3c25
 11552 0ccf DA0C0000 		.4byte	0xcda
 11553 0cd3 0F       		.uleb128 0xf
 11554 0cd4 01       		.uleb128 0x1
 11555 0cd5 50       		.byte	0x50
 11556 0cd6 02       		.uleb128 0x2
 11557 0cd7 74       		.byte	0x74
 11558 0cd8 00       		.sleb128 0
 11559 0cd9 00       		.byte	0
 11560 0cda 0E       		.uleb128 0xe
 11561 0cdb 20070000 		.4byte	.LVL177
 11562 0cdf 253C0000 		.4byte	0x3c25
 11563 0ce3 F30C0000 		.4byte	0xcf3
 11564 0ce7 0F       		.uleb128 0xf
 11565 0ce8 01       		.uleb128 0x1
 11566 0ce9 51       		.byte	0x51
 11567 0cea 01       		.uleb128 0x1
 11568 0ceb 3A       		.byte	0x3a
 11569 0cec 0F       		.uleb128 0xf
 11570 0ced 01       		.uleb128 0x1
 11571 0cee 50       		.byte	0x50
 11572 0cef 02       		.uleb128 0x2
 11573 0cf0 74       		.byte	0x74
 11574 0cf1 00       		.sleb128 0
 11575 0cf2 00       		.byte	0
 11576 0cf3 0E       		.uleb128 0xe
 11577 0cf4 34070000 		.4byte	.LVL178
 11578 0cf8 253C0000 		.4byte	0x3c25
 11579 0cfc 070D0000 		.4byte	0xd07
 11580 0d00 0F       		.uleb128 0xf
 11581 0d01 01       		.uleb128 0x1
 11582 0d02 50       		.byte	0x50
ARM GAS  C:\Users\diego\AppData\Local\Temp\ccwBHTp3.s 			page 246


 11583 0d03 02       		.uleb128 0x2
 11584 0d04 74       		.byte	0x74
 11585 0d05 00       		.sleb128 0
 11586 0d06 00       		.byte	0
 11587 0d07 0E       		.uleb128 0xe
 11588 0d08 4C070000 		.4byte	.LVL179
 11589 0d0c 253C0000 		.4byte	0x3c25
 11590 0d10 200D0000 		.4byte	0xd20
 11591 0d14 0F       		.uleb128 0xf
 11592 0d15 01       		.uleb128 0x1
 11593 0d16 51       		.byte	0x51
 11594 0d17 01       		.uleb128 0x1
 11595 0d18 3A       		.byte	0x3a
 11596 0d19 0F       		.uleb128 0xf
 11597 0d1a 01       		.uleb128 0x1
 11598 0d1b 50       		.byte	0x50
 11599 0d1c 02       		.uleb128 0x2
 11600 0d1d 74       		.byte	0x74
 11601 0d1e 00       		.sleb128 0
 11602 0d1f 00       		.byte	0
 11603 0d20 0E       		.uleb128 0xe
 11604 0d21 54070000 		.4byte	.LVL180
 11605 0d25 3F3C0000 		.4byte	0x3c3f
 11606 0d29 390D0000 		.4byte	0xd39
 11607 0d2d 0F       		.uleb128 0xf
 11608 0d2e 01       		.uleb128 0x1
 11609 0d2f 51       		.byte	0x51
 11610 0d30 02       		.uleb128 0x2
 11611 0d31 74       		.byte	0x74
 11612 0d32 00       		.sleb128 0
 11613 0d33 0F       		.uleb128 0xf
 11614 0d34 01       		.uleb128 0x1
 11615 0d35 50       		.byte	0x50
 11616 0d36 01       		.uleb128 0x1
 11617 0d37 38       		.byte	0x38
 11618 0d38 00       		.byte	0
 11619 0d39 0E       		.uleb128 0xe
 11620 0d3a 68070000 		.4byte	.LVL181
 11621 0d3e 253C0000 		.4byte	0x3c25
 11622 0d42 4D0D0000 		.4byte	0xd4d
 11623 0d46 0F       		.uleb128 0xf
 11624 0d47 01       		.uleb128 0x1
 11625 0d48 50       		.byte	0x50
 11626 0d49 02       		.uleb128 0x2
 11627 0d4a 74       		.byte	0x74
 11628 0d4b 00       		.sleb128 0
 11629 0d4c 00       		.byte	0
 11630 0d4d 0E       		.uleb128 0xe
 11631 0d4e 80070000 		.4byte	.LVL182
 11632 0d52 253C0000 		.4byte	0x3c25
 11633 0d56 660D0000 		.4byte	0xd66
 11634 0d5a 0F       		.uleb128 0xf
 11635 0d5b 01       		.uleb128 0x1
 11636 0d5c 51       		.byte	0x51
 11637 0d5d 01       		.uleb128 0x1
 11638 0d5e 3A       		.byte	0x3a
 11639 0d5f 0F       		.uleb128 0xf
ARM GAS  C:\Users\diego\AppData\Local\Temp\ccwBHTp3.s 			page 247


 11640 0d60 01       		.uleb128 0x1
 11641 0d61 50       		.byte	0x50
 11642 0d62 02       		.uleb128 0x2
 11643 0d63 74       		.byte	0x74
 11644 0d64 00       		.sleb128 0
 11645 0d65 00       		.byte	0
 11646 0d66 0E       		.uleb128 0xe
 11647 0d67 92070000 		.4byte	.LVL183
 11648 0d6b 553C0000 		.4byte	0x3c55
 11649 0d6f 800D0000 		.4byte	0xd80
 11650 0d73 0F       		.uleb128 0xf
 11651 0d74 01       		.uleb128 0x1
 11652 0d75 51       		.byte	0x51
 11653 0d76 01       		.uleb128 0x1
 11654 0d77 49       		.byte	0x49
 11655 0d78 0F       		.uleb128 0xf
 11656 0d79 01       		.uleb128 0x1
 11657 0d7a 50       		.byte	0x50
 11658 0d7b 03       		.uleb128 0x3
 11659 0d7c 0A       		.byte	0xa
 11660 0d7d 4804     		.2byte	0x448
 11661 0d7f 00       		.byte	0
 11662 0d80 0E       		.uleb128 0xe
 11663 0d81 9E070000 		.4byte	.LVL184
 11664 0d85 553C0000 		.4byte	0x3c55
 11665 0d89 9A0D0000 		.4byte	0xd9a
 11666 0d8d 0F       		.uleb128 0xf
 11667 0d8e 01       		.uleb128 0x1
 11668 0d8f 51       		.byte	0x51
 11669 0d90 01       		.uleb128 0x1
 11670 0d91 49       		.byte	0x49
 11671 0d92 0F       		.uleb128 0xf
 11672 0d93 01       		.uleb128 0x1
 11673 0d94 50       		.byte	0x50
 11674 0d95 03       		.uleb128 0x3
 11675 0d96 0A       		.byte	0xa
 11676 0d97 1E04     		.2byte	0x41e
 11677 0d99 00       		.byte	0
 11678 0d9a 0E       		.uleb128 0xe
 11679 0d9b A4070000 		.4byte	.LVL185
 11680 0d9f 6F3C0000 		.4byte	0x3c6f
 11681 0da3 AE0D0000 		.4byte	0xdae
 11682 0da7 0F       		.uleb128 0xf
 11683 0da8 01       		.uleb128 0x1
 11684 0da9 50       		.byte	0x50
 11685 0daa 02       		.uleb128 0x2
 11686 0dab 74       		.byte	0x74
 11687 0dac 00       		.sleb128 0
 11688 0dad 00       		.byte	0
 11689 0dae 0E       		.uleb128 0xe
 11690 0daf E6070000 		.4byte	.LVL186
 11691 0db3 803C0000 		.4byte	0x3c80
 11692 0db7 CE0D0000 		.4byte	0xdce
 11693 0dbb 0F       		.uleb128 0xf
 11694 0dbc 01       		.uleb128 0x1
 11695 0dbd 52       		.byte	0x52
 11696 0dbe 03       		.uleb128 0x3
ARM GAS  C:\Users\diego\AppData\Local\Temp\ccwBHTp3.s 			page 248


 11697 0dbf 91       		.byte	0x91
 11698 0dc0 B47F     		.sleb128 -76
 11699 0dc2 0F       		.uleb128 0xf
 11700 0dc3 01       		.uleb128 0x1
 11701 0dc4 51       		.byte	0x51
 11702 0dc5 02       		.uleb128 0x2
 11703 0dc6 91       		.byte	0x91
 11704 0dc7 44       		.sleb128 -60
 11705 0dc8 0F       		.uleb128 0xf
 11706 0dc9 01       		.uleb128 0x1
 11707 0dca 50       		.byte	0x50
 11708 0dcb 01       		.uleb128 0x1
 11709 0dcc 32       		.byte	0x32
 11710 0dcd 00       		.byte	0
 11711 0dce 0E       		.uleb128 0xe
 11712 0dcf FC070000 		.4byte	.LVL187
 11713 0dd3 253C0000 		.4byte	0x3c25
 11714 0dd7 E20D0000 		.4byte	0xde2
 11715 0ddb 0F       		.uleb128 0xf
 11716 0ddc 01       		.uleb128 0x1
 11717 0ddd 50       		.byte	0x50
 11718 0dde 02       		.uleb128 0x2
 11719 0ddf 74       		.byte	0x74
 11720 0de0 00       		.sleb128 0
 11721 0de1 00       		.byte	0
 11722 0de2 0E       		.uleb128 0xe
 11723 0de3 14080000 		.4byte	.LVL188
 11724 0de7 9B3C0000 		.4byte	0x3c9b
 11725 0deb FF0D0000 		.4byte	0xdff
 11726 0def 0F       		.uleb128 0xf
 11727 0df0 01       		.uleb128 0x1
 11728 0df1 51       		.byte	0x51
 11729 0df2 02       		.uleb128 0x2
 11730 0df3 74       		.byte	0x74
 11731 0df4 00       		.sleb128 0
 11732 0df5 0F       		.uleb128 0xf
 11733 0df6 01       		.uleb128 0x1
 11734 0df7 50       		.byte	0x50
 11735 0df8 05       		.uleb128 0x5
 11736 0df9 03       		.byte	0x3
 11737 0dfa 00000000 		.4byte	resultado
 11738 0dfe 00       		.byte	0
 11739 0dff 0E       		.uleb128 0xe
 11740 0e00 26080000 		.4byte	.LVL189
 11741 0e04 0B3C0000 		.4byte	0x3c0b
 11742 0e08 1A0E0000 		.4byte	0xe1a
 11743 0e0c 0F       		.uleb128 0xf
 11744 0e0d 01       		.uleb128 0x1
 11745 0e0e 51       		.byte	0x51
 11746 0e0f 02       		.uleb128 0x2
 11747 0e10 91       		.byte	0x91
 11748 0e11 54       		.sleb128 -44
 11749 0e12 0F       		.uleb128 0xf
 11750 0e13 01       		.uleb128 0x1
 11751 0e14 50       		.byte	0x50
 11752 0e15 03       		.uleb128 0x3
 11753 0e16 0A       		.byte	0xa
ARM GAS  C:\Users\diego\AppData\Local\Temp\ccwBHTp3.s 			page 249


 11754 0e17 4804     		.2byte	0x448
 11755 0e19 00       		.byte	0
 11756 0e1a 0E       		.uleb128 0xe
 11757 0e1b 30080000 		.4byte	.LVL190
 11758 0e1f 0B3C0000 		.4byte	0x3c0b
 11759 0e23 380E0000 		.4byte	0xe38
 11760 0e27 0F       		.uleb128 0xf
 11761 0e28 01       		.uleb128 0x1
 11762 0e29 51       		.byte	0x51
 11763 0e2a 05       		.uleb128 0x5
 11764 0e2b 03       		.byte	0x3
 11765 0e2c 00000000 		.4byte	resultado
 11766 0e30 0F       		.uleb128 0xf
 11767 0e31 01       		.uleb128 0x1
 11768 0e32 50       		.byte	0x50
 11769 0e33 03       		.uleb128 0x3
 11770 0e34 0A       		.byte	0xa
 11771 0e35 0E04     		.2byte	0x40e
 11772 0e37 00       		.byte	0
 11773 0e38 0E       		.uleb128 0xe
 11774 0e39 3C080000 		.4byte	.LVL191
 11775 0e3d 0B3C0000 		.4byte	0x3c0b
 11776 0e41 530E0000 		.4byte	0xe53
 11777 0e45 0F       		.uleb128 0xf
 11778 0e46 01       		.uleb128 0x1
 11779 0e47 51       		.byte	0x51
 11780 0e48 02       		.uleb128 0x2
 11781 0e49 91       		.byte	0x91
 11782 0e4a 54       		.sleb128 -44
 11783 0e4b 0F       		.uleb128 0xf
 11784 0e4c 01       		.uleb128 0x1
 11785 0e4d 50       		.byte	0x50
 11786 0e4e 03       		.uleb128 0x3
 11787 0e4f 0A       		.byte	0xa
 11788 0e50 1E04     		.2byte	0x41e
 11789 0e52 00       		.byte	0
 11790 0e53 0E       		.uleb128 0xe
 11791 0e54 46080000 		.4byte	.LVL192
 11792 0e58 0B3C0000 		.4byte	0x3c0b
 11793 0e5c 710E0000 		.4byte	0xe71
 11794 0e60 0F       		.uleb128 0xf
 11795 0e61 01       		.uleb128 0x1
 11796 0e62 51       		.byte	0x51
 11797 0e63 05       		.uleb128 0x5
 11798 0e64 03       		.byte	0x3
 11799 0e65 00000000 		.4byte	resultado
 11800 0e69 0F       		.uleb128 0xf
 11801 0e6a 01       		.uleb128 0x1
 11802 0e6b 50       		.byte	0x50
 11803 0e6c 03       		.uleb128 0x3
 11804 0e6d 0A       		.byte	0xa
 11805 0e6e 3904     		.2byte	0x439
 11806 0e70 00       		.byte	0
 11807 0e71 10       		.uleb128 0x10
 11808 0e72 4A080000 		.4byte	.LVL193
 11809 0e76 F93B0000 		.4byte	0x3bf9
 11810 0e7a 0E       		.uleb128 0xe
ARM GAS  C:\Users\diego\AppData\Local\Temp\ccwBHTp3.s 			page 250


 11811 0e7b BC090000 		.4byte	.LVL194
 11812 0e7f 253C0000 		.4byte	0x3c25
 11813 0e83 8E0E0000 		.4byte	0xe8e
 11814 0e87 0F       		.uleb128 0xf
 11815 0e88 01       		.uleb128 0x1
 11816 0e89 50       		.byte	0x50
 11817 0e8a 02       		.uleb128 0x2
 11818 0e8b 74       		.byte	0x74
 11819 0e8c 00       		.sleb128 0
 11820 0e8d 00       		.byte	0
 11821 0e8e 0E       		.uleb128 0xe
 11822 0e8f D4090000 		.4byte	.LVL195
 11823 0e93 253C0000 		.4byte	0x3c25
 11824 0e97 A70E0000 		.4byte	0xea7
 11825 0e9b 0F       		.uleb128 0xf
 11826 0e9c 01       		.uleb128 0x1
 11827 0e9d 51       		.byte	0x51
 11828 0e9e 01       		.uleb128 0x1
 11829 0e9f 3A       		.byte	0x3a
 11830 0ea0 0F       		.uleb128 0xf
 11831 0ea1 01       		.uleb128 0x1
 11832 0ea2 50       		.byte	0x50
 11833 0ea3 02       		.uleb128 0x2
 11834 0ea4 74       		.byte	0x74
 11835 0ea5 00       		.sleb128 0
 11836 0ea6 00       		.byte	0
 11837 0ea7 0E       		.uleb128 0xe
 11838 0ea8 E6090000 		.4byte	.LVL196
 11839 0eac 253C0000 		.4byte	0x3c25
 11840 0eb0 BB0E0000 		.4byte	0xebb
 11841 0eb4 0F       		.uleb128 0xf
 11842 0eb5 01       		.uleb128 0x1
 11843 0eb6 50       		.byte	0x50
 11844 0eb7 02       		.uleb128 0x2
 11845 0eb8 74       		.byte	0x74
 11846 0eb9 00       		.sleb128 0
 11847 0eba 00       		.byte	0
 11848 0ebb 0E       		.uleb128 0xe
 11849 0ebc FE090000 		.4byte	.LVL197
 11850 0ec0 253C0000 		.4byte	0x3c25
 11851 0ec4 D40E0000 		.4byte	0xed4
 11852 0ec8 0F       		.uleb128 0xf
 11853 0ec9 01       		.uleb128 0x1
 11854 0eca 51       		.byte	0x51
 11855 0ecb 01       		.uleb128 0x1
 11856 0ecc 3A       		.byte	0x3a
 11857 0ecd 0F       		.uleb128 0xf
 11858 0ece 01       		.uleb128 0x1
 11859 0ecf 50       		.byte	0x50
 11860 0ed0 02       		.uleb128 0x2
 11861 0ed1 74       		.byte	0x74
 11862 0ed2 00       		.sleb128 0
 11863 0ed3 00       		.byte	0
 11864 0ed4 0E       		.uleb128 0xe
 11865 0ed5 120A0000 		.4byte	.LVL198
 11866 0ed9 253C0000 		.4byte	0x3c25
 11867 0edd E80E0000 		.4byte	0xee8
ARM GAS  C:\Users\diego\AppData\Local\Temp\ccwBHTp3.s 			page 251


 11868 0ee1 0F       		.uleb128 0xf
 11869 0ee2 01       		.uleb128 0x1
 11870 0ee3 50       		.byte	0x50
 11871 0ee4 02       		.uleb128 0x2
 11872 0ee5 74       		.byte	0x74
 11873 0ee6 00       		.sleb128 0
 11874 0ee7 00       		.byte	0
 11875 0ee8 0E       		.uleb128 0xe
 11876 0ee9 2A0A0000 		.4byte	.LVL199
 11877 0eed 253C0000 		.4byte	0x3c25
 11878 0ef1 010F0000 		.4byte	0xf01
 11879 0ef5 0F       		.uleb128 0xf
 11880 0ef6 01       		.uleb128 0x1
 11881 0ef7 51       		.byte	0x51
 11882 0ef8 01       		.uleb128 0x1
 11883 0ef9 3A       		.byte	0x3a
 11884 0efa 0F       		.uleb128 0xf
 11885 0efb 01       		.uleb128 0x1
 11886 0efc 50       		.byte	0x50
 11887 0efd 02       		.uleb128 0x2
 11888 0efe 74       		.byte	0x74
 11889 0eff 00       		.sleb128 0
 11890 0f00 00       		.byte	0
 11891 0f01 0E       		.uleb128 0xe
 11892 0f02 320A0000 		.4byte	.LVL200
 11893 0f06 3F3C0000 		.4byte	0x3c3f
 11894 0f0a 1A0F0000 		.4byte	0xf1a
 11895 0f0e 0F       		.uleb128 0xf
 11896 0f0f 01       		.uleb128 0x1
 11897 0f10 51       		.byte	0x51
 11898 0f11 02       		.uleb128 0x2
 11899 0f12 74       		.byte	0x74
 11900 0f13 00       		.sleb128 0
 11901 0f14 0F       		.uleb128 0xf
 11902 0f15 01       		.uleb128 0x1
 11903 0f16 50       		.byte	0x50
 11904 0f17 01       		.uleb128 0x1
 11905 0f18 38       		.byte	0x38
 11906 0f19 00       		.byte	0
 11907 0f1a 0E       		.uleb128 0xe
 11908 0f1b 460A0000 		.4byte	.LVL201
 11909 0f1f 253C0000 		.4byte	0x3c25
 11910 0f23 2E0F0000 		.4byte	0xf2e
 11911 0f27 0F       		.uleb128 0xf
 11912 0f28 01       		.uleb128 0x1
 11913 0f29 50       		.byte	0x50
 11914 0f2a 02       		.uleb128 0x2
 11915 0f2b 74       		.byte	0x74
 11916 0f2c 00       		.sleb128 0
 11917 0f2d 00       		.byte	0
 11918 0f2e 0E       		.uleb128 0xe
 11919 0f2f 5E0A0000 		.4byte	.LVL202
 11920 0f33 253C0000 		.4byte	0x3c25
 11921 0f37 470F0000 		.4byte	0xf47
 11922 0f3b 0F       		.uleb128 0xf
 11923 0f3c 01       		.uleb128 0x1
 11924 0f3d 51       		.byte	0x51
ARM GAS  C:\Users\diego\AppData\Local\Temp\ccwBHTp3.s 			page 252


 11925 0f3e 01       		.uleb128 0x1
 11926 0f3f 3A       		.byte	0x3a
 11927 0f40 0F       		.uleb128 0xf
 11928 0f41 01       		.uleb128 0x1
 11929 0f42 50       		.byte	0x50
 11930 0f43 02       		.uleb128 0x2
 11931 0f44 74       		.byte	0x74
 11932 0f45 00       		.sleb128 0
 11933 0f46 00       		.byte	0
 11934 0f47 0E       		.uleb128 0xe
 11935 0f48 6E0A0000 		.4byte	.LVL203
 11936 0f4c 553C0000 		.4byte	0x3c55
 11937 0f50 600F0000 		.4byte	0xf60
 11938 0f54 0F       		.uleb128 0xf
 11939 0f55 01       		.uleb128 0x1
 11940 0f56 51       		.byte	0x51
 11941 0f57 01       		.uleb128 0x1
 11942 0f58 49       		.byte	0x49
 11943 0f59 0F       		.uleb128 0xf
 11944 0f5a 01       		.uleb128 0x1
 11945 0f5b 50       		.byte	0x50
 11946 0f5c 02       		.uleb128 0x2
 11947 0f5d 08       		.byte	0x8
 11948 0f5e C0       		.byte	0xc0
 11949 0f5f 00       		.byte	0
 11950 0f60 0E       		.uleb128 0xe
 11951 0f61 7A0A0000 		.4byte	.LVL204
 11952 0f65 553C0000 		.4byte	0x3c55
 11953 0f69 7A0F0000 		.4byte	0xf7a
 11954 0f6d 0F       		.uleb128 0xf
 11955 0f6e 01       		.uleb128 0x1
 11956 0f6f 51       		.byte	0x51
 11957 0f70 01       		.uleb128 0x1
 11958 0f71 49       		.byte	0x49
 11959 0f72 0F       		.uleb128 0xf
 11960 0f73 01       		.uleb128 0x1
 11961 0f74 50       		.byte	0x50
 11962 0f75 03       		.uleb128 0x3
 11963 0f76 0A       		.byte	0xa
 11964 0f77 1901     		.2byte	0x119
 11965 0f79 00       		.byte	0
 11966 0f7a 0E       		.uleb128 0xe
 11967 0f7b 800A0000 		.4byte	.LVL205
 11968 0f7f 6F3C0000 		.4byte	0x3c6f
 11969 0f83 8E0F0000 		.4byte	0xf8e
 11970 0f87 0F       		.uleb128 0xf
 11971 0f88 01       		.uleb128 0x1
 11972 0f89 50       		.byte	0x50
 11973 0f8a 02       		.uleb128 0x2
 11974 0f8b 74       		.byte	0x74
 11975 0f8c 00       		.sleb128 0
 11976 0f8d 00       		.byte	0
 11977 0f8e 0E       		.uleb128 0xe
 11978 0f8f C20A0000 		.4byte	.LVL206
 11979 0f93 803C0000 		.4byte	0x3c80
 11980 0f97 AE0F0000 		.4byte	0xfae
 11981 0f9b 0F       		.uleb128 0xf
ARM GAS  C:\Users\diego\AppData\Local\Temp\ccwBHTp3.s 			page 253


 11982 0f9c 01       		.uleb128 0x1
 11983 0f9d 52       		.byte	0x52
 11984 0f9e 03       		.uleb128 0x3
 11985 0f9f 91       		.byte	0x91
 11986 0fa0 B47F     		.sleb128 -76
 11987 0fa2 0F       		.uleb128 0xf
 11988 0fa3 01       		.uleb128 0x1
 11989 0fa4 51       		.byte	0x51
 11990 0fa5 02       		.uleb128 0x2
 11991 0fa6 91       		.byte	0x91
 11992 0fa7 44       		.sleb128 -60
 11993 0fa8 0F       		.uleb128 0xf
 11994 0fa9 01       		.uleb128 0x1
 11995 0faa 50       		.byte	0x50
 11996 0fab 01       		.uleb128 0x1
 11997 0fac 32       		.byte	0x32
 11998 0fad 00       		.byte	0
 11999 0fae 0E       		.uleb128 0xe
 12000 0faf D80A0000 		.4byte	.LVL207
 12001 0fb3 253C0000 		.4byte	0x3c25
 12002 0fb7 C20F0000 		.4byte	0xfc2
 12003 0fbb 0F       		.uleb128 0xf
 12004 0fbc 01       		.uleb128 0x1
 12005 0fbd 50       		.byte	0x50
 12006 0fbe 02       		.uleb128 0x2
 12007 0fbf 74       		.byte	0x74
 12008 0fc0 00       		.sleb128 0
 12009 0fc1 00       		.byte	0
 12010 0fc2 0E       		.uleb128 0xe
 12011 0fc3 F00A0000 		.4byte	.LVL208
 12012 0fc7 9B3C0000 		.4byte	0x3c9b
 12013 0fcb DF0F0000 		.4byte	0xfdf
 12014 0fcf 0F       		.uleb128 0xf
 12015 0fd0 01       		.uleb128 0x1
 12016 0fd1 51       		.byte	0x51
 12017 0fd2 02       		.uleb128 0x2
 12018 0fd3 74       		.byte	0x74
 12019 0fd4 00       		.sleb128 0
 12020 0fd5 0F       		.uleb128 0xf
 12021 0fd6 01       		.uleb128 0x1
 12022 0fd7 50       		.byte	0x50
 12023 0fd8 05       		.uleb128 0x5
 12024 0fd9 03       		.byte	0x3
 12025 0fda 00000000 		.4byte	resultado
 12026 0fde 00       		.byte	0
 12027 0fdf 0E       		.uleb128 0xe
 12028 0fe0 000B0000 		.4byte	.LVL209
 12029 0fe4 0B3C0000 		.4byte	0x3c0b
 12030 0fe8 F90F0000 		.4byte	0xff9
 12031 0fec 0F       		.uleb128 0xf
 12032 0fed 01       		.uleb128 0x1
 12033 0fee 51       		.byte	0x51
 12034 0fef 02       		.uleb128 0x2
 12035 0ff0 91       		.byte	0x91
 12036 0ff1 54       		.sleb128 -44
 12037 0ff2 0F       		.uleb128 0xf
 12038 0ff3 01       		.uleb128 0x1
ARM GAS  C:\Users\diego\AppData\Local\Temp\ccwBHTp3.s 			page 254


 12039 0ff4 50       		.byte	0x50
 12040 0ff5 02       		.uleb128 0x2
 12041 0ff6 08       		.byte	0x8
 12042 0ff7 C0       		.byte	0xc0
 12043 0ff8 00       		.byte	0
 12044 0ff9 0E       		.uleb128 0xe
 12045 0ffa 0A0B0000 		.4byte	.LVL210
 12046 0ffe 0B3C0000 		.4byte	0x3c0b
 12047 1002 17100000 		.4byte	0x1017
 12048 1006 0F       		.uleb128 0xf
 12049 1007 01       		.uleb128 0x1
 12050 1008 51       		.byte	0x51
 12051 1009 05       		.uleb128 0x5
 12052 100a 03       		.byte	0x3
 12053 100b 00000000 		.4byte	resultado
 12054 100f 0F       		.uleb128 0xf
 12055 1010 01       		.uleb128 0x1
 12056 1011 50       		.byte	0x50
 12057 1012 03       		.uleb128 0x3
 12058 1013 0A       		.byte	0xa
 12059 1014 0002     		.2byte	0x200
 12060 1016 00       		.byte	0
 12061 1017 0E       		.uleb128 0xe
 12062 1018 160B0000 		.4byte	.LVL211
 12063 101c 0B3C0000 		.4byte	0x3c0b
 12064 1020 32100000 		.4byte	0x1032
 12065 1024 0F       		.uleb128 0xf
 12066 1025 01       		.uleb128 0x1
 12067 1026 51       		.byte	0x51
 12068 1027 02       		.uleb128 0x2
 12069 1028 91       		.byte	0x91
 12070 1029 54       		.sleb128 -44
 12071 102a 0F       		.uleb128 0xf
 12072 102b 01       		.uleb128 0x1
 12073 102c 50       		.byte	0x50
 12074 102d 03       		.uleb128 0x3
 12075 102e 0A       		.byte	0xa
 12076 102f 1901     		.2byte	0x119
 12077 1031 00       		.byte	0
 12078 1032 0E       		.uleb128 0xe
 12079 1033 200B0000 		.4byte	.LVL212
 12080 1037 0B3C0000 		.4byte	0x3c0b
 12081 103b 50100000 		.4byte	0x1050
 12082 103f 0F       		.uleb128 0xf
 12083 1040 01       		.uleb128 0x1
 12084 1041 51       		.byte	0x51
 12085 1042 05       		.uleb128 0x5
 12086 1043 03       		.byte	0x3
 12087 1044 00000000 		.4byte	resultado
 12088 1048 0F       		.uleb128 0xf
 12089 1049 01       		.uleb128 0x1
 12090 104a 50       		.byte	0x50
 12091 104b 03       		.uleb128 0x3
 12092 104c 0A       		.byte	0xa
 12093 104d 2702     		.2byte	0x227
 12094 104f 00       		.byte	0
 12095 1050 0E       		.uleb128 0xe
ARM GAS  C:\Users\diego\AppData\Local\Temp\ccwBHTp3.s 			page 255


 12096 1051 640B0000 		.4byte	.LVL213
 12097 1055 253C0000 		.4byte	0x3c25
 12098 1059 64100000 		.4byte	0x1064
 12099 105d 0F       		.uleb128 0xf
 12100 105e 01       		.uleb128 0x1
 12101 105f 50       		.byte	0x50
 12102 1060 02       		.uleb128 0x2
 12103 1061 74       		.byte	0x74
 12104 1062 00       		.sleb128 0
 12105 1063 00       		.byte	0
 12106 1064 0E       		.uleb128 0xe
 12107 1065 7C0B0000 		.4byte	.LVL214
 12108 1069 253C0000 		.4byte	0x3c25
 12109 106d 7D100000 		.4byte	0x107d
 12110 1071 0F       		.uleb128 0xf
 12111 1072 01       		.uleb128 0x1
 12112 1073 51       		.byte	0x51
 12113 1074 01       		.uleb128 0x1
 12114 1075 3A       		.byte	0x3a
 12115 1076 0F       		.uleb128 0xf
 12116 1077 01       		.uleb128 0x1
 12117 1078 50       		.byte	0x50
 12118 1079 02       		.uleb128 0x2
 12119 107a 74       		.byte	0x74
 12120 107b 00       		.sleb128 0
 12121 107c 00       		.byte	0
 12122 107d 0E       		.uleb128 0xe
 12123 107e CE0B0000 		.4byte	.LVL215
 12124 1082 253C0000 		.4byte	0x3c25
 12125 1086 91100000 		.4byte	0x1091
 12126 108a 0F       		.uleb128 0xf
 12127 108b 01       		.uleb128 0x1
 12128 108c 50       		.byte	0x50
 12129 108d 02       		.uleb128 0x2
 12130 108e 74       		.byte	0x74
 12131 108f 00       		.sleb128 0
 12132 1090 00       		.byte	0
 12133 1091 0E       		.uleb128 0xe
 12134 1092 E60B0000 		.4byte	.LVL216
 12135 1096 253C0000 		.4byte	0x3c25
 12136 109a AA100000 		.4byte	0x10aa
 12137 109e 0F       		.uleb128 0xf
 12138 109f 01       		.uleb128 0x1
 12139 10a0 51       		.byte	0x51
 12140 10a1 01       		.uleb128 0x1
 12141 10a2 3A       		.byte	0x3a
 12142 10a3 0F       		.uleb128 0xf
 12143 10a4 01       		.uleb128 0x1
 12144 10a5 50       		.byte	0x50
 12145 10a6 02       		.uleb128 0x2
 12146 10a7 74       		.byte	0x74
 12147 10a8 00       		.sleb128 0
 12148 10a9 00       		.byte	0
 12149 10aa 0E       		.uleb128 0xe
 12150 10ab FA0B0000 		.4byte	.LVL217
 12151 10af 253C0000 		.4byte	0x3c25
 12152 10b3 BE100000 		.4byte	0x10be
ARM GAS  C:\Users\diego\AppData\Local\Temp\ccwBHTp3.s 			page 256


 12153 10b7 0F       		.uleb128 0xf
 12154 10b8 01       		.uleb128 0x1
 12155 10b9 50       		.byte	0x50
 12156 10ba 02       		.uleb128 0x2
 12157 10bb 74       		.byte	0x74
 12158 10bc 00       		.sleb128 0
 12159 10bd 00       		.byte	0
 12160 10be 0E       		.uleb128 0xe
 12161 10bf 120C0000 		.4byte	.LVL218
 12162 10c3 253C0000 		.4byte	0x3c25
 12163 10c7 D7100000 		.4byte	0x10d7
 12164 10cb 0F       		.uleb128 0xf
 12165 10cc 01       		.uleb128 0x1
 12166 10cd 51       		.byte	0x51
 12167 10ce 01       		.uleb128 0x1
 12168 10cf 3A       		.byte	0x3a
 12169 10d0 0F       		.uleb128 0xf
 12170 10d1 01       		.uleb128 0x1
 12171 10d2 50       		.byte	0x50
 12172 10d3 02       		.uleb128 0x2
 12173 10d4 74       		.byte	0x74
 12174 10d5 00       		.sleb128 0
 12175 10d6 00       		.byte	0
 12176 10d7 0E       		.uleb128 0xe
 12177 10d8 1A0C0000 		.4byte	.LVL219
 12178 10dc 3F3C0000 		.4byte	0x3c3f
 12179 10e0 F0100000 		.4byte	0x10f0
 12180 10e4 0F       		.uleb128 0xf
 12181 10e5 01       		.uleb128 0x1
 12182 10e6 51       		.byte	0x51
 12183 10e7 02       		.uleb128 0x2
 12184 10e8 74       		.byte	0x74
 12185 10e9 00       		.sleb128 0
 12186 10ea 0F       		.uleb128 0xf
 12187 10eb 01       		.uleb128 0x1
 12188 10ec 50       		.byte	0x50
 12189 10ed 01       		.uleb128 0x1
 12190 10ee 38       		.byte	0x38
 12191 10ef 00       		.byte	0
 12192 10f0 0E       		.uleb128 0xe
 12193 10f1 2E0C0000 		.4byte	.LVL220
 12194 10f5 253C0000 		.4byte	0x3c25
 12195 10f9 04110000 		.4byte	0x1104
 12196 10fd 0F       		.uleb128 0xf
 12197 10fe 01       		.uleb128 0x1
 12198 10ff 50       		.byte	0x50
 12199 1100 02       		.uleb128 0x2
 12200 1101 74       		.byte	0x74
 12201 1102 00       		.sleb128 0
 12202 1103 00       		.byte	0
 12203 1104 0E       		.uleb128 0xe
 12204 1105 460C0000 		.4byte	.LVL221
 12205 1109 253C0000 		.4byte	0x3c25
 12206 110d 1D110000 		.4byte	0x111d
 12207 1111 0F       		.uleb128 0xf
 12208 1112 01       		.uleb128 0x1
 12209 1113 51       		.byte	0x51
ARM GAS  C:\Users\diego\AppData\Local\Temp\ccwBHTp3.s 			page 257


 12210 1114 01       		.uleb128 0x1
 12211 1115 3A       		.byte	0x3a
 12212 1116 0F       		.uleb128 0xf
 12213 1117 01       		.uleb128 0x1
 12214 1118 50       		.byte	0x50
 12215 1119 02       		.uleb128 0x2
 12216 111a 74       		.byte	0x74
 12217 111b 00       		.sleb128 0
 12218 111c 00       		.byte	0
 12219 111d 0E       		.uleb128 0xe
 12220 111e 560C0000 		.4byte	.LVL222
 12221 1122 553C0000 		.4byte	0x3c55
 12222 1126 36110000 		.4byte	0x1136
 12223 112a 0F       		.uleb128 0xf
 12224 112b 01       		.uleb128 0x1
 12225 112c 51       		.byte	0x51
 12226 112d 01       		.uleb128 0x1
 12227 112e 49       		.byte	0x49
 12228 112f 0F       		.uleb128 0xf
 12229 1130 01       		.uleb128 0x1
 12230 1131 50       		.byte	0x50
 12231 1132 02       		.uleb128 0x2
 12232 1133 08       		.byte	0x8
 12233 1134 D9       		.byte	0xd9
 12234 1135 00       		.byte	0
 12235 1136 0E       		.uleb128 0xe
 12236 1137 620C0000 		.4byte	.LVL223
 12237 113b 553C0000 		.4byte	0x3c55
 12238 113f 50110000 		.4byte	0x1150
 12239 1143 0F       		.uleb128 0xf
 12240 1144 01       		.uleb128 0x1
 12241 1145 51       		.byte	0x51
 12242 1146 01       		.uleb128 0x1
 12243 1147 49       		.byte	0x49
 12244 1148 0F       		.uleb128 0xf
 12245 1149 01       		.uleb128 0x1
 12246 114a 50       		.byte	0x50
 12247 114b 03       		.uleb128 0x3
 12248 114c 0A       		.byte	0xa
 12249 114d 4001     		.2byte	0x140
 12250 114f 00       		.byte	0
 12251 1150 0E       		.uleb128 0xe
 12252 1151 680C0000 		.4byte	.LVL224
 12253 1155 6F3C0000 		.4byte	0x3c6f
 12254 1159 64110000 		.4byte	0x1164
 12255 115d 0F       		.uleb128 0xf
 12256 115e 01       		.uleb128 0x1
 12257 115f 50       		.byte	0x50
 12258 1160 02       		.uleb128 0x2
 12259 1161 74       		.byte	0x74
 12260 1162 00       		.sleb128 0
 12261 1163 00       		.byte	0
 12262 1164 0E       		.uleb128 0xe
 12263 1165 AA0C0000 		.4byte	.LVL225
 12264 1169 803C0000 		.4byte	0x3c80
 12265 116d 84110000 		.4byte	0x1184
 12266 1171 0F       		.uleb128 0xf
ARM GAS  C:\Users\diego\AppData\Local\Temp\ccwBHTp3.s 			page 258


 12267 1172 01       		.uleb128 0x1
 12268 1173 52       		.byte	0x52
 12269 1174 03       		.uleb128 0x3
 12270 1175 91       		.byte	0x91
 12271 1176 B47F     		.sleb128 -76
 12272 1178 0F       		.uleb128 0xf
 12273 1179 01       		.uleb128 0x1
 12274 117a 51       		.byte	0x51
 12275 117b 02       		.uleb128 0x2
 12276 117c 91       		.byte	0x91
 12277 117d 44       		.sleb128 -60
 12278 117e 0F       		.uleb128 0xf
 12279 117f 01       		.uleb128 0x1
 12280 1180 50       		.byte	0x50
 12281 1181 01       		.uleb128 0x1
 12282 1182 32       		.byte	0x32
 12283 1183 00       		.byte	0
 12284 1184 0E       		.uleb128 0xe
 12285 1185 C00C0000 		.4byte	.LVL226
 12286 1189 253C0000 		.4byte	0x3c25
 12287 118d 98110000 		.4byte	0x1198
 12288 1191 0F       		.uleb128 0xf
 12289 1192 01       		.uleb128 0x1
 12290 1193 50       		.byte	0x50
 12291 1194 02       		.uleb128 0x2
 12292 1195 74       		.byte	0x74
 12293 1196 00       		.sleb128 0
 12294 1197 00       		.byte	0
 12295 1198 0E       		.uleb128 0xe
 12296 1199 D80C0000 		.4byte	.LVL227
 12297 119d 9B3C0000 		.4byte	0x3c9b
 12298 11a1 B5110000 		.4byte	0x11b5
 12299 11a5 0F       		.uleb128 0xf
 12300 11a6 01       		.uleb128 0x1
 12301 11a7 51       		.byte	0x51
 12302 11a8 02       		.uleb128 0x2
 12303 11a9 74       		.byte	0x74
 12304 11aa 00       		.sleb128 0
 12305 11ab 0F       		.uleb128 0xf
 12306 11ac 01       		.uleb128 0x1
 12307 11ad 50       		.byte	0x50
 12308 11ae 05       		.uleb128 0x5
 12309 11af 03       		.byte	0x3
 12310 11b0 00000000 		.4byte	resultado
 12311 11b4 00       		.byte	0
 12312 11b5 0E       		.uleb128 0xe
 12313 11b6 E80C0000 		.4byte	.LVL228
 12314 11ba 0B3C0000 		.4byte	0x3c0b
 12315 11be CF110000 		.4byte	0x11cf
 12316 11c2 0F       		.uleb128 0xf
 12317 11c3 01       		.uleb128 0x1
 12318 11c4 51       		.byte	0x51
 12319 11c5 02       		.uleb128 0x2
 12320 11c6 91       		.byte	0x91
 12321 11c7 54       		.sleb128 -44
 12322 11c8 0F       		.uleb128 0xf
 12323 11c9 01       		.uleb128 0x1
ARM GAS  C:\Users\diego\AppData\Local\Temp\ccwBHTp3.s 			page 259


 12324 11ca 50       		.byte	0x50
 12325 11cb 02       		.uleb128 0x2
 12326 11cc 08       		.byte	0x8
 12327 11cd D9       		.byte	0xd9
 12328 11ce 00       		.byte	0
 12329 11cf 0E       		.uleb128 0xe
 12330 11d0 F20C0000 		.4byte	.LVL229
 12331 11d4 0B3C0000 		.4byte	0x3c0b
 12332 11d8 ED110000 		.4byte	0x11ed
 12333 11dc 0F       		.uleb128 0xf
 12334 11dd 01       		.uleb128 0x1
 12335 11de 51       		.byte	0x51
 12336 11df 05       		.uleb128 0x5
 12337 11e0 03       		.byte	0x3
 12338 11e1 00000000 		.4byte	resultado
 12339 11e5 0F       		.uleb128 0xf
 12340 11e6 01       		.uleb128 0x1
 12341 11e7 50       		.byte	0x50
 12342 11e8 03       		.uleb128 0x3
 12343 11e9 0A       		.byte	0xa
 12344 11ea 1A02     		.2byte	0x21a
 12345 11ec 00       		.byte	0
 12346 11ed 0E       		.uleb128 0xe
 12347 11ee FE0C0000 		.4byte	.LVL230
 12348 11f2 0B3C0000 		.4byte	0x3c0b
 12349 11f6 08120000 		.4byte	0x1208
 12350 11fa 0F       		.uleb128 0xf
 12351 11fb 01       		.uleb128 0x1
 12352 11fc 51       		.byte	0x51
 12353 11fd 02       		.uleb128 0x2
 12354 11fe 91       		.byte	0x91
 12355 11ff 54       		.sleb128 -44
 12356 1200 0F       		.uleb128 0xf
 12357 1201 01       		.uleb128 0x1
 12358 1202 50       		.byte	0x50
 12359 1203 03       		.uleb128 0x3
 12360 1204 0A       		.byte	0xa
 12361 1205 4001     		.2byte	0x140
 12362 1207 00       		.byte	0
 12363 1208 0E       		.uleb128 0xe
 12364 1209 080D0000 		.4byte	.LVL231
 12365 120d 0B3C0000 		.4byte	0x3c0b
 12366 1211 26120000 		.4byte	0x1226
 12367 1215 0F       		.uleb128 0xf
 12368 1216 01       		.uleb128 0x1
 12369 1217 51       		.byte	0x51
 12370 1218 05       		.uleb128 0x5
 12371 1219 03       		.byte	0x3
 12372 121a 00000000 		.4byte	resultado
 12373 121e 0F       		.uleb128 0xf
 12374 121f 01       		.uleb128 0x1
 12375 1220 50       		.byte	0x50
 12376 1221 03       		.uleb128 0x3
 12377 1222 0A       		.byte	0xa
 12378 1223 4002     		.2byte	0x240
 12379 1225 00       		.byte	0
 12380 1226 0E       		.uleb128 0xe
ARM GAS  C:\Users\diego\AppData\Local\Temp\ccwBHTp3.s 			page 260


 12381 1227 4C0D0000 		.4byte	.LVL232
 12382 122b 253C0000 		.4byte	0x3c25
 12383 122f 3A120000 		.4byte	0x123a
 12384 1233 0F       		.uleb128 0xf
 12385 1234 01       		.uleb128 0x1
 12386 1235 50       		.byte	0x50
 12387 1236 02       		.uleb128 0x2
 12388 1237 74       		.byte	0x74
 12389 1238 00       		.sleb128 0
 12390 1239 00       		.byte	0
 12391 123a 0E       		.uleb128 0xe
 12392 123b 640D0000 		.4byte	.LVL233
 12393 123f 253C0000 		.4byte	0x3c25
 12394 1243 53120000 		.4byte	0x1253
 12395 1247 0F       		.uleb128 0xf
 12396 1248 01       		.uleb128 0x1
 12397 1249 51       		.byte	0x51
 12398 124a 01       		.uleb128 0x1
 12399 124b 3A       		.byte	0x3a
 12400 124c 0F       		.uleb128 0xf
 12401 124d 01       		.uleb128 0x1
 12402 124e 50       		.byte	0x50
 12403 124f 02       		.uleb128 0x2
 12404 1250 74       		.byte	0x74
 12405 1251 00       		.sleb128 0
 12406 1252 00       		.byte	0
 12407 1253 0E       		.uleb128 0xe
 12408 1254 760D0000 		.4byte	.LVL234
 12409 1258 253C0000 		.4byte	0x3c25
 12410 125c 67120000 		.4byte	0x1267
 12411 1260 0F       		.uleb128 0xf
 12412 1261 01       		.uleb128 0x1
 12413 1262 50       		.byte	0x50
 12414 1263 02       		.uleb128 0x2
 12415 1264 74       		.byte	0x74
 12416 1265 00       		.sleb128 0
 12417 1266 00       		.byte	0
 12418 1267 0E       		.uleb128 0xe
 12419 1268 8E0D0000 		.4byte	.LVL235
 12420 126c 253C0000 		.4byte	0x3c25
 12421 1270 80120000 		.4byte	0x1280
 12422 1274 0F       		.uleb128 0xf
 12423 1275 01       		.uleb128 0x1
 12424 1276 51       		.byte	0x51
 12425 1277 01       		.uleb128 0x1
 12426 1278 3A       		.byte	0x3a
 12427 1279 0F       		.uleb128 0xf
 12428 127a 01       		.uleb128 0x1
 12429 127b 50       		.byte	0x50
 12430 127c 02       		.uleb128 0x2
 12431 127d 74       		.byte	0x74
 12432 127e 00       		.sleb128 0
 12433 127f 00       		.byte	0
 12434 1280 0E       		.uleb128 0xe
 12435 1281 A20D0000 		.4byte	.LVL236
 12436 1285 253C0000 		.4byte	0x3c25
 12437 1289 94120000 		.4byte	0x1294
ARM GAS  C:\Users\diego\AppData\Local\Temp\ccwBHTp3.s 			page 261


 12438 128d 0F       		.uleb128 0xf
 12439 128e 01       		.uleb128 0x1
 12440 128f 50       		.byte	0x50
 12441 1290 02       		.uleb128 0x2
 12442 1291 74       		.byte	0x74
 12443 1292 00       		.sleb128 0
 12444 1293 00       		.byte	0
 12445 1294 0E       		.uleb128 0xe
 12446 1295 BA0D0000 		.4byte	.LVL237
 12447 1299 253C0000 		.4byte	0x3c25
 12448 129d AD120000 		.4byte	0x12ad
 12449 12a1 0F       		.uleb128 0xf
 12450 12a2 01       		.uleb128 0x1
 12451 12a3 51       		.byte	0x51
 12452 12a4 01       		.uleb128 0x1
 12453 12a5 3A       		.byte	0x3a
 12454 12a6 0F       		.uleb128 0xf
 12455 12a7 01       		.uleb128 0x1
 12456 12a8 50       		.byte	0x50
 12457 12a9 02       		.uleb128 0x2
 12458 12aa 74       		.byte	0x74
 12459 12ab 00       		.sleb128 0
 12460 12ac 00       		.byte	0
 12461 12ad 0E       		.uleb128 0xe
 12462 12ae C20D0000 		.4byte	.LVL238
 12463 12b2 3F3C0000 		.4byte	0x3c3f
 12464 12b6 C6120000 		.4byte	0x12c6
 12465 12ba 0F       		.uleb128 0xf
 12466 12bb 01       		.uleb128 0x1
 12467 12bc 51       		.byte	0x51
 12468 12bd 02       		.uleb128 0x2
 12469 12be 74       		.byte	0x74
 12470 12bf 00       		.sleb128 0
 12471 12c0 0F       		.uleb128 0xf
 12472 12c1 01       		.uleb128 0x1
 12473 12c2 50       		.byte	0x50
 12474 12c3 01       		.uleb128 0x1
 12475 12c4 38       		.byte	0x38
 12476 12c5 00       		.byte	0
 12477 12c6 0E       		.uleb128 0xe
 12478 12c7 D60D0000 		.4byte	.LVL239
 12479 12cb 253C0000 		.4byte	0x3c25
 12480 12cf DA120000 		.4byte	0x12da
 12481 12d3 0F       		.uleb128 0xf
 12482 12d4 01       		.uleb128 0x1
 12483 12d5 50       		.byte	0x50
 12484 12d6 02       		.uleb128 0x2
 12485 12d7 74       		.byte	0x74
 12486 12d8 00       		.sleb128 0
 12487 12d9 00       		.byte	0
 12488 12da 0E       		.uleb128 0xe
 12489 12db EE0D0000 		.4byte	.LVL240
 12490 12df 253C0000 		.4byte	0x3c25
 12491 12e3 F3120000 		.4byte	0x12f3
 12492 12e7 0F       		.uleb128 0xf
 12493 12e8 01       		.uleb128 0x1
 12494 12e9 51       		.byte	0x51
ARM GAS  C:\Users\diego\AppData\Local\Temp\ccwBHTp3.s 			page 262


 12495 12ea 01       		.uleb128 0x1
 12496 12eb 3A       		.byte	0x3a
 12497 12ec 0F       		.uleb128 0xf
 12498 12ed 01       		.uleb128 0x1
 12499 12ee 50       		.byte	0x50
 12500 12ef 02       		.uleb128 0x2
 12501 12f0 74       		.byte	0x74
 12502 12f1 00       		.sleb128 0
 12503 12f2 00       		.byte	0
 12504 12f3 0E       		.uleb128 0xe
 12505 12f4 000E0000 		.4byte	.LVL241
 12506 12f8 553C0000 		.4byte	0x3c55
 12507 12fc 0D130000 		.4byte	0x130d
 12508 1300 0F       		.uleb128 0xf
 12509 1301 01       		.uleb128 0x1
 12510 1302 51       		.byte	0x51
 12511 1303 01       		.uleb128 0x1
 12512 1304 49       		.byte	0x49
 12513 1305 0F       		.uleb128 0xf
 12514 1306 01       		.uleb128 0x1
 12515 1307 50       		.byte	0x50
 12516 1308 03       		.uleb128 0x3
 12517 1309 0A       		.byte	0xa
 12518 130a 0001     		.2byte	0x100
 12519 130c 00       		.byte	0
 12520 130d 0E       		.uleb128 0xe
 12521 130e 0C0E0000 		.4byte	.LVL242
 12522 1312 553C0000 		.4byte	0x3c55
 12523 1316 27130000 		.4byte	0x1327
 12524 131a 0F       		.uleb128 0xf
 12525 131b 01       		.uleb128 0x1
 12526 131c 51       		.byte	0x51
 12527 131d 01       		.uleb128 0x1
 12528 131e 49       		.byte	0x49
 12529 131f 0F       		.uleb128 0xf
 12530 1320 01       		.uleb128 0x1
 12531 1321 50       		.byte	0x50
 12532 1322 03       		.uleb128 0x3
 12533 1323 0A       		.byte	0xa
 12534 1324 5901     		.2byte	0x159
 12535 1326 00       		.byte	0
 12536 1327 0E       		.uleb128 0xe
 12537 1328 120E0000 		.4byte	.LVL243
 12538 132c 6F3C0000 		.4byte	0x3c6f
 12539 1330 3B130000 		.4byte	0x133b
 12540 1334 0F       		.uleb128 0xf
 12541 1335 01       		.uleb128 0x1
 12542 1336 50       		.byte	0x50
 12543 1337 02       		.uleb128 0x2
 12544 1338 74       		.byte	0x74
 12545 1339 00       		.sleb128 0
 12546 133a 00       		.byte	0
 12547 133b 0E       		.uleb128 0xe
 12548 133c 540E0000 		.4byte	.LVL244
 12549 1340 803C0000 		.4byte	0x3c80
 12550 1344 5B130000 		.4byte	0x135b
 12551 1348 0F       		.uleb128 0xf
ARM GAS  C:\Users\diego\AppData\Local\Temp\ccwBHTp3.s 			page 263


 12552 1349 01       		.uleb128 0x1
 12553 134a 52       		.byte	0x52
 12554 134b 03       		.uleb128 0x3
 12555 134c 91       		.byte	0x91
 12556 134d B47F     		.sleb128 -76
 12557 134f 0F       		.uleb128 0xf
 12558 1350 01       		.uleb128 0x1
 12559 1351 51       		.byte	0x51
 12560 1352 02       		.uleb128 0x2
 12561 1353 91       		.byte	0x91
 12562 1354 44       		.sleb128 -60
 12563 1355 0F       		.uleb128 0xf
 12564 1356 01       		.uleb128 0x1
 12565 1357 50       		.byte	0x50
 12566 1358 01       		.uleb128 0x1
 12567 1359 32       		.byte	0x32
 12568 135a 00       		.byte	0
 12569 135b 0E       		.uleb128 0xe
 12570 135c 9E0E0000 		.4byte	.LVL245
 12571 1360 253C0000 		.4byte	0x3c25
 12572 1364 6F130000 		.4byte	0x136f
 12573 1368 0F       		.uleb128 0xf
 12574 1369 01       		.uleb128 0x1
 12575 136a 50       		.byte	0x50
 12576 136b 02       		.uleb128 0x2
 12577 136c 74       		.byte	0x74
 12578 136d 00       		.sleb128 0
 12579 136e 00       		.byte	0
 12580 136f 0E       		.uleb128 0xe
 12581 1370 B60E0000 		.4byte	.LVL246
 12582 1374 9B3C0000 		.4byte	0x3c9b
 12583 1378 8C130000 		.4byte	0x138c
 12584 137c 0F       		.uleb128 0xf
 12585 137d 01       		.uleb128 0x1
 12586 137e 51       		.byte	0x51
 12587 137f 02       		.uleb128 0x2
 12588 1380 74       		.byte	0x74
 12589 1381 00       		.sleb128 0
 12590 1382 0F       		.uleb128 0xf
 12591 1383 01       		.uleb128 0x1
 12592 1384 50       		.byte	0x50
 12593 1385 05       		.uleb128 0x5
 12594 1386 03       		.byte	0x3
 12595 1387 00000000 		.4byte	resultado
 12596 138b 00       		.byte	0
 12597 138c 0E       		.uleb128 0xe
 12598 138d C80E0000 		.4byte	.LVL247
 12599 1391 0B3C0000 		.4byte	0x3c0b
 12600 1395 A7130000 		.4byte	0x13a7
 12601 1399 0F       		.uleb128 0xf
 12602 139a 01       		.uleb128 0x1
 12603 139b 51       		.byte	0x51
 12604 139c 02       		.uleb128 0x2
 12605 139d 91       		.byte	0x91
 12606 139e 54       		.sleb128 -44
 12607 139f 0F       		.uleb128 0xf
 12608 13a0 01       		.uleb128 0x1
ARM GAS  C:\Users\diego\AppData\Local\Temp\ccwBHTp3.s 			page 264


 12609 13a1 50       		.byte	0x50
 12610 13a2 03       		.uleb128 0x3
 12611 13a3 0A       		.byte	0xa
 12612 13a4 0001     		.2byte	0x100
 12613 13a6 00       		.byte	0
 12614 13a7 0E       		.uleb128 0xe
 12615 13a8 D20E0000 		.4byte	.LVL248
 12616 13ac 0B3C0000 		.4byte	0x3c0b
 12617 13b0 C5130000 		.4byte	0x13c5
 12618 13b4 0F       		.uleb128 0xf
 12619 13b5 01       		.uleb128 0x1
 12620 13b6 51       		.byte	0x51
 12621 13b7 05       		.uleb128 0x5
 12622 13b8 03       		.byte	0x3
 12623 13b9 00000000 		.4byte	resultado
 12624 13bd 0F       		.uleb128 0xf
 12625 13be 01       		.uleb128 0x1
 12626 13bf 50       		.byte	0x50
 12627 13c0 03       		.uleb128 0x3
 12628 13c1 0A       		.byte	0xa
 12629 13c2 0D02     		.2byte	0x20d
 12630 13c4 00       		.byte	0
 12631 13c5 0E       		.uleb128 0xe
 12632 13c6 DE0E0000 		.4byte	.LVL249
 12633 13ca 0B3C0000 		.4byte	0x3c0b
 12634 13ce E0130000 		.4byte	0x13e0
 12635 13d2 0F       		.uleb128 0xf
 12636 13d3 01       		.uleb128 0x1
 12637 13d4 51       		.byte	0x51
 12638 13d5 02       		.uleb128 0x2
 12639 13d6 91       		.byte	0x91
 12640 13d7 54       		.sleb128 -44
 12641 13d8 0F       		.uleb128 0xf
 12642 13d9 01       		.uleb128 0x1
 12643 13da 50       		.byte	0x50
 12644 13db 03       		.uleb128 0x3
 12645 13dc 0A       		.byte	0xa
 12646 13dd 5901     		.2byte	0x159
 12647 13df 00       		.byte	0
 12648 13e0 0E       		.uleb128 0xe
 12649 13e1 E80E0000 		.4byte	.LVL250
 12650 13e5 0B3C0000 		.4byte	0x3c0b
 12651 13e9 FE130000 		.4byte	0x13fe
 12652 13ed 0F       		.uleb128 0xf
 12653 13ee 01       		.uleb128 0x1
 12654 13ef 51       		.byte	0x51
 12655 13f0 05       		.uleb128 0x5
 12656 13f1 03       		.byte	0x3
 12657 13f2 00000000 		.4byte	resultado
 12658 13f6 0F       		.uleb128 0xf
 12659 13f7 01       		.uleb128 0x1
 12660 13f8 50       		.byte	0x50
 12661 13f9 03       		.uleb128 0x3
 12662 13fa 0A       		.byte	0xa
 12663 13fb 4D02     		.2byte	0x24d
 12664 13fd 00       		.byte	0
 12665 13fe 0E       		.uleb128 0xe
ARM GAS  C:\Users\diego\AppData\Local\Temp\ccwBHTp3.s 			page 265


 12666 13ff 2C0F0000 		.4byte	.LVL251
 12667 1403 253C0000 		.4byte	0x3c25
 12668 1407 12140000 		.4byte	0x1412
 12669 140b 0F       		.uleb128 0xf
 12670 140c 01       		.uleb128 0x1
 12671 140d 50       		.byte	0x50
 12672 140e 02       		.uleb128 0x2
 12673 140f 74       		.byte	0x74
 12674 1410 00       		.sleb128 0
 12675 1411 00       		.byte	0
 12676 1412 0E       		.uleb128 0xe
 12677 1413 440F0000 		.4byte	.LVL252
 12678 1417 253C0000 		.4byte	0x3c25
 12679 141b 2B140000 		.4byte	0x142b
 12680 141f 0F       		.uleb128 0xf
 12681 1420 01       		.uleb128 0x1
 12682 1421 51       		.byte	0x51
 12683 1422 01       		.uleb128 0x1
 12684 1423 3A       		.byte	0x3a
 12685 1424 0F       		.uleb128 0xf
 12686 1425 01       		.uleb128 0x1
 12687 1426 50       		.byte	0x50
 12688 1427 02       		.uleb128 0x2
 12689 1428 74       		.byte	0x74
 12690 1429 00       		.sleb128 0
 12691 142a 00       		.byte	0
 12692 142b 0E       		.uleb128 0xe
 12693 142c 560F0000 		.4byte	.LVL253
 12694 1430 253C0000 		.4byte	0x3c25
 12695 1434 3F140000 		.4byte	0x143f
 12696 1438 0F       		.uleb128 0xf
 12697 1439 01       		.uleb128 0x1
 12698 143a 50       		.byte	0x50
 12699 143b 02       		.uleb128 0x2
 12700 143c 74       		.byte	0x74
 12701 143d 00       		.sleb128 0
 12702 143e 00       		.byte	0
 12703 143f 0E       		.uleb128 0xe
 12704 1440 6E0F0000 		.4byte	.LVL254
 12705 1444 253C0000 		.4byte	0x3c25
 12706 1448 58140000 		.4byte	0x1458
 12707 144c 0F       		.uleb128 0xf
 12708 144d 01       		.uleb128 0x1
 12709 144e 51       		.byte	0x51
 12710 144f 01       		.uleb128 0x1
 12711 1450 3A       		.byte	0x3a
 12712 1451 0F       		.uleb128 0xf
 12713 1452 01       		.uleb128 0x1
 12714 1453 50       		.byte	0x50
 12715 1454 02       		.uleb128 0x2
 12716 1455 74       		.byte	0x74
 12717 1456 00       		.sleb128 0
 12718 1457 00       		.byte	0
 12719 1458 0E       		.uleb128 0xe
 12720 1459 820F0000 		.4byte	.LVL255
 12721 145d 253C0000 		.4byte	0x3c25
 12722 1461 6C140000 		.4byte	0x146c
ARM GAS  C:\Users\diego\AppData\Local\Temp\ccwBHTp3.s 			page 266


 12723 1465 0F       		.uleb128 0xf
 12724 1466 01       		.uleb128 0x1
 12725 1467 50       		.byte	0x50
 12726 1468 02       		.uleb128 0x2
 12727 1469 74       		.byte	0x74
 12728 146a 00       		.sleb128 0
 12729 146b 00       		.byte	0
 12730 146c 0E       		.uleb128 0xe
 12731 146d 9A0F0000 		.4byte	.LVL256
 12732 1471 253C0000 		.4byte	0x3c25
 12733 1475 85140000 		.4byte	0x1485
 12734 1479 0F       		.uleb128 0xf
 12735 147a 01       		.uleb128 0x1
 12736 147b 51       		.byte	0x51
 12737 147c 01       		.uleb128 0x1
 12738 147d 3A       		.byte	0x3a
 12739 147e 0F       		.uleb128 0xf
 12740 147f 01       		.uleb128 0x1
 12741 1480 50       		.byte	0x50
 12742 1481 02       		.uleb128 0x2
 12743 1482 74       		.byte	0x74
 12744 1483 00       		.sleb128 0
 12745 1484 00       		.byte	0
 12746 1485 0E       		.uleb128 0xe
 12747 1486 A20F0000 		.4byte	.LVL257
 12748 148a 3F3C0000 		.4byte	0x3c3f
 12749 148e 9E140000 		.4byte	0x149e
 12750 1492 0F       		.uleb128 0xf
 12751 1493 01       		.uleb128 0x1
 12752 1494 51       		.byte	0x51
 12753 1495 02       		.uleb128 0x2
 12754 1496 74       		.byte	0x74
 12755 1497 00       		.sleb128 0
 12756 1498 0F       		.uleb128 0xf
 12757 1499 01       		.uleb128 0x1
 12758 149a 50       		.byte	0x50
 12759 149b 01       		.uleb128 0x1
 12760 149c 38       		.byte	0x38
 12761 149d 00       		.byte	0
 12762 149e 0E       		.uleb128 0xe
 12763 149f B60F0000 		.4byte	.LVL258
 12764 14a3 253C0000 		.4byte	0x3c25
 12765 14a7 B2140000 		.4byte	0x14b2
 12766 14ab 0F       		.uleb128 0xf
 12767 14ac 01       		.uleb128 0x1
 12768 14ad 50       		.byte	0x50
 12769 14ae 02       		.uleb128 0x2
 12770 14af 74       		.byte	0x74
 12771 14b0 00       		.sleb128 0
 12772 14b1 00       		.byte	0
 12773 14b2 0E       		.uleb128 0xe
 12774 14b3 CE0F0000 		.4byte	.LVL259
 12775 14b7 253C0000 		.4byte	0x3c25
 12776 14bb CB140000 		.4byte	0x14cb
 12777 14bf 0F       		.uleb128 0xf
 12778 14c0 01       		.uleb128 0x1
 12779 14c1 51       		.byte	0x51
ARM GAS  C:\Users\diego\AppData\Local\Temp\ccwBHTp3.s 			page 267


 12780 14c2 01       		.uleb128 0x1
 12781 14c3 3A       		.byte	0x3a
 12782 14c4 0F       		.uleb128 0xf
 12783 14c5 01       		.uleb128 0x1
 12784 14c6 50       		.byte	0x50
 12785 14c7 02       		.uleb128 0x2
 12786 14c8 74       		.byte	0x74
 12787 14c9 00       		.sleb128 0
 12788 14ca 00       		.byte	0
 12789 14cb 0E       		.uleb128 0xe
 12790 14cc E00F0000 		.4byte	.LVL260
 12791 14d0 553C0000 		.4byte	0x3c55
 12792 14d4 E5140000 		.4byte	0x14e5
 12793 14d8 0F       		.uleb128 0xf
 12794 14d9 01       		.uleb128 0x1
 12795 14da 51       		.byte	0x51
 12796 14db 01       		.uleb128 0x1
 12797 14dc 49       		.byte	0x49
 12798 14dd 0F       		.uleb128 0xf
 12799 14de 01       		.uleb128 0x1
 12800 14df 50       		.byte	0x50
 12801 14e0 03       		.uleb128 0x3
 12802 14e1 0A       		.byte	0xa
 12803 14e2 4804     		.2byte	0x448
 12804 14e4 00       		.byte	0
 12805 14e5 0E       		.uleb128 0xe
 12806 14e6 EC0F0000 		.4byte	.LVL261
 12807 14ea 553C0000 		.4byte	0x3c55
 12808 14ee FF140000 		.4byte	0x14ff
 12809 14f2 0F       		.uleb128 0xf
 12810 14f3 01       		.uleb128 0x1
 12811 14f4 51       		.byte	0x51
 12812 14f5 01       		.uleb128 0x1
 12813 14f6 49       		.byte	0x49
 12814 14f7 0F       		.uleb128 0xf
 12815 14f8 01       		.uleb128 0x1
 12816 14f9 50       		.byte	0x50
 12817 14fa 03       		.uleb128 0x3
 12818 14fb 0A       		.byte	0xa
 12819 14fc 1E04     		.2byte	0x41e
 12820 14fe 00       		.byte	0
 12821 14ff 0E       		.uleb128 0xe
 12822 1500 F20F0000 		.4byte	.LVL262
 12823 1504 6F3C0000 		.4byte	0x3c6f
 12824 1508 13150000 		.4byte	0x1513
 12825 150c 0F       		.uleb128 0xf
 12826 150d 01       		.uleb128 0x1
 12827 150e 50       		.byte	0x50
 12828 150f 02       		.uleb128 0x2
 12829 1510 74       		.byte	0x74
 12830 1511 00       		.sleb128 0
 12831 1512 00       		.byte	0
 12832 1513 0E       		.uleb128 0xe
 12833 1514 34100000 		.4byte	.LVL263
 12834 1518 803C0000 		.4byte	0x3c80
 12835 151c 33150000 		.4byte	0x1533
 12836 1520 0F       		.uleb128 0xf
ARM GAS  C:\Users\diego\AppData\Local\Temp\ccwBHTp3.s 			page 268


 12837 1521 01       		.uleb128 0x1
 12838 1522 52       		.byte	0x52
 12839 1523 03       		.uleb128 0x3
 12840 1524 91       		.byte	0x91
 12841 1525 B47F     		.sleb128 -76
 12842 1527 0F       		.uleb128 0xf
 12843 1528 01       		.uleb128 0x1
 12844 1529 51       		.byte	0x51
 12845 152a 02       		.uleb128 0x2
 12846 152b 91       		.byte	0x91
 12847 152c 44       		.sleb128 -60
 12848 152d 0F       		.uleb128 0xf
 12849 152e 01       		.uleb128 0x1
 12850 152f 50       		.byte	0x50
 12851 1530 01       		.uleb128 0x1
 12852 1531 32       		.byte	0x32
 12853 1532 00       		.byte	0
 12854 1533 0E       		.uleb128 0xe
 12855 1534 4A100000 		.4byte	.LVL264
 12856 1538 253C0000 		.4byte	0x3c25
 12857 153c 47150000 		.4byte	0x1547
 12858 1540 0F       		.uleb128 0xf
 12859 1541 01       		.uleb128 0x1
 12860 1542 50       		.byte	0x50
 12861 1543 02       		.uleb128 0x2
 12862 1544 74       		.byte	0x74
 12863 1545 00       		.sleb128 0
 12864 1546 00       		.byte	0
 12865 1547 0E       		.uleb128 0xe
 12866 1548 62100000 		.4byte	.LVL265
 12867 154c 9B3C0000 		.4byte	0x3c9b
 12868 1550 64150000 		.4byte	0x1564
 12869 1554 0F       		.uleb128 0xf
 12870 1555 01       		.uleb128 0x1
 12871 1556 51       		.byte	0x51
 12872 1557 02       		.uleb128 0x2
 12873 1558 74       		.byte	0x74
 12874 1559 00       		.sleb128 0
 12875 155a 0F       		.uleb128 0xf
 12876 155b 01       		.uleb128 0x1
 12877 155c 50       		.byte	0x50
 12878 155d 05       		.uleb128 0x5
 12879 155e 03       		.byte	0x3
 12880 155f 00000000 		.4byte	resultado
 12881 1563 00       		.byte	0
 12882 1564 0E       		.uleb128 0xe
 12883 1565 74100000 		.4byte	.LVL266
 12884 1569 0B3C0000 		.4byte	0x3c0b
 12885 156d 7F150000 		.4byte	0x157f
 12886 1571 0F       		.uleb128 0xf
 12887 1572 01       		.uleb128 0x1
 12888 1573 51       		.byte	0x51
 12889 1574 02       		.uleb128 0x2
 12890 1575 91       		.byte	0x91
 12891 1576 54       		.sleb128 -44
 12892 1577 0F       		.uleb128 0xf
 12893 1578 01       		.uleb128 0x1
ARM GAS  C:\Users\diego\AppData\Local\Temp\ccwBHTp3.s 			page 269


 12894 1579 50       		.byte	0x50
 12895 157a 03       		.uleb128 0x3
 12896 157b 0A       		.byte	0xa
 12897 157c 4804     		.2byte	0x448
 12898 157e 00       		.byte	0
 12899 157f 0E       		.uleb128 0xe
 12900 1580 7E100000 		.4byte	.LVL267
 12901 1584 0B3C0000 		.4byte	0x3c0b
 12902 1588 9D150000 		.4byte	0x159d
 12903 158c 0F       		.uleb128 0xf
 12904 158d 01       		.uleb128 0x1
 12905 158e 51       		.byte	0x51
 12906 158f 05       		.uleb128 0x5
 12907 1590 03       		.byte	0x3
 12908 1591 00000000 		.4byte	resultado
 12909 1595 0F       		.uleb128 0xf
 12910 1596 01       		.uleb128 0x1
 12911 1597 50       		.byte	0x50
 12912 1598 03       		.uleb128 0x3
 12913 1599 0A       		.byte	0xa
 12914 159a 0E04     		.2byte	0x40e
 12915 159c 00       		.byte	0
 12916 159d 0E       		.uleb128 0xe
 12917 159e 8A100000 		.4byte	.LVL268
 12918 15a2 0B3C0000 		.4byte	0x3c0b
 12919 15a6 B8150000 		.4byte	0x15b8
 12920 15aa 0F       		.uleb128 0xf
 12921 15ab 01       		.uleb128 0x1
 12922 15ac 51       		.byte	0x51
 12923 15ad 02       		.uleb128 0x2
 12924 15ae 91       		.byte	0x91
 12925 15af 54       		.sleb128 -44
 12926 15b0 0F       		.uleb128 0xf
 12927 15b1 01       		.uleb128 0x1
 12928 15b2 50       		.byte	0x50
 12929 15b3 03       		.uleb128 0x3
 12930 15b4 0A       		.byte	0xa
 12931 15b5 1E04     		.2byte	0x41e
 12932 15b7 00       		.byte	0
 12933 15b8 0E       		.uleb128 0xe
 12934 15b9 94100000 		.4byte	.LVL269
 12935 15bd 0B3C0000 		.4byte	0x3c0b
 12936 15c1 D6150000 		.4byte	0x15d6
 12937 15c5 0F       		.uleb128 0xf
 12938 15c6 01       		.uleb128 0x1
 12939 15c7 51       		.byte	0x51
 12940 15c8 05       		.uleb128 0x5
 12941 15c9 03       		.byte	0x3
 12942 15ca 00000000 		.4byte	resultado
 12943 15ce 0F       		.uleb128 0xf
 12944 15cf 01       		.uleb128 0x1
 12945 15d0 50       		.byte	0x50
 12946 15d1 03       		.uleb128 0x3
 12947 15d2 0A       		.byte	0xa
 12948 15d3 3904     		.2byte	0x439
 12949 15d5 00       		.byte	0
 12950 15d6 10       		.uleb128 0x10
ARM GAS  C:\Users\diego\AppData\Local\Temp\ccwBHTp3.s 			page 270


 12951 15d7 AA100000 		.4byte	.LVL270
 12952 15db F93B0000 		.4byte	0x3bf9
 12953 15df 0E       		.uleb128 0xe
 12954 15e0 1A120000 		.4byte	.LVL271
 12955 15e4 253C0000 		.4byte	0x3c25
 12956 15e8 F3150000 		.4byte	0x15f3
 12957 15ec 0F       		.uleb128 0xf
 12958 15ed 01       		.uleb128 0x1
 12959 15ee 50       		.byte	0x50
 12960 15ef 02       		.uleb128 0x2
 12961 15f0 74       		.byte	0x74
 12962 15f1 00       		.sleb128 0
 12963 15f2 00       		.byte	0
 12964 15f3 0E       		.uleb128 0xe
 12965 15f4 32120000 		.4byte	.LVL272
 12966 15f8 253C0000 		.4byte	0x3c25
 12967 15fc 0C160000 		.4byte	0x160c
 12968 1600 0F       		.uleb128 0xf
 12969 1601 01       		.uleb128 0x1
 12970 1602 51       		.byte	0x51
 12971 1603 01       		.uleb128 0x1
 12972 1604 3A       		.byte	0x3a
 12973 1605 0F       		.uleb128 0xf
 12974 1606 01       		.uleb128 0x1
 12975 1607 50       		.byte	0x50
 12976 1608 02       		.uleb128 0x2
 12977 1609 74       		.byte	0x74
 12978 160a 00       		.sleb128 0
 12979 160b 00       		.byte	0
 12980 160c 0E       		.uleb128 0xe
 12981 160d 44120000 		.4byte	.LVL273
 12982 1611 253C0000 		.4byte	0x3c25
 12983 1615 20160000 		.4byte	0x1620
 12984 1619 0F       		.uleb128 0xf
 12985 161a 01       		.uleb128 0x1
 12986 161b 50       		.byte	0x50
 12987 161c 02       		.uleb128 0x2
 12988 161d 74       		.byte	0x74
 12989 161e 00       		.sleb128 0
 12990 161f 00       		.byte	0
 12991 1620 0E       		.uleb128 0xe
 12992 1621 5C120000 		.4byte	.LVL274
 12993 1625 253C0000 		.4byte	0x3c25
 12994 1629 39160000 		.4byte	0x1639
 12995 162d 0F       		.uleb128 0xf
 12996 162e 01       		.uleb128 0x1
 12997 162f 51       		.byte	0x51
 12998 1630 01       		.uleb128 0x1
 12999 1631 3A       		.byte	0x3a
 13000 1632 0F       		.uleb128 0xf
 13001 1633 01       		.uleb128 0x1
 13002 1634 50       		.byte	0x50
 13003 1635 02       		.uleb128 0x2
 13004 1636 74       		.byte	0x74
 13005 1637 00       		.sleb128 0
 13006 1638 00       		.byte	0
 13007 1639 0E       		.uleb128 0xe
ARM GAS  C:\Users\diego\AppData\Local\Temp\ccwBHTp3.s 			page 271


 13008 163a 70120000 		.4byte	.LVL275
 13009 163e 253C0000 		.4byte	0x3c25
 13010 1642 4D160000 		.4byte	0x164d
 13011 1646 0F       		.uleb128 0xf
 13012 1647 01       		.uleb128 0x1
 13013 1648 50       		.byte	0x50
 13014 1649 02       		.uleb128 0x2
 13015 164a 74       		.byte	0x74
 13016 164b 00       		.sleb128 0
 13017 164c 00       		.byte	0
 13018 164d 0E       		.uleb128 0xe
 13019 164e 88120000 		.4byte	.LVL276
 13020 1652 253C0000 		.4byte	0x3c25
 13021 1656 66160000 		.4byte	0x1666
 13022 165a 0F       		.uleb128 0xf
 13023 165b 01       		.uleb128 0x1
 13024 165c 51       		.byte	0x51
 13025 165d 01       		.uleb128 0x1
 13026 165e 3A       		.byte	0x3a
 13027 165f 0F       		.uleb128 0xf
 13028 1660 01       		.uleb128 0x1
 13029 1661 50       		.byte	0x50
 13030 1662 02       		.uleb128 0x2
 13031 1663 74       		.byte	0x74
 13032 1664 00       		.sleb128 0
 13033 1665 00       		.byte	0
 13034 1666 0E       		.uleb128 0xe
 13035 1667 90120000 		.4byte	.LVL277
 13036 166b 3F3C0000 		.4byte	0x3c3f
 13037 166f 7F160000 		.4byte	0x167f
 13038 1673 0F       		.uleb128 0xf
 13039 1674 01       		.uleb128 0x1
 13040 1675 51       		.byte	0x51
 13041 1676 02       		.uleb128 0x2
 13042 1677 74       		.byte	0x74
 13043 1678 00       		.sleb128 0
 13044 1679 0F       		.uleb128 0xf
 13045 167a 01       		.uleb128 0x1
 13046 167b 50       		.byte	0x50
 13047 167c 01       		.uleb128 0x1
 13048 167d 38       		.byte	0x38
 13049 167e 00       		.byte	0
 13050 167f 0E       		.uleb128 0xe
 13051 1680 A4120000 		.4byte	.LVL278
 13052 1684 253C0000 		.4byte	0x3c25
 13053 1688 93160000 		.4byte	0x1693
 13054 168c 0F       		.uleb128 0xf
 13055 168d 01       		.uleb128 0x1
 13056 168e 50       		.byte	0x50
 13057 168f 02       		.uleb128 0x2
 13058 1690 74       		.byte	0x74
 13059 1691 00       		.sleb128 0
 13060 1692 00       		.byte	0
 13061 1693 0E       		.uleb128 0xe
 13062 1694 BC120000 		.4byte	.LVL279
 13063 1698 253C0000 		.4byte	0x3c25
 13064 169c AC160000 		.4byte	0x16ac
ARM GAS  C:\Users\diego\AppData\Local\Temp\ccwBHTp3.s 			page 272


 13065 16a0 0F       		.uleb128 0xf
 13066 16a1 01       		.uleb128 0x1
 13067 16a2 51       		.byte	0x51
 13068 16a3 01       		.uleb128 0x1
 13069 16a4 3A       		.byte	0x3a
 13070 16a5 0F       		.uleb128 0xf
 13071 16a6 01       		.uleb128 0x1
 13072 16a7 50       		.byte	0x50
 13073 16a8 02       		.uleb128 0x2
 13074 16a9 74       		.byte	0x74
 13075 16aa 00       		.sleb128 0
 13076 16ab 00       		.byte	0
 13077 16ac 0E       		.uleb128 0xe
 13078 16ad CC120000 		.4byte	.LVL280
 13079 16b1 553C0000 		.4byte	0x3c55
 13080 16b5 C5160000 		.4byte	0x16c5
 13081 16b9 0F       		.uleb128 0xf
 13082 16ba 01       		.uleb128 0x1
 13083 16bb 51       		.byte	0x51
 13084 16bc 01       		.uleb128 0x1
 13085 16bd 49       		.byte	0x49
 13086 16be 0F       		.uleb128 0xf
 13087 16bf 01       		.uleb128 0x1
 13088 16c0 50       		.byte	0x50
 13089 16c1 02       		.uleb128 0x2
 13090 16c2 08       		.byte	0x8
 13091 16c3 C0       		.byte	0xc0
 13092 16c4 00       		.byte	0
 13093 16c5 0E       		.uleb128 0xe
 13094 16c6 D8120000 		.4byte	.LVL281
 13095 16ca 553C0000 		.4byte	0x3c55
 13096 16ce DF160000 		.4byte	0x16df
 13097 16d2 0F       		.uleb128 0xf
 13098 16d3 01       		.uleb128 0x1
 13099 16d4 51       		.byte	0x51
 13100 16d5 01       		.uleb128 0x1
 13101 16d6 49       		.byte	0x49
 13102 16d7 0F       		.uleb128 0xf
 13103 16d8 01       		.uleb128 0x1
 13104 16d9 50       		.byte	0x50
 13105 16da 03       		.uleb128 0x3
 13106 16db 0A       		.byte	0xa
 13107 16dc 1901     		.2byte	0x119
 13108 16de 00       		.byte	0
 13109 16df 0E       		.uleb128 0xe
 13110 16e0 DE120000 		.4byte	.LVL282
 13111 16e4 6F3C0000 		.4byte	0x3c6f
 13112 16e8 F3160000 		.4byte	0x16f3
 13113 16ec 0F       		.uleb128 0xf
 13114 16ed 01       		.uleb128 0x1
 13115 16ee 50       		.byte	0x50
 13116 16ef 02       		.uleb128 0x2
 13117 16f0 74       		.byte	0x74
 13118 16f1 00       		.sleb128 0
 13119 16f2 00       		.byte	0
 13120 16f3 0E       		.uleb128 0xe
 13121 16f4 20130000 		.4byte	.LVL283
ARM GAS  C:\Users\diego\AppData\Local\Temp\ccwBHTp3.s 			page 273


 13122 16f8 803C0000 		.4byte	0x3c80
 13123 16fc 13170000 		.4byte	0x1713
 13124 1700 0F       		.uleb128 0xf
 13125 1701 01       		.uleb128 0x1
 13126 1702 52       		.byte	0x52
 13127 1703 03       		.uleb128 0x3
 13128 1704 91       		.byte	0x91
 13129 1705 B47F     		.sleb128 -76
 13130 1707 0F       		.uleb128 0xf
 13131 1708 01       		.uleb128 0x1
 13132 1709 51       		.byte	0x51
 13133 170a 02       		.uleb128 0x2
 13134 170b 91       		.byte	0x91
 13135 170c 44       		.sleb128 -60
 13136 170d 0F       		.uleb128 0xf
 13137 170e 01       		.uleb128 0x1
 13138 170f 50       		.byte	0x50
 13139 1710 01       		.uleb128 0x1
 13140 1711 32       		.byte	0x32
 13141 1712 00       		.byte	0
 13142 1713 0E       		.uleb128 0xe
 13143 1714 36130000 		.4byte	.LVL284
 13144 1718 253C0000 		.4byte	0x3c25
 13145 171c 27170000 		.4byte	0x1727
 13146 1720 0F       		.uleb128 0xf
 13147 1721 01       		.uleb128 0x1
 13148 1722 50       		.byte	0x50
 13149 1723 02       		.uleb128 0x2
 13150 1724 74       		.byte	0x74
 13151 1725 00       		.sleb128 0
 13152 1726 00       		.byte	0
 13153 1727 0E       		.uleb128 0xe
 13154 1728 4E130000 		.4byte	.LVL285
 13155 172c 9B3C0000 		.4byte	0x3c9b
 13156 1730 44170000 		.4byte	0x1744
 13157 1734 0F       		.uleb128 0xf
 13158 1735 01       		.uleb128 0x1
 13159 1736 51       		.byte	0x51
 13160 1737 02       		.uleb128 0x2
 13161 1738 74       		.byte	0x74
 13162 1739 00       		.sleb128 0
 13163 173a 0F       		.uleb128 0xf
 13164 173b 01       		.uleb128 0x1
 13165 173c 50       		.byte	0x50
 13166 173d 05       		.uleb128 0x5
 13167 173e 03       		.byte	0x3
 13168 173f 00000000 		.4byte	resultado
 13169 1743 00       		.byte	0
 13170 1744 0E       		.uleb128 0xe
 13171 1745 5E130000 		.4byte	.LVL286
 13172 1749 0B3C0000 		.4byte	0x3c0b
 13173 174d 5E170000 		.4byte	0x175e
 13174 1751 0F       		.uleb128 0xf
 13175 1752 01       		.uleb128 0x1
 13176 1753 51       		.byte	0x51
 13177 1754 02       		.uleb128 0x2
 13178 1755 91       		.byte	0x91
ARM GAS  C:\Users\diego\AppData\Local\Temp\ccwBHTp3.s 			page 274


 13179 1756 54       		.sleb128 -44
 13180 1757 0F       		.uleb128 0xf
 13181 1758 01       		.uleb128 0x1
 13182 1759 50       		.byte	0x50
 13183 175a 02       		.uleb128 0x2
 13184 175b 08       		.byte	0x8
 13185 175c C0       		.byte	0xc0
 13186 175d 00       		.byte	0
 13187 175e 0E       		.uleb128 0xe
 13188 175f 68130000 		.4byte	.LVL287
 13189 1763 0B3C0000 		.4byte	0x3c0b
 13190 1767 7C170000 		.4byte	0x177c
 13191 176b 0F       		.uleb128 0xf
 13192 176c 01       		.uleb128 0x1
 13193 176d 51       		.byte	0x51
 13194 176e 05       		.uleb128 0x5
 13195 176f 03       		.byte	0x3
 13196 1770 00000000 		.4byte	resultado
 13197 1774 0F       		.uleb128 0xf
 13198 1775 01       		.uleb128 0x1
 13199 1776 50       		.byte	0x50
 13200 1777 03       		.uleb128 0x3
 13201 1778 0A       		.byte	0xa
 13202 1779 0002     		.2byte	0x200
 13203 177b 00       		.byte	0
 13204 177c 0E       		.uleb128 0xe
 13205 177d 74130000 		.4byte	.LVL288
 13206 1781 0B3C0000 		.4byte	0x3c0b
 13207 1785 97170000 		.4byte	0x1797
 13208 1789 0F       		.uleb128 0xf
 13209 178a 01       		.uleb128 0x1
 13210 178b 51       		.byte	0x51
 13211 178c 02       		.uleb128 0x2
 13212 178d 91       		.byte	0x91
 13213 178e 54       		.sleb128 -44
 13214 178f 0F       		.uleb128 0xf
 13215 1790 01       		.uleb128 0x1
 13216 1791 50       		.byte	0x50
 13217 1792 03       		.uleb128 0x3
 13218 1793 0A       		.byte	0xa
 13219 1794 1901     		.2byte	0x119
 13220 1796 00       		.byte	0
 13221 1797 0E       		.uleb128 0xe
 13222 1798 7E130000 		.4byte	.LVL289
 13223 179c 0B3C0000 		.4byte	0x3c0b
 13224 17a0 B5170000 		.4byte	0x17b5
 13225 17a4 0F       		.uleb128 0xf
 13226 17a5 01       		.uleb128 0x1
 13227 17a6 51       		.byte	0x51
 13228 17a7 05       		.uleb128 0x5
 13229 17a8 03       		.byte	0x3
 13230 17a9 00000000 		.4byte	resultado
 13231 17ad 0F       		.uleb128 0xf
 13232 17ae 01       		.uleb128 0x1
 13233 17af 50       		.byte	0x50
 13234 17b0 03       		.uleb128 0x3
 13235 17b1 0A       		.byte	0xa
ARM GAS  C:\Users\diego\AppData\Local\Temp\ccwBHTp3.s 			page 275


 13236 17b2 2702     		.2byte	0x227
 13237 17b4 00       		.byte	0
 13238 17b5 0E       		.uleb128 0xe
 13239 17b6 C2130000 		.4byte	.LVL290
 13240 17ba 253C0000 		.4byte	0x3c25
 13241 17be C9170000 		.4byte	0x17c9
 13242 17c2 0F       		.uleb128 0xf
 13243 17c3 01       		.uleb128 0x1
 13244 17c4 50       		.byte	0x50
 13245 17c5 02       		.uleb128 0x2
 13246 17c6 74       		.byte	0x74
 13247 17c7 00       		.sleb128 0
 13248 17c8 00       		.byte	0
 13249 17c9 0E       		.uleb128 0xe
 13250 17ca DA130000 		.4byte	.LVL291
 13251 17ce 253C0000 		.4byte	0x3c25
 13252 17d2 E2170000 		.4byte	0x17e2
 13253 17d6 0F       		.uleb128 0xf
 13254 17d7 01       		.uleb128 0x1
 13255 17d8 51       		.byte	0x51
 13256 17d9 01       		.uleb128 0x1
 13257 17da 3A       		.byte	0x3a
 13258 17db 0F       		.uleb128 0xf
 13259 17dc 01       		.uleb128 0x1
 13260 17dd 50       		.byte	0x50
 13261 17de 02       		.uleb128 0x2
 13262 17df 74       		.byte	0x74
 13263 17e0 00       		.sleb128 0
 13264 17e1 00       		.byte	0
 13265 17e2 0E       		.uleb128 0xe
 13266 17e3 EC130000 		.4byte	.LVL292
 13267 17e7 253C0000 		.4byte	0x3c25
 13268 17eb F6170000 		.4byte	0x17f6
 13269 17ef 0F       		.uleb128 0xf
 13270 17f0 01       		.uleb128 0x1
 13271 17f1 50       		.byte	0x50
 13272 17f2 02       		.uleb128 0x2
 13273 17f3 74       		.byte	0x74
 13274 17f4 00       		.sleb128 0
 13275 17f5 00       		.byte	0
 13276 17f6 0E       		.uleb128 0xe
 13277 17f7 04140000 		.4byte	.LVL293
 13278 17fb 253C0000 		.4byte	0x3c25
 13279 17ff 0F180000 		.4byte	0x180f
 13280 1803 0F       		.uleb128 0xf
 13281 1804 01       		.uleb128 0x1
 13282 1805 51       		.byte	0x51
 13283 1806 01       		.uleb128 0x1
 13284 1807 3A       		.byte	0x3a
 13285 1808 0F       		.uleb128 0xf
 13286 1809 01       		.uleb128 0x1
 13287 180a 50       		.byte	0x50
 13288 180b 02       		.uleb128 0x2
 13289 180c 74       		.byte	0x74
 13290 180d 00       		.sleb128 0
 13291 180e 00       		.byte	0
 13292 180f 0E       		.uleb128 0xe
ARM GAS  C:\Users\diego\AppData\Local\Temp\ccwBHTp3.s 			page 276


 13293 1810 5C140000 		.4byte	.LVL294
 13294 1814 253C0000 		.4byte	0x3c25
 13295 1818 23180000 		.4byte	0x1823
 13296 181c 0F       		.uleb128 0xf
 13297 181d 01       		.uleb128 0x1
 13298 181e 50       		.byte	0x50
 13299 181f 02       		.uleb128 0x2
 13300 1820 74       		.byte	0x74
 13301 1821 00       		.sleb128 0
 13302 1822 00       		.byte	0
 13303 1823 0E       		.uleb128 0xe
 13304 1824 74140000 		.4byte	.LVL295
 13305 1828 253C0000 		.4byte	0x3c25
 13306 182c 3C180000 		.4byte	0x183c
 13307 1830 0F       		.uleb128 0xf
 13308 1831 01       		.uleb128 0x1
 13309 1832 51       		.byte	0x51
 13310 1833 01       		.uleb128 0x1
 13311 1834 3A       		.byte	0x3a
 13312 1835 0F       		.uleb128 0xf
 13313 1836 01       		.uleb128 0x1
 13314 1837 50       		.byte	0x50
 13315 1838 02       		.uleb128 0x2
 13316 1839 74       		.byte	0x74
 13317 183a 00       		.sleb128 0
 13318 183b 00       		.byte	0
 13319 183c 0E       		.uleb128 0xe
 13320 183d 7C140000 		.4byte	.LVL296
 13321 1841 3F3C0000 		.4byte	0x3c3f
 13322 1845 55180000 		.4byte	0x1855
 13323 1849 0F       		.uleb128 0xf
 13324 184a 01       		.uleb128 0x1
 13325 184b 51       		.byte	0x51
 13326 184c 02       		.uleb128 0x2
 13327 184d 74       		.byte	0x74
 13328 184e 00       		.sleb128 0
 13329 184f 0F       		.uleb128 0xf
 13330 1850 01       		.uleb128 0x1
 13331 1851 50       		.byte	0x50
 13332 1852 01       		.uleb128 0x1
 13333 1853 38       		.byte	0x38
 13334 1854 00       		.byte	0
 13335 1855 0E       		.uleb128 0xe
 13336 1856 90140000 		.4byte	.LVL297
 13337 185a 253C0000 		.4byte	0x3c25
 13338 185e 69180000 		.4byte	0x1869
 13339 1862 0F       		.uleb128 0xf
 13340 1863 01       		.uleb128 0x1
 13341 1864 50       		.byte	0x50
 13342 1865 02       		.uleb128 0x2
 13343 1866 74       		.byte	0x74
 13344 1867 00       		.sleb128 0
 13345 1868 00       		.byte	0
 13346 1869 0E       		.uleb128 0xe
 13347 186a A8140000 		.4byte	.LVL298
 13348 186e 253C0000 		.4byte	0x3c25
 13349 1872 82180000 		.4byte	0x1882
ARM GAS  C:\Users\diego\AppData\Local\Temp\ccwBHTp3.s 			page 277


 13350 1876 0F       		.uleb128 0xf
 13351 1877 01       		.uleb128 0x1
 13352 1878 51       		.byte	0x51
 13353 1879 01       		.uleb128 0x1
 13354 187a 3A       		.byte	0x3a
 13355 187b 0F       		.uleb128 0xf
 13356 187c 01       		.uleb128 0x1
 13357 187d 50       		.byte	0x50
 13358 187e 02       		.uleb128 0x2
 13359 187f 74       		.byte	0x74
 13360 1880 00       		.sleb128 0
 13361 1881 00       		.byte	0
 13362 1882 0E       		.uleb128 0xe
 13363 1883 B8140000 		.4byte	.LVL299
 13364 1887 553C0000 		.4byte	0x3c55
 13365 188b 9B180000 		.4byte	0x189b
 13366 188f 0F       		.uleb128 0xf
 13367 1890 01       		.uleb128 0x1
 13368 1891 51       		.byte	0x51
 13369 1892 01       		.uleb128 0x1
 13370 1893 49       		.byte	0x49
 13371 1894 0F       		.uleb128 0xf
 13372 1895 01       		.uleb128 0x1
 13373 1896 50       		.byte	0x50
 13374 1897 02       		.uleb128 0x2
 13375 1898 08       		.byte	0x8
 13376 1899 D9       		.byte	0xd9
 13377 189a 00       		.byte	0
 13378 189b 0E       		.uleb128 0xe
 13379 189c C4140000 		.4byte	.LVL300
 13380 18a0 553C0000 		.4byte	0x3c55
 13381 18a4 B5180000 		.4byte	0x18b5
 13382 18a8 0F       		.uleb128 0xf
 13383 18a9 01       		.uleb128 0x1
 13384 18aa 51       		.byte	0x51
 13385 18ab 01       		.uleb128 0x1
 13386 18ac 49       		.byte	0x49
 13387 18ad 0F       		.uleb128 0xf
 13388 18ae 01       		.uleb128 0x1
 13389 18af 50       		.byte	0x50
 13390 18b0 03       		.uleb128 0x3
 13391 18b1 0A       		.byte	0xa
 13392 18b2 4001     		.2byte	0x140
 13393 18b4 00       		.byte	0
 13394 18b5 0E       		.uleb128 0xe
 13395 18b6 CA140000 		.4byte	.LVL301
 13396 18ba 6F3C0000 		.4byte	0x3c6f
 13397 18be C9180000 		.4byte	0x18c9
 13398 18c2 0F       		.uleb128 0xf
 13399 18c3 01       		.uleb128 0x1
 13400 18c4 50       		.byte	0x50
 13401 18c5 02       		.uleb128 0x2
 13402 18c6 74       		.byte	0x74
 13403 18c7 00       		.sleb128 0
 13404 18c8 00       		.byte	0
 13405 18c9 0E       		.uleb128 0xe
 13406 18ca 0C150000 		.4byte	.LVL302
ARM GAS  C:\Users\diego\AppData\Local\Temp\ccwBHTp3.s 			page 278


 13407 18ce 803C0000 		.4byte	0x3c80
 13408 18d2 E9180000 		.4byte	0x18e9
 13409 18d6 0F       		.uleb128 0xf
 13410 18d7 01       		.uleb128 0x1
 13411 18d8 52       		.byte	0x52
 13412 18d9 03       		.uleb128 0x3
 13413 18da 91       		.byte	0x91
 13414 18db B47F     		.sleb128 -76
 13415 18dd 0F       		.uleb128 0xf
 13416 18de 01       		.uleb128 0x1
 13417 18df 51       		.byte	0x51
 13418 18e0 02       		.uleb128 0x2
 13419 18e1 91       		.byte	0x91
 13420 18e2 44       		.sleb128 -60
 13421 18e3 0F       		.uleb128 0xf
 13422 18e4 01       		.uleb128 0x1
 13423 18e5 50       		.byte	0x50
 13424 18e6 01       		.uleb128 0x1
 13425 18e7 32       		.byte	0x32
 13426 18e8 00       		.byte	0
 13427 18e9 0E       		.uleb128 0xe
 13428 18ea 22150000 		.4byte	.LVL303
 13429 18ee 253C0000 		.4byte	0x3c25
 13430 18f2 FD180000 		.4byte	0x18fd
 13431 18f6 0F       		.uleb128 0xf
 13432 18f7 01       		.uleb128 0x1
 13433 18f8 50       		.byte	0x50
 13434 18f9 02       		.uleb128 0x2
 13435 18fa 74       		.byte	0x74
 13436 18fb 00       		.sleb128 0
 13437 18fc 00       		.byte	0
 13438 18fd 0E       		.uleb128 0xe
 13439 18fe 3A150000 		.4byte	.LVL304
 13440 1902 9B3C0000 		.4byte	0x3c9b
 13441 1906 1A190000 		.4byte	0x191a
 13442 190a 0F       		.uleb128 0xf
 13443 190b 01       		.uleb128 0x1
 13444 190c 51       		.byte	0x51
 13445 190d 02       		.uleb128 0x2
 13446 190e 74       		.byte	0x74
 13447 190f 00       		.sleb128 0
 13448 1910 0F       		.uleb128 0xf
 13449 1911 01       		.uleb128 0x1
 13450 1912 50       		.byte	0x50
 13451 1913 05       		.uleb128 0x5
 13452 1914 03       		.byte	0x3
 13453 1915 00000000 		.4byte	resultado
 13454 1919 00       		.byte	0
 13455 191a 0E       		.uleb128 0xe
 13456 191b 4A150000 		.4byte	.LVL305
 13457 191f 0B3C0000 		.4byte	0x3c0b
 13458 1923 34190000 		.4byte	0x1934
 13459 1927 0F       		.uleb128 0xf
 13460 1928 01       		.uleb128 0x1
 13461 1929 51       		.byte	0x51
 13462 192a 02       		.uleb128 0x2
 13463 192b 91       		.byte	0x91
ARM GAS  C:\Users\diego\AppData\Local\Temp\ccwBHTp3.s 			page 279


 13464 192c 54       		.sleb128 -44
 13465 192d 0F       		.uleb128 0xf
 13466 192e 01       		.uleb128 0x1
 13467 192f 50       		.byte	0x50
 13468 1930 02       		.uleb128 0x2
 13469 1931 08       		.byte	0x8
 13470 1932 D9       		.byte	0xd9
 13471 1933 00       		.byte	0
 13472 1934 0E       		.uleb128 0xe
 13473 1935 54150000 		.4byte	.LVL306
 13474 1939 0B3C0000 		.4byte	0x3c0b
 13475 193d 52190000 		.4byte	0x1952
 13476 1941 0F       		.uleb128 0xf
 13477 1942 01       		.uleb128 0x1
 13478 1943 51       		.byte	0x51
 13479 1944 05       		.uleb128 0x5
 13480 1945 03       		.byte	0x3
 13481 1946 00000000 		.4byte	resultado
 13482 194a 0F       		.uleb128 0xf
 13483 194b 01       		.uleb128 0x1
 13484 194c 50       		.byte	0x50
 13485 194d 03       		.uleb128 0x3
 13486 194e 0A       		.byte	0xa
 13487 194f 1A02     		.2byte	0x21a
 13488 1951 00       		.byte	0
 13489 1952 0E       		.uleb128 0xe
 13490 1953 60150000 		.4byte	.LVL307
 13491 1957 0B3C0000 		.4byte	0x3c0b
 13492 195b 6D190000 		.4byte	0x196d
 13493 195f 0F       		.uleb128 0xf
 13494 1960 01       		.uleb128 0x1
 13495 1961 51       		.byte	0x51
 13496 1962 02       		.uleb128 0x2
 13497 1963 91       		.byte	0x91
 13498 1964 54       		.sleb128 -44
 13499 1965 0F       		.uleb128 0xf
 13500 1966 01       		.uleb128 0x1
 13501 1967 50       		.byte	0x50
 13502 1968 03       		.uleb128 0x3
 13503 1969 0A       		.byte	0xa
 13504 196a 4001     		.2byte	0x140
 13505 196c 00       		.byte	0
 13506 196d 0E       		.uleb128 0xe
 13507 196e 6A150000 		.4byte	.LVL308
 13508 1972 0B3C0000 		.4byte	0x3c0b
 13509 1976 8B190000 		.4byte	0x198b
 13510 197a 0F       		.uleb128 0xf
 13511 197b 01       		.uleb128 0x1
 13512 197c 51       		.byte	0x51
 13513 197d 05       		.uleb128 0x5
 13514 197e 03       		.byte	0x3
 13515 197f 00000000 		.4byte	resultado
 13516 1983 0F       		.uleb128 0xf
 13517 1984 01       		.uleb128 0x1
 13518 1985 50       		.byte	0x50
 13519 1986 03       		.uleb128 0x3
 13520 1987 0A       		.byte	0xa
ARM GAS  C:\Users\diego\AppData\Local\Temp\ccwBHTp3.s 			page 280


 13521 1988 4002     		.2byte	0x240
 13522 198a 00       		.byte	0
 13523 198b 0E       		.uleb128 0xe
 13524 198c AE150000 		.4byte	.LVL309
 13525 1990 253C0000 		.4byte	0x3c25
 13526 1994 9F190000 		.4byte	0x199f
 13527 1998 0F       		.uleb128 0xf
 13528 1999 01       		.uleb128 0x1
 13529 199a 50       		.byte	0x50
 13530 199b 02       		.uleb128 0x2
 13531 199c 74       		.byte	0x74
 13532 199d 00       		.sleb128 0
 13533 199e 00       		.byte	0
 13534 199f 0E       		.uleb128 0xe
 13535 19a0 C6150000 		.4byte	.LVL310
 13536 19a4 253C0000 		.4byte	0x3c25
 13537 19a8 B8190000 		.4byte	0x19b8
 13538 19ac 0F       		.uleb128 0xf
 13539 19ad 01       		.uleb128 0x1
 13540 19ae 51       		.byte	0x51
 13541 19af 01       		.uleb128 0x1
 13542 19b0 3A       		.byte	0x3a
 13543 19b1 0F       		.uleb128 0xf
 13544 19b2 01       		.uleb128 0x1
 13545 19b3 50       		.byte	0x50
 13546 19b4 02       		.uleb128 0x2
 13547 19b5 74       		.byte	0x74
 13548 19b6 00       		.sleb128 0
 13549 19b7 00       		.byte	0
 13550 19b8 0E       		.uleb128 0xe
 13551 19b9 D8150000 		.4byte	.LVL311
 13552 19bd 253C0000 		.4byte	0x3c25
 13553 19c1 CC190000 		.4byte	0x19cc
 13554 19c5 0F       		.uleb128 0xf
 13555 19c6 01       		.uleb128 0x1
 13556 19c7 50       		.byte	0x50
 13557 19c8 02       		.uleb128 0x2
 13558 19c9 74       		.byte	0x74
 13559 19ca 00       		.sleb128 0
 13560 19cb 00       		.byte	0
 13561 19cc 0E       		.uleb128 0xe
 13562 19cd F0150000 		.4byte	.LVL312
 13563 19d1 253C0000 		.4byte	0x3c25
 13564 19d5 E5190000 		.4byte	0x19e5
 13565 19d9 0F       		.uleb128 0xf
 13566 19da 01       		.uleb128 0x1
 13567 19db 51       		.byte	0x51
 13568 19dc 01       		.uleb128 0x1
 13569 19dd 3A       		.byte	0x3a
 13570 19de 0F       		.uleb128 0xf
 13571 19df 01       		.uleb128 0x1
 13572 19e0 50       		.byte	0x50
 13573 19e1 02       		.uleb128 0x2
 13574 19e2 74       		.byte	0x74
 13575 19e3 00       		.sleb128 0
 13576 19e4 00       		.byte	0
 13577 19e5 0E       		.uleb128 0xe
ARM GAS  C:\Users\diego\AppData\Local\Temp\ccwBHTp3.s 			page 281


 13578 19e6 04160000 		.4byte	.LVL313
 13579 19ea 253C0000 		.4byte	0x3c25
 13580 19ee F9190000 		.4byte	0x19f9
 13581 19f2 0F       		.uleb128 0xf
 13582 19f3 01       		.uleb128 0x1
 13583 19f4 50       		.byte	0x50
 13584 19f5 02       		.uleb128 0x2
 13585 19f6 74       		.byte	0x74
 13586 19f7 00       		.sleb128 0
 13587 19f8 00       		.byte	0
 13588 19f9 0E       		.uleb128 0xe
 13589 19fa 1C160000 		.4byte	.LVL314
 13590 19fe 253C0000 		.4byte	0x3c25
 13591 1a02 121A0000 		.4byte	0x1a12
 13592 1a06 0F       		.uleb128 0xf
 13593 1a07 01       		.uleb128 0x1
 13594 1a08 51       		.byte	0x51
 13595 1a09 01       		.uleb128 0x1
 13596 1a0a 3A       		.byte	0x3a
 13597 1a0b 0F       		.uleb128 0xf
 13598 1a0c 01       		.uleb128 0x1
 13599 1a0d 50       		.byte	0x50
 13600 1a0e 02       		.uleb128 0x2
 13601 1a0f 74       		.byte	0x74
 13602 1a10 00       		.sleb128 0
 13603 1a11 00       		.byte	0
 13604 1a12 0E       		.uleb128 0xe
 13605 1a13 24160000 		.4byte	.LVL315
 13606 1a17 3F3C0000 		.4byte	0x3c3f
 13607 1a1b 2B1A0000 		.4byte	0x1a2b
 13608 1a1f 0F       		.uleb128 0xf
 13609 1a20 01       		.uleb128 0x1
 13610 1a21 51       		.byte	0x51
 13611 1a22 02       		.uleb128 0x2
 13612 1a23 74       		.byte	0x74
 13613 1a24 00       		.sleb128 0
 13614 1a25 0F       		.uleb128 0xf
 13615 1a26 01       		.uleb128 0x1
 13616 1a27 50       		.byte	0x50
 13617 1a28 01       		.uleb128 0x1
 13618 1a29 38       		.byte	0x38
 13619 1a2a 00       		.byte	0
 13620 1a2b 0E       		.uleb128 0xe
 13621 1a2c 38160000 		.4byte	.LVL316
 13622 1a30 253C0000 		.4byte	0x3c25
 13623 1a34 3F1A0000 		.4byte	0x1a3f
 13624 1a38 0F       		.uleb128 0xf
 13625 1a39 01       		.uleb128 0x1
 13626 1a3a 50       		.byte	0x50
 13627 1a3b 02       		.uleb128 0x2
 13628 1a3c 74       		.byte	0x74
 13629 1a3d 00       		.sleb128 0
 13630 1a3e 00       		.byte	0
 13631 1a3f 0E       		.uleb128 0xe
 13632 1a40 50160000 		.4byte	.LVL317
 13633 1a44 253C0000 		.4byte	0x3c25
 13634 1a48 581A0000 		.4byte	0x1a58
ARM GAS  C:\Users\diego\AppData\Local\Temp\ccwBHTp3.s 			page 282


 13635 1a4c 0F       		.uleb128 0xf
 13636 1a4d 01       		.uleb128 0x1
 13637 1a4e 51       		.byte	0x51
 13638 1a4f 01       		.uleb128 0x1
 13639 1a50 3A       		.byte	0x3a
 13640 1a51 0F       		.uleb128 0xf
 13641 1a52 01       		.uleb128 0x1
 13642 1a53 50       		.byte	0x50
 13643 1a54 02       		.uleb128 0x2
 13644 1a55 74       		.byte	0x74
 13645 1a56 00       		.sleb128 0
 13646 1a57 00       		.byte	0
 13647 1a58 0E       		.uleb128 0xe
 13648 1a59 62160000 		.4byte	.LVL318
 13649 1a5d 553C0000 		.4byte	0x3c55
 13650 1a61 721A0000 		.4byte	0x1a72
 13651 1a65 0F       		.uleb128 0xf
 13652 1a66 01       		.uleb128 0x1
 13653 1a67 51       		.byte	0x51
 13654 1a68 01       		.uleb128 0x1
 13655 1a69 49       		.byte	0x49
 13656 1a6a 0F       		.uleb128 0xf
 13657 1a6b 01       		.uleb128 0x1
 13658 1a6c 50       		.byte	0x50
 13659 1a6d 03       		.uleb128 0x3
 13660 1a6e 0A       		.byte	0xa
 13661 1a6f 0001     		.2byte	0x100
 13662 1a71 00       		.byte	0
 13663 1a72 0E       		.uleb128 0xe
 13664 1a73 6E160000 		.4byte	.LVL319
 13665 1a77 553C0000 		.4byte	0x3c55
 13666 1a7b 8C1A0000 		.4byte	0x1a8c
 13667 1a7f 0F       		.uleb128 0xf
 13668 1a80 01       		.uleb128 0x1
 13669 1a81 51       		.byte	0x51
 13670 1a82 01       		.uleb128 0x1
 13671 1a83 49       		.byte	0x49
 13672 1a84 0F       		.uleb128 0xf
 13673 1a85 01       		.uleb128 0x1
 13674 1a86 50       		.byte	0x50
 13675 1a87 03       		.uleb128 0x3
 13676 1a88 0A       		.byte	0xa
 13677 1a89 5901     		.2byte	0x159
 13678 1a8b 00       		.byte	0
 13679 1a8c 0E       		.uleb128 0xe
 13680 1a8d 74160000 		.4byte	.LVL320
 13681 1a91 6F3C0000 		.4byte	0x3c6f
 13682 1a95 A01A0000 		.4byte	0x1aa0
 13683 1a99 0F       		.uleb128 0xf
 13684 1a9a 01       		.uleb128 0x1
 13685 1a9b 50       		.byte	0x50
 13686 1a9c 02       		.uleb128 0x2
 13687 1a9d 74       		.byte	0x74
 13688 1a9e 00       		.sleb128 0
 13689 1a9f 00       		.byte	0
 13690 1aa0 0E       		.uleb128 0xe
 13691 1aa1 B6160000 		.4byte	.LVL321
ARM GAS  C:\Users\diego\AppData\Local\Temp\ccwBHTp3.s 			page 283


 13692 1aa5 803C0000 		.4byte	0x3c80
 13693 1aa9 C01A0000 		.4byte	0x1ac0
 13694 1aad 0F       		.uleb128 0xf
 13695 1aae 01       		.uleb128 0x1
 13696 1aaf 52       		.byte	0x52
 13697 1ab0 03       		.uleb128 0x3
 13698 1ab1 91       		.byte	0x91
 13699 1ab2 B47F     		.sleb128 -76
 13700 1ab4 0F       		.uleb128 0xf
 13701 1ab5 01       		.uleb128 0x1
 13702 1ab6 51       		.byte	0x51
 13703 1ab7 02       		.uleb128 0x2
 13704 1ab8 91       		.byte	0x91
 13705 1ab9 44       		.sleb128 -60
 13706 1aba 0F       		.uleb128 0xf
 13707 1abb 01       		.uleb128 0x1
 13708 1abc 50       		.byte	0x50
 13709 1abd 01       		.uleb128 0x1
 13710 1abe 32       		.byte	0x32
 13711 1abf 00       		.byte	0
 13712 1ac0 0E       		.uleb128 0xe
 13713 1ac1 CC160000 		.4byte	.LVL322
 13714 1ac5 253C0000 		.4byte	0x3c25
 13715 1ac9 D41A0000 		.4byte	0x1ad4
 13716 1acd 0F       		.uleb128 0xf
 13717 1ace 01       		.uleb128 0x1
 13718 1acf 50       		.byte	0x50
 13719 1ad0 02       		.uleb128 0x2
 13720 1ad1 74       		.byte	0x74
 13721 1ad2 00       		.sleb128 0
 13722 1ad3 00       		.byte	0
 13723 1ad4 0E       		.uleb128 0xe
 13724 1ad5 E4160000 		.4byte	.LVL323
 13725 1ad9 9B3C0000 		.4byte	0x3c9b
 13726 1add F11A0000 		.4byte	0x1af1
 13727 1ae1 0F       		.uleb128 0xf
 13728 1ae2 01       		.uleb128 0x1
 13729 1ae3 51       		.byte	0x51
 13730 1ae4 02       		.uleb128 0x2
 13731 1ae5 74       		.byte	0x74
 13732 1ae6 00       		.sleb128 0
 13733 1ae7 0F       		.uleb128 0xf
 13734 1ae8 01       		.uleb128 0x1
 13735 1ae9 50       		.byte	0x50
 13736 1aea 05       		.uleb128 0x5
 13737 1aeb 03       		.byte	0x3
 13738 1aec 00000000 		.4byte	resultado
 13739 1af0 00       		.byte	0
 13740 1af1 0E       		.uleb128 0xe
 13741 1af2 F6160000 		.4byte	.LVL324
 13742 1af6 0B3C0000 		.4byte	0x3c0b
 13743 1afa 0C1B0000 		.4byte	0x1b0c
 13744 1afe 0F       		.uleb128 0xf
 13745 1aff 01       		.uleb128 0x1
 13746 1b00 51       		.byte	0x51
 13747 1b01 02       		.uleb128 0x2
 13748 1b02 91       		.byte	0x91
ARM GAS  C:\Users\diego\AppData\Local\Temp\ccwBHTp3.s 			page 284


 13749 1b03 54       		.sleb128 -44
 13750 1b04 0F       		.uleb128 0xf
 13751 1b05 01       		.uleb128 0x1
 13752 1b06 50       		.byte	0x50
 13753 1b07 03       		.uleb128 0x3
 13754 1b08 0A       		.byte	0xa
 13755 1b09 0001     		.2byte	0x100
 13756 1b0b 00       		.byte	0
 13757 1b0c 0E       		.uleb128 0xe
 13758 1b0d 00170000 		.4byte	.LVL325
 13759 1b11 0B3C0000 		.4byte	0x3c0b
 13760 1b15 2A1B0000 		.4byte	0x1b2a
 13761 1b19 0F       		.uleb128 0xf
 13762 1b1a 01       		.uleb128 0x1
 13763 1b1b 51       		.byte	0x51
 13764 1b1c 05       		.uleb128 0x5
 13765 1b1d 03       		.byte	0x3
 13766 1b1e 00000000 		.4byte	resultado
 13767 1b22 0F       		.uleb128 0xf
 13768 1b23 01       		.uleb128 0x1
 13769 1b24 50       		.byte	0x50
 13770 1b25 03       		.uleb128 0x3
 13771 1b26 0A       		.byte	0xa
 13772 1b27 0D02     		.2byte	0x20d
 13773 1b29 00       		.byte	0
 13774 1b2a 0E       		.uleb128 0xe
 13775 1b2b 3E170000 		.4byte	.LVL326
 13776 1b2f 0B3C0000 		.4byte	0x3c0b
 13777 1b33 451B0000 		.4byte	0x1b45
 13778 1b37 0F       		.uleb128 0xf
 13779 1b38 01       		.uleb128 0x1
 13780 1b39 51       		.byte	0x51
 13781 1b3a 02       		.uleb128 0x2
 13782 1b3b 91       		.byte	0x91
 13783 1b3c 54       		.sleb128 -44
 13784 1b3d 0F       		.uleb128 0xf
 13785 1b3e 01       		.uleb128 0x1
 13786 1b3f 50       		.byte	0x50
 13787 1b40 03       		.uleb128 0x3
 13788 1b41 0A       		.byte	0xa
 13789 1b42 5901     		.2byte	0x159
 13790 1b44 00       		.byte	0
 13791 1b45 0E       		.uleb128 0xe
 13792 1b46 48170000 		.4byte	.LVL327
 13793 1b4a 0B3C0000 		.4byte	0x3c0b
 13794 1b4e 631B0000 		.4byte	0x1b63
 13795 1b52 0F       		.uleb128 0xf
 13796 1b53 01       		.uleb128 0x1
 13797 1b54 51       		.byte	0x51
 13798 1b55 05       		.uleb128 0x5
 13799 1b56 03       		.byte	0x3
 13800 1b57 00000000 		.4byte	resultado
 13801 1b5b 0F       		.uleb128 0xf
 13802 1b5c 01       		.uleb128 0x1
 13803 1b5d 50       		.byte	0x50
 13804 1b5e 03       		.uleb128 0x3
 13805 1b5f 0A       		.byte	0xa
ARM GAS  C:\Users\diego\AppData\Local\Temp\ccwBHTp3.s 			page 285


 13806 1b60 4D02     		.2byte	0x24d
 13807 1b62 00       		.byte	0
 13808 1b63 0E       		.uleb128 0xe
 13809 1b64 8C170000 		.4byte	.LVL328
 13810 1b68 253C0000 		.4byte	0x3c25
 13811 1b6c 771B0000 		.4byte	0x1b77
 13812 1b70 0F       		.uleb128 0xf
 13813 1b71 01       		.uleb128 0x1
 13814 1b72 50       		.byte	0x50
 13815 1b73 02       		.uleb128 0x2
 13816 1b74 74       		.byte	0x74
 13817 1b75 00       		.sleb128 0
 13818 1b76 00       		.byte	0
 13819 1b77 0E       		.uleb128 0xe
 13820 1b78 A4170000 		.4byte	.LVL329
 13821 1b7c 253C0000 		.4byte	0x3c25
 13822 1b80 901B0000 		.4byte	0x1b90
 13823 1b84 0F       		.uleb128 0xf
 13824 1b85 01       		.uleb128 0x1
 13825 1b86 51       		.byte	0x51
 13826 1b87 01       		.uleb128 0x1
 13827 1b88 3A       		.byte	0x3a
 13828 1b89 0F       		.uleb128 0xf
 13829 1b8a 01       		.uleb128 0x1
 13830 1b8b 50       		.byte	0x50
 13831 1b8c 02       		.uleb128 0x2
 13832 1b8d 74       		.byte	0x74
 13833 1b8e 00       		.sleb128 0
 13834 1b8f 00       		.byte	0
 13835 1b90 0E       		.uleb128 0xe
 13836 1b91 B6170000 		.4byte	.LVL330
 13837 1b95 253C0000 		.4byte	0x3c25
 13838 1b99 A41B0000 		.4byte	0x1ba4
 13839 1b9d 0F       		.uleb128 0xf
 13840 1b9e 01       		.uleb128 0x1
 13841 1b9f 50       		.byte	0x50
 13842 1ba0 02       		.uleb128 0x2
 13843 1ba1 74       		.byte	0x74
 13844 1ba2 00       		.sleb128 0
 13845 1ba3 00       		.byte	0
 13846 1ba4 0E       		.uleb128 0xe
 13847 1ba5 CE170000 		.4byte	.LVL331
 13848 1ba9 253C0000 		.4byte	0x3c25
 13849 1bad BD1B0000 		.4byte	0x1bbd
 13850 1bb1 0F       		.uleb128 0xf
 13851 1bb2 01       		.uleb128 0x1
 13852 1bb3 51       		.byte	0x51
 13853 1bb4 01       		.uleb128 0x1
 13854 1bb5 3A       		.byte	0x3a
 13855 1bb6 0F       		.uleb128 0xf
 13856 1bb7 01       		.uleb128 0x1
 13857 1bb8 50       		.byte	0x50
 13858 1bb9 02       		.uleb128 0x2
 13859 1bba 74       		.byte	0x74
 13860 1bbb 00       		.sleb128 0
 13861 1bbc 00       		.byte	0
 13862 1bbd 0E       		.uleb128 0xe
ARM GAS  C:\Users\diego\AppData\Local\Temp\ccwBHTp3.s 			page 286


 13863 1bbe E2170000 		.4byte	.LVL332
 13864 1bc2 253C0000 		.4byte	0x3c25
 13865 1bc6 D11B0000 		.4byte	0x1bd1
 13866 1bca 0F       		.uleb128 0xf
 13867 1bcb 01       		.uleb128 0x1
 13868 1bcc 50       		.byte	0x50
 13869 1bcd 02       		.uleb128 0x2
 13870 1bce 74       		.byte	0x74
 13871 1bcf 00       		.sleb128 0
 13872 1bd0 00       		.byte	0
 13873 1bd1 0E       		.uleb128 0xe
 13874 1bd2 FA170000 		.4byte	.LVL333
 13875 1bd6 253C0000 		.4byte	0x3c25
 13876 1bda EA1B0000 		.4byte	0x1bea
 13877 1bde 0F       		.uleb128 0xf
 13878 1bdf 01       		.uleb128 0x1
 13879 1be0 51       		.byte	0x51
 13880 1be1 01       		.uleb128 0x1
 13881 1be2 3A       		.byte	0x3a
 13882 1be3 0F       		.uleb128 0xf
 13883 1be4 01       		.uleb128 0x1
 13884 1be5 50       		.byte	0x50
 13885 1be6 02       		.uleb128 0x2
 13886 1be7 74       		.byte	0x74
 13887 1be8 00       		.sleb128 0
 13888 1be9 00       		.byte	0
 13889 1bea 0E       		.uleb128 0xe
 13890 1beb 02180000 		.4byte	.LVL334
 13891 1bef 3F3C0000 		.4byte	0x3c3f
 13892 1bf3 031C0000 		.4byte	0x1c03
 13893 1bf7 0F       		.uleb128 0xf
 13894 1bf8 01       		.uleb128 0x1
 13895 1bf9 51       		.byte	0x51
 13896 1bfa 02       		.uleb128 0x2
 13897 1bfb 74       		.byte	0x74
 13898 1bfc 00       		.sleb128 0
 13899 1bfd 0F       		.uleb128 0xf
 13900 1bfe 01       		.uleb128 0x1
 13901 1bff 50       		.byte	0x50
 13902 1c00 01       		.uleb128 0x1
 13903 1c01 38       		.byte	0x38
 13904 1c02 00       		.byte	0
 13905 1c03 0E       		.uleb128 0xe
 13906 1c04 16180000 		.4byte	.LVL335
 13907 1c08 253C0000 		.4byte	0x3c25
 13908 1c0c 171C0000 		.4byte	0x1c17
 13909 1c10 0F       		.uleb128 0xf
 13910 1c11 01       		.uleb128 0x1
 13911 1c12 50       		.byte	0x50
 13912 1c13 02       		.uleb128 0x2
 13913 1c14 74       		.byte	0x74
 13914 1c15 00       		.sleb128 0
 13915 1c16 00       		.byte	0
 13916 1c17 0E       		.uleb128 0xe
 13917 1c18 2E180000 		.4byte	.LVL336
 13918 1c1c 253C0000 		.4byte	0x3c25
 13919 1c20 301C0000 		.4byte	0x1c30
ARM GAS  C:\Users\diego\AppData\Local\Temp\ccwBHTp3.s 			page 287


 13920 1c24 0F       		.uleb128 0xf
 13921 1c25 01       		.uleb128 0x1
 13922 1c26 51       		.byte	0x51
 13923 1c27 01       		.uleb128 0x1
 13924 1c28 3A       		.byte	0x3a
 13925 1c29 0F       		.uleb128 0xf
 13926 1c2a 01       		.uleb128 0x1
 13927 1c2b 50       		.byte	0x50
 13928 1c2c 02       		.uleb128 0x2
 13929 1c2d 74       		.byte	0x74
 13930 1c2e 00       		.sleb128 0
 13931 1c2f 00       		.byte	0
 13932 1c30 0E       		.uleb128 0xe
 13933 1c31 40180000 		.4byte	.LVL337
 13934 1c35 553C0000 		.4byte	0x3c55
 13935 1c39 4A1C0000 		.4byte	0x1c4a
 13936 1c3d 0F       		.uleb128 0xf
 13937 1c3e 01       		.uleb128 0x1
 13938 1c3f 51       		.byte	0x51
 13939 1c40 01       		.uleb128 0x1
 13940 1c41 49       		.byte	0x49
 13941 1c42 0F       		.uleb128 0xf
 13942 1c43 01       		.uleb128 0x1
 13943 1c44 50       		.byte	0x50
 13944 1c45 03       		.uleb128 0x3
 13945 1c46 0A       		.byte	0xa
 13946 1c47 4804     		.2byte	0x448
 13947 1c49 00       		.byte	0
 13948 1c4a 0E       		.uleb128 0xe
 13949 1c4b 4C180000 		.4byte	.LVL338
 13950 1c4f 553C0000 		.4byte	0x3c55
 13951 1c53 641C0000 		.4byte	0x1c64
 13952 1c57 0F       		.uleb128 0xf
 13953 1c58 01       		.uleb128 0x1
 13954 1c59 51       		.byte	0x51
 13955 1c5a 01       		.uleb128 0x1
 13956 1c5b 49       		.byte	0x49
 13957 1c5c 0F       		.uleb128 0xf
 13958 1c5d 01       		.uleb128 0x1
 13959 1c5e 50       		.byte	0x50
 13960 1c5f 03       		.uleb128 0x3
 13961 1c60 0A       		.byte	0xa
 13962 1c61 1E04     		.2byte	0x41e
 13963 1c63 00       		.byte	0
 13964 1c64 0E       		.uleb128 0xe
 13965 1c65 52180000 		.4byte	.LVL339
 13966 1c69 6F3C0000 		.4byte	0x3c6f
 13967 1c6d 781C0000 		.4byte	0x1c78
 13968 1c71 0F       		.uleb128 0xf
 13969 1c72 01       		.uleb128 0x1
 13970 1c73 50       		.byte	0x50
 13971 1c74 02       		.uleb128 0x2
 13972 1c75 74       		.byte	0x74
 13973 1c76 00       		.sleb128 0
 13974 1c77 00       		.byte	0
 13975 1c78 0E       		.uleb128 0xe
 13976 1c79 94180000 		.4byte	.LVL340
ARM GAS  C:\Users\diego\AppData\Local\Temp\ccwBHTp3.s 			page 288


 13977 1c7d 803C0000 		.4byte	0x3c80
 13978 1c81 981C0000 		.4byte	0x1c98
 13979 1c85 0F       		.uleb128 0xf
 13980 1c86 01       		.uleb128 0x1
 13981 1c87 52       		.byte	0x52
 13982 1c88 03       		.uleb128 0x3
 13983 1c89 91       		.byte	0x91
 13984 1c8a B47F     		.sleb128 -76
 13985 1c8c 0F       		.uleb128 0xf
 13986 1c8d 01       		.uleb128 0x1
 13987 1c8e 51       		.byte	0x51
 13988 1c8f 02       		.uleb128 0x2
 13989 1c90 91       		.byte	0x91
 13990 1c91 44       		.sleb128 -60
 13991 1c92 0F       		.uleb128 0xf
 13992 1c93 01       		.uleb128 0x1
 13993 1c94 50       		.byte	0x50
 13994 1c95 01       		.uleb128 0x1
 13995 1c96 32       		.byte	0x32
 13996 1c97 00       		.byte	0
 13997 1c98 0E       		.uleb128 0xe
 13998 1c99 AA180000 		.4byte	.LVL341
 13999 1c9d 253C0000 		.4byte	0x3c25
 14000 1ca1 AC1C0000 		.4byte	0x1cac
 14001 1ca5 0F       		.uleb128 0xf
 14002 1ca6 01       		.uleb128 0x1
 14003 1ca7 50       		.byte	0x50
 14004 1ca8 02       		.uleb128 0x2
 14005 1ca9 74       		.byte	0x74
 14006 1caa 00       		.sleb128 0
 14007 1cab 00       		.byte	0
 14008 1cac 0E       		.uleb128 0xe
 14009 1cad C2180000 		.4byte	.LVL342
 14010 1cb1 9B3C0000 		.4byte	0x3c9b
 14011 1cb5 C91C0000 		.4byte	0x1cc9
 14012 1cb9 0F       		.uleb128 0xf
 14013 1cba 01       		.uleb128 0x1
 14014 1cbb 51       		.byte	0x51
 14015 1cbc 02       		.uleb128 0x2
 14016 1cbd 74       		.byte	0x74
 14017 1cbe 00       		.sleb128 0
 14018 1cbf 0F       		.uleb128 0xf
 14019 1cc0 01       		.uleb128 0x1
 14020 1cc1 50       		.byte	0x50
 14021 1cc2 05       		.uleb128 0x5
 14022 1cc3 03       		.byte	0x3
 14023 1cc4 00000000 		.4byte	resultado
 14024 1cc8 00       		.byte	0
 14025 1cc9 0E       		.uleb128 0xe
 14026 1cca D4180000 		.4byte	.LVL343
 14027 1cce 0B3C0000 		.4byte	0x3c0b
 14028 1cd2 E41C0000 		.4byte	0x1ce4
 14029 1cd6 0F       		.uleb128 0xf
 14030 1cd7 01       		.uleb128 0x1
 14031 1cd8 51       		.byte	0x51
 14032 1cd9 02       		.uleb128 0x2
 14033 1cda 91       		.byte	0x91
ARM GAS  C:\Users\diego\AppData\Local\Temp\ccwBHTp3.s 			page 289


 14034 1cdb 54       		.sleb128 -44
 14035 1cdc 0F       		.uleb128 0xf
 14036 1cdd 01       		.uleb128 0x1
 14037 1cde 50       		.byte	0x50
 14038 1cdf 03       		.uleb128 0x3
 14039 1ce0 0A       		.byte	0xa
 14040 1ce1 4804     		.2byte	0x448
 14041 1ce3 00       		.byte	0
 14042 1ce4 0E       		.uleb128 0xe
 14043 1ce5 DE180000 		.4byte	.LVL344
 14044 1ce9 0B3C0000 		.4byte	0x3c0b
 14045 1ced 021D0000 		.4byte	0x1d02
 14046 1cf1 0F       		.uleb128 0xf
 14047 1cf2 01       		.uleb128 0x1
 14048 1cf3 51       		.byte	0x51
 14049 1cf4 05       		.uleb128 0x5
 14050 1cf5 03       		.byte	0x3
 14051 1cf6 00000000 		.4byte	resultado
 14052 1cfa 0F       		.uleb128 0xf
 14053 1cfb 01       		.uleb128 0x1
 14054 1cfc 50       		.byte	0x50
 14055 1cfd 03       		.uleb128 0x3
 14056 1cfe 0A       		.byte	0xa
 14057 1cff 0E04     		.2byte	0x40e
 14058 1d01 00       		.byte	0
 14059 1d02 0E       		.uleb128 0xe
 14060 1d03 EA180000 		.4byte	.LVL345
 14061 1d07 0B3C0000 		.4byte	0x3c0b
 14062 1d0b 1D1D0000 		.4byte	0x1d1d
 14063 1d0f 0F       		.uleb128 0xf
 14064 1d10 01       		.uleb128 0x1
 14065 1d11 51       		.byte	0x51
 14066 1d12 02       		.uleb128 0x2
 14067 1d13 91       		.byte	0x91
 14068 1d14 54       		.sleb128 -44
 14069 1d15 0F       		.uleb128 0xf
 14070 1d16 01       		.uleb128 0x1
 14071 1d17 50       		.byte	0x50
 14072 1d18 03       		.uleb128 0x3
 14073 1d19 0A       		.byte	0xa
 14074 1d1a 1E04     		.2byte	0x41e
 14075 1d1c 00       		.byte	0
 14076 1d1d 0E       		.uleb128 0xe
 14077 1d1e F4180000 		.4byte	.LVL346
 14078 1d22 0B3C0000 		.4byte	0x3c0b
 14079 1d26 3B1D0000 		.4byte	0x1d3b
 14080 1d2a 0F       		.uleb128 0xf
 14081 1d2b 01       		.uleb128 0x1
 14082 1d2c 51       		.byte	0x51
 14083 1d2d 05       		.uleb128 0x5
 14084 1d2e 03       		.byte	0x3
 14085 1d2f 00000000 		.4byte	resultado
 14086 1d33 0F       		.uleb128 0xf
 14087 1d34 01       		.uleb128 0x1
 14088 1d35 50       		.byte	0x50
 14089 1d36 03       		.uleb128 0x3
 14090 1d37 0A       		.byte	0xa
ARM GAS  C:\Users\diego\AppData\Local\Temp\ccwBHTp3.s 			page 290


 14091 1d38 3904     		.2byte	0x439
 14092 1d3a 00       		.byte	0
 14093 1d3b 10       		.uleb128 0x10
 14094 1d3c 0A190000 		.4byte	.LVL347
 14095 1d40 F93B0000 		.4byte	0x3bf9
 14096 1d44 0E       		.uleb128 0xe
 14097 1d45 6E1A0000 		.4byte	.LVL348
 14098 1d49 253C0000 		.4byte	0x3c25
 14099 1d4d 581D0000 		.4byte	0x1d58
 14100 1d51 0F       		.uleb128 0xf
 14101 1d52 01       		.uleb128 0x1
 14102 1d53 50       		.byte	0x50
 14103 1d54 02       		.uleb128 0x2
 14104 1d55 74       		.byte	0x74
 14105 1d56 00       		.sleb128 0
 14106 1d57 00       		.byte	0
 14107 1d58 0E       		.uleb128 0xe
 14108 1d59 861A0000 		.4byte	.LVL349
 14109 1d5d 253C0000 		.4byte	0x3c25
 14110 1d61 711D0000 		.4byte	0x1d71
 14111 1d65 0F       		.uleb128 0xf
 14112 1d66 01       		.uleb128 0x1
 14113 1d67 51       		.byte	0x51
 14114 1d68 01       		.uleb128 0x1
 14115 1d69 3A       		.byte	0x3a
 14116 1d6a 0F       		.uleb128 0xf
 14117 1d6b 01       		.uleb128 0x1
 14118 1d6c 50       		.byte	0x50
 14119 1d6d 02       		.uleb128 0x2
 14120 1d6e 74       		.byte	0x74
 14121 1d6f 00       		.sleb128 0
 14122 1d70 00       		.byte	0
 14123 1d71 0E       		.uleb128 0xe
 14124 1d72 981A0000 		.4byte	.LVL350
 14125 1d76 253C0000 		.4byte	0x3c25
 14126 1d7a 851D0000 		.4byte	0x1d85
 14127 1d7e 0F       		.uleb128 0xf
 14128 1d7f 01       		.uleb128 0x1
 14129 1d80 50       		.byte	0x50
 14130 1d81 02       		.uleb128 0x2
 14131 1d82 74       		.byte	0x74
 14132 1d83 00       		.sleb128 0
 14133 1d84 00       		.byte	0
 14134 1d85 0E       		.uleb128 0xe
 14135 1d86 B01A0000 		.4byte	.LVL351
 14136 1d8a 253C0000 		.4byte	0x3c25
 14137 1d8e 9E1D0000 		.4byte	0x1d9e
 14138 1d92 0F       		.uleb128 0xf
 14139 1d93 01       		.uleb128 0x1
 14140 1d94 51       		.byte	0x51
 14141 1d95 01       		.uleb128 0x1
 14142 1d96 3A       		.byte	0x3a
 14143 1d97 0F       		.uleb128 0xf
 14144 1d98 01       		.uleb128 0x1
 14145 1d99 50       		.byte	0x50
 14146 1d9a 02       		.uleb128 0x2
 14147 1d9b 74       		.byte	0x74
ARM GAS  C:\Users\diego\AppData\Local\Temp\ccwBHTp3.s 			page 291


 14148 1d9c 00       		.sleb128 0
 14149 1d9d 00       		.byte	0
 14150 1d9e 0E       		.uleb128 0xe
 14151 1d9f C41A0000 		.4byte	.LVL352
 14152 1da3 253C0000 		.4byte	0x3c25
 14153 1da7 B21D0000 		.4byte	0x1db2
 14154 1dab 0F       		.uleb128 0xf
 14155 1dac 01       		.uleb128 0x1
 14156 1dad 50       		.byte	0x50
 14157 1dae 02       		.uleb128 0x2
 14158 1daf 74       		.byte	0x74
 14159 1db0 00       		.sleb128 0
 14160 1db1 00       		.byte	0
 14161 1db2 0E       		.uleb128 0xe
 14162 1db3 DC1A0000 		.4byte	.LVL353
 14163 1db7 253C0000 		.4byte	0x3c25
 14164 1dbb CB1D0000 		.4byte	0x1dcb
 14165 1dbf 0F       		.uleb128 0xf
 14166 1dc0 01       		.uleb128 0x1
 14167 1dc1 51       		.byte	0x51
 14168 1dc2 01       		.uleb128 0x1
 14169 1dc3 3A       		.byte	0x3a
 14170 1dc4 0F       		.uleb128 0xf
 14171 1dc5 01       		.uleb128 0x1
 14172 1dc6 50       		.byte	0x50
 14173 1dc7 02       		.uleb128 0x2
 14174 1dc8 74       		.byte	0x74
 14175 1dc9 00       		.sleb128 0
 14176 1dca 00       		.byte	0
 14177 1dcb 0E       		.uleb128 0xe
 14178 1dcc E41A0000 		.4byte	.LVL354
 14179 1dd0 3F3C0000 		.4byte	0x3c3f
 14180 1dd4 E41D0000 		.4byte	0x1de4
 14181 1dd8 0F       		.uleb128 0xf
 14182 1dd9 01       		.uleb128 0x1
 14183 1dda 51       		.byte	0x51
 14184 1ddb 02       		.uleb128 0x2
 14185 1ddc 74       		.byte	0x74
 14186 1ddd 00       		.sleb128 0
 14187 1dde 0F       		.uleb128 0xf
 14188 1ddf 01       		.uleb128 0x1
 14189 1de0 50       		.byte	0x50
 14190 1de1 01       		.uleb128 0x1
 14191 1de2 3C       		.byte	0x3c
 14192 1de3 00       		.byte	0
 14193 1de4 0E       		.uleb128 0xe
 14194 1de5 F81A0000 		.4byte	.LVL355
 14195 1de9 253C0000 		.4byte	0x3c25
 14196 1ded F81D0000 		.4byte	0x1df8
 14197 1df1 0F       		.uleb128 0xf
 14198 1df2 01       		.uleb128 0x1
 14199 1df3 50       		.byte	0x50
 14200 1df4 02       		.uleb128 0x2
 14201 1df5 74       		.byte	0x74
 14202 1df6 00       		.sleb128 0
 14203 1df7 00       		.byte	0
 14204 1df8 0E       		.uleb128 0xe
ARM GAS  C:\Users\diego\AppData\Local\Temp\ccwBHTp3.s 			page 292


 14205 1df9 101B0000 		.4byte	.LVL356
 14206 1dfd 253C0000 		.4byte	0x3c25
 14207 1e01 111E0000 		.4byte	0x1e11
 14208 1e05 0F       		.uleb128 0xf
 14209 1e06 01       		.uleb128 0x1
 14210 1e07 51       		.byte	0x51
 14211 1e08 01       		.uleb128 0x1
 14212 1e09 3A       		.byte	0x3a
 14213 1e0a 0F       		.uleb128 0xf
 14214 1e0b 01       		.uleb128 0x1
 14215 1e0c 50       		.byte	0x50
 14216 1e0d 02       		.uleb128 0x2
 14217 1e0e 74       		.byte	0x74
 14218 1e0f 00       		.sleb128 0
 14219 1e10 00       		.byte	0
 14220 1e11 0E       		.uleb128 0xe
 14221 1e12 201B0000 		.4byte	.LVL357
 14222 1e16 553C0000 		.4byte	0x3c55
 14223 1e1a 2A1E0000 		.4byte	0x1e2a
 14224 1e1e 0F       		.uleb128 0xf
 14225 1e1f 01       		.uleb128 0x1
 14226 1e20 51       		.byte	0x51
 14227 1e21 01       		.uleb128 0x1
 14228 1e22 49       		.byte	0x49
 14229 1e23 0F       		.uleb128 0xf
 14230 1e24 01       		.uleb128 0x1
 14231 1e25 50       		.byte	0x50
 14232 1e26 02       		.uleb128 0x2
 14233 1e27 08       		.byte	0x8
 14234 1e28 C0       		.byte	0xc0
 14235 1e29 00       		.byte	0
 14236 1e2a 0E       		.uleb128 0xe
 14237 1e2b 2C1B0000 		.4byte	.LVL358
 14238 1e2f 553C0000 		.4byte	0x3c55
 14239 1e33 441E0000 		.4byte	0x1e44
 14240 1e37 0F       		.uleb128 0xf
 14241 1e38 01       		.uleb128 0x1
 14242 1e39 51       		.byte	0x51
 14243 1e3a 01       		.uleb128 0x1
 14244 1e3b 49       		.byte	0x49
 14245 1e3c 0F       		.uleb128 0xf
 14246 1e3d 01       		.uleb128 0x1
 14247 1e3e 50       		.byte	0x50
 14248 1e3f 03       		.uleb128 0x3
 14249 1e40 0A       		.byte	0xa
 14250 1e41 1901     		.2byte	0x119
 14251 1e43 00       		.byte	0
 14252 1e44 0E       		.uleb128 0xe
 14253 1e45 321B0000 		.4byte	.LVL359
 14254 1e49 6F3C0000 		.4byte	0x3c6f
 14255 1e4d 581E0000 		.4byte	0x1e58
 14256 1e51 0F       		.uleb128 0xf
 14257 1e52 01       		.uleb128 0x1
 14258 1e53 50       		.byte	0x50
 14259 1e54 02       		.uleb128 0x2
 14260 1e55 74       		.byte	0x74
 14261 1e56 00       		.sleb128 0
ARM GAS  C:\Users\diego\AppData\Local\Temp\ccwBHTp3.s 			page 293


 14262 1e57 00       		.byte	0
 14263 1e58 0E       		.uleb128 0xe
 14264 1e59 741B0000 		.4byte	.LVL360
 14265 1e5d 803C0000 		.4byte	0x3c80
 14266 1e61 781E0000 		.4byte	0x1e78
 14267 1e65 0F       		.uleb128 0xf
 14268 1e66 01       		.uleb128 0x1
 14269 1e67 52       		.byte	0x52
 14270 1e68 03       		.uleb128 0x3
 14271 1e69 91       		.byte	0x91
 14272 1e6a B47F     		.sleb128 -76
 14273 1e6c 0F       		.uleb128 0xf
 14274 1e6d 01       		.uleb128 0x1
 14275 1e6e 51       		.byte	0x51
 14276 1e6f 02       		.uleb128 0x2
 14277 1e70 91       		.byte	0x91
 14278 1e71 44       		.sleb128 -60
 14279 1e72 0F       		.uleb128 0xf
 14280 1e73 01       		.uleb128 0x1
 14281 1e74 50       		.byte	0x50
 14282 1e75 01       		.uleb128 0x1
 14283 1e76 32       		.byte	0x32
 14284 1e77 00       		.byte	0
 14285 1e78 0E       		.uleb128 0xe
 14286 1e79 8A1B0000 		.4byte	.LVL361
 14287 1e7d 253C0000 		.4byte	0x3c25
 14288 1e81 8C1E0000 		.4byte	0x1e8c
 14289 1e85 0F       		.uleb128 0xf
 14290 1e86 01       		.uleb128 0x1
 14291 1e87 50       		.byte	0x50
 14292 1e88 02       		.uleb128 0x2
 14293 1e89 74       		.byte	0x74
 14294 1e8a 00       		.sleb128 0
 14295 1e8b 00       		.byte	0
 14296 1e8c 0E       		.uleb128 0xe
 14297 1e8d A21B0000 		.4byte	.LVL362
 14298 1e91 9B3C0000 		.4byte	0x3c9b
 14299 1e95 A91E0000 		.4byte	0x1ea9
 14300 1e99 0F       		.uleb128 0xf
 14301 1e9a 01       		.uleb128 0x1
 14302 1e9b 51       		.byte	0x51
 14303 1e9c 02       		.uleb128 0x2
 14304 1e9d 74       		.byte	0x74
 14305 1e9e 00       		.sleb128 0
 14306 1e9f 0F       		.uleb128 0xf
 14307 1ea0 01       		.uleb128 0x1
 14308 1ea1 50       		.byte	0x50
 14309 1ea2 05       		.uleb128 0x5
 14310 1ea3 03       		.byte	0x3
 14311 1ea4 00000000 		.4byte	resultado
 14312 1ea8 00       		.byte	0
 14313 1ea9 0E       		.uleb128 0xe
 14314 1eaa B21B0000 		.4byte	.LVL363
 14315 1eae 0B3C0000 		.4byte	0x3c0b
 14316 1eb2 C31E0000 		.4byte	0x1ec3
 14317 1eb6 0F       		.uleb128 0xf
 14318 1eb7 01       		.uleb128 0x1
ARM GAS  C:\Users\diego\AppData\Local\Temp\ccwBHTp3.s 			page 294


 14319 1eb8 51       		.byte	0x51
 14320 1eb9 02       		.uleb128 0x2
 14321 1eba 91       		.byte	0x91
 14322 1ebb 54       		.sleb128 -44
 14323 1ebc 0F       		.uleb128 0xf
 14324 1ebd 01       		.uleb128 0x1
 14325 1ebe 50       		.byte	0x50
 14326 1ebf 02       		.uleb128 0x2
 14327 1ec0 08       		.byte	0x8
 14328 1ec1 C0       		.byte	0xc0
 14329 1ec2 00       		.byte	0
 14330 1ec3 0E       		.uleb128 0xe
 14331 1ec4 BC1B0000 		.4byte	.LVL364
 14332 1ec8 0B3C0000 		.4byte	0x3c0b
 14333 1ecc E11E0000 		.4byte	0x1ee1
 14334 1ed0 0F       		.uleb128 0xf
 14335 1ed1 01       		.uleb128 0x1
 14336 1ed2 51       		.byte	0x51
 14337 1ed3 05       		.uleb128 0x5
 14338 1ed4 03       		.byte	0x3
 14339 1ed5 00000000 		.4byte	resultado
 14340 1ed9 0F       		.uleb128 0xf
 14341 1eda 01       		.uleb128 0x1
 14342 1edb 50       		.byte	0x50
 14343 1edc 03       		.uleb128 0x3
 14344 1edd 0A       		.byte	0xa
 14345 1ede 0002     		.2byte	0x200
 14346 1ee0 00       		.byte	0
 14347 1ee1 0E       		.uleb128 0xe
 14348 1ee2 C81B0000 		.4byte	.LVL365
 14349 1ee6 0B3C0000 		.4byte	0x3c0b
 14350 1eea FC1E0000 		.4byte	0x1efc
 14351 1eee 0F       		.uleb128 0xf
 14352 1eef 01       		.uleb128 0x1
 14353 1ef0 51       		.byte	0x51
 14354 1ef1 02       		.uleb128 0x2
 14355 1ef2 91       		.byte	0x91
 14356 1ef3 54       		.sleb128 -44
 14357 1ef4 0F       		.uleb128 0xf
 14358 1ef5 01       		.uleb128 0x1
 14359 1ef6 50       		.byte	0x50
 14360 1ef7 03       		.uleb128 0x3
 14361 1ef8 0A       		.byte	0xa
 14362 1ef9 1901     		.2byte	0x119
 14363 1efb 00       		.byte	0
 14364 1efc 0E       		.uleb128 0xe
 14365 1efd D21B0000 		.4byte	.LVL366
 14366 1f01 0B3C0000 		.4byte	0x3c0b
 14367 1f05 1A1F0000 		.4byte	0x1f1a
 14368 1f09 0F       		.uleb128 0xf
 14369 1f0a 01       		.uleb128 0x1
 14370 1f0b 51       		.byte	0x51
 14371 1f0c 05       		.uleb128 0x5
 14372 1f0d 03       		.byte	0x3
 14373 1f0e 00000000 		.4byte	resultado
 14374 1f12 0F       		.uleb128 0xf
 14375 1f13 01       		.uleb128 0x1
ARM GAS  C:\Users\diego\AppData\Local\Temp\ccwBHTp3.s 			page 295


 14376 1f14 50       		.byte	0x50
 14377 1f15 03       		.uleb128 0x3
 14378 1f16 0A       		.byte	0xa
 14379 1f17 2702     		.2byte	0x227
 14380 1f19 00       		.byte	0
 14381 1f1a 0E       		.uleb128 0xe
 14382 1f1b 161C0000 		.4byte	.LVL367
 14383 1f1f 253C0000 		.4byte	0x3c25
 14384 1f23 2E1F0000 		.4byte	0x1f2e
 14385 1f27 0F       		.uleb128 0xf
 14386 1f28 01       		.uleb128 0x1
 14387 1f29 50       		.byte	0x50
 14388 1f2a 02       		.uleb128 0x2
 14389 1f2b 74       		.byte	0x74
 14390 1f2c 00       		.sleb128 0
 14391 1f2d 00       		.byte	0
 14392 1f2e 0E       		.uleb128 0xe
 14393 1f2f 2E1C0000 		.4byte	.LVL368
 14394 1f33 253C0000 		.4byte	0x3c25
 14395 1f37 471F0000 		.4byte	0x1f47
 14396 1f3b 0F       		.uleb128 0xf
 14397 1f3c 01       		.uleb128 0x1
 14398 1f3d 51       		.byte	0x51
 14399 1f3e 01       		.uleb128 0x1
 14400 1f3f 3A       		.byte	0x3a
 14401 1f40 0F       		.uleb128 0xf
 14402 1f41 01       		.uleb128 0x1
 14403 1f42 50       		.byte	0x50
 14404 1f43 02       		.uleb128 0x2
 14405 1f44 74       		.byte	0x74
 14406 1f45 00       		.sleb128 0
 14407 1f46 00       		.byte	0
 14408 1f47 0E       		.uleb128 0xe
 14409 1f48 401C0000 		.4byte	.LVL369
 14410 1f4c 253C0000 		.4byte	0x3c25
 14411 1f50 5B1F0000 		.4byte	0x1f5b
 14412 1f54 0F       		.uleb128 0xf
 14413 1f55 01       		.uleb128 0x1
 14414 1f56 50       		.byte	0x50
 14415 1f57 02       		.uleb128 0x2
 14416 1f58 74       		.byte	0x74
 14417 1f59 00       		.sleb128 0
 14418 1f5a 00       		.byte	0
 14419 1f5b 0E       		.uleb128 0xe
 14420 1f5c 581C0000 		.4byte	.LVL370
 14421 1f60 253C0000 		.4byte	0x3c25
 14422 1f64 741F0000 		.4byte	0x1f74
 14423 1f68 0F       		.uleb128 0xf
 14424 1f69 01       		.uleb128 0x1
 14425 1f6a 51       		.byte	0x51
 14426 1f6b 01       		.uleb128 0x1
 14427 1f6c 3A       		.byte	0x3a
 14428 1f6d 0F       		.uleb128 0xf
 14429 1f6e 01       		.uleb128 0x1
 14430 1f6f 50       		.byte	0x50
 14431 1f70 02       		.uleb128 0x2
 14432 1f71 74       		.byte	0x74
ARM GAS  C:\Users\diego\AppData\Local\Temp\ccwBHTp3.s 			page 296


 14433 1f72 00       		.sleb128 0
 14434 1f73 00       		.byte	0
 14435 1f74 0E       		.uleb128 0xe
 14436 1f75 6C1C0000 		.4byte	.LVL371
 14437 1f79 253C0000 		.4byte	0x3c25
 14438 1f7d 881F0000 		.4byte	0x1f88
 14439 1f81 0F       		.uleb128 0xf
 14440 1f82 01       		.uleb128 0x1
 14441 1f83 50       		.byte	0x50
 14442 1f84 02       		.uleb128 0x2
 14443 1f85 74       		.byte	0x74
 14444 1f86 00       		.sleb128 0
 14445 1f87 00       		.byte	0
 14446 1f88 0E       		.uleb128 0xe
 14447 1f89 841C0000 		.4byte	.LVL372
 14448 1f8d 253C0000 		.4byte	0x3c25
 14449 1f91 A11F0000 		.4byte	0x1fa1
 14450 1f95 0F       		.uleb128 0xf
 14451 1f96 01       		.uleb128 0x1
 14452 1f97 51       		.byte	0x51
 14453 1f98 01       		.uleb128 0x1
 14454 1f99 3A       		.byte	0x3a
 14455 1f9a 0F       		.uleb128 0xf
 14456 1f9b 01       		.uleb128 0x1
 14457 1f9c 50       		.byte	0x50
 14458 1f9d 02       		.uleb128 0x2
 14459 1f9e 74       		.byte	0x74
 14460 1f9f 00       		.sleb128 0
 14461 1fa0 00       		.byte	0
 14462 1fa1 0E       		.uleb128 0xe
 14463 1fa2 8C1C0000 		.4byte	.LVL373
 14464 1fa6 3F3C0000 		.4byte	0x3c3f
 14465 1faa BA1F0000 		.4byte	0x1fba
 14466 1fae 0F       		.uleb128 0xf
 14467 1faf 01       		.uleb128 0x1
 14468 1fb0 51       		.byte	0x51
 14469 1fb1 02       		.uleb128 0x2
 14470 1fb2 74       		.byte	0x74
 14471 1fb3 00       		.sleb128 0
 14472 1fb4 0F       		.uleb128 0xf
 14473 1fb5 01       		.uleb128 0x1
 14474 1fb6 50       		.byte	0x50
 14475 1fb7 01       		.uleb128 0x1
 14476 1fb8 3C       		.byte	0x3c
 14477 1fb9 00       		.byte	0
 14478 1fba 0E       		.uleb128 0xe
 14479 1fbb A01C0000 		.4byte	.LVL374
 14480 1fbf 253C0000 		.4byte	0x3c25
 14481 1fc3 CE1F0000 		.4byte	0x1fce
 14482 1fc7 0F       		.uleb128 0xf
 14483 1fc8 01       		.uleb128 0x1
 14484 1fc9 50       		.byte	0x50
 14485 1fca 02       		.uleb128 0x2
 14486 1fcb 74       		.byte	0x74
 14487 1fcc 00       		.sleb128 0
 14488 1fcd 00       		.byte	0
 14489 1fce 0E       		.uleb128 0xe
ARM GAS  C:\Users\diego\AppData\Local\Temp\ccwBHTp3.s 			page 297


 14490 1fcf B81C0000 		.4byte	.LVL375
 14491 1fd3 253C0000 		.4byte	0x3c25
 14492 1fd7 E71F0000 		.4byte	0x1fe7
 14493 1fdb 0F       		.uleb128 0xf
 14494 1fdc 01       		.uleb128 0x1
 14495 1fdd 51       		.byte	0x51
 14496 1fde 01       		.uleb128 0x1
 14497 1fdf 3A       		.byte	0x3a
 14498 1fe0 0F       		.uleb128 0xf
 14499 1fe1 01       		.uleb128 0x1
 14500 1fe2 50       		.byte	0x50
 14501 1fe3 02       		.uleb128 0x2
 14502 1fe4 74       		.byte	0x74
 14503 1fe5 00       		.sleb128 0
 14504 1fe6 00       		.byte	0
 14505 1fe7 0E       		.uleb128 0xe
 14506 1fe8 C81C0000 		.4byte	.LVL376
 14507 1fec 553C0000 		.4byte	0x3c55
 14508 1ff0 00200000 		.4byte	0x2000
 14509 1ff4 0F       		.uleb128 0xf
 14510 1ff5 01       		.uleb128 0x1
 14511 1ff6 51       		.byte	0x51
 14512 1ff7 01       		.uleb128 0x1
 14513 1ff8 49       		.byte	0x49
 14514 1ff9 0F       		.uleb128 0xf
 14515 1ffa 01       		.uleb128 0x1
 14516 1ffb 50       		.byte	0x50
 14517 1ffc 02       		.uleb128 0x2
 14518 1ffd 08       		.byte	0x8
 14519 1ffe D9       		.byte	0xd9
 14520 1fff 00       		.byte	0
 14521 2000 0E       		.uleb128 0xe
 14522 2001 161D0000 		.4byte	.LVL377
 14523 2005 553C0000 		.4byte	0x3c55
 14524 2009 1A200000 		.4byte	0x201a
 14525 200d 0F       		.uleb128 0xf
 14526 200e 01       		.uleb128 0x1
 14527 200f 51       		.byte	0x51
 14528 2010 01       		.uleb128 0x1
 14529 2011 49       		.byte	0x49
 14530 2012 0F       		.uleb128 0xf
 14531 2013 01       		.uleb128 0x1
 14532 2014 50       		.byte	0x50
 14533 2015 03       		.uleb128 0x3
 14534 2016 0A       		.byte	0xa
 14535 2017 4001     		.2byte	0x140
 14536 2019 00       		.byte	0
 14537 201a 0E       		.uleb128 0xe
 14538 201b 1C1D0000 		.4byte	.LVL378
 14539 201f 6F3C0000 		.4byte	0x3c6f
 14540 2023 2E200000 		.4byte	0x202e
 14541 2027 0F       		.uleb128 0xf
 14542 2028 01       		.uleb128 0x1
 14543 2029 50       		.byte	0x50
 14544 202a 02       		.uleb128 0x2
 14545 202b 74       		.byte	0x74
 14546 202c 00       		.sleb128 0
ARM GAS  C:\Users\diego\AppData\Local\Temp\ccwBHTp3.s 			page 298


 14547 202d 00       		.byte	0
 14548 202e 0E       		.uleb128 0xe
 14549 202f 5E1D0000 		.4byte	.LVL379
 14550 2033 803C0000 		.4byte	0x3c80
 14551 2037 4E200000 		.4byte	0x204e
 14552 203b 0F       		.uleb128 0xf
 14553 203c 01       		.uleb128 0x1
 14554 203d 52       		.byte	0x52
 14555 203e 03       		.uleb128 0x3
 14556 203f 91       		.byte	0x91
 14557 2040 B47F     		.sleb128 -76
 14558 2042 0F       		.uleb128 0xf
 14559 2043 01       		.uleb128 0x1
 14560 2044 51       		.byte	0x51
 14561 2045 02       		.uleb128 0x2
 14562 2046 91       		.byte	0x91
 14563 2047 44       		.sleb128 -60
 14564 2048 0F       		.uleb128 0xf
 14565 2049 01       		.uleb128 0x1
 14566 204a 50       		.byte	0x50
 14567 204b 01       		.uleb128 0x1
 14568 204c 32       		.byte	0x32
 14569 204d 00       		.byte	0
 14570 204e 0E       		.uleb128 0xe
 14571 204f 741D0000 		.4byte	.LVL380
 14572 2053 253C0000 		.4byte	0x3c25
 14573 2057 62200000 		.4byte	0x2062
 14574 205b 0F       		.uleb128 0xf
 14575 205c 01       		.uleb128 0x1
 14576 205d 50       		.byte	0x50
 14577 205e 02       		.uleb128 0x2
 14578 205f 74       		.byte	0x74
 14579 2060 00       		.sleb128 0
 14580 2061 00       		.byte	0
 14581 2062 0E       		.uleb128 0xe
 14582 2063 8C1D0000 		.4byte	.LVL381
 14583 2067 9B3C0000 		.4byte	0x3c9b
 14584 206b 7F200000 		.4byte	0x207f
 14585 206f 0F       		.uleb128 0xf
 14586 2070 01       		.uleb128 0x1
 14587 2071 51       		.byte	0x51
 14588 2072 02       		.uleb128 0x2
 14589 2073 74       		.byte	0x74
 14590 2074 00       		.sleb128 0
 14591 2075 0F       		.uleb128 0xf
 14592 2076 01       		.uleb128 0x1
 14593 2077 50       		.byte	0x50
 14594 2078 05       		.uleb128 0x5
 14595 2079 03       		.byte	0x3
 14596 207a 00000000 		.4byte	resultado
 14597 207e 00       		.byte	0
 14598 207f 0E       		.uleb128 0xe
 14599 2080 9C1D0000 		.4byte	.LVL382
 14600 2084 0B3C0000 		.4byte	0x3c0b
 14601 2088 99200000 		.4byte	0x2099
 14602 208c 0F       		.uleb128 0xf
 14603 208d 01       		.uleb128 0x1
ARM GAS  C:\Users\diego\AppData\Local\Temp\ccwBHTp3.s 			page 299


 14604 208e 51       		.byte	0x51
 14605 208f 02       		.uleb128 0x2
 14606 2090 91       		.byte	0x91
 14607 2091 54       		.sleb128 -44
 14608 2092 0F       		.uleb128 0xf
 14609 2093 01       		.uleb128 0x1
 14610 2094 50       		.byte	0x50
 14611 2095 02       		.uleb128 0x2
 14612 2096 08       		.byte	0x8
 14613 2097 D9       		.byte	0xd9
 14614 2098 00       		.byte	0
 14615 2099 0E       		.uleb128 0xe
 14616 209a A61D0000 		.4byte	.LVL383
 14617 209e 0B3C0000 		.4byte	0x3c0b
 14618 20a2 B7200000 		.4byte	0x20b7
 14619 20a6 0F       		.uleb128 0xf
 14620 20a7 01       		.uleb128 0x1
 14621 20a8 51       		.byte	0x51
 14622 20a9 05       		.uleb128 0x5
 14623 20aa 03       		.byte	0x3
 14624 20ab 00000000 		.4byte	resultado
 14625 20af 0F       		.uleb128 0xf
 14626 20b0 01       		.uleb128 0x1
 14627 20b1 50       		.byte	0x50
 14628 20b2 03       		.uleb128 0x3
 14629 20b3 0A       		.byte	0xa
 14630 20b4 1A02     		.2byte	0x21a
 14631 20b6 00       		.byte	0
 14632 20b7 0E       		.uleb128 0xe
 14633 20b8 B21D0000 		.4byte	.LVL384
 14634 20bc 0B3C0000 		.4byte	0x3c0b
 14635 20c0 D2200000 		.4byte	0x20d2
 14636 20c4 0F       		.uleb128 0xf
 14637 20c5 01       		.uleb128 0x1
 14638 20c6 51       		.byte	0x51
 14639 20c7 02       		.uleb128 0x2
 14640 20c8 91       		.byte	0x91
 14641 20c9 54       		.sleb128 -44
 14642 20ca 0F       		.uleb128 0xf
 14643 20cb 01       		.uleb128 0x1
 14644 20cc 50       		.byte	0x50
 14645 20cd 03       		.uleb128 0x3
 14646 20ce 0A       		.byte	0xa
 14647 20cf 4001     		.2byte	0x140
 14648 20d1 00       		.byte	0
 14649 20d2 0E       		.uleb128 0xe
 14650 20d3 BC1D0000 		.4byte	.LVL385
 14651 20d7 0B3C0000 		.4byte	0x3c0b
 14652 20db F0200000 		.4byte	0x20f0
 14653 20df 0F       		.uleb128 0xf
 14654 20e0 01       		.uleb128 0x1
 14655 20e1 51       		.byte	0x51
 14656 20e2 05       		.uleb128 0x5
 14657 20e3 03       		.byte	0x3
 14658 20e4 00000000 		.4byte	resultado
 14659 20e8 0F       		.uleb128 0xf
 14660 20e9 01       		.uleb128 0x1
ARM GAS  C:\Users\diego\AppData\Local\Temp\ccwBHTp3.s 			page 300


 14661 20ea 50       		.byte	0x50
 14662 20eb 03       		.uleb128 0x3
 14663 20ec 0A       		.byte	0xa
 14664 20ed 4002     		.2byte	0x240
 14665 20ef 00       		.byte	0
 14666 20f0 0E       		.uleb128 0xe
 14667 20f1 001E0000 		.4byte	.LVL386
 14668 20f5 253C0000 		.4byte	0x3c25
 14669 20f9 04210000 		.4byte	0x2104
 14670 20fd 0F       		.uleb128 0xf
 14671 20fe 01       		.uleb128 0x1
 14672 20ff 50       		.byte	0x50
 14673 2100 02       		.uleb128 0x2
 14674 2101 74       		.byte	0x74
 14675 2102 00       		.sleb128 0
 14676 2103 00       		.byte	0
 14677 2104 0E       		.uleb128 0xe
 14678 2105 181E0000 		.4byte	.LVL387
 14679 2109 253C0000 		.4byte	0x3c25
 14680 210d 1D210000 		.4byte	0x211d
 14681 2111 0F       		.uleb128 0xf
 14682 2112 01       		.uleb128 0x1
 14683 2113 51       		.byte	0x51
 14684 2114 01       		.uleb128 0x1
 14685 2115 3A       		.byte	0x3a
 14686 2116 0F       		.uleb128 0xf
 14687 2117 01       		.uleb128 0x1
 14688 2118 50       		.byte	0x50
 14689 2119 02       		.uleb128 0x2
 14690 211a 74       		.byte	0x74
 14691 211b 00       		.sleb128 0
 14692 211c 00       		.byte	0
 14693 211d 0E       		.uleb128 0xe
 14694 211e 2A1E0000 		.4byte	.LVL388
 14695 2122 253C0000 		.4byte	0x3c25
 14696 2126 31210000 		.4byte	0x2131
 14697 212a 0F       		.uleb128 0xf
 14698 212b 01       		.uleb128 0x1
 14699 212c 50       		.byte	0x50
 14700 212d 02       		.uleb128 0x2
 14701 212e 74       		.byte	0x74
 14702 212f 00       		.sleb128 0
 14703 2130 00       		.byte	0
 14704 2131 0E       		.uleb128 0xe
 14705 2132 421E0000 		.4byte	.LVL389
 14706 2136 253C0000 		.4byte	0x3c25
 14707 213a 4A210000 		.4byte	0x214a
 14708 213e 0F       		.uleb128 0xf
 14709 213f 01       		.uleb128 0x1
 14710 2140 51       		.byte	0x51
 14711 2141 01       		.uleb128 0x1
 14712 2142 3A       		.byte	0x3a
 14713 2143 0F       		.uleb128 0xf
 14714 2144 01       		.uleb128 0x1
 14715 2145 50       		.byte	0x50
 14716 2146 02       		.uleb128 0x2
 14717 2147 74       		.byte	0x74
ARM GAS  C:\Users\diego\AppData\Local\Temp\ccwBHTp3.s 			page 301


 14718 2148 00       		.sleb128 0
 14719 2149 00       		.byte	0
 14720 214a 0E       		.uleb128 0xe
 14721 214b 561E0000 		.4byte	.LVL390
 14722 214f 253C0000 		.4byte	0x3c25
 14723 2153 5E210000 		.4byte	0x215e
 14724 2157 0F       		.uleb128 0xf
 14725 2158 01       		.uleb128 0x1
 14726 2159 50       		.byte	0x50
 14727 215a 02       		.uleb128 0x2
 14728 215b 74       		.byte	0x74
 14729 215c 00       		.sleb128 0
 14730 215d 00       		.byte	0
 14731 215e 0E       		.uleb128 0xe
 14732 215f 6E1E0000 		.4byte	.LVL391
 14733 2163 253C0000 		.4byte	0x3c25
 14734 2167 77210000 		.4byte	0x2177
 14735 216b 0F       		.uleb128 0xf
 14736 216c 01       		.uleb128 0x1
 14737 216d 51       		.byte	0x51
 14738 216e 01       		.uleb128 0x1
 14739 216f 3A       		.byte	0x3a
 14740 2170 0F       		.uleb128 0xf
 14741 2171 01       		.uleb128 0x1
 14742 2172 50       		.byte	0x50
 14743 2173 02       		.uleb128 0x2
 14744 2174 74       		.byte	0x74
 14745 2175 00       		.sleb128 0
 14746 2176 00       		.byte	0
 14747 2177 0E       		.uleb128 0xe
 14748 2178 761E0000 		.4byte	.LVL392
 14749 217c 3F3C0000 		.4byte	0x3c3f
 14750 2180 90210000 		.4byte	0x2190
 14751 2184 0F       		.uleb128 0xf
 14752 2185 01       		.uleb128 0x1
 14753 2186 51       		.byte	0x51
 14754 2187 02       		.uleb128 0x2
 14755 2188 74       		.byte	0x74
 14756 2189 00       		.sleb128 0
 14757 218a 0F       		.uleb128 0xf
 14758 218b 01       		.uleb128 0x1
 14759 218c 50       		.byte	0x50
 14760 218d 01       		.uleb128 0x1
 14761 218e 3C       		.byte	0x3c
 14762 218f 00       		.byte	0
 14763 2190 0E       		.uleb128 0xe
 14764 2191 8A1E0000 		.4byte	.LVL393
 14765 2195 253C0000 		.4byte	0x3c25
 14766 2199 A4210000 		.4byte	0x21a4
 14767 219d 0F       		.uleb128 0xf
 14768 219e 01       		.uleb128 0x1
 14769 219f 50       		.byte	0x50
 14770 21a0 02       		.uleb128 0x2
 14771 21a1 74       		.byte	0x74
 14772 21a2 00       		.sleb128 0
 14773 21a3 00       		.byte	0
 14774 21a4 0E       		.uleb128 0xe
ARM GAS  C:\Users\diego\AppData\Local\Temp\ccwBHTp3.s 			page 302


 14775 21a5 A21E0000 		.4byte	.LVL394
 14776 21a9 253C0000 		.4byte	0x3c25
 14777 21ad BD210000 		.4byte	0x21bd
 14778 21b1 0F       		.uleb128 0xf
 14779 21b2 01       		.uleb128 0x1
 14780 21b3 51       		.byte	0x51
 14781 21b4 01       		.uleb128 0x1
 14782 21b5 3A       		.byte	0x3a
 14783 21b6 0F       		.uleb128 0xf
 14784 21b7 01       		.uleb128 0x1
 14785 21b8 50       		.byte	0x50
 14786 21b9 02       		.uleb128 0x2
 14787 21ba 74       		.byte	0x74
 14788 21bb 00       		.sleb128 0
 14789 21bc 00       		.byte	0
 14790 21bd 0E       		.uleb128 0xe
 14791 21be B41E0000 		.4byte	.LVL395
 14792 21c2 553C0000 		.4byte	0x3c55
 14793 21c6 D7210000 		.4byte	0x21d7
 14794 21ca 0F       		.uleb128 0xf
 14795 21cb 01       		.uleb128 0x1
 14796 21cc 51       		.byte	0x51
 14797 21cd 01       		.uleb128 0x1
 14798 21ce 49       		.byte	0x49
 14799 21cf 0F       		.uleb128 0xf
 14800 21d0 01       		.uleb128 0x1
 14801 21d1 50       		.byte	0x50
 14802 21d2 03       		.uleb128 0x3
 14803 21d3 0A       		.byte	0xa
 14804 21d4 0001     		.2byte	0x100
 14805 21d6 00       		.byte	0
 14806 21d7 0E       		.uleb128 0xe
 14807 21d8 C01E0000 		.4byte	.LVL396
 14808 21dc 553C0000 		.4byte	0x3c55
 14809 21e0 F1210000 		.4byte	0x21f1
 14810 21e4 0F       		.uleb128 0xf
 14811 21e5 01       		.uleb128 0x1
 14812 21e6 51       		.byte	0x51
 14813 21e7 01       		.uleb128 0x1
 14814 21e8 49       		.byte	0x49
 14815 21e9 0F       		.uleb128 0xf
 14816 21ea 01       		.uleb128 0x1
 14817 21eb 50       		.byte	0x50
 14818 21ec 03       		.uleb128 0x3
 14819 21ed 0A       		.byte	0xa
 14820 21ee 5901     		.2byte	0x159
 14821 21f0 00       		.byte	0
 14822 21f1 0E       		.uleb128 0xe
 14823 21f2 C61E0000 		.4byte	.LVL397
 14824 21f6 6F3C0000 		.4byte	0x3c6f
 14825 21fa 05220000 		.4byte	0x2205
 14826 21fe 0F       		.uleb128 0xf
 14827 21ff 01       		.uleb128 0x1
 14828 2200 50       		.byte	0x50
 14829 2201 02       		.uleb128 0x2
 14830 2202 74       		.byte	0x74
 14831 2203 00       		.sleb128 0
ARM GAS  C:\Users\diego\AppData\Local\Temp\ccwBHTp3.s 			page 303


 14832 2204 00       		.byte	0
 14833 2205 0E       		.uleb128 0xe
 14834 2206 081F0000 		.4byte	.LVL398
 14835 220a 803C0000 		.4byte	0x3c80
 14836 220e 25220000 		.4byte	0x2225
 14837 2212 0F       		.uleb128 0xf
 14838 2213 01       		.uleb128 0x1
 14839 2214 52       		.byte	0x52
 14840 2215 03       		.uleb128 0x3
 14841 2216 91       		.byte	0x91
 14842 2217 B47F     		.sleb128 -76
 14843 2219 0F       		.uleb128 0xf
 14844 221a 01       		.uleb128 0x1
 14845 221b 51       		.byte	0x51
 14846 221c 02       		.uleb128 0x2
 14847 221d 91       		.byte	0x91
 14848 221e 44       		.sleb128 -60
 14849 221f 0F       		.uleb128 0xf
 14850 2220 01       		.uleb128 0x1
 14851 2221 50       		.byte	0x50
 14852 2222 01       		.uleb128 0x1
 14853 2223 32       		.byte	0x32
 14854 2224 00       		.byte	0
 14855 2225 0E       		.uleb128 0xe
 14856 2226 1E1F0000 		.4byte	.LVL399
 14857 222a 253C0000 		.4byte	0x3c25
 14858 222e 39220000 		.4byte	0x2239
 14859 2232 0F       		.uleb128 0xf
 14860 2233 01       		.uleb128 0x1
 14861 2234 50       		.byte	0x50
 14862 2235 02       		.uleb128 0x2
 14863 2236 74       		.byte	0x74
 14864 2237 00       		.sleb128 0
 14865 2238 00       		.byte	0
 14866 2239 0E       		.uleb128 0xe
 14867 223a 361F0000 		.4byte	.LVL400
 14868 223e 9B3C0000 		.4byte	0x3c9b
 14869 2242 56220000 		.4byte	0x2256
 14870 2246 0F       		.uleb128 0xf
 14871 2247 01       		.uleb128 0x1
 14872 2248 51       		.byte	0x51
 14873 2249 02       		.uleb128 0x2
 14874 224a 74       		.byte	0x74
 14875 224b 00       		.sleb128 0
 14876 224c 0F       		.uleb128 0xf
 14877 224d 01       		.uleb128 0x1
 14878 224e 50       		.byte	0x50
 14879 224f 05       		.uleb128 0x5
 14880 2250 03       		.byte	0x3
 14881 2251 00000000 		.4byte	resultado
 14882 2255 00       		.byte	0
 14883 2256 0E       		.uleb128 0xe
 14884 2257 481F0000 		.4byte	.LVL401
 14885 225b 0B3C0000 		.4byte	0x3c0b
 14886 225f 71220000 		.4byte	0x2271
 14887 2263 0F       		.uleb128 0xf
 14888 2264 01       		.uleb128 0x1
ARM GAS  C:\Users\diego\AppData\Local\Temp\ccwBHTp3.s 			page 304


 14889 2265 51       		.byte	0x51
 14890 2266 02       		.uleb128 0x2
 14891 2267 91       		.byte	0x91
 14892 2268 54       		.sleb128 -44
 14893 2269 0F       		.uleb128 0xf
 14894 226a 01       		.uleb128 0x1
 14895 226b 50       		.byte	0x50
 14896 226c 03       		.uleb128 0x3
 14897 226d 0A       		.byte	0xa
 14898 226e 0001     		.2byte	0x100
 14899 2270 00       		.byte	0
 14900 2271 0E       		.uleb128 0xe
 14901 2272 521F0000 		.4byte	.LVL402
 14902 2276 0B3C0000 		.4byte	0x3c0b
 14903 227a 8F220000 		.4byte	0x228f
 14904 227e 0F       		.uleb128 0xf
 14905 227f 01       		.uleb128 0x1
 14906 2280 51       		.byte	0x51
 14907 2281 05       		.uleb128 0x5
 14908 2282 03       		.byte	0x3
 14909 2283 00000000 		.4byte	resultado
 14910 2287 0F       		.uleb128 0xf
 14911 2288 01       		.uleb128 0x1
 14912 2289 50       		.byte	0x50
 14913 228a 03       		.uleb128 0x3
 14914 228b 0A       		.byte	0xa
 14915 228c 0D02     		.2byte	0x20d
 14916 228e 00       		.byte	0
 14917 228f 0E       		.uleb128 0xe
 14918 2290 5E1F0000 		.4byte	.LVL403
 14919 2294 0B3C0000 		.4byte	0x3c0b
 14920 2298 AA220000 		.4byte	0x22aa
 14921 229c 0F       		.uleb128 0xf
 14922 229d 01       		.uleb128 0x1
 14923 229e 51       		.byte	0x51
 14924 229f 02       		.uleb128 0x2
 14925 22a0 91       		.byte	0x91
 14926 22a1 54       		.sleb128 -44
 14927 22a2 0F       		.uleb128 0xf
 14928 22a3 01       		.uleb128 0x1
 14929 22a4 50       		.byte	0x50
 14930 22a5 03       		.uleb128 0x3
 14931 22a6 0A       		.byte	0xa
 14932 22a7 5901     		.2byte	0x159
 14933 22a9 00       		.byte	0
 14934 22aa 0E       		.uleb128 0xe
 14935 22ab 681F0000 		.4byte	.LVL404
 14936 22af 0B3C0000 		.4byte	0x3c0b
 14937 22b3 C8220000 		.4byte	0x22c8
 14938 22b7 0F       		.uleb128 0xf
 14939 22b8 01       		.uleb128 0x1
 14940 22b9 51       		.byte	0x51
 14941 22ba 05       		.uleb128 0x5
 14942 22bb 03       		.byte	0x3
 14943 22bc 00000000 		.4byte	resultado
 14944 22c0 0F       		.uleb128 0xf
 14945 22c1 01       		.uleb128 0x1
ARM GAS  C:\Users\diego\AppData\Local\Temp\ccwBHTp3.s 			page 305


 14946 22c2 50       		.byte	0x50
 14947 22c3 03       		.uleb128 0x3
 14948 22c4 0A       		.byte	0xa
 14949 22c5 4D02     		.2byte	0x24d
 14950 22c7 00       		.byte	0
 14951 22c8 0E       		.uleb128 0xe
 14952 22c9 AC1F0000 		.4byte	.LVL405
 14953 22cd 253C0000 		.4byte	0x3c25
 14954 22d1 DC220000 		.4byte	0x22dc
 14955 22d5 0F       		.uleb128 0xf
 14956 22d6 01       		.uleb128 0x1
 14957 22d7 50       		.byte	0x50
 14958 22d8 02       		.uleb128 0x2
 14959 22d9 74       		.byte	0x74
 14960 22da 00       		.sleb128 0
 14961 22db 00       		.byte	0
 14962 22dc 0E       		.uleb128 0xe
 14963 22dd C41F0000 		.4byte	.LVL406
 14964 22e1 253C0000 		.4byte	0x3c25
 14965 22e5 F5220000 		.4byte	0x22f5
 14966 22e9 0F       		.uleb128 0xf
 14967 22ea 01       		.uleb128 0x1
 14968 22eb 51       		.byte	0x51
 14969 22ec 01       		.uleb128 0x1
 14970 22ed 3A       		.byte	0x3a
 14971 22ee 0F       		.uleb128 0xf
 14972 22ef 01       		.uleb128 0x1
 14973 22f0 50       		.byte	0x50
 14974 22f1 02       		.uleb128 0x2
 14975 22f2 74       		.byte	0x74
 14976 22f3 00       		.sleb128 0
 14977 22f4 00       		.byte	0
 14978 22f5 0E       		.uleb128 0xe
 14979 22f6 0E200000 		.4byte	.LVL407
 14980 22fa 253C0000 		.4byte	0x3c25
 14981 22fe 09230000 		.4byte	0x2309
 14982 2302 0F       		.uleb128 0xf
 14983 2303 01       		.uleb128 0x1
 14984 2304 50       		.byte	0x50
 14985 2305 02       		.uleb128 0x2
 14986 2306 74       		.byte	0x74
 14987 2307 00       		.sleb128 0
 14988 2308 00       		.byte	0
 14989 2309 0E       		.uleb128 0xe
 14990 230a 26200000 		.4byte	.LVL408
 14991 230e 253C0000 		.4byte	0x3c25
 14992 2312 22230000 		.4byte	0x2322
 14993 2316 0F       		.uleb128 0xf
 14994 2317 01       		.uleb128 0x1
 14995 2318 51       		.byte	0x51
 14996 2319 01       		.uleb128 0x1
 14997 231a 3A       		.byte	0x3a
 14998 231b 0F       		.uleb128 0xf
 14999 231c 01       		.uleb128 0x1
 15000 231d 50       		.byte	0x50
 15001 231e 02       		.uleb128 0x2
 15002 231f 74       		.byte	0x74
ARM GAS  C:\Users\diego\AppData\Local\Temp\ccwBHTp3.s 			page 306


 15003 2320 00       		.sleb128 0
 15004 2321 00       		.byte	0
 15005 2322 0E       		.uleb128 0xe
 15006 2323 3A200000 		.4byte	.LVL409
 15007 2327 253C0000 		.4byte	0x3c25
 15008 232b 36230000 		.4byte	0x2336
 15009 232f 0F       		.uleb128 0xf
 15010 2330 01       		.uleb128 0x1
 15011 2331 50       		.byte	0x50
 15012 2332 02       		.uleb128 0x2
 15013 2333 74       		.byte	0x74
 15014 2334 00       		.sleb128 0
 15015 2335 00       		.byte	0
 15016 2336 0E       		.uleb128 0xe
 15017 2337 52200000 		.4byte	.LVL410
 15018 233b 253C0000 		.4byte	0x3c25
 15019 233f 4F230000 		.4byte	0x234f
 15020 2343 0F       		.uleb128 0xf
 15021 2344 01       		.uleb128 0x1
 15022 2345 51       		.byte	0x51
 15023 2346 01       		.uleb128 0x1
 15024 2347 3A       		.byte	0x3a
 15025 2348 0F       		.uleb128 0xf
 15026 2349 01       		.uleb128 0x1
 15027 234a 50       		.byte	0x50
 15028 234b 02       		.uleb128 0x2
 15029 234c 74       		.byte	0x74
 15030 234d 00       		.sleb128 0
 15031 234e 00       		.byte	0
 15032 234f 0E       		.uleb128 0xe
 15033 2350 5A200000 		.4byte	.LVL411
 15034 2354 3F3C0000 		.4byte	0x3c3f
 15035 2358 68230000 		.4byte	0x2368
 15036 235c 0F       		.uleb128 0xf
 15037 235d 01       		.uleb128 0x1
 15038 235e 51       		.byte	0x51
 15039 235f 02       		.uleb128 0x2
 15040 2360 74       		.byte	0x74
 15041 2361 00       		.sleb128 0
 15042 2362 0F       		.uleb128 0xf
 15043 2363 01       		.uleb128 0x1
 15044 2364 50       		.byte	0x50
 15045 2365 01       		.uleb128 0x1
 15046 2366 3C       		.byte	0x3c
 15047 2367 00       		.byte	0
 15048 2368 0E       		.uleb128 0xe
 15049 2369 6E200000 		.4byte	.LVL412
 15050 236d 253C0000 		.4byte	0x3c25
 15051 2371 7C230000 		.4byte	0x237c
 15052 2375 0F       		.uleb128 0xf
 15053 2376 01       		.uleb128 0x1
 15054 2377 50       		.byte	0x50
 15055 2378 02       		.uleb128 0x2
 15056 2379 74       		.byte	0x74
 15057 237a 00       		.sleb128 0
 15058 237b 00       		.byte	0
 15059 237c 0E       		.uleb128 0xe
ARM GAS  C:\Users\diego\AppData\Local\Temp\ccwBHTp3.s 			page 307


 15060 237d 86200000 		.4byte	.LVL413
 15061 2381 253C0000 		.4byte	0x3c25
 15062 2385 95230000 		.4byte	0x2395
 15063 2389 0F       		.uleb128 0xf
 15064 238a 01       		.uleb128 0x1
 15065 238b 51       		.byte	0x51
 15066 238c 01       		.uleb128 0x1
 15067 238d 3A       		.byte	0x3a
 15068 238e 0F       		.uleb128 0xf
 15069 238f 01       		.uleb128 0x1
 15070 2390 50       		.byte	0x50
 15071 2391 02       		.uleb128 0x2
 15072 2392 74       		.byte	0x74
 15073 2393 00       		.sleb128 0
 15074 2394 00       		.byte	0
 15075 2395 0E       		.uleb128 0xe
 15076 2396 98200000 		.4byte	.LVL414
 15077 239a 553C0000 		.4byte	0x3c55
 15078 239e AF230000 		.4byte	0x23af
 15079 23a2 0F       		.uleb128 0xf
 15080 23a3 01       		.uleb128 0x1
 15081 23a4 51       		.byte	0x51
 15082 23a5 01       		.uleb128 0x1
 15083 23a6 49       		.byte	0x49
 15084 23a7 0F       		.uleb128 0xf
 15085 23a8 01       		.uleb128 0x1
 15086 23a9 50       		.byte	0x50
 15087 23aa 03       		.uleb128 0x3
 15088 23ab 0A       		.byte	0xa
 15089 23ac 4804     		.2byte	0x448
 15090 23ae 00       		.byte	0
 15091 23af 0E       		.uleb128 0xe
 15092 23b0 A4200000 		.4byte	.LVL415
 15093 23b4 553C0000 		.4byte	0x3c55
 15094 23b8 C9230000 		.4byte	0x23c9
 15095 23bc 0F       		.uleb128 0xf
 15096 23bd 01       		.uleb128 0x1
 15097 23be 51       		.byte	0x51
 15098 23bf 01       		.uleb128 0x1
 15099 23c0 49       		.byte	0x49
 15100 23c1 0F       		.uleb128 0xf
 15101 23c2 01       		.uleb128 0x1
 15102 23c3 50       		.byte	0x50
 15103 23c4 03       		.uleb128 0x3
 15104 23c5 0A       		.byte	0xa
 15105 23c6 1E04     		.2byte	0x41e
 15106 23c8 00       		.byte	0
 15107 23c9 0E       		.uleb128 0xe
 15108 23ca AA200000 		.4byte	.LVL416
 15109 23ce 6F3C0000 		.4byte	0x3c6f
 15110 23d2 DD230000 		.4byte	0x23dd
 15111 23d6 0F       		.uleb128 0xf
 15112 23d7 01       		.uleb128 0x1
 15113 23d8 50       		.byte	0x50
 15114 23d9 02       		.uleb128 0x2
 15115 23da 74       		.byte	0x74
 15116 23db 00       		.sleb128 0
ARM GAS  C:\Users\diego\AppData\Local\Temp\ccwBHTp3.s 			page 308


 15117 23dc 00       		.byte	0
 15118 23dd 0E       		.uleb128 0xe
 15119 23de EC200000 		.4byte	.LVL417
 15120 23e2 803C0000 		.4byte	0x3c80
 15121 23e6 FD230000 		.4byte	0x23fd
 15122 23ea 0F       		.uleb128 0xf
 15123 23eb 01       		.uleb128 0x1
 15124 23ec 52       		.byte	0x52
 15125 23ed 03       		.uleb128 0x3
 15126 23ee 91       		.byte	0x91
 15127 23ef B47F     		.sleb128 -76
 15128 23f1 0F       		.uleb128 0xf
 15129 23f2 01       		.uleb128 0x1
 15130 23f3 51       		.byte	0x51
 15131 23f4 02       		.uleb128 0x2
 15132 23f5 91       		.byte	0x91
 15133 23f6 44       		.sleb128 -60
 15134 23f7 0F       		.uleb128 0xf
 15135 23f8 01       		.uleb128 0x1
 15136 23f9 50       		.byte	0x50
 15137 23fa 01       		.uleb128 0x1
 15138 23fb 32       		.byte	0x32
 15139 23fc 00       		.byte	0
 15140 23fd 0E       		.uleb128 0xe
 15141 23fe 02210000 		.4byte	.LVL418
 15142 2402 253C0000 		.4byte	0x3c25
 15143 2406 11240000 		.4byte	0x2411
 15144 240a 0F       		.uleb128 0xf
 15145 240b 01       		.uleb128 0x1
 15146 240c 50       		.byte	0x50
 15147 240d 02       		.uleb128 0x2
 15148 240e 74       		.byte	0x74
 15149 240f 00       		.sleb128 0
 15150 2410 00       		.byte	0
 15151 2411 0E       		.uleb128 0xe
 15152 2412 1A210000 		.4byte	.LVL419
 15153 2416 9B3C0000 		.4byte	0x3c9b
 15154 241a 2E240000 		.4byte	0x242e
 15155 241e 0F       		.uleb128 0xf
 15156 241f 01       		.uleb128 0x1
 15157 2420 51       		.byte	0x51
 15158 2421 02       		.uleb128 0x2
 15159 2422 74       		.byte	0x74
 15160 2423 00       		.sleb128 0
 15161 2424 0F       		.uleb128 0xf
 15162 2425 01       		.uleb128 0x1
 15163 2426 50       		.byte	0x50
 15164 2427 05       		.uleb128 0x5
 15165 2428 03       		.byte	0x3
 15166 2429 00000000 		.4byte	resultado
 15167 242d 00       		.byte	0
 15168 242e 0E       		.uleb128 0xe
 15169 242f 2C210000 		.4byte	.LVL420
 15170 2433 0B3C0000 		.4byte	0x3c0b
 15171 2437 49240000 		.4byte	0x2449
 15172 243b 0F       		.uleb128 0xf
 15173 243c 01       		.uleb128 0x1
ARM GAS  C:\Users\diego\AppData\Local\Temp\ccwBHTp3.s 			page 309


 15174 243d 51       		.byte	0x51
 15175 243e 02       		.uleb128 0x2
 15176 243f 91       		.byte	0x91
 15177 2440 54       		.sleb128 -44
 15178 2441 0F       		.uleb128 0xf
 15179 2442 01       		.uleb128 0x1
 15180 2443 50       		.byte	0x50
 15181 2444 03       		.uleb128 0x3
 15182 2445 0A       		.byte	0xa
 15183 2446 4804     		.2byte	0x448
 15184 2448 00       		.byte	0
 15185 2449 0E       		.uleb128 0xe
 15186 244a 36210000 		.4byte	.LVL421
 15187 244e 0B3C0000 		.4byte	0x3c0b
 15188 2452 67240000 		.4byte	0x2467
 15189 2456 0F       		.uleb128 0xf
 15190 2457 01       		.uleb128 0x1
 15191 2458 51       		.byte	0x51
 15192 2459 05       		.uleb128 0x5
 15193 245a 03       		.byte	0x3
 15194 245b 00000000 		.4byte	resultado
 15195 245f 0F       		.uleb128 0xf
 15196 2460 01       		.uleb128 0x1
 15197 2461 50       		.byte	0x50
 15198 2462 03       		.uleb128 0x3
 15199 2463 0A       		.byte	0xa
 15200 2464 0E04     		.2byte	0x40e
 15201 2466 00       		.byte	0
 15202 2467 0E       		.uleb128 0xe
 15203 2468 42210000 		.4byte	.LVL422
 15204 246c 0B3C0000 		.4byte	0x3c0b
 15205 2470 82240000 		.4byte	0x2482
 15206 2474 0F       		.uleb128 0xf
 15207 2475 01       		.uleb128 0x1
 15208 2476 51       		.byte	0x51
 15209 2477 02       		.uleb128 0x2
 15210 2478 91       		.byte	0x91
 15211 2479 54       		.sleb128 -44
 15212 247a 0F       		.uleb128 0xf
 15213 247b 01       		.uleb128 0x1
 15214 247c 50       		.byte	0x50
 15215 247d 03       		.uleb128 0x3
 15216 247e 0A       		.byte	0xa
 15217 247f 1E04     		.2byte	0x41e
 15218 2481 00       		.byte	0
 15219 2482 0E       		.uleb128 0xe
 15220 2483 4C210000 		.4byte	.LVL423
 15221 2487 0B3C0000 		.4byte	0x3c0b
 15222 248b A0240000 		.4byte	0x24a0
 15223 248f 0F       		.uleb128 0xf
 15224 2490 01       		.uleb128 0x1
 15225 2491 51       		.byte	0x51
 15226 2492 05       		.uleb128 0x5
 15227 2493 03       		.byte	0x3
 15228 2494 00000000 		.4byte	resultado
 15229 2498 0F       		.uleb128 0xf
 15230 2499 01       		.uleb128 0x1
ARM GAS  C:\Users\diego\AppData\Local\Temp\ccwBHTp3.s 			page 310


 15231 249a 50       		.byte	0x50
 15232 249b 03       		.uleb128 0x3
 15233 249c 0A       		.byte	0xa
 15234 249d 3904     		.2byte	0x439
 15235 249f 00       		.byte	0
 15236 24a0 10       		.uleb128 0x10
 15237 24a1 50210000 		.4byte	.LVL424
 15238 24a5 F93B0000 		.4byte	0x3bf9
 15239 24a9 0E       		.uleb128 0xe
 15240 24aa 88220000 		.4byte	.LVL425
 15241 24ae 253C0000 		.4byte	0x3c25
 15242 24b2 BD240000 		.4byte	0x24bd
 15243 24b6 0F       		.uleb128 0xf
 15244 24b7 01       		.uleb128 0x1
 15245 24b8 50       		.byte	0x50
 15246 24b9 02       		.uleb128 0x2
 15247 24ba 74       		.byte	0x74
 15248 24bb 00       		.sleb128 0
 15249 24bc 00       		.byte	0
 15250 24bd 0E       		.uleb128 0xe
 15251 24be E6220000 		.4byte	.LVL426
 15252 24c2 253C0000 		.4byte	0x3c25
 15253 24c6 D1240000 		.4byte	0x24d1
 15254 24ca 0F       		.uleb128 0xf
 15255 24cb 01       		.uleb128 0x1
 15256 24cc 50       		.byte	0x50
 15257 24cd 02       		.uleb128 0x2
 15258 24ce 74       		.byte	0x74
 15259 24cf 00       		.sleb128 0
 15260 24d0 00       		.byte	0
 15261 24d1 0E       		.uleb128 0xe
 15262 24d2 FE220000 		.4byte	.LVL427
 15263 24d6 253C0000 		.4byte	0x3c25
 15264 24da EA240000 		.4byte	0x24ea
 15265 24de 0F       		.uleb128 0xf
 15266 24df 01       		.uleb128 0x1
 15267 24e0 51       		.byte	0x51
 15268 24e1 01       		.uleb128 0x1
 15269 24e2 3A       		.byte	0x3a
 15270 24e3 0F       		.uleb128 0xf
 15271 24e4 01       		.uleb128 0x1
 15272 24e5 50       		.byte	0x50
 15273 24e6 02       		.uleb128 0x2
 15274 24e7 74       		.byte	0x74
 15275 24e8 00       		.sleb128 0
 15276 24e9 00       		.byte	0
 15277 24ea 0E       		.uleb128 0xe
 15278 24eb 12230000 		.4byte	.LVL428
 15279 24ef 253C0000 		.4byte	0x3c25
 15280 24f3 FE240000 		.4byte	0x24fe
 15281 24f7 0F       		.uleb128 0xf
 15282 24f8 01       		.uleb128 0x1
 15283 24f9 50       		.byte	0x50
 15284 24fa 02       		.uleb128 0x2
 15285 24fb 74       		.byte	0x74
 15286 24fc 00       		.sleb128 0
 15287 24fd 00       		.byte	0
ARM GAS  C:\Users\diego\AppData\Local\Temp\ccwBHTp3.s 			page 311


 15288 24fe 0E       		.uleb128 0xe
 15289 24ff 2A230000 		.4byte	.LVL429
 15290 2503 253C0000 		.4byte	0x3c25
 15291 2507 17250000 		.4byte	0x2517
 15292 250b 0F       		.uleb128 0xf
 15293 250c 01       		.uleb128 0x1
 15294 250d 51       		.byte	0x51
 15295 250e 01       		.uleb128 0x1
 15296 250f 3A       		.byte	0x3a
 15297 2510 0F       		.uleb128 0xf
 15298 2511 01       		.uleb128 0x1
 15299 2512 50       		.byte	0x50
 15300 2513 02       		.uleb128 0x2
 15301 2514 74       		.byte	0x74
 15302 2515 00       		.sleb128 0
 15303 2516 00       		.byte	0
 15304 2517 0E       		.uleb128 0xe
 15305 2518 32230000 		.4byte	.LVL430
 15306 251c 3F3C0000 		.4byte	0x3c3f
 15307 2520 30250000 		.4byte	0x2530
 15308 2524 0F       		.uleb128 0xf
 15309 2525 01       		.uleb128 0x1
 15310 2526 51       		.byte	0x51
 15311 2527 02       		.uleb128 0x2
 15312 2528 74       		.byte	0x74
 15313 2529 00       		.sleb128 0
 15314 252a 0F       		.uleb128 0xf
 15315 252b 01       		.uleb128 0x1
 15316 252c 50       		.byte	0x50
 15317 252d 01       		.uleb128 0x1
 15318 252e 3C       		.byte	0x3c
 15319 252f 00       		.byte	0
 15320 2530 0E       		.uleb128 0xe
 15321 2531 46230000 		.4byte	.LVL431
 15322 2535 253C0000 		.4byte	0x3c25
 15323 2539 44250000 		.4byte	0x2544
 15324 253d 0F       		.uleb128 0xf
 15325 253e 01       		.uleb128 0x1
 15326 253f 50       		.byte	0x50
 15327 2540 02       		.uleb128 0x2
 15328 2541 74       		.byte	0x74
 15329 2542 00       		.sleb128 0
 15330 2543 00       		.byte	0
 15331 2544 0E       		.uleb128 0xe
 15332 2545 5E230000 		.4byte	.LVL432
 15333 2549 253C0000 		.4byte	0x3c25
 15334 254d 5D250000 		.4byte	0x255d
 15335 2551 0F       		.uleb128 0xf
 15336 2552 01       		.uleb128 0x1
 15337 2553 51       		.byte	0x51
 15338 2554 01       		.uleb128 0x1
 15339 2555 3A       		.byte	0x3a
 15340 2556 0F       		.uleb128 0xf
 15341 2557 01       		.uleb128 0x1
 15342 2558 50       		.byte	0x50
 15343 2559 02       		.uleb128 0x2
 15344 255a 74       		.byte	0x74
ARM GAS  C:\Users\diego\AppData\Local\Temp\ccwBHTp3.s 			page 312


 15345 255b 00       		.sleb128 0
 15346 255c 00       		.byte	0
 15347 255d 0E       		.uleb128 0xe
 15348 255e 6E230000 		.4byte	.LVL433
 15349 2562 553C0000 		.4byte	0x3c55
 15350 2566 76250000 		.4byte	0x2576
 15351 256a 0F       		.uleb128 0xf
 15352 256b 01       		.uleb128 0x1
 15353 256c 51       		.byte	0x51
 15354 256d 01       		.uleb128 0x1
 15355 256e 49       		.byte	0x49
 15356 256f 0F       		.uleb128 0xf
 15357 2570 01       		.uleb128 0x1
 15358 2571 50       		.byte	0x50
 15359 2572 02       		.uleb128 0x2
 15360 2573 08       		.byte	0x8
 15361 2574 C0       		.byte	0xc0
 15362 2575 00       		.byte	0
 15363 2576 0E       		.uleb128 0xe
 15364 2577 7A230000 		.4byte	.LVL434
 15365 257b 553C0000 		.4byte	0x3c55
 15366 257f 90250000 		.4byte	0x2590
 15367 2583 0F       		.uleb128 0xf
 15368 2584 01       		.uleb128 0x1
 15369 2585 51       		.byte	0x51
 15370 2586 01       		.uleb128 0x1
 15371 2587 49       		.byte	0x49
 15372 2588 0F       		.uleb128 0xf
 15373 2589 01       		.uleb128 0x1
 15374 258a 50       		.byte	0x50
 15375 258b 03       		.uleb128 0x3
 15376 258c 0A       		.byte	0xa
 15377 258d 1901     		.2byte	0x119
 15378 258f 00       		.byte	0
 15379 2590 0E       		.uleb128 0xe
 15380 2591 80230000 		.4byte	.LVL435
 15381 2595 6F3C0000 		.4byte	0x3c6f
 15382 2599 A4250000 		.4byte	0x25a4
 15383 259d 0F       		.uleb128 0xf
 15384 259e 01       		.uleb128 0x1
 15385 259f 50       		.byte	0x50
 15386 25a0 02       		.uleb128 0x2
 15387 25a1 74       		.byte	0x74
 15388 25a2 00       		.sleb128 0
 15389 25a3 00       		.byte	0
 15390 25a4 0E       		.uleb128 0xe
 15391 25a5 C2230000 		.4byte	.LVL436
 15392 25a9 803C0000 		.4byte	0x3c80
 15393 25ad C4250000 		.4byte	0x25c4
 15394 25b1 0F       		.uleb128 0xf
 15395 25b2 01       		.uleb128 0x1
 15396 25b3 52       		.byte	0x52
 15397 25b4 03       		.uleb128 0x3
 15398 25b5 91       		.byte	0x91
 15399 25b6 B47F     		.sleb128 -76
 15400 25b8 0F       		.uleb128 0xf
 15401 25b9 01       		.uleb128 0x1
ARM GAS  C:\Users\diego\AppData\Local\Temp\ccwBHTp3.s 			page 313


 15402 25ba 51       		.byte	0x51
 15403 25bb 02       		.uleb128 0x2
 15404 25bc 91       		.byte	0x91
 15405 25bd 44       		.sleb128 -60
 15406 25be 0F       		.uleb128 0xf
 15407 25bf 01       		.uleb128 0x1
 15408 25c0 50       		.byte	0x50
 15409 25c1 01       		.uleb128 0x1
 15410 25c2 32       		.byte	0x32
 15411 25c3 00       		.byte	0
 15412 25c4 0E       		.uleb128 0xe
 15413 25c5 D8230000 		.4byte	.LVL437
 15414 25c9 253C0000 		.4byte	0x3c25
 15415 25cd D8250000 		.4byte	0x25d8
 15416 25d1 0F       		.uleb128 0xf
 15417 25d2 01       		.uleb128 0x1
 15418 25d3 50       		.byte	0x50
 15419 25d4 02       		.uleb128 0x2
 15420 25d5 74       		.byte	0x74
 15421 25d6 00       		.sleb128 0
 15422 25d7 00       		.byte	0
 15423 25d8 0E       		.uleb128 0xe
 15424 25d9 F0230000 		.4byte	.LVL438
 15425 25dd 9B3C0000 		.4byte	0x3c9b
 15426 25e1 F5250000 		.4byte	0x25f5
 15427 25e5 0F       		.uleb128 0xf
 15428 25e6 01       		.uleb128 0x1
 15429 25e7 51       		.byte	0x51
 15430 25e8 02       		.uleb128 0x2
 15431 25e9 74       		.byte	0x74
 15432 25ea 00       		.sleb128 0
 15433 25eb 0F       		.uleb128 0xf
 15434 25ec 01       		.uleb128 0x1
 15435 25ed 50       		.byte	0x50
 15436 25ee 05       		.uleb128 0x5
 15437 25ef 03       		.byte	0x3
 15438 25f0 00000000 		.4byte	resultado
 15439 25f4 00       		.byte	0
 15440 25f5 0E       		.uleb128 0xe
 15441 25f6 00240000 		.4byte	.LVL439
 15442 25fa 0B3C0000 		.4byte	0x3c0b
 15443 25fe 0F260000 		.4byte	0x260f
 15444 2602 0F       		.uleb128 0xf
 15445 2603 01       		.uleb128 0x1
 15446 2604 51       		.byte	0x51
 15447 2605 02       		.uleb128 0x2
 15448 2606 91       		.byte	0x91
 15449 2607 54       		.sleb128 -44
 15450 2608 0F       		.uleb128 0xf
 15451 2609 01       		.uleb128 0x1
 15452 260a 50       		.byte	0x50
 15453 260b 02       		.uleb128 0x2
 15454 260c 08       		.byte	0x8
 15455 260d C0       		.byte	0xc0
 15456 260e 00       		.byte	0
 15457 260f 0E       		.uleb128 0xe
 15458 2610 0A240000 		.4byte	.LVL440
ARM GAS  C:\Users\diego\AppData\Local\Temp\ccwBHTp3.s 			page 314


 15459 2614 0B3C0000 		.4byte	0x3c0b
 15460 2618 2D260000 		.4byte	0x262d
 15461 261c 0F       		.uleb128 0xf
 15462 261d 01       		.uleb128 0x1
 15463 261e 51       		.byte	0x51
 15464 261f 05       		.uleb128 0x5
 15465 2620 03       		.byte	0x3
 15466 2621 00000000 		.4byte	resultado
 15467 2625 0F       		.uleb128 0xf
 15468 2626 01       		.uleb128 0x1
 15469 2627 50       		.byte	0x50
 15470 2628 03       		.uleb128 0x3
 15471 2629 0A       		.byte	0xa
 15472 262a 0002     		.2byte	0x200
 15473 262c 00       		.byte	0
 15474 262d 0E       		.uleb128 0xe
 15475 262e 16240000 		.4byte	.LVL441
 15476 2632 0B3C0000 		.4byte	0x3c0b
 15477 2636 48260000 		.4byte	0x2648
 15478 263a 0F       		.uleb128 0xf
 15479 263b 01       		.uleb128 0x1
 15480 263c 51       		.byte	0x51
 15481 263d 02       		.uleb128 0x2
 15482 263e 91       		.byte	0x91
 15483 263f 54       		.sleb128 -44
 15484 2640 0F       		.uleb128 0xf
 15485 2641 01       		.uleb128 0x1
 15486 2642 50       		.byte	0x50
 15487 2643 03       		.uleb128 0x3
 15488 2644 0A       		.byte	0xa
 15489 2645 1901     		.2byte	0x119
 15490 2647 00       		.byte	0
 15491 2648 0E       		.uleb128 0xe
 15492 2649 20240000 		.4byte	.LVL442
 15493 264d 0B3C0000 		.4byte	0x3c0b
 15494 2651 66260000 		.4byte	0x2666
 15495 2655 0F       		.uleb128 0xf
 15496 2656 01       		.uleb128 0x1
 15497 2657 51       		.byte	0x51
 15498 2658 05       		.uleb128 0x5
 15499 2659 03       		.byte	0x3
 15500 265a 00000000 		.4byte	resultado
 15501 265e 0F       		.uleb128 0xf
 15502 265f 01       		.uleb128 0x1
 15503 2660 50       		.byte	0x50
 15504 2661 03       		.uleb128 0x3
 15505 2662 0A       		.byte	0xa
 15506 2663 2702     		.2byte	0x227
 15507 2665 00       		.byte	0
 15508 2666 0E       		.uleb128 0xe
 15509 2667 64240000 		.4byte	.LVL443
 15510 266b 253C0000 		.4byte	0x3c25
 15511 266f 7A260000 		.4byte	0x267a
 15512 2673 0F       		.uleb128 0xf
 15513 2674 01       		.uleb128 0x1
 15514 2675 50       		.byte	0x50
 15515 2676 02       		.uleb128 0x2
ARM GAS  C:\Users\diego\AppData\Local\Temp\ccwBHTp3.s 			page 315


 15516 2677 74       		.byte	0x74
 15517 2678 00       		.sleb128 0
 15518 2679 00       		.byte	0
 15519 267a 0E       		.uleb128 0xe
 15520 267b 7C240000 		.4byte	.LVL444
 15521 267f 253C0000 		.4byte	0x3c25
 15522 2683 93260000 		.4byte	0x2693
 15523 2687 0F       		.uleb128 0xf
 15524 2688 01       		.uleb128 0x1
 15525 2689 51       		.byte	0x51
 15526 268a 01       		.uleb128 0x1
 15527 268b 3A       		.byte	0x3a
 15528 268c 0F       		.uleb128 0xf
 15529 268d 01       		.uleb128 0x1
 15530 268e 50       		.byte	0x50
 15531 268f 02       		.uleb128 0x2
 15532 2690 74       		.byte	0x74
 15533 2691 00       		.sleb128 0
 15534 2692 00       		.byte	0
 15535 2693 0E       		.uleb128 0xe
 15536 2694 8E240000 		.4byte	.LVL445
 15537 2698 253C0000 		.4byte	0x3c25
 15538 269c A7260000 		.4byte	0x26a7
 15539 26a0 0F       		.uleb128 0xf
 15540 26a1 01       		.uleb128 0x1
 15541 26a2 50       		.byte	0x50
 15542 26a3 02       		.uleb128 0x2
 15543 26a4 74       		.byte	0x74
 15544 26a5 00       		.sleb128 0
 15545 26a6 00       		.byte	0
 15546 26a7 0E       		.uleb128 0xe
 15547 26a8 A6240000 		.4byte	.LVL446
 15548 26ac 253C0000 		.4byte	0x3c25
 15549 26b0 C0260000 		.4byte	0x26c0
 15550 26b4 0F       		.uleb128 0xf
 15551 26b5 01       		.uleb128 0x1
 15552 26b6 51       		.byte	0x51
 15553 26b7 01       		.uleb128 0x1
 15554 26b8 3A       		.byte	0x3a
 15555 26b9 0F       		.uleb128 0xf
 15556 26ba 01       		.uleb128 0x1
 15557 26bb 50       		.byte	0x50
 15558 26bc 02       		.uleb128 0x2
 15559 26bd 74       		.byte	0x74
 15560 26be 00       		.sleb128 0
 15561 26bf 00       		.byte	0
 15562 26c0 0E       		.uleb128 0xe
 15563 26c1 BA240000 		.4byte	.LVL447
 15564 26c5 253C0000 		.4byte	0x3c25
 15565 26c9 D4260000 		.4byte	0x26d4
 15566 26cd 0F       		.uleb128 0xf
 15567 26ce 01       		.uleb128 0x1
 15568 26cf 50       		.byte	0x50
 15569 26d0 02       		.uleb128 0x2
 15570 26d1 74       		.byte	0x74
 15571 26d2 00       		.sleb128 0
 15572 26d3 00       		.byte	0
ARM GAS  C:\Users\diego\AppData\Local\Temp\ccwBHTp3.s 			page 316


 15573 26d4 0E       		.uleb128 0xe
 15574 26d5 D2240000 		.4byte	.LVL448
 15575 26d9 253C0000 		.4byte	0x3c25
 15576 26dd ED260000 		.4byte	0x26ed
 15577 26e1 0F       		.uleb128 0xf
 15578 26e2 01       		.uleb128 0x1
 15579 26e3 51       		.byte	0x51
 15580 26e4 01       		.uleb128 0x1
 15581 26e5 3A       		.byte	0x3a
 15582 26e6 0F       		.uleb128 0xf
 15583 26e7 01       		.uleb128 0x1
 15584 26e8 50       		.byte	0x50
 15585 26e9 02       		.uleb128 0x2
 15586 26ea 74       		.byte	0x74
 15587 26eb 00       		.sleb128 0
 15588 26ec 00       		.byte	0
 15589 26ed 0E       		.uleb128 0xe
 15590 26ee DA240000 		.4byte	.LVL449
 15591 26f2 3F3C0000 		.4byte	0x3c3f
 15592 26f6 06270000 		.4byte	0x2706
 15593 26fa 0F       		.uleb128 0xf
 15594 26fb 01       		.uleb128 0x1
 15595 26fc 51       		.byte	0x51
 15596 26fd 02       		.uleb128 0x2
 15597 26fe 74       		.byte	0x74
 15598 26ff 00       		.sleb128 0
 15599 2700 0F       		.uleb128 0xf
 15600 2701 01       		.uleb128 0x1
 15601 2702 50       		.byte	0x50
 15602 2703 01       		.uleb128 0x1
 15603 2704 3C       		.byte	0x3c
 15604 2705 00       		.byte	0
 15605 2706 0E       		.uleb128 0xe
 15606 2707 EE240000 		.4byte	.LVL450
 15607 270b 253C0000 		.4byte	0x3c25
 15608 270f 1A270000 		.4byte	0x271a
 15609 2713 0F       		.uleb128 0xf
 15610 2714 01       		.uleb128 0x1
 15611 2715 50       		.byte	0x50
 15612 2716 02       		.uleb128 0x2
 15613 2717 74       		.byte	0x74
 15614 2718 00       		.sleb128 0
 15615 2719 00       		.byte	0
 15616 271a 0E       		.uleb128 0xe
 15617 271b 06250000 		.4byte	.LVL451
 15618 271f 253C0000 		.4byte	0x3c25
 15619 2723 33270000 		.4byte	0x2733
 15620 2727 0F       		.uleb128 0xf
 15621 2728 01       		.uleb128 0x1
 15622 2729 51       		.byte	0x51
 15623 272a 01       		.uleb128 0x1
 15624 272b 3A       		.byte	0x3a
 15625 272c 0F       		.uleb128 0xf
 15626 272d 01       		.uleb128 0x1
 15627 272e 50       		.byte	0x50
 15628 272f 02       		.uleb128 0x2
 15629 2730 74       		.byte	0x74
ARM GAS  C:\Users\diego\AppData\Local\Temp\ccwBHTp3.s 			page 317


 15630 2731 00       		.sleb128 0
 15631 2732 00       		.byte	0
 15632 2733 0E       		.uleb128 0xe
 15633 2734 16250000 		.4byte	.LVL452
 15634 2738 553C0000 		.4byte	0x3c55
 15635 273c 4C270000 		.4byte	0x274c
 15636 2740 0F       		.uleb128 0xf
 15637 2741 01       		.uleb128 0x1
 15638 2742 51       		.byte	0x51
 15639 2743 01       		.uleb128 0x1
 15640 2744 49       		.byte	0x49
 15641 2745 0F       		.uleb128 0xf
 15642 2746 01       		.uleb128 0x1
 15643 2747 50       		.byte	0x50
 15644 2748 02       		.uleb128 0x2
 15645 2749 08       		.byte	0x8
 15646 274a D9       		.byte	0xd9
 15647 274b 00       		.byte	0
 15648 274c 0E       		.uleb128 0xe
 15649 274d 22250000 		.4byte	.LVL453
 15650 2751 553C0000 		.4byte	0x3c55
 15651 2755 66270000 		.4byte	0x2766
 15652 2759 0F       		.uleb128 0xf
 15653 275a 01       		.uleb128 0x1
 15654 275b 51       		.byte	0x51
 15655 275c 01       		.uleb128 0x1
 15656 275d 49       		.byte	0x49
 15657 275e 0F       		.uleb128 0xf
 15658 275f 01       		.uleb128 0x1
 15659 2760 50       		.byte	0x50
 15660 2761 03       		.uleb128 0x3
 15661 2762 0A       		.byte	0xa
 15662 2763 4001     		.2byte	0x140
 15663 2765 00       		.byte	0
 15664 2766 0E       		.uleb128 0xe
 15665 2767 28250000 		.4byte	.LVL454
 15666 276b 6F3C0000 		.4byte	0x3c6f
 15667 276f 7A270000 		.4byte	0x277a
 15668 2773 0F       		.uleb128 0xf
 15669 2774 01       		.uleb128 0x1
 15670 2775 50       		.byte	0x50
 15671 2776 02       		.uleb128 0x2
 15672 2777 74       		.byte	0x74
 15673 2778 00       		.sleb128 0
 15674 2779 00       		.byte	0
 15675 277a 0E       		.uleb128 0xe
 15676 277b 6A250000 		.4byte	.LVL455
 15677 277f 803C0000 		.4byte	0x3c80
 15678 2783 9A270000 		.4byte	0x279a
 15679 2787 0F       		.uleb128 0xf
 15680 2788 01       		.uleb128 0x1
 15681 2789 52       		.byte	0x52
 15682 278a 03       		.uleb128 0x3
 15683 278b 91       		.byte	0x91
 15684 278c B47F     		.sleb128 -76
 15685 278e 0F       		.uleb128 0xf
 15686 278f 01       		.uleb128 0x1
ARM GAS  C:\Users\diego\AppData\Local\Temp\ccwBHTp3.s 			page 318


 15687 2790 51       		.byte	0x51
 15688 2791 02       		.uleb128 0x2
 15689 2792 91       		.byte	0x91
 15690 2793 44       		.sleb128 -60
 15691 2794 0F       		.uleb128 0xf
 15692 2795 01       		.uleb128 0x1
 15693 2796 50       		.byte	0x50
 15694 2797 01       		.uleb128 0x1
 15695 2798 32       		.byte	0x32
 15696 2799 00       		.byte	0
 15697 279a 0E       		.uleb128 0xe
 15698 279b B6250000 		.4byte	.LVL456
 15699 279f 253C0000 		.4byte	0x3c25
 15700 27a3 AE270000 		.4byte	0x27ae
 15701 27a7 0F       		.uleb128 0xf
 15702 27a8 01       		.uleb128 0x1
 15703 27a9 50       		.byte	0x50
 15704 27aa 02       		.uleb128 0x2
 15705 27ab 74       		.byte	0x74
 15706 27ac 00       		.sleb128 0
 15707 27ad 00       		.byte	0
 15708 27ae 0E       		.uleb128 0xe
 15709 27af CE250000 		.4byte	.LVL457
 15710 27b3 9B3C0000 		.4byte	0x3c9b
 15711 27b7 CB270000 		.4byte	0x27cb
 15712 27bb 0F       		.uleb128 0xf
 15713 27bc 01       		.uleb128 0x1
 15714 27bd 51       		.byte	0x51
 15715 27be 02       		.uleb128 0x2
 15716 27bf 74       		.byte	0x74
 15717 27c0 00       		.sleb128 0
 15718 27c1 0F       		.uleb128 0xf
 15719 27c2 01       		.uleb128 0x1
 15720 27c3 50       		.byte	0x50
 15721 27c4 05       		.uleb128 0x5
 15722 27c5 03       		.byte	0x3
 15723 27c6 00000000 		.4byte	resultado
 15724 27ca 00       		.byte	0
 15725 27cb 0E       		.uleb128 0xe
 15726 27cc DE250000 		.4byte	.LVL458
 15727 27d0 0B3C0000 		.4byte	0x3c0b
 15728 27d4 E5270000 		.4byte	0x27e5
 15729 27d8 0F       		.uleb128 0xf
 15730 27d9 01       		.uleb128 0x1
 15731 27da 51       		.byte	0x51
 15732 27db 02       		.uleb128 0x2
 15733 27dc 91       		.byte	0x91
 15734 27dd 54       		.sleb128 -44
 15735 27de 0F       		.uleb128 0xf
 15736 27df 01       		.uleb128 0x1
 15737 27e0 50       		.byte	0x50
 15738 27e1 02       		.uleb128 0x2
 15739 27e2 08       		.byte	0x8
 15740 27e3 D9       		.byte	0xd9
 15741 27e4 00       		.byte	0
 15742 27e5 0E       		.uleb128 0xe
 15743 27e6 E8250000 		.4byte	.LVL459
ARM GAS  C:\Users\diego\AppData\Local\Temp\ccwBHTp3.s 			page 319


 15744 27ea 0B3C0000 		.4byte	0x3c0b
 15745 27ee 03280000 		.4byte	0x2803
 15746 27f2 0F       		.uleb128 0xf
 15747 27f3 01       		.uleb128 0x1
 15748 27f4 51       		.byte	0x51
 15749 27f5 05       		.uleb128 0x5
 15750 27f6 03       		.byte	0x3
 15751 27f7 00000000 		.4byte	resultado
 15752 27fb 0F       		.uleb128 0xf
 15753 27fc 01       		.uleb128 0x1
 15754 27fd 50       		.byte	0x50
 15755 27fe 03       		.uleb128 0x3
 15756 27ff 0A       		.byte	0xa
 15757 2800 1A02     		.2byte	0x21a
 15758 2802 00       		.byte	0
 15759 2803 0E       		.uleb128 0xe
 15760 2804 F4250000 		.4byte	.LVL460
 15761 2808 0B3C0000 		.4byte	0x3c0b
 15762 280c 1E280000 		.4byte	0x281e
 15763 2810 0F       		.uleb128 0xf
 15764 2811 01       		.uleb128 0x1
 15765 2812 51       		.byte	0x51
 15766 2813 02       		.uleb128 0x2
 15767 2814 91       		.byte	0x91
 15768 2815 54       		.sleb128 -44
 15769 2816 0F       		.uleb128 0xf
 15770 2817 01       		.uleb128 0x1
 15771 2818 50       		.byte	0x50
 15772 2819 03       		.uleb128 0x3
 15773 281a 0A       		.byte	0xa
 15774 281b 4001     		.2byte	0x140
 15775 281d 00       		.byte	0
 15776 281e 0E       		.uleb128 0xe
 15777 281f FE250000 		.4byte	.LVL461
 15778 2823 0B3C0000 		.4byte	0x3c0b
 15779 2827 3C280000 		.4byte	0x283c
 15780 282b 0F       		.uleb128 0xf
 15781 282c 01       		.uleb128 0x1
 15782 282d 51       		.byte	0x51
 15783 282e 05       		.uleb128 0x5
 15784 282f 03       		.byte	0x3
 15785 2830 00000000 		.4byte	resultado
 15786 2834 0F       		.uleb128 0xf
 15787 2835 01       		.uleb128 0x1
 15788 2836 50       		.byte	0x50
 15789 2837 03       		.uleb128 0x3
 15790 2838 0A       		.byte	0xa
 15791 2839 4002     		.2byte	0x240
 15792 283b 00       		.byte	0
 15793 283c 0E       		.uleb128 0xe
 15794 283d 42260000 		.4byte	.LVL462
 15795 2841 253C0000 		.4byte	0x3c25
 15796 2845 50280000 		.4byte	0x2850
 15797 2849 0F       		.uleb128 0xf
 15798 284a 01       		.uleb128 0x1
 15799 284b 50       		.byte	0x50
 15800 284c 02       		.uleb128 0x2
ARM GAS  C:\Users\diego\AppData\Local\Temp\ccwBHTp3.s 			page 320


 15801 284d 74       		.byte	0x74
 15802 284e 00       		.sleb128 0
 15803 284f 00       		.byte	0
 15804 2850 0E       		.uleb128 0xe
 15805 2851 5A260000 		.4byte	.LVL463
 15806 2855 253C0000 		.4byte	0x3c25
 15807 2859 69280000 		.4byte	0x2869
 15808 285d 0F       		.uleb128 0xf
 15809 285e 01       		.uleb128 0x1
 15810 285f 51       		.byte	0x51
 15811 2860 01       		.uleb128 0x1
 15812 2861 3A       		.byte	0x3a
 15813 2862 0F       		.uleb128 0xf
 15814 2863 01       		.uleb128 0x1
 15815 2864 50       		.byte	0x50
 15816 2865 02       		.uleb128 0x2
 15817 2866 74       		.byte	0x74
 15818 2867 00       		.sleb128 0
 15819 2868 00       		.byte	0
 15820 2869 0E       		.uleb128 0xe
 15821 286a 6C260000 		.4byte	.LVL464
 15822 286e 253C0000 		.4byte	0x3c25
 15823 2872 7D280000 		.4byte	0x287d
 15824 2876 0F       		.uleb128 0xf
 15825 2877 01       		.uleb128 0x1
 15826 2878 50       		.byte	0x50
 15827 2879 02       		.uleb128 0x2
 15828 287a 74       		.byte	0x74
 15829 287b 00       		.sleb128 0
 15830 287c 00       		.byte	0
 15831 287d 0E       		.uleb128 0xe
 15832 287e 84260000 		.4byte	.LVL465
 15833 2882 253C0000 		.4byte	0x3c25
 15834 2886 96280000 		.4byte	0x2896
 15835 288a 0F       		.uleb128 0xf
 15836 288b 01       		.uleb128 0x1
 15837 288c 51       		.byte	0x51
 15838 288d 01       		.uleb128 0x1
 15839 288e 3A       		.byte	0x3a
 15840 288f 0F       		.uleb128 0xf
 15841 2890 01       		.uleb128 0x1
 15842 2891 50       		.byte	0x50
 15843 2892 02       		.uleb128 0x2
 15844 2893 74       		.byte	0x74
 15845 2894 00       		.sleb128 0
 15846 2895 00       		.byte	0
 15847 2896 0E       		.uleb128 0xe
 15848 2897 98260000 		.4byte	.LVL466
 15849 289b 253C0000 		.4byte	0x3c25
 15850 289f AA280000 		.4byte	0x28aa
 15851 28a3 0F       		.uleb128 0xf
 15852 28a4 01       		.uleb128 0x1
 15853 28a5 50       		.byte	0x50
 15854 28a6 02       		.uleb128 0x2
 15855 28a7 74       		.byte	0x74
 15856 28a8 00       		.sleb128 0
 15857 28a9 00       		.byte	0
ARM GAS  C:\Users\diego\AppData\Local\Temp\ccwBHTp3.s 			page 321


 15858 28aa 0E       		.uleb128 0xe
 15859 28ab B0260000 		.4byte	.LVL467
 15860 28af 253C0000 		.4byte	0x3c25
 15861 28b3 C3280000 		.4byte	0x28c3
 15862 28b7 0F       		.uleb128 0xf
 15863 28b8 01       		.uleb128 0x1
 15864 28b9 51       		.byte	0x51
 15865 28ba 01       		.uleb128 0x1
 15866 28bb 3A       		.byte	0x3a
 15867 28bc 0F       		.uleb128 0xf
 15868 28bd 01       		.uleb128 0x1
 15869 28be 50       		.byte	0x50
 15870 28bf 02       		.uleb128 0x2
 15871 28c0 74       		.byte	0x74
 15872 28c1 00       		.sleb128 0
 15873 28c2 00       		.byte	0
 15874 28c3 0E       		.uleb128 0xe
 15875 28c4 B8260000 		.4byte	.LVL468
 15876 28c8 3F3C0000 		.4byte	0x3c3f
 15877 28cc DC280000 		.4byte	0x28dc
 15878 28d0 0F       		.uleb128 0xf
 15879 28d1 01       		.uleb128 0x1
 15880 28d2 51       		.byte	0x51
 15881 28d3 02       		.uleb128 0x2
 15882 28d4 74       		.byte	0x74
 15883 28d5 00       		.sleb128 0
 15884 28d6 0F       		.uleb128 0xf
 15885 28d7 01       		.uleb128 0x1
 15886 28d8 50       		.byte	0x50
 15887 28d9 01       		.uleb128 0x1
 15888 28da 3C       		.byte	0x3c
 15889 28db 00       		.byte	0
 15890 28dc 0E       		.uleb128 0xe
 15891 28dd CC260000 		.4byte	.LVL469
 15892 28e1 253C0000 		.4byte	0x3c25
 15893 28e5 F0280000 		.4byte	0x28f0
 15894 28e9 0F       		.uleb128 0xf
 15895 28ea 01       		.uleb128 0x1
 15896 28eb 50       		.byte	0x50
 15897 28ec 02       		.uleb128 0x2
 15898 28ed 74       		.byte	0x74
 15899 28ee 00       		.sleb128 0
 15900 28ef 00       		.byte	0
 15901 28f0 0E       		.uleb128 0xe
 15902 28f1 E4260000 		.4byte	.LVL470
 15903 28f5 253C0000 		.4byte	0x3c25
 15904 28f9 09290000 		.4byte	0x2909
 15905 28fd 0F       		.uleb128 0xf
 15906 28fe 01       		.uleb128 0x1
 15907 28ff 51       		.byte	0x51
 15908 2900 01       		.uleb128 0x1
 15909 2901 3A       		.byte	0x3a
 15910 2902 0F       		.uleb128 0xf
 15911 2903 01       		.uleb128 0x1
 15912 2904 50       		.byte	0x50
 15913 2905 02       		.uleb128 0x2
 15914 2906 74       		.byte	0x74
ARM GAS  C:\Users\diego\AppData\Local\Temp\ccwBHTp3.s 			page 322


 15915 2907 00       		.sleb128 0
 15916 2908 00       		.byte	0
 15917 2909 0E       		.uleb128 0xe
 15918 290a F6260000 		.4byte	.LVL471
 15919 290e 553C0000 		.4byte	0x3c55
 15920 2912 23290000 		.4byte	0x2923
 15921 2916 0F       		.uleb128 0xf
 15922 2917 01       		.uleb128 0x1
 15923 2918 51       		.byte	0x51
 15924 2919 01       		.uleb128 0x1
 15925 291a 49       		.byte	0x49
 15926 291b 0F       		.uleb128 0xf
 15927 291c 01       		.uleb128 0x1
 15928 291d 50       		.byte	0x50
 15929 291e 03       		.uleb128 0x3
 15930 291f 0A       		.byte	0xa
 15931 2920 0001     		.2byte	0x100
 15932 2922 00       		.byte	0
 15933 2923 0E       		.uleb128 0xe
 15934 2924 02270000 		.4byte	.LVL472
 15935 2928 553C0000 		.4byte	0x3c55
 15936 292c 3D290000 		.4byte	0x293d
 15937 2930 0F       		.uleb128 0xf
 15938 2931 01       		.uleb128 0x1
 15939 2932 51       		.byte	0x51
 15940 2933 01       		.uleb128 0x1
 15941 2934 49       		.byte	0x49
 15942 2935 0F       		.uleb128 0xf
 15943 2936 01       		.uleb128 0x1
 15944 2937 50       		.byte	0x50
 15945 2938 03       		.uleb128 0x3
 15946 2939 0A       		.byte	0xa
 15947 293a 5901     		.2byte	0x159
 15948 293c 00       		.byte	0
 15949 293d 0E       		.uleb128 0xe
 15950 293e 08270000 		.4byte	.LVL473
 15951 2942 6F3C0000 		.4byte	0x3c6f
 15952 2946 51290000 		.4byte	0x2951
 15953 294a 0F       		.uleb128 0xf
 15954 294b 01       		.uleb128 0x1
 15955 294c 50       		.byte	0x50
 15956 294d 02       		.uleb128 0x2
 15957 294e 74       		.byte	0x74
 15958 294f 00       		.sleb128 0
 15959 2950 00       		.byte	0
 15960 2951 0E       		.uleb128 0xe
 15961 2952 4A270000 		.4byte	.LVL474
 15962 2956 803C0000 		.4byte	0x3c80
 15963 295a 71290000 		.4byte	0x2971
 15964 295e 0F       		.uleb128 0xf
 15965 295f 01       		.uleb128 0x1
 15966 2960 52       		.byte	0x52
 15967 2961 03       		.uleb128 0x3
 15968 2962 91       		.byte	0x91
 15969 2963 B47F     		.sleb128 -76
 15970 2965 0F       		.uleb128 0xf
 15971 2966 01       		.uleb128 0x1
ARM GAS  C:\Users\diego\AppData\Local\Temp\ccwBHTp3.s 			page 323


 15972 2967 51       		.byte	0x51
 15973 2968 02       		.uleb128 0x2
 15974 2969 91       		.byte	0x91
 15975 296a 44       		.sleb128 -60
 15976 296b 0F       		.uleb128 0xf
 15977 296c 01       		.uleb128 0x1
 15978 296d 50       		.byte	0x50
 15979 296e 01       		.uleb128 0x1
 15980 296f 32       		.byte	0x32
 15981 2970 00       		.byte	0
 15982 2971 0E       		.uleb128 0xe
 15983 2972 60270000 		.4byte	.LVL475
 15984 2976 253C0000 		.4byte	0x3c25
 15985 297a 85290000 		.4byte	0x2985
 15986 297e 0F       		.uleb128 0xf
 15987 297f 01       		.uleb128 0x1
 15988 2980 50       		.byte	0x50
 15989 2981 02       		.uleb128 0x2
 15990 2982 74       		.byte	0x74
 15991 2983 00       		.sleb128 0
 15992 2984 00       		.byte	0
 15993 2985 0E       		.uleb128 0xe
 15994 2986 78270000 		.4byte	.LVL476
 15995 298a 9B3C0000 		.4byte	0x3c9b
 15996 298e A2290000 		.4byte	0x29a2
 15997 2992 0F       		.uleb128 0xf
 15998 2993 01       		.uleb128 0x1
 15999 2994 51       		.byte	0x51
 16000 2995 02       		.uleb128 0x2
 16001 2996 74       		.byte	0x74
 16002 2997 00       		.sleb128 0
 16003 2998 0F       		.uleb128 0xf
 16004 2999 01       		.uleb128 0x1
 16005 299a 50       		.byte	0x50
 16006 299b 05       		.uleb128 0x5
 16007 299c 03       		.byte	0x3
 16008 299d 00000000 		.4byte	resultado
 16009 29a1 00       		.byte	0
 16010 29a2 0E       		.uleb128 0xe
 16011 29a3 8A270000 		.4byte	.LVL477
 16012 29a7 0B3C0000 		.4byte	0x3c0b
 16013 29ab BD290000 		.4byte	0x29bd
 16014 29af 0F       		.uleb128 0xf
 16015 29b0 01       		.uleb128 0x1
 16016 29b1 51       		.byte	0x51
 16017 29b2 02       		.uleb128 0x2
 16018 29b3 91       		.byte	0x91
 16019 29b4 54       		.sleb128 -44
 16020 29b5 0F       		.uleb128 0xf
 16021 29b6 01       		.uleb128 0x1
 16022 29b7 50       		.byte	0x50
 16023 29b8 03       		.uleb128 0x3
 16024 29b9 0A       		.byte	0xa
 16025 29ba 0001     		.2byte	0x100
 16026 29bc 00       		.byte	0
 16027 29bd 0E       		.uleb128 0xe
 16028 29be 94270000 		.4byte	.LVL478
ARM GAS  C:\Users\diego\AppData\Local\Temp\ccwBHTp3.s 			page 324


 16029 29c2 0B3C0000 		.4byte	0x3c0b
 16030 29c6 DB290000 		.4byte	0x29db
 16031 29ca 0F       		.uleb128 0xf
 16032 29cb 01       		.uleb128 0x1
 16033 29cc 51       		.byte	0x51
 16034 29cd 05       		.uleb128 0x5
 16035 29ce 03       		.byte	0x3
 16036 29cf 00000000 		.4byte	resultado
 16037 29d3 0F       		.uleb128 0xf
 16038 29d4 01       		.uleb128 0x1
 16039 29d5 50       		.byte	0x50
 16040 29d6 03       		.uleb128 0x3
 16041 29d7 0A       		.byte	0xa
 16042 29d8 0D02     		.2byte	0x20d
 16043 29da 00       		.byte	0
 16044 29db 0E       		.uleb128 0xe
 16045 29dc A0270000 		.4byte	.LVL479
 16046 29e0 0B3C0000 		.4byte	0x3c0b
 16047 29e4 F6290000 		.4byte	0x29f6
 16048 29e8 0F       		.uleb128 0xf
 16049 29e9 01       		.uleb128 0x1
 16050 29ea 51       		.byte	0x51
 16051 29eb 02       		.uleb128 0x2
 16052 29ec 91       		.byte	0x91
 16053 29ed 54       		.sleb128 -44
 16054 29ee 0F       		.uleb128 0xf
 16055 29ef 01       		.uleb128 0x1
 16056 29f0 50       		.byte	0x50
 16057 29f1 03       		.uleb128 0x3
 16058 29f2 0A       		.byte	0xa
 16059 29f3 5901     		.2byte	0x159
 16060 29f5 00       		.byte	0
 16061 29f6 0E       		.uleb128 0xe
 16062 29f7 AA270000 		.4byte	.LVL480
 16063 29fb 0B3C0000 		.4byte	0x3c0b
 16064 29ff 142A0000 		.4byte	0x2a14
 16065 2a03 0F       		.uleb128 0xf
 16066 2a04 01       		.uleb128 0x1
 16067 2a05 51       		.byte	0x51
 16068 2a06 05       		.uleb128 0x5
 16069 2a07 03       		.byte	0x3
 16070 2a08 00000000 		.4byte	resultado
 16071 2a0c 0F       		.uleb128 0xf
 16072 2a0d 01       		.uleb128 0x1
 16073 2a0e 50       		.byte	0x50
 16074 2a0f 03       		.uleb128 0x3
 16075 2a10 0A       		.byte	0xa
 16076 2a11 4D02     		.2byte	0x24d
 16077 2a13 00       		.byte	0
 16078 2a14 0E       		.uleb128 0xe
 16079 2a15 EE270000 		.4byte	.LVL481
 16080 2a19 253C0000 		.4byte	0x3c25
 16081 2a1d 282A0000 		.4byte	0x2a28
 16082 2a21 0F       		.uleb128 0xf
 16083 2a22 01       		.uleb128 0x1
 16084 2a23 50       		.byte	0x50
 16085 2a24 02       		.uleb128 0x2
ARM GAS  C:\Users\diego\AppData\Local\Temp\ccwBHTp3.s 			page 325


 16086 2a25 74       		.byte	0x74
 16087 2a26 00       		.sleb128 0
 16088 2a27 00       		.byte	0
 16089 2a28 0E       		.uleb128 0xe
 16090 2a29 06280000 		.4byte	.LVL482
 16091 2a2d 253C0000 		.4byte	0x3c25
 16092 2a31 412A0000 		.4byte	0x2a41
 16093 2a35 0F       		.uleb128 0xf
 16094 2a36 01       		.uleb128 0x1
 16095 2a37 51       		.byte	0x51
 16096 2a38 01       		.uleb128 0x1
 16097 2a39 3A       		.byte	0x3a
 16098 2a3a 0F       		.uleb128 0xf
 16099 2a3b 01       		.uleb128 0x1
 16100 2a3c 50       		.byte	0x50
 16101 2a3d 02       		.uleb128 0x2
 16102 2a3e 74       		.byte	0x74
 16103 2a3f 00       		.sleb128 0
 16104 2a40 00       		.byte	0
 16105 2a41 0E       		.uleb128 0xe
 16106 2a42 18280000 		.4byte	.LVL483
 16107 2a46 253C0000 		.4byte	0x3c25
 16108 2a4a 552A0000 		.4byte	0x2a55
 16109 2a4e 0F       		.uleb128 0xf
 16110 2a4f 01       		.uleb128 0x1
 16111 2a50 50       		.byte	0x50
 16112 2a51 02       		.uleb128 0x2
 16113 2a52 74       		.byte	0x74
 16114 2a53 00       		.sleb128 0
 16115 2a54 00       		.byte	0
 16116 2a55 0E       		.uleb128 0xe
 16117 2a56 30280000 		.4byte	.LVL484
 16118 2a5a 253C0000 		.4byte	0x3c25
 16119 2a5e 6E2A0000 		.4byte	0x2a6e
 16120 2a62 0F       		.uleb128 0xf
 16121 2a63 01       		.uleb128 0x1
 16122 2a64 51       		.byte	0x51
 16123 2a65 01       		.uleb128 0x1
 16124 2a66 3A       		.byte	0x3a
 16125 2a67 0F       		.uleb128 0xf
 16126 2a68 01       		.uleb128 0x1
 16127 2a69 50       		.byte	0x50
 16128 2a6a 02       		.uleb128 0x2
 16129 2a6b 74       		.byte	0x74
 16130 2a6c 00       		.sleb128 0
 16131 2a6d 00       		.byte	0
 16132 2a6e 0E       		.uleb128 0xe
 16133 2a6f 80280000 		.4byte	.LVL485
 16134 2a73 253C0000 		.4byte	0x3c25
 16135 2a77 822A0000 		.4byte	0x2a82
 16136 2a7b 0F       		.uleb128 0xf
 16137 2a7c 01       		.uleb128 0x1
 16138 2a7d 50       		.byte	0x50
 16139 2a7e 02       		.uleb128 0x2
 16140 2a7f 74       		.byte	0x74
 16141 2a80 00       		.sleb128 0
 16142 2a81 00       		.byte	0
ARM GAS  C:\Users\diego\AppData\Local\Temp\ccwBHTp3.s 			page 326


 16143 2a82 0E       		.uleb128 0xe
 16144 2a83 98280000 		.4byte	.LVL486
 16145 2a87 253C0000 		.4byte	0x3c25
 16146 2a8b 9B2A0000 		.4byte	0x2a9b
 16147 2a8f 0F       		.uleb128 0xf
 16148 2a90 01       		.uleb128 0x1
 16149 2a91 51       		.byte	0x51
 16150 2a92 01       		.uleb128 0x1
 16151 2a93 3A       		.byte	0x3a
 16152 2a94 0F       		.uleb128 0xf
 16153 2a95 01       		.uleb128 0x1
 16154 2a96 50       		.byte	0x50
 16155 2a97 02       		.uleb128 0x2
 16156 2a98 74       		.byte	0x74
 16157 2a99 00       		.sleb128 0
 16158 2a9a 00       		.byte	0
 16159 2a9b 0E       		.uleb128 0xe
 16160 2a9c A0280000 		.4byte	.LVL487
 16161 2aa0 3F3C0000 		.4byte	0x3c3f
 16162 2aa4 B42A0000 		.4byte	0x2ab4
 16163 2aa8 0F       		.uleb128 0xf
 16164 2aa9 01       		.uleb128 0x1
 16165 2aaa 51       		.byte	0x51
 16166 2aab 02       		.uleb128 0x2
 16167 2aac 74       		.byte	0x74
 16168 2aad 00       		.sleb128 0
 16169 2aae 0F       		.uleb128 0xf
 16170 2aaf 01       		.uleb128 0x1
 16171 2ab0 50       		.byte	0x50
 16172 2ab1 01       		.uleb128 0x1
 16173 2ab2 3C       		.byte	0x3c
 16174 2ab3 00       		.byte	0
 16175 2ab4 0E       		.uleb128 0xe
 16176 2ab5 B4280000 		.4byte	.LVL488
 16177 2ab9 253C0000 		.4byte	0x3c25
 16178 2abd C82A0000 		.4byte	0x2ac8
 16179 2ac1 0F       		.uleb128 0xf
 16180 2ac2 01       		.uleb128 0x1
 16181 2ac3 50       		.byte	0x50
 16182 2ac4 02       		.uleb128 0x2
 16183 2ac5 74       		.byte	0x74
 16184 2ac6 00       		.sleb128 0
 16185 2ac7 00       		.byte	0
 16186 2ac8 0E       		.uleb128 0xe
 16187 2ac9 CC280000 		.4byte	.LVL489
 16188 2acd 253C0000 		.4byte	0x3c25
 16189 2ad1 E12A0000 		.4byte	0x2ae1
 16190 2ad5 0F       		.uleb128 0xf
 16191 2ad6 01       		.uleb128 0x1
 16192 2ad7 51       		.byte	0x51
 16193 2ad8 01       		.uleb128 0x1
 16194 2ad9 3A       		.byte	0x3a
 16195 2ada 0F       		.uleb128 0xf
 16196 2adb 01       		.uleb128 0x1
 16197 2adc 50       		.byte	0x50
 16198 2add 02       		.uleb128 0x2
 16199 2ade 74       		.byte	0x74
ARM GAS  C:\Users\diego\AppData\Local\Temp\ccwBHTp3.s 			page 327


 16200 2adf 00       		.sleb128 0
 16201 2ae0 00       		.byte	0
 16202 2ae1 0E       		.uleb128 0xe
 16203 2ae2 DE280000 		.4byte	.LVL490
 16204 2ae6 553C0000 		.4byte	0x3c55
 16205 2aea FB2A0000 		.4byte	0x2afb
 16206 2aee 0F       		.uleb128 0xf
 16207 2aef 01       		.uleb128 0x1
 16208 2af0 51       		.byte	0x51
 16209 2af1 01       		.uleb128 0x1
 16210 2af2 49       		.byte	0x49
 16211 2af3 0F       		.uleb128 0xf
 16212 2af4 01       		.uleb128 0x1
 16213 2af5 50       		.byte	0x50
 16214 2af6 03       		.uleb128 0x3
 16215 2af7 0A       		.byte	0xa
 16216 2af8 4804     		.2byte	0x448
 16217 2afa 00       		.byte	0
 16218 2afb 0E       		.uleb128 0xe
 16219 2afc EA280000 		.4byte	.LVL491
 16220 2b00 553C0000 		.4byte	0x3c55
 16221 2b04 152B0000 		.4byte	0x2b15
 16222 2b08 0F       		.uleb128 0xf
 16223 2b09 01       		.uleb128 0x1
 16224 2b0a 51       		.byte	0x51
 16225 2b0b 01       		.uleb128 0x1
 16226 2b0c 49       		.byte	0x49
 16227 2b0d 0F       		.uleb128 0xf
 16228 2b0e 01       		.uleb128 0x1
 16229 2b0f 50       		.byte	0x50
 16230 2b10 03       		.uleb128 0x3
 16231 2b11 0A       		.byte	0xa
 16232 2b12 1E04     		.2byte	0x41e
 16233 2b14 00       		.byte	0
 16234 2b15 0E       		.uleb128 0xe
 16235 2b16 F0280000 		.4byte	.LVL492
 16236 2b1a 6F3C0000 		.4byte	0x3c6f
 16237 2b1e 292B0000 		.4byte	0x2b29
 16238 2b22 0F       		.uleb128 0xf
 16239 2b23 01       		.uleb128 0x1
 16240 2b24 50       		.byte	0x50
 16241 2b25 02       		.uleb128 0x2
 16242 2b26 74       		.byte	0x74
 16243 2b27 00       		.sleb128 0
 16244 2b28 00       		.byte	0
 16245 2b29 0E       		.uleb128 0xe
 16246 2b2a 32290000 		.4byte	.LVL493
 16247 2b2e 803C0000 		.4byte	0x3c80
 16248 2b32 492B0000 		.4byte	0x2b49
 16249 2b36 0F       		.uleb128 0xf
 16250 2b37 01       		.uleb128 0x1
 16251 2b38 52       		.byte	0x52
 16252 2b39 03       		.uleb128 0x3
 16253 2b3a 91       		.byte	0x91
 16254 2b3b B47F     		.sleb128 -76
 16255 2b3d 0F       		.uleb128 0xf
 16256 2b3e 01       		.uleb128 0x1
ARM GAS  C:\Users\diego\AppData\Local\Temp\ccwBHTp3.s 			page 328


 16257 2b3f 51       		.byte	0x51
 16258 2b40 02       		.uleb128 0x2
 16259 2b41 91       		.byte	0x91
 16260 2b42 44       		.sleb128 -60
 16261 2b43 0F       		.uleb128 0xf
 16262 2b44 01       		.uleb128 0x1
 16263 2b45 50       		.byte	0x50
 16264 2b46 01       		.uleb128 0x1
 16265 2b47 32       		.byte	0x32
 16266 2b48 00       		.byte	0
 16267 2b49 0E       		.uleb128 0xe
 16268 2b4a 48290000 		.4byte	.LVL494
 16269 2b4e 253C0000 		.4byte	0x3c25
 16270 2b52 5D2B0000 		.4byte	0x2b5d
 16271 2b56 0F       		.uleb128 0xf
 16272 2b57 01       		.uleb128 0x1
 16273 2b58 50       		.byte	0x50
 16274 2b59 02       		.uleb128 0x2
 16275 2b5a 74       		.byte	0x74
 16276 2b5b 00       		.sleb128 0
 16277 2b5c 00       		.byte	0
 16278 2b5d 0E       		.uleb128 0xe
 16279 2b5e 60290000 		.4byte	.LVL495
 16280 2b62 9B3C0000 		.4byte	0x3c9b
 16281 2b66 7A2B0000 		.4byte	0x2b7a
 16282 2b6a 0F       		.uleb128 0xf
 16283 2b6b 01       		.uleb128 0x1
 16284 2b6c 51       		.byte	0x51
 16285 2b6d 02       		.uleb128 0x2
 16286 2b6e 74       		.byte	0x74
 16287 2b6f 00       		.sleb128 0
 16288 2b70 0F       		.uleb128 0xf
 16289 2b71 01       		.uleb128 0x1
 16290 2b72 50       		.byte	0x50
 16291 2b73 05       		.uleb128 0x5
 16292 2b74 03       		.byte	0x3
 16293 2b75 00000000 		.4byte	resultado
 16294 2b79 00       		.byte	0
 16295 2b7a 0E       		.uleb128 0xe
 16296 2b7b 72290000 		.4byte	.LVL496
 16297 2b7f 0B3C0000 		.4byte	0x3c0b
 16298 2b83 952B0000 		.4byte	0x2b95
 16299 2b87 0F       		.uleb128 0xf
 16300 2b88 01       		.uleb128 0x1
 16301 2b89 51       		.byte	0x51
 16302 2b8a 02       		.uleb128 0x2
 16303 2b8b 91       		.byte	0x91
 16304 2b8c 54       		.sleb128 -44
 16305 2b8d 0F       		.uleb128 0xf
 16306 2b8e 01       		.uleb128 0x1
 16307 2b8f 50       		.byte	0x50
 16308 2b90 03       		.uleb128 0x3
 16309 2b91 0A       		.byte	0xa
 16310 2b92 4804     		.2byte	0x448
 16311 2b94 00       		.byte	0
 16312 2b95 0E       		.uleb128 0xe
 16313 2b96 7C290000 		.4byte	.LVL497
ARM GAS  C:\Users\diego\AppData\Local\Temp\ccwBHTp3.s 			page 329


 16314 2b9a 0B3C0000 		.4byte	0x3c0b
 16315 2b9e B32B0000 		.4byte	0x2bb3
 16316 2ba2 0F       		.uleb128 0xf
 16317 2ba3 01       		.uleb128 0x1
 16318 2ba4 51       		.byte	0x51
 16319 2ba5 05       		.uleb128 0x5
 16320 2ba6 03       		.byte	0x3
 16321 2ba7 00000000 		.4byte	resultado
 16322 2bab 0F       		.uleb128 0xf
 16323 2bac 01       		.uleb128 0x1
 16324 2bad 50       		.byte	0x50
 16325 2bae 03       		.uleb128 0x3
 16326 2baf 0A       		.byte	0xa
 16327 2bb0 0E04     		.2byte	0x40e
 16328 2bb2 00       		.byte	0
 16329 2bb3 0E       		.uleb128 0xe
 16330 2bb4 88290000 		.4byte	.LVL498
 16331 2bb8 0B3C0000 		.4byte	0x3c0b
 16332 2bbc CE2B0000 		.4byte	0x2bce
 16333 2bc0 0F       		.uleb128 0xf
 16334 2bc1 01       		.uleb128 0x1
 16335 2bc2 51       		.byte	0x51
 16336 2bc3 02       		.uleb128 0x2
 16337 2bc4 91       		.byte	0x91
 16338 2bc5 54       		.sleb128 -44
 16339 2bc6 0F       		.uleb128 0xf
 16340 2bc7 01       		.uleb128 0x1
 16341 2bc8 50       		.byte	0x50
 16342 2bc9 03       		.uleb128 0x3
 16343 2bca 0A       		.byte	0xa
 16344 2bcb 1E04     		.2byte	0x41e
 16345 2bcd 00       		.byte	0
 16346 2bce 0E       		.uleb128 0xe
 16347 2bcf 92290000 		.4byte	.LVL499
 16348 2bd3 0B3C0000 		.4byte	0x3c0b
 16349 2bd7 EC2B0000 		.4byte	0x2bec
 16350 2bdb 0F       		.uleb128 0xf
 16351 2bdc 01       		.uleb128 0x1
 16352 2bdd 51       		.byte	0x51
 16353 2bde 05       		.uleb128 0x5
 16354 2bdf 03       		.byte	0x3
 16355 2be0 00000000 		.4byte	resultado
 16356 2be4 0F       		.uleb128 0xf
 16357 2be5 01       		.uleb128 0x1
 16358 2be6 50       		.byte	0x50
 16359 2be7 03       		.uleb128 0x3
 16360 2be8 0A       		.byte	0xa
 16361 2be9 3904     		.2byte	0x439
 16362 2beb 00       		.byte	0
 16363 2bec 10       		.uleb128 0x10
 16364 2bed A8290000 		.4byte	.LVL500
 16365 2bf1 F93B0000 		.4byte	0x3bf9
 16366 2bf5 0E       		.uleb128 0xe
 16367 2bf6 E02A0000 		.4byte	.LVL501
 16368 2bfa 253C0000 		.4byte	0x3c25
 16369 2bfe 092C0000 		.4byte	0x2c09
 16370 2c02 0F       		.uleb128 0xf
ARM GAS  C:\Users\diego\AppData\Local\Temp\ccwBHTp3.s 			page 330


 16371 2c03 01       		.uleb128 0x1
 16372 2c04 50       		.byte	0x50
 16373 2c05 02       		.uleb128 0x2
 16374 2c06 74       		.byte	0x74
 16375 2c07 00       		.sleb128 0
 16376 2c08 00       		.byte	0
 16377 2c09 0E       		.uleb128 0xe
 16378 2c0a F82A0000 		.4byte	.LVL502
 16379 2c0e 253C0000 		.4byte	0x3c25
 16380 2c12 222C0000 		.4byte	0x2c22
 16381 2c16 0F       		.uleb128 0xf
 16382 2c17 01       		.uleb128 0x1
 16383 2c18 51       		.byte	0x51
 16384 2c19 01       		.uleb128 0x1
 16385 2c1a 3A       		.byte	0x3a
 16386 2c1b 0F       		.uleb128 0xf
 16387 2c1c 01       		.uleb128 0x1
 16388 2c1d 50       		.byte	0x50
 16389 2c1e 02       		.uleb128 0x2
 16390 2c1f 74       		.byte	0x74
 16391 2c20 00       		.sleb128 0
 16392 2c21 00       		.byte	0
 16393 2c22 0E       		.uleb128 0xe
 16394 2c23 0A2B0000 		.4byte	.LVL503
 16395 2c27 253C0000 		.4byte	0x3c25
 16396 2c2b 362C0000 		.4byte	0x2c36
 16397 2c2f 0F       		.uleb128 0xf
 16398 2c30 01       		.uleb128 0x1
 16399 2c31 50       		.byte	0x50
 16400 2c32 02       		.uleb128 0x2
 16401 2c33 74       		.byte	0x74
 16402 2c34 00       		.sleb128 0
 16403 2c35 00       		.byte	0
 16404 2c36 0E       		.uleb128 0xe
 16405 2c37 222B0000 		.4byte	.LVL504
 16406 2c3b 253C0000 		.4byte	0x3c25
 16407 2c3f 4F2C0000 		.4byte	0x2c4f
 16408 2c43 0F       		.uleb128 0xf
 16409 2c44 01       		.uleb128 0x1
 16410 2c45 51       		.byte	0x51
 16411 2c46 01       		.uleb128 0x1
 16412 2c47 3A       		.byte	0x3a
 16413 2c48 0F       		.uleb128 0xf
 16414 2c49 01       		.uleb128 0x1
 16415 2c4a 50       		.byte	0x50
 16416 2c4b 02       		.uleb128 0x2
 16417 2c4c 74       		.byte	0x74
 16418 2c4d 00       		.sleb128 0
 16419 2c4e 00       		.byte	0
 16420 2c4f 0E       		.uleb128 0xe
 16421 2c50 742B0000 		.4byte	.LVL505
 16422 2c54 253C0000 		.4byte	0x3c25
 16423 2c58 632C0000 		.4byte	0x2c63
 16424 2c5c 0F       		.uleb128 0xf
 16425 2c5d 01       		.uleb128 0x1
 16426 2c5e 50       		.byte	0x50
 16427 2c5f 02       		.uleb128 0x2
ARM GAS  C:\Users\diego\AppData\Local\Temp\ccwBHTp3.s 			page 331


 16428 2c60 74       		.byte	0x74
 16429 2c61 00       		.sleb128 0
 16430 2c62 00       		.byte	0
 16431 2c63 0E       		.uleb128 0xe
 16432 2c64 8C2B0000 		.4byte	.LVL506
 16433 2c68 253C0000 		.4byte	0x3c25
 16434 2c6c 7C2C0000 		.4byte	0x2c7c
 16435 2c70 0F       		.uleb128 0xf
 16436 2c71 01       		.uleb128 0x1
 16437 2c72 51       		.byte	0x51
 16438 2c73 01       		.uleb128 0x1
 16439 2c74 3A       		.byte	0x3a
 16440 2c75 0F       		.uleb128 0xf
 16441 2c76 01       		.uleb128 0x1
 16442 2c77 50       		.byte	0x50
 16443 2c78 02       		.uleb128 0x2
 16444 2c79 74       		.byte	0x74
 16445 2c7a 00       		.sleb128 0
 16446 2c7b 00       		.byte	0
 16447 2c7c 0E       		.uleb128 0xe
 16448 2c7d 942B0000 		.4byte	.LVL507
 16449 2c81 3F3C0000 		.4byte	0x3c3f
 16450 2c85 952C0000 		.4byte	0x2c95
 16451 2c89 0F       		.uleb128 0xf
 16452 2c8a 01       		.uleb128 0x1
 16453 2c8b 51       		.byte	0x51
 16454 2c8c 02       		.uleb128 0x2
 16455 2c8d 74       		.byte	0x74
 16456 2c8e 00       		.sleb128 0
 16457 2c8f 0F       		.uleb128 0xf
 16458 2c90 01       		.uleb128 0x1
 16459 2c91 50       		.byte	0x50
 16460 2c92 01       		.uleb128 0x1
 16461 2c93 3C       		.byte	0x3c
 16462 2c94 00       		.byte	0
 16463 2c95 0E       		.uleb128 0xe
 16464 2c96 A82B0000 		.4byte	.LVL508
 16465 2c9a 253C0000 		.4byte	0x3c25
 16466 2c9e A92C0000 		.4byte	0x2ca9
 16467 2ca2 0F       		.uleb128 0xf
 16468 2ca3 01       		.uleb128 0x1
 16469 2ca4 50       		.byte	0x50
 16470 2ca5 02       		.uleb128 0x2
 16471 2ca6 74       		.byte	0x74
 16472 2ca7 00       		.sleb128 0
 16473 2ca8 00       		.byte	0
 16474 2ca9 0E       		.uleb128 0xe
 16475 2caa C02B0000 		.4byte	.LVL509
 16476 2cae 253C0000 		.4byte	0x3c25
 16477 2cb2 C22C0000 		.4byte	0x2cc2
 16478 2cb6 0F       		.uleb128 0xf
 16479 2cb7 01       		.uleb128 0x1
 16480 2cb8 51       		.byte	0x51
 16481 2cb9 01       		.uleb128 0x1
 16482 2cba 3A       		.byte	0x3a
 16483 2cbb 0F       		.uleb128 0xf
 16484 2cbc 01       		.uleb128 0x1
ARM GAS  C:\Users\diego\AppData\Local\Temp\ccwBHTp3.s 			page 332


 16485 2cbd 50       		.byte	0x50
 16486 2cbe 02       		.uleb128 0x2
 16487 2cbf 74       		.byte	0x74
 16488 2cc0 00       		.sleb128 0
 16489 2cc1 00       		.byte	0
 16490 2cc2 0E       		.uleb128 0xe
 16491 2cc3 D02B0000 		.4byte	.LVL510
 16492 2cc7 553C0000 		.4byte	0x3c55
 16493 2ccb DB2C0000 		.4byte	0x2cdb
 16494 2ccf 0F       		.uleb128 0xf
 16495 2cd0 01       		.uleb128 0x1
 16496 2cd1 51       		.byte	0x51
 16497 2cd2 01       		.uleb128 0x1
 16498 2cd3 49       		.byte	0x49
 16499 2cd4 0F       		.uleb128 0xf
 16500 2cd5 01       		.uleb128 0x1
 16501 2cd6 50       		.byte	0x50
 16502 2cd7 02       		.uleb128 0x2
 16503 2cd8 08       		.byte	0x8
 16504 2cd9 C0       		.byte	0xc0
 16505 2cda 00       		.byte	0
 16506 2cdb 0E       		.uleb128 0xe
 16507 2cdc DC2B0000 		.4byte	.LVL511
 16508 2ce0 553C0000 		.4byte	0x3c55
 16509 2ce4 F52C0000 		.4byte	0x2cf5
 16510 2ce8 0F       		.uleb128 0xf
 16511 2ce9 01       		.uleb128 0x1
 16512 2cea 51       		.byte	0x51
 16513 2ceb 01       		.uleb128 0x1
 16514 2cec 49       		.byte	0x49
 16515 2ced 0F       		.uleb128 0xf
 16516 2cee 01       		.uleb128 0x1
 16517 2cef 50       		.byte	0x50
 16518 2cf0 03       		.uleb128 0x3
 16519 2cf1 0A       		.byte	0xa
 16520 2cf2 1901     		.2byte	0x119
 16521 2cf4 00       		.byte	0
 16522 2cf5 0E       		.uleb128 0xe
 16523 2cf6 E22B0000 		.4byte	.LVL512
 16524 2cfa 6F3C0000 		.4byte	0x3c6f
 16525 2cfe 092D0000 		.4byte	0x2d09
 16526 2d02 0F       		.uleb128 0xf
 16527 2d03 01       		.uleb128 0x1
 16528 2d04 50       		.byte	0x50
 16529 2d05 02       		.uleb128 0x2
 16530 2d06 74       		.byte	0x74
 16531 2d07 00       		.sleb128 0
 16532 2d08 00       		.byte	0
 16533 2d09 0E       		.uleb128 0xe
 16534 2d0a 242C0000 		.4byte	.LVL513
 16535 2d0e 803C0000 		.4byte	0x3c80
 16536 2d12 292D0000 		.4byte	0x2d29
 16537 2d16 0F       		.uleb128 0xf
 16538 2d17 01       		.uleb128 0x1
 16539 2d18 52       		.byte	0x52
 16540 2d19 03       		.uleb128 0x3
 16541 2d1a 91       		.byte	0x91
ARM GAS  C:\Users\diego\AppData\Local\Temp\ccwBHTp3.s 			page 333


 16542 2d1b B47F     		.sleb128 -76
 16543 2d1d 0F       		.uleb128 0xf
 16544 2d1e 01       		.uleb128 0x1
 16545 2d1f 51       		.byte	0x51
 16546 2d20 02       		.uleb128 0x2
 16547 2d21 91       		.byte	0x91
 16548 2d22 44       		.sleb128 -60
 16549 2d23 0F       		.uleb128 0xf
 16550 2d24 01       		.uleb128 0x1
 16551 2d25 50       		.byte	0x50
 16552 2d26 01       		.uleb128 0x1
 16553 2d27 32       		.byte	0x32
 16554 2d28 00       		.byte	0
 16555 2d29 0E       		.uleb128 0xe
 16556 2d2a 3A2C0000 		.4byte	.LVL514
 16557 2d2e 253C0000 		.4byte	0x3c25
 16558 2d32 3D2D0000 		.4byte	0x2d3d
 16559 2d36 0F       		.uleb128 0xf
 16560 2d37 01       		.uleb128 0x1
 16561 2d38 50       		.byte	0x50
 16562 2d39 02       		.uleb128 0x2
 16563 2d3a 74       		.byte	0x74
 16564 2d3b 00       		.sleb128 0
 16565 2d3c 00       		.byte	0
 16566 2d3d 0E       		.uleb128 0xe
 16567 2d3e 522C0000 		.4byte	.LVL515
 16568 2d42 9B3C0000 		.4byte	0x3c9b
 16569 2d46 5A2D0000 		.4byte	0x2d5a
 16570 2d4a 0F       		.uleb128 0xf
 16571 2d4b 01       		.uleb128 0x1
 16572 2d4c 51       		.byte	0x51
 16573 2d4d 02       		.uleb128 0x2
 16574 2d4e 74       		.byte	0x74
 16575 2d4f 00       		.sleb128 0
 16576 2d50 0F       		.uleb128 0xf
 16577 2d51 01       		.uleb128 0x1
 16578 2d52 50       		.byte	0x50
 16579 2d53 05       		.uleb128 0x5
 16580 2d54 03       		.byte	0x3
 16581 2d55 00000000 		.4byte	resultado
 16582 2d59 00       		.byte	0
 16583 2d5a 0E       		.uleb128 0xe
 16584 2d5b 622C0000 		.4byte	.LVL516
 16585 2d5f 0B3C0000 		.4byte	0x3c0b
 16586 2d63 742D0000 		.4byte	0x2d74
 16587 2d67 0F       		.uleb128 0xf
 16588 2d68 01       		.uleb128 0x1
 16589 2d69 51       		.byte	0x51
 16590 2d6a 02       		.uleb128 0x2
 16591 2d6b 91       		.byte	0x91
 16592 2d6c 54       		.sleb128 -44
 16593 2d6d 0F       		.uleb128 0xf
 16594 2d6e 01       		.uleb128 0x1
 16595 2d6f 50       		.byte	0x50
 16596 2d70 02       		.uleb128 0x2
 16597 2d71 08       		.byte	0x8
 16598 2d72 C0       		.byte	0xc0
ARM GAS  C:\Users\diego\AppData\Local\Temp\ccwBHTp3.s 			page 334


 16599 2d73 00       		.byte	0
 16600 2d74 0E       		.uleb128 0xe
 16601 2d75 6C2C0000 		.4byte	.LVL517
 16602 2d79 0B3C0000 		.4byte	0x3c0b
 16603 2d7d 922D0000 		.4byte	0x2d92
 16604 2d81 0F       		.uleb128 0xf
 16605 2d82 01       		.uleb128 0x1
 16606 2d83 51       		.byte	0x51
 16607 2d84 05       		.uleb128 0x5
 16608 2d85 03       		.byte	0x3
 16609 2d86 00000000 		.4byte	resultado
 16610 2d8a 0F       		.uleb128 0xf
 16611 2d8b 01       		.uleb128 0x1
 16612 2d8c 50       		.byte	0x50
 16613 2d8d 03       		.uleb128 0x3
 16614 2d8e 0A       		.byte	0xa
 16615 2d8f 0002     		.2byte	0x200
 16616 2d91 00       		.byte	0
 16617 2d92 0E       		.uleb128 0xe
 16618 2d93 782C0000 		.4byte	.LVL518
 16619 2d97 0B3C0000 		.4byte	0x3c0b
 16620 2d9b AD2D0000 		.4byte	0x2dad
 16621 2d9f 0F       		.uleb128 0xf
 16622 2da0 01       		.uleb128 0x1
 16623 2da1 51       		.byte	0x51
 16624 2da2 02       		.uleb128 0x2
 16625 2da3 91       		.byte	0x91
 16626 2da4 54       		.sleb128 -44
 16627 2da5 0F       		.uleb128 0xf
 16628 2da6 01       		.uleb128 0x1
 16629 2da7 50       		.byte	0x50
 16630 2da8 03       		.uleb128 0x3
 16631 2da9 0A       		.byte	0xa
 16632 2daa 1901     		.2byte	0x119
 16633 2dac 00       		.byte	0
 16634 2dad 0E       		.uleb128 0xe
 16635 2dae 822C0000 		.4byte	.LVL519
 16636 2db2 0B3C0000 		.4byte	0x3c0b
 16637 2db6 CB2D0000 		.4byte	0x2dcb
 16638 2dba 0F       		.uleb128 0xf
 16639 2dbb 01       		.uleb128 0x1
 16640 2dbc 51       		.byte	0x51
 16641 2dbd 05       		.uleb128 0x5
 16642 2dbe 03       		.byte	0x3
 16643 2dbf 00000000 		.4byte	resultado
 16644 2dc3 0F       		.uleb128 0xf
 16645 2dc4 01       		.uleb128 0x1
 16646 2dc5 50       		.byte	0x50
 16647 2dc6 03       		.uleb128 0x3
 16648 2dc7 0A       		.byte	0xa
 16649 2dc8 2702     		.2byte	0x227
 16650 2dca 00       		.byte	0
 16651 2dcb 0E       		.uleb128 0xe
 16652 2dcc C62C0000 		.4byte	.LVL520
 16653 2dd0 253C0000 		.4byte	0x3c25
 16654 2dd4 DF2D0000 		.4byte	0x2ddf
 16655 2dd8 0F       		.uleb128 0xf
ARM GAS  C:\Users\diego\AppData\Local\Temp\ccwBHTp3.s 			page 335


 16656 2dd9 01       		.uleb128 0x1
 16657 2dda 50       		.byte	0x50
 16658 2ddb 02       		.uleb128 0x2
 16659 2ddc 74       		.byte	0x74
 16660 2ddd 00       		.sleb128 0
 16661 2dde 00       		.byte	0
 16662 2ddf 0E       		.uleb128 0xe
 16663 2de0 DE2C0000 		.4byte	.LVL521
 16664 2de4 253C0000 		.4byte	0x3c25
 16665 2de8 F82D0000 		.4byte	0x2df8
 16666 2dec 0F       		.uleb128 0xf
 16667 2ded 01       		.uleb128 0x1
 16668 2dee 51       		.byte	0x51
 16669 2def 01       		.uleb128 0x1
 16670 2df0 3A       		.byte	0x3a
 16671 2df1 0F       		.uleb128 0xf
 16672 2df2 01       		.uleb128 0x1
 16673 2df3 50       		.byte	0x50
 16674 2df4 02       		.uleb128 0x2
 16675 2df5 74       		.byte	0x74
 16676 2df6 00       		.sleb128 0
 16677 2df7 00       		.byte	0
 16678 2df8 0E       		.uleb128 0xe
 16679 2df9 F02C0000 		.4byte	.LVL522
 16680 2dfd 253C0000 		.4byte	0x3c25
 16681 2e01 0C2E0000 		.4byte	0x2e0c
 16682 2e05 0F       		.uleb128 0xf
 16683 2e06 01       		.uleb128 0x1
 16684 2e07 50       		.byte	0x50
 16685 2e08 02       		.uleb128 0x2
 16686 2e09 74       		.byte	0x74
 16687 2e0a 00       		.sleb128 0
 16688 2e0b 00       		.byte	0
 16689 2e0c 0E       		.uleb128 0xe
 16690 2e0d 082D0000 		.4byte	.LVL523
 16691 2e11 253C0000 		.4byte	0x3c25
 16692 2e15 252E0000 		.4byte	0x2e25
 16693 2e19 0F       		.uleb128 0xf
 16694 2e1a 01       		.uleb128 0x1
 16695 2e1b 51       		.byte	0x51
 16696 2e1c 01       		.uleb128 0x1
 16697 2e1d 3A       		.byte	0x3a
 16698 2e1e 0F       		.uleb128 0xf
 16699 2e1f 01       		.uleb128 0x1
 16700 2e20 50       		.byte	0x50
 16701 2e21 02       		.uleb128 0x2
 16702 2e22 74       		.byte	0x74
 16703 2e23 00       		.sleb128 0
 16704 2e24 00       		.byte	0
 16705 2e25 0E       		.uleb128 0xe
 16706 2e26 1C2D0000 		.4byte	.LVL524
 16707 2e2a 253C0000 		.4byte	0x3c25
 16708 2e2e 392E0000 		.4byte	0x2e39
 16709 2e32 0F       		.uleb128 0xf
 16710 2e33 01       		.uleb128 0x1
 16711 2e34 50       		.byte	0x50
 16712 2e35 02       		.uleb128 0x2
ARM GAS  C:\Users\diego\AppData\Local\Temp\ccwBHTp3.s 			page 336


 16713 2e36 74       		.byte	0x74
 16714 2e37 00       		.sleb128 0
 16715 2e38 00       		.byte	0
 16716 2e39 0E       		.uleb128 0xe
 16717 2e3a 342D0000 		.4byte	.LVL525
 16718 2e3e 253C0000 		.4byte	0x3c25
 16719 2e42 522E0000 		.4byte	0x2e52
 16720 2e46 0F       		.uleb128 0xf
 16721 2e47 01       		.uleb128 0x1
 16722 2e48 51       		.byte	0x51
 16723 2e49 01       		.uleb128 0x1
 16724 2e4a 3A       		.byte	0x3a
 16725 2e4b 0F       		.uleb128 0xf
 16726 2e4c 01       		.uleb128 0x1
 16727 2e4d 50       		.byte	0x50
 16728 2e4e 02       		.uleb128 0x2
 16729 2e4f 74       		.byte	0x74
 16730 2e50 00       		.sleb128 0
 16731 2e51 00       		.byte	0
 16732 2e52 0E       		.uleb128 0xe
 16733 2e53 3C2D0000 		.4byte	.LVL526
 16734 2e57 3F3C0000 		.4byte	0x3c3f
 16735 2e5b 6B2E0000 		.4byte	0x2e6b
 16736 2e5f 0F       		.uleb128 0xf
 16737 2e60 01       		.uleb128 0x1
 16738 2e61 51       		.byte	0x51
 16739 2e62 02       		.uleb128 0x2
 16740 2e63 74       		.byte	0x74
 16741 2e64 00       		.sleb128 0
 16742 2e65 0F       		.uleb128 0xf
 16743 2e66 01       		.uleb128 0x1
 16744 2e67 50       		.byte	0x50
 16745 2e68 01       		.uleb128 0x1
 16746 2e69 3C       		.byte	0x3c
 16747 2e6a 00       		.byte	0
 16748 2e6b 0E       		.uleb128 0xe
 16749 2e6c 502D0000 		.4byte	.LVL527
 16750 2e70 253C0000 		.4byte	0x3c25
 16751 2e74 7F2E0000 		.4byte	0x2e7f
 16752 2e78 0F       		.uleb128 0xf
 16753 2e79 01       		.uleb128 0x1
 16754 2e7a 50       		.byte	0x50
 16755 2e7b 02       		.uleb128 0x2
 16756 2e7c 74       		.byte	0x74
 16757 2e7d 00       		.sleb128 0
 16758 2e7e 00       		.byte	0
 16759 2e7f 0E       		.uleb128 0xe
 16760 2e80 682D0000 		.4byte	.LVL528
 16761 2e84 253C0000 		.4byte	0x3c25
 16762 2e88 982E0000 		.4byte	0x2e98
 16763 2e8c 0F       		.uleb128 0xf
 16764 2e8d 01       		.uleb128 0x1
 16765 2e8e 51       		.byte	0x51
 16766 2e8f 01       		.uleb128 0x1
 16767 2e90 3A       		.byte	0x3a
 16768 2e91 0F       		.uleb128 0xf
 16769 2e92 01       		.uleb128 0x1
ARM GAS  C:\Users\diego\AppData\Local\Temp\ccwBHTp3.s 			page 337


 16770 2e93 50       		.byte	0x50
 16771 2e94 02       		.uleb128 0x2
 16772 2e95 74       		.byte	0x74
 16773 2e96 00       		.sleb128 0
 16774 2e97 00       		.byte	0
 16775 2e98 0E       		.uleb128 0xe
 16776 2e99 782D0000 		.4byte	.LVL529
 16777 2e9d 553C0000 		.4byte	0x3c55
 16778 2ea1 B12E0000 		.4byte	0x2eb1
 16779 2ea5 0F       		.uleb128 0xf
 16780 2ea6 01       		.uleb128 0x1
 16781 2ea7 51       		.byte	0x51
 16782 2ea8 01       		.uleb128 0x1
 16783 2ea9 49       		.byte	0x49
 16784 2eaa 0F       		.uleb128 0xf
 16785 2eab 01       		.uleb128 0x1
 16786 2eac 50       		.byte	0x50
 16787 2ead 02       		.uleb128 0x2
 16788 2eae 08       		.byte	0x8
 16789 2eaf D9       		.byte	0xd9
 16790 2eb0 00       		.byte	0
 16791 2eb1 0E       		.uleb128 0xe
 16792 2eb2 842D0000 		.4byte	.LVL530
 16793 2eb6 553C0000 		.4byte	0x3c55
 16794 2eba CB2E0000 		.4byte	0x2ecb
 16795 2ebe 0F       		.uleb128 0xf
 16796 2ebf 01       		.uleb128 0x1
 16797 2ec0 51       		.byte	0x51
 16798 2ec1 01       		.uleb128 0x1
 16799 2ec2 49       		.byte	0x49
 16800 2ec3 0F       		.uleb128 0xf
 16801 2ec4 01       		.uleb128 0x1
 16802 2ec5 50       		.byte	0x50
 16803 2ec6 03       		.uleb128 0x3
 16804 2ec7 0A       		.byte	0xa
 16805 2ec8 4001     		.2byte	0x140
 16806 2eca 00       		.byte	0
 16807 2ecb 0E       		.uleb128 0xe
 16808 2ecc 8A2D0000 		.4byte	.LVL531
 16809 2ed0 6F3C0000 		.4byte	0x3c6f
 16810 2ed4 DF2E0000 		.4byte	0x2edf
 16811 2ed8 0F       		.uleb128 0xf
 16812 2ed9 01       		.uleb128 0x1
 16813 2eda 50       		.byte	0x50
 16814 2edb 02       		.uleb128 0x2
 16815 2edc 74       		.byte	0x74
 16816 2edd 00       		.sleb128 0
 16817 2ede 00       		.byte	0
 16818 2edf 0E       		.uleb128 0xe
 16819 2ee0 CC2D0000 		.4byte	.LVL532
 16820 2ee4 803C0000 		.4byte	0x3c80
 16821 2ee8 FF2E0000 		.4byte	0x2eff
 16822 2eec 0F       		.uleb128 0xf
 16823 2eed 01       		.uleb128 0x1
 16824 2eee 52       		.byte	0x52
 16825 2eef 03       		.uleb128 0x3
 16826 2ef0 91       		.byte	0x91
ARM GAS  C:\Users\diego\AppData\Local\Temp\ccwBHTp3.s 			page 338


 16827 2ef1 B47F     		.sleb128 -76
 16828 2ef3 0F       		.uleb128 0xf
 16829 2ef4 01       		.uleb128 0x1
 16830 2ef5 51       		.byte	0x51
 16831 2ef6 02       		.uleb128 0x2
 16832 2ef7 91       		.byte	0x91
 16833 2ef8 44       		.sleb128 -60
 16834 2ef9 0F       		.uleb128 0xf
 16835 2efa 01       		.uleb128 0x1
 16836 2efb 50       		.byte	0x50
 16837 2efc 01       		.uleb128 0x1
 16838 2efd 32       		.byte	0x32
 16839 2efe 00       		.byte	0
 16840 2eff 0E       		.uleb128 0xe
 16841 2f00 E22D0000 		.4byte	.LVL533
 16842 2f04 253C0000 		.4byte	0x3c25
 16843 2f08 132F0000 		.4byte	0x2f13
 16844 2f0c 0F       		.uleb128 0xf
 16845 2f0d 01       		.uleb128 0x1
 16846 2f0e 50       		.byte	0x50
 16847 2f0f 02       		.uleb128 0x2
 16848 2f10 74       		.byte	0x74
 16849 2f11 00       		.sleb128 0
 16850 2f12 00       		.byte	0
 16851 2f13 0E       		.uleb128 0xe
 16852 2f14 FA2D0000 		.4byte	.LVL534
 16853 2f18 9B3C0000 		.4byte	0x3c9b
 16854 2f1c 302F0000 		.4byte	0x2f30
 16855 2f20 0F       		.uleb128 0xf
 16856 2f21 01       		.uleb128 0x1
 16857 2f22 51       		.byte	0x51
 16858 2f23 02       		.uleb128 0x2
 16859 2f24 74       		.byte	0x74
 16860 2f25 00       		.sleb128 0
 16861 2f26 0F       		.uleb128 0xf
 16862 2f27 01       		.uleb128 0x1
 16863 2f28 50       		.byte	0x50
 16864 2f29 05       		.uleb128 0x5
 16865 2f2a 03       		.byte	0x3
 16866 2f2b 00000000 		.4byte	resultado
 16867 2f2f 00       		.byte	0
 16868 2f30 0E       		.uleb128 0xe
 16869 2f31 0A2E0000 		.4byte	.LVL535
 16870 2f35 0B3C0000 		.4byte	0x3c0b
 16871 2f39 4A2F0000 		.4byte	0x2f4a
 16872 2f3d 0F       		.uleb128 0xf
 16873 2f3e 01       		.uleb128 0x1
 16874 2f3f 51       		.byte	0x51
 16875 2f40 02       		.uleb128 0x2
 16876 2f41 91       		.byte	0x91
 16877 2f42 54       		.sleb128 -44
 16878 2f43 0F       		.uleb128 0xf
 16879 2f44 01       		.uleb128 0x1
 16880 2f45 50       		.byte	0x50
 16881 2f46 02       		.uleb128 0x2
 16882 2f47 08       		.byte	0x8
 16883 2f48 D9       		.byte	0xd9
ARM GAS  C:\Users\diego\AppData\Local\Temp\ccwBHTp3.s 			page 339


 16884 2f49 00       		.byte	0
 16885 2f4a 0E       		.uleb128 0xe
 16886 2f4b 142E0000 		.4byte	.LVL536
 16887 2f4f 0B3C0000 		.4byte	0x3c0b
 16888 2f53 682F0000 		.4byte	0x2f68
 16889 2f57 0F       		.uleb128 0xf
 16890 2f58 01       		.uleb128 0x1
 16891 2f59 51       		.byte	0x51
 16892 2f5a 05       		.uleb128 0x5
 16893 2f5b 03       		.byte	0x3
 16894 2f5c 00000000 		.4byte	resultado
 16895 2f60 0F       		.uleb128 0xf
 16896 2f61 01       		.uleb128 0x1
 16897 2f62 50       		.byte	0x50
 16898 2f63 03       		.uleb128 0x3
 16899 2f64 0A       		.byte	0xa
 16900 2f65 1A02     		.2byte	0x21a
 16901 2f67 00       		.byte	0
 16902 2f68 0E       		.uleb128 0xe
 16903 2f69 522E0000 		.4byte	.LVL537
 16904 2f6d 0B3C0000 		.4byte	0x3c0b
 16905 2f71 832F0000 		.4byte	0x2f83
 16906 2f75 0F       		.uleb128 0xf
 16907 2f76 01       		.uleb128 0x1
 16908 2f77 51       		.byte	0x51
 16909 2f78 02       		.uleb128 0x2
 16910 2f79 91       		.byte	0x91
 16911 2f7a 54       		.sleb128 -44
 16912 2f7b 0F       		.uleb128 0xf
 16913 2f7c 01       		.uleb128 0x1
 16914 2f7d 50       		.byte	0x50
 16915 2f7e 03       		.uleb128 0x3
 16916 2f7f 0A       		.byte	0xa
 16917 2f80 4001     		.2byte	0x140
 16918 2f82 00       		.byte	0
 16919 2f83 0E       		.uleb128 0xe
 16920 2f84 5C2E0000 		.4byte	.LVL538
 16921 2f88 0B3C0000 		.4byte	0x3c0b
 16922 2f8c A12F0000 		.4byte	0x2fa1
 16923 2f90 0F       		.uleb128 0xf
 16924 2f91 01       		.uleb128 0x1
 16925 2f92 51       		.byte	0x51
 16926 2f93 05       		.uleb128 0x5
 16927 2f94 03       		.byte	0x3
 16928 2f95 00000000 		.4byte	resultado
 16929 2f99 0F       		.uleb128 0xf
 16930 2f9a 01       		.uleb128 0x1
 16931 2f9b 50       		.byte	0x50
 16932 2f9c 03       		.uleb128 0x3
 16933 2f9d 0A       		.byte	0xa
 16934 2f9e 4002     		.2byte	0x240
 16935 2fa0 00       		.byte	0
 16936 2fa1 0E       		.uleb128 0xe
 16937 2fa2 A02E0000 		.4byte	.LVL539
 16938 2fa6 253C0000 		.4byte	0x3c25
 16939 2faa B52F0000 		.4byte	0x2fb5
 16940 2fae 0F       		.uleb128 0xf
ARM GAS  C:\Users\diego\AppData\Local\Temp\ccwBHTp3.s 			page 340


 16941 2faf 01       		.uleb128 0x1
 16942 2fb0 50       		.byte	0x50
 16943 2fb1 02       		.uleb128 0x2
 16944 2fb2 74       		.byte	0x74
 16945 2fb3 00       		.sleb128 0
 16946 2fb4 00       		.byte	0
 16947 2fb5 0E       		.uleb128 0xe
 16948 2fb6 B82E0000 		.4byte	.LVL540
 16949 2fba 253C0000 		.4byte	0x3c25
 16950 2fbe CE2F0000 		.4byte	0x2fce
 16951 2fc2 0F       		.uleb128 0xf
 16952 2fc3 01       		.uleb128 0x1
 16953 2fc4 51       		.byte	0x51
 16954 2fc5 01       		.uleb128 0x1
 16955 2fc6 3A       		.byte	0x3a
 16956 2fc7 0F       		.uleb128 0xf
 16957 2fc8 01       		.uleb128 0x1
 16958 2fc9 50       		.byte	0x50
 16959 2fca 02       		.uleb128 0x2
 16960 2fcb 74       		.byte	0x74
 16961 2fcc 00       		.sleb128 0
 16962 2fcd 00       		.byte	0
 16963 2fce 0E       		.uleb128 0xe
 16964 2fcf CA2E0000 		.4byte	.LVL541
 16965 2fd3 253C0000 		.4byte	0x3c25
 16966 2fd7 E22F0000 		.4byte	0x2fe2
 16967 2fdb 0F       		.uleb128 0xf
 16968 2fdc 01       		.uleb128 0x1
 16969 2fdd 50       		.byte	0x50
 16970 2fde 02       		.uleb128 0x2
 16971 2fdf 74       		.byte	0x74
 16972 2fe0 00       		.sleb128 0
 16973 2fe1 00       		.byte	0
 16974 2fe2 0E       		.uleb128 0xe
 16975 2fe3 E22E0000 		.4byte	.LVL542
 16976 2fe7 253C0000 		.4byte	0x3c25
 16977 2feb FB2F0000 		.4byte	0x2ffb
 16978 2fef 0F       		.uleb128 0xf
 16979 2ff0 01       		.uleb128 0x1
 16980 2ff1 51       		.byte	0x51
 16981 2ff2 01       		.uleb128 0x1
 16982 2ff3 3A       		.byte	0x3a
 16983 2ff4 0F       		.uleb128 0xf
 16984 2ff5 01       		.uleb128 0x1
 16985 2ff6 50       		.byte	0x50
 16986 2ff7 02       		.uleb128 0x2
 16987 2ff8 74       		.byte	0x74
 16988 2ff9 00       		.sleb128 0
 16989 2ffa 00       		.byte	0
 16990 2ffb 0E       		.uleb128 0xe
 16991 2ffc F62E0000 		.4byte	.LVL543
 16992 3000 253C0000 		.4byte	0x3c25
 16993 3004 0F300000 		.4byte	0x300f
 16994 3008 0F       		.uleb128 0xf
 16995 3009 01       		.uleb128 0x1
 16996 300a 50       		.byte	0x50
 16997 300b 02       		.uleb128 0x2
ARM GAS  C:\Users\diego\AppData\Local\Temp\ccwBHTp3.s 			page 341


 16998 300c 74       		.byte	0x74
 16999 300d 00       		.sleb128 0
 17000 300e 00       		.byte	0
 17001 300f 0E       		.uleb128 0xe
 17002 3010 0E2F0000 		.4byte	.LVL544
 17003 3014 253C0000 		.4byte	0x3c25
 17004 3018 28300000 		.4byte	0x3028
 17005 301c 0F       		.uleb128 0xf
 17006 301d 01       		.uleb128 0x1
 17007 301e 51       		.byte	0x51
 17008 301f 01       		.uleb128 0x1
 17009 3020 3A       		.byte	0x3a
 17010 3021 0F       		.uleb128 0xf
 17011 3022 01       		.uleb128 0x1
 17012 3023 50       		.byte	0x50
 17013 3024 02       		.uleb128 0x2
 17014 3025 74       		.byte	0x74
 17015 3026 00       		.sleb128 0
 17016 3027 00       		.byte	0
 17017 3028 0E       		.uleb128 0xe
 17018 3029 162F0000 		.4byte	.LVL545
 17019 302d 3F3C0000 		.4byte	0x3c3f
 17020 3031 41300000 		.4byte	0x3041
 17021 3035 0F       		.uleb128 0xf
 17022 3036 01       		.uleb128 0x1
 17023 3037 51       		.byte	0x51
 17024 3038 02       		.uleb128 0x2
 17025 3039 74       		.byte	0x74
 17026 303a 00       		.sleb128 0
 17027 303b 0F       		.uleb128 0xf
 17028 303c 01       		.uleb128 0x1
 17029 303d 50       		.byte	0x50
 17030 303e 01       		.uleb128 0x1
 17031 303f 3C       		.byte	0x3c
 17032 3040 00       		.byte	0
 17033 3041 0E       		.uleb128 0xe
 17034 3042 2A2F0000 		.4byte	.LVL546
 17035 3046 253C0000 		.4byte	0x3c25
 17036 304a 55300000 		.4byte	0x3055
 17037 304e 0F       		.uleb128 0xf
 17038 304f 01       		.uleb128 0x1
 17039 3050 50       		.byte	0x50
 17040 3051 02       		.uleb128 0x2
 17041 3052 74       		.byte	0x74
 17042 3053 00       		.sleb128 0
 17043 3054 00       		.byte	0
 17044 3055 0E       		.uleb128 0xe
 17045 3056 422F0000 		.4byte	.LVL547
 17046 305a 253C0000 		.4byte	0x3c25
 17047 305e 6E300000 		.4byte	0x306e
 17048 3062 0F       		.uleb128 0xf
 17049 3063 01       		.uleb128 0x1
 17050 3064 51       		.byte	0x51
 17051 3065 01       		.uleb128 0x1
 17052 3066 3A       		.byte	0x3a
 17053 3067 0F       		.uleb128 0xf
 17054 3068 01       		.uleb128 0x1
ARM GAS  C:\Users\diego\AppData\Local\Temp\ccwBHTp3.s 			page 342


 17055 3069 50       		.byte	0x50
 17056 306a 02       		.uleb128 0x2
 17057 306b 74       		.byte	0x74
 17058 306c 00       		.sleb128 0
 17059 306d 00       		.byte	0
 17060 306e 0E       		.uleb128 0xe
 17061 306f 542F0000 		.4byte	.LVL548
 17062 3073 553C0000 		.4byte	0x3c55
 17063 3077 88300000 		.4byte	0x3088
 17064 307b 0F       		.uleb128 0xf
 17065 307c 01       		.uleb128 0x1
 17066 307d 51       		.byte	0x51
 17067 307e 01       		.uleb128 0x1
 17068 307f 49       		.byte	0x49
 17069 3080 0F       		.uleb128 0xf
 17070 3081 01       		.uleb128 0x1
 17071 3082 50       		.byte	0x50
 17072 3083 03       		.uleb128 0x3
 17073 3084 0A       		.byte	0xa
 17074 3085 0001     		.2byte	0x100
 17075 3087 00       		.byte	0
 17076 3088 0E       		.uleb128 0xe
 17077 3089 602F0000 		.4byte	.LVL549
 17078 308d 553C0000 		.4byte	0x3c55
 17079 3091 A2300000 		.4byte	0x30a2
 17080 3095 0F       		.uleb128 0xf
 17081 3096 01       		.uleb128 0x1
 17082 3097 51       		.byte	0x51
 17083 3098 01       		.uleb128 0x1
 17084 3099 49       		.byte	0x49
 17085 309a 0F       		.uleb128 0xf
 17086 309b 01       		.uleb128 0x1
 17087 309c 50       		.byte	0x50
 17088 309d 03       		.uleb128 0x3
 17089 309e 0A       		.byte	0xa
 17090 309f 5901     		.2byte	0x159
 17091 30a1 00       		.byte	0
 17092 30a2 0E       		.uleb128 0xe
 17093 30a3 662F0000 		.4byte	.LVL550
 17094 30a7 6F3C0000 		.4byte	0x3c6f
 17095 30ab B6300000 		.4byte	0x30b6
 17096 30af 0F       		.uleb128 0xf
 17097 30b0 01       		.uleb128 0x1
 17098 30b1 50       		.byte	0x50
 17099 30b2 02       		.uleb128 0x2
 17100 30b3 74       		.byte	0x74
 17101 30b4 00       		.sleb128 0
 17102 30b5 00       		.byte	0
 17103 30b6 0E       		.uleb128 0xe
 17104 30b7 A82F0000 		.4byte	.LVL551
 17105 30bb 803C0000 		.4byte	0x3c80
 17106 30bf D6300000 		.4byte	0x30d6
 17107 30c3 0F       		.uleb128 0xf
 17108 30c4 01       		.uleb128 0x1
 17109 30c5 52       		.byte	0x52
 17110 30c6 03       		.uleb128 0x3
 17111 30c7 91       		.byte	0x91
ARM GAS  C:\Users\diego\AppData\Local\Temp\ccwBHTp3.s 			page 343


 17112 30c8 B47F     		.sleb128 -76
 17113 30ca 0F       		.uleb128 0xf
 17114 30cb 01       		.uleb128 0x1
 17115 30cc 51       		.byte	0x51
 17116 30cd 02       		.uleb128 0x2
 17117 30ce 91       		.byte	0x91
 17118 30cf 44       		.sleb128 -60
 17119 30d0 0F       		.uleb128 0xf
 17120 30d1 01       		.uleb128 0x1
 17121 30d2 50       		.byte	0x50
 17122 30d3 01       		.uleb128 0x1
 17123 30d4 32       		.byte	0x32
 17124 30d5 00       		.byte	0
 17125 30d6 0E       		.uleb128 0xe
 17126 30d7 BE2F0000 		.4byte	.LVL552
 17127 30db 253C0000 		.4byte	0x3c25
 17128 30df EA300000 		.4byte	0x30ea
 17129 30e3 0F       		.uleb128 0xf
 17130 30e4 01       		.uleb128 0x1
 17131 30e5 50       		.byte	0x50
 17132 30e6 02       		.uleb128 0x2
 17133 30e7 74       		.byte	0x74
 17134 30e8 00       		.sleb128 0
 17135 30e9 00       		.byte	0
 17136 30ea 0E       		.uleb128 0xe
 17137 30eb D62F0000 		.4byte	.LVL553
 17138 30ef 9B3C0000 		.4byte	0x3c9b
 17139 30f3 07310000 		.4byte	0x3107
 17140 30f7 0F       		.uleb128 0xf
 17141 30f8 01       		.uleb128 0x1
 17142 30f9 51       		.byte	0x51
 17143 30fa 02       		.uleb128 0x2
 17144 30fb 74       		.byte	0x74
 17145 30fc 00       		.sleb128 0
 17146 30fd 0F       		.uleb128 0xf
 17147 30fe 01       		.uleb128 0x1
 17148 30ff 50       		.byte	0x50
 17149 3100 05       		.uleb128 0x5
 17150 3101 03       		.byte	0x3
 17151 3102 00000000 		.4byte	resultado
 17152 3106 00       		.byte	0
 17153 3107 0E       		.uleb128 0xe
 17154 3108 E82F0000 		.4byte	.LVL554
 17155 310c 0B3C0000 		.4byte	0x3c0b
 17156 3110 22310000 		.4byte	0x3122
 17157 3114 0F       		.uleb128 0xf
 17158 3115 01       		.uleb128 0x1
 17159 3116 51       		.byte	0x51
 17160 3117 02       		.uleb128 0x2
 17161 3118 91       		.byte	0x91
 17162 3119 54       		.sleb128 -44
 17163 311a 0F       		.uleb128 0xf
 17164 311b 01       		.uleb128 0x1
 17165 311c 50       		.byte	0x50
 17166 311d 03       		.uleb128 0x3
 17167 311e 0A       		.byte	0xa
 17168 311f 0001     		.2byte	0x100
ARM GAS  C:\Users\diego\AppData\Local\Temp\ccwBHTp3.s 			page 344


 17169 3121 00       		.byte	0
 17170 3122 0E       		.uleb128 0xe
 17171 3123 F22F0000 		.4byte	.LVL555
 17172 3127 0B3C0000 		.4byte	0x3c0b
 17173 312b 40310000 		.4byte	0x3140
 17174 312f 0F       		.uleb128 0xf
 17175 3130 01       		.uleb128 0x1
 17176 3131 51       		.byte	0x51
 17177 3132 05       		.uleb128 0x5
 17178 3133 03       		.byte	0x3
 17179 3134 00000000 		.4byte	resultado
 17180 3138 0F       		.uleb128 0xf
 17181 3139 01       		.uleb128 0x1
 17182 313a 50       		.byte	0x50
 17183 313b 03       		.uleb128 0x3
 17184 313c 0A       		.byte	0xa
 17185 313d 0D02     		.2byte	0x20d
 17186 313f 00       		.byte	0
 17187 3140 0E       		.uleb128 0xe
 17188 3141 FE2F0000 		.4byte	.LVL556
 17189 3145 0B3C0000 		.4byte	0x3c0b
 17190 3149 5B310000 		.4byte	0x315b
 17191 314d 0F       		.uleb128 0xf
 17192 314e 01       		.uleb128 0x1
 17193 314f 51       		.byte	0x51
 17194 3150 02       		.uleb128 0x2
 17195 3151 91       		.byte	0x91
 17196 3152 54       		.sleb128 -44
 17197 3153 0F       		.uleb128 0xf
 17198 3154 01       		.uleb128 0x1
 17199 3155 50       		.byte	0x50
 17200 3156 03       		.uleb128 0x3
 17201 3157 0A       		.byte	0xa
 17202 3158 5901     		.2byte	0x159
 17203 315a 00       		.byte	0
 17204 315b 0E       		.uleb128 0xe
 17205 315c 08300000 		.4byte	.LVL557
 17206 3160 0B3C0000 		.4byte	0x3c0b
 17207 3164 79310000 		.4byte	0x3179
 17208 3168 0F       		.uleb128 0xf
 17209 3169 01       		.uleb128 0x1
 17210 316a 51       		.byte	0x51
 17211 316b 05       		.uleb128 0x5
 17212 316c 03       		.byte	0x3
 17213 316d 00000000 		.4byte	resultado
 17214 3171 0F       		.uleb128 0xf
 17215 3172 01       		.uleb128 0x1
 17216 3173 50       		.byte	0x50
 17217 3174 03       		.uleb128 0x3
 17218 3175 0A       		.byte	0xa
 17219 3176 4D02     		.2byte	0x24d
 17220 3178 00       		.byte	0
 17221 3179 0E       		.uleb128 0xe
 17222 317a 4C300000 		.4byte	.LVL558
 17223 317e 253C0000 		.4byte	0x3c25
 17224 3182 8D310000 		.4byte	0x318d
 17225 3186 0F       		.uleb128 0xf
ARM GAS  C:\Users\diego\AppData\Local\Temp\ccwBHTp3.s 			page 345


 17226 3187 01       		.uleb128 0x1
 17227 3188 50       		.byte	0x50
 17228 3189 02       		.uleb128 0x2
 17229 318a 74       		.byte	0x74
 17230 318b 00       		.sleb128 0
 17231 318c 00       		.byte	0
 17232 318d 0E       		.uleb128 0xe
 17233 318e 64300000 		.4byte	.LVL559
 17234 3192 253C0000 		.4byte	0x3c25
 17235 3196 A6310000 		.4byte	0x31a6
 17236 319a 0F       		.uleb128 0xf
 17237 319b 01       		.uleb128 0x1
 17238 319c 51       		.byte	0x51
 17239 319d 01       		.uleb128 0x1
 17240 319e 3A       		.byte	0x3a
 17241 319f 0F       		.uleb128 0xf
 17242 31a0 01       		.uleb128 0x1
 17243 31a1 50       		.byte	0x50
 17244 31a2 02       		.uleb128 0x2
 17245 31a3 74       		.byte	0x74
 17246 31a4 00       		.sleb128 0
 17247 31a5 00       		.byte	0
 17248 31a6 0E       		.uleb128 0xe
 17249 31a7 76300000 		.4byte	.LVL560
 17250 31ab 253C0000 		.4byte	0x3c25
 17251 31af BA310000 		.4byte	0x31ba
 17252 31b3 0F       		.uleb128 0xf
 17253 31b4 01       		.uleb128 0x1
 17254 31b5 50       		.byte	0x50
 17255 31b6 02       		.uleb128 0x2
 17256 31b7 74       		.byte	0x74
 17257 31b8 00       		.sleb128 0
 17258 31b9 00       		.byte	0
 17259 31ba 0E       		.uleb128 0xe
 17260 31bb 8E300000 		.4byte	.LVL561
 17261 31bf 253C0000 		.4byte	0x3c25
 17262 31c3 D3310000 		.4byte	0x31d3
 17263 31c7 0F       		.uleb128 0xf
 17264 31c8 01       		.uleb128 0x1
 17265 31c9 51       		.byte	0x51
 17266 31ca 01       		.uleb128 0x1
 17267 31cb 3A       		.byte	0x3a
 17268 31cc 0F       		.uleb128 0xf
 17269 31cd 01       		.uleb128 0x1
 17270 31ce 50       		.byte	0x50
 17271 31cf 02       		.uleb128 0x2
 17272 31d0 74       		.byte	0x74
 17273 31d1 00       		.sleb128 0
 17274 31d2 00       		.byte	0
 17275 31d3 0E       		.uleb128 0xe
 17276 31d4 A2300000 		.4byte	.LVL562
 17277 31d8 253C0000 		.4byte	0x3c25
 17278 31dc E7310000 		.4byte	0x31e7
 17279 31e0 0F       		.uleb128 0xf
 17280 31e1 01       		.uleb128 0x1
 17281 31e2 50       		.byte	0x50
 17282 31e3 02       		.uleb128 0x2
ARM GAS  C:\Users\diego\AppData\Local\Temp\ccwBHTp3.s 			page 346


 17283 31e4 74       		.byte	0x74
 17284 31e5 00       		.sleb128 0
 17285 31e6 00       		.byte	0
 17286 31e7 0E       		.uleb128 0xe
 17287 31e8 BA300000 		.4byte	.LVL563
 17288 31ec 253C0000 		.4byte	0x3c25
 17289 31f0 00320000 		.4byte	0x3200
 17290 31f4 0F       		.uleb128 0xf
 17291 31f5 01       		.uleb128 0x1
 17292 31f6 51       		.byte	0x51
 17293 31f7 01       		.uleb128 0x1
 17294 31f8 3A       		.byte	0x3a
 17295 31f9 0F       		.uleb128 0xf
 17296 31fa 01       		.uleb128 0x1
 17297 31fb 50       		.byte	0x50
 17298 31fc 02       		.uleb128 0x2
 17299 31fd 74       		.byte	0x74
 17300 31fe 00       		.sleb128 0
 17301 31ff 00       		.byte	0
 17302 3200 0E       		.uleb128 0xe
 17303 3201 C2300000 		.4byte	.LVL564
 17304 3205 3F3C0000 		.4byte	0x3c3f
 17305 3209 19320000 		.4byte	0x3219
 17306 320d 0F       		.uleb128 0xf
 17307 320e 01       		.uleb128 0x1
 17308 320f 51       		.byte	0x51
 17309 3210 02       		.uleb128 0x2
 17310 3211 74       		.byte	0x74
 17311 3212 00       		.sleb128 0
 17312 3213 0F       		.uleb128 0xf
 17313 3214 01       		.uleb128 0x1
 17314 3215 50       		.byte	0x50
 17315 3216 01       		.uleb128 0x1
 17316 3217 3C       		.byte	0x3c
 17317 3218 00       		.byte	0
 17318 3219 0E       		.uleb128 0xe
 17319 321a D6300000 		.4byte	.LVL565
 17320 321e 253C0000 		.4byte	0x3c25
 17321 3222 2D320000 		.4byte	0x322d
 17322 3226 0F       		.uleb128 0xf
 17323 3227 01       		.uleb128 0x1
 17324 3228 50       		.byte	0x50
 17325 3229 02       		.uleb128 0x2
 17326 322a 74       		.byte	0x74
 17327 322b 00       		.sleb128 0
 17328 322c 00       		.byte	0
 17329 322d 0E       		.uleb128 0xe
 17330 322e EE300000 		.4byte	.LVL566
 17331 3232 253C0000 		.4byte	0x3c25
 17332 3236 46320000 		.4byte	0x3246
 17333 323a 0F       		.uleb128 0xf
 17334 323b 01       		.uleb128 0x1
 17335 323c 51       		.byte	0x51
 17336 323d 01       		.uleb128 0x1
 17337 323e 3A       		.byte	0x3a
 17338 323f 0F       		.uleb128 0xf
 17339 3240 01       		.uleb128 0x1
ARM GAS  C:\Users\diego\AppData\Local\Temp\ccwBHTp3.s 			page 347


 17340 3241 50       		.byte	0x50
 17341 3242 02       		.uleb128 0x2
 17342 3243 74       		.byte	0x74
 17343 3244 00       		.sleb128 0
 17344 3245 00       		.byte	0
 17345 3246 0E       		.uleb128 0xe
 17346 3247 00310000 		.4byte	.LVL567
 17347 324b 553C0000 		.4byte	0x3c55
 17348 324f 60320000 		.4byte	0x3260
 17349 3253 0F       		.uleb128 0xf
 17350 3254 01       		.uleb128 0x1
 17351 3255 51       		.byte	0x51
 17352 3256 01       		.uleb128 0x1
 17353 3257 49       		.byte	0x49
 17354 3258 0F       		.uleb128 0xf
 17355 3259 01       		.uleb128 0x1
 17356 325a 50       		.byte	0x50
 17357 325b 03       		.uleb128 0x3
 17358 325c 0A       		.byte	0xa
 17359 325d 4804     		.2byte	0x448
 17360 325f 00       		.byte	0
 17361 3260 0E       		.uleb128 0xe
 17362 3261 4A310000 		.4byte	.LVL568
 17363 3265 553C0000 		.4byte	0x3c55
 17364 3269 7A320000 		.4byte	0x327a
 17365 326d 0F       		.uleb128 0xf
 17366 326e 01       		.uleb128 0x1
 17367 326f 51       		.byte	0x51
 17368 3270 01       		.uleb128 0x1
 17369 3271 49       		.byte	0x49
 17370 3272 0F       		.uleb128 0xf
 17371 3273 01       		.uleb128 0x1
 17372 3274 50       		.byte	0x50
 17373 3275 03       		.uleb128 0x3
 17374 3276 0A       		.byte	0xa
 17375 3277 1E04     		.2byte	0x41e
 17376 3279 00       		.byte	0
 17377 327a 0E       		.uleb128 0xe
 17378 327b 50310000 		.4byte	.LVL569
 17379 327f 6F3C0000 		.4byte	0x3c6f
 17380 3283 8E320000 		.4byte	0x328e
 17381 3287 0F       		.uleb128 0xf
 17382 3288 01       		.uleb128 0x1
 17383 3289 50       		.byte	0x50
 17384 328a 02       		.uleb128 0x2
 17385 328b 74       		.byte	0x74
 17386 328c 00       		.sleb128 0
 17387 328d 00       		.byte	0
 17388 328e 0E       		.uleb128 0xe
 17389 328f 92310000 		.4byte	.LVL570
 17390 3293 803C0000 		.4byte	0x3c80
 17391 3297 AE320000 		.4byte	0x32ae
 17392 329b 0F       		.uleb128 0xf
 17393 329c 01       		.uleb128 0x1
 17394 329d 52       		.byte	0x52
 17395 329e 03       		.uleb128 0x3
 17396 329f 91       		.byte	0x91
ARM GAS  C:\Users\diego\AppData\Local\Temp\ccwBHTp3.s 			page 348


 17397 32a0 B47F     		.sleb128 -76
 17398 32a2 0F       		.uleb128 0xf
 17399 32a3 01       		.uleb128 0x1
 17400 32a4 51       		.byte	0x51
 17401 32a5 02       		.uleb128 0x2
 17402 32a6 91       		.byte	0x91
 17403 32a7 44       		.sleb128 -60
 17404 32a8 0F       		.uleb128 0xf
 17405 32a9 01       		.uleb128 0x1
 17406 32aa 50       		.byte	0x50
 17407 32ab 01       		.uleb128 0x1
 17408 32ac 32       		.byte	0x32
 17409 32ad 00       		.byte	0
 17410 32ae 0E       		.uleb128 0xe
 17411 32af A8310000 		.4byte	.LVL571
 17412 32b3 253C0000 		.4byte	0x3c25
 17413 32b7 C2320000 		.4byte	0x32c2
 17414 32bb 0F       		.uleb128 0xf
 17415 32bc 01       		.uleb128 0x1
 17416 32bd 50       		.byte	0x50
 17417 32be 02       		.uleb128 0x2
 17418 32bf 74       		.byte	0x74
 17419 32c0 00       		.sleb128 0
 17420 32c1 00       		.byte	0
 17421 32c2 0E       		.uleb128 0xe
 17422 32c3 C0310000 		.4byte	.LVL572
 17423 32c7 9B3C0000 		.4byte	0x3c9b
 17424 32cb DF320000 		.4byte	0x32df
 17425 32cf 0F       		.uleb128 0xf
 17426 32d0 01       		.uleb128 0x1
 17427 32d1 51       		.byte	0x51
 17428 32d2 02       		.uleb128 0x2
 17429 32d3 74       		.byte	0x74
 17430 32d4 00       		.sleb128 0
 17431 32d5 0F       		.uleb128 0xf
 17432 32d6 01       		.uleb128 0x1
 17433 32d7 50       		.byte	0x50
 17434 32d8 05       		.uleb128 0x5
 17435 32d9 03       		.byte	0x3
 17436 32da 00000000 		.4byte	resultado
 17437 32de 00       		.byte	0
 17438 32df 0E       		.uleb128 0xe
 17439 32e0 D2310000 		.4byte	.LVL573
 17440 32e4 0B3C0000 		.4byte	0x3c0b
 17441 32e8 FA320000 		.4byte	0x32fa
 17442 32ec 0F       		.uleb128 0xf
 17443 32ed 01       		.uleb128 0x1
 17444 32ee 51       		.byte	0x51
 17445 32ef 02       		.uleb128 0x2
 17446 32f0 91       		.byte	0x91
 17447 32f1 54       		.sleb128 -44
 17448 32f2 0F       		.uleb128 0xf
 17449 32f3 01       		.uleb128 0x1
 17450 32f4 50       		.byte	0x50
 17451 32f5 03       		.uleb128 0x3
 17452 32f6 0A       		.byte	0xa
 17453 32f7 4804     		.2byte	0x448
ARM GAS  C:\Users\diego\AppData\Local\Temp\ccwBHTp3.s 			page 349


 17454 32f9 00       		.byte	0
 17455 32fa 0E       		.uleb128 0xe
 17456 32fb DC310000 		.4byte	.LVL574
 17457 32ff 0B3C0000 		.4byte	0x3c0b
 17458 3303 18330000 		.4byte	0x3318
 17459 3307 0F       		.uleb128 0xf
 17460 3308 01       		.uleb128 0x1
 17461 3309 51       		.byte	0x51
 17462 330a 05       		.uleb128 0x5
 17463 330b 03       		.byte	0x3
 17464 330c 00000000 		.4byte	resultado
 17465 3310 0F       		.uleb128 0xf
 17466 3311 01       		.uleb128 0x1
 17467 3312 50       		.byte	0x50
 17468 3313 03       		.uleb128 0x3
 17469 3314 0A       		.byte	0xa
 17470 3315 0E04     		.2byte	0x40e
 17471 3317 00       		.byte	0
 17472 3318 0E       		.uleb128 0xe
 17473 3319 E8310000 		.4byte	.LVL575
 17474 331d 0B3C0000 		.4byte	0x3c0b
 17475 3321 33330000 		.4byte	0x3333
 17476 3325 0F       		.uleb128 0xf
 17477 3326 01       		.uleb128 0x1
 17478 3327 51       		.byte	0x51
 17479 3328 02       		.uleb128 0x2
 17480 3329 91       		.byte	0x91
 17481 332a 54       		.sleb128 -44
 17482 332b 0F       		.uleb128 0xf
 17483 332c 01       		.uleb128 0x1
 17484 332d 50       		.byte	0x50
 17485 332e 03       		.uleb128 0x3
 17486 332f 0A       		.byte	0xa
 17487 3330 1E04     		.2byte	0x41e
 17488 3332 00       		.byte	0
 17489 3333 0E       		.uleb128 0xe
 17490 3334 F2310000 		.4byte	.LVL576
 17491 3338 0B3C0000 		.4byte	0x3c0b
 17492 333c 51330000 		.4byte	0x3351
 17493 3340 0F       		.uleb128 0xf
 17494 3341 01       		.uleb128 0x1
 17495 3342 51       		.byte	0x51
 17496 3343 05       		.uleb128 0x5
 17497 3344 03       		.byte	0x3
 17498 3345 00000000 		.4byte	resultado
 17499 3349 0F       		.uleb128 0xf
 17500 334a 01       		.uleb128 0x1
 17501 334b 50       		.byte	0x50
 17502 334c 03       		.uleb128 0x3
 17503 334d 0A       		.byte	0xa
 17504 334e 3904     		.2byte	0x439
 17505 3350 00       		.byte	0
 17506 3351 10       		.uleb128 0x10
 17507 3352 08320000 		.4byte	.LVL577
 17508 3356 F93B0000 		.4byte	0x3bf9
 17509 335a 18       		.uleb128 0x18
 17510 335b 22320000 		.4byte	.LVL578
ARM GAS  C:\Users\diego\AppData\Local\Temp\ccwBHTp3.s 			page 350


 17511 335f 253C0000 		.4byte	0x3c25
 17512 3363 0F       		.uleb128 0xf
 17513 3364 01       		.uleb128 0x1
 17514 3365 50       		.byte	0x50
 17515 3366 02       		.uleb128 0x2
 17516 3367 74       		.byte	0x74
 17517 3368 00       		.sleb128 0
 17518 3369 00       		.byte	0
 17519 336a 00       		.byte	0
 17520 336b 09       		.uleb128 0x9
 17521 336c 81000000 		.4byte	0x81
 17522 3370 7B330000 		.4byte	0x337b
 17523 3374 0A       		.uleb128 0xa
 17524 3375 BA000000 		.4byte	0xba
 17525 3379 18       		.byte	0x18
 17526 337a 00       		.byte	0
 17527 337b 09       		.uleb128 0x9
 17528 337c 81000000 		.4byte	0x81
 17529 3380 8B330000 		.4byte	0x338b
 17530 3384 0A       		.uleb128 0xa
 17531 3385 BA000000 		.4byte	0xba
 17532 3389 0D       		.byte	0xd
 17533 338a 00       		.byte	0
 17534 338b 14       		.uleb128 0x14
 17535 338c 49050000 		.4byte	.LASF58
 17536 3390 01       		.byte	0x1
 17537 3391 5206     		.2byte	0x652
 17538 3393 81000000 		.4byte	0x81
 17539 3397 00000000 		.4byte	.LFB68
 17540 339b 84040000 		.4byte	.LFE68-.LFB68
 17541 339f 01       		.uleb128 0x1
 17542 33a0 9C       		.byte	0x9c
 17543 33a1 C7340000 		.4byte	0x34c7
 17544 33a5 15       		.uleb128 0x15
 17545 33a6 64697200 		.ascii	"dir\000"
 17546 33aa 01       		.byte	0x1
 17547 33ab 5206     		.2byte	0x652
 17548 33ad 81000000 		.4byte	0x81
 17549 33b1 AB020000 		.4byte	.LLST11
 17550 33b5 19       		.uleb128 0x19
 17551 33b6 DF060000 		.4byte	.LASF59
 17552 33ba 01       		.byte	0x1
 17553 33bb 5206     		.2byte	0x652
 17554 33bd 81000000 		.4byte	0x81
 17555 33c1 E5020000 		.4byte	.LLST12
 17556 33c5 19       		.uleb128 0x19
 17557 33c6 63060000 		.4byte	.LASF21
 17558 33ca 01       		.byte	0x1
 17559 33cb 5206     		.2byte	0x652
 17560 33cd C7340000 		.4byte	0x34c7
 17561 33d1 38030000 		.4byte	.LLST13
 17562 33d5 19       		.uleb128 0x19
 17563 33d6 A1010000 		.4byte	.LASF20
 17564 33da 01       		.byte	0x1
 17565 33db 5206     		.2byte	0x652
 17566 33dd 81000000 		.4byte	0x81
 17567 33e1 8B030000 		.4byte	.LLST14
ARM GAS  C:\Users\diego\AppData\Local\Temp\ccwBHTp3.s 			page 351


 17568 33e5 16       		.uleb128 0x16
 17569 33e6 2F000000 		.4byte	.LASF28
 17570 33ea 01       		.byte	0x1
 17571 33eb 5306     		.2byte	0x653
 17572 33ed CD340000 		.4byte	0x34cd
 17573 33f1 02       		.uleb128 0x2
 17574 33f2 91       		.byte	0x91
 17575 33f3 54       		.sleb128 -44
 17576 33f4 1A       		.uleb128 0x1a
 17577 33f5 0D040000 		.4byte	.LASF18
 17578 33f9 01       		.byte	0x1
 17579 33fa 5306     		.2byte	0x653
 17580 33fc 81000000 		.4byte	0x81
 17581 3400 DE030000 		.4byte	.LLST15
 17582 3404 1A       		.uleb128 0x1a
 17583 3405 03050000 		.4byte	.LASF60
 17584 3409 01       		.byte	0x1
 17585 340a 5306     		.2byte	0x653
 17586 340c 81000000 		.4byte	0x81
 17587 3410 66040000 		.4byte	.LLST16
 17588 3414 17       		.uleb128 0x17
 17589 3415 6900     		.ascii	"i\000"
 17590 3417 01       		.byte	0x1
 17591 3418 5306     		.2byte	0x653
 17592 341a 81000000 		.4byte	0x81
 17593 341e 90040000 		.4byte	.LLST17
 17594 3422 17       		.uleb128 0x17
 17595 3423 6A00     		.ascii	"j\000"
 17596 3425 01       		.byte	0x1
 17597 3426 5306     		.2byte	0x653
 17598 3428 81000000 		.4byte	0x81
 17599 342c 7C060000 		.4byte	.LLST18
 17600 3430 1A       		.uleb128 0x1a
 17601 3431 F6000000 		.4byte	.LASF61
 17602 3435 01       		.byte	0x1
 17603 3436 5306     		.2byte	0x653
 17604 3438 81000000 		.4byte	0x81
 17605 343c DC060000 		.4byte	.LLST19
 17606 3440 0E       		.uleb128 0xe
 17607 3441 22040000 		.4byte	.LVL680
 17608 3445 CC3B0000 		.4byte	0x3bcc
 17609 3449 57340000 		.4byte	0x3457
 17610 344d 0F       		.uleb128 0xf
 17611 344e 01       		.uleb128 0x1
 17612 344f 50       		.byte	0x50
 17613 3450 05       		.uleb128 0x5
 17614 3451 74       		.byte	0x74
 17615 3452 00       		.sleb128 0
 17616 3453 08       		.byte	0x8
 17617 3454 20       		.byte	0x20
 17618 3455 21       		.byte	0x21
 17619 3456 00       		.byte	0
 17620 3457 0E       		.uleb128 0xe
 17621 3458 28040000 		.4byte	.LVL681
 17622 345c DD3B0000 		.4byte	0x3bdd
 17623 3460 6B340000 		.4byte	0x346b
 17624 3464 0F       		.uleb128 0xf
ARM GAS  C:\Users\diego\AppData\Local\Temp\ccwBHTp3.s 			page 352


 17625 3465 01       		.uleb128 0x1
 17626 3466 50       		.byte	0x50
 17627 3467 02       		.uleb128 0x2
 17628 3468 08       		.byte	0x8
 17629 3469 32       		.byte	0x32
 17630 346a 00       		.byte	0
 17631 346b 10       		.uleb128 0x10
 17632 346c 2C040000 		.4byte	.LVL682
 17633 3470 EE3B0000 		.4byte	0x3bee
 17634 3474 10       		.uleb128 0x10
 17635 3475 32040000 		.4byte	.LVL683
 17636 3479 003C0000 		.4byte	0x3c00
 17637 347d 10       		.uleb128 0x10
 17638 347e 3E040000 		.4byte	.LVL684
 17639 3482 F93B0000 		.4byte	0x3bf9
 17640 3486 0E       		.uleb128 0xe
 17641 3487 4E040000 		.4byte	.LVL686
 17642 348b CC3B0000 		.4byte	0x3bcc
 17643 348f A2340000 		.4byte	0x34a2
 17644 3493 0F       		.uleb128 0xf
 17645 3494 01       		.uleb128 0x1
 17646 3495 50       		.byte	0x50
 17647 3496 0A       		.uleb128 0xa
 17648 3497 91       		.byte	0x91
 17649 3498 00       		.sleb128 0
 17650 3499 75       		.byte	0x75
 17651 349a 00       		.sleb128 0
 17652 349b 22       		.byte	0x22
 17653 349c 08       		.byte	0x8
 17654 349d 2C       		.byte	0x2c
 17655 349e 1C       		.byte	0x1c
 17656 349f 94       		.byte	0x94
 17657 34a0 01       		.byte	0x1
 17658 34a1 00       		.byte	0
 17659 34a2 0E       		.uleb128 0xe
 17660 34a3 5C040000 		.4byte	.LVL689
 17661 34a7 DD3B0000 		.4byte	0x3bdd
 17662 34ab B6340000 		.4byte	0x34b6
 17663 34af 0F       		.uleb128 0xf
 17664 34b0 01       		.uleb128 0x1
 17665 34b1 50       		.byte	0x50
 17666 34b2 02       		.uleb128 0x2
 17667 34b3 08       		.byte	0x8
 17668 34b4 32       		.byte	0x32
 17669 34b5 00       		.byte	0
 17670 34b6 18       		.uleb128 0x18
 17671 34b7 62040000 		.4byte	.LVL690
 17672 34bb B1030000 		.4byte	0x3b1
 17673 34bf 0F       		.uleb128 0xf
 17674 34c0 01       		.uleb128 0x1
 17675 34c1 50       		.byte	0x50
 17676 34c2 02       		.uleb128 0x2
 17677 34c3 74       		.byte	0x74
 17678 34c4 00       		.sleb128 0
 17679 34c5 00       		.byte	0
 17680 34c6 00       		.byte	0
 17681 34c7 1B       		.uleb128 0x1b
ARM GAS  C:\Users\diego\AppData\Local\Temp\ccwBHTp3.s 			page 353


 17682 34c8 04       		.byte	0x4
 17683 34c9 81000000 		.4byte	0x81
 17684 34cd 09       		.uleb128 0x9
 17685 34ce 81000000 		.4byte	0x81
 17686 34d2 DD340000 		.4byte	0x34dd
 17687 34d6 0A       		.uleb128 0xa
 17688 34d7 BA000000 		.4byte	0xba
 17689 34db 11       		.byte	0x11
 17690 34dc 00       		.byte	0
 17691 34dd 14       		.uleb128 0x14
 17692 34de D4030000 		.4byte	.LASF62
 17693 34e2 01       		.byte	0x1
 17694 34e3 0507     		.2byte	0x705
 17695 34e5 81000000 		.4byte	0x81
 17696 34e9 00000000 		.4byte	.LFB69
 17697 34ed C4020000 		.4byte	.LFE69-.LFB69
 17698 34f1 01       		.uleb128 0x1
 17699 34f2 9C       		.byte	0x9c
 17700 34f3 9A350000 		.4byte	0x359a
 17701 34f7 15       		.uleb128 0x15
 17702 34f8 64697200 		.ascii	"dir\000"
 17703 34fc 01       		.byte	0x1
 17704 34fd 0507     		.2byte	0x705
 17705 34ff 81000000 		.4byte	0x81
 17706 3503 32070000 		.4byte	.LLST20
 17707 3507 16       		.uleb128 0x16
 17708 3508 2F000000 		.4byte	.LASF28
 17709 350c 01       		.byte	0x1
 17710 350d 0607     		.2byte	0x706
 17711 350f CA020000 		.4byte	0x2ca
 17712 3513 02       		.uleb128 0x2
 17713 3514 91       		.byte	0x91
 17714 3515 60       		.sleb128 -32
 17715 3516 1A       		.uleb128 0x1a
 17716 3517 0D040000 		.4byte	.LASF18
 17717 351b 01       		.byte	0x1
 17718 351c 0607     		.2byte	0x706
 17719 351e 81000000 		.4byte	0x81
 17720 3522 53070000 		.4byte	.LLST21
 17721 3526 0E       		.uleb128 0xe
 17722 3527 46020000 		.4byte	.LVL702
 17723 352b CC3B0000 		.4byte	0x3bcc
 17724 352f 3D350000 		.4byte	0x353d
 17725 3533 0F       		.uleb128 0xf
 17726 3534 01       		.uleb128 0x1
 17727 3535 50       		.byte	0x50
 17728 3536 05       		.uleb128 0x5
 17729 3537 74       		.byte	0x74
 17730 3538 00       		.sleb128 0
 17731 3539 08       		.byte	0x8
 17732 353a 20       		.byte	0x20
 17733 353b 21       		.byte	0x21
 17734 353c 00       		.byte	0
 17735 353d 0E       		.uleb128 0xe
 17736 353e 4C020000 		.4byte	.LVL703
 17737 3542 DD3B0000 		.4byte	0x3bdd
 17738 3546 51350000 		.4byte	0x3551
ARM GAS  C:\Users\diego\AppData\Local\Temp\ccwBHTp3.s 			page 354


 17739 354a 0F       		.uleb128 0xf
 17740 354b 01       		.uleb128 0x1
 17741 354c 50       		.byte	0x50
 17742 354d 02       		.uleb128 0x2
 17743 354e 08       		.byte	0x8
 17744 354f 64       		.byte	0x64
 17745 3550 00       		.byte	0
 17746 3551 10       		.uleb128 0x10
 17747 3552 50020000 		.4byte	.LVL704
 17748 3556 EE3B0000 		.4byte	0x3bee
 17749 355a 10       		.uleb128 0x10
 17750 355b 56020000 		.4byte	.LVL705
 17751 355f 003C0000 		.4byte	0x3c00
 17752 3563 10       		.uleb128 0x10
 17753 3564 62020000 		.4byte	.LVL706
 17754 3568 F93B0000 		.4byte	0x3bf9
 17755 356c 10       		.uleb128 0x10
 17756 356d 76020000 		.4byte	.LVL707
 17757 3571 CC3B0000 		.4byte	0x3bcc
 17758 3575 0E       		.uleb128 0xe
 17759 3576 8C020000 		.4byte	.LVL708
 17760 357a DD3B0000 		.4byte	0x3bdd
 17761 357e 89350000 		.4byte	0x3589
 17762 3582 0F       		.uleb128 0xf
 17763 3583 01       		.uleb128 0x1
 17764 3584 50       		.byte	0x50
 17765 3585 02       		.uleb128 0x2
 17766 3586 08       		.byte	0x8
 17767 3587 32       		.byte	0x32
 17768 3588 00       		.byte	0
 17769 3589 18       		.uleb128 0x18
 17770 358a 92020000 		.4byte	.LVL709
 17771 358e B1030000 		.4byte	0x3b1
 17772 3592 0F       		.uleb128 0xf
 17773 3593 01       		.uleb128 0x1
 17774 3594 50       		.byte	0x50
 17775 3595 02       		.uleb128 0x2
 17776 3596 74       		.byte	0x74
 17777 3597 00       		.sleb128 0
 17778 3598 00       		.byte	0
 17779 3599 00       		.byte	0
 17780 359a 09       		.uleb128 0x9
 17781 359b 81000000 		.4byte	0x81
 17782 359f AA350000 		.4byte	0x35aa
 17783 35a3 0A       		.uleb128 0xa
 17784 35a4 BA000000 		.4byte	0xba
 17785 35a8 FF       		.byte	0xff
 17786 35a9 00       		.byte	0
 17787 35aa 1C       		.uleb128 0x1c
 17788 35ab 82020000 		.4byte	.LASF63
 17789 35af 06       		.byte	0x6
 17790 35b0 5201     		.2byte	0x152
 17791 35b2 B6350000 		.4byte	0x35b6
 17792 35b6 1D       		.uleb128 0x1d
 17793 35b7 9A350000 		.4byte	0x359a
 17794 35bb 1C       		.uleb128 0x1c
 17795 35bc CE040000 		.4byte	.LASF64
ARM GAS  C:\Users\diego\AppData\Local\Temp\ccwBHTp3.s 			page 355


 17796 35c0 07       		.byte	0x7
 17797 35c1 5506     		.2byte	0x655
 17798 35c3 C7350000 		.4byte	0x35c7
 17799 35c7 1D       		.uleb128 0x1d
 17800 35c8 76000000 		.4byte	0x76
 17801 35cc 1E       		.uleb128 0x1e
 17802 35cd 8F040000 		.4byte	.LASF65
 17803 35d1 05       		.byte	0x5
 17804 35d2 2F       		.byte	0x2f
 17805 35d3 81000000 		.4byte	0x81
 17806 35d7 05       		.uleb128 0x5
 17807 35d8 03       		.byte	0x3
 17808 35d9 00000000 		.4byte	flujo_LCD
 17809 35dd 1E       		.uleb128 0x1e
 17810 35de 09000000 		.4byte	.LASF66
 17811 35e2 05       		.byte	0x5
 17812 35e3 2F       		.byte	0x2f
 17813 35e4 81000000 		.4byte	0x81
 17814 35e8 05       		.uleb128 0x5
 17815 35e9 03       		.byte	0x3
 17816 35ea 00000000 		.4byte	flujo_LCD2
 17817 35ee 1E       		.uleb128 0x1e
 17818 35ef 96010000 		.4byte	.LASF67
 17819 35f3 05       		.byte	0x5
 17820 35f4 2F       		.byte	0x2f
 17821 35f5 81000000 		.4byte	0x81
 17822 35f9 05       		.uleb128 0x5
 17823 35fa 03       		.byte	0x3
 17824 35fb 00000000 		.4byte	flujo_LCD3
 17825 35ff 1E       		.uleb128 0x1e
 17826 3600 1C000000 		.4byte	.LASF68
 17827 3604 05       		.byte	0x5
 17828 3605 2F       		.byte	0x2f
 17829 3606 81000000 		.4byte	0x81
 17830 360a 05       		.uleb128 0x5
 17831 360b 03       		.byte	0x3
 17832 360c 00000000 		.4byte	flujo_LCD4
 17833 3610 1E       		.uleb128 0x1e
 17834 3611 43050000 		.4byte	.LASF69
 17835 3615 05       		.byte	0x5
 17836 3616 60       		.byte	0x60
 17837 3617 81000000 		.4byte	0x81
 17838 361b 05       		.uleb128 0x5
 17839 361c 03       		.byte	0x3
 17840 361d 00000000 		.4byte	cont1
 17841 3621 1E       		.uleb128 0x1e
 17842 3622 36010000 		.4byte	.LASF70
 17843 3626 05       		.byte	0x5
 17844 3627 60       		.byte	0x60
 17845 3628 81000000 		.4byte	0x81
 17846 362c 05       		.uleb128 0x5
 17847 362d 03       		.byte	0x3
 17848 362e 00000000 		.4byte	teclas1
 17849 3632 1E       		.uleb128 0x1e
 17850 3633 3E010000 		.4byte	.LASF71
 17851 3637 05       		.byte	0x5
 17852 3638 60       		.byte	0x60
ARM GAS  C:\Users\diego\AppData\Local\Temp\ccwBHTp3.s 			page 356


 17853 3639 81000000 		.4byte	0x81
 17854 363d 05       		.uleb128 0x5
 17855 363e 03       		.byte	0x3
 17856 363f 00000000 		.4byte	teclas2
 17857 3643 1E       		.uleb128 0x1e
 17858 3644 F5040000 		.4byte	.LASF72
 17859 3648 05       		.byte	0x5
 17860 3649 60       		.byte	0x60
 17861 364a 81000000 		.4byte	0x81
 17862 364e 05       		.uleb128 0x5
 17863 364f 03       		.byte	0x3
 17864 3650 00000000 		.4byte	comas1
 17865 3654 1E       		.uleb128 0x1e
 17866 3655 FC040000 		.4byte	.LASF73
 17867 3659 05       		.byte	0x5
 17868 365a 60       		.byte	0x60
 17869 365b 81000000 		.4byte	0x81
 17870 365f 05       		.uleb128 0x5
 17871 3660 03       		.byte	0x3
 17872 3661 00000000 		.4byte	comas2
 17873 3665 1E       		.uleb128 0x1e
 17874 3666 27000000 		.4byte	.LASF74
 17875 366a 05       		.byte	0x5
 17876 366b 61       		.byte	0x61
 17877 366c 81000000 		.4byte	0x81
 17878 3670 05       		.uleb128 0x5
 17879 3671 03       		.byte	0x3
 17880 3672 00000000 		.4byte	versurt
 17881 3676 1E       		.uleb128 0x1e
 17882 3677 08050000 		.4byte	.LASF75
 17883 367b 05       		.byte	0x5
 17884 367c 62       		.byte	0x62
 17885 367d 81000000 		.4byte	0x81
 17886 3681 05       		.uleb128 0x5
 17887 3682 03       		.byte	0x3
 17888 3683 00000000 		.4byte	producto1
 17889 3687 1E       		.uleb128 0x1e
 17890 3688 12050000 		.4byte	.LASF76
 17891 368c 05       		.byte	0x5
 17892 368d 62       		.byte	0x62
 17893 368e 81000000 		.4byte	0x81
 17894 3692 05       		.uleb128 0x5
 17895 3693 03       		.byte	0x3
 17896 3694 00000000 		.4byte	producto2
 17897 3698 1E       		.uleb128 0x1e
 17898 3699 1C050000 		.4byte	.LASF77
 17899 369d 05       		.byte	0x5
 17900 369e 62       		.byte	0x62
 17901 369f 81000000 		.4byte	0x81
 17902 36a3 05       		.uleb128 0x5
 17903 36a4 03       		.byte	0x3
 17904 36a5 00000000 		.4byte	producto3
 17905 36a9 1E       		.uleb128 0x1e
 17906 36aa 26050000 		.4byte	.LASF78
 17907 36ae 05       		.byte	0x5
 17908 36af 62       		.byte	0x62
 17909 36b0 81000000 		.4byte	0x81
ARM GAS  C:\Users\diego\AppData\Local\Temp\ccwBHTp3.s 			page 357


 17910 36b4 05       		.uleb128 0x5
 17911 36b5 03       		.byte	0x3
 17912 36b6 00000000 		.4byte	producto4
 17913 36ba 1E       		.uleb128 0x1e
 17914 36bb D1000000 		.4byte	.LASF79
 17915 36bf 05       		.byte	0x5
 17916 36c0 62       		.byte	0x62
 17917 36c1 81000000 		.4byte	0x81
 17918 36c5 05       		.uleb128 0x5
 17919 36c6 03       		.byte	0x3
 17920 36c7 00000000 		.4byte	producto1b
 17921 36cb 1E       		.uleb128 0x1e
 17922 36cc 8B010000 		.4byte	.LASF80
 17923 36d0 05       		.byte	0x5
 17924 36d1 62       		.byte	0x62
 17925 36d2 81000000 		.4byte	0x81
 17926 36d6 05       		.uleb128 0x5
 17927 36d7 03       		.byte	0x3
 17928 36d8 00000000 		.4byte	producto2b
 17929 36dc 1E       		.uleb128 0x1e
 17930 36dd 4A020000 		.4byte	.LASF81
 17931 36e1 05       		.byte	0x5
 17932 36e2 62       		.byte	0x62
 17933 36e3 81000000 		.4byte	0x81
 17934 36e7 05       		.uleb128 0x5
 17935 36e8 03       		.byte	0x3
 17936 36e9 00000000 		.4byte	producto3b
 17937 36ed 1E       		.uleb128 0x1e
 17938 36ee FD020000 		.4byte	.LASF82
 17939 36f2 05       		.byte	0x5
 17940 36f3 62       		.byte	0x62
 17941 36f4 81000000 		.4byte	0x81
 17942 36f8 05       		.uleb128 0x5
 17943 36f9 03       		.byte	0x3
 17944 36fa 00000000 		.4byte	producto4b
 17945 36fe 09       		.uleb128 0x9
 17946 36ff 81000000 		.4byte	0x81
 17947 3703 0E370000 		.4byte	0x370e
 17948 3707 0A       		.uleb128 0xa
 17949 3708 BA000000 		.4byte	0xba
 17950 370c 3F       		.byte	0x3f
 17951 370d 00       		.byte	0
 17952 370e 1E       		.uleb128 0x1e
 17953 370f D9010000 		.4byte	.LASF83
 17954 3713 05       		.byte	0x5
 17955 3714 63       		.byte	0x63
 17956 3715 FE360000 		.4byte	0x36fe
 17957 3719 05       		.uleb128 0x5
 17958 371a 03       		.byte	0x3
 17959 371b 00000000 		.4byte	buffer_i2c
 17960 371f 1E       		.uleb128 0x1e
 17961 3720 A8010000 		.4byte	.LASF84
 17962 3724 05       		.byte	0x5
 17963 3725 64       		.byte	0x64
 17964 3726 7B330000 		.4byte	0x337b
 17965 372a 05       		.uleb128 0x5
 17966 372b 03       		.byte	0x3
ARM GAS  C:\Users\diego\AppData\Local\Temp\ccwBHTp3.s 			page 358


 17967 372c 00000000 		.4byte	resultado
 17968 3730 1E       		.uleb128 0x1e
 17969 3731 3B020000 		.4byte	.LASF85
 17970 3735 05       		.byte	0x5
 17971 3736 65       		.byte	0x65
 17972 3737 81000000 		.4byte	0x81
 17973 373b 05       		.uleb128 0x5
 17974 373c 03       		.byte	0x3
 17975 373d 00000000 		.4byte	teclado
 17976 3741 1E       		.uleb128 0x1e
 17977 3742 64000000 		.4byte	.LASF86
 17978 3746 05       		.byte	0x5
 17979 3747 65       		.byte	0x65
 17980 3748 81000000 		.4byte	0x81
 17981 374c 05       		.uleb128 0x5
 17982 374d 03       		.byte	0x3
 17983 374e 00000000 		.4byte	teclado2
 17984 3752 1E       		.uleb128 0x1e
 17985 3753 77040000 		.4byte	.LASF87
 17986 3757 05       		.byte	0x5
 17987 3758 66       		.byte	0x66
 17988 3759 81000000 		.4byte	0x81
 17989 375d 05       		.uleb128 0x5
 17990 375e 03       		.byte	0x3
 17991 375f 00000000 		.4byte	ppux10
 17992 3763 1E       		.uleb128 0x1e
 17993 3764 77050000 		.4byte	.LASF88
 17994 3768 05       		.byte	0x5
 17995 3769 67       		.byte	0x67
 17996 376a DA020000 		.4byte	0x2da
 17997 376e 05       		.uleb128 0x5
 17998 376f 03       		.byte	0x3
 17999 3770 00000000 		.4byte	bandera
 18000 3774 1E       		.uleb128 0x1e
 18001 3775 C6060000 		.4byte	.LASF89
 18002 3779 05       		.byte	0x5
 18003 377a 68       		.byte	0x68
 18004 377b DA020000 		.4byte	0x2da
 18005 377f 05       		.uleb128 0x5
 18006 3780 03       		.byte	0x3
 18007 3781 00000000 		.4byte	tipo_imp
 18008 3785 1E       		.uleb128 0x1e
 18009 3786 96060000 		.4byte	.LASF90
 18010 378a 05       		.byte	0x5
 18011 378b 69       		.byte	0x69
 18012 378c 81000000 		.4byte	0x81
 18013 3790 05       		.uleb128 0x5
 18014 3791 03       		.byte	0x3
 18015 3792 00000000 		.4byte	decimalV
 18016 3796 1E       		.uleb128 0x1e
 18017 3797 78010000 		.4byte	.LASF91
 18018 379b 05       		.byte	0x5
 18019 379c 6A       		.byte	0x6a
 18020 379d 81000000 		.4byte	0x81
 18021 37a1 05       		.uleb128 0x5
 18022 37a2 03       		.byte	0x3
 18023 37a3 00000000 		.4byte	decimalD
ARM GAS  C:\Users\diego\AppData\Local\Temp\ccwBHTp3.s 			page 359


 18024 37a7 09       		.uleb128 0x9
 18025 37a8 81000000 		.4byte	0x81
 18026 37ac B7370000 		.4byte	0x37b7
 18027 37b0 0A       		.uleb128 0xa
 18028 37b1 BA000000 		.4byte	0xba
 18029 37b5 05       		.byte	0x5
 18030 37b6 00       		.byte	0
 18031 37b7 1E       		.uleb128 0x1e
 18032 37b8 40030000 		.4byte	.LASF92
 18033 37bc 05       		.byte	0x5
 18034 37bd 6B       		.byte	0x6b
 18035 37be A7370000 		.4byte	0x37a7
 18036 37c2 05       		.uleb128 0x5
 18037 37c3 03       		.byte	0x3
 18038 37c4 00000000 		.4byte	fecha_corte
 18039 37c8 1E       		.uleb128 0x1e
 18040 37c9 A2040000 		.4byte	.LASF93
 18041 37cd 05       		.byte	0x5
 18042 37ce 6C       		.byte	0x6c
 18043 37cf 81000000 		.4byte	0x81
 18044 37d3 05       		.uleb128 0x5
 18045 37d4 03       		.byte	0x3
 18046 37d5 00000000 		.4byte	pos_ibutton
 18047 37d9 1E       		.uleb128 0x1e
 18048 37da 85040000 		.4byte	.LASF94
 18049 37de 05       		.byte	0x5
 18050 37df 6D       		.byte	0x6d
 18051 37e0 81000000 		.4byte	0x81
 18052 37e4 05       		.uleb128 0x5
 18053 37e5 03       		.byte	0x3
 18054 37e6 00000000 		.4byte	crc_total
 18055 37ea 1E       		.uleb128 0x1e
 18056 37eb 7C030000 		.4byte	.LASF95
 18057 37ef 05       		.byte	0x5
 18058 37f0 6E       		.byte	0x6e
 18059 37f1 DA020000 		.4byte	0x2da
 18060 37f5 05       		.uleb128 0x5
 18061 37f6 03       		.byte	0x3
 18062 37f7 00000000 		.4byte	print1
 18063 37fb 1E       		.uleb128 0x1e
 18064 37fc 83030000 		.4byte	.LASF96
 18065 3800 05       		.byte	0x5
 18066 3801 6E       		.byte	0x6e
 18067 3802 DA020000 		.4byte	0x2da
 18068 3806 05       		.uleb128 0x5
 18069 3807 03       		.byte	0x3
 18070 3808 00000000 		.4byte	print2
 18071 380c 1E       		.uleb128 0x1e
 18072 380d C1040000 		.4byte	.LASF97
 18073 3811 05       		.byte	0x5
 18074 3812 6F       		.byte	0x6f
 18075 3813 DA020000 		.4byte	0x2da
 18076 3817 05       		.uleb128 0x5
 18077 3818 03       		.byte	0x3
 18078 3819 00000000 		.4byte	copia_recibo
 18079 381d 1E       		.uleb128 0x1e
 18080 381e 43000000 		.4byte	.LASF98
ARM GAS  C:\Users\diego\AppData\Local\Temp\ccwBHTp3.s 			page 360


 18081 3822 05       		.byte	0x5
 18082 3823 70       		.byte	0x70
 18083 3824 DA020000 		.4byte	0x2da
 18084 3828 05       		.uleb128 0x5
 18085 3829 03       		.byte	0x3
 18086 382a 00000000 		.4byte	copia_recibo2
 18087 382e 1E       		.uleb128 0x1e
 18088 382f 08030000 		.4byte	.LASF99
 18089 3833 05       		.byte	0x5
 18090 3834 71       		.byte	0x71
 18091 3835 A7370000 		.4byte	0x37a7
 18092 3839 05       		.uleb128 0x5
 18093 383a 03       		.byte	0x3
 18094 383b 00000000 		.4byte	id_venta
 18095 383f 1E       		.uleb128 0x1e
 18096 3840 FE030000 		.4byte	.LASF100
 18097 3844 05       		.byte	0x5
 18098 3845 72       		.byte	0x72
 18099 3846 81000000 		.4byte	0x81
 18100 384a 05       		.uleb128 0x5
 18101 384b 03       		.byte	0x3
 18102 384c 00000000 		.4byte	nombreproducto
 18103 3850 09       		.uleb128 0x9
 18104 3851 81000000 		.4byte	0x81
 18105 3855 60380000 		.4byte	0x3860
 18106 3859 0A       		.uleb128 0xa
 18107 385a BA000000 		.4byte	0xba
 18108 385e 0A       		.byte	0xa
 18109 385f 00       		.byte	0
 18110 3860 1E       		.uleb128 0x1e
 18111 3861 E3000000 		.4byte	.LASF101
 18112 3865 05       		.byte	0x5
 18113 3866 73       		.byte	0x73
 18114 3867 50380000 		.4byte	0x3850
 18115 386b 05       		.uleb128 0x5
 18116 386c 03       		.byte	0x3
 18117 386d 00000000 		.4byte	producto1n
 18118 3871 1E       		.uleb128 0x1e
 18119 3872 B2010000 		.4byte	.LASF102
 18120 3876 05       		.byte	0x5
 18121 3877 74       		.byte	0x74
 18122 3878 50380000 		.4byte	0x3850
 18123 387c 05       		.uleb128 0x5
 18124 387d 03       		.byte	0x3
 18125 387e 00000000 		.4byte	producto2n
 18126 3882 1E       		.uleb128 0x1e
 18127 3883 77020000 		.4byte	.LASF103
 18128 3887 05       		.byte	0x5
 18129 3888 75       		.byte	0x75
 18130 3889 50380000 		.4byte	0x3850
 18131 388d 05       		.uleb128 0x5
 18132 388e 03       		.byte	0x3
 18133 388f 00000000 		.4byte	producto3n
 18134 3893 1E       		.uleb128 0x1e
 18135 3894 BD010000 		.4byte	.LASF104
 18136 3898 05       		.byte	0x5
 18137 3899 76       		.byte	0x76
ARM GAS  C:\Users\diego\AppData\Local\Temp\ccwBHTp3.s 			page 361


 18138 389a 50380000 		.4byte	0x3850
 18139 389e 05       		.uleb128 0x5
 18140 389f 03       		.byte	0x3
 18141 38a0 00000000 		.4byte	producto4n
 18142 38a4 1E       		.uleb128 0x1e
 18143 38a5 99040000 		.4byte	.LASF105
 18144 38a9 05       		.byte	0x5
 18145 38aa 77       		.byte	0x77
 18146 38ab 81000000 		.4byte	0x81
 18147 38af 05       		.uleb128 0x5
 18148 38b0 03       		.byte	0x3
 18149 38b1 00000000 		.4byte	a_copias
 18150 38b5 09       		.uleb128 0x9
 18151 38b6 81000000 		.4byte	0x81
 18152 38ba C5380000 		.4byte	0x38c5
 18153 38be 0A       		.uleb128 0xa
 18154 38bf BA000000 		.4byte	0xba
 18155 38c3 00       		.byte	0
 18156 38c4 00       		.byte	0
 18157 38c5 1E       		.uleb128 0x1e
 18158 38c6 B4020000 		.4byte	.LASF106
 18159 38ca 05       		.byte	0x5
 18160 38cb 78       		.byte	0x78
 18161 38cc B5380000 		.4byte	0x38b5
 18162 38d0 05       		.uleb128 0x5
 18163 38d1 03       		.byte	0x3
 18164 38d2 00000000 		.4byte	n_copias
 18165 38d6 1E       		.uleb128 0x1e
 18166 38d7 9F050000 		.4byte	.LASF107
 18167 38db 05       		.byte	0x5
 18168 38dc 79       		.byte	0x79
 18169 38dd 81000000 		.4byte	0x81
 18170 38e1 05       		.uleb128 0x5
 18171 38e2 03       		.byte	0x3
 18172 38e3 00000000 		.4byte	no_imprime
 18173 38e7 1E       		.uleb128 0x1e
 18174 38e8 93050000 		.4byte	.LASF108
 18175 38ec 05       		.byte	0x5
 18176 38ed 7A       		.byte	0x7a
 18177 38ee 81000000 		.4byte	0x81
 18178 38f2 05       		.uleb128 0x5
 18179 38f3 03       		.byte	0x3
 18180 38f4 00000000 		.4byte	no_imprime2
 18181 38f8 1E       		.uleb128 0x1e
 18182 38f9 70040000 		.4byte	.LASF109
 18183 38fd 05       		.byte	0x5
 18184 38fe 7B       		.byte	0x7b
 18185 38ff 81000000 		.4byte	0x81
 18186 3903 05       		.uleb128 0x5
 18187 3904 03       		.byte	0x3
 18188 3905 00000000 		.4byte	imagen
 18189 3909 1E       		.uleb128 0x1e
 18190 390a 57030000 		.4byte	.LASF110
 18191 390e 05       		.byte	0x5
 18192 390f 7C       		.byte	0x7c
 18193 3910 81000000 		.4byte	0x81
 18194 3914 05       		.uleb128 0x5
ARM GAS  C:\Users\diego\AppData\Local\Temp\ccwBHTp3.s 			page 362


 18195 3915 03       		.byte	0x3
 18196 3916 00000000 		.4byte	flujo_pos
 18197 391a 1E       		.uleb128 0x1e
 18198 391b BD020000 		.4byte	.LASF111
 18199 391f 05       		.byte	0x5
 18200 3920 7D       		.byte	0x7d
 18201 3921 81000000 		.4byte	0x81
 18202 3925 05       		.uleb128 0x5
 18203 3926 03       		.byte	0x3
 18204 3927 00000000 		.4byte	flujo_pos2
 18205 392b 1E       		.uleb128 0x1e
 18206 392c C8020000 		.4byte	.LASF112
 18207 3930 05       		.byte	0x5
 18208 3931 7E       		.byte	0x7e
 18209 3932 81000000 		.4byte	0x81
 18210 3936 05       		.uleb128 0x5
 18211 3937 03       		.byte	0x3
 18212 3938 00000000 		.4byte	flujo_pos3
 18213 393c 1E       		.uleb128 0x1e
 18214 393d D3020000 		.4byte	.LASF113
 18215 3941 05       		.byte	0x5
 18216 3942 7F       		.byte	0x7f
 18217 3943 81000000 		.4byte	0x81
 18218 3947 05       		.uleb128 0x5
 18219 3948 03       		.byte	0x3
 18220 3949 00000000 		.4byte	flujo_pos4
 18221 394d 1E       		.uleb128 0x1e
 18222 394e FE000000 		.4byte	.LASF114
 18223 3952 05       		.byte	0x5
 18224 3953 80       		.byte	0x80
 18225 3954 81000000 		.4byte	0x81
 18226 3958 05       		.uleb128 0x5
 18227 3959 03       		.byte	0x3
 18228 395a 00000000 		.4byte	estado_lcd1
 18229 395e 1E       		.uleb128 0x1e
 18230 395f 0A010000 		.4byte	.LASF115
 18231 3963 05       		.byte	0x5
 18232 3964 81       		.byte	0x81
 18233 3965 81000000 		.4byte	0x81
 18234 3969 05       		.uleb128 0x5
 18235 396a 03       		.byte	0x3
 18236 396b 00000000 		.4byte	estado_lcd2
 18237 396f 1E       		.uleb128 0x1e
 18238 3970 62020000 		.4byte	.LASF116
 18239 3974 05       		.byte	0x5
 18240 3975 82       		.byte	0x82
 18241 3976 81000000 		.4byte	0x81
 18242 397a 05       		.uleb128 0x5
 18243 397b 03       		.byte	0x3
 18244 397c 00000000 		.4byte	seleccion_pos
 18245 3980 1E       		.uleb128 0x1e
 18246 3981 A5020000 		.4byte	.LASF117
 18247 3985 05       		.byte	0x5
 18248 3986 83       		.byte	0x83
 18249 3987 81000000 		.4byte	0x81
 18250 398b 05       		.uleb128 0x5
 18251 398c 03       		.byte	0x3
ARM GAS  C:\Users\diego\AppData\Local\Temp\ccwBHTp3.s 			page 363


 18252 398d 00000000 		.4byte	seleccion_pos2
 18253 3991 1E       		.uleb128 0x1e
 18254 3992 55020000 		.4byte	.LASF118
 18255 3996 05       		.byte	0x5
 18256 3997 84       		.byte	0x84
 18257 3998 81000000 		.4byte	0x81
 18258 399c 05       		.uleb128 0x5
 18259 399d 03       		.byte	0x3
 18260 399e 00000000 		.4byte	venta_activa
 18261 39a2 1E       		.uleb128 0x1e
 18262 39a3 08020000 		.4byte	.LASF119
 18263 39a7 05       		.byte	0x5
 18264 39a8 84       		.byte	0x84
 18265 39a9 81000000 		.4byte	0x81
 18266 39ad 05       		.uleb128 0x5
 18267 39ae 03       		.byte	0x3
 18268 39af 00000000 		.4byte	venta_activa3
 18269 39b3 1E       		.uleb128 0x1e
 18270 39b4 FA010000 		.4byte	.LASF120
 18271 39b8 05       		.byte	0x5
 18272 39b9 85       		.byte	0x85
 18273 39ba 81000000 		.4byte	0x81
 18274 39be 05       		.uleb128 0x5
 18275 39bf 03       		.byte	0x3
 18276 39c0 00000000 		.4byte	venta_activa2
 18277 39c4 1E       		.uleb128 0x1e
 18278 39c5 16020000 		.4byte	.LASF121
 18279 39c9 05       		.byte	0x5
 18280 39ca 85       		.byte	0x85
 18281 39cb 81000000 		.4byte	0x81
 18282 39cf 05       		.uleb128 0x5
 18283 39d0 03       		.byte	0x3
 18284 39d1 00000000 		.4byte	venta_activa4
 18285 39d5 1E       		.uleb128 0x1e
 18286 39d6 19040000 		.4byte	.LASF122
 18287 39da 05       		.byte	0x5
 18288 39db 86       		.byte	0x86
 18289 39dc 8D000000 		.4byte	0x8d
 18290 39e0 05       		.uleb128 0x5
 18291 39e1 03       		.byte	0x3
 18292 39e2 00000000 		.4byte	id_corte
 18293 39e6 1E       		.uleb128 0x1e
 18294 39e7 22040000 		.4byte	.LASF123
 18295 39eb 05       		.byte	0x5
 18296 39ec 8A       		.byte	0x8a
 18297 39ed F7390000 		.4byte	0x39f7
 18298 39f1 05       		.uleb128 0x5
 18299 39f2 03       		.byte	0x3
 18300 39f3 00000000 		.4byte	no_venta
 18301 39f7 1D       		.uleb128 0x1d
 18302 39f8 68000000 		.4byte	0x68
 18303 39fc 1E       		.uleb128 0x1e
 18304 39fd 39040000 		.4byte	.LASF124
 18305 3a01 05       		.byte	0x5
 18306 3a02 A6       		.byte	0xa6
 18307 3a03 C1000000 		.4byte	0xc1
 18308 3a07 05       		.uleb128 0x5
ARM GAS  C:\Users\diego\AppData\Local\Temp\ccwBHTp3.s 			page 364


 18309 3a08 03       		.byte	0x3
 18310 3a09 00000000 		.4byte	Buffer_LCD1
 18311 3a0d 1E       		.uleb128 0x1e
 18312 3a0e A7030000 		.4byte	.LASF125
 18313 3a12 05       		.byte	0x5
 18314 3a13 A7       		.byte	0xa7
 18315 3a14 C1000000 		.4byte	0xc1
 18316 3a18 05       		.uleb128 0x5
 18317 3a19 03       		.byte	0x3
 18318 3a1a 00000000 		.4byte	Buffer_LCD2
 18319 3a1e 1E       		.uleb128 0x1e
 18320 3a1f 4C040000 		.4byte	.LASF126
 18321 3a23 05       		.byte	0x5
 18322 3a24 A8       		.byte	0xa8
 18323 3a25 C1000000 		.4byte	0xc1
 18324 3a29 05       		.uleb128 0x5
 18325 3a2a 03       		.byte	0x3
 18326 3a2b 00000000 		.4byte	Buffer_LCD3
 18327 3a2f 1E       		.uleb128 0x1e
 18328 3a30 58040000 		.4byte	.LASF127
 18329 3a34 05       		.byte	0x5
 18330 3a35 A9       		.byte	0xa9
 18331 3a36 C1000000 		.4byte	0xc1
 18332 3a3a 05       		.uleb128 0x5
 18333 3a3b 03       		.byte	0x3
 18334 3a3c 00000000 		.4byte	Buffer_LCD4
 18335 3a40 1E       		.uleb128 0x1e
 18336 3a41 30050000 		.4byte	.LASF128
 18337 3a45 05       		.byte	0x5
 18338 3a46 AB       		.byte	0xab
 18339 3a47 81000000 		.4byte	0x81
 18340 3a4b 05       		.uleb128 0x5
 18341 3a4c 03       		.byte	0x3
 18342 3a4d 00000000 		.4byte	estado_0
 18343 3a51 1F       		.uleb128 0x1f
 18344 3a52 6100     		.ascii	"a\000"
 18345 3a54 05       		.byte	0x5
 18346 3a55 B6       		.byte	0xb6
 18347 3a56 A8010000 		.4byte	0x1a8
 18348 3a5a 05       		.uleb128 0x5
 18349 3a5b 03       		.byte	0x3
 18350 3a5c 00000000 		.4byte	a
 18351 3a60 1F       		.uleb128 0x1f
 18352 3a61 6200     		.ascii	"b\000"
 18353 3a63 05       		.byte	0x5
 18354 3a64 B7       		.byte	0xb7
 18355 3a65 A8010000 		.4byte	0x1a8
 18356 3a69 05       		.uleb128 0x5
 18357 3a6a 03       		.byte	0x3
 18358 3a6b 00000000 		.4byte	b
 18359 3a6f 1F       		.uleb128 0x1f
 18360 3a70 6300     		.ascii	"c\000"
 18361 3a72 05       		.byte	0x5
 18362 3a73 B8       		.byte	0xb8
 18363 3a74 A8010000 		.4byte	0x1a8
 18364 3a78 05       		.uleb128 0x5
 18365 3a79 03       		.byte	0x3
ARM GAS  C:\Users\diego\AppData\Local\Temp\ccwBHTp3.s 			page 365


 18366 3a7a 00000000 		.4byte	c
 18367 3a7e 1F       		.uleb128 0x1f
 18368 3a7f 6400     		.ascii	"d\000"
 18369 3a81 05       		.byte	0x5
 18370 3a82 B9       		.byte	0xb9
 18371 3a83 A8010000 		.4byte	0x1a8
 18372 3a87 05       		.uleb128 0x5
 18373 3a88 03       		.byte	0x3
 18374 3a89 00000000 		.4byte	d
 18375 3a8d 1F       		.uleb128 0x1f
 18376 3a8e 7800     		.ascii	"x\000"
 18377 3a90 05       		.byte	0x5
 18378 3a91 CF       		.byte	0xcf
 18379 3a92 99000000 		.4byte	0x99
 18380 3a96 05       		.uleb128 0x5
 18381 3a97 03       		.byte	0x3
 18382 3a98 00000000 		.4byte	x
 18383 3a9c 1F       		.uleb128 0x1f
 18384 3a9d 7900     		.ascii	"y\000"
 18385 3a9f 05       		.byte	0x5
 18386 3aa0 CF       		.byte	0xcf
 18387 3aa1 99000000 		.4byte	0x99
 18388 3aa5 05       		.uleb128 0x5
 18389 3aa6 03       		.byte	0x3
 18390 3aa7 00000000 		.4byte	y
 18391 3aab 1F       		.uleb128 0x1f
 18392 3aac 7A00     		.ascii	"z\000"
 18393 3aae 05       		.byte	0x5
 18394 3aaf CF       		.byte	0xcf
 18395 3ab0 99000000 		.4byte	0x99
 18396 3ab4 05       		.uleb128 0x5
 18397 3ab5 03       		.byte	0x3
 18398 3ab6 00000000 		.4byte	z
 18399 3aba 1F       		.uleb128 0x1f
 18400 3abb 7700     		.ascii	"w\000"
 18401 3abd 05       		.byte	0x5
 18402 3abe CF       		.byte	0xcf
 18403 3abf 99000000 		.4byte	0x99
 18404 3ac3 05       		.uleb128 0x5
 18405 3ac4 03       		.byte	0x3
 18406 3ac5 00000000 		.4byte	w
 18407 3ac9 09       		.uleb128 0x9
 18408 3aca 81000000 		.4byte	0x81
 18409 3ace DF3A0000 		.4byte	0x3adf
 18410 3ad2 0A       		.uleb128 0xa
 18411 3ad3 BA000000 		.4byte	0xba
 18412 3ad7 01       		.byte	0x1
 18413 3ad8 0A       		.uleb128 0xa
 18414 3ad9 BA000000 		.4byte	0xba
 18415 3add C7       		.byte	0xc7
 18416 3ade 00       		.byte	0
 18417 3adf 1E       		.uleb128 0x1e
 18418 3ae0 82000000 		.4byte	.LASF129
 18419 3ae4 05       		.byte	0x5
 18420 3ae5 D0       		.byte	0xd0
 18421 3ae6 C93A0000 		.4byte	0x3ac9
 18422 3aea 05       		.uleb128 0x5
ARM GAS  C:\Users\diego\AppData\Local\Temp\ccwBHTp3.s 			page 366


 18423 3aeb 03       		.byte	0x3
 18424 3aec 00000000 		.4byte	modulo
 18425 3af0 1E       		.uleb128 0x1e
 18426 3af1 DC000000 		.4byte	.LASF130
 18427 3af5 05       		.byte	0x5
 18428 3af6 D1       		.byte	0xd1
 18429 3af7 81000000 		.4byte	0x81
 18430 3afb 05       		.uleb128 0x5
 18431 3afc 03       		.byte	0x3
 18432 3afd 00000000 		.4byte	grado1
 18433 3b01 1E       		.uleb128 0x1e
 18434 3b02 6D000000 		.4byte	.LASF131
 18435 3b06 05       		.byte	0x5
 18436 3b07 D1       		.byte	0xd1
 18437 3b08 81000000 		.4byte	0x81
 18438 3b0c 05       		.uleb128 0x5
 18439 3b0d 03       		.byte	0x3
 18440 3b0e 00000000 		.4byte	grado2
 18441 3b12 1E       		.uleb128 0x1e
 18442 3b13 74000000 		.4byte	.LASF132
 18443 3b17 05       		.byte	0x5
 18444 3b18 D1       		.byte	0xd1
 18445 3b19 81000000 		.4byte	0x81
 18446 3b1d 05       		.uleb128 0x5
 18447 3b1e 03       		.byte	0x3
 18448 3b1f 00000000 		.4byte	grado3
 18449 3b23 1E       		.uleb128 0x1e
 18450 3b24 7B000000 		.4byte	.LASF133
 18451 3b28 05       		.byte	0x5
 18452 3b29 D1       		.byte	0xd1
 18453 3b2a 81000000 		.4byte	0x81
 18454 3b2e 05       		.uleb128 0x5
 18455 3b2f 03       		.byte	0x3
 18456 3b30 00000000 		.4byte	grado4
 18457 3b34 1E       		.uleb128 0x1e
 18458 3b35 C1030000 		.4byte	.LASF42
 18459 3b39 05       		.byte	0x5
 18460 3b3a D1       		.byte	0xd1
 18461 3b3b 81000000 		.4byte	0x81
 18462 3b3f 05       		.uleb128 0x5
 18463 3b40 03       		.byte	0x3
 18464 3b41 00000000 		.4byte	producto
 18465 3b45 1E       		.uleb128 0x1e
 18466 3b46 D8060000 		.4byte	.LASF134
 18467 3b4a 05       		.byte	0x5
 18468 3b4b D3       		.byte	0xd3
 18469 3b4c E5010000 		.4byte	0x1e5
 18470 3b50 05       		.uleb128 0x5
 18471 3b51 03       		.byte	0x3
 18472 3b52 00000000 		.4byte	rventa
 18473 3b56 1E       		.uleb128 0x1e
 18474 3b57 70010000 		.4byte	.LASF135
 18475 3b5b 05       		.byte	0x5
 18476 3b5c D4       		.byte	0xd4
 18477 3b5d E5010000 		.4byte	0x1e5
 18478 3b61 05       		.uleb128 0x5
 18479 3b62 03       		.byte	0x3
ARM GAS  C:\Users\diego\AppData\Local\Temp\ccwBHTp3.s 			page 367


 18480 3b63 00000000 		.4byte	rventa2
 18481 3b67 1E       		.uleb128 0x1e
 18482 3b68 70020000 		.4byte	.LASF136
 18483 3b6c 01       		.byte	0x1
 18484 3b6d 30       		.byte	0x30
 18485 3b6e A7370000 		.4byte	0x37a7
 18486 3b72 05       		.uleb128 0x5
 18487 3b73 03       		.byte	0x3
 18488 3b74 00000000 		.4byte	msn_tc
 18489 3b78 1E       		.uleb128 0x1e
 18490 3b79 1A030000 		.4byte	.LASF137
 18491 3b7d 01       		.byte	0x1
 18492 3b7e 31       		.byte	0x31
 18493 3b7f CA020000 		.4byte	0x2ca
 18494 3b83 05       		.uleb128 0x5
 18495 3b84 03       		.byte	0x3
 18496 3b85 00000000 		.4byte	msn_lecact
 18497 3b89 09       		.uleb128 0x9
 18498 3b8a 81000000 		.4byte	0x81
 18499 3b8e 993B0000 		.4byte	0x3b99
 18500 3b92 0A       		.uleb128 0xa
 18501 3b93 BA000000 		.4byte	0xba
 18502 3b97 10       		.byte	0x10
 18503 3b98 00       		.byte	0
 18504 3b99 1E       		.uleb128 0x1e
 18505 3b9a CE010000 		.4byte	.LASF138
 18506 3b9e 01       		.byte	0x1
 18507 3b9f 32       		.byte	0x32
 18508 3ba0 893B0000 		.4byte	0x3b89
 18509 3ba4 05       		.uleb128 0x5
 18510 3ba5 03       		.byte	0x3
 18511 3ba6 00000000 		.4byte	msn_lecaan
 18512 3baa 1E       		.uleb128 0x1e
 18513 3bab 70030000 		.4byte	.LASF139
 18514 3baf 01       		.byte	0x1
 18515 3bb0 33       		.byte	0x33
 18516 3bb1 CD340000 		.4byte	0x34cd
 18517 3bb5 05       		.uleb128 0x5
 18518 3bb6 03       		.byte	0x3
 18519 3bb7 00000000 		.4byte	msn_tventas
 18520 3bbb 1E       		.uleb128 0x1e
 18521 3bbc 23010000 		.4byte	.LASF140
 18522 3bc0 01       		.byte	0x1
 18523 3bc1 34       		.byte	0x34
 18524 3bc2 CA020000 		.4byte	0x2ca
 18525 3bc6 05       		.uleb128 0x5
 18526 3bc7 03       		.byte	0x3
 18527 3bc8 00000000 		.4byte	msn_totalcero
 18528 3bcc 20       		.uleb128 0x20
 18529 3bcd 85060000 		.4byte	.LASF141
 18530 3bd1 06       		.byte	0x6
 18531 3bd2 9F       		.byte	0x9f
 18532 3bd3 DD3B0000 		.4byte	0x3bdd
 18533 3bd7 21       		.uleb128 0x21
 18534 3bd8 81000000 		.4byte	0x81
 18535 3bdc 00       		.byte	0
 18536 3bdd 20       		.uleb128 0x20
ARM GAS  C:\Users\diego\AppData\Local\Temp\ccwBHTp3.s 			page 368


 18537 3bde 61030000 		.4byte	.LASF142
 18538 3be2 08       		.byte	0x8
 18539 3be3 77       		.byte	0x77
 18540 3be4 EE3B0000 		.4byte	0x3bee
 18541 3be8 21       		.uleb128 0x21
 18542 3be9 99000000 		.4byte	0x99
 18543 3bed 00       		.byte	0
 18544 3bee 22       		.uleb128 0x22
 18545 3bef 46010000 		.4byte	.LASF143
 18546 3bf3 06       		.byte	0x6
 18547 3bf4 8A       		.byte	0x8a
 18548 3bf5 8D000000 		.4byte	0x8d
 18549 3bf9 23       		.uleb128 0x23
 18550 3bfa 90030000 		.4byte	.LASF154
 18551 3bfe 06       		.byte	0x6
 18552 3bff 8C       		.byte	0x8c
 18553 3c00 22       		.uleb128 0x22
 18554 3c01 EA030000 		.4byte	.LASF144
 18555 3c05 06       		.byte	0x6
 18556 3c06 86       		.byte	0x86
 18557 3c07 81000000 		.4byte	0x81
 18558 3c0b 24       		.uleb128 0x24
 18559 3c0c 16010000 		.4byte	.LASF145
 18560 3c10 09       		.byte	0x9
 18561 3c11 25       		.byte	0x25
 18562 3c12 81000000 		.4byte	0x81
 18563 3c16 253C0000 		.4byte	0x3c25
 18564 3c1a 21       		.uleb128 0x21
 18565 3c1b 8D000000 		.4byte	0x8d
 18566 3c1f 21       		.uleb128 0x21
 18567 3c20 C7340000 		.4byte	0x34c7
 18568 3c24 00       		.byte	0
 18569 3c25 24       		.uleb128 0x24
 18570 3c26 E5060000 		.4byte	.LASF146
 18571 3c2a 09       		.byte	0x9
 18572 3c2b 27       		.byte	0x27
 18573 3c2c 81000000 		.4byte	0x81
 18574 3c30 3F3C0000 		.4byte	0x3c3f
 18575 3c34 21       		.uleb128 0x21
 18576 3c35 81000000 		.4byte	0x81
 18577 3c39 21       		.uleb128 0x21
 18578 3c3a 81000000 		.4byte	0x81
 18579 3c3e 00       		.byte	0
 18580 3c3f 20       		.uleb128 0x20
 18581 3c40 9F060000 		.4byte	.LASF147
 18582 3c44 0A       		.byte	0xa
 18583 3c45 29       		.byte	0x29
 18584 3c46 553C0000 		.4byte	0x3c55
 18585 3c4a 21       		.uleb128 0x21
 18586 3c4b 81000000 		.4byte	0x81
 18587 3c4f 21       		.uleb128 0x21
 18588 3c50 81000000 		.4byte	0x81
 18589 3c54 00       		.byte	0
 18590 3c55 24       		.uleb128 0x24
 18591 3c56 64040000 		.4byte	.LASF148
 18592 3c5a 09       		.byte	0x9
 18593 3c5b 26       		.byte	0x26
ARM GAS  C:\Users\diego\AppData\Local\Temp\ccwBHTp3.s 			page 369


 18594 3c5c 81000000 		.4byte	0x81
 18595 3c60 6F3C0000 		.4byte	0x3c6f
 18596 3c64 21       		.uleb128 0x21
 18597 3c65 8D000000 		.4byte	0x8d
 18598 3c69 21       		.uleb128 0x21
 18599 3c6a 81000000 		.4byte	0x81
 18600 3c6e 00       		.byte	0
 18601 3c6f 20       		.uleb128 0x20
 18602 3c70 25030000 		.4byte	.LASF149
 18603 3c74 0A       		.byte	0xa
 18604 3c75 26       		.byte	0x26
 18605 3c76 803C0000 		.4byte	0x3c80
 18606 3c7a 21       		.uleb128 0x21
 18607 3c7b 81000000 		.4byte	0x81
 18608 3c7f 00       		.byte	0
 18609 3c80 20       		.uleb128 0x20
 18610 3c81 E4010000 		.4byte	.LASF150
 18611 3c85 0A       		.byte	0xa
 18612 3c86 28       		.byte	0x28
 18613 3c87 9B3C0000 		.4byte	0x3c9b
 18614 3c8b 21       		.uleb128 0x21
 18615 3c8c 81000000 		.4byte	0x81
 18616 3c90 21       		.uleb128 0x21
 18617 3c91 C7340000 		.4byte	0x34c7
 18618 3c95 21       		.uleb128 0x21
 18619 3c96 C7340000 		.4byte	0x34c7
 18620 3c9a 00       		.byte	0
 18621 3c9b 25       		.uleb128 0x25
 18622 3c9c 7F050000 		.4byte	.LASF155
 18623 3ca0 0A       		.byte	0xa
 18624 3ca1 2A       		.byte	0x2a
 18625 3ca2 21       		.uleb128 0x21
 18626 3ca3 C7340000 		.4byte	0x34c7
 18627 3ca7 21       		.uleb128 0x21
 18628 3ca8 81000000 		.4byte	0x81
 18629 3cac 00       		.byte	0
 18630 3cad 00       		.byte	0
 18631              		.section	.debug_abbrev,"",%progbits
 18632              	.Ldebug_abbrev0:
 18633 0000 01       		.uleb128 0x1
 18634 0001 11       		.uleb128 0x11
 18635 0002 01       		.byte	0x1
 18636 0003 25       		.uleb128 0x25
 18637 0004 0E       		.uleb128 0xe
 18638 0005 13       		.uleb128 0x13
 18639 0006 0B       		.uleb128 0xb
 18640 0007 03       		.uleb128 0x3
 18641 0008 0E       		.uleb128 0xe
 18642 0009 1B       		.uleb128 0x1b
 18643 000a 0E       		.uleb128 0xe
 18644 000b 55       		.uleb128 0x55
 18645 000c 17       		.uleb128 0x17
 18646 000d 11       		.uleb128 0x11
 18647 000e 01       		.uleb128 0x1
 18648 000f 10       		.uleb128 0x10
 18649 0010 17       		.uleb128 0x17
 18650 0011 00       		.byte	0
ARM GAS  C:\Users\diego\AppData\Local\Temp\ccwBHTp3.s 			page 370


 18651 0012 00       		.byte	0
 18652 0013 02       		.uleb128 0x2
 18653 0014 24       		.uleb128 0x24
 18654 0015 00       		.byte	0
 18655 0016 0B       		.uleb128 0xb
 18656 0017 0B       		.uleb128 0xb
 18657 0018 3E       		.uleb128 0x3e
 18658 0019 0B       		.uleb128 0xb
 18659 001a 03       		.uleb128 0x3
 18660 001b 0E       		.uleb128 0xe
 18661 001c 00       		.byte	0
 18662 001d 00       		.byte	0
 18663 001e 03       		.uleb128 0x3
 18664 001f 16       		.uleb128 0x16
 18665 0020 00       		.byte	0
 18666 0021 03       		.uleb128 0x3
 18667 0022 0E       		.uleb128 0xe
 18668 0023 3A       		.uleb128 0x3a
 18669 0024 0B       		.uleb128 0xb
 18670 0025 3B       		.uleb128 0x3b
 18671 0026 0B       		.uleb128 0xb
 18672 0027 49       		.uleb128 0x49
 18673 0028 13       		.uleb128 0x13
 18674 0029 00       		.byte	0
 18675 002a 00       		.byte	0
 18676 002b 04       		.uleb128 0x4
 18677 002c 24       		.uleb128 0x24
 18678 002d 00       		.byte	0
 18679 002e 0B       		.uleb128 0xb
 18680 002f 0B       		.uleb128 0xb
 18681 0030 3E       		.uleb128 0x3e
 18682 0031 0B       		.uleb128 0xb
 18683 0032 03       		.uleb128 0x3
 18684 0033 08       		.uleb128 0x8
 18685 0034 00       		.byte	0
 18686 0035 00       		.byte	0
 18687 0036 05       		.uleb128 0x5
 18688 0037 16       		.uleb128 0x16
 18689 0038 00       		.byte	0
 18690 0039 03       		.uleb128 0x3
 18691 003a 0E       		.uleb128 0xe
 18692 003b 3A       		.uleb128 0x3a
 18693 003c 0B       		.uleb128 0xb
 18694 003d 3B       		.uleb128 0x3b
 18695 003e 05       		.uleb128 0x5
 18696 003f 49       		.uleb128 0x49
 18697 0040 13       		.uleb128 0x13
 18698 0041 00       		.byte	0
 18699 0042 00       		.byte	0
 18700 0043 06       		.uleb128 0x6
 18701 0044 13       		.uleb128 0x13
 18702 0045 01       		.byte	0x1
 18703 0046 03       		.uleb128 0x3
 18704 0047 0E       		.uleb128 0xe
 18705 0048 0B       		.uleb128 0xb
 18706 0049 0B       		.uleb128 0xb
 18707 004a 3A       		.uleb128 0x3a
ARM GAS  C:\Users\diego\AppData\Local\Temp\ccwBHTp3.s 			page 371


 18708 004b 0B       		.uleb128 0xb
 18709 004c 3B       		.uleb128 0x3b
 18710 004d 0B       		.uleb128 0xb
 18711 004e 01       		.uleb128 0x1
 18712 004f 13       		.uleb128 0x13
 18713 0050 00       		.byte	0
 18714 0051 00       		.byte	0
 18715 0052 07       		.uleb128 0x7
 18716 0053 0D       		.uleb128 0xd
 18717 0054 00       		.byte	0
 18718 0055 03       		.uleb128 0x3
 18719 0056 0E       		.uleb128 0xe
 18720 0057 3A       		.uleb128 0x3a
 18721 0058 0B       		.uleb128 0xb
 18722 0059 3B       		.uleb128 0x3b
 18723 005a 0B       		.uleb128 0xb
 18724 005b 49       		.uleb128 0x49
 18725 005c 13       		.uleb128 0x13
 18726 005d 38       		.uleb128 0x38
 18727 005e 0B       		.uleb128 0xb
 18728 005f 00       		.byte	0
 18729 0060 00       		.byte	0
 18730 0061 08       		.uleb128 0x8
 18731 0062 0D       		.uleb128 0xd
 18732 0063 00       		.byte	0
 18733 0064 03       		.uleb128 0x3
 18734 0065 08       		.uleb128 0x8
 18735 0066 3A       		.uleb128 0x3a
 18736 0067 0B       		.uleb128 0xb
 18737 0068 3B       		.uleb128 0x3b
 18738 0069 0B       		.uleb128 0xb
 18739 006a 49       		.uleb128 0x49
 18740 006b 13       		.uleb128 0x13
 18741 006c 38       		.uleb128 0x38
 18742 006d 0B       		.uleb128 0xb
 18743 006e 00       		.byte	0
 18744 006f 00       		.byte	0
 18745 0070 09       		.uleb128 0x9
 18746 0071 01       		.uleb128 0x1
 18747 0072 01       		.byte	0x1
 18748 0073 49       		.uleb128 0x49
 18749 0074 13       		.uleb128 0x13
 18750 0075 01       		.uleb128 0x1
 18751 0076 13       		.uleb128 0x13
 18752 0077 00       		.byte	0
 18753 0078 00       		.byte	0
 18754 0079 0A       		.uleb128 0xa
 18755 007a 21       		.uleb128 0x21
 18756 007b 00       		.byte	0
 18757 007c 49       		.uleb128 0x49
 18758 007d 13       		.uleb128 0x13
 18759 007e 2F       		.uleb128 0x2f
 18760 007f 0B       		.uleb128 0xb
 18761 0080 00       		.byte	0
 18762 0081 00       		.byte	0
 18763 0082 0B       		.uleb128 0xb
 18764 0083 13       		.uleb128 0x13
ARM GAS  C:\Users\diego\AppData\Local\Temp\ccwBHTp3.s 			page 372


 18765 0084 01       		.byte	0x1
 18766 0085 03       		.uleb128 0x3
 18767 0086 08       		.uleb128 0x8
 18768 0087 0B       		.uleb128 0xb
 18769 0088 0B       		.uleb128 0xb
 18770 0089 3A       		.uleb128 0x3a
 18771 008a 0B       		.uleb128 0xb
 18772 008b 3B       		.uleb128 0x3b
 18773 008c 0B       		.uleb128 0xb
 18774 008d 01       		.uleb128 0x1
 18775 008e 13       		.uleb128 0x13
 18776 008f 00       		.byte	0
 18777 0090 00       		.byte	0
 18778 0091 0C       		.uleb128 0xc
 18779 0092 2E       		.uleb128 0x2e
 18780 0093 01       		.byte	0x1
 18781 0094 3F       		.uleb128 0x3f
 18782 0095 19       		.uleb128 0x19
 18783 0096 03       		.uleb128 0x3
 18784 0097 0E       		.uleb128 0xe
 18785 0098 3A       		.uleb128 0x3a
 18786 0099 0B       		.uleb128 0xb
 18787 009a 3B       		.uleb128 0x3b
 18788 009b 0B       		.uleb128 0xb
 18789 009c 27       		.uleb128 0x27
 18790 009d 19       		.uleb128 0x19
 18791 009e 49       		.uleb128 0x49
 18792 009f 13       		.uleb128 0x13
 18793 00a0 11       		.uleb128 0x11
 18794 00a1 01       		.uleb128 0x1
 18795 00a2 12       		.uleb128 0x12
 18796 00a3 06       		.uleb128 0x6
 18797 00a4 40       		.uleb128 0x40
 18798 00a5 18       		.uleb128 0x18
 18799 00a6 9742     		.uleb128 0x2117
 18800 00a8 19       		.uleb128 0x19
 18801 00a9 01       		.uleb128 0x1
 18802 00aa 13       		.uleb128 0x13
 18803 00ab 00       		.byte	0
 18804 00ac 00       		.byte	0
 18805 00ad 0D       		.uleb128 0xd
 18806 00ae 34       		.uleb128 0x34
 18807 00af 00       		.byte	0
 18808 00b0 03       		.uleb128 0x3
 18809 00b1 08       		.uleb128 0x8
 18810 00b2 3A       		.uleb128 0x3a
 18811 00b3 0B       		.uleb128 0xb
 18812 00b4 3B       		.uleb128 0x3b
 18813 00b5 0B       		.uleb128 0xb
 18814 00b6 49       		.uleb128 0x49
 18815 00b7 13       		.uleb128 0x13
 18816 00b8 02       		.uleb128 0x2
 18817 00b9 17       		.uleb128 0x17
 18818 00ba 00       		.byte	0
 18819 00bb 00       		.byte	0
 18820 00bc 0E       		.uleb128 0xe
 18821 00bd 898201   		.uleb128 0x4109
ARM GAS  C:\Users\diego\AppData\Local\Temp\ccwBHTp3.s 			page 373


 18822 00c0 01       		.byte	0x1
 18823 00c1 11       		.uleb128 0x11
 18824 00c2 01       		.uleb128 0x1
 18825 00c3 31       		.uleb128 0x31
 18826 00c4 13       		.uleb128 0x13
 18827 00c5 01       		.uleb128 0x1
 18828 00c6 13       		.uleb128 0x13
 18829 00c7 00       		.byte	0
 18830 00c8 00       		.byte	0
 18831 00c9 0F       		.uleb128 0xf
 18832 00ca 8A8201   		.uleb128 0x410a
 18833 00cd 00       		.byte	0
 18834 00ce 02       		.uleb128 0x2
 18835 00cf 18       		.uleb128 0x18
 18836 00d0 9142     		.uleb128 0x2111
 18837 00d2 18       		.uleb128 0x18
 18838 00d3 00       		.byte	0
 18839 00d4 00       		.byte	0
 18840 00d5 10       		.uleb128 0x10
 18841 00d6 898201   		.uleb128 0x4109
 18842 00d9 00       		.byte	0
 18843 00da 11       		.uleb128 0x11
 18844 00db 01       		.uleb128 0x1
 18845 00dc 31       		.uleb128 0x31
 18846 00dd 13       		.uleb128 0x13
 18847 00de 00       		.byte	0
 18848 00df 00       		.byte	0
 18849 00e0 11       		.uleb128 0x11
 18850 00e1 05       		.uleb128 0x5
 18851 00e2 00       		.byte	0
 18852 00e3 03       		.uleb128 0x3
 18853 00e4 08       		.uleb128 0x8
 18854 00e5 3A       		.uleb128 0x3a
 18855 00e6 0B       		.uleb128 0xb
 18856 00e7 3B       		.uleb128 0x3b
 18857 00e8 0B       		.uleb128 0xb
 18858 00e9 49       		.uleb128 0x49
 18859 00ea 13       		.uleb128 0x13
 18860 00eb 02       		.uleb128 0x2
 18861 00ec 17       		.uleb128 0x17
 18862 00ed 00       		.byte	0
 18863 00ee 00       		.byte	0
 18864 00ef 12       		.uleb128 0x12
 18865 00f0 34       		.uleb128 0x34
 18866 00f1 00       		.byte	0
 18867 00f2 03       		.uleb128 0x3
 18868 00f3 0E       		.uleb128 0xe
 18869 00f4 3A       		.uleb128 0x3a
 18870 00f5 0B       		.uleb128 0xb
 18871 00f6 3B       		.uleb128 0x3b
 18872 00f7 0B       		.uleb128 0xb
 18873 00f8 49       		.uleb128 0x49
 18874 00f9 13       		.uleb128 0x13
 18875 00fa 02       		.uleb128 0x2
 18876 00fb 17       		.uleb128 0x17
 18877 00fc 00       		.byte	0
 18878 00fd 00       		.byte	0
ARM GAS  C:\Users\diego\AppData\Local\Temp\ccwBHTp3.s 			page 374


 18879 00fe 13       		.uleb128 0x13
 18880 00ff 34       		.uleb128 0x34
 18881 0100 00       		.byte	0
 18882 0101 03       		.uleb128 0x3
 18883 0102 0E       		.uleb128 0xe
 18884 0103 3A       		.uleb128 0x3a
 18885 0104 0B       		.uleb128 0xb
 18886 0105 3B       		.uleb128 0x3b
 18887 0106 0B       		.uleb128 0xb
 18888 0107 49       		.uleb128 0x49
 18889 0108 13       		.uleb128 0x13
 18890 0109 02       		.uleb128 0x2
 18891 010a 18       		.uleb128 0x18
 18892 010b 00       		.byte	0
 18893 010c 00       		.byte	0
 18894 010d 14       		.uleb128 0x14
 18895 010e 2E       		.uleb128 0x2e
 18896 010f 01       		.byte	0x1
 18897 0110 3F       		.uleb128 0x3f
 18898 0111 19       		.uleb128 0x19
 18899 0112 03       		.uleb128 0x3
 18900 0113 0E       		.uleb128 0xe
 18901 0114 3A       		.uleb128 0x3a
 18902 0115 0B       		.uleb128 0xb
 18903 0116 3B       		.uleb128 0x3b
 18904 0117 05       		.uleb128 0x5
 18905 0118 27       		.uleb128 0x27
 18906 0119 19       		.uleb128 0x19
 18907 011a 49       		.uleb128 0x49
 18908 011b 13       		.uleb128 0x13
 18909 011c 11       		.uleb128 0x11
 18910 011d 01       		.uleb128 0x1
 18911 011e 12       		.uleb128 0x12
 18912 011f 06       		.uleb128 0x6
 18913 0120 40       		.uleb128 0x40
 18914 0121 18       		.uleb128 0x18
 18915 0122 9742     		.uleb128 0x2117
 18916 0124 19       		.uleb128 0x19
 18917 0125 01       		.uleb128 0x1
 18918 0126 13       		.uleb128 0x13
 18919 0127 00       		.byte	0
 18920 0128 00       		.byte	0
 18921 0129 15       		.uleb128 0x15
 18922 012a 05       		.uleb128 0x5
 18923 012b 00       		.byte	0
 18924 012c 03       		.uleb128 0x3
 18925 012d 08       		.uleb128 0x8
 18926 012e 3A       		.uleb128 0x3a
 18927 012f 0B       		.uleb128 0xb
 18928 0130 3B       		.uleb128 0x3b
 18929 0131 05       		.uleb128 0x5
 18930 0132 49       		.uleb128 0x49
 18931 0133 13       		.uleb128 0x13
 18932 0134 02       		.uleb128 0x2
 18933 0135 17       		.uleb128 0x17
 18934 0136 00       		.byte	0
 18935 0137 00       		.byte	0
ARM GAS  C:\Users\diego\AppData\Local\Temp\ccwBHTp3.s 			page 375


 18936 0138 16       		.uleb128 0x16
 18937 0139 34       		.uleb128 0x34
 18938 013a 00       		.byte	0
 18939 013b 03       		.uleb128 0x3
 18940 013c 0E       		.uleb128 0xe
 18941 013d 3A       		.uleb128 0x3a
 18942 013e 0B       		.uleb128 0xb
 18943 013f 3B       		.uleb128 0x3b
 18944 0140 05       		.uleb128 0x5
 18945 0141 49       		.uleb128 0x49
 18946 0142 13       		.uleb128 0x13
 18947 0143 02       		.uleb128 0x2
 18948 0144 18       		.uleb128 0x18
 18949 0145 00       		.byte	0
 18950 0146 00       		.byte	0
 18951 0147 17       		.uleb128 0x17
 18952 0148 34       		.uleb128 0x34
 18953 0149 00       		.byte	0
 18954 014a 03       		.uleb128 0x3
 18955 014b 08       		.uleb128 0x8
 18956 014c 3A       		.uleb128 0x3a
 18957 014d 0B       		.uleb128 0xb
 18958 014e 3B       		.uleb128 0x3b
 18959 014f 05       		.uleb128 0x5
 18960 0150 49       		.uleb128 0x49
 18961 0151 13       		.uleb128 0x13
 18962 0152 02       		.uleb128 0x2
 18963 0153 17       		.uleb128 0x17
 18964 0154 00       		.byte	0
 18965 0155 00       		.byte	0
 18966 0156 18       		.uleb128 0x18
 18967 0157 898201   		.uleb128 0x4109
 18968 015a 01       		.byte	0x1
 18969 015b 11       		.uleb128 0x11
 18970 015c 01       		.uleb128 0x1
 18971 015d 31       		.uleb128 0x31
 18972 015e 13       		.uleb128 0x13
 18973 015f 00       		.byte	0
 18974 0160 00       		.byte	0
 18975 0161 19       		.uleb128 0x19
 18976 0162 05       		.uleb128 0x5
 18977 0163 00       		.byte	0
 18978 0164 03       		.uleb128 0x3
 18979 0165 0E       		.uleb128 0xe
 18980 0166 3A       		.uleb128 0x3a
 18981 0167 0B       		.uleb128 0xb
 18982 0168 3B       		.uleb128 0x3b
 18983 0169 05       		.uleb128 0x5
 18984 016a 49       		.uleb128 0x49
 18985 016b 13       		.uleb128 0x13
 18986 016c 02       		.uleb128 0x2
 18987 016d 17       		.uleb128 0x17
 18988 016e 00       		.byte	0
 18989 016f 00       		.byte	0
 18990 0170 1A       		.uleb128 0x1a
 18991 0171 34       		.uleb128 0x34
 18992 0172 00       		.byte	0
ARM GAS  C:\Users\diego\AppData\Local\Temp\ccwBHTp3.s 			page 376


 18993 0173 03       		.uleb128 0x3
 18994 0174 0E       		.uleb128 0xe
 18995 0175 3A       		.uleb128 0x3a
 18996 0176 0B       		.uleb128 0xb
 18997 0177 3B       		.uleb128 0x3b
 18998 0178 05       		.uleb128 0x5
 18999 0179 49       		.uleb128 0x49
 19000 017a 13       		.uleb128 0x13
 19001 017b 02       		.uleb128 0x2
 19002 017c 17       		.uleb128 0x17
 19003 017d 00       		.byte	0
 19004 017e 00       		.byte	0
 19005 017f 1B       		.uleb128 0x1b
 19006 0180 0F       		.uleb128 0xf
 19007 0181 00       		.byte	0
 19008 0182 0B       		.uleb128 0xb
 19009 0183 0B       		.uleb128 0xb
 19010 0184 49       		.uleb128 0x49
 19011 0185 13       		.uleb128 0x13
 19012 0186 00       		.byte	0
 19013 0187 00       		.byte	0
 19014 0188 1C       		.uleb128 0x1c
 19015 0189 34       		.uleb128 0x34
 19016 018a 00       		.byte	0
 19017 018b 03       		.uleb128 0x3
 19018 018c 0E       		.uleb128 0xe
 19019 018d 3A       		.uleb128 0x3a
 19020 018e 0B       		.uleb128 0xb
 19021 018f 3B       		.uleb128 0x3b
 19022 0190 05       		.uleb128 0x5
 19023 0191 49       		.uleb128 0x49
 19024 0192 13       		.uleb128 0x13
 19025 0193 3F       		.uleb128 0x3f
 19026 0194 19       		.uleb128 0x19
 19027 0195 3C       		.uleb128 0x3c
 19028 0196 19       		.uleb128 0x19
 19029 0197 00       		.byte	0
 19030 0198 00       		.byte	0
 19031 0199 1D       		.uleb128 0x1d
 19032 019a 35       		.uleb128 0x35
 19033 019b 00       		.byte	0
 19034 019c 49       		.uleb128 0x49
 19035 019d 13       		.uleb128 0x13
 19036 019e 00       		.byte	0
 19037 019f 00       		.byte	0
 19038 01a0 1E       		.uleb128 0x1e
 19039 01a1 34       		.uleb128 0x34
 19040 01a2 00       		.byte	0
 19041 01a3 03       		.uleb128 0x3
 19042 01a4 0E       		.uleb128 0xe
 19043 01a5 3A       		.uleb128 0x3a
 19044 01a6 0B       		.uleb128 0xb
 19045 01a7 3B       		.uleb128 0x3b
 19046 01a8 0B       		.uleb128 0xb
 19047 01a9 49       		.uleb128 0x49
 19048 01aa 13       		.uleb128 0x13
 19049 01ab 3F       		.uleb128 0x3f
ARM GAS  C:\Users\diego\AppData\Local\Temp\ccwBHTp3.s 			page 377


 19050 01ac 19       		.uleb128 0x19
 19051 01ad 02       		.uleb128 0x2
 19052 01ae 18       		.uleb128 0x18
 19053 01af 00       		.byte	0
 19054 01b0 00       		.byte	0
 19055 01b1 1F       		.uleb128 0x1f
 19056 01b2 34       		.uleb128 0x34
 19057 01b3 00       		.byte	0
 19058 01b4 03       		.uleb128 0x3
 19059 01b5 08       		.uleb128 0x8
 19060 01b6 3A       		.uleb128 0x3a
 19061 01b7 0B       		.uleb128 0xb
 19062 01b8 3B       		.uleb128 0x3b
 19063 01b9 0B       		.uleb128 0xb
 19064 01ba 49       		.uleb128 0x49
 19065 01bb 13       		.uleb128 0x13
 19066 01bc 3F       		.uleb128 0x3f
 19067 01bd 19       		.uleb128 0x19
 19068 01be 02       		.uleb128 0x2
 19069 01bf 18       		.uleb128 0x18
 19070 01c0 00       		.byte	0
 19071 01c1 00       		.byte	0
 19072 01c2 20       		.uleb128 0x20
 19073 01c3 2E       		.uleb128 0x2e
 19074 01c4 01       		.byte	0x1
 19075 01c5 3F       		.uleb128 0x3f
 19076 01c6 19       		.uleb128 0x19
 19077 01c7 03       		.uleb128 0x3
 19078 01c8 0E       		.uleb128 0xe
 19079 01c9 3A       		.uleb128 0x3a
 19080 01ca 0B       		.uleb128 0xb
 19081 01cb 3B       		.uleb128 0x3b
 19082 01cc 0B       		.uleb128 0xb
 19083 01cd 27       		.uleb128 0x27
 19084 01ce 19       		.uleb128 0x19
 19085 01cf 3C       		.uleb128 0x3c
 19086 01d0 19       		.uleb128 0x19
 19087 01d1 01       		.uleb128 0x1
 19088 01d2 13       		.uleb128 0x13
 19089 01d3 00       		.byte	0
 19090 01d4 00       		.byte	0
 19091 01d5 21       		.uleb128 0x21
 19092 01d6 05       		.uleb128 0x5
 19093 01d7 00       		.byte	0
 19094 01d8 49       		.uleb128 0x49
 19095 01d9 13       		.uleb128 0x13
 19096 01da 00       		.byte	0
 19097 01db 00       		.byte	0
 19098 01dc 22       		.uleb128 0x22
 19099 01dd 2E       		.uleb128 0x2e
 19100 01de 00       		.byte	0
 19101 01df 3F       		.uleb128 0x3f
 19102 01e0 19       		.uleb128 0x19
 19103 01e1 03       		.uleb128 0x3
 19104 01e2 0E       		.uleb128 0xe
 19105 01e3 3A       		.uleb128 0x3a
 19106 01e4 0B       		.uleb128 0xb
ARM GAS  C:\Users\diego\AppData\Local\Temp\ccwBHTp3.s 			page 378


 19107 01e5 3B       		.uleb128 0x3b
 19108 01e6 0B       		.uleb128 0xb
 19109 01e7 27       		.uleb128 0x27
 19110 01e8 19       		.uleb128 0x19
 19111 01e9 49       		.uleb128 0x49
 19112 01ea 13       		.uleb128 0x13
 19113 01eb 3C       		.uleb128 0x3c
 19114 01ec 19       		.uleb128 0x19
 19115 01ed 00       		.byte	0
 19116 01ee 00       		.byte	0
 19117 01ef 23       		.uleb128 0x23
 19118 01f0 2E       		.uleb128 0x2e
 19119 01f1 00       		.byte	0
 19120 01f2 3F       		.uleb128 0x3f
 19121 01f3 19       		.uleb128 0x19
 19122 01f4 03       		.uleb128 0x3
 19123 01f5 0E       		.uleb128 0xe
 19124 01f6 3A       		.uleb128 0x3a
 19125 01f7 0B       		.uleb128 0xb
 19126 01f8 3B       		.uleb128 0x3b
 19127 01f9 0B       		.uleb128 0xb
 19128 01fa 27       		.uleb128 0x27
 19129 01fb 19       		.uleb128 0x19
 19130 01fc 3C       		.uleb128 0x3c
 19131 01fd 19       		.uleb128 0x19
 19132 01fe 00       		.byte	0
 19133 01ff 00       		.byte	0
 19134 0200 24       		.uleb128 0x24
 19135 0201 2E       		.uleb128 0x2e
 19136 0202 01       		.byte	0x1
 19137 0203 3F       		.uleb128 0x3f
 19138 0204 19       		.uleb128 0x19
 19139 0205 03       		.uleb128 0x3
 19140 0206 0E       		.uleb128 0xe
 19141 0207 3A       		.uleb128 0x3a
 19142 0208 0B       		.uleb128 0xb
 19143 0209 3B       		.uleb128 0x3b
 19144 020a 0B       		.uleb128 0xb
 19145 020b 27       		.uleb128 0x27
 19146 020c 19       		.uleb128 0x19
 19147 020d 49       		.uleb128 0x49
 19148 020e 13       		.uleb128 0x13
 19149 020f 3C       		.uleb128 0x3c
 19150 0210 19       		.uleb128 0x19
 19151 0211 01       		.uleb128 0x1
 19152 0212 13       		.uleb128 0x13
 19153 0213 00       		.byte	0
 19154 0214 00       		.byte	0
 19155 0215 25       		.uleb128 0x25
 19156 0216 2E       		.uleb128 0x2e
 19157 0217 01       		.byte	0x1
 19158 0218 3F       		.uleb128 0x3f
 19159 0219 19       		.uleb128 0x19
 19160 021a 03       		.uleb128 0x3
 19161 021b 0E       		.uleb128 0xe
 19162 021c 3A       		.uleb128 0x3a
 19163 021d 0B       		.uleb128 0xb
ARM GAS  C:\Users\diego\AppData\Local\Temp\ccwBHTp3.s 			page 379


 19164 021e 3B       		.uleb128 0x3b
 19165 021f 0B       		.uleb128 0xb
 19166 0220 27       		.uleb128 0x27
 19167 0221 19       		.uleb128 0x19
 19168 0222 3C       		.uleb128 0x3c
 19169 0223 19       		.uleb128 0x19
 19170 0224 00       		.byte	0
 19171 0225 00       		.byte	0
 19172 0226 00       		.byte	0
 19173              		.section	.debug_loc,"",%progbits
 19174              	.Ldebug_loc0:
 19175              	.LLST0:
 19176 0000 14000000 		.4byte	.LVL0
 19177 0004 18000000 		.4byte	.LVL1
 19178 0008 0200     		.2byte	0x2
 19179 000a 30       		.byte	0x30
 19180 000b 9F       		.byte	0x9f
 19181 000c 18000000 		.4byte	.LVL1
 19182 0010 AA000000 		.4byte	.LVL12
 19183 0014 0100     		.2byte	0x1
 19184 0016 54       		.byte	0x54
 19185 0017 AC000000 		.4byte	.LVL13
 19186 001b 04010000 		.4byte	.LVL19
 19187 001f 0100     		.2byte	0x1
 19188 0021 54       		.byte	0x54
 19189 0022 00000000 		.4byte	0
 19190 0026 00000000 		.4byte	0
 19191              	.LLST1:
 19192 002a 00000000 		.4byte	.LVL20
 19193 002e 05000000 		.4byte	.LVL21-1
 19194 0032 0100     		.2byte	0x1
 19195 0034 50       		.byte	0x50
 19196 0035 05000000 		.4byte	.LVL21-1
 19197 0039 26000000 		.4byte	.LFE64
 19198 003d 0400     		.2byte	0x4
 19199 003f F3       		.byte	0xf3
 19200 0040 01       		.uleb128 0x1
 19201 0041 50       		.byte	0x50
 19202 0042 9F       		.byte	0x9f
 19203 0043 00000000 		.4byte	0
 19204 0047 00000000 		.4byte	0
 19205              	.LLST2:
 19206 004b 1A000000 		.4byte	.LVL25
 19207 004f 22000000 		.4byte	.LVL27
 19208 0053 0100     		.2byte	0x1
 19209 0055 54       		.byte	0x54
 19210 0056 00000000 		.4byte	0
 19211 005a 00000000 		.4byte	0
 19212              	.LLST3:
 19213 005e 00000000 		.4byte	.LVL28
 19214 0062 0C000000 		.4byte	.LVL29
 19215 0066 0100     		.2byte	0x1
 19216 0068 50       		.byte	0x50
 19217 0069 0C000000 		.4byte	.LVL29
 19218 006d E8000000 		.4byte	.LFE65
 19219 0071 0400     		.2byte	0x4
 19220 0073 F3       		.byte	0xf3
ARM GAS  C:\Users\diego\AppData\Local\Temp\ccwBHTp3.s 			page 380


 19221 0074 01       		.uleb128 0x1
 19222 0075 50       		.byte	0x50
 19223 0076 9F       		.byte	0x9f
 19224 0077 00000000 		.4byte	0
 19225 007b 00000000 		.4byte	0
 19226              	.LLST4:
 19227 007f 40000000 		.4byte	.LVL34
 19228 0083 44000000 		.4byte	.LVL35
 19229 0087 0200     		.2byte	0x2
 19230 0089 30       		.byte	0x30
 19231 008a 9F       		.byte	0x9f
 19232 008b 44000000 		.4byte	.LVL35
 19233 008f 52000000 		.4byte	.LVL37
 19234 0093 0100     		.2byte	0x1
 19235 0095 54       		.byte	0x54
 19236 0096 54000000 		.4byte	.LVL38
 19237 009a 78000000 		.4byte	.LVL42
 19238 009e 0100     		.2byte	0x1
 19239 00a0 54       		.byte	0x54
 19240 00a1 7A000000 		.4byte	.LVL43
 19241 00a5 C2000000 		.4byte	.LVL46
 19242 00a9 0100     		.2byte	0x1
 19243 00ab 54       		.byte	0x54
 19244 00ac CA000000 		.4byte	.LVL47
 19245 00b0 DC000000 		.4byte	.LVL48
 19246 00b4 0100     		.2byte	0x1
 19247 00b6 54       		.byte	0x54
 19248 00b7 00000000 		.4byte	0
 19249 00bb 00000000 		.4byte	0
 19250              	.LLST5:
 19251 00bf 00000000 		.4byte	.LVL49
 19252 00c3 0A000000 		.4byte	.LVL51
 19253 00c7 0100     		.2byte	0x1
 19254 00c9 50       		.byte	0x50
 19255 00ca 0A000000 		.4byte	.LVL51
 19256 00ce E8010000 		.4byte	.LFE66
 19257 00d2 0400     		.2byte	0x4
 19258 00d4 F3       		.byte	0xf3
 19259 00d5 01       		.uleb128 0x1
 19260 00d6 50       		.byte	0x50
 19261 00d7 9F       		.byte	0x9f
 19262 00d8 00000000 		.4byte	0
 19263 00dc 00000000 		.4byte	0
 19264              	.LLST6:
 19265 00e0 06000000 		.4byte	.LVL50
 19266 00e4 22000000 		.4byte	.LVL55
 19267 00e8 0200     		.2byte	0x2
 19268 00ea 30       		.byte	0x30
 19269 00eb 9F       		.byte	0x9f
 19270 00ec 22000000 		.4byte	.LVL55
 19271 00f0 30000000 		.4byte	.LVL57
 19272 00f4 0100     		.2byte	0x1
 19273 00f6 55       		.byte	0x55
 19274 00f7 32000000 		.4byte	.LVL58
 19275 00fb 34000000 		.4byte	.LVL59
 19276 00ff 0100     		.2byte	0x1
 19277 0101 55       		.byte	0x55
ARM GAS  C:\Users\diego\AppData\Local\Temp\ccwBHTp3.s 			page 381


 19278 0102 34000000 		.4byte	.LVL59
 19279 0106 36000000 		.4byte	.LVL60
 19280 010a 0200     		.2byte	0x2
 19281 010c 30       		.byte	0x30
 19282 010d 9F       		.byte	0x9f
 19283 010e 36000000 		.4byte	.LVL60
 19284 0112 7C000000 		.4byte	.LVL67
 19285 0116 0100     		.2byte	0x1
 19286 0118 55       		.byte	0x55
 19287 0119 7C000000 		.4byte	.LVL67
 19288 011d 7E000000 		.4byte	.LVL68
 19289 0121 0100     		.2byte	0x1
 19290 0123 53       		.byte	0x53
 19291 0124 80000000 		.4byte	.LVL69
 19292 0128 82000000 		.4byte	.LVL70
 19293 012c 0100     		.2byte	0x1
 19294 012e 53       		.byte	0x53
 19295 012f 82000000 		.4byte	.LVL70
 19296 0133 84000000 		.4byte	.LVL71
 19297 0137 0100     		.2byte	0x1
 19298 0139 55       		.byte	0x55
 19299 013a 84000000 		.4byte	.LVL71
 19300 013e 96000000 		.4byte	.LVL72
 19301 0142 0100     		.2byte	0x1
 19302 0144 53       		.byte	0x53
 19303 0145 98000000 		.4byte	.LVL73
 19304 0149 B0000000 		.4byte	.LVL74
 19305 014d 0100     		.2byte	0x1
 19306 014f 53       		.byte	0x53
 19307 0150 B2000000 		.4byte	.LVL75
 19308 0154 C4000000 		.4byte	.LVL76
 19309 0158 0100     		.2byte	0x1
 19310 015a 53       		.byte	0x53
 19311 015b C6000000 		.4byte	.LVL77
 19312 015f D8000000 		.4byte	.LVL79
 19313 0163 0100     		.2byte	0x1
 19314 0165 53       		.byte	0x53
 19315 0166 DA000000 		.4byte	.LVL80
 19316 016a F8000000 		.4byte	.LVL84
 19317 016e 0100     		.2byte	0x1
 19318 0170 53       		.byte	0x53
 19319 0171 FA000000 		.4byte	.LVL85
 19320 0175 0C010000 		.4byte	.LVL87
 19321 0179 0100     		.2byte	0x1
 19322 017b 53       		.byte	0x53
 19323 017c 0E010000 		.4byte	.LVL88
 19324 0180 2C010000 		.4byte	.LVL92
 19325 0184 0100     		.2byte	0x1
 19326 0186 53       		.byte	0x53
 19327 0187 2E010000 		.4byte	.LVL93
 19328 018b 40010000 		.4byte	.LVL95
 19329 018f 0100     		.2byte	0x1
 19330 0191 53       		.byte	0x53
 19331 0192 42010000 		.4byte	.LVL96
 19332 0196 60010000 		.4byte	.LVL100
 19333 019a 0100     		.2byte	0x1
 19334 019c 53       		.byte	0x53
ARM GAS  C:\Users\diego\AppData\Local\Temp\ccwBHTp3.s 			page 382


 19335 019d 62010000 		.4byte	.LVL101
 19336 01a1 74010000 		.4byte	.LVL102
 19337 01a5 0100     		.2byte	0x1
 19338 01a7 53       		.byte	0x53
 19339 01a8 C8010000 		.4byte	.LVL109
 19340 01ac D0010000 		.4byte	.LVL110
 19341 01b0 0100     		.2byte	0x1
 19342 01b2 55       		.byte	0x55
 19343 01b3 D0010000 		.4byte	.LVL110
 19344 01b7 D6010000 		.4byte	.LVL111
 19345 01bb 0100     		.2byte	0x1
 19346 01bd 53       		.byte	0x53
 19347 01be 00000000 		.4byte	0
 19348 01c2 00000000 		.4byte	0
 19349              	.LLST7:
 19350 01c6 44000000 		.4byte	.LVL63
 19351 01ca 4E000000 		.4byte	.LVL64
 19352 01ce 0200     		.2byte	0x2
 19353 01d0 40       		.byte	0x40
 19354 01d1 9F       		.byte	0x9f
 19355 01d2 4E000000 		.4byte	.LVL64
 19356 01d6 56000000 		.4byte	.LVL65
 19357 01da 0100     		.2byte	0x1
 19358 01dc 54       		.byte	0x54
 19359 01dd 56000000 		.4byte	.LVL65
 19360 01e1 74000000 		.4byte	.LVL66
 19361 01e5 0100     		.2byte	0x1
 19362 01e7 53       		.byte	0x53
 19363 01e8 C8010000 		.4byte	.LVL109
 19364 01ec D0010000 		.4byte	.LVL110
 19365 01f0 0100     		.2byte	0x1
 19366 01f2 53       		.byte	0x53
 19367 01f3 00000000 		.4byte	0
 19368 01f7 00000000 		.4byte	0
 19369              	.LLST8:
 19370 01fb C6000000 		.4byte	.LVL77
 19371 01ff CA000000 		.4byte	.LVL78
 19372 0203 0200     		.2byte	0x2
 19373 0205 31       		.byte	0x31
 19374 0206 9F       		.byte	0x9f
 19375 0207 CA000000 		.4byte	.LVL78
 19376 020b DC000000 		.4byte	.LVL81
 19377 020f 0100     		.2byte	0x1
 19378 0211 52       		.byte	0x52
 19379 0212 DE000000 		.4byte	.LVL82
 19380 0216 F0000000 		.4byte	.LVL83
 19381 021a 0100     		.2byte	0x1
 19382 021c 52       		.byte	0x52
 19383 021d FA000000 		.4byte	.LVL85
 19384 0221 FE000000 		.4byte	.LVL86
 19385 0225 0200     		.2byte	0x2
 19386 0227 31       		.byte	0x31
 19387 0228 9F       		.byte	0x9f
 19388 0229 FE000000 		.4byte	.LVL86
 19389 022d 10010000 		.4byte	.LVL89
 19390 0231 0100     		.2byte	0x1
 19391 0233 52       		.byte	0x52
ARM GAS  C:\Users\diego\AppData\Local\Temp\ccwBHTp3.s 			page 383


 19392 0234 12010000 		.4byte	.LVL90
 19393 0238 24010000 		.4byte	.LVL91
 19394 023c 0100     		.2byte	0x1
 19395 023e 52       		.byte	0x52
 19396 023f 2E010000 		.4byte	.LVL93
 19397 0243 32010000 		.4byte	.LVL94
 19398 0247 0200     		.2byte	0x2
 19399 0249 31       		.byte	0x31
 19400 024a 9F       		.byte	0x9f
 19401 024b 32010000 		.4byte	.LVL94
 19402 024f 44010000 		.4byte	.LVL97
 19403 0253 0100     		.2byte	0x1
 19404 0255 52       		.byte	0x52
 19405 0256 46010000 		.4byte	.LVL98
 19406 025a 58010000 		.4byte	.LVL99
 19407 025e 0100     		.2byte	0x1
 19408 0260 52       		.byte	0x52
 19409 0261 00000000 		.4byte	0
 19410 0265 00000000 		.4byte	0
 19411              	.LLST9:
 19412 0269 00000000 		.4byte	.LVL112
 19413 026d 0C000000 		.4byte	.LVL113
 19414 0271 0100     		.2byte	0x1
 19415 0273 50       		.byte	0x50
 19416 0274 0C000000 		.4byte	.LVL113
 19417 0278 B8320000 		.4byte	.LFE67
 19418 027c 0400     		.2byte	0x4
 19419 027e F3       		.byte	0xf3
 19420 027f 01       		.uleb128 0x1
 19421 0280 50       		.byte	0x50
 19422 0281 9F       		.byte	0x9f
 19423 0282 00000000 		.4byte	0
 19424 0286 00000000 		.4byte	0
 19425              	.LLST10:
 19426 028a 00000000 		.4byte	.LVL112
 19427 028e 0F000000 		.4byte	.LVL114-1
 19428 0292 0100     		.2byte	0x1
 19429 0294 51       		.byte	0x51
 19430 0295 0F000000 		.4byte	.LVL114-1
 19431 0299 B8320000 		.4byte	.LFE67
 19432 029d 0400     		.2byte	0x4
 19433 029f F3       		.byte	0xf3
 19434 02a0 01       		.uleb128 0x1
 19435 02a1 51       		.byte	0x51
 19436 02a2 9F       		.byte	0x9f
 19437 02a3 00000000 		.4byte	0
 19438 02a7 00000000 		.4byte	0
 19439              	.LLST11:
 19440 02ab 00000000 		.4byte	.LVL579
 19441 02af 1E040000 		.4byte	.LVL679
 19442 02b3 0100     		.2byte	0x1
 19443 02b5 50       		.byte	0x50
 19444 02b6 1E040000 		.4byte	.LVL679
 19445 02ba 68040000 		.4byte	.LVL691
 19446 02be 0400     		.2byte	0x4
 19447 02c0 F3       		.byte	0xf3
 19448 02c1 01       		.uleb128 0x1
ARM GAS  C:\Users\diego\AppData\Local\Temp\ccwBHTp3.s 			page 384


 19449 02c2 50       		.byte	0x50
 19450 02c3 9F       		.byte	0x9f
 19451 02c4 68040000 		.4byte	.LVL691
 19452 02c8 6C040000 		.4byte	.LVL693
 19453 02cc 0100     		.2byte	0x1
 19454 02ce 50       		.byte	0x50
 19455 02cf 6C040000 		.4byte	.LVL693
 19456 02d3 84040000 		.4byte	.LFE68
 19457 02d7 0400     		.2byte	0x4
 19458 02d9 F3       		.byte	0xf3
 19459 02da 01       		.uleb128 0x1
 19460 02db 50       		.byte	0x50
 19461 02dc 9F       		.byte	0x9f
 19462 02dd 00000000 		.4byte	0
 19463 02e1 00000000 		.4byte	0
 19464              	.LLST12:
 19465 02e5 00000000 		.4byte	.LVL579
 19466 02e9 7C030000 		.4byte	.LVL660
 19467 02ed 0100     		.2byte	0x1
 19468 02ef 51       		.byte	0x51
 19469 02f0 7C030000 		.4byte	.LVL660
 19470 02f4 16040000 		.4byte	.LVL676
 19471 02f8 0400     		.2byte	0x4
 19472 02fa F3       		.byte	0xf3
 19473 02fb 01       		.uleb128 0x1
 19474 02fc 51       		.byte	0x51
 19475 02fd 9F       		.byte	0x9f
 19476 02fe 16040000 		.4byte	.LVL676
 19477 0302 18040000 		.4byte	.LVL677
 19478 0306 0100     		.2byte	0x1
 19479 0308 51       		.byte	0x51
 19480 0309 18040000 		.4byte	.LVL677
 19481 030d 68040000 		.4byte	.LVL691
 19482 0311 0400     		.2byte	0x4
 19483 0313 F3       		.byte	0xf3
 19484 0314 01       		.uleb128 0x1
 19485 0315 51       		.byte	0x51
 19486 0316 9F       		.byte	0x9f
 19487 0317 68040000 		.4byte	.LVL691
 19488 031b 6C040000 		.4byte	.LVL693
 19489 031f 0100     		.2byte	0x1
 19490 0321 51       		.byte	0x51
 19491 0322 6C040000 		.4byte	.LVL693
 19492 0326 84040000 		.4byte	.LFE68
 19493 032a 0400     		.2byte	0x4
 19494 032c F3       		.byte	0xf3
 19495 032d 01       		.uleb128 0x1
 19496 032e 51       		.byte	0x51
 19497 032f 9F       		.byte	0x9f
 19498 0330 00000000 		.4byte	0
 19499 0334 00000000 		.4byte	0
 19500              	.LLST13:
 19501 0338 00000000 		.4byte	.LVL579
 19502 033c BC030000 		.4byte	.LVL666
 19503 0340 0100     		.2byte	0x1
 19504 0342 52       		.byte	0x52
 19505 0343 BC030000 		.4byte	.LVL666
ARM GAS  C:\Users\diego\AppData\Local\Temp\ccwBHTp3.s 			page 385


 19506 0347 16040000 		.4byte	.LVL676
 19507 034b 0400     		.2byte	0x4
 19508 034d F3       		.byte	0xf3
 19509 034e 01       		.uleb128 0x1
 19510 034f 52       		.byte	0x52
 19511 0350 9F       		.byte	0x9f
 19512 0351 16040000 		.4byte	.LVL676
 19513 0355 18040000 		.4byte	.LVL677
 19514 0359 0100     		.2byte	0x1
 19515 035b 52       		.byte	0x52
 19516 035c 18040000 		.4byte	.LVL677
 19517 0360 68040000 		.4byte	.LVL691
 19518 0364 0400     		.2byte	0x4
 19519 0366 F3       		.byte	0xf3
 19520 0367 01       		.uleb128 0x1
 19521 0368 52       		.byte	0x52
 19522 0369 9F       		.byte	0x9f
 19523 036a 68040000 		.4byte	.LVL691
 19524 036e 6C040000 		.4byte	.LVL693
 19525 0372 0100     		.2byte	0x1
 19526 0374 52       		.byte	0x52
 19527 0375 6C040000 		.4byte	.LVL693
 19528 0379 84040000 		.4byte	.LFE68
 19529 037d 0400     		.2byte	0x4
 19530 037f F3       		.byte	0xf3
 19531 0380 01       		.uleb128 0x1
 19532 0381 52       		.byte	0x52
 19533 0382 9F       		.byte	0x9f
 19534 0383 00000000 		.4byte	0
 19535 0387 00000000 		.4byte	0
 19536              	.LLST14:
 19537 038b 00000000 		.4byte	.LVL579
 19538 038f 64030000 		.4byte	.LVL658
 19539 0393 0100     		.2byte	0x1
 19540 0395 53       		.byte	0x53
 19541 0396 64030000 		.4byte	.LVL658
 19542 039a 16040000 		.4byte	.LVL676
 19543 039e 0400     		.2byte	0x4
 19544 03a0 F3       		.byte	0xf3
 19545 03a1 01       		.uleb128 0x1
 19546 03a2 53       		.byte	0x53
 19547 03a3 9F       		.byte	0x9f
 19548 03a4 16040000 		.4byte	.LVL676
 19549 03a8 18040000 		.4byte	.LVL677
 19550 03ac 0100     		.2byte	0x1
 19551 03ae 53       		.byte	0x53
 19552 03af 18040000 		.4byte	.LVL677
 19553 03b3 68040000 		.4byte	.LVL691
 19554 03b7 0400     		.2byte	0x4
 19555 03b9 F3       		.byte	0xf3
 19556 03ba 01       		.uleb128 0x1
 19557 03bb 53       		.byte	0x53
 19558 03bc 9F       		.byte	0x9f
 19559 03bd 68040000 		.4byte	.LVL691
 19560 03c1 6A040000 		.4byte	.LVL692
 19561 03c5 0100     		.2byte	0x1
 19562 03c7 53       		.byte	0x53
ARM GAS  C:\Users\diego\AppData\Local\Temp\ccwBHTp3.s 			page 386


 19563 03c8 6A040000 		.4byte	.LVL692
 19564 03cc 84040000 		.4byte	.LFE68
 19565 03d0 0400     		.2byte	0x4
 19566 03d2 F3       		.byte	0xf3
 19567 03d3 01       		.uleb128 0x1
 19568 03d4 53       		.byte	0x53
 19569 03d5 9F       		.byte	0x9f
 19570 03d6 00000000 		.4byte	0
 19571 03da 00000000 		.4byte	0
 19572              	.LLST15:
 19573 03de 66010000 		.4byte	.LVL611
 19574 03e2 B0010000 		.4byte	.LVL617
 19575 03e6 0200     		.2byte	0x2
 19576 03e8 3D       		.byte	0x3d
 19577 03e9 9F       		.byte	0x9f
 19578 03ea B0010000 		.4byte	.LVL617
 19579 03ee B4010000 		.4byte	.LVL618
 19580 03f2 0200     		.2byte	0x2
 19581 03f4 3C       		.byte	0x3c
 19582 03f5 9F       		.byte	0x9f
 19583 03f6 B4010000 		.4byte	.LVL618
 19584 03fa B6010000 		.4byte	.LVL619
 19585 03fe 0200     		.2byte	0x2
 19586 0400 3D       		.byte	0x3d
 19587 0401 9F       		.byte	0x9f
 19588 0402 B6010000 		.4byte	.LVL619
 19589 0406 E0010000 		.4byte	.LVL623
 19590 040a 0100     		.2byte	0x1
 19591 040c 56       		.byte	0x56
 19592 040d 7E020000 		.4byte	.LVL638
 19593 0411 80020000 		.4byte	.LVL639
 19594 0415 0200     		.2byte	0x2
 19595 0417 3E       		.byte	0x3e
 19596 0418 9F       		.byte	0x9f
 19597 0419 80020000 		.4byte	.LVL639
 19598 041d B0020000 		.4byte	.LVL642
 19599 0421 0100     		.2byte	0x1
 19600 0423 56       		.byte	0x56
 19601 0424 5E030000 		.4byte	.LVL657
 19602 0428 12040000 		.4byte	.LVL675
 19603 042c 0200     		.2byte	0x2
 19604 042e 3F       		.byte	0x3f
 19605 042f 9F       		.byte	0x9f
 19606 0430 12040000 		.4byte	.LVL675
 19607 0434 16040000 		.4byte	.LVL676
 19608 0438 0200     		.2byte	0x2
 19609 043a 41       		.byte	0x41
 19610 043b 9F       		.byte	0x9f
 19611 043c 16040000 		.4byte	.LVL676
 19612 0440 18040000 		.4byte	.LVL677
 19613 0444 0200     		.2byte	0x2
 19614 0446 3F       		.byte	0x3f
 19615 0447 9F       		.byte	0x9f
 19616 0448 1A040000 		.4byte	.LVL678
 19617 044c 68040000 		.4byte	.LVL691
 19618 0450 0100     		.2byte	0x1
 19619 0452 56       		.byte	0x56
ARM GAS  C:\Users\diego\AppData\Local\Temp\ccwBHTp3.s 			page 387


 19620 0453 6C040000 		.4byte	.LVL693
 19621 0457 76040000 		.4byte	.LVL695
 19622 045b 0100     		.2byte	0x1
 19623 045d 56       		.byte	0x56
 19624 045e 00000000 		.4byte	0
 19625 0462 00000000 		.4byte	0
 19626              	.LLST16:
 19627 0466 14000000 		.4byte	.LVL580
 19628 046a 34000000 		.4byte	.LVL581
 19629 046e 0200     		.2byte	0x2
 19630 0470 34       		.byte	0x34
 19631 0471 9F       		.byte	0x9f
 19632 0472 34000000 		.4byte	.LVL581
 19633 0476 94020000 		.4byte	.LVL640
 19634 047a 0100     		.2byte	0x1
 19635 047c 5E       		.byte	0x5e
 19636 047d 68040000 		.4byte	.LVL691
 19637 0481 6C040000 		.4byte	.LVL693
 19638 0485 0100     		.2byte	0x1
 19639 0487 5E       		.byte	0x5e
 19640 0488 00000000 		.4byte	0
 19641 048c 00000000 		.4byte	0
 19642              	.LLST17:
 19643 0490 58000000 		.4byte	.LVL584
 19644 0494 5E000000 		.4byte	.LVL585
 19645 0498 0200     		.2byte	0x2
 19646 049a 31       		.byte	0x31
 19647 049b 9F       		.byte	0x9f
 19648 049c 5E000000 		.4byte	.LVL585
 19649 04a0 7C000000 		.4byte	.LVL590
 19650 04a4 0100     		.2byte	0x1
 19651 04a6 54       		.byte	0x54
 19652 04a7 7E000000 		.4byte	.LVL591
 19653 04ab 96000000 		.4byte	.LVL594
 19654 04af 0100     		.2byte	0x1
 19655 04b1 54       		.byte	0x54
 19656 04b2 C4000000 		.4byte	.LVL595
 19657 04b6 C8000000 		.4byte	.LVL596
 19658 04ba 0200     		.2byte	0x2
 19659 04bc 35       		.byte	0x35
 19660 04bd 9F       		.byte	0x9f
 19661 04be C8000000 		.4byte	.LVL596
 19662 04c2 D4000000 		.4byte	.LVL597
 19663 04c6 0100     		.2byte	0x1
 19664 04c8 54       		.byte	0x54
 19665 04c9 D6000000 		.4byte	.LVL598
 19666 04cd E6000000 		.4byte	.LVL599
 19667 04d1 0100     		.2byte	0x1
 19668 04d3 54       		.byte	0x54
 19669 04d4 0E010000 		.4byte	.LVL602
 19670 04d8 1C010000 		.4byte	.LVL603
 19671 04dc 0100     		.2byte	0x1
 19672 04de 54       		.byte	0x54
 19673 04df 1E010000 		.4byte	.LVL604
 19674 04e3 24010000 		.4byte	.LVL605
 19675 04e7 0100     		.2byte	0x1
 19676 04e9 54       		.byte	0x54
ARM GAS  C:\Users\diego\AppData\Local\Temp\ccwBHTp3.s 			page 388


 19677 04ea 2E010000 		.4byte	.LVL606
 19678 04ee 30010000 		.4byte	.LVL607
 19679 04f2 0200     		.2byte	0x2
 19680 04f4 30       		.byte	0x30
 19681 04f5 9F       		.byte	0x9f
 19682 04f6 30010000 		.4byte	.LVL607
 19683 04fa 48010000 		.4byte	.LVL608
 19684 04fe 0100     		.2byte	0x1
 19685 0500 54       		.byte	0x54
 19686 0501 4A010000 		.4byte	.LVL609
 19687 0505 52010000 		.4byte	.LVL610
 19688 0509 0100     		.2byte	0x1
 19689 050b 54       		.byte	0x54
 19690 050c 78010000 		.4byte	.LVL612
 19691 0510 7A010000 		.4byte	.LVL613
 19692 0514 0200     		.2byte	0x2
 19693 0516 30       		.byte	0x30
 19694 0517 9F       		.byte	0x9f
 19695 0518 7A010000 		.4byte	.LVL613
 19696 051c 92010000 		.4byte	.LVL614
 19697 0520 0100     		.2byte	0x1
 19698 0522 54       		.byte	0x54
 19699 0523 94010000 		.4byte	.LVL615
 19700 0527 9C010000 		.4byte	.LVL616
 19701 052b 0100     		.2byte	0x1
 19702 052d 54       		.byte	0x54
 19703 052e DC010000 		.4byte	.LVL622
 19704 0532 E0010000 		.4byte	.LVL623
 19705 0536 0200     		.2byte	0x2
 19706 0538 37       		.byte	0x37
 19707 0539 9F       		.byte	0x9f
 19708 053a E0010000 		.4byte	.LVL623
 19709 053e EC010000 		.4byte	.LVL624
 19710 0542 0100     		.2byte	0x1
 19711 0544 54       		.byte	0x54
 19712 0545 EE010000 		.4byte	.LVL625
 19713 0549 FE010000 		.4byte	.LVL626
 19714 054d 0100     		.2byte	0x1
 19715 054f 54       		.byte	0x54
 19716 0550 28020000 		.4byte	.LVL629
 19717 0554 34020000 		.4byte	.LVL630
 19718 0558 0100     		.2byte	0x1
 19719 055a 54       		.byte	0x54
 19720 055b 36020000 		.4byte	.LVL631
 19721 055f 3C020000 		.4byte	.LVL632
 19722 0563 0100     		.2byte	0x1
 19723 0565 54       		.byte	0x54
 19724 0566 46020000 		.4byte	.LVL633
 19725 056a 48020000 		.4byte	.LVL634
 19726 056e 0200     		.2byte	0x2
 19727 0570 30       		.byte	0x30
 19728 0571 9F       		.byte	0x9f
 19729 0572 48020000 		.4byte	.LVL634
 19730 0576 60020000 		.4byte	.LVL635
 19731 057a 0100     		.2byte	0x1
 19732 057c 54       		.byte	0x54
 19733 057d 62020000 		.4byte	.LVL636
ARM GAS  C:\Users\diego\AppData\Local\Temp\ccwBHTp3.s 			page 389


 19734 0581 6A020000 		.4byte	.LVL637
 19735 0585 0100     		.2byte	0x1
 19736 0587 54       		.byte	0x54
 19737 0588 AC020000 		.4byte	.LVL641
 19738 058c B0020000 		.4byte	.LVL642
 19739 0590 0200     		.2byte	0x2
 19740 0592 35       		.byte	0x35
 19741 0593 9F       		.byte	0x9f
 19742 0594 B0020000 		.4byte	.LVL642
 19743 0598 BC020000 		.4byte	.LVL643
 19744 059c 0100     		.2byte	0x1
 19745 059e 54       		.byte	0x54
 19746 059f BE020000 		.4byte	.LVL644
 19747 05a3 D0020000 		.4byte	.LVL645
 19748 05a7 0100     		.2byte	0x1
 19749 05a9 54       		.byte	0x54
 19750 05aa F8020000 		.4byte	.LVL648
 19751 05ae 06030000 		.4byte	.LVL649
 19752 05b2 0100     		.2byte	0x1
 19753 05b4 54       		.byte	0x54
 19754 05b5 08030000 		.4byte	.LVL650
 19755 05b9 0E030000 		.4byte	.LVL651
 19756 05bd 0100     		.2byte	0x1
 19757 05bf 54       		.byte	0x54
 19758 05c0 18030000 		.4byte	.LVL652
 19759 05c4 28030000 		.4byte	.LVL653
 19760 05c8 0200     		.2byte	0x2
 19761 05ca 30       		.byte	0x30
 19762 05cb 9F       		.byte	0x9f
 19763 05cc 28030000 		.4byte	.LVL653
 19764 05d0 40030000 		.4byte	.LVL654
 19765 05d4 0100     		.2byte	0x1
 19766 05d6 54       		.byte	0x54
 19767 05d7 42030000 		.4byte	.LVL655
 19768 05db 4A030000 		.4byte	.LVL656
 19769 05df 0100     		.2byte	0x1
 19770 05e1 54       		.byte	0x54
 19771 05e2 78030000 		.4byte	.LVL659
 19772 05e6 7C030000 		.4byte	.LVL660
 19773 05ea 0200     		.2byte	0x2
 19774 05ec 37       		.byte	0x37
 19775 05ed 9F       		.byte	0x9f
 19776 05ee 7C030000 		.4byte	.LVL660
 19777 05f2 88030000 		.4byte	.LVL661
 19778 05f6 0100     		.2byte	0x1
 19779 05f8 53       		.byte	0x53
 19780 05f9 8A030000 		.4byte	.LVL662
 19781 05fd 9A030000 		.4byte	.LVL663
 19782 0601 0100     		.2byte	0x1
 19783 0603 53       		.byte	0x53
 19784 0604 BC030000 		.4byte	.LVL666
 19785 0608 C8030000 		.4byte	.LVL667
 19786 060c 0100     		.2byte	0x1
 19787 060e 53       		.byte	0x53
 19788 060f CA030000 		.4byte	.LVL668
 19789 0613 D0030000 		.4byte	.LVL669
 19790 0617 0100     		.2byte	0x1
ARM GAS  C:\Users\diego\AppData\Local\Temp\ccwBHTp3.s 			page 390


 19791 0619 53       		.byte	0x53
 19792 061a DA030000 		.4byte	.LVL670
 19793 061e DC030000 		.4byte	.LVL671
 19794 0622 0200     		.2byte	0x2
 19795 0624 30       		.byte	0x30
 19796 0625 9F       		.byte	0x9f
 19797 0626 DC030000 		.4byte	.LVL671
 19798 062a F4030000 		.4byte	.LVL672
 19799 062e 0100     		.2byte	0x1
 19800 0630 53       		.byte	0x53
 19801 0631 F6030000 		.4byte	.LVL673
 19802 0635 FE030000 		.4byte	.LVL674
 19803 0639 0100     		.2byte	0x1
 19804 063b 53       		.byte	0x53
 19805 063c 3E040000 		.4byte	.LVL684
 19806 0640 42040000 		.4byte	.LVL685
 19807 0644 0200     		.2byte	0x2
 19808 0646 30       		.byte	0x30
 19809 0647 9F       		.byte	0x9f
 19810 0648 42040000 		.4byte	.LVL685
 19811 064c 50040000 		.4byte	.LVL687
 19812 0650 0100     		.2byte	0x1
 19813 0652 55       		.byte	0x55
 19814 0653 52040000 		.4byte	.LVL688
 19815 0657 68040000 		.4byte	.LVL691
 19816 065b 0100     		.2byte	0x1
 19817 065d 55       		.byte	0x55
 19818 065e 68040000 		.4byte	.LVL691
 19819 0662 6C040000 		.4byte	.LVL693
 19820 0666 0100     		.2byte	0x1
 19821 0668 54       		.byte	0x54
 19822 0669 74040000 		.4byte	.LVL694
 19823 066d 76040000 		.4byte	.LVL695
 19824 0671 0100     		.2byte	0x1
 19825 0673 55       		.byte	0x55
 19826 0674 00000000 		.4byte	0
 19827 0678 00000000 		.4byte	0
 19828              	.LLST18:
 19829 067c E6000000 		.4byte	.LVL599
 19830 0680 00010000 		.4byte	.LVL600
 19831 0684 0100     		.2byte	0x1
 19832 0686 54       		.byte	0x54
 19833 0687 02010000 		.4byte	.LVL601
 19834 068b 0E010000 		.4byte	.LVL602
 19835 068f 0100     		.2byte	0x1
 19836 0691 54       		.byte	0x54
 19837 0692 FE010000 		.4byte	.LVL626
 19838 0696 18020000 		.4byte	.LVL627
 19839 069a 0100     		.2byte	0x1
 19840 069c 54       		.byte	0x54
 19841 069d 1A020000 		.4byte	.LVL628
 19842 06a1 28020000 		.4byte	.LVL629
 19843 06a5 0100     		.2byte	0x1
 19844 06a7 54       		.byte	0x54
 19845 06a8 D0020000 		.4byte	.LVL645
 19846 06ac EA020000 		.4byte	.LVL646
 19847 06b0 0100     		.2byte	0x1
ARM GAS  C:\Users\diego\AppData\Local\Temp\ccwBHTp3.s 			page 391


 19848 06b2 54       		.byte	0x54
 19849 06b3 EC020000 		.4byte	.LVL647
 19850 06b7 F8020000 		.4byte	.LVL648
 19851 06bb 0100     		.2byte	0x1
 19852 06bd 54       		.byte	0x54
 19853 06be 9A030000 		.4byte	.LVL663
 19854 06c2 B2030000 		.4byte	.LVL664
 19855 06c6 0100     		.2byte	0x1
 19856 06c8 53       		.byte	0x53
 19857 06c9 B4030000 		.4byte	.LVL665
 19858 06cd BC030000 		.4byte	.LVL666
 19859 06d1 0100     		.2byte	0x1
 19860 06d3 53       		.byte	0x53
 19861 06d4 00000000 		.4byte	0
 19862 06d8 00000000 		.4byte	0
 19863              	.LLST19:
 19864 06dc 14000000 		.4byte	.LVL580
 19865 06e0 5E000000 		.4byte	.LVL585
 19866 06e4 0200     		.2byte	0x2
 19867 06e6 30       		.byte	0x30
 19868 06e7 9F       		.byte	0x9f
 19869 06e8 5E000000 		.4byte	.LVL585
 19870 06ec 62000000 		.4byte	.LVL586
 19871 06f0 0100     		.2byte	0x1
 19872 06f2 55       		.byte	0x55
 19873 06f3 64000000 		.4byte	.LVL587
 19874 06f7 72000000 		.4byte	.LVL588
 19875 06fb 0100     		.2byte	0x1
 19876 06fd 55       		.byte	0x55
 19877 06fe 74000000 		.4byte	.LVL589
 19878 0702 88000000 		.4byte	.LVL592
 19879 0706 0100     		.2byte	0x1
 19880 0708 55       		.byte	0x55
 19881 0709 8A000000 		.4byte	.LVL593
 19882 070d C4010000 		.4byte	.LVL620
 19883 0711 0100     		.2byte	0x1
 19884 0713 55       		.byte	0x55
 19885 0714 C6010000 		.4byte	.LVL621
 19886 0718 D0020000 		.4byte	.LVL645
 19887 071c 0100     		.2byte	0x1
 19888 071e 55       		.byte	0x55
 19889 071f 68040000 		.4byte	.LVL691
 19890 0723 6C040000 		.4byte	.LVL693
 19891 0727 0100     		.2byte	0x1
 19892 0729 55       		.byte	0x55
 19893 072a 00000000 		.4byte	0
 19894 072e 00000000 		.4byte	0
 19895              	.LLST20:
 19896 0732 00000000 		.4byte	.LVL696
 19897 0736 CE000000 		.4byte	.LVL697
 19898 073a 0100     		.2byte	0x1
 19899 073c 50       		.byte	0x50
 19900 073d CE000000 		.4byte	.LVL697
 19901 0741 C4020000 		.4byte	.LFE69
 19902 0745 0400     		.2byte	0x4
 19903 0747 F3       		.byte	0xf3
 19904 0748 01       		.uleb128 0x1
ARM GAS  C:\Users\diego\AppData\Local\Temp\ccwBHTp3.s 			page 392


 19905 0749 50       		.byte	0x50
 19906 074a 9F       		.byte	0x9f
 19907 074b 00000000 		.4byte	0
 19908 074f 00000000 		.4byte	0
 19909              	.LLST21:
 19910 0753 62010000 		.4byte	.LVL698
 19911 0757 38020000 		.4byte	.LVL699
 19912 075b 0200     		.2byte	0x2
 19913 075d 3C       		.byte	0x3c
 19914 075e 9F       		.byte	0x9f
 19915 075f 38020000 		.4byte	.LVL699
 19916 0763 3C020000 		.4byte	.LVL700
 19917 0767 0200     		.2byte	0x2
 19918 0769 3E       		.byte	0x3e
 19919 076a 9F       		.byte	0x9f
 19920 076b 3C020000 		.4byte	.LVL700
 19921 076f 3E020000 		.4byte	.LVL701
 19922 0773 0200     		.2byte	0x2
 19923 0775 3C       		.byte	0x3c
 19924 0776 9F       		.byte	0x9f
 19925 0777 3E020000 		.4byte	.LVL701
 19926 077b A8020000 		.4byte	.LVL710
 19927 077f 0100     		.2byte	0x1
 19928 0781 55       		.byte	0x55
 19929 0782 00000000 		.4byte	0
 19930 0786 00000000 		.4byte	0
 19931              		.section	.debug_aranges,"",%progbits
 19932 0000 4C000000 		.4byte	0x4c
 19933 0004 0200     		.2byte	0x2
 19934 0006 00000000 		.4byte	.Ldebug_info0
 19935 000a 04       		.byte	0x4
 19936 000b 00       		.byte	0
 19937 000c 0000     		.2byte	0
 19938 000e 0000     		.2byte	0
 19939 0010 00000000 		.4byte	.LFB63
 19940 0014 14010000 		.4byte	.LFE63-.LFB63
 19941 0018 00000000 		.4byte	.LFB64
 19942 001c 26000000 		.4byte	.LFE64-.LFB64
 19943 0020 00000000 		.4byte	.LFB65
 19944 0024 E8000000 		.4byte	.LFE65-.LFB65
 19945 0028 00000000 		.4byte	.LFB66
 19946 002c E8010000 		.4byte	.LFE66-.LFB66
 19947 0030 00000000 		.4byte	.LFB67
 19948 0034 B8320000 		.4byte	.LFE67-.LFB67
 19949 0038 00000000 		.4byte	.LFB68
 19950 003c 84040000 		.4byte	.LFE68-.LFB68
 19951 0040 00000000 		.4byte	.LFB69
 19952 0044 C4020000 		.4byte	.LFE69-.LFB69
 19953 0048 00000000 		.4byte	0
 19954 004c 00000000 		.4byte	0
 19955              		.section	.debug_ranges,"",%progbits
 19956              	.Ldebug_ranges0:
 19957 0000 00000000 		.4byte	.LFB63
 19958 0004 14010000 		.4byte	.LFE63
 19959 0008 00000000 		.4byte	.LFB64
 19960 000c 26000000 		.4byte	.LFE64
 19961 0010 00000000 		.4byte	.LFB65
ARM GAS  C:\Users\diego\AppData\Local\Temp\ccwBHTp3.s 			page 393


 19962 0014 E8000000 		.4byte	.LFE65
 19963 0018 00000000 		.4byte	.LFB66
 19964 001c E8010000 		.4byte	.LFE66
 19965 0020 00000000 		.4byte	.LFB67
 19966 0024 B8320000 		.4byte	.LFE67
 19967 0028 00000000 		.4byte	.LFB68
 19968 002c 84040000 		.4byte	.LFE68
 19969 0030 00000000 		.4byte	.LFB69
 19970 0034 C4020000 		.4byte	.LFE69
 19971 0038 00000000 		.4byte	0
 19972 003c 00000000 		.4byte	0
 19973              		.section	.debug_line,"",%progbits
 19974              	.Ldebug_line0:
 19975 0000 98160000 		.section	.debug_str,"MS",%progbits,1
 19975      02009101 
 19975      00000201 
 19975      FB0E0D00 
 19975      01010101 
 19976              	.LASF26:
 19977 0000 70617373 		.ascii	"password\000"
 19977      776F7264 
 19977      00
 19978              	.LASF66:
 19979 0009 666C756A 		.ascii	"flujo_LCD2\000"
 19979      6F5F4C43 
 19979      443200
 19980              	.LASF31:
 19981 0014 66756E63 		.ascii	"funcion\000"
 19981      696F6E00 
 19982              	.LASF68:
 19983 001c 666C756A 		.ascii	"flujo_LCD4\000"
 19983      6F5F4C43 
 19983      443400
 19984              	.LASF74:
 19985 0027 76657273 		.ascii	"versurt\000"
 19985      75727400 
 19986              	.LASF28:
 19987 002f 62756666 		.ascii	"buffer\000"
 19987      657200
 19988              	.LASF8:
 19989 0036 756E7369 		.ascii	"unsigned int\000"
 19989      676E6564 
 19989      20696E74 
 19989      00
 19990              	.LASF98:
 19991 0043 636F7069 		.ascii	"copia_recibo2\000"
 19991      615F7265 
 19991      6369626F 
 19991      3200
 19992              	.LASF9:
 19993 0051 5F5F696E 		.ascii	"__int32_t\000"
 19993      7433325F 
 19993      7400
 19994              	.LASF24:
 19995 005b 706F7376 		.ascii	"posventa\000"
 19995      656E7461 
 19995      00
ARM GAS  C:\Users\diego\AppData\Local\Temp\ccwBHTp3.s 			page 394


 19996              	.LASF86:
 19997 0064 7465636C 		.ascii	"teclado2\000"
 19997      61646F32 
 19997      00
 19998              	.LASF131:
 19999 006d 67726164 		.ascii	"grado2\000"
 19999      6F3200
 20000              	.LASF132:
 20001 0074 67726164 		.ascii	"grado3\000"
 20001      6F3300
 20002              	.LASF133:
 20003 007b 67726164 		.ascii	"grado4\000"
 20003      6F3400
 20004              	.LASF129:
 20005 0082 6D6F6475 		.ascii	"modulo\000"
 20005      6C6F00
 20006              	.LASF153:
 20007 0089 433A5C55 		.ascii	"C:\\Users\\diego\\Documents\\Insepet\\Prime-GRP700\\"
 20007      73657273 
 20007      5C646965 
 20007      676F5C44 
 20007      6F63756D 
 20008 00b7 576F726B 		.ascii	"Workspace01\\PGRP700.cydsn\000"
 20008      73706163 
 20008      6530315C 
 20008      50475250 
 20008      3730302E 
 20009              	.LASF79:
 20010 00d1 70726F64 		.ascii	"producto1b\000"
 20010      7563746F 
 20010      316200
 20011              	.LASF130:
 20012 00dc 67726164 		.ascii	"grado1\000"
 20012      6F3100
 20013              	.LASF101:
 20014 00e3 70726F64 		.ascii	"producto1n\000"
 20014      7563746F 
 20014      316E00
 20015              	.LASF19:
 20016 00ee 636F6D61 		.ascii	"comando\000"
 20016      6E646F00 
 20017              	.LASF61:
 20018 00f6 64656369 		.ascii	"decimal\000"
 20018      6D616C00 
 20019              	.LASF114:
 20020 00fe 65737461 		.ascii	"estado_lcd1\000"
 20020      646F5F6C 
 20020      63643100 
 20021              	.LASF115:
 20022 010a 65737461 		.ascii	"estado_lcd2\000"
 20022      646F5F6C 
 20022      63643200 
 20023              	.LASF145:
 20024 0116 77726974 		.ascii	"write_eeprom\000"
 20024      655F6565 
 20024      70726F6D 
 20024      00
ARM GAS  C:\Users\diego\AppData\Local\Temp\ccwBHTp3.s 			page 395


 20025              	.LASF140:
 20026 0123 6D736E5F 		.ascii	"msn_totalcero\000"
 20026      746F7461 
 20026      6C636572 
 20026      6F00
 20027              	.LASF40:
 20028 0131 686F7261 		.ascii	"hora\000"
 20028      00
 20029              	.LASF70:
 20030 0136 7465636C 		.ascii	"teclas1\000"
 20030      61733100 
 20031              	.LASF71:
 20032 013e 7465636C 		.ascii	"teclas2\000"
 20032      61733200 
 20033              	.LASF143:
 20034 0146 53757274 		.ascii	"Surtidor_GetRxBufferSize\000"
 20034      69646F72 
 20034      5F476574 
 20034      52784275 
 20034      66666572 
 20035              	.LASF46:
 20036 015f 7464696E 		.ascii	"tdinero\000"
 20036      65726F00 
 20037              	.LASF41:
 20038 0167 706F7369 		.ascii	"posicion\000"
 20038      63696F6E 
 20038      00
 20039              	.LASF135:
 20040 0170 7276656E 		.ascii	"rventa2\000"
 20040      74613200 
 20041              	.LASF91:
 20042 0178 64656369 		.ascii	"decimalD\000"
 20042      6D616C44 
 20042      00
 20043              	.LASF36:
 20044 0181 64697265 		.ascii	"direccion\000"
 20044      6363696F 
 20044      6E00
 20045              	.LASF80:
 20046 018b 70726F64 		.ascii	"producto2b\000"
 20046      7563746F 
 20046      326200
 20047              	.LASF67:
 20048 0196 666C756A 		.ascii	"flujo_LCD3\000"
 20048      6F5F4C43 
 20048      443300
 20049              	.LASF20:
 20050 01a1 70726573 		.ascii	"preset\000"
 20050      657400
 20051              	.LASF84:
 20052 01a8 72657375 		.ascii	"resultado\000"
 20052      6C746164 
 20052      6F00
 20053              	.LASF102:
 20054 01b2 70726F64 		.ascii	"producto2n\000"
 20054      7563746F 
 20054      326E00
ARM GAS  C:\Users\diego\AppData\Local\Temp\ccwBHTp3.s 			page 396


 20055              	.LASF104:
 20056 01bd 70726F64 		.ascii	"producto4n\000"
 20056      7563746F 
 20056      346E00
 20057              	.LASF14:
 20058 01c8 666C6F61 		.ascii	"float\000"
 20058      7400
 20059              	.LASF138:
 20060 01ce 6D736E5F 		.ascii	"msn_lecaan\000"
 20060      6C656361 
 20060      616E00
 20061              	.LASF83:
 20062 01d9 62756666 		.ascii	"buffer_i2c\000"
 20062      65725F69 
 20062      326300
 20063              	.LASF150:
 20064 01e4 6F706572 		.ascii	"operacion\000"
 20064      6163696F 
 20064      6E00
 20065              	.LASF37:
 20066 01ee 6C656D61 		.ascii	"lema1\000"
 20066      3100
 20067              	.LASF38:
 20068 01f4 6C656D61 		.ascii	"lema2\000"
 20068      3200
 20069              	.LASF120:
 20070 01fa 76656E74 		.ascii	"venta_activa2\000"
 20070      615F6163 
 20070      74697661 
 20070      3200
 20071              	.LASF119:
 20072 0208 76656E74 		.ascii	"venta_activa3\000"
 20072      615F6163 
 20072      74697661 
 20072      3300
 20073              	.LASF121:
 20074 0216 76656E74 		.ascii	"venta_activa4\000"
 20074      615F6163 
 20074      74697661 
 20074      3400
 20075              	.LASF7:
 20076 0224 6C6F6E67 		.ascii	"long long unsigned int\000"
 20076      206C6F6E 
 20076      6720756E 
 20076      7369676E 
 20076      65642069 
 20077              	.LASF85:
 20078 023b 7465636C 		.ascii	"teclado\000"
 20078      61646F00 
 20079              	.LASF22:
 20080 0243 6375656E 		.ascii	"cuenta\000"
 20080      746100
 20081              	.LASF81:
 20082 024a 70726F64 		.ascii	"producto3b\000"
 20082      7563746F 
 20082      336200
 20083              	.LASF118:
ARM GAS  C:\Users\diego\AppData\Local\Temp\ccwBHTp3.s 			page 397


 20084 0255 76656E74 		.ascii	"venta_activa\000"
 20084      615F6163 
 20084      74697661 
 20084      00
 20085              	.LASF116:
 20086 0262 73656C65 		.ascii	"seleccion_pos\000"
 20086      6363696F 
 20086      6E5F706F 
 20086      7300
 20087              	.LASF136:
 20088 0270 6D736E5F 		.ascii	"msn_tc\000"
 20088      746300
 20089              	.LASF103:
 20090 0277 70726F64 		.ascii	"producto3n\000"
 20090      7563746F 
 20090      336E00
 20091              	.LASF63:
 20092 0282 53757274 		.ascii	"Surtidor_rxBuffer\000"
 20092      69646F72 
 20092      5F727842 
 20092      75666665 
 20092      7200
 20093              	.LASF23:
 20094 0294 706C6163 		.ascii	"placa\000"
 20094      6100
 20095              	.LASF57:
 20096 029a 73757374 		.ascii	"sustraendo\000"
 20096      7261656E 
 20096      646F00
 20097              	.LASF117:
 20098 02a5 73656C65 		.ascii	"seleccion_pos2\000"
 20098      6363696F 
 20098      6E5F706F 
 20098      733200
 20099              	.LASF106:
 20100 02b4 6E5F636F 		.ascii	"n_copias\000"
 20100      70696173 
 20100      00
 20101              	.LASF111:
 20102 02bd 666C756A 		.ascii	"flujo_pos2\000"
 20102      6F5F706F 
 20102      733200
 20103              	.LASF112:
 20104 02c8 666C756A 		.ascii	"flujo_pos3\000"
 20104      6F5F706F 
 20104      733300
 20105              	.LASF113:
 20106 02d3 666C756A 		.ascii	"flujo_pos4\000"
 20106      6F5F706F 
 20106      733400
 20107              	.LASF47:
 20108 02de 7665725F 		.ascii	"ver_pos\000"
 20108      706F7300 
 20109              	.LASF44:
 20110 02e6 766F6C75 		.ascii	"volumen\000"
 20110      6D656E00 
 20111              	.LASF52:
ARM GAS  C:\Users\diego\AppData\Local\Temp\ccwBHTp3.s 			page 398


 20112 02ee 76656E74 		.ascii	"venta\000"
 20112      6100
 20113              	.LASF35:
 20114 02f4 74656C65 		.ascii	"telefono\000"
 20114      666F6E6F 
 20114      00
 20115              	.LASF82:
 20116 02fd 70726F64 		.ascii	"producto4b\000"
 20116      7563746F 
 20116      346200
 20117              	.LASF99:
 20118 0308 69645F76 		.ascii	"id_venta\000"
 20118      656E7461 
 20118      00
 20119              	.LASF45:
 20120 0311 74766F6C 		.ascii	"tvolumen\000"
 20120      756D656E 
 20120      00
 20121              	.LASF137:
 20122 031a 6D736E5F 		.ascii	"msn_lecact\000"
 20122      6C656361 
 20122      637400
 20123              	.LASF149:
 20124 0325 7072696E 		.ascii	"print_totales\000"
 20124      745F746F 
 20124      74616C65 
 20124      7300
 20125              	.LASF51:
 20126 0333 636F6D61 		.ascii	"comand_exten\000"
 20126      6E645F65 
 20126      7874656E 
 20126      00
 20127              	.LASF92:
 20128 0340 66656368 		.ascii	"fecha_corte\000"
 20128      615F636F 
 20128      72746500 
 20129              	.LASF16:
 20130 034c 63686172 		.ascii	"char\000"
 20130      00
 20131              	.LASF55:
 20132 0351 636F7274 		.ascii	"corte\000"
 20132      6500
 20133              	.LASF110:
 20134 0357 666C756A 		.ascii	"flujo_pos\000"
 20134      6F5F706F 
 20134      7300
 20135              	.LASF142:
 20136 0361 43794465 		.ascii	"CyDelay\000"
 20136      6C617900 
 20137              	.LASF12:
 20138 0369 75696E74 		.ascii	"uint16\000"
 20138      313600
 20139              	.LASF139:
 20140 0370 6D736E5F 		.ascii	"msn_tventas\000"
 20140      7476656E 
 20140      74617300 
 20141              	.LASF95:
ARM GAS  C:\Users\diego\AppData\Local\Temp\ccwBHTp3.s 			page 399


 20142 037c 7072696E 		.ascii	"print1\000"
 20142      743100
 20143              	.LASF96:
 20144 0383 7072696E 		.ascii	"print2\000"
 20144      743200
 20145              	.LASF27:
 20146 038a 7475726E 		.ascii	"turno\000"
 20146      6F00
 20147              	.LASF154:
 20148 0390 53757274 		.ascii	"Surtidor_ClearRxBuffer\000"
 20148      69646F72 
 20148      5F436C65 
 20148      61725278 
 20148      42756666 
 20149              	.LASF125:
 20150 03a7 42756666 		.ascii	"Buffer_LCD2\000"
 20150      65725F4C 
 20150      43443200 
 20151              	.LASF6:
 20152 03b3 6C6F6E67 		.ascii	"long long int\000"
 20152      206C6F6E 
 20152      6720696E 
 20152      7400
 20153              	.LASF42:
 20154 03c1 70726F64 		.ascii	"producto\000"
 20154      7563746F 
 20154      00
 20155              	.LASF34:
 20156 03ca 636F6E66 		.ascii	"configppu\000"
 20156      69677070 
 20156      7500
 20157              	.LASF62:
 20158 03d4 63616D62 		.ascii	"cambiar_precio\000"
 20158      6961725F 
 20158      70726563 
 20158      696F00
 20159              	.LASF25:
 20160 03e3 63656475 		.ascii	"cedula\000"
 20160      6C6100
 20161              	.LASF144:
 20162 03ea 53757274 		.ascii	"Surtidor_ReadRxData\000"
 20162      69646F72 
 20162      5F526561 
 20162      64527844 
 20162      61746100 
 20163              	.LASF100:
 20164 03fe 6E6F6D62 		.ascii	"nombreproducto\000"
 20164      72657072 
 20164      6F647563 
 20164      746F00
 20165              	.LASF18:
 20166 040d 73697A65 		.ascii	"size\000"
 20166      00
 20167              	.LASF13:
 20168 0412 75696E74 		.ascii	"uint32\000"
 20168      333200
 20169              	.LASF122:
ARM GAS  C:\Users\diego\AppData\Local\Temp\ccwBHTp3.s 			page 400


 20170 0419 69645F63 		.ascii	"id_corte\000"
 20170      6F727465 
 20170      00
 20171              	.LASF123:
 20172 0422 6E6F5F76 		.ascii	"no_venta\000"
 20172      656E7461 
 20172      00
 20173              	.LASF32:
 20174 042b 72656369 		.ascii	"recibo\000"
 20174      626F00
 20175              	.LASF43:
 20176 0432 64696E65 		.ascii	"dinero\000"
 20176      726F00
 20177              	.LASF124:
 20178 0439 42756666 		.ascii	"Buffer_LCD1\000"
 20178      65725F4C 
 20178      43443100 
 20179              	.LASF29:
 20180 0445 65737461 		.ascii	"estado\000"
 20180      646F00
 20181              	.LASF126:
 20182 044c 42756666 		.ascii	"Buffer_LCD3\000"
 20182      65725F4C 
 20182      43443300 
 20183              	.LASF127:
 20184 0458 42756666 		.ascii	"Buffer_LCD4\000"
 20184      65725F4C 
 20184      43443400 
 20185              	.LASF148:
 20186 0464 6C656572 		.ascii	"leer_eeprom\000"
 20186      5F656570 
 20186      726F6D00 
 20187              	.LASF109:
 20188 0470 696D6167 		.ascii	"imagen\000"
 20188      656E00
 20189              	.LASF87:
 20190 0477 70707578 		.ascii	"ppux10\000"
 20190      313000
 20191              	.LASF33:
 20192 047e 6E6F6D62 		.ascii	"nombre\000"
 20192      726500
 20193              	.LASF94:
 20194 0485 6372635F 		.ascii	"crc_total\000"
 20194      746F7461 
 20194      6C00
 20195              	.LASF65:
 20196 048f 666C756A 		.ascii	"flujo_LCD\000"
 20196      6F5F4C43 
 20196      4400
 20197              	.LASF105:
 20198 0499 615F636F 		.ascii	"a_copias\000"
 20198      70696173 
 20198      00
 20199              	.LASF93:
 20200 04a2 706F735F 		.ascii	"pos_ibutton\000"
 20200      69627574 
 20200      746F6E00 
ARM GAS  C:\Users\diego\AppData\Local\Temp\ccwBHTp3.s 			page 401


 20201              	.LASF2:
 20202 04ae 73686F72 		.ascii	"short int\000"
 20202      7420696E 
 20202      7400
 20203              	.LASF4:
 20204 04b8 6C6F6E67 		.ascii	"long int\000"
 20204      20696E74 
 20204      00
 20205              	.LASF97:
 20206 04c1 636F7069 		.ascii	"copia_recibo\000"
 20206      615F7265 
 20206      6369626F 
 20206      00
 20207              	.LASF64:
 20208 04ce 49544D5F 		.ascii	"ITM_RxBuffer\000"
 20208      52784275 
 20208      66666572 
 20208      00
 20209              	.LASF54:
 20210 04db 6765745F 		.ascii	"get_totales\000"
 20210      746F7461 
 20210      6C657300 
 20211              	.LASF152:
 20212 04e7 2E5C7072 		.ascii	".\\protocolo.c\000"
 20212      6F746F63 
 20212      6F6C6F2E 
 20212      6300
 20213              	.LASF72:
 20214 04f5 636F6D61 		.ascii	"comas1\000"
 20214      733100
 20215              	.LASF73:
 20216 04fc 636F6D61 		.ascii	"comas2\000"
 20216      733200
 20217              	.LASF60:
 20218 0503 74656D70 		.ascii	"temp\000"
 20218      00
 20219              	.LASF75:
 20220 0508 70726F64 		.ascii	"producto1\000"
 20220      7563746F 
 20220      3100
 20221              	.LASF76:
 20222 0512 70726F64 		.ascii	"producto2\000"
 20222      7563746F 
 20222      3200
 20223              	.LASF77:
 20224 051c 70726F64 		.ascii	"producto3\000"
 20224      7563746F 
 20224      3300
 20225              	.LASF78:
 20226 0526 70726F64 		.ascii	"producto4\000"
 20226      7563746F 
 20226      3400
 20227              	.LASF128:
 20228 0530 65737461 		.ascii	"estado_0\000"
 20228      646F5F30 
 20228      00
 20229              	.LASF49:
ARM GAS  C:\Users\diego\AppData\Local\Temp\ccwBHTp3.s 			page 402


 20230 0539 65737461 		.ascii	"estado_ex\000"
 20230      646F5F65 
 20230      7800
 20231              	.LASF69:
 20232 0543 636F6E74 		.ascii	"cont1\000"
 20232      3100
 20233              	.LASF58:
 20234 0549 70726F67 		.ascii	"programar\000"
 20234      72616D61 
 20234      7200
 20235              	.LASF17:
 20236 0553 73697A65 		.ascii	"sizetype\000"
 20236      74797065 
 20236      00
 20237              	.LASF5:
 20238 055c 6C6F6E67 		.ascii	"long unsigned int\000"
 20238      20756E73 
 20238      69676E65 
 20238      6420696E 
 20238      7400
 20239              	.LASF53:
 20240 056e 72785F76 		.ascii	"rx_venta\000"
 20240      656E7461 
 20240      00
 20241              	.LASF88:
 20242 0577 62616E64 		.ascii	"bandera\000"
 20242      65726100 
 20243              	.LASF155:
 20244 057f 7072696E 		.ascii	"print_valor\000"
 20244      745F7661 
 20244      6C6F7200 
 20245              	.LASF10:
 20246 058b 696E7433 		.ascii	"int32_t\000"
 20246      325F7400 
 20247              	.LASF108:
 20248 0593 6E6F5F69 		.ascii	"no_imprime2\000"
 20248      6D707269 
 20248      6D653200 
 20249              	.LASF107:
 20250 059f 6E6F5F69 		.ascii	"no_imprime\000"
 20250      6D707269 
 20250      6D6500
 20251              	.LASF1:
 20252 05aa 756E7369 		.ascii	"unsigned char\000"
 20252      676E6564 
 20252      20636861 
 20252      7200
 20253              	.LASF151:
 20254 05b8 474E5520 		.ascii	"GNU C 4.9.3 20150303 (release) [ARM/embedded-4_9-br"
 20254      4320342E 
 20254      392E3320 
 20254      32303135 
 20254      30333033 
 20255 05eb 616E6368 		.ascii	"anch revision 221220] -mcpu=cortex-m3 -mthumb -g -O"
 20255      20726576 
 20255      6973696F 
 20255      6E203232 
ARM GAS  C:\Users\diego\AppData\Local\Temp\ccwBHTp3.s 			page 403


 20255      31323230 
 20256 061e 67202D66 		.ascii	"g -ffunction-sections -ffat-lto-objects\000"
 20256      66756E63 
 20256      74696F6E 
 20256      2D736563 
 20256      74696F6E 
 20257              	.LASF48:
 20258 0646 6765745F 		.ascii	"get_estado\000"
 20258      65737461 
 20258      646F00
 20259              	.LASF39:
 20260 0651 66656368 		.ascii	"fecha\000"
 20260      6100
 20261              	.LASF0:
 20262 0657 7369676E 		.ascii	"signed char\000"
 20262      65642063 
 20262      68617200 
 20263              	.LASF21:
 20264 0663 76616C6F 		.ascii	"valor\000"
 20264      7200
 20265              	.LASF3:
 20266 0669 73686F72 		.ascii	"short unsigned int\000"
 20266      7420756E 
 20266      7369676E 
 20266      65642069 
 20266      6E7400
 20267              	.LASF56:
 20268 067c 6D696E75 		.ascii	"minuendo\000"
 20268      656E646F 
 20268      00
 20269              	.LASF141:
 20270 0685 53757274 		.ascii	"Surtidor_PutChar\000"
 20270      69646F72 
 20270      5F507574 
 20270      43686172 
 20270      00
 20271              	.LASF90:
 20272 0696 64656369 		.ascii	"decimalV\000"
 20272      6D616C56 
 20272      00
 20273              	.LASF147:
 20274 069f 7072696E 		.ascii	"print_totalesac\000"
 20274      745F746F 
 20274      74616C65 
 20274      73616300 
 20275              	.LASF11:
 20276 06af 75696E74 		.ascii	"uint8\000"
 20276      3800
 20277              	.LASF15:
 20278 06b5 646F7562 		.ascii	"double\000"
 20278      6C6500
 20279              	.LASF50:
 20280 06bc 72785F65 		.ascii	"rx_extend\000"
 20280      7874656E 
 20280      6400
 20281              	.LASF89:
 20282 06c6 7469706F 		.ascii	"tipo_imp\000"
ARM GAS  C:\Users\diego\AppData\Local\Temp\ccwBHTp3.s 			page 404


 20282      5F696D70 
 20282      00
 20283              	.LASF30:
 20284 06cf 6D616E67 		.ascii	"manguera\000"
 20284      75657261 
 20284      00
 20285              	.LASF134:
 20286 06d8 7276656E 		.ascii	"rventa\000"
 20286      746100
 20287              	.LASF59:
 20288 06df 67726164 		.ascii	"grado\000"
 20288      6F00
 20289              	.LASF146:
 20290 06e5 77726974 		.ascii	"write_psoc1\000"
 20290      655F7073 
 20290      6F633100 
 20291              		.ident	"GCC: (GNU Tools for ARM Embedded Processors) 4.9.3 20150303 (release) [ARM/embedded-4_9-br
