ARM GAS  C:\Users\diego\AppData\Local\Temp\ccNdDNY6.s 			page 1


   1              		.syntax unified
   2              		.cpu cortex-m3
   3              		.fpu softvfp
   4              		.eabi_attribute 20, 1
   5              		.eabi_attribute 21, 1
   6              		.eabi_attribute 23, 3
   7              		.eabi_attribute 24, 1
   8              		.eabi_attribute 25, 1
   9              		.eabi_attribute 26, 1
  10              		.eabi_attribute 30, 1
  11              		.eabi_attribute 34, 1
  12              		.eabi_attribute 18, 4
  13              		.thumb
  14              		.file	"protocolo.c"
  15              		.text
  16              	.Ltext0:
  17              		.cfi_sections	.debug_frame
  18              		.section	.text.ver_pos,"ax",%progbits
  19              		.align	2
  20              		.global	ver_pos
  21              		.thumb
  22              		.thumb_func
  23              		.type	ver_pos, %function
  24              	ver_pos:
  25              	.LFB63:
  26              		.file 1 ".\\protocolo.c"
   1:.\protocolo.c **** /*
   2:.\protocolo.c **** ***************************************************************************************************
   3:.\protocolo.c **** *                                           GRP550/700 CODE
   4:.\protocolo.c **** *
   5:.\protocolo.c **** *                             (c) Copyright 2013; Sistemas Insepet LTDA
   6:.\protocolo.c **** *
   7:.\protocolo.c **** *               All rights reserved.  Protected by international copyright laws.
   8:.\protocolo.c **** *               Knowledge of the source code may NOT be used to develop a similar product.
   9:.\protocolo.c **** *               Please help us continue to provide the Embedded community with the finest
  10:.\protocolo.c **** *               software available.  Your honesty is greatly appreciated.
  11:.\protocolo.c **** ***************************************************************************************************
  12:.\protocolo.c **** */
  13:.\protocolo.c **** 
  14:.\protocolo.c **** /*
  15:.\protocolo.c **** ***************************************************************************************************
  16:.\protocolo.c **** *
  17:.\protocolo.c **** *                                             GRP550/700 CODE
  18:.\protocolo.c **** *
  19:.\protocolo.c **** *                                             CYPRESS PSoC5LP
  20:.\protocolo.c **** *                                                with the
  21:.\protocolo.c **** *                                            CY8C5969AXI-LP035
  22:.\protocolo.c **** *
  23:.\protocolo.c **** * Filename      : Protocolo.c
  24:.\protocolo.c **** * Version       : V1.00
  25:.\protocolo.c **** * Programmer(s) : 
  26:.\protocolo.c ****                   
  27:.\protocolo.c **** ***************************************************************************************************
  28:.\protocolo.c **** */
  29:.\protocolo.c **** 
  30:.\protocolo.c **** 
  31:.\protocolo.c **** /*
ARM GAS  C:\Users\diego\AppData\Local\Temp\ccNdDNY6.s 			page 2


  32:.\protocolo.c **** ***************************************************************************************************
  33:.\protocolo.c **** *                                             INCLUDE FILES
  34:.\protocolo.c **** ***************************************************************************************************
  35:.\protocolo.c **** */
  36:.\protocolo.c **** 
  37:.\protocolo.c **** #include "VariablesG.h"
  38:.\protocolo.c **** #include "I2C.h"
  39:.\protocolo.c **** #include "Print.h"
  40:.\protocolo.c **** #include <string.h>
  41:.\protocolo.c **** 
  42:.\protocolo.c **** /*
  43:.\protocolo.c **** ***************************************************************************************************
  44:.\protocolo.c **** *                                            	MENSAJES
  45:.\protocolo.c **** ***************************************************************************************************
  46:.\protocolo.c **** */
  47:.\protocolo.c **** 
  48:.\protocolo.c **** uint8 msn_tc[6]="TOTAL";
  49:.\protocolo.c **** uint8 msn_lecact[15]="Valor actual: ";
  50:.\protocolo.c **** uint8 msn_lecaan[17]="Valor anterior:  ";
  51:.\protocolo.c **** uint8 msn_tventas[18]="Dinero total: $   ";
  52:.\protocolo.c **** uint8 msn_totalcero[15]="No toma totales";
  53:.\protocolo.c **** 
  54:.\protocolo.c **** 
  55:.\protocolo.c **** /*
  56:.\protocolo.c **** ***************************************************************************************************
  57:.\protocolo.c **** *                                         ver_pos( void )
  58:.\protocolo.c **** *
  59:.\protocolo.c **** * Description : 
  60:.\protocolo.c **** *               
  61:.\protocolo.c **** *
  62:.\protocolo.c **** * Argument(s) : none
  63:.\protocolo.c **** *
  64:.\protocolo.c **** * Return(s)   : none
  65:.\protocolo.c **** *
  66:.\protocolo.c **** * Caller(s)   : 
  67:.\protocolo.c **** *
  68:.\protocolo.c **** * Note(s)     : none.
  69:.\protocolo.c **** ***************************************************************************************************
  70:.\protocolo.c **** */
  71:.\protocolo.c **** uint8 ver_pos (void){
  27              		.loc 1 71 0
  28              		.cfi_startproc
  29              		@ args = 0, pretend = 0, frame = 0
  30              		@ frame_needed = 0, uses_anonymous_args = 0
  31 0000 10B5     		push	{r4, lr}
  32              		.cfi_def_cfa_offset 8
  33              		.cfi_offset 4, -8
  34              		.cfi_offset 14, -4
  72:.\protocolo.c **** uint8 x;
  73:.\protocolo.c ****     a.dir = 0xff;
  35              		.loc 1 73 0
  36 0002 FF23     		movs	r3, #255
  37 0004 3F4A     		ldr	r2, .L16
  38 0006 1370     		strb	r3, [r2]
  74:.\protocolo.c ****     b.dir = 0xff;
  39              		.loc 1 74 0
  40 0008 3F4A     		ldr	r2, .L16+4
ARM GAS  C:\Users\diego\AppData\Local\Temp\ccNdDNY6.s 			page 3


  41 000a 1370     		strb	r3, [r2]
  75:.\protocolo.c ****     c.dir = 0xff;
  42              		.loc 1 75 0
  43 000c 3F4A     		ldr	r2, .L16+8
  44 000e 1370     		strb	r3, [r2]
  76:.\protocolo.c ****     d.dir = 0xff;
  45              		.loc 1 76 0
  46 0010 3F4A     		ldr	r2, .L16+12
  47 0012 1370     		strb	r3, [r2]
  48              	.LVL0:
  77:.\protocolo.c ****      for(x=0;x<=15;x++){
  49              		.loc 1 77 0
  50 0014 0024     		movs	r4, #0
  51 0016 49E0     		b	.L2
  52              	.LVL1:
  53              	.L7:
  78:.\protocolo.c ****         Surtidor_PutChar(x);
  54              		.loc 1 78 0
  55 0018 2046     		mov	r0, r4
  56 001a FFF7FEFF 		bl	Surtidor_PutChar
  57              	.LVL2:
  79:.\protocolo.c ****         CyDelay(100);
  58              		.loc 1 79 0
  59 001e 6420     		movs	r0, #100
  60 0020 FFF7FEFF 		bl	CyDelay
  61              	.LVL3:
  80:.\protocolo.c ****         if((Surtidor_GetRxBufferSize()>=1)&&(a.dir==0xff)){
  62              		.loc 1 80 0
  63 0024 FFF7FEFF 		bl	Surtidor_GetRxBufferSize
  64              	.LVL4:
  65 0028 38B1     		cbz	r0, .L3
  66              		.loc 1 80 0 is_stmt 0 discriminator 1
  67 002a 364B     		ldr	r3, .L16
  68 002c 1B78     		ldrb	r3, [r3]	@ zero_extendqisi2
  69 002e FF2B     		cmp	r3, #255
  70 0030 03D1     		bne	.L3
  81:.\protocolo.c ****            a.dir=x;	
  71              		.loc 1 81 0 is_stmt 1
  72 0032 344B     		ldr	r3, .L16
  73 0034 1C70     		strb	r4, [r3]
  82:.\protocolo.c ****            Surtidor_ClearRxBuffer();
  74              		.loc 1 82 0
  75 0036 FFF7FEFF 		bl	Surtidor_ClearRxBuffer
  76              	.LVL5:
  77              	.L3:
  83:.\protocolo.c ****         }
  84:.\protocolo.c ****         if((Surtidor_GetRxBufferSize()>=1)&&(x!=a.dir)&&(c.dir==0xff)){
  78              		.loc 1 84 0
  79 003a FFF7FEFF 		bl	Surtidor_GetRxBufferSize
  80              	.LVL6:
  81 003e 58B1     		cbz	r0, .L4
  82              		.loc 1 84 0 is_stmt 0 discriminator 1
  83 0040 304B     		ldr	r3, .L16
  84 0042 1B78     		ldrb	r3, [r3]	@ zero_extendqisi2
  85 0044 A342     		cmp	r3, r4
  86 0046 07D0     		beq	.L4
  87              		.loc 1 84 0 discriminator 2
ARM GAS  C:\Users\diego\AppData\Local\Temp\ccNdDNY6.s 			page 4


  88 0048 304B     		ldr	r3, .L16+8
  89 004a 1B78     		ldrb	r3, [r3]	@ zero_extendqisi2
  90 004c FF2B     		cmp	r3, #255
  91 004e 03D1     		bne	.L4
  85:.\protocolo.c ****            c.dir=x;
  92              		.loc 1 85 0 is_stmt 1
  93 0050 2E4B     		ldr	r3, .L16+8
  94 0052 1C70     		strb	r4, [r3]
  86:.\protocolo.c ****            Surtidor_ClearRxBuffer();
  95              		.loc 1 86 0
  96 0054 FFF7FEFF 		bl	Surtidor_ClearRxBuffer
  97              	.LVL7:
  98              	.L4:
  87:.\protocolo.c ****         }
  88:.\protocolo.c ****         if((Surtidor_GetRxBufferSize()>=1)&&(x!=a.dir)&&(x!=b.dir)&&(b.dir==0xff)){
  99              		.loc 1 88 0
 100 0058 FFF7FEFF 		bl	Surtidor_GetRxBufferSize
 101              	.LVL8:
 102 005c 68B1     		cbz	r0, .L5
 103              		.loc 1 88 0 is_stmt 0 discriminator 1
 104 005e 294B     		ldr	r3, .L16
 105 0060 1B78     		ldrb	r3, [r3]	@ zero_extendqisi2
 106 0062 A342     		cmp	r3, r4
 107 0064 09D0     		beq	.L5
 108              		.loc 1 88 0 discriminator 2
 109 0066 284B     		ldr	r3, .L16+4
 110 0068 1B78     		ldrb	r3, [r3]	@ zero_extendqisi2
 111 006a A342     		cmp	r3, r4
 112 006c 05D0     		beq	.L5
 113              		.loc 1 88 0 discriminator 3
 114 006e FF2B     		cmp	r3, #255
 115 0070 03D1     		bne	.L5
  89:.\protocolo.c ****            b.dir=x;
 116              		.loc 1 89 0 is_stmt 1
 117 0072 254B     		ldr	r3, .L16+4
 118 0074 1C70     		strb	r4, [r3]
  90:.\protocolo.c ****            Surtidor_ClearRxBuffer();
 119              		.loc 1 90 0
 120 0076 FFF7FEFF 		bl	Surtidor_ClearRxBuffer
 121              	.LVL9:
 122              	.L5:
  91:.\protocolo.c ****         }
  92:.\protocolo.c ****         if((Surtidor_GetRxBufferSize()>=1)&&(x!=a.dir)&&(x!=b.dir)&&(x!=c.dir)&&(d.dir==0xff)){
 123              		.loc 1 92 0
 124 007a FFF7FEFF 		bl	Surtidor_GetRxBufferSize
 125              	.LVL10:
 126 007e 98B1     		cbz	r0, .L6
 127              		.loc 1 92 0 is_stmt 0 discriminator 1
 128 0080 204B     		ldr	r3, .L16
 129 0082 1B78     		ldrb	r3, [r3]	@ zero_extendqisi2
 130 0084 A342     		cmp	r3, r4
 131 0086 0FD0     		beq	.L6
 132              		.loc 1 92 0 discriminator 2
 133 0088 1F4B     		ldr	r3, .L16+4
 134 008a 1B78     		ldrb	r3, [r3]	@ zero_extendqisi2
 135 008c A342     		cmp	r3, r4
 136 008e 0BD0     		beq	.L6
ARM GAS  C:\Users\diego\AppData\Local\Temp\ccNdDNY6.s 			page 5


 137              		.loc 1 92 0 discriminator 3
 138 0090 1E4B     		ldr	r3, .L16+8
 139 0092 1B78     		ldrb	r3, [r3]	@ zero_extendqisi2
 140 0094 A342     		cmp	r3, r4
 141 0096 07D0     		beq	.L6
 142              		.loc 1 92 0 discriminator 4
 143 0098 1D4B     		ldr	r3, .L16+12
 144 009a 1B78     		ldrb	r3, [r3]	@ zero_extendqisi2
 145 009c FF2B     		cmp	r3, #255
 146 009e 03D1     		bne	.L6
  93:.\protocolo.c ****            d.dir=x;
 147              		.loc 1 93 0 is_stmt 1
 148 00a0 1B4B     		ldr	r3, .L16+12
 149 00a2 1C70     		strb	r4, [r3]
  94:.\protocolo.c ****            Surtidor_ClearRxBuffer();
 150              		.loc 1 94 0
 151 00a4 FFF7FEFF 		bl	Surtidor_ClearRxBuffer
 152              	.LVL11:
 153              	.L6:
  77:.\protocolo.c ****         Surtidor_PutChar(x);
 154              		.loc 1 77 0 discriminator 2
 155 00a8 0134     		adds	r4, r4, #1
 156              	.LVL12:
 157 00aa E4B2     		uxtb	r4, r4
 158              	.LVL13:
 159              	.L2:
  77:.\protocolo.c ****         Surtidor_PutChar(x);
 160              		.loc 1 77 0 is_stmt 0 discriminator 1
 161 00ac 0F2C     		cmp	r4, #15
 162 00ae B3D9     		bls	.L7
  95:.\protocolo.c ****         }
  96:.\protocolo.c ****     }
  97:.\protocolo.c ****     if((a.dir!=0xff)&&(b.dir!=0xff)&&(d.dir!=0xff)&&(c.dir!=0xff)){        
 163              		.loc 1 97 0 is_stmt 1
 164 00b0 144B     		ldr	r3, .L16
 165 00b2 1B78     		ldrb	r3, [r3]	@ zero_extendqisi2
 166 00b4 FF2B     		cmp	r3, #255
 167 00b6 0BD0     		beq	.L8
 168              		.loc 1 97 0 is_stmt 0 discriminator 1
 169 00b8 134A     		ldr	r2, .L16+4
 170 00ba 1278     		ldrb	r2, [r2]	@ zero_extendqisi2
 171 00bc FF2A     		cmp	r2, #255
 172 00be 07D0     		beq	.L8
 173              		.loc 1 97 0 discriminator 2
 174 00c0 134A     		ldr	r2, .L16+12
 175 00c2 1278     		ldrb	r2, [r2]	@ zero_extendqisi2
 176 00c4 FF2A     		cmp	r2, #255
 177 00c6 03D0     		beq	.L8
 178              		.loc 1 97 0 discriminator 3
 179 00c8 104A     		ldr	r2, .L16+8
 180 00ca 1278     		ldrb	r2, [r2]	@ zero_extendqisi2
 181 00cc FF2A     		cmp	r2, #255
 182 00ce 0FD1     		bne	.L10
 183              	.L8:
  98:.\protocolo.c ****         return 2;
  99:.\protocolo.c ****     }
 100:.\protocolo.c ****     else{
ARM GAS  C:\Users\diego\AppData\Local\Temp\ccNdDNY6.s 			page 6


 101:.\protocolo.c ****         if((a.dir!=0xff)||(b.dir!=0xff)||(c.dir!=0xff)||(d.dir!=0xff)){
 184              		.loc 1 101 0 is_stmt 1
 185 00d0 FF2B     		cmp	r3, #255
 186 00d2 0FD1     		bne	.L11
 187              		.loc 1 101 0 is_stmt 0 discriminator 1
 188 00d4 0C4B     		ldr	r3, .L16+4
 189 00d6 1B78     		ldrb	r3, [r3]	@ zero_extendqisi2
 190 00d8 FF2B     		cmp	r3, #255
 191 00da 0DD1     		bne	.L12
 192              		.loc 1 101 0 discriminator 2
 193 00dc 0B4B     		ldr	r3, .L16+8
 194 00de 1B78     		ldrb	r3, [r3]	@ zero_extendqisi2
 195 00e0 FF2B     		cmp	r3, #255
 196 00e2 0BD1     		bne	.L13
 197              		.loc 1 101 0 discriminator 3
 198 00e4 0A4B     		ldr	r3, .L16+12
 199 00e6 1B78     		ldrb	r3, [r3]	@ zero_extendqisi2
 200 00e8 FF2B     		cmp	r3, #255
 201 00ea 09D0     		beq	.L14
 102:.\protocolo.c ****             return 1;
 202              		.loc 1 102 0 is_stmt 1
 203 00ec 0120     		movs	r0, #1
 204 00ee 10BD     		pop	{r4, pc}
 205              	.LVL14:
 206              	.L10:
  98:.\protocolo.c ****         return 2;
 207              		.loc 1 98 0
 208 00f0 0220     		movs	r0, #2
 209 00f2 10BD     		pop	{r4, pc}
 210              	.LVL15:
 211              	.L11:
 212              		.loc 1 102 0
 213 00f4 0120     		movs	r0, #1
 214 00f6 10BD     		pop	{r4, pc}
 215              	.LVL16:
 216              	.L12:
 217 00f8 0120     		movs	r0, #1
 218 00fa 10BD     		pop	{r4, pc}
 219              	.LVL17:
 220              	.L13:
 221 00fc 0120     		movs	r0, #1
 222 00fe 10BD     		pop	{r4, pc}
 223              	.LVL18:
 224              	.L14:
 103:.\protocolo.c ****         }
 104:.\protocolo.c ****         else{
 105:.\protocolo.c ****             return 0;
 225              		.loc 1 105 0
 226 0100 0020     		movs	r0, #0
 106:.\protocolo.c ****         }
 107:.\protocolo.c ****     }
 108:.\protocolo.c ****         
 109:.\protocolo.c ****    
 110:.\protocolo.c ****     return 0;
 111:.\protocolo.c **** }
 227              		.loc 1 111 0
 228 0102 10BD     		pop	{r4, pc}
ARM GAS  C:\Users\diego\AppData\Local\Temp\ccNdDNY6.s 			page 7


 229              	.LVL19:
 230              	.L17:
 231              		.align	2
 232              	.L16:
 233 0104 00000000 		.word	a
 234 0108 00000000 		.word	b
 235 010c 00000000 		.word	c
 236 0110 00000000 		.word	d
 237              		.cfi_endproc
 238              	.LFE63:
 239              		.size	ver_pos, .-ver_pos
 240              		.section	.text.get_estado,"ax",%progbits
 241              		.align	2
 242              		.global	get_estado
 243              		.thumb
 244              		.thumb_func
 245              		.type	get_estado, %function
 246              	get_estado:
 247              	.LFB64:
 112:.\protocolo.c **** 
 113:.\protocolo.c **** /*
 114:.\protocolo.c **** ***************************************************************************************************
 115:.\protocolo.c **** *                                         ver_estado( void )
 116:.\protocolo.c **** *
 117:.\protocolo.c **** * Description : 
 118:.\protocolo.c **** *               
 119:.\protocolo.c **** *
 120:.\protocolo.c **** * Argument(s) : none
 121:.\protocolo.c **** *
 122:.\protocolo.c **** * Return(s)   : none
 123:.\protocolo.c **** *
 124:.\protocolo.c **** * Caller(s)   : 
 125:.\protocolo.c **** *
 126:.\protocolo.c **** * Note(s)     : none.
 127:.\protocolo.c **** ***************************************************************************************************
 128:.\protocolo.c **** */
 129:.\protocolo.c **** 
 130:.\protocolo.c **** uint8 get_estado(uint8 dir){
 248              		.loc 1 130 0
 249              		.cfi_startproc
 250              		@ args = 0, pretend = 0, frame = 0
 251              		@ frame_needed = 0, uses_anonymous_args = 0
 252              	.LVL20:
 253 0000 10B5     		push	{r4, lr}
 254              		.cfi_def_cfa_offset 8
 255              		.cfi_offset 4, -8
 256              		.cfi_offset 14, -4
 131:.\protocolo.c ****     uint8 estado;
 132:.\protocolo.c ****     Surtidor_PutChar(dir);
 257              		.loc 1 132 0
 258 0002 FFF7FEFF 		bl	Surtidor_PutChar
 259              	.LVL21:
 133:.\protocolo.c ****     CyDelay(50);
 260              		.loc 1 133 0
 261 0006 3220     		movs	r0, #50
 262 0008 FFF7FEFF 		bl	CyDelay
 263              	.LVL22:
ARM GAS  C:\Users\diego\AppData\Local\Temp\ccNdDNY6.s 			page 8


 134:.\protocolo.c ****     if(Surtidor_GetRxBufferSize()>=1){
 264              		.loc 1 134 0
 265 000c FFF7FEFF 		bl	Surtidor_GetRxBufferSize
 266              	.LVL23:
 267 0010 38B1     		cbz	r0, .L20
 135:.\protocolo.c ****        estado=(Surtidor_ReadRxData()&0xF0)>>4;
 268              		.loc 1 135 0
 269 0012 FFF7FEFF 		bl	Surtidor_ReadRxData
 270              	.LVL24:
 271 0016 C0F30714 		ubfx	r4, r0, #4, #8
 272              	.LVL25:
 136:.\protocolo.c ****        Surtidor_ClearRxBuffer();
 273              		.loc 1 136 0
 274 001a FFF7FEFF 		bl	Surtidor_ClearRxBuffer
 275              	.LVL26:
 137:.\protocolo.c ****        return estado;
 276              		.loc 1 137 0
 277 001e 2046     		mov	r0, r4
 278 0020 10BD     		pop	{r4, pc}
 279              	.LVL27:
 280              	.L20:
 138:.\protocolo.c ****     }
 139:.\protocolo.c ****     else{
 140:.\protocolo.c ****         return 0;
 281              		.loc 1 140 0
 282 0022 0020     		movs	r0, #0
 141:.\protocolo.c ****     }
 142:.\protocolo.c **** }
 283              		.loc 1 142 0
 284 0024 10BD     		pop	{r4, pc}
 285              		.cfi_endproc
 286              	.LFE64:
 287              		.size	get_estado, .-get_estado
 288 0026 00BF     		.section	.text.estado_ex,"ax",%progbits
 289              		.align	2
 290              		.global	estado_ex
 291              		.thumb
 292              		.thumb_func
 293              		.type	estado_ex, %function
 294              	estado_ex:
 295              	.LFB65:
 143:.\protocolo.c **** 
 144:.\protocolo.c **** //*
 145:.\protocolo.c **** //*************************************************************************************************
 146:.\protocolo.c **** //*                                         void ver_error(uint8 val)
 147:.\protocolo.c **** //*
 148:.\protocolo.c **** //* Description : 
 149:.\protocolo.c **** //*               
 150:.\protocolo.c **** //*
 151:.\protocolo.c **** //* Argument(s) : none
 152:.\protocolo.c **** //*
 153:.\protocolo.c **** //* Return(s)   : none
 154:.\protocolo.c **** //*
 155:.\protocolo.c **** //* Caller(s)   : 
 156:.\protocolo.c **** //*
 157:.\protocolo.c **** //* Note(s)     : none.
 158:.\protocolo.c **** //*************************************************************************************************
ARM GAS  C:\Users\diego\AppData\Local\Temp\ccNdDNY6.s 			page 9


 159:.\protocolo.c **** //*/
 160:.\protocolo.c **** //void ver_error(uint8 val){
 161:.\protocolo.c **** //    uint8 estado;
 162:.\protocolo.c **** //    Surtidor_PutChar(val);
 163:.\protocolo.c **** //    CyDelay(200);
 164:.\protocolo.c **** //    if(Surtidor_GetRxBufferSize()>=1){
 165:.\protocolo.c **** //       estado=(Surtidor_ReadRxData()&0xF0)>>4;
 166:.\protocolo.c **** //       Surtidor_ClearRxBuffer();
 167:.\protocolo.c **** //       if(estado==0){
 168:.\protocolo.c **** //
 169:.\protocolo.c **** //       }
 170:.\protocolo.c **** //    }    
 171:.\protocolo.c **** //}
 172:.\protocolo.c **** 
 173:.\protocolo.c **** /*
 174:.\protocolo.c **** ***************************************************************************************************
 175:.\protocolo.c **** *                                         estado_ex(uint8 val)
 176:.\protocolo.c **** *
 177:.\protocolo.c **** * Description : 
 178:.\protocolo.c **** *               
 179:.\protocolo.c **** *
 180:.\protocolo.c **** * Argument(s) : none
 181:.\protocolo.c **** *
 182:.\protocolo.c **** * Return(s)   : none
 183:.\protocolo.c **** *
 184:.\protocolo.c **** * Caller(s)   : 
 185:.\protocolo.c **** *
 186:.\protocolo.c **** * Note(s)     : none.
 187:.\protocolo.c **** ***************************************************************************************************
 188:.\protocolo.c **** */
 189:.\protocolo.c **** uint8 estado_ex(uint8 val){
 296              		.loc 1 189 0
 297              		.cfi_startproc
 298              		@ args = 0, pretend = 0, frame = 32
 299              		@ frame_needed = 0, uses_anonymous_args = 0
 300              	.LVL28:
 301 0000 10B5     		push	{r4, lr}
 302              		.cfi_def_cfa_offset 8
 303              		.cfi_offset 4, -8
 304              		.cfi_offset 14, -4
 305 0002 88B0     		sub	sp, sp, #32
 306              		.cfi_def_cfa_offset 40
 307 0004 0446     		mov	r4, r0
 190:.\protocolo.c ****     uint8 rx_extend[19],x,comand_exten[9]={0xFF,0xE9,0xFE,0xE0,0xE1,0xE0,0xFB,0xEE,0xF0};
 308              		.loc 1 190 0
 309 0006 364A     		ldr	r2, .L41
 310 0008 6B46     		mov	r3, sp
 311 000a 1068     		ldr	r0, [r2]	@ unaligned
 312              	.LVL29:
 313 000c 5168     		ldr	r1, [r2, #4]	@ unaligned
 314 000e 03C3     		stmia	r3!, {r0, r1}
 315 0010 127A     		ldrb	r2, [r2, #8]	@ zero_extendqisi2
 316 0012 1A70     		strb	r2, [r3]
 191:.\protocolo.c ****     Surtidor_PutChar(0x20|val);
 317              		.loc 1 191 0
 318 0014 44F02000 		orr	r0, r4, #32
 319 0018 FFF7FEFF 		bl	Surtidor_PutChar
ARM GAS  C:\Users\diego\AppData\Local\Temp\ccNdDNY6.s 			page 10


 320              	.LVL30:
 192:.\protocolo.c ****     producto=0xff;
 321              		.loc 1 192 0
 322 001c FF22     		movs	r2, #255
 323 001e 314B     		ldr	r3, .L41+4
 324 0020 1A70     		strb	r2, [r3]
 193:.\protocolo.c ****     CyDelay(100);
 325              		.loc 1 193 0
 326 0022 6420     		movs	r0, #100
 327 0024 FFF7FEFF 		bl	CyDelay
 328              	.LVL31:
 194:.\protocolo.c ****     if(Surtidor_GetRxBufferSize()>=1){
 329              		.loc 1 194 0
 330 0028 FFF7FEFF 		bl	Surtidor_GetRxBufferSize
 331              	.LVL32:
 332 002c 0028     		cmp	r0, #0
 333 002e 48D0     		beq	.L31
 195:.\protocolo.c ****         if(Surtidor_ReadRxData()==(0xD0|val)){
 334              		.loc 1 195 0
 335 0030 FFF7FEFF 		bl	Surtidor_ReadRxData
 336              	.LVL33:
 337 0034 44F0D004 		orr	r4, r4, #208
 338 0038 A042     		cmp	r0, r4
 339 003a 44D1     		bne	.L32
 196:.\protocolo.c ****             Surtidor_ClearRxBuffer();
 340              		.loc 1 196 0
 341 003c FFF7FEFF 		bl	Surtidor_ClearRxBuffer
 342              	.LVL34:
 197:.\protocolo.c ****             for(x=0;x<=8;x++){
 343              		.loc 1 197 0
 344 0040 0024     		movs	r4, #0
 345 0042 07E0     		b	.L24
 346              	.LVL35:
 347              	.L25:
 198:.\protocolo.c ****                Surtidor_PutChar(comand_exten[x]); 
 348              		.loc 1 198 0 discriminator 3
 349 0044 08AB     		add	r3, sp, #32
 350 0046 2344     		add	r3, r3, r4
 351 0048 13F8200C 		ldrb	r0, [r3, #-32]	@ zero_extendqisi2
 352 004c FFF7FEFF 		bl	Surtidor_PutChar
 353              	.LVL36:
 197:.\protocolo.c ****             for(x=0;x<=8;x++){
 354              		.loc 1 197 0 discriminator 3
 355 0050 0134     		adds	r4, r4, #1
 356              	.LVL37:
 357 0052 E4B2     		uxtb	r4, r4
 358              	.LVL38:
 359              	.L24:
 197:.\protocolo.c ****             for(x=0;x<=8;x++){
 360              		.loc 1 197 0 is_stmt 0 discriminator 1
 361 0054 082C     		cmp	r4, #8
 362 0056 F5D9     		bls	.L25
 199:.\protocolo.c ****             }
 200:.\protocolo.c ****             CyDelay(200);
 363              		.loc 1 200 0 is_stmt 1
 364 0058 C820     		movs	r0, #200
 365 005a FFF7FEFF 		bl	CyDelay
ARM GAS  C:\Users\diego\AppData\Local\Temp\ccNdDNY6.s 			page 11


 366              	.LVL39:
 201:.\protocolo.c ****             if(Surtidor_GetRxBufferSize()>=19){
 367              		.loc 1 201 0
 368 005e FFF7FEFF 		bl	Surtidor_GetRxBufferSize
 369              	.LVL40:
 370 0062 1228     		cmp	r0, #18
 371 0064 0AD8     		bhi	.L33
 202:.\protocolo.c ****                 for(x=0;x<=18;x++){
 203:.\protocolo.c ****                    rx_extend[x]=Surtidor_ReadRxData(); 
 204:.\protocolo.c ****                 }
 205:.\protocolo.c ****                 Surtidor_ClearRxBuffer();
 206:.\protocolo.c ****                 if((rx_extend[0]==0xBA)&&(rx_extend[17]==0x8D)&&(rx_extend[18]==0x8A)&&(rx_extend[1
 207:.\protocolo.c ****                     switch(rx_extend[14]){
 208:.\protocolo.c ****                         case 0xB1:
 209:.\protocolo.c ****                             return 1;
 210:.\protocolo.c ****                             break;
 211:.\protocolo.c ****                         case 0xB2:
 212:.\protocolo.c ****                             return 2;
 213:.\protocolo.c ****                             break;
 214:.\protocolo.c ****                         case 0xB3:
 215:.\protocolo.c ****                             return 3;
 216:.\protocolo.c ****                             break;
 217:.\protocolo.c ****                         default:
 218:.\protocolo.c ****                             return 0;
 219:.\protocolo.c ****                     }
 220:.\protocolo.c ****                 }
 221:.\protocolo.c ****                 else{
 222:.\protocolo.c ****                     return 0;
 223:.\protocolo.c ****                 }
 224:.\protocolo.c ****             }
 225:.\protocolo.c ****             else{
 226:.\protocolo.c ****                 return 0;
 372              		.loc 1 226 0
 373 0066 0020     		movs	r0, #0
 374 0068 38E0     		b	.L23
 375              	.L27:
 203:.\protocolo.c ****                 }
 376              		.loc 1 203 0 discriminator 3
 377 006a FFF7FEFF 		bl	Surtidor_ReadRxData
 378              	.LVL41:
 379 006e 08AB     		add	r3, sp, #32
 380 0070 2344     		add	r3, r3, r4
 381 0072 03F8140C 		strb	r0, [r3, #-20]
 202:.\protocolo.c ****                 for(x=0;x<=18;x++){
 382              		.loc 1 202 0 discriminator 3
 383 0076 0134     		adds	r4, r4, #1
 384              	.LVL42:
 385 0078 E4B2     		uxtb	r4, r4
 386              	.LVL43:
 387 007a 00E0     		b	.L26
 388              	.L33:
 389 007c 0024     		movs	r4, #0
 390              	.LVL44:
 391              	.L26:
 202:.\protocolo.c ****                 for(x=0;x<=18;x++){
 392              		.loc 1 202 0 is_stmt 0 discriminator 1
 393 007e 122C     		cmp	r4, #18
ARM GAS  C:\Users\diego\AppData\Local\Temp\ccNdDNY6.s 			page 12


 394 0080 F3D9     		bls	.L27
 205:.\protocolo.c ****                 if((rx_extend[0]==0xBA)&&(rx_extend[17]==0x8D)&&(rx_extend[18]==0x8A)&&(rx_extend[1
 395              		.loc 1 205 0 is_stmt 1
 396 0082 FFF7FEFF 		bl	Surtidor_ClearRxBuffer
 397              	.LVL45:
 206:.\protocolo.c ****                     switch(rx_extend[14]){
 398              		.loc 1 206 0
 399 0086 9DF80C30 		ldrb	r3, [sp, #12]	@ zero_extendqisi2
 400 008a BA2B     		cmp	r3, #186
 401 008c 1DD1     		bne	.L34
 206:.\protocolo.c ****                     switch(rx_extend[14]){
 402              		.loc 1 206 0 is_stmt 0 discriminator 1
 403 008e 9DF81D30 		ldrb	r3, [sp, #29]	@ zero_extendqisi2
 404 0092 8D2B     		cmp	r3, #141
 405 0094 1BD1     		bne	.L35
 206:.\protocolo.c ****                     switch(rx_extend[14]){
 406              		.loc 1 206 0 discriminator 2
 407 0096 9DF81E30 		ldrb	r3, [sp, #30]	@ zero_extendqisi2
 408 009a 8A2B     		cmp	r3, #138
 409 009c 19D1     		bne	.L36
 206:.\protocolo.c ****                     switch(rx_extend[14]){
 410              		.loc 1 206 0 discriminator 3
 411 009e 9DF81830 		ldrb	r3, [sp, #24]	@ zero_extendqisi2
 412 00a2 B12B     		cmp	r3, #177
 413 00a4 17D1     		bne	.L37
 207:.\protocolo.c ****                         case 0xB1:
 414              		.loc 1 207 0 is_stmt 1
 415 00a6 9DF81A30 		ldrb	r3, [sp, #26]	@ zero_extendqisi2
 416 00aa B22B     		cmp	r3, #178
 417 00ac 15D0     		beq	.L38
 418 00ae B32B     		cmp	r3, #179
 419 00b0 03D0     		beq	.L29
 420 00b2 B12B     		cmp	r3, #177
 421 00b4 03D1     		bne	.L39
 209:.\protocolo.c ****                             break;
 422              		.loc 1 209 0
 423 00b6 0120     		movs	r0, #1
 424 00b8 10E0     		b	.L23
 425              	.L29:
 215:.\protocolo.c ****                             break;
 426              		.loc 1 215 0
 427 00ba 0320     		movs	r0, #3
 428 00bc 0EE0     		b	.L23
 429              	.L39:
 218:.\protocolo.c ****                     }
 430              		.loc 1 218 0
 431 00be 0020     		movs	r0, #0
 432 00c0 0CE0     		b	.L23
 433              	.LVL46:
 434              	.L31:
 227:.\protocolo.c ****             }
 228:.\protocolo.c ****         }
 229:.\protocolo.c ****         else{
 230:.\protocolo.c ****             return 0;
 231:.\protocolo.c ****         }
 232:.\protocolo.c ****     }
 233:.\protocolo.c ****     else{
ARM GAS  C:\Users\diego\AppData\Local\Temp\ccNdDNY6.s 			page 13


 234:.\protocolo.c ****         return 0;
 435              		.loc 1 234 0
 436 00c2 0020     		movs	r0, #0
 437 00c4 0AE0     		b	.L23
 438              	.L32:
 230:.\protocolo.c ****         }
 439              		.loc 1 230 0
 440 00c6 0020     		movs	r0, #0
 441 00c8 08E0     		b	.L23
 442              	.LVL47:
 443              	.L34:
 222:.\protocolo.c ****                 }
 444              		.loc 1 222 0
 445 00ca 0020     		movs	r0, #0
 446 00cc 06E0     		b	.L23
 447              	.L35:
 448 00ce 0020     		movs	r0, #0
 449 00d0 04E0     		b	.L23
 450              	.L36:
 451 00d2 0020     		movs	r0, #0
 452 00d4 02E0     		b	.L23
 453              	.L37:
 454 00d6 0020     		movs	r0, #0
 455 00d8 00E0     		b	.L23
 456              	.L38:
 212:.\protocolo.c ****                             break;
 457              		.loc 1 212 0
 458 00da 0220     		movs	r0, #2
 459              	.LVL48:
 460              	.L23:
 235:.\protocolo.c ****     }
 236:.\protocolo.c **** }
 461              		.loc 1 236 0 discriminator 1
 462 00dc 08B0     		add	sp, sp, #32
 463              		.cfi_def_cfa_offset 8
 464              		@ sp needed
 465 00de 10BD     		pop	{r4, pc}
 466              	.L42:
 467              		.align	2
 468              	.L41:
 469 00e0 00000000 		.word	.LANCHOR0
 470 00e4 00000000 		.word	producto
 471              		.cfi_endproc
 472              	.LFE65:
 473              		.size	estado_ex, .-estado_ex
 474              		.section	.text.venta,"ax",%progbits
 475              		.align	2
 476              		.global	venta
 477              		.thumb
 478              		.thumb_func
 479              		.type	venta, %function
 480              	venta:
 481              	.LFB66:
 237:.\protocolo.c **** 
 238:.\protocolo.c **** ///*
 239:.\protocolo.c **** //*************************************************************************************************
 240:.\protocolo.c **** //*                                         void detener(uint8 val)
ARM GAS  C:\Users\diego\AppData\Local\Temp\ccNdDNY6.s 			page 14


 241:.\protocolo.c **** //*
 242:.\protocolo.c **** //* Description : 
 243:.\protocolo.c **** //*               
 244:.\protocolo.c **** //*
 245:.\protocolo.c **** //* Argument(s) : none
 246:.\protocolo.c **** //*
 247:.\protocolo.c **** //* Return(s)   : none
 248:.\protocolo.c **** //*
 249:.\protocolo.c **** //* Caller(s)   : 
 250:.\protocolo.c **** //*
 251:.\protocolo.c **** //* Note(s)     : none.
 252:.\protocolo.c **** //*************************************************************************************************
 253:.\protocolo.c **** //*/
 254:.\protocolo.c **** //void detener(uint8 val){
 255:.\protocolo.c **** //    Surtidor_PutChar(0x30|val);
 256:.\protocolo.c **** //    CyDelay(200);
 257:.\protocolo.c **** //}
 258:.\protocolo.c **** 
 259:.\protocolo.c **** /*
 260:.\protocolo.c **** ***************************************************************************************************
 261:.\protocolo.c **** *                                         void venta(uint8 val)
 262:.\protocolo.c **** *
 263:.\protocolo.c **** * Description : 
 264:.\protocolo.c **** *               
 265:.\protocolo.c **** *
 266:.\protocolo.c **** * Argument(s) : none
 267:.\protocolo.c **** *
 268:.\protocolo.c **** * Return(s)   : none
 269:.\protocolo.c **** *
 270:.\protocolo.c **** * Caller(s)   : 
 271:.\protocolo.c **** *
 272:.\protocolo.c **** * Note(s)     : none.
 273:.\protocolo.c **** ***************************************************************************************************
 274:.\protocolo.c **** */
 275:.\protocolo.c **** uint8 venta(uint8 val){
 482              		.loc 1 275 0
 483              		.cfi_startproc
 484              		@ args = 0, pretend = 0, frame = 40
 485              		@ frame_needed = 0, uses_anonymous_args = 0
 486              	.LVL49:
 487 0000 30B5     		push	{r4, r5, lr}
 488              		.cfi_def_cfa_offset 12
 489              		.cfi_offset 4, -12
 490              		.cfi_offset 5, -8
 491              		.cfi_offset 14, -4
 492 0002 8BB0     		sub	sp, sp, #44
 493              		.cfi_def_cfa_offset 56
 494 0004 0446     		mov	r4, r0
 495              	.LVL50:
 276:.\protocolo.c ****     uint8 rx_venta[39],x=0,pos,y; 
 277:.\protocolo.c ****     Surtidor_PutChar(0x40|val);
 496              		.loc 1 277 0
 497 0006 40F04000 		orr	r0, r0, #64
 498              	.LVL51:
 499 000a FFF7FEFF 		bl	Surtidor_PutChar
 500              	.LVL52:
 278:.\protocolo.c ****     CyDelay(300);
ARM GAS  C:\Users\diego\AppData\Local\Temp\ccNdDNY6.s 			page 15


 501              		.loc 1 278 0
 502 000e 4FF49670 		mov	r0, #300
 503 0012 FFF7FEFF 		bl	CyDelay
 504              	.LVL53:
 279:.\protocolo.c ****     if(Surtidor_GetRxBufferSize()<=39){
 505              		.loc 1 279 0
 506 0016 FFF7FEFF 		bl	Surtidor_GetRxBufferSize
 507              	.LVL54:
 508 001a 2728     		cmp	r0, #39
 509 001c 0AD9     		bls	.L60
 280:.\protocolo.c ****         while(Surtidor_GetRxBufferSize()>0){
 281:.\protocolo.c ****             rx_venta[x]=Surtidor_ReadRxData();  
 282:.\protocolo.c ****             x++;
 283:.\protocolo.c ****         }
 284:.\protocolo.c ****         Surtidor_ClearRxBuffer();
 285:.\protocolo.c ****         if(val==0){
 286:.\protocolo.c ****             pos=0x10;
 287:.\protocolo.c ****             rventa.posicion=pos;
 288:.\protocolo.c ****         }
 289:.\protocolo.c ****         else{
 290:.\protocolo.c ****             pos=val;
 291:.\protocolo.c ****             rventa.posicion=pos;
 292:.\protocolo.c ****         }
 293:.\protocolo.c ****         if((rx_venta[0]==0xFF)&&(rx_venta[2]==0xF8)&&((rx_venta[4]&0x0F)==(pos-1))){
 294:.\protocolo.c ****             x=0;
 295:.\protocolo.c ****             while((rx_venta[x]!=0xF6)||(x>=39)){
 296:.\protocolo.c ****                 x++;
 297:.\protocolo.c ****             }
 298:.\protocolo.c ****             x++;
 299:.\protocolo.c ****             rventa.producto=(rx_venta[x]&0x0F)+1;
 300:.\protocolo.c ****             while((rx_venta[x]!=0xF7)||(x>=39)){
 301:.\protocolo.c ****                 x++;
 302:.\protocolo.c ****             }
 303:.\protocolo.c ****             x++;
 304:.\protocolo.c ****             y=1;
 305:.\protocolo.c ****             while((rx_venta[x]!=0xF9)||(x>=39)){    
 306:.\protocolo.c ****                 rventa.ppu[y]=(rx_venta[x]&0x0F);
 307:.\protocolo.c ****                 x++;
 308:.\protocolo.c ****                 y++;
 309:.\protocolo.c ****             }
 310:.\protocolo.c **** 			rventa.ppu[0]=y-1;
 311:.\protocolo.c ****             x++;
 312:.\protocolo.c ****             y=1;
 313:.\protocolo.c ****             while((rx_venta[x]!=0xFA)||(x>=39)){
 314:.\protocolo.c ****                 rventa.volumen[y]=(rx_venta[x]&0x0F);
 315:.\protocolo.c ****                 x++;
 316:.\protocolo.c ****                 y++;    
 317:.\protocolo.c ****             }
 318:.\protocolo.c **** 			rventa.volumen[0]=y-1;
 319:.\protocolo.c ****             x++;
 320:.\protocolo.c ****             y=1;
 321:.\protocolo.c ****             while((rx_venta[x]!=0xFB)||(x>=39)){
 322:.\protocolo.c ****                 rventa.dinero[y]=(rx_venta[x]&0x0F);
 323:.\protocolo.c ****                 x++;
 324:.\protocolo.c ****                 y++;    
 325:.\protocolo.c ****             }
 326:.\protocolo.c **** 			rventa.dinero[0]=y-1;
ARM GAS  C:\Users\diego\AppData\Local\Temp\ccNdDNY6.s 			page 16


 327:.\protocolo.c ****             x+=2;
 328:.\protocolo.c ****             if((rx_venta[x]==0xF0)&&(x<=38)){								
 329:.\protocolo.c **** 				if(val==a.dir){
 330:.\protocolo.c **** 					write_eeprom(457,rventa.dinero);
 331:.\protocolo.c **** 					write_eeprom(466,rventa.volumen);
 332:.\protocolo.c **** 					write_eeprom(475,rventa.ppu);
 333:.\protocolo.c **** 				}				
 334:.\protocolo.c **** 				else{
 335:.\protocolo.c **** 					write_eeprom(482,rventa.dinero);
 336:.\protocolo.c **** 					write_eeprom(500,rventa.ppu);
 337:.\protocolo.c **** 					write_eeprom(491,rventa.volumen);				
 338:.\protocolo.c **** 				}
 339:.\protocolo.c ****                 return 1;
 340:.\protocolo.c ****             }
 341:.\protocolo.c ****             else{
 342:.\protocolo.c ****                 return 0;
 343:.\protocolo.c ****             }
 344:.\protocolo.c ****         }
 345:.\protocolo.c ****         else{
 346:.\protocolo.c ****             return 0;
 347:.\protocolo.c ****         }
 348:.\protocolo.c ****     }
 349:.\protocolo.c ****     else{
 350:.\protocolo.c ****         return 0;
 510              		.loc 1 350 0
 511 001e 0020     		movs	r0, #0
 512 0020 D9E0     		b	.L45
 513              	.LVL55:
 514              	.L46:
 281:.\protocolo.c ****             x++;
 515              		.loc 1 281 0
 516 0022 FFF7FEFF 		bl	Surtidor_ReadRxData
 517              	.LVL56:
 518 0026 0AAB     		add	r3, sp, #40
 519 0028 2B44     		add	r3, r3, r5
 520 002a 03F8280C 		strb	r0, [r3, #-40]
 282:.\protocolo.c ****         }
 521              		.loc 1 282 0
 522 002e 0135     		adds	r5, r5, #1
 523              	.LVL57:
 524 0030 EDB2     		uxtb	r5, r5
 525              	.LVL58:
 526 0032 00E0     		b	.L44
 527              	.LVL59:
 528              	.L60:
 529 0034 0025     		movs	r5, #0
 530              	.LVL60:
 531              	.L44:
 280:.\protocolo.c ****         while(Surtidor_GetRxBufferSize()>0){
 532              		.loc 1 280 0
 533 0036 FFF7FEFF 		bl	Surtidor_GetRxBufferSize
 534              	.LVL61:
 535 003a 0028     		cmp	r0, #0
 536 003c F1D1     		bne	.L46
 284:.\protocolo.c ****         if(val==0){
 537              		.loc 1 284 0
 538 003e FFF7FEFF 		bl	Surtidor_ClearRxBuffer
ARM GAS  C:\Users\diego\AppData\Local\Temp\ccNdDNY6.s 			page 17


 539              	.LVL62:
 285:.\protocolo.c ****             pos=0x10;
 540              		.loc 1 285 0
 541 0042 24B9     		cbnz	r4, .L47
 542              	.LVL63:
 287:.\protocolo.c ****         }
 543              		.loc 1 287 0
 544 0044 1023     		movs	r3, #16
 545 0046 654A     		ldr	r2, .L67
 546 0048 82F8A230 		strb	r3, [r2, #162]
 547 004c 03E0     		b	.L48
 548              	.LVL64:
 549              	.L47:
 291:.\protocolo.c ****         }
 550              		.loc 1 291 0
 551 004e 634B     		ldr	r3, .L67
 552 0050 83F8A240 		strb	r4, [r3, #162]
 290:.\protocolo.c ****             rventa.posicion=pos;
 553              		.loc 1 290 0
 554 0054 2346     		mov	r3, r4
 555              	.LVL65:
 556              	.L48:
 293:.\protocolo.c ****             x=0;
 557              		.loc 1 293 0
 558 0056 9DF80020 		ldrb	r2, [sp]	@ zero_extendqisi2
 559 005a FF2A     		cmp	r2, #255
 560 005c 40F0B480 		bne	.L61
 293:.\protocolo.c ****             x=0;
 561              		.loc 1 293 0 is_stmt 0 discriminator 1
 562 0060 9DF80220 		ldrb	r2, [sp, #2]	@ zero_extendqisi2
 563 0064 F82A     		cmp	r2, #248
 564 0066 40F0B180 		bne	.L62
 293:.\protocolo.c ****             x=0;
 565              		.loc 1 293 0 discriminator 2
 566 006a 9DF80420 		ldrb	r2, [sp, #4]	@ zero_extendqisi2
 567 006e 02F00F02 		and	r2, r2, #15
 568 0072 013B     		subs	r3, r3, #1
 569              	.LVL66:
 570 0074 9A42     		cmp	r2, r3
 571 0076 04D0     		beq	.L63
 346:.\protocolo.c ****         }
 572              		.loc 1 346 0 is_stmt 1
 573 0078 0020     		movs	r0, #0
 574 007a ACE0     		b	.L45
 575              	.LVL67:
 576              	.L50:
 296:.\protocolo.c ****             }
 577              		.loc 1 296 0
 578 007c 0133     		adds	r3, r3, #1
 579              	.LVL68:
 580 007e DBB2     		uxtb	r3, r3
 581              	.LVL69:
 582 0080 00E0     		b	.L49
 583              	.LVL70:
 584              	.L63:
 585 0082 0023     		movs	r3, #0
 586              	.LVL71:
ARM GAS  C:\Users\diego\AppData\Local\Temp\ccNdDNY6.s 			page 18


 587              	.L49:
 295:.\protocolo.c ****                 x++;
 588              		.loc 1 295 0
 589 0084 0AAA     		add	r2, sp, #40
 590 0086 1A44     		add	r2, r2, r3
 591 0088 12F8282C 		ldrb	r2, [r2, #-40]	@ zero_extendqisi2
 592 008c F62A     		cmp	r2, #246
 593 008e F5D1     		bne	.L50
 295:.\protocolo.c ****                 x++;
 594              		.loc 1 295 0 is_stmt 0 discriminator 1
 595 0090 262B     		cmp	r3, #38
 596 0092 F3D8     		bhi	.L50
 298:.\protocolo.c ****             rventa.producto=(rx_venta[x]&0x0F)+1;
 597              		.loc 1 298 0 is_stmt 1
 598 0094 0133     		adds	r3, r3, #1
 599              	.LVL72:
 600 0096 DBB2     		uxtb	r3, r3
 601              	.LVL73:
 299:.\protocolo.c ****             while((rx_venta[x]!=0xF7)||(x>=39)){
 602              		.loc 1 299 0
 603 0098 0AAA     		add	r2, sp, #40
 604 009a 1A44     		add	r2, r2, r3
 605 009c 12F8282C 		ldrb	r2, [r2, #-40]	@ zero_extendqisi2
 606 00a0 02F00F02 		and	r2, r2, #15
 607 00a4 0132     		adds	r2, r2, #1
 608 00a6 4D49     		ldr	r1, .L67
 609 00a8 81F8A320 		strb	r2, [r1, #163]
 300:.\protocolo.c ****                 x++;
 610              		.loc 1 300 0
 611 00ac 01E0     		b	.L51
 612              	.L52:
 301:.\protocolo.c ****             }
 613              		.loc 1 301 0
 614 00ae 0133     		adds	r3, r3, #1
 615              	.LVL74:
 616 00b0 DBB2     		uxtb	r3, r3
 617              	.LVL75:
 618              	.L51:
 300:.\protocolo.c ****                 x++;
 619              		.loc 1 300 0
 620 00b2 0AAA     		add	r2, sp, #40
 621 00b4 1A44     		add	r2, r2, r3
 622 00b6 12F8282C 		ldrb	r2, [r2, #-40]	@ zero_extendqisi2
 623 00ba F72A     		cmp	r2, #247
 624 00bc F7D1     		bne	.L52
 300:.\protocolo.c ****                 x++;
 625              		.loc 1 300 0 is_stmt 0 discriminator 1
 626 00be 262B     		cmp	r3, #38
 627 00c0 F5D8     		bhi	.L52
 303:.\protocolo.c ****             y=1;
 628              		.loc 1 303 0 is_stmt 1
 629 00c2 0133     		adds	r3, r3, #1
 630              	.LVL76:
 631 00c4 DBB2     		uxtb	r3, r3
 632              	.LVL77:
 304:.\protocolo.c ****             while((rx_venta[x]!=0xF9)||(x>=39)){    
 633              		.loc 1 304 0
ARM GAS  C:\Users\diego\AppData\Local\Temp\ccNdDNY6.s 			page 19


 634 00c6 0122     		movs	r2, #1
 305:.\protocolo.c ****                 rventa.ppu[y]=(rx_venta[x]&0x0F);
 635              		.loc 1 305 0
 636 00c8 09E0     		b	.L53
 637              	.LVL78:
 638              	.L54:
 306:.\protocolo.c ****                 x++;
 639              		.loc 1 306 0
 640 00ca 4448     		ldr	r0, .L67
 641 00cc 1044     		add	r0, r0, r2
 642 00ce 01F00F01 		and	r1, r1, #15
 643 00d2 80F8A410 		strb	r1, [r0, #164]
 307:.\protocolo.c ****                 y++;
 644              		.loc 1 307 0
 645 00d6 0133     		adds	r3, r3, #1
 646              	.LVL79:
 647 00d8 DBB2     		uxtb	r3, r3
 648              	.LVL80:
 308:.\protocolo.c ****             }
 649              		.loc 1 308 0
 650 00da 0132     		adds	r2, r2, #1
 651              	.LVL81:
 652 00dc D2B2     		uxtb	r2, r2
 653              	.LVL82:
 654              	.L53:
 305:.\protocolo.c ****                 rventa.ppu[y]=(rx_venta[x]&0x0F);
 655              		.loc 1 305 0
 656 00de 0AA9     		add	r1, sp, #40
 657 00e0 1944     		add	r1, r1, r3
 658 00e2 11F8281C 		ldrb	r1, [r1, #-40]	@ zero_extendqisi2
 659 00e6 F929     		cmp	r1, #249
 660 00e8 EFD1     		bne	.L54
 305:.\protocolo.c ****                 rventa.ppu[y]=(rx_venta[x]&0x0F);
 661              		.loc 1 305 0 is_stmt 0 discriminator 1
 662 00ea 262B     		cmp	r3, #38
 663 00ec EDD8     		bhi	.L54
 310:.\protocolo.c ****             x++;
 664              		.loc 1 310 0 is_stmt 1
 665 00ee 013A     		subs	r2, r2, #1
 666              	.LVL83:
 667 00f0 3A49     		ldr	r1, .L67
 668 00f2 81F8A420 		strb	r2, [r1, #164]
 311:.\protocolo.c ****             y=1;
 669              		.loc 1 311 0
 670 00f6 0133     		adds	r3, r3, #1
 671              	.LVL84:
 672 00f8 DBB2     		uxtb	r3, r3
 673              	.LVL85:
 312:.\protocolo.c ****             while((rx_venta[x]!=0xFA)||(x>=39)){
 674              		.loc 1 312 0
 675 00fa 0122     		movs	r2, #1
 313:.\protocolo.c ****                 rventa.volumen[y]=(rx_venta[x]&0x0F);
 676              		.loc 1 313 0
 677 00fc 09E0     		b	.L55
 678              	.LVL86:
 679              	.L56:
 314:.\protocolo.c ****                 x++;
ARM GAS  C:\Users\diego\AppData\Local\Temp\ccNdDNY6.s 			page 20


 680              		.loc 1 314 0
 681 00fe 3748     		ldr	r0, .L67
 682 0100 1044     		add	r0, r0, r2
 683 0102 01F00F01 		and	r1, r1, #15
 684 0106 80F8B410 		strb	r1, [r0, #180]
 315:.\protocolo.c ****                 y++;    
 685              		.loc 1 315 0
 686 010a 0133     		adds	r3, r3, #1
 687              	.LVL87:
 688 010c DBB2     		uxtb	r3, r3
 689              	.LVL88:
 316:.\protocolo.c ****             }
 690              		.loc 1 316 0
 691 010e 0132     		adds	r2, r2, #1
 692              	.LVL89:
 693 0110 D2B2     		uxtb	r2, r2
 694              	.LVL90:
 695              	.L55:
 313:.\protocolo.c ****                 rventa.volumen[y]=(rx_venta[x]&0x0F);
 696              		.loc 1 313 0
 697 0112 0AA9     		add	r1, sp, #40
 698 0114 1944     		add	r1, r1, r3
 699 0116 11F8281C 		ldrb	r1, [r1, #-40]	@ zero_extendqisi2
 700 011a FA29     		cmp	r1, #250
 701 011c EFD1     		bne	.L56
 313:.\protocolo.c ****                 rventa.volumen[y]=(rx_venta[x]&0x0F);
 702              		.loc 1 313 0 is_stmt 0 discriminator 1
 703 011e 262B     		cmp	r3, #38
 704 0120 EDD8     		bhi	.L56
 318:.\protocolo.c ****             x++;
 705              		.loc 1 318 0 is_stmt 1
 706 0122 013A     		subs	r2, r2, #1
 707              	.LVL91:
 708 0124 2D49     		ldr	r1, .L67
 709 0126 81F8B420 		strb	r2, [r1, #180]
 319:.\protocolo.c ****             y=1;
 710              		.loc 1 319 0
 711 012a 0133     		adds	r3, r3, #1
 712              	.LVL92:
 713 012c DBB2     		uxtb	r3, r3
 714              	.LVL93:
 320:.\protocolo.c ****             while((rx_venta[x]!=0xFB)||(x>=39)){
 715              		.loc 1 320 0
 716 012e 0122     		movs	r2, #1
 321:.\protocolo.c ****                 rventa.dinero[y]=(rx_venta[x]&0x0F);
 717              		.loc 1 321 0
 718 0130 09E0     		b	.L57
 719              	.LVL94:
 720              	.L58:
 322:.\protocolo.c ****                 x++;
 721              		.loc 1 322 0
 722 0132 2A48     		ldr	r0, .L67
 723 0134 1044     		add	r0, r0, r2
 724 0136 01F00F01 		and	r1, r1, #15
 725 013a 80F8AB10 		strb	r1, [r0, #171]
 323:.\protocolo.c ****                 y++;    
 726              		.loc 1 323 0
ARM GAS  C:\Users\diego\AppData\Local\Temp\ccNdDNY6.s 			page 21


 727 013e 0133     		adds	r3, r3, #1
 728              	.LVL95:
 729 0140 DBB2     		uxtb	r3, r3
 730              	.LVL96:
 324:.\protocolo.c ****             }
 731              		.loc 1 324 0
 732 0142 0132     		adds	r2, r2, #1
 733              	.LVL97:
 734 0144 D2B2     		uxtb	r2, r2
 735              	.LVL98:
 736              	.L57:
 321:.\protocolo.c ****                 rventa.dinero[y]=(rx_venta[x]&0x0F);
 737              		.loc 1 321 0
 738 0146 0AA9     		add	r1, sp, #40
 739 0148 1944     		add	r1, r1, r3
 740 014a 11F8281C 		ldrb	r1, [r1, #-40]	@ zero_extendqisi2
 741 014e FB29     		cmp	r1, #251
 742 0150 EFD1     		bne	.L58
 321:.\protocolo.c ****                 rventa.dinero[y]=(rx_venta[x]&0x0F);
 743              		.loc 1 321 0 is_stmt 0 discriminator 1
 744 0152 262B     		cmp	r3, #38
 745 0154 EDD8     		bhi	.L58
 326:.\protocolo.c ****             x+=2;
 746              		.loc 1 326 0 is_stmt 1
 747 0156 013A     		subs	r2, r2, #1
 748              	.LVL99:
 749 0158 2049     		ldr	r1, .L67
 750 015a 81F8AB20 		strb	r2, [r1, #171]
 327:.\protocolo.c ****             if((rx_venta[x]==0xF0)&&(x<=38)){								
 751              		.loc 1 327 0
 752 015e 0233     		adds	r3, r3, #2
 753              	.LVL100:
 754 0160 DBB2     		uxtb	r3, r3
 755              	.LVL101:
 328:.\protocolo.c **** 				if(val==a.dir){
 756              		.loc 1 328 0
 757 0162 0AAA     		add	r2, sp, #40
 758 0164 1A44     		add	r2, r2, r3
 759 0166 12F8282C 		ldrb	r2, [r2, #-40]	@ zero_extendqisi2
 760 016a F02A     		cmp	r2, #240
 761 016c 30D1     		bne	.L64
 328:.\protocolo.c **** 				if(val==a.dir){
 762              		.loc 1 328 0 is_stmt 0 discriminator 1
 763 016e 262B     		cmp	r3, #38
 764 0170 30D8     		bhi	.L65
 329:.\protocolo.c **** 					write_eeprom(457,rventa.dinero);
 765              		.loc 1 329 0 is_stmt 1
 766 0172 1B4B     		ldr	r3, .L67+4
 767              	.LVL102:
 768 0174 1B78     		ldrb	r3, [r3]	@ zero_extendqisi2
 769 0176 A342     		cmp	r3, r4
 770 0178 13D1     		bne	.L59
 330:.\protocolo.c **** 					write_eeprom(466,rventa.volumen);
 771              		.loc 1 330 0
 772 017a 01F1AB04 		add	r4, r1, #171
 773 017e 40F2C910 		movw	r0, #457
 774 0182 2146     		mov	r1, r4
ARM GAS  C:\Users\diego\AppData\Local\Temp\ccNdDNY6.s 			page 22


 775 0184 FFF7FEFF 		bl	write_eeprom
 776              	.LVL103:
 331:.\protocolo.c **** 					write_eeprom(475,rventa.ppu);
 777              		.loc 1 331 0
 778 0188 4FF4E970 		mov	r0, #466
 779 018c 04F10901 		add	r1, r4, #9
 780 0190 FFF7FEFF 		bl	write_eeprom
 781              	.LVL104:
 332:.\protocolo.c **** 				}				
 782              		.loc 1 332 0
 783 0194 40F2DB10 		movw	r0, #475
 784 0198 E11F     		subs	r1, r4, #7
 785 019a FFF7FEFF 		bl	write_eeprom
 786              	.LVL105:
 339:.\protocolo.c ****             }
 787              		.loc 1 339 0
 788 019e 0120     		movs	r0, #1
 789 01a0 19E0     		b	.L45
 790              	.L59:
 335:.\protocolo.c **** 					write_eeprom(500,rventa.ppu);
 791              		.loc 1 335 0
 792 01a2 104C     		ldr	r4, .L67+8
 793 01a4 4FF4F170 		mov	r0, #482
 794 01a8 2146     		mov	r1, r4
 795 01aa FFF7FEFF 		bl	write_eeprom
 796              	.LVL106:
 336:.\protocolo.c **** 					write_eeprom(491,rventa.volumen);				
 797              		.loc 1 336 0
 798 01ae 4FF4FA70 		mov	r0, #500
 799 01b2 E11F     		subs	r1, r4, #7
 800 01b4 FFF7FEFF 		bl	write_eeprom
 801              	.LVL107:
 337:.\protocolo.c **** 				}
 802              		.loc 1 337 0
 803 01b8 40F2EB10 		movw	r0, #491
 804 01bc 04F10901 		add	r1, r4, #9
 805 01c0 FFF7FEFF 		bl	write_eeprom
 806              	.LVL108:
 339:.\protocolo.c ****             }
 807              		.loc 1 339 0
 808 01c4 0120     		movs	r0, #1
 809 01c6 06E0     		b	.L45
 810              	.LVL109:
 811              	.L61:
 346:.\protocolo.c ****         }
 812              		.loc 1 346 0
 813 01c8 0020     		movs	r0, #0
 814 01ca 04E0     		b	.L45
 815              	.L62:
 816 01cc 0020     		movs	r0, #0
 817 01ce 02E0     		b	.L45
 818              	.LVL110:
 819              	.L64:
 342:.\protocolo.c ****             }
 820              		.loc 1 342 0
 821 01d0 0020     		movs	r0, #0
 822 01d2 00E0     		b	.L45
ARM GAS  C:\Users\diego\AppData\Local\Temp\ccNdDNY6.s 			page 23


 823              	.L65:
 824 01d4 0020     		movs	r0, #0
 825              	.LVL111:
 826              	.L45:
 351:.\protocolo.c ****     }
 352:.\protocolo.c **** }
 827              		.loc 1 352 0
 828 01d6 0BB0     		add	sp, sp, #44
 829              		.cfi_def_cfa_offset 12
 830              		@ sp needed
 831 01d8 30BD     		pop	{r4, r5, pc}
 832              	.L68:
 833 01da 00BF     		.align	2
 834              	.L67:
 835 01dc 00000000 		.word	rventa
 836 01e0 00000000 		.word	a
 837 01e4 AB000000 		.word	rventa+171
 838              		.cfi_endproc
 839              	.LFE66:
 840              		.size	venta, .-venta
 841              		.section	.text.get_totales,"ax",%progbits
 842              		.align	2
 843              		.global	get_totales
 844              		.thumb
 845              		.thumb_func
 846              		.type	get_totales, %function
 847              	get_totales:
 848              	.LFB67:
 353:.\protocolo.c **** 
 354:.\protocolo.c **** /*
 355:.\protocolo.c **** ***************************************************************************************************
 356:.\protocolo.c **** *                                         uint8 get_totales(uint8 dir)
 357:.\protocolo.c **** *
 358:.\protocolo.c **** * Description : 
 359:.\protocolo.c **** *               
 360:.\protocolo.c **** *
 361:.\protocolo.c **** * Argument(s) : none
 362:.\protocolo.c **** *
 363:.\protocolo.c **** * Return(s)   : none
 364:.\protocolo.c **** *
 365:.\protocolo.c **** * Caller(s)   : 
 366:.\protocolo.c **** *
 367:.\protocolo.c **** * Note(s)     : none.
 368:.\protocolo.c **** ***************************************************************************************************
 369:.\protocolo.c **** */
 370:.\protocolo.c **** uint8 get_totales(uint8 dir,uint8 val){ 
 849              		.loc 1 370 0
 850              		.cfi_startproc
 851              		@ args = 0, pretend = 0, frame = 64
 852              		@ frame_needed = 0, uses_anonymous_args = 0
 853              	.LVL112:
 854 0000 70B5     		push	{r4, r5, r6, lr}
 855              		.cfi_def_cfa_offset 16
 856              		.cfi_offset 4, -16
 857              		.cfi_offset 5, -12
 858              		.cfi_offset 6, -8
 859              		.cfi_offset 14, -4
ARM GAS  C:\Users\diego\AppData\Local\Temp\ccNdDNY6.s 			page 24


 860 0002 90B0     		sub	sp, sp, #64
 861              		.cfi_def_cfa_offset 80
 862 0004 0546     		mov	r5, r0
 863 0006 0C46     		mov	r4, r1
 371:.\protocolo.c **** 	uint8 corte[25], minuendo[14],sustraendo[14]; 
 372:.\protocolo.c ****     Surtidor_PutChar(0x50|dir);
 864              		.loc 1 372 0
 865 0008 40F05000 		orr	r0, r0, #80
 866              	.LVL113:
 867 000c FFF7FEFF 		bl	Surtidor_PutChar
 868              	.LVL114:
 373:.\protocolo.c **** 
 374:.\protocolo.c ****     CyDelay(1000);
 869              		.loc 1 374 0
 870 0010 4FF47A70 		mov	r0, #1000
 871 0014 FFF7FEFF 		bl	CyDelay
 872              	.LVL115:
 375:.\protocolo.c **** 	switch(Surtidor_GetRxBufferSize()){
 873              		.loc 1 375 0
 874 0018 FFF7FEFF 		bl	Surtidor_GetRxBufferSize
 875              	.LVL116:
 876 001c 4028     		cmp	r0, #64
 877 001e 00F04D84 		beq	.L71
 878 0022 06D8     		bhi	.L72
 879 0024 2228     		cmp	r0, #34
 880 0026 0FD0     		beq	.L73
 881 0028 2E28     		cmp	r0, #46
 882 002a 01F0EB84 		beq	.L74
 883 002e 03F0C3B9 		b	.L70
 884              	.L72:
 885 0032 5E28     		cmp	r0, #94
 886 0034 01F09480 		beq	.L75
 887 0038 8228     		cmp	r0, #130
 888 003a 02F08785 		beq	.L76
 889 003e 5828     		cmp	r0, #88
 890 0040 43F0BA81 		bne	.L70
 891 0044 02F01CB9 		b	.L77
 892              	.L73:
 376:.\protocolo.c **** 		case 34:
 377:.\protocolo.c **** 			if((Surtidor_rxBuffer[0]==0xFF)&&(Surtidor_rxBuffer[1]==0xF6)&&(Surtidor_rxBuffer[33]==0xF0)&&(S
 893              		.loc 1 377 0
 894 0048 A14B     		ldr	r3, .L617
 895 004a 1B78     		ldrb	r3, [r3]	@ zero_extendqisi2
 896 004c DBB2     		uxtb	r3, r3
 897 004e FF2B     		cmp	r3, #255
 898 0050 43F0E181 		bne	.L592
 899              		.loc 1 377 0 is_stmt 0 discriminator 1
 900 0054 9E4B     		ldr	r3, .L617
 901 0056 5B78     		ldrb	r3, [r3, #1]	@ zero_extendqisi2
 902 0058 DBB2     		uxtb	r3, r3
 903 005a F62B     		cmp	r3, #246
 904 005c 43F0DD81 		bne	.L593
 905              		.loc 1 377 0 discriminator 2
 906 0060 9B4B     		ldr	r3, .L617
 907 0062 93F82130 		ldrb	r3, [r3, #33]	@ zero_extendqisi2
 908 0066 DBB2     		uxtb	r3, r3
 909 0068 F02B     		cmp	r3, #240
ARM GAS  C:\Users\diego\AppData\Local\Temp\ccNdDNY6.s 			page 25


 910 006a 43F0D881 		bne	.L594
 911              		.loc 1 377 0 discriminator 3
 912 006e 984B     		ldr	r3, .L617
 913 0070 DB78     		ldrb	r3, [r3, #3]	@ zero_extendqisi2
 914 0072 DBB2     		uxtb	r3, r3
 915 0074 F92B     		cmp	r3, #249
 916 0076 43F0D481 		bne	.L595
 378:.\protocolo.c **** 				rventa.manguera=(Surtidor_rxBuffer[2]&0x0F)+1;			
 917              		.loc 1 378 0 is_stmt 1
 918 007a 954B     		ldr	r3, .L617
 919 007c 9978     		ldrb	r1, [r3, #2]	@ zero_extendqisi2
 920 007e 01F00F01 		and	r1, r1, #15
 921 0082 0131     		adds	r1, r1, #1
 922 0084 934B     		ldr	r3, .L617+4
 923 0086 83F8E010 		strb	r1, [r3, #224]
 379:.\protocolo.c **** 				for(x=0;x<=7;x++){												
 924              		.loc 1 379 0
 925 008a 0022     		movs	r2, #0
 926 008c 924B     		ldr	r3, .L617+8
 927 008e 1A60     		str	r2, [r3]
 928 0090 0BE0     		b	.L79
 929              	.L80:
 380:.\protocolo.c **** 					rventa.tvolumen[x]=(Surtidor_rxBuffer[x+4]&0x0F);
 930              		.loc 1 380 0 discriminator 3
 931 0092 1A1D     		adds	r2, r3, #4
 932 0094 8E48     		ldr	r0, .L617
 933 0096 805C     		ldrb	r0, [r0, r2]	@ zero_extendqisi2
 934 0098 8E4A     		ldr	r2, .L617+4
 935 009a 1A44     		add	r2, r2, r3
 936 009c 00F00F00 		and	r0, r0, #15
 937 00a0 82F8BD00 		strb	r0, [r2, #189]
 379:.\protocolo.c **** 				for(x=0;x<=7;x++){												
 938              		.loc 1 379 0 discriminator 3
 939 00a4 0133     		adds	r3, r3, #1
 940 00a6 8C4A     		ldr	r2, .L617+8
 941 00a8 1360     		str	r3, [r2]
 942              	.L79:
 379:.\protocolo.c **** 				for(x=0;x<=7;x++){												
 943              		.loc 1 379 0 is_stmt 0 discriminator 1
 944 00aa 8B4B     		ldr	r3, .L617+8
 945 00ac 1B68     		ldr	r3, [r3]
 946 00ae 072B     		cmp	r3, #7
 947 00b0 EFD9     		bls	.L80
 381:.\protocolo.c **** 				}
 382:.\protocolo.c **** 				for(x=0;x<=7;x++){
 948              		.loc 1 382 0 is_stmt 1
 949 00b2 0022     		movs	r2, #0
 950 00b4 884B     		ldr	r3, .L617+8
 951 00b6 1A60     		str	r2, [r3]
 952 00b8 0CE0     		b	.L81
 953              	.L82:
 383:.\protocolo.c **** 					rventa.tdinero[x]=(Surtidor_rxBuffer[x+13]&0x0F);
 954              		.loc 1 383 0 discriminator 3
 955 00ba 03F10D02 		add	r2, r3, #13
 956 00be 8448     		ldr	r0, .L617
 957 00c0 805C     		ldrb	r0, [r0, r2]	@ zero_extendqisi2
 958 00c2 844A     		ldr	r2, .L617+4
ARM GAS  C:\Users\diego\AppData\Local\Temp\ccNdDNY6.s 			page 26


 959 00c4 1A44     		add	r2, r2, r3
 960 00c6 00F00F00 		and	r0, r0, #15
 961 00ca 82F8CA00 		strb	r0, [r2, #202]
 382:.\protocolo.c **** 					rventa.tdinero[x]=(Surtidor_rxBuffer[x+13]&0x0F);
 962              		.loc 1 382 0 discriminator 3
 963 00ce 0133     		adds	r3, r3, #1
 964 00d0 814A     		ldr	r2, .L617+8
 965 00d2 1360     		str	r3, [r2]
 966              	.L81:
 382:.\protocolo.c **** 					rventa.tdinero[x]=(Surtidor_rxBuffer[x+13]&0x0F);
 967              		.loc 1 382 0 is_stmt 0 discriminator 1
 968 00d4 804B     		ldr	r3, .L617+8
 969 00d6 1B68     		ldr	r3, [r3]
 970 00d8 072B     		cmp	r3, #7
 971 00da EED9     		bls	.L82
 384:.\protocolo.c **** 				}
 385:.\protocolo.c **** 				for(z=0;z<=7;z++){
 972              		.loc 1 385 0 is_stmt 1
 973 00dc 0022     		movs	r2, #0
 974 00de 7F4B     		ldr	r3, .L617+12
 975 00e0 1A60     		str	r2, [r3]
 976 00e2 0AE0     		b	.L83
 977              	.L84:
 386:.\protocolo.c **** 					corte[z+1]=rventa.tvolumen[z];
 978              		.loc 1 386 0 discriminator 3
 979 00e4 5A1C     		adds	r2, r3, #1
 980 00e6 7B48     		ldr	r0, .L617+4
 981 00e8 0344     		add	r3, r3, r0
 982 00ea 93F8BD00 		ldrb	r0, [r3, #189]	@ zero_extendqisi2
 983 00ee 10AB     		add	r3, sp, #64
 984 00f0 1344     		add	r3, r3, r2
 985 00f2 03F81C0C 		strb	r0, [r3, #-28]
 385:.\protocolo.c **** 					corte[z+1]=rventa.tvolumen[z];
 986              		.loc 1 385 0 discriminator 3
 987 00f6 794B     		ldr	r3, .L617+12
 988 00f8 1A60     		str	r2, [r3]
 989              	.L83:
 385:.\protocolo.c **** 					corte[z+1]=rventa.tvolumen[z];
 990              		.loc 1 385 0 is_stmt 0 discriminator 1
 991 00fa 784B     		ldr	r3, .L617+12
 992 00fc 1B68     		ldr	r3, [r3]
 993 00fe 072B     		cmp	r3, #7
 994 0100 F0D9     		bls	.L84
 387:.\protocolo.c **** 				}
 388:.\protocolo.c **** 				for(z=9;z<=16;z++){
 995              		.loc 1 388 0 is_stmt 1
 996 0102 0922     		movs	r2, #9
 997 0104 754B     		ldr	r3, .L617+12
 998 0106 1A60     		str	r2, [r3]
 999 0108 0AE0     		b	.L85
 1000              	.L86:
 389:.\protocolo.c **** 					corte[z]=rventa.tdinero[z-9];
 1001              		.loc 1 389 0 discriminator 3
 1002 010a 754A     		ldr	r2, .L617+16
 1003 010c 1A44     		add	r2, r2, r3
 1004 010e 92F8CA00 		ldrb	r0, [r2, #202]	@ zero_extendqisi2
 1005 0112 10AA     		add	r2, sp, #64
ARM GAS  C:\Users\diego\AppData\Local\Temp\ccNdDNY6.s 			page 27


 1006 0114 1A44     		add	r2, r2, r3
 1007 0116 02F81C0C 		strb	r0, [r2, #-28]
 388:.\protocolo.c **** 					corte[z]=rventa.tdinero[z-9];
 1008              		.loc 1 388 0 discriminator 3
 1009 011a 0133     		adds	r3, r3, #1
 1010 011c 6F4A     		ldr	r2, .L617+12
 1011 011e 1360     		str	r3, [r2]
 1012              	.L85:
 388:.\protocolo.c **** 					corte[z]=rventa.tdinero[z-9];
 1013              		.loc 1 388 0 is_stmt 0 discriminator 1
 1014 0120 6E4B     		ldr	r3, .L617+12
 1015 0122 1B68     		ldr	r3, [r3]
 1016 0124 102B     		cmp	r3, #16
 1017 0126 F0D9     		bls	.L86
 390:.\protocolo.c **** 				}
 391:.\protocolo.c **** 				corte[0]=16;				
 1018              		.loc 1 391 0 is_stmt 1
 1019 0128 1023     		movs	r3, #16
 1020 012a 8DF82430 		strb	r3, [sp, #36]
 392:.\protocolo.c **** 				if(((rventa.manguera==(producto1&0x0F))&&(dir==a.dir))||((rventa.manguera==(producto1&0x0F))&&(
 1021              		.loc 1 392 0
 1022 012e 6D4B     		ldr	r3, .L617+20
 1023 0130 1B78     		ldrb	r3, [r3]	@ zero_extendqisi2
 1024 0132 03F00F03 		and	r3, r3, #15
 1025 0136 9942     		cmp	r1, r3
 1026 0138 07D1     		bne	.L87
 1027              		.loc 1 392 0 is_stmt 0 discriminator 1
 1028 013a 6B4B     		ldr	r3, .L617+24
 1029 013c 1B78     		ldrb	r3, [r3]	@ zero_extendqisi2
 1030 013e AB42     		cmp	r3, r5
 1031 0140 15D0     		beq	.L88
 1032              		.loc 1 392 0 discriminator 3
 1033 0142 6A4B     		ldr	r3, .L617+28
 1034 0144 1B78     		ldrb	r3, [r3]	@ zero_extendqisi2
 1035 0146 AB42     		cmp	r3, r5
 1036 0148 11D0     		beq	.L88
 1037              	.L87:
 1038              		.loc 1 392 0 discriminator 4
 1039 014a 694B     		ldr	r3, .L617+32
 1040 014c 1B78     		ldrb	r3, [r3]	@ zero_extendqisi2
 1041 014e 03F00F03 		and	r3, r3, #15
 1042 0152 9942     		cmp	r1, r3
 1043 0154 03D1     		bne	.L89
 1044              		.loc 1 392 0 discriminator 5
 1045 0156 674A     		ldr	r2, .L617+36
 1046 0158 1278     		ldrb	r2, [r2]	@ zero_extendqisi2
 1047 015a AA42     		cmp	r2, r5
 1048 015c 07D0     		beq	.L88
 1049              	.L89:
 1050              		.loc 1 392 0 discriminator 7
 1051 015e 9942     		cmp	r1, r3
 1052 0160 40F0E080 		bne	.L90
 1053              		.loc 1 392 0 discriminator 8
 1054 0164 644B     		ldr	r3, .L617+40
 1055 0166 1B78     		ldrb	r3, [r3]	@ zero_extendqisi2
 1056 0168 AB42     		cmp	r3, r5
 1057 016a 40F0DB80 		bne	.L90
ARM GAS  C:\Users\diego\AppData\Local\Temp\ccNdDNY6.s 			page 28


 1058              	.L88:
 393:.\protocolo.c **** 					for(x=0;x<=5;x++){									
 1059              		.loc 1 393 0 is_stmt 1
 1060 016e 0022     		movs	r2, #0
 1061 0170 594B     		ldr	r3, .L617+8
 1062 0172 1A60     		str	r2, [r3]
 1063 0174 08E0     		b	.L91
 1064              	.L92:
 394:.\protocolo.c **** 						write_psoc1(val,msn_tc[x]);
 1065              		.loc 1 394 0 discriminator 3
 1066 0176 2046     		mov	r0, r4
 1067 0178 604A     		ldr	r2, .L617+44
 1068 017a D15C     		ldrb	r1, [r2, r3]	@ zero_extendqisi2
 1069 017c FFF7FEFF 		bl	write_psoc1
 1070              	.LVL117:
 393:.\protocolo.c **** 					for(x=0;x<=5;x++){									
 1071              		.loc 1 393 0 discriminator 3
 1072 0180 554A     		ldr	r2, .L617+8
 1073 0182 1368     		ldr	r3, [r2]
 1074 0184 0133     		adds	r3, r3, #1
 1075 0186 1360     		str	r3, [r2]
 1076              	.L91:
 393:.\protocolo.c **** 					for(x=0;x<=5;x++){									
 1077              		.loc 1 393 0 is_stmt 0 discriminator 1
 1078 0188 534B     		ldr	r3, .L617+8
 1079 018a 1B68     		ldr	r3, [r3]
 1080 018c 052B     		cmp	r3, #5
 1081 018e F2D9     		bls	.L92
 395:.\protocolo.c **** 					}
 396:.\protocolo.c **** 					write_psoc1(val,10);
 1082              		.loc 1 396 0 is_stmt 1
 1083 0190 2046     		mov	r0, r4
 1084 0192 0A21     		movs	r1, #10
 1085 0194 FFF7FEFF 		bl	write_psoc1
 1086              	.LVL118:
 397:.\protocolo.c ****                     for(x=0;x<=10;x++){									
 1087              		.loc 1 397 0
 1088 0198 0022     		movs	r2, #0
 1089 019a 4F4B     		ldr	r3, .L617+8
 1090 019c 1A60     		str	r2, [r3]
 1091 019e 08E0     		b	.L93
 1092              	.L94:
 398:.\protocolo.c **** 						write_psoc1(val,producto1n[x]);
 1093              		.loc 1 398 0 discriminator 3
 1094 01a0 2046     		mov	r0, r4
 1095 01a2 574A     		ldr	r2, .L617+48
 1096 01a4 D15C     		ldrb	r1, [r2, r3]	@ zero_extendqisi2
 1097 01a6 FFF7FEFF 		bl	write_psoc1
 1098              	.LVL119:
 397:.\protocolo.c ****                     for(x=0;x<=10;x++){									
 1099              		.loc 1 397 0 discriminator 3
 1100 01aa 4B4A     		ldr	r2, .L617+8
 1101 01ac 1368     		ldr	r3, [r2]
 1102 01ae 0133     		adds	r3, r3, #1
 1103 01b0 1360     		str	r3, [r2]
 1104              	.L93:
 397:.\protocolo.c ****                     for(x=0;x<=10;x++){									
ARM GAS  C:\Users\diego\AppData\Local\Temp\ccNdDNY6.s 			page 29


 1105              		.loc 1 397 0 is_stmt 0 discriminator 1
 1106 01b2 494B     		ldr	r3, .L617+8
 1107 01b4 1B68     		ldr	r3, [r3]
 1108 01b6 0A2B     		cmp	r3, #10
 1109 01b8 F2D9     		bls	.L94
 399:.\protocolo.c **** 					}
 400:.\protocolo.c ****                     write_psoc1(val,10);
 1110              		.loc 1 400 0 is_stmt 1
 1111 01ba 2046     		mov	r0, r4
 1112 01bc 0A21     		movs	r1, #10
 1113 01be FFF7FEFF 		bl	write_psoc1
 1114              	.LVL120:
 401:.\protocolo.c **** 					for(x=0;x<=14;x++){									
 1115              		.loc 1 401 0
 1116 01c2 0022     		movs	r2, #0
 1117 01c4 444B     		ldr	r3, .L617+8
 1118 01c6 1A60     		str	r2, [r3]
 1119 01c8 09E0     		b	.L95
 1120              	.L96:
 402:.\protocolo.c **** 						write_psoc1(val,msn_lecact[x]);				//LECTURA ACTUAL
 1121              		.loc 1 402 0 discriminator 3
 1122 01ca 4C4A     		ldr	r2, .L617+44
 1123 01cc 1344     		add	r3, r3, r2
 1124 01ce 2046     		mov	r0, r4
 1125 01d0 197A     		ldrb	r1, [r3, #8]	@ zero_extendqisi2
 1126 01d2 FFF7FEFF 		bl	write_psoc1
 1127              	.LVL121:
 401:.\protocolo.c **** 					for(x=0;x<=14;x++){									
 1128              		.loc 1 401 0 discriminator 3
 1129 01d6 404A     		ldr	r2, .L617+8
 1130 01d8 1368     		ldr	r3, [r2]
 1131 01da 0133     		adds	r3, r3, #1
 1132 01dc 1360     		str	r3, [r2]
 1133              	.L95:
 401:.\protocolo.c **** 					for(x=0;x<=14;x++){									
 1134              		.loc 1 401 0 is_stmt 0 discriminator 1
 1135 01de 3E4B     		ldr	r3, .L617+8
 1136 01e0 1B68     		ldr	r3, [r3]
 1137 01e2 0E2B     		cmp	r3, #14
 1138 01e4 F1D9     		bls	.L96
 403:.\protocolo.c **** 					}
 404:.\protocolo.c **** 					write_psoc1(val,10);
 1139              		.loc 1 404 0 is_stmt 1
 1140 01e6 2046     		mov	r0, r4
 1141 01e8 0A21     		movs	r1, #10
 1142 01ea FFF7FEFF 		bl	write_psoc1
 1143              	.LVL122:
 405:.\protocolo.c **** 					print_totalesac(8,val);	
 1144              		.loc 1 405 0
 1145 01ee 0820     		movs	r0, #8
 1146 01f0 2146     		mov	r1, r4
 1147 01f2 FFF7FEFF 		bl	print_totalesac
 1148              	.LVL123:
 406:.\protocolo.c **** 					for(x=0;x<=16;x++){												
 1149              		.loc 1 406 0
 1150 01f6 0022     		movs	r2, #0
 1151 01f8 374B     		ldr	r3, .L617+8
ARM GAS  C:\Users\diego\AppData\Local\Temp\ccNdDNY6.s 			page 30


 1152 01fa 1A60     		str	r2, [r3]
 1153 01fc 09E0     		b	.L97
 1154              	.L98:
 407:.\protocolo.c **** 						write_psoc1(val,msn_lecaan[x]);				//LECTURA ANTERIOR
 1155              		.loc 1 407 0 discriminator 3
 1156 01fe 3F4A     		ldr	r2, .L617+44
 1157 0200 1344     		add	r3, r3, r2
 1158 0202 2046     		mov	r0, r4
 1159 0204 197E     		ldrb	r1, [r3, #24]	@ zero_extendqisi2
 1160 0206 FFF7FEFF 		bl	write_psoc1
 1161              	.LVL124:
 406:.\protocolo.c **** 					for(x=0;x<=16;x++){												
 1162              		.loc 1 406 0 discriminator 3
 1163 020a 334A     		ldr	r2, .L617+8
 1164 020c 1368     		ldr	r3, [r2]
 1165 020e 0133     		adds	r3, r3, #1
 1166 0210 1360     		str	r3, [r2]
 1167              	.L97:
 406:.\protocolo.c **** 					for(x=0;x<=16;x++){												
 1168              		.loc 1 406 0 is_stmt 0 discriminator 1
 1169 0212 314B     		ldr	r3, .L617+8
 1170 0214 1B68     		ldr	r3, [r3]
 1171 0216 102B     		cmp	r3, #16
 1172 0218 F1D9     		bls	.L98
 408:.\protocolo.c **** 					}
 409:.\protocolo.c **** 					write_psoc1(val,10);
 1173              		.loc 1 409 0 is_stmt 1
 1174 021a 2046     		mov	r0, r4
 1175 021c 0A21     		movs	r1, #10
 1176 021e FFF7FEFF 		bl	write_psoc1
 1177              	.LVL125:
 410:.\protocolo.c **** 					if(dir==a.dir){
 1178              		.loc 1 410 0
 1179 0222 314B     		ldr	r3, .L617+24
 1180 0224 1B78     		ldrb	r3, [r3]	@ zero_extendqisi2
 1181 0226 AB42     		cmp	r3, r5
 1182 0228 04D1     		bne	.L99
 411:.\protocolo.c **** 						leer_eeprom(192,25);
 1183              		.loc 1 411 0
 1184 022a C020     		movs	r0, #192
 1185 022c 1921     		movs	r1, #25
 1186 022e FFF7FEFF 		bl	leer_eeprom
 1187              	.LVL126:
 1188 0232 04E0     		b	.L100
 1189              	.L99:
 412:.\protocolo.c **** 					}
 413:.\protocolo.c **** 					else{
 414:.\protocolo.c **** 						leer_eeprom(281,25);
 1190              		.loc 1 414 0
 1191 0234 40F21910 		movw	r0, #281
 1192 0238 1921     		movs	r1, #25
 1193 023a FFF7FEFF 		bl	leer_eeprom
 1194              	.LVL127:
 1195              	.L100:
 415:.\protocolo.c **** 					}
 416:.\protocolo.c **** 					print_totales(val);
 1196              		.loc 1 416 0
ARM GAS  C:\Users\diego\AppData\Local\Temp\ccNdDNY6.s 			page 31


 1197 023e 2046     		mov	r0, r4
 1198 0240 FFF7FEFF 		bl	print_totales
 1199              	.LVL128:
 417:.\protocolo.c **** 					for(z=1;z<=8;z++){
 1200              		.loc 1 417 0
 1201 0244 0122     		movs	r2, #1
 1202 0246 254B     		ldr	r3, .L617+12
 1203 0248 1A60     		str	r2, [r3]
 1204 024a 10E0     		b	.L101
 1205              	.L102:
 418:.\protocolo.c **** 						minuendo[z]=rventa.tdinero[z-1];
 1206              		.loc 1 418 0 discriminator 3
 1207 024c 2D4A     		ldr	r2, .L617+52
 1208 024e 1A44     		add	r2, r2, r3
 1209 0250 92F8CA10 		ldrb	r1, [r2, #202]	@ zero_extendqisi2
 1210 0254 10AA     		add	r2, sp, #64
 1211 0256 1A44     		add	r2, r2, r3
 1212 0258 02F82C1C 		strb	r1, [r2, #-44]
 419:.\protocolo.c **** 						sustraendo[z]=buffer_i2c[z+8];
 1213              		.loc 1 419 0 discriminator 3
 1214 025c 03F10801 		add	r1, r3, #8
 1215 0260 2948     		ldr	r0, .L617+56
 1216 0262 415C     		ldrb	r1, [r0, r1]	@ zero_extendqisi2
 1217 0264 02F83C1C 		strb	r1, [r2, #-60]
 417:.\protocolo.c **** 					for(z=1;z<=8;z++){
 1218              		.loc 1 417 0 discriminator 3
 1219 0268 0133     		adds	r3, r3, #1
 1220 026a 1C4A     		ldr	r2, .L617+12
 1221 026c 1360     		str	r3, [r2]
 1222              	.L101:
 417:.\protocolo.c **** 					for(z=1;z<=8;z++){
 1223              		.loc 1 417 0 is_stmt 0 discriminator 1
 1224 026e 1B4B     		ldr	r3, .L617+12
 1225 0270 1B68     		ldr	r3, [r3]
 1226 0272 082B     		cmp	r3, #8
 1227 0274 EAD9     		bls	.L102
 420:.\protocolo.c **** 					}
 421:.\protocolo.c **** 					minuendo[0]=8;
 1228              		.loc 1 421 0 is_stmt 1
 1229 0276 10A9     		add	r1, sp, #64
 1230 0278 0823     		movs	r3, #8
 1231 027a 01F82C3D 		strb	r3, [r1, #-44]!
 422:.\protocolo.c **** 					operacion(2,minuendo,sustraendo);
 1232              		.loc 1 422 0
 1233 027e 0220     		movs	r0, #2
 1234 0280 01AA     		add	r2, sp, #4
 1235 0282 FFF7FEFF 		bl	operacion
 1236              	.LVL129:
 423:.\protocolo.c **** 					for(x=0;x<=17;x++){									
 1237              		.loc 1 423 0
 1238 0286 0022     		movs	r2, #0
 1239 0288 134B     		ldr	r3, .L617+8
 1240 028a 1A60     		str	r2, [r3]
 1241 028c 0AE0     		b	.L103
 1242              	.L104:
 424:.\protocolo.c **** 						write_psoc1(val,msn_tventas[x]);				//Total de ventas
 1243              		.loc 1 424 0 discriminator 3
ARM GAS  C:\Users\diego\AppData\Local\Temp\ccNdDNY6.s 			page 32


 1244 028e 1B4A     		ldr	r2, .L617+44
 1245 0290 1344     		add	r3, r3, r2
 1246 0292 2046     		mov	r0, r4
 1247 0294 93F82C10 		ldrb	r1, [r3, #44]	@ zero_extendqisi2
 1248 0298 FFF7FEFF 		bl	write_psoc1
 1249              	.LVL130:
 423:.\protocolo.c **** 					for(x=0;x<=17;x++){									
 1250              		.loc 1 423 0 discriminator 3
 1251 029c 0E4A     		ldr	r2, .L617+8
 1252 029e 1368     		ldr	r3, [r2]
 1253 02a0 0133     		adds	r3, r3, #1
 1254 02a2 1360     		str	r3, [r2]
 1255              	.L103:
 423:.\protocolo.c **** 					for(x=0;x<=17;x++){									
 1256              		.loc 1 423 0 is_stmt 0 discriminator 1
 1257 02a4 0C4B     		ldr	r3, .L617+8
 1258 02a6 1B68     		ldr	r3, [r3]
 1259 02a8 112B     		cmp	r3, #17
 1260 02aa F0D9     		bls	.L104
 425:.\protocolo.c **** 					}
 426:.\protocolo.c **** 					print_valor(resultado,val);
 1261              		.loc 1 426 0 is_stmt 1
 1262 02ac 1748     		ldr	r0, .L617+60
 1263 02ae 2146     		mov	r1, r4
 1264 02b0 FFF7FEFF 		bl	print_valor
 1265              	.LVL131:
 427:.\protocolo.c **** 					if(dir==a.dir){
 1266              		.loc 1 427 0
 1267 02b4 0C4B     		ldr	r3, .L617+24
 1268 02b6 1B78     		ldrb	r3, [r3]	@ zero_extendqisi2
 1269 02b8 AB42     		cmp	r3, r5
 1270 02ba 29D1     		bne	.L105
 428:.\protocolo.c **** 						write_eeprom(192,corte);	
 1271              		.loc 1 428 0
 1272 02bc C020     		movs	r0, #192
 1273 02be 09A9     		add	r1, sp, #36
 1274 02c0 FFF7FEFF 		bl	write_eeprom
 1275              	.LVL132:
 429:.\protocolo.c **** 						write_eeprom(512,resultado);
 1276              		.loc 1 429 0
 1277 02c4 4FF40070 		mov	r0, #512
 1278 02c8 1049     		ldr	r1, .L617+60
 1279 02ca FFF7FEFF 		bl	write_eeprom
 1280              	.LVL133:
 1281 02ce 29E0     		b	.L90
 1282              	.L618:
 1283              		.align	2
 1284              	.L617:
 1285 02d0 00000000 		.word	Surtidor_rxBuffer
 1286 02d4 00000000 		.word	rventa
 1287 02d8 00000000 		.word	x
 1288 02dc 00000000 		.word	z
 1289 02e0 F7FFFFFF 		.word	rventa-9
 1290 02e4 00000000 		.word	producto1
 1291 02e8 00000000 		.word	a
 1292 02ec 00000000 		.word	b
 1293 02f0 00000000 		.word	producto1b
ARM GAS  C:\Users\diego\AppData\Local\Temp\ccNdDNY6.s 			page 33


 1294 02f4 00000000 		.word	c
 1295 02f8 00000000 		.word	d
 1296 02fc 00000000 		.word	.LANCHOR1
 1297 0300 00000000 		.word	producto1n
 1298 0304 FFFFFFFF 		.word	rventa-1
 1299 0308 00000000 		.word	buffer_i2c
 1300 030c 00000000 		.word	resultado
 1301              	.L105:
 430:.\protocolo.c **** 					}
 431:.\protocolo.c **** 					else{
 432:.\protocolo.c **** 						write_eeprom(281,corte);
 1302              		.loc 1 432 0
 1303 0310 40F21910 		movw	r0, #281
 1304 0314 09A9     		add	r1, sp, #36
 1305 0316 FFF7FEFF 		bl	write_eeprom
 1306              	.LVL134:
 433:.\protocolo.c **** 						write_eeprom(551,resultado);
 1307              		.loc 1 433 0
 1308 031a 40F22720 		movw	r0, #551
 1309 031e A249     		ldr	r1, .L619
 1310 0320 FFF7FEFF 		bl	write_eeprom
 1311              	.LVL135:
 1312              	.L90:
 434:.\protocolo.c **** 					}
 435:.\protocolo.c **** 				}
 436:.\protocolo.c **** 				if(((rventa.manguera==(producto2&0x0F))&&(dir==a.dir))||((rventa.manguera==(producto2b&0x0F))&&
 1313              		.loc 1 436 0
 1314 0324 A14B     		ldr	r3, .L619+4
 1315 0326 93F8E030 		ldrb	r3, [r3, #224]	@ zero_extendqisi2
 1316 032a A14A     		ldr	r2, .L619+8
 1317 032c 1278     		ldrb	r2, [r2]	@ zero_extendqisi2
 1318 032e 02F00F02 		and	r2, r2, #15
 1319 0332 9A42     		cmp	r2, r3
 1320 0334 03D1     		bne	.L106
 1321              		.loc 1 436 0 is_stmt 0 discriminator 1
 1322 0336 9F49     		ldr	r1, .L619+12
 1323 0338 0978     		ldrb	r1, [r1]	@ zero_extendqisi2
 1324 033a A942     		cmp	r1, r5
 1325 033c 17D0     		beq	.L107
 1326              	.L106:
 1327              		.loc 1 436 0 discriminator 3
 1328 033e 9E49     		ldr	r1, .L619+16
 1329 0340 0978     		ldrb	r1, [r1]	@ zero_extendqisi2
 1330 0342 01F00F01 		and	r1, r1, #15
 1331 0346 8B42     		cmp	r3, r1
 1332 0348 03D1     		bne	.L108
 1333              		.loc 1 436 0 discriminator 4
 1334 034a 9C48     		ldr	r0, .L619+20
 1335 034c 0078     		ldrb	r0, [r0]	@ zero_extendqisi2
 1336 034e A842     		cmp	r0, r5
 1337 0350 0DD0     		beq	.L107
 1338              	.L108:
 1339              		.loc 1 436 0 discriminator 6
 1340 0352 8B42     		cmp	r3, r1
 1341 0354 03D1     		bne	.L109
 1342              		.loc 1 436 0 discriminator 7
 1343 0356 9A49     		ldr	r1, .L619+24
ARM GAS  C:\Users\diego\AppData\Local\Temp\ccNdDNY6.s 			page 34


 1344 0358 0978     		ldrb	r1, [r1]	@ zero_extendqisi2
 1345 035a A942     		cmp	r1, r5
 1346 035c 07D0     		beq	.L107
 1347              	.L109:
 1348              		.loc 1 436 0 discriminator 9
 1349 035e 9A42     		cmp	r2, r3
 1350 0360 40F0C080 		bne	.L110
 1351              		.loc 1 436 0 discriminator 10
 1352 0364 974B     		ldr	r3, .L619+28
 1353 0366 1B78     		ldrb	r3, [r3]	@ zero_extendqisi2
 1354 0368 AB42     		cmp	r3, r5
 1355 036a 40F0BB80 		bne	.L110
 1356              	.L107:
 437:.\protocolo.c **** 					for(x=0;x<=5;x++){									
 1357              		.loc 1 437 0 is_stmt 1
 1358 036e 0022     		movs	r2, #0
 1359 0370 954B     		ldr	r3, .L619+32
 1360 0372 1A60     		str	r2, [r3]
 1361 0374 08E0     		b	.L111
 1362              	.L112:
 438:.\protocolo.c **** 						write_psoc1(val,msn_tc[x]);
 1363              		.loc 1 438 0 discriminator 3
 1364 0376 2046     		mov	r0, r4
 1365 0378 944A     		ldr	r2, .L619+36
 1366 037a D15C     		ldrb	r1, [r2, r3]	@ zero_extendqisi2
 1367 037c FFF7FEFF 		bl	write_psoc1
 1368              	.LVL136:
 437:.\protocolo.c **** 					for(x=0;x<=5;x++){									
 1369              		.loc 1 437 0 discriminator 3
 1370 0380 914A     		ldr	r2, .L619+32
 1371 0382 1368     		ldr	r3, [r2]
 1372 0384 0133     		adds	r3, r3, #1
 1373 0386 1360     		str	r3, [r2]
 1374              	.L111:
 437:.\protocolo.c **** 					for(x=0;x<=5;x++){									
 1375              		.loc 1 437 0 is_stmt 0 discriminator 1
 1376 0388 8F4B     		ldr	r3, .L619+32
 1377 038a 1B68     		ldr	r3, [r3]
 1378 038c 052B     		cmp	r3, #5
 1379 038e F2D9     		bls	.L112
 439:.\protocolo.c **** 					}
 440:.\protocolo.c **** 					write_psoc1(val,10);
 1380              		.loc 1 440 0 is_stmt 1
 1381 0390 2046     		mov	r0, r4
 1382 0392 0A21     		movs	r1, #10
 1383 0394 FFF7FEFF 		bl	write_psoc1
 1384              	.LVL137:
 441:.\protocolo.c ****                     for(x=0;x<=10;x++){									
 1385              		.loc 1 441 0
 1386 0398 0022     		movs	r2, #0
 1387 039a 8B4B     		ldr	r3, .L619+32
 1388 039c 1A60     		str	r2, [r3]
 1389 039e 08E0     		b	.L113
 1390              	.L114:
 442:.\protocolo.c **** 						write_psoc1(val,producto2n[x]);
 1391              		.loc 1 442 0 discriminator 3
 1392 03a0 2046     		mov	r0, r4
ARM GAS  C:\Users\diego\AppData\Local\Temp\ccNdDNY6.s 			page 35


 1393 03a2 8B4A     		ldr	r2, .L619+40
 1394 03a4 D15C     		ldrb	r1, [r2, r3]	@ zero_extendqisi2
 1395 03a6 FFF7FEFF 		bl	write_psoc1
 1396              	.LVL138:
 441:.\protocolo.c ****                     for(x=0;x<=10;x++){									
 1397              		.loc 1 441 0 discriminator 3
 1398 03aa 874A     		ldr	r2, .L619+32
 1399 03ac 1368     		ldr	r3, [r2]
 1400 03ae 0133     		adds	r3, r3, #1
 1401 03b0 1360     		str	r3, [r2]
 1402              	.L113:
 441:.\protocolo.c ****                     for(x=0;x<=10;x++){									
 1403              		.loc 1 441 0 is_stmt 0 discriminator 1
 1404 03b2 854B     		ldr	r3, .L619+32
 1405 03b4 1B68     		ldr	r3, [r3]
 1406 03b6 0A2B     		cmp	r3, #10
 1407 03b8 F2D9     		bls	.L114
 443:.\protocolo.c **** 					}                    
 444:.\protocolo.c **** 					write_psoc1(val,10);
 1408              		.loc 1 444 0 is_stmt 1
 1409 03ba 2046     		mov	r0, r4
 1410 03bc 0A21     		movs	r1, #10
 1411 03be FFF7FEFF 		bl	write_psoc1
 1412              	.LVL139:
 445:.\protocolo.c **** 					for(x=0;x<=14;x++){									
 1413              		.loc 1 445 0
 1414 03c2 0022     		movs	r2, #0
 1415 03c4 804B     		ldr	r3, .L619+32
 1416 03c6 1A60     		str	r2, [r3]
 1417 03c8 09E0     		b	.L115
 1418              	.L116:
 446:.\protocolo.c **** 						write_psoc1(val,msn_lecact[x]);				//LECTURA ACTUAL
 1419              		.loc 1 446 0 discriminator 3
 1420 03ca 804A     		ldr	r2, .L619+36
 1421 03cc 1344     		add	r3, r3, r2
 1422 03ce 2046     		mov	r0, r4
 1423 03d0 197A     		ldrb	r1, [r3, #8]	@ zero_extendqisi2
 1424 03d2 FFF7FEFF 		bl	write_psoc1
 1425              	.LVL140:
 445:.\protocolo.c **** 					for(x=0;x<=14;x++){									
 1426              		.loc 1 445 0 discriminator 3
 1427 03d6 7C4A     		ldr	r2, .L619+32
 1428 03d8 1368     		ldr	r3, [r2]
 1429 03da 0133     		adds	r3, r3, #1
 1430 03dc 1360     		str	r3, [r2]
 1431              	.L115:
 445:.\protocolo.c **** 					for(x=0;x<=14;x++){									
 1432              		.loc 1 445 0 is_stmt 0 discriminator 1
 1433 03de 7A4B     		ldr	r3, .L619+32
 1434 03e0 1B68     		ldr	r3, [r3]
 1435 03e2 0E2B     		cmp	r3, #14
 1436 03e4 F1D9     		bls	.L116
 447:.\protocolo.c **** 					}
 448:.\protocolo.c **** 					write_psoc1(val,10);
 1437              		.loc 1 448 0 is_stmt 1
 1438 03e6 2046     		mov	r0, r4
 1439 03e8 0A21     		movs	r1, #10
ARM GAS  C:\Users\diego\AppData\Local\Temp\ccNdDNY6.s 			page 36


 1440 03ea FFF7FEFF 		bl	write_psoc1
 1441              	.LVL141:
 449:.\protocolo.c **** 					print_totalesac(8,val);	
 1442              		.loc 1 449 0
 1443 03ee 0820     		movs	r0, #8
 1444 03f0 2146     		mov	r1, r4
 1445 03f2 FFF7FEFF 		bl	print_totalesac
 1446              	.LVL142:
 450:.\protocolo.c **** 					for(x=0;x<=16;x++){												
 1447              		.loc 1 450 0
 1448 03f6 0022     		movs	r2, #0
 1449 03f8 734B     		ldr	r3, .L619+32
 1450 03fa 1A60     		str	r2, [r3]
 1451 03fc 09E0     		b	.L117
 1452              	.L118:
 451:.\protocolo.c **** 						write_psoc1(val,msn_lecaan[x]);				//LECTURA ANTERIOR
 1453              		.loc 1 451 0 discriminator 3
 1454 03fe 734A     		ldr	r2, .L619+36
 1455 0400 1344     		add	r3, r3, r2
 1456 0402 2046     		mov	r0, r4
 1457 0404 197E     		ldrb	r1, [r3, #24]	@ zero_extendqisi2
 1458 0406 FFF7FEFF 		bl	write_psoc1
 1459              	.LVL143:
 450:.\protocolo.c **** 					for(x=0;x<=16;x++){												
 1460              		.loc 1 450 0 discriminator 3
 1461 040a 6F4A     		ldr	r2, .L619+32
 1462 040c 1368     		ldr	r3, [r2]
 1463 040e 0133     		adds	r3, r3, #1
 1464 0410 1360     		str	r3, [r2]
 1465              	.L117:
 450:.\protocolo.c **** 					for(x=0;x<=16;x++){												
 1466              		.loc 1 450 0 is_stmt 0 discriminator 1
 1467 0412 6D4B     		ldr	r3, .L619+32
 1468 0414 1B68     		ldr	r3, [r3]
 1469 0416 102B     		cmp	r3, #16
 1470 0418 F1D9     		bls	.L118
 452:.\protocolo.c **** 					}
 453:.\protocolo.c **** 					write_psoc1(val,10);
 1471              		.loc 1 453 0 is_stmt 1
 1472 041a 2046     		mov	r0, r4
 1473 041c 0A21     		movs	r1, #10
 1474 041e FFF7FEFF 		bl	write_psoc1
 1475              	.LVL144:
 454:.\protocolo.c **** 					if(dir==a.dir){
 1476              		.loc 1 454 0
 1477 0422 644B     		ldr	r3, .L619+12
 1478 0424 1B78     		ldrb	r3, [r3]	@ zero_extendqisi2
 1479 0426 AB42     		cmp	r3, r5
 1480 0428 04D1     		bne	.L119
 455:.\protocolo.c **** 						leer_eeprom(217,25);
 1481              		.loc 1 455 0
 1482 042a D920     		movs	r0, #217
 1483 042c 1921     		movs	r1, #25
 1484 042e FFF7FEFF 		bl	leer_eeprom
 1485              	.LVL145:
 1486 0432 04E0     		b	.L120
 1487              	.L119:
ARM GAS  C:\Users\diego\AppData\Local\Temp\ccNdDNY6.s 			page 37


 456:.\protocolo.c **** 					}
 457:.\protocolo.c **** 					else{
 458:.\protocolo.c **** 						leer_eeprom(320,25);
 1488              		.loc 1 458 0
 1489 0434 4FF4A070 		mov	r0, #320
 1490 0438 1921     		movs	r1, #25
 1491 043a FFF7FEFF 		bl	leer_eeprom
 1492              	.LVL146:
 1493              	.L120:
 459:.\protocolo.c **** 					}
 460:.\protocolo.c **** 					print_totales(val);
 1494              		.loc 1 460 0
 1495 043e 2046     		mov	r0, r4
 1496 0440 FFF7FEFF 		bl	print_totales
 1497              	.LVL147:
 461:.\protocolo.c **** 					for(z=1;z<=8;z++){
 1498              		.loc 1 461 0
 1499 0444 0122     		movs	r2, #1
 1500 0446 634B     		ldr	r3, .L619+44
 1501 0448 1A60     		str	r2, [r3]
 1502 044a 10E0     		b	.L121
 1503              	.L122:
 462:.\protocolo.c **** 						minuendo[z]=rventa.tdinero[z-1];
 1504              		.loc 1 462 0 discriminator 3
 1505 044c 624A     		ldr	r2, .L619+48
 1506 044e 1A44     		add	r2, r2, r3
 1507 0450 92F8CA10 		ldrb	r1, [r2, #202]	@ zero_extendqisi2
 1508 0454 10AA     		add	r2, sp, #64
 1509 0456 1A44     		add	r2, r2, r3
 1510 0458 02F82C1C 		strb	r1, [r2, #-44]
 463:.\protocolo.c **** 						sustraendo[z]=buffer_i2c[z+8];
 1511              		.loc 1 463 0 discriminator 3
 1512 045c 03F10801 		add	r1, r3, #8
 1513 0460 5E48     		ldr	r0, .L619+52
 1514 0462 415C     		ldrb	r1, [r0, r1]	@ zero_extendqisi2
 1515 0464 02F83C1C 		strb	r1, [r2, #-60]
 461:.\protocolo.c **** 					for(z=1;z<=8;z++){
 1516              		.loc 1 461 0 discriminator 3
 1517 0468 0133     		adds	r3, r3, #1
 1518 046a 5A4A     		ldr	r2, .L619+44
 1519 046c 1360     		str	r3, [r2]
 1520              	.L121:
 461:.\protocolo.c **** 					for(z=1;z<=8;z++){
 1521              		.loc 1 461 0 is_stmt 0 discriminator 1
 1522 046e 594B     		ldr	r3, .L619+44
 1523 0470 1B68     		ldr	r3, [r3]
 1524 0472 082B     		cmp	r3, #8
 1525 0474 EAD9     		bls	.L122
 464:.\protocolo.c **** 					}
 465:.\protocolo.c **** 					minuendo[0]=8;
 1526              		.loc 1 465 0 is_stmt 1
 1527 0476 10A9     		add	r1, sp, #64
 1528 0478 0823     		movs	r3, #8
 1529 047a 01F82C3D 		strb	r3, [r1, #-44]!
 466:.\protocolo.c **** 					operacion(2,minuendo,sustraendo);
 1530              		.loc 1 466 0
 1531 047e 0220     		movs	r0, #2
ARM GAS  C:\Users\diego\AppData\Local\Temp\ccNdDNY6.s 			page 38


 1532 0480 01AA     		add	r2, sp, #4
 1533 0482 FFF7FEFF 		bl	operacion
 1534              	.LVL148:
 467:.\protocolo.c **** 					for(x=0;x<=17;x++){									
 1535              		.loc 1 467 0
 1536 0486 0022     		movs	r2, #0
 1537 0488 4F4B     		ldr	r3, .L619+32
 1538 048a 1A60     		str	r2, [r3]
 1539 048c 0AE0     		b	.L123
 1540              	.L124:
 468:.\protocolo.c **** 						write_psoc1(val,msn_tventas[x]);				//Total de ventas
 1541              		.loc 1 468 0 discriminator 3
 1542 048e 4F4A     		ldr	r2, .L619+36
 1543 0490 1344     		add	r3, r3, r2
 1544 0492 2046     		mov	r0, r4
 1545 0494 93F82C10 		ldrb	r1, [r3, #44]	@ zero_extendqisi2
 1546 0498 FFF7FEFF 		bl	write_psoc1
 1547              	.LVL149:
 467:.\protocolo.c **** 					for(x=0;x<=17;x++){									
 1548              		.loc 1 467 0 discriminator 3
 1549 049c 4A4A     		ldr	r2, .L619+32
 1550 049e 1368     		ldr	r3, [r2]
 1551 04a0 0133     		adds	r3, r3, #1
 1552 04a2 1360     		str	r3, [r2]
 1553              	.L123:
 467:.\protocolo.c **** 					for(x=0;x<=17;x++){									
 1554              		.loc 1 467 0 is_stmt 0 discriminator 1
 1555 04a4 484B     		ldr	r3, .L619+32
 1556 04a6 1B68     		ldr	r3, [r3]
 1557 04a8 112B     		cmp	r3, #17
 1558 04aa F0D9     		bls	.L124
 469:.\protocolo.c **** 					}
 470:.\protocolo.c **** 					print_valor(resultado,val);				
 1559              		.loc 1 470 0 is_stmt 1
 1560 04ac 3E48     		ldr	r0, .L619
 1561 04ae 2146     		mov	r1, r4
 1562 04b0 FFF7FEFF 		bl	print_valor
 1563              	.LVL150:
 471:.\protocolo.c **** 					if(dir==a.dir){
 1564              		.loc 1 471 0
 1565 04b4 3F4B     		ldr	r3, .L619+12
 1566 04b6 1B78     		ldrb	r3, [r3]	@ zero_extendqisi2
 1567 04b8 AB42     		cmp	r3, r5
 1568 04ba 09D1     		bne	.L125
 472:.\protocolo.c **** 						write_eeprom(217,corte);
 1569              		.loc 1 472 0
 1570 04bc D920     		movs	r0, #217
 1571 04be 09A9     		add	r1, sp, #36
 1572 04c0 FFF7FEFF 		bl	write_eeprom
 1573              	.LVL151:
 473:.\protocolo.c **** 						write_eeprom(538,resultado);
 1574              		.loc 1 473 0
 1575 04c4 40F21A20 		movw	r0, #538
 1576 04c8 3749     		ldr	r1, .L619
 1577 04ca FFF7FEFF 		bl	write_eeprom
 1578              	.LVL152:
 1579 04ce 09E0     		b	.L110
ARM GAS  C:\Users\diego\AppData\Local\Temp\ccNdDNY6.s 			page 39


 1580              	.L125:
 474:.\protocolo.c **** 					}
 475:.\protocolo.c **** 					else{
 476:.\protocolo.c **** 						write_eeprom(320,corte);
 1581              		.loc 1 476 0
 1582 04d0 4FF4A070 		mov	r0, #320
 1583 04d4 09A9     		add	r1, sp, #36
 1584 04d6 FFF7FEFF 		bl	write_eeprom
 1585              	.LVL153:
 477:.\protocolo.c **** 						write_eeprom(576,resultado);
 1586              		.loc 1 477 0
 1587 04da 4FF41070 		mov	r0, #576
 1588 04de 3249     		ldr	r1, .L619
 1589 04e0 FFF7FEFF 		bl	write_eeprom
 1590              	.LVL154:
 1591              	.L110:
 478:.\protocolo.c **** 					}				
 479:.\protocolo.c **** 				}
 480:.\protocolo.c **** 				if(((rventa.manguera==(producto3&0x0F))&&(dir==a.dir))||((rventa.manguera==(producto3b&0x0F))&&
 1592              		.loc 1 480 0
 1593 04e4 314B     		ldr	r3, .L619+4
 1594 04e6 93F8E020 		ldrb	r2, [r3, #224]	@ zero_extendqisi2
 1595 04ea 3D4B     		ldr	r3, .L619+56
 1596 04ec 1B78     		ldrb	r3, [r3]	@ zero_extendqisi2
 1597 04ee 03F00F03 		and	r3, r3, #15
 1598 04f2 9342     		cmp	r3, r2
 1599 04f4 03D1     		bne	.L126
 1600              		.loc 1 480 0 is_stmt 0 discriminator 1
 1601 04f6 2F4B     		ldr	r3, .L619+12
 1602 04f8 1B78     		ldrb	r3, [r3]	@ zero_extendqisi2
 1603 04fa AB42     		cmp	r3, r5
 1604 04fc 0BD0     		beq	.L127
 1605              	.L126:
 1606              		.loc 1 480 0 discriminator 3
 1607 04fe 394B     		ldr	r3, .L619+60
 1608 0500 1B78     		ldrb	r3, [r3]	@ zero_extendqisi2
 1609 0502 03F00F03 		and	r3, r3, #15
 1610 0506 9A42     		cmp	r2, r3
 1611 0508 40F0E580 		bne	.L128
 1612              		.loc 1 480 0 discriminator 4
 1613 050c 2B4B     		ldr	r3, .L619+20
 1614 050e 1B78     		ldrb	r3, [r3]	@ zero_extendqisi2
 1615 0510 AB42     		cmp	r3, r5
 1616 0512 40F0E080 		bne	.L128
 1617              	.L127:
 481:.\protocolo.c **** 					for(x=0;x<=5;x++){									
 1618              		.loc 1 481 0 is_stmt 1
 1619 0516 0022     		movs	r2, #0
 1620 0518 2B4B     		ldr	r3, .L619+32
 1621 051a 1A60     		str	r2, [r3]
 1622 051c 08E0     		b	.L129
 1623              	.L130:
 482:.\protocolo.c **** 						    write_psoc1(val,msn_tc[x]);
 1624              		.loc 1 482 0 discriminator 3
 1625 051e 2046     		mov	r0, r4
 1626 0520 2A4A     		ldr	r2, .L619+36
 1627 0522 D15C     		ldrb	r1, [r2, r3]	@ zero_extendqisi2
ARM GAS  C:\Users\diego\AppData\Local\Temp\ccNdDNY6.s 			page 40


 1628 0524 FFF7FEFF 		bl	write_psoc1
 1629              	.LVL155:
 481:.\protocolo.c **** 					for(x=0;x<=5;x++){									
 1630              		.loc 1 481 0 discriminator 3
 1631 0528 274A     		ldr	r2, .L619+32
 1632 052a 1368     		ldr	r3, [r2]
 1633 052c 0133     		adds	r3, r3, #1
 1634 052e 1360     		str	r3, [r2]
 1635              	.L129:
 481:.\protocolo.c **** 					for(x=0;x<=5;x++){									
 1636              		.loc 1 481 0 is_stmt 0 discriminator 1
 1637 0530 254B     		ldr	r3, .L619+32
 1638 0532 1B68     		ldr	r3, [r3]
 1639 0534 052B     		cmp	r3, #5
 1640 0536 F2D9     		bls	.L130
 483:.\protocolo.c **** 					    }
 484:.\protocolo.c **** 					    write_psoc1(val,10);
 1641              		.loc 1 484 0 is_stmt 1
 1642 0538 2046     		mov	r0, r4
 1643 053a 0A21     		movs	r1, #10
 1644 053c FFF7FEFF 		bl	write_psoc1
 1645              	.LVL156:
 485:.\protocolo.c ****                     for(x=0;x<=10;x++){									
 1646              		.loc 1 485 0
 1647 0540 0022     		movs	r2, #0
 1648 0542 214B     		ldr	r3, .L619+32
 1649 0544 1A60     		str	r2, [r3]
 1650 0546 08E0     		b	.L131
 1651              	.L132:
 486:.\protocolo.c **** 						    write_psoc1(val,producto3n[x]);
 1652              		.loc 1 486 0 discriminator 3
 1653 0548 2046     		mov	r0, r4
 1654 054a 274A     		ldr	r2, .L619+64
 1655 054c D15C     		ldrb	r1, [r2, r3]	@ zero_extendqisi2
 1656 054e FFF7FEFF 		bl	write_psoc1
 1657              	.LVL157:
 485:.\protocolo.c ****                     for(x=0;x<=10;x++){									
 1658              		.loc 1 485 0 discriminator 3
 1659 0552 1D4A     		ldr	r2, .L619+32
 1660 0554 1368     		ldr	r3, [r2]
 1661 0556 0133     		adds	r3, r3, #1
 1662 0558 1360     		str	r3, [r2]
 1663              	.L131:
 485:.\protocolo.c ****                     for(x=0;x<=10;x++){									
 1664              		.loc 1 485 0 is_stmt 0 discriminator 1
 1665 055a 1B4B     		ldr	r3, .L619+32
 1666 055c 1B68     		ldr	r3, [r3]
 1667 055e 0A2B     		cmp	r3, #10
 1668 0560 F2D9     		bls	.L132
 487:.\protocolo.c **** 					    }
 488:.\protocolo.c ****                     write_psoc1(val,10);
 1669              		.loc 1 488 0 is_stmt 1
 1670 0562 2046     		mov	r0, r4
 1671 0564 0A21     		movs	r1, #10
 1672 0566 FFF7FEFF 		bl	write_psoc1
 1673              	.LVL158:
 489:.\protocolo.c **** 					for(x=0;x<=14;x++){									
ARM GAS  C:\Users\diego\AppData\Local\Temp\ccNdDNY6.s 			page 41


 1674              		.loc 1 489 0
 1675 056a 0022     		movs	r2, #0
 1676 056c 164B     		ldr	r3, .L619+32
 1677 056e 1A60     		str	r2, [r3]
 1678 0570 09E0     		b	.L133
 1679              	.L134:
 490:.\protocolo.c **** 						write_psoc1(val,msn_lecact[x]);				//LECTURA ACTUAL
 1680              		.loc 1 490 0 discriminator 3
 1681 0572 164A     		ldr	r2, .L619+36
 1682 0574 1344     		add	r3, r3, r2
 1683 0576 2046     		mov	r0, r4
 1684 0578 197A     		ldrb	r1, [r3, #8]	@ zero_extendqisi2
 1685 057a FFF7FEFF 		bl	write_psoc1
 1686              	.LVL159:
 489:.\protocolo.c **** 					for(x=0;x<=14;x++){									
 1687              		.loc 1 489 0 discriminator 3
 1688 057e 124A     		ldr	r2, .L619+32
 1689 0580 1368     		ldr	r3, [r2]
 1690 0582 0133     		adds	r3, r3, #1
 1691 0584 1360     		str	r3, [r2]
 1692              	.L133:
 489:.\protocolo.c **** 					for(x=0;x<=14;x++){									
 1693              		.loc 1 489 0 is_stmt 0 discriminator 1
 1694 0586 104B     		ldr	r3, .L619+32
 1695 0588 1B68     		ldr	r3, [r3]
 1696 058a 0E2B     		cmp	r3, #14
 1697 058c F1D9     		bls	.L134
 491:.\protocolo.c **** 					}
 492:.\protocolo.c **** 					write_psoc1(val,10);
 1698              		.loc 1 492 0 is_stmt 1
 1699 058e 2046     		mov	r0, r4
 1700 0590 0A21     		movs	r1, #10
 1701 0592 FFF7FEFF 		bl	write_psoc1
 1702              	.LVL160:
 493:.\protocolo.c **** 					print_totalesac(8,val);	
 1703              		.loc 1 493 0
 1704 0596 0820     		movs	r0, #8
 1705 0598 2146     		mov	r1, r4
 1706 059a FFF7FEFF 		bl	print_totalesac
 1707              	.LVL161:
 494:.\protocolo.c **** 					for(x=0;x<=16;x++){												
 1708              		.loc 1 494 0
 1709 059e 0022     		movs	r2, #0
 1710 05a0 094B     		ldr	r3, .L619+32
 1711 05a2 1A60     		str	r2, [r3]
 1712 05a4 2CE0     		b	.L135
 1713              	.L620:
 1714 05a6 00BF     		.align	2
 1715              	.L619:
 1716 05a8 00000000 		.word	resultado
 1717 05ac 00000000 		.word	rventa
 1718 05b0 00000000 		.word	producto2
 1719 05b4 00000000 		.word	a
 1720 05b8 00000000 		.word	producto2b
 1721 05bc 00000000 		.word	b
 1722 05c0 00000000 		.word	d
 1723 05c4 00000000 		.word	c
ARM GAS  C:\Users\diego\AppData\Local\Temp\ccNdDNY6.s 			page 42


 1724 05c8 00000000 		.word	x
 1725 05cc 00000000 		.word	.LANCHOR1
 1726 05d0 00000000 		.word	producto2n
 1727 05d4 00000000 		.word	z
 1728 05d8 FFFFFFFF 		.word	rventa-1
 1729 05dc 00000000 		.word	buffer_i2c
 1730 05e0 00000000 		.word	producto3
 1731 05e4 00000000 		.word	producto3b
 1732 05e8 00000000 		.word	producto3n
 1733              	.L136:
 495:.\protocolo.c **** 						write_psoc1(val,msn_lecaan[x]);				//LECTURA ANTERIOR
 1734              		.loc 1 495 0 discriminator 3
 1735 05ec A74A     		ldr	r2, .L621
 1736 05ee 1344     		add	r3, r3, r2
 1737 05f0 2046     		mov	r0, r4
 1738 05f2 197E     		ldrb	r1, [r3, #24]	@ zero_extendqisi2
 1739 05f4 FFF7FEFF 		bl	write_psoc1
 1740              	.LVL162:
 494:.\protocolo.c **** 					for(x=0;x<=16;x++){												
 1741              		.loc 1 494 0 discriminator 3
 1742 05f8 A54A     		ldr	r2, .L621+4
 1743 05fa 1368     		ldr	r3, [r2]
 1744 05fc 0133     		adds	r3, r3, #1
 1745 05fe 1360     		str	r3, [r2]
 1746              	.L135:
 494:.\protocolo.c **** 					for(x=0;x<=16;x++){												
 1747              		.loc 1 494 0 is_stmt 0 discriminator 1
 1748 0600 A34B     		ldr	r3, .L621+4
 1749 0602 1B68     		ldr	r3, [r3]
 1750 0604 102B     		cmp	r3, #16
 1751 0606 F1D9     		bls	.L136
 496:.\protocolo.c **** 					}
 497:.\protocolo.c **** 					write_psoc1(val,10);
 1752              		.loc 1 497 0 is_stmt 1
 1753 0608 2046     		mov	r0, r4
 1754 060a 0A21     		movs	r1, #10
 1755 060c FFF7FEFF 		bl	write_psoc1
 1756              	.LVL163:
 498:.\protocolo.c **** 					if(dir==a.dir){
 1757              		.loc 1 498 0
 1758 0610 A04B     		ldr	r3, .L621+8
 1759 0612 1B78     		ldrb	r3, [r3]	@ zero_extendqisi2
 1760 0614 AB42     		cmp	r3, r5
 1761 0616 05D1     		bne	.L137
 499:.\protocolo.c **** 						leer_eeprom(256,25);
 1762              		.loc 1 499 0
 1763 0618 4FF48070 		mov	r0, #256
 1764 061c 1921     		movs	r1, #25
 1765 061e FFF7FEFF 		bl	leer_eeprom
 1766              	.LVL164:
 1767 0622 04E0     		b	.L138
 1768              	.L137:
 500:.\protocolo.c **** 					}
 501:.\protocolo.c **** 					else{
 502:.\protocolo.c **** 						leer_eeprom(345,25);
 1769              		.loc 1 502 0
 1770 0624 40F25910 		movw	r0, #345
ARM GAS  C:\Users\diego\AppData\Local\Temp\ccNdDNY6.s 			page 43


 1771 0628 1921     		movs	r1, #25
 1772 062a FFF7FEFF 		bl	leer_eeprom
 1773              	.LVL165:
 1774              	.L138:
 503:.\protocolo.c **** 					}
 504:.\protocolo.c **** 					print_totales(val);
 1775              		.loc 1 504 0
 1776 062e 2046     		mov	r0, r4
 1777 0630 FFF7FEFF 		bl	print_totales
 1778              	.LVL166:
 505:.\protocolo.c **** 					for(z=1;z<=8;z++){
 1779              		.loc 1 505 0
 1780 0634 0122     		movs	r2, #1
 1781 0636 984B     		ldr	r3, .L621+12
 1782 0638 1A60     		str	r2, [r3]
 1783 063a 10E0     		b	.L139
 1784              	.L140:
 506:.\protocolo.c **** 						minuendo[z]=rventa.tdinero[z-1];
 1785              		.loc 1 506 0 discriminator 3
 1786 063c 974A     		ldr	r2, .L621+16
 1787 063e 1A44     		add	r2, r2, r3
 1788 0640 92F8CA10 		ldrb	r1, [r2, #202]	@ zero_extendqisi2
 1789 0644 10AA     		add	r2, sp, #64
 1790 0646 1A44     		add	r2, r2, r3
 1791 0648 02F82C1C 		strb	r1, [r2, #-44]
 507:.\protocolo.c **** 						sustraendo[z]=buffer_i2c[z+8];
 1792              		.loc 1 507 0 discriminator 3
 1793 064c 03F10801 		add	r1, r3, #8
 1794 0650 9348     		ldr	r0, .L621+20
 1795 0652 415C     		ldrb	r1, [r0, r1]	@ zero_extendqisi2
 1796 0654 02F83C1C 		strb	r1, [r2, #-60]
 505:.\protocolo.c **** 					for(z=1;z<=8;z++){
 1797              		.loc 1 505 0 discriminator 3
 1798 0658 0133     		adds	r3, r3, #1
 1799 065a 8F4A     		ldr	r2, .L621+12
 1800 065c 1360     		str	r3, [r2]
 1801              	.L139:
 505:.\protocolo.c **** 					for(z=1;z<=8;z++){
 1802              		.loc 1 505 0 is_stmt 0 discriminator 1
 1803 065e 8E4B     		ldr	r3, .L621+12
 1804 0660 1B68     		ldr	r3, [r3]
 1805 0662 082B     		cmp	r3, #8
 1806 0664 EAD9     		bls	.L140
 508:.\protocolo.c **** 					}
 509:.\protocolo.c **** 					minuendo[0]=8;
 1807              		.loc 1 509 0 is_stmt 1
 1808 0666 10A9     		add	r1, sp, #64
 1809 0668 0823     		movs	r3, #8
 1810 066a 01F82C3D 		strb	r3, [r1, #-44]!
 510:.\protocolo.c **** 					operacion(2,minuendo,sustraendo);
 1811              		.loc 1 510 0
 1812 066e 0220     		movs	r0, #2
 1813 0670 01AA     		add	r2, sp, #4
 1814 0672 FFF7FEFF 		bl	operacion
 1815              	.LVL167:
 511:.\protocolo.c **** 					for(x=0;x<=17;x++){									
 1816              		.loc 1 511 0
ARM GAS  C:\Users\diego\AppData\Local\Temp\ccNdDNY6.s 			page 44


 1817 0676 0022     		movs	r2, #0
 1818 0678 854B     		ldr	r3, .L621+4
 1819 067a 1A60     		str	r2, [r3]
 1820 067c 0AE0     		b	.L141
 1821              	.L142:
 512:.\protocolo.c **** 						write_psoc1(val,msn_tventas[x]);				//Total de ventas
 1822              		.loc 1 512 0 discriminator 3
 1823 067e 834A     		ldr	r2, .L621
 1824 0680 1344     		add	r3, r3, r2
 1825 0682 2046     		mov	r0, r4
 1826 0684 93F82C10 		ldrb	r1, [r3, #44]	@ zero_extendqisi2
 1827 0688 FFF7FEFF 		bl	write_psoc1
 1828              	.LVL168:
 511:.\protocolo.c **** 					for(x=0;x<=17;x++){									
 1829              		.loc 1 511 0 discriminator 3
 1830 068c 804A     		ldr	r2, .L621+4
 1831 068e 1368     		ldr	r3, [r2]
 1832 0690 0133     		adds	r3, r3, #1
 1833 0692 1360     		str	r3, [r2]
 1834              	.L141:
 511:.\protocolo.c **** 					for(x=0;x<=17;x++){									
 1835              		.loc 1 511 0 is_stmt 0 discriminator 1
 1836 0694 7E4B     		ldr	r3, .L621+4
 1837 0696 1B68     		ldr	r3, [r3]
 1838 0698 112B     		cmp	r3, #17
 1839 069a F0D9     		bls	.L142
 513:.\protocolo.c **** 					}
 514:.\protocolo.c **** 					print_valor(resultado,val);							
 1840              		.loc 1 514 0 is_stmt 1
 1841 069c 8148     		ldr	r0, .L621+24
 1842 069e 2146     		mov	r1, r4
 1843 06a0 FFF7FEFF 		bl	print_valor
 1844              	.LVL169:
 515:.\protocolo.c **** 					if(dir==a.dir){
 1845              		.loc 1 515 0
 1846 06a4 7B4B     		ldr	r3, .L621+8
 1847 06a6 1B78     		ldrb	r3, [r3]	@ zero_extendqisi2
 1848 06a8 AB42     		cmp	r3, r5
 1849 06aa 0AD1     		bne	.L143
 516:.\protocolo.c **** 						write_eeprom(256,corte);
 1850              		.loc 1 516 0
 1851 06ac 4FF48070 		mov	r0, #256
 1852 06b0 09A9     		add	r1, sp, #36
 1853 06b2 FFF7FEFF 		bl	write_eeprom
 1854              	.LVL170:
 517:.\protocolo.c **** 						write_eeprom(525,resultado);
 1855              		.loc 1 517 0
 1856 06b6 40F20D20 		movw	r0, #525
 1857 06ba 7A49     		ldr	r1, .L621+24
 1858 06bc FFF7FEFF 		bl	write_eeprom
 1859              	.LVL171:
 1860 06c0 09E0     		b	.L128
 1861              	.L143:
 518:.\protocolo.c **** 					}
 519:.\protocolo.c **** 					else{
 520:.\protocolo.c **** 						write_eeprom(345,corte);
 1862              		.loc 1 520 0
ARM GAS  C:\Users\diego\AppData\Local\Temp\ccNdDNY6.s 			page 45


 1863 06c2 40F25910 		movw	r0, #345
 1864 06c6 09A9     		add	r1, sp, #36
 1865 06c8 FFF7FEFF 		bl	write_eeprom
 1866              	.LVL172:
 521:.\protocolo.c **** 						write_eeprom(589,resultado);
 1867              		.loc 1 521 0
 1868 06cc 40F24D20 		movw	r0, #589
 1869 06d0 7449     		ldr	r1, .L621+24
 1870 06d2 FFF7FEFF 		bl	write_eeprom
 1871              	.LVL173:
 1872              	.L128:
 522:.\protocolo.c **** 					}					
 523:.\protocolo.c **** 				}
 524:.\protocolo.c ****                 
 525:.\protocolo.c ****                 if(((rventa.manguera==(producto4&0x0F))&&(dir==a.dir))||((rventa.manguera==(product
 1873              		.loc 1 525 0
 1874 06d6 744B     		ldr	r3, .L621+28
 1875 06d8 93F8E020 		ldrb	r2, [r3, #224]	@ zero_extendqisi2
 1876 06dc 734B     		ldr	r3, .L621+32
 1877 06de 1B78     		ldrb	r3, [r3]	@ zero_extendqisi2
 1878 06e0 03F00F03 		and	r3, r3, #15
 1879 06e4 9342     		cmp	r3, r2
 1880 06e6 03D1     		bne	.L144
 1881              		.loc 1 525 0 is_stmt 0 discriminator 1
 1882 06e8 6A4B     		ldr	r3, .L621+8
 1883 06ea 1B78     		ldrb	r3, [r3]	@ zero_extendqisi2
 1884 06ec AB42     		cmp	r3, r5
 1885 06ee 0BD0     		beq	.L145
 1886              	.L144:
 1887              		.loc 1 525 0 discriminator 3
 1888 06f0 6F4B     		ldr	r3, .L621+36
 1889 06f2 1B78     		ldrb	r3, [r3]	@ zero_extendqisi2
 1890 06f4 03F00F03 		and	r3, r3, #15
 1891 06f8 9A42     		cmp	r2, r3
 1892 06fa 40F0C280 		bne	.L146
 1893              		.loc 1 525 0 discriminator 4
 1894 06fe 6D4B     		ldr	r3, .L621+40
 1895 0700 1B78     		ldrb	r3, [r3]	@ zero_extendqisi2
 1896 0702 AB42     		cmp	r3, r5
 1897 0704 40F0BD80 		bne	.L146
 1898              	.L145:
 526:.\protocolo.c **** 					for(x=0;x<=5;x++){									
 1899              		.loc 1 526 0 is_stmt 1
 1900 0708 0022     		movs	r2, #0
 1901 070a 614B     		ldr	r3, .L621+4
 1902 070c 1A60     		str	r2, [r3]
 1903 070e 08E0     		b	.L147
 1904              	.L148:
 527:.\protocolo.c **** 						    write_psoc1(val,msn_tc[x]);
 1905              		.loc 1 527 0 discriminator 3
 1906 0710 2046     		mov	r0, r4
 1907 0712 5E4A     		ldr	r2, .L621
 1908 0714 D15C     		ldrb	r1, [r2, r3]	@ zero_extendqisi2
 1909 0716 FFF7FEFF 		bl	write_psoc1
 1910              	.LVL174:
 526:.\protocolo.c **** 					for(x=0;x<=5;x++){									
 1911              		.loc 1 526 0 discriminator 3
ARM GAS  C:\Users\diego\AppData\Local\Temp\ccNdDNY6.s 			page 46


 1912 071a 5D4A     		ldr	r2, .L621+4
 1913 071c 1368     		ldr	r3, [r2]
 1914 071e 0133     		adds	r3, r3, #1
 1915 0720 1360     		str	r3, [r2]
 1916              	.L147:
 526:.\protocolo.c **** 					for(x=0;x<=5;x++){									
 1917              		.loc 1 526 0 is_stmt 0 discriminator 1
 1918 0722 5B4B     		ldr	r3, .L621+4
 1919 0724 1B68     		ldr	r3, [r3]
 1920 0726 052B     		cmp	r3, #5
 1921 0728 F2D9     		bls	.L148
 528:.\protocolo.c **** 					    }
 529:.\protocolo.c **** 					    write_psoc1(val,10);
 1922              		.loc 1 529 0 is_stmt 1
 1923 072a 2046     		mov	r0, r4
 1924 072c 0A21     		movs	r1, #10
 1925 072e FFF7FEFF 		bl	write_psoc1
 1926              	.LVL175:
 530:.\protocolo.c ****                     for(x=0;x<=10;x++){									
 1927              		.loc 1 530 0
 1928 0732 0022     		movs	r2, #0
 1929 0734 564B     		ldr	r3, .L621+4
 1930 0736 1A60     		str	r2, [r3]
 1931 0738 08E0     		b	.L149
 1932              	.L150:
 531:.\protocolo.c **** 						    write_psoc1(val,producto4n[x]);
 1933              		.loc 1 531 0 discriminator 3
 1934 073a 2046     		mov	r0, r4
 1935 073c 5E4A     		ldr	r2, .L621+44
 1936 073e D15C     		ldrb	r1, [r2, r3]	@ zero_extendqisi2
 1937 0740 FFF7FEFF 		bl	write_psoc1
 1938              	.LVL176:
 530:.\protocolo.c ****                     for(x=0;x<=10;x++){									
 1939              		.loc 1 530 0 discriminator 3
 1940 0744 524A     		ldr	r2, .L621+4
 1941 0746 1368     		ldr	r3, [r2]
 1942 0748 0133     		adds	r3, r3, #1
 1943 074a 1360     		str	r3, [r2]
 1944              	.L149:
 530:.\protocolo.c ****                     for(x=0;x<=10;x++){									
 1945              		.loc 1 530 0 is_stmt 0 discriminator 1
 1946 074c 504B     		ldr	r3, .L621+4
 1947 074e 1B68     		ldr	r3, [r3]
 1948 0750 0A2B     		cmp	r3, #10
 1949 0752 F2D9     		bls	.L150
 532:.\protocolo.c **** 					    }
 533:.\protocolo.c ****                     write_psoc1(val,10);
 1950              		.loc 1 533 0 is_stmt 1
 1951 0754 2046     		mov	r0, r4
 1952 0756 0A21     		movs	r1, #10
 1953 0758 FFF7FEFF 		bl	write_psoc1
 1954              	.LVL177:
 534:.\protocolo.c **** 					for(x=0;x<=14;x++){									
 1955              		.loc 1 534 0
 1956 075c 0022     		movs	r2, #0
 1957 075e 4C4B     		ldr	r3, .L621+4
 1958 0760 1A60     		str	r2, [r3]
ARM GAS  C:\Users\diego\AppData\Local\Temp\ccNdDNY6.s 			page 47


 1959 0762 09E0     		b	.L151
 1960              	.L152:
 535:.\protocolo.c **** 						write_psoc1(val,msn_lecact[x]);				//LECTURA ACTUAL
 1961              		.loc 1 535 0 discriminator 3
 1962 0764 494A     		ldr	r2, .L621
 1963 0766 1344     		add	r3, r3, r2
 1964 0768 2046     		mov	r0, r4
 1965 076a 197A     		ldrb	r1, [r3, #8]	@ zero_extendqisi2
 1966 076c FFF7FEFF 		bl	write_psoc1
 1967              	.LVL178:
 534:.\protocolo.c **** 					for(x=0;x<=14;x++){									
 1968              		.loc 1 534 0 discriminator 3
 1969 0770 474A     		ldr	r2, .L621+4
 1970 0772 1368     		ldr	r3, [r2]
 1971 0774 0133     		adds	r3, r3, #1
 1972 0776 1360     		str	r3, [r2]
 1973              	.L151:
 534:.\protocolo.c **** 					for(x=0;x<=14;x++){									
 1974              		.loc 1 534 0 is_stmt 0 discriminator 1
 1975 0778 454B     		ldr	r3, .L621+4
 1976 077a 1B68     		ldr	r3, [r3]
 1977 077c 0E2B     		cmp	r3, #14
 1978 077e F1D9     		bls	.L152
 536:.\protocolo.c **** 					}
 537:.\protocolo.c **** 					write_psoc1(val,10);
 1979              		.loc 1 537 0 is_stmt 1
 1980 0780 2046     		mov	r0, r4
 1981 0782 0A21     		movs	r1, #10
 1982 0784 FFF7FEFF 		bl	write_psoc1
 1983              	.LVL179:
 538:.\protocolo.c **** 					print_totalesac(8,val);	
 1984              		.loc 1 538 0
 1985 0788 0820     		movs	r0, #8
 1986 078a 2146     		mov	r1, r4
 1987 078c FFF7FEFF 		bl	print_totalesac
 1988              	.LVL180:
 539:.\protocolo.c **** 					for(x=0;x<=16;x++){												
 1989              		.loc 1 539 0
 1990 0790 0022     		movs	r2, #0
 1991 0792 3F4B     		ldr	r3, .L621+4
 1992 0794 1A60     		str	r2, [r3]
 1993 0796 09E0     		b	.L153
 1994              	.L154:
 540:.\protocolo.c **** 						write_psoc1(val,msn_lecaan[x]);				//LECTURA ANTERIOR
 1995              		.loc 1 540 0 discriminator 3
 1996 0798 3C4A     		ldr	r2, .L621
 1997 079a 1344     		add	r3, r3, r2
 1998 079c 2046     		mov	r0, r4
 1999 079e 197E     		ldrb	r1, [r3, #24]	@ zero_extendqisi2
 2000 07a0 FFF7FEFF 		bl	write_psoc1
 2001              	.LVL181:
 539:.\protocolo.c **** 					for(x=0;x<=16;x++){												
 2002              		.loc 1 539 0 discriminator 3
 2003 07a4 3A4A     		ldr	r2, .L621+4
 2004 07a6 1368     		ldr	r3, [r2]
 2005 07a8 0133     		adds	r3, r3, #1
 2006 07aa 1360     		str	r3, [r2]
ARM GAS  C:\Users\diego\AppData\Local\Temp\ccNdDNY6.s 			page 48


 2007              	.L153:
 539:.\protocolo.c **** 					for(x=0;x<=16;x++){												
 2008              		.loc 1 539 0 is_stmt 0 discriminator 1
 2009 07ac 384B     		ldr	r3, .L621+4
 2010 07ae 1B68     		ldr	r3, [r3]
 2011 07b0 102B     		cmp	r3, #16
 2012 07b2 F1D9     		bls	.L154
 541:.\protocolo.c **** 					}
 542:.\protocolo.c **** 					write_psoc1(val,10);
 2013              		.loc 1 542 0 is_stmt 1
 2014 07b4 2046     		mov	r0, r4
 2015 07b6 0A21     		movs	r1, #10
 2016 07b8 FFF7FEFF 		bl	write_psoc1
 2017              	.LVL182:
 543:.\protocolo.c **** 					if(dir==a.dir){
 2018              		.loc 1 543 0
 2019 07bc 354B     		ldr	r3, .L621+8
 2020 07be 1B78     		ldrb	r3, [r3]	@ zero_extendqisi2
 2021 07c0 AB42     		cmp	r3, r5
 2022 07c2 05D1     		bne	.L155
 544:.\protocolo.c **** 						leer_eeprom(1096,25);
 2023              		.loc 1 544 0
 2024 07c4 4FF48960 		mov	r0, #1096
 2025 07c8 1921     		movs	r1, #25
 2026 07ca FFF7FEFF 		bl	leer_eeprom
 2027              	.LVL183:
 2028 07ce 04E0     		b	.L156
 2029              	.L155:
 545:.\protocolo.c **** 					}
 546:.\protocolo.c **** 					else{
 547:.\protocolo.c **** 						leer_eeprom(1054,25);
 2030              		.loc 1 547 0
 2031 07d0 40F21E40 		movw	r0, #1054
 2032 07d4 1921     		movs	r1, #25
 2033 07d6 FFF7FEFF 		bl	leer_eeprom
 2034              	.LVL184:
 2035              	.L156:
 548:.\protocolo.c **** 					}
 549:.\protocolo.c **** 					print_totales(val);
 2036              		.loc 1 549 0
 2037 07da 2046     		mov	r0, r4
 2038 07dc FFF7FEFF 		bl	print_totales
 2039              	.LVL185:
 550:.\protocolo.c **** 					for(z=1;z<=8;z++){
 2040              		.loc 1 550 0
 2041 07e0 0122     		movs	r2, #1
 2042 07e2 2D4B     		ldr	r3, .L621+12
 2043 07e4 1A60     		str	r2, [r3]
 2044 07e6 10E0     		b	.L157
 2045              	.L158:
 551:.\protocolo.c **** 						minuendo[z]=rventa.tdinero[z-1];
 2046              		.loc 1 551 0 discriminator 3
 2047 07e8 2C4A     		ldr	r2, .L621+16
 2048 07ea 1A44     		add	r2, r2, r3
 2049 07ec 92F8CA10 		ldrb	r1, [r2, #202]	@ zero_extendqisi2
 2050 07f0 10AA     		add	r2, sp, #64
 2051 07f2 1A44     		add	r2, r2, r3
ARM GAS  C:\Users\diego\AppData\Local\Temp\ccNdDNY6.s 			page 49


 2052 07f4 02F82C1C 		strb	r1, [r2, #-44]
 552:.\protocolo.c **** 						sustraendo[z]=buffer_i2c[z+8];
 2053              		.loc 1 552 0 discriminator 3
 2054 07f8 03F10801 		add	r1, r3, #8
 2055 07fc 2848     		ldr	r0, .L621+20
 2056 07fe 415C     		ldrb	r1, [r0, r1]	@ zero_extendqisi2
 2057 0800 02F83C1C 		strb	r1, [r2, #-60]
 550:.\protocolo.c **** 					for(z=1;z<=8;z++){
 2058              		.loc 1 550 0 discriminator 3
 2059 0804 0133     		adds	r3, r3, #1
 2060 0806 244A     		ldr	r2, .L621+12
 2061 0808 1360     		str	r3, [r2]
 2062              	.L157:
 550:.\protocolo.c **** 					for(z=1;z<=8;z++){
 2063              		.loc 1 550 0 is_stmt 0 discriminator 1
 2064 080a 234B     		ldr	r3, .L621+12
 2065 080c 1B68     		ldr	r3, [r3]
 2066 080e 082B     		cmp	r3, #8
 2067 0810 EAD9     		bls	.L158
 553:.\protocolo.c **** 					}
 554:.\protocolo.c **** 					minuendo[0]=8;
 2068              		.loc 1 554 0 is_stmt 1
 2069 0812 10A9     		add	r1, sp, #64
 2070 0814 0823     		movs	r3, #8
 2071 0816 01F82C3D 		strb	r3, [r1, #-44]!
 555:.\protocolo.c **** 					operacion(2,minuendo,sustraendo);
 2072              		.loc 1 555 0
 2073 081a 0220     		movs	r0, #2
 2074 081c 01AA     		add	r2, sp, #4
 2075 081e FFF7FEFF 		bl	operacion
 2076              	.LVL186:
 556:.\protocolo.c **** 					for(x=0;x<=17;x++){									
 2077              		.loc 1 556 0
 2078 0822 0022     		movs	r2, #0
 2079 0824 1A4B     		ldr	r3, .L621+4
 2080 0826 1A60     		str	r2, [r3]
 2081 0828 0AE0     		b	.L159
 2082              	.L160:
 557:.\protocolo.c **** 						write_psoc1(val,msn_tventas[x]);				//Total de ventas
 2083              		.loc 1 557 0 discriminator 3
 2084 082a 184A     		ldr	r2, .L621
 2085 082c 1344     		add	r3, r3, r2
 2086 082e 2046     		mov	r0, r4
 2087 0830 93F82C10 		ldrb	r1, [r3, #44]	@ zero_extendqisi2
 2088 0834 FFF7FEFF 		bl	write_psoc1
 2089              	.LVL187:
 556:.\protocolo.c **** 					for(x=0;x<=17;x++){									
 2090              		.loc 1 556 0 discriminator 3
 2091 0838 154A     		ldr	r2, .L621+4
 2092 083a 1368     		ldr	r3, [r2]
 2093 083c 0133     		adds	r3, r3, #1
 2094 083e 1360     		str	r3, [r2]
 2095              	.L159:
 556:.\protocolo.c **** 					for(x=0;x<=17;x++){									
 2096              		.loc 1 556 0 is_stmt 0 discriminator 1
 2097 0840 134B     		ldr	r3, .L621+4
 2098 0842 1B68     		ldr	r3, [r3]
ARM GAS  C:\Users\diego\AppData\Local\Temp\ccNdDNY6.s 			page 50


 2099 0844 112B     		cmp	r3, #17
 2100 0846 F0D9     		bls	.L160
 558:.\protocolo.c **** 					}
 559:.\protocolo.c **** 					print_valor(resultado,val);							
 2101              		.loc 1 559 0 is_stmt 1
 2102 0848 1648     		ldr	r0, .L621+24
 2103 084a 2146     		mov	r1, r4
 2104 084c FFF7FEFF 		bl	print_valor
 2105              	.LVL188:
 560:.\protocolo.c **** 					if(dir==a.dir){
 2106              		.loc 1 560 0
 2107 0850 104B     		ldr	r3, .L621+8
 2108 0852 1B78     		ldrb	r3, [r3]	@ zero_extendqisi2
 2109 0854 AB42     		cmp	r3, r5
 2110 0856 0AD1     		bne	.L161
 561:.\protocolo.c **** 						write_eeprom(1096,corte);
 2111              		.loc 1 561 0
 2112 0858 4FF48960 		mov	r0, #1096
 2113 085c 09A9     		add	r1, sp, #36
 2114 085e FFF7FEFF 		bl	write_eeprom
 2115              	.LVL189:
 562:.\protocolo.c **** 						write_eeprom(1038,resultado);
 2116              		.loc 1 562 0
 2117 0862 40F20E40 		movw	r0, #1038
 2118 0866 0F49     		ldr	r1, .L621+24
 2119 0868 FFF7FEFF 		bl	write_eeprom
 2120              	.LVL190:
 2121 086c 09E0     		b	.L146
 2122              	.L161:
 563:.\protocolo.c **** 					}
 564:.\protocolo.c **** 					else{
 565:.\protocolo.c **** 						write_eeprom(1054,corte);
 2123              		.loc 1 565 0
 2124 086e 40F21E40 		movw	r0, #1054
 2125 0872 09A9     		add	r1, sp, #36
 2126 0874 FFF7FEFF 		bl	write_eeprom
 2127              	.LVL191:
 566:.\protocolo.c **** 						write_eeprom(1081,resultado);
 2128              		.loc 1 566 0
 2129 0878 40F23940 		movw	r0, #1081
 2130 087c 0949     		ldr	r1, .L621+24
 2131 087e FFF7FEFF 		bl	write_eeprom
 2132              	.LVL192:
 2133              	.L146:
 567:.\protocolo.c **** 					}					
 568:.\protocolo.c **** 				}
 569:.\protocolo.c **** 				
 570:.\protocolo.c **** 				Surtidor_ClearRxBuffer();
 2134              		.loc 1 570 0
 2135 0882 FFF7FEFF 		bl	Surtidor_ClearRxBuffer
 2136              	.LVL193:
 571:.\protocolo.c **** 				return 1;
 2137              		.loc 1 571 0
 2138 0886 0120     		movs	r0, #1
 2139 0888 02F0F4BD 		b	.L78
 2140              	.L622:
 2141              		.align	2
ARM GAS  C:\Users\diego\AppData\Local\Temp\ccNdDNY6.s 			page 51


 2142              	.L621:
 2143 088c 00000000 		.word	.LANCHOR1
 2144 0890 00000000 		.word	x
 2145 0894 00000000 		.word	a
 2146 0898 00000000 		.word	z
 2147 089c FFFFFFFF 		.word	rventa-1
 2148 08a0 00000000 		.word	buffer_i2c
 2149 08a4 00000000 		.word	resultado
 2150 08a8 00000000 		.word	rventa
 2151 08ac 00000000 		.word	producto4
 2152 08b0 00000000 		.word	producto4b
 2153 08b4 00000000 		.word	b
 2154 08b8 00000000 		.word	producto4n
 2155              	.L71:
 572:.\protocolo.c **** 			}
 573:.\protocolo.c **** 			else{
 574:.\protocolo.c **** 				return 0;
 575:.\protocolo.c **** 			}
 576:.\protocolo.c **** 		break;
 577:.\protocolo.c **** 
 578:.\protocolo.c **** 		case 64:
 579:.\protocolo.c **** 			if((Surtidor_rxBuffer[0]==0xFF)&&(Surtidor_rxBuffer[1]==0xF6)&&(Surtidor_rxBuffer[63]==0xF0)&&(S
 2156              		.loc 1 579 0
 2157 08bc A64B     		ldr	r3, .L623
 2158 08be 1B78     		ldrb	r3, [r3]	@ zero_extendqisi2
 2159 08c0 DBB2     		uxtb	r3, r3
 2160 08c2 FF2B     		cmp	r3, #255
 2161 08c4 42F0AF85 		bne	.L596
 2162              		.loc 1 579 0 is_stmt 0 discriminator 1
 2163 08c8 A34B     		ldr	r3, .L623
 2164 08ca 5B78     		ldrb	r3, [r3, #1]	@ zero_extendqisi2
 2165 08cc DBB2     		uxtb	r3, r3
 2166 08ce F62B     		cmp	r3, #246
 2167 08d0 42F0AB85 		bne	.L597
 2168              		.loc 1 579 0 discriminator 2
 2169 08d4 A04B     		ldr	r3, .L623
 2170 08d6 93F83F30 		ldrb	r3, [r3, #63]	@ zero_extendqisi2
 2171 08da DBB2     		uxtb	r3, r3
 2172 08dc F02B     		cmp	r3, #240
 2173 08de 42F0A685 		bne	.L598
 2174              		.loc 1 579 0 discriminator 3
 2175 08e2 9D4B     		ldr	r3, .L623
 2176 08e4 DB78     		ldrb	r3, [r3, #3]	@ zero_extendqisi2
 2177 08e6 DBB2     		uxtb	r3, r3
 2178 08e8 F92B     		cmp	r3, #249
 2179 08ea 42F0A285 		bne	.L599
 580:.\protocolo.c **** 				for(y=0;y<=30;y+=30){
 2180              		.loc 1 580 0 is_stmt 1
 2181 08ee 0022     		movs	r2, #0
 2182 08f0 9A4B     		ldr	r3, .L623+4
 2183 08f2 1A60     		str	r2, [r3]
 2184 08f4 00F00FBC 		b	.L162
 2185              	.L247:
 581:.\protocolo.c **** 					rventa.manguera=(Surtidor_rxBuffer[y+2]&0x0F)+1;
 2186              		.loc 1 581 0
 2187 08f8 B31C     		adds	r3, r6, #2
 2188 08fa 974A     		ldr	r2, .L623
ARM GAS  C:\Users\diego\AppData\Local\Temp\ccNdDNY6.s 			page 52


 2189 08fc D15C     		ldrb	r1, [r2, r3]	@ zero_extendqisi2
 2190 08fe 01F00F01 		and	r1, r1, #15
 2191 0902 0131     		adds	r1, r1, #1
 2192 0904 964B     		ldr	r3, .L623+8
 2193 0906 83F8E010 		strb	r1, [r3, #224]
 582:.\protocolo.c **** 					for(x=0;x<=7;x++){
 2194              		.loc 1 582 0
 2195 090a 0022     		movs	r2, #0
 2196 090c 954B     		ldr	r3, .L623+12
 2197 090e 1A60     		str	r2, [r3]
 2198 0910 0CE0     		b	.L163
 2199              	.L164:
 583:.\protocolo.c **** 						rventa.tvolumen[x]=(Surtidor_rxBuffer[y+4+x]&0x0F);
 2200              		.loc 1 583 0 discriminator 3
 2201 0912 F218     		adds	r2, r6, r3
 2202 0914 0432     		adds	r2, r2, #4
 2203 0916 9048     		ldr	r0, .L623
 2204 0918 805C     		ldrb	r0, [r0, r2]	@ zero_extendqisi2
 2205 091a 914A     		ldr	r2, .L623+8
 2206 091c 1A44     		add	r2, r2, r3
 2207 091e 00F00F00 		and	r0, r0, #15
 2208 0922 82F8BD00 		strb	r0, [r2, #189]
 582:.\protocolo.c **** 					for(x=0;x<=7;x++){
 2209              		.loc 1 582 0 discriminator 3
 2210 0926 0133     		adds	r3, r3, #1
 2211 0928 8E4A     		ldr	r2, .L623+12
 2212 092a 1360     		str	r3, [r2]
 2213              	.L163:
 582:.\protocolo.c **** 					for(x=0;x<=7;x++){
 2214              		.loc 1 582 0 is_stmt 0 discriminator 1
 2215 092c 8D4B     		ldr	r3, .L623+12
 2216 092e 1B68     		ldr	r3, [r3]
 2217 0930 072B     		cmp	r3, #7
 2218 0932 EED9     		bls	.L164
 584:.\protocolo.c **** 					}
 585:.\protocolo.c **** 					for(x=0;x<=7;x++){
 2219              		.loc 1 585 0 is_stmt 1
 2220 0934 0022     		movs	r2, #0
 2221 0936 8B4B     		ldr	r3, .L623+12
 2222 0938 1A60     		str	r2, [r3]
 2223 093a 0CE0     		b	.L165
 2224              	.L166:
 586:.\protocolo.c **** 						rventa.tdinero[x]=(Surtidor_rxBuffer[y+13+x]&0x0F);
 2225              		.loc 1 586 0 discriminator 3
 2226 093c F218     		adds	r2, r6, r3
 2227 093e 0D32     		adds	r2, r2, #13
 2228 0940 8548     		ldr	r0, .L623
 2229 0942 805C     		ldrb	r0, [r0, r2]	@ zero_extendqisi2
 2230 0944 864A     		ldr	r2, .L623+8
 2231 0946 1A44     		add	r2, r2, r3
 2232 0948 00F00F00 		and	r0, r0, #15
 2233 094c 82F8CA00 		strb	r0, [r2, #202]
 585:.\protocolo.c **** 						rventa.tdinero[x]=(Surtidor_rxBuffer[y+13+x]&0x0F);
 2234              		.loc 1 585 0 discriminator 3
 2235 0950 0133     		adds	r3, r3, #1
 2236 0952 844A     		ldr	r2, .L623+12
 2237 0954 1360     		str	r3, [r2]
ARM GAS  C:\Users\diego\AppData\Local\Temp\ccNdDNY6.s 			page 53


 2238              	.L165:
 585:.\protocolo.c **** 						rventa.tdinero[x]=(Surtidor_rxBuffer[y+13+x]&0x0F);
 2239              		.loc 1 585 0 is_stmt 0 discriminator 1
 2240 0956 834B     		ldr	r3, .L623+12
 2241 0958 1B68     		ldr	r3, [r3]
 2242 095a 072B     		cmp	r3, #7
 2243 095c EED9     		bls	.L166
 587:.\protocolo.c ****                         
 588:.\protocolo.c **** 					}
 589:.\protocolo.c **** 					for(z=0;z<=7;z++){
 2244              		.loc 1 589 0 is_stmt 1
 2245 095e 0022     		movs	r2, #0
 2246 0960 814B     		ldr	r3, .L623+16
 2247 0962 1A60     		str	r2, [r3]
 2248 0964 0AE0     		b	.L167
 2249              	.L168:
 590:.\protocolo.c **** 						corte[z+1]=rventa.tvolumen[z];
 2250              		.loc 1 590 0 discriminator 3
 2251 0966 5A1C     		adds	r2, r3, #1
 2252 0968 7D48     		ldr	r0, .L623+8
 2253 096a 0344     		add	r3, r3, r0
 2254 096c 93F8BD00 		ldrb	r0, [r3, #189]	@ zero_extendqisi2
 2255 0970 10AB     		add	r3, sp, #64
 2256 0972 1344     		add	r3, r3, r2
 2257 0974 03F81C0C 		strb	r0, [r3, #-28]
 589:.\protocolo.c **** 						corte[z+1]=rventa.tvolumen[z];
 2258              		.loc 1 589 0 discriminator 3
 2259 0978 7B4B     		ldr	r3, .L623+16
 2260 097a 1A60     		str	r2, [r3]
 2261              	.L167:
 589:.\protocolo.c **** 						corte[z+1]=rventa.tvolumen[z];
 2262              		.loc 1 589 0 is_stmt 0 discriminator 1
 2263 097c 7A4B     		ldr	r3, .L623+16
 2264 097e 1B68     		ldr	r3, [r3]
 2265 0980 072B     		cmp	r3, #7
 2266 0982 F0D9     		bls	.L168
 591:.\protocolo.c **** 					}
 592:.\protocolo.c **** 					for(z=9;z<=16;z++){
 2267              		.loc 1 592 0 is_stmt 1
 2268 0984 0922     		movs	r2, #9
 2269 0986 784B     		ldr	r3, .L623+16
 2270 0988 1A60     		str	r2, [r3]
 2271 098a 0AE0     		b	.L169
 2272              	.L170:
 593:.\protocolo.c **** 						corte[z]=rventa.tdinero[z-9];
 2273              		.loc 1 593 0 discriminator 3
 2274 098c 774A     		ldr	r2, .L623+20
 2275 098e 1A44     		add	r2, r2, r3
 2276 0990 92F8CA00 		ldrb	r0, [r2, #202]	@ zero_extendqisi2
 2277 0994 10AA     		add	r2, sp, #64
 2278 0996 1A44     		add	r2, r2, r3
 2279 0998 02F81C0C 		strb	r0, [r2, #-28]
 592:.\protocolo.c **** 						corte[z]=rventa.tdinero[z-9];
 2280              		.loc 1 592 0 discriminator 3
 2281 099c 0133     		adds	r3, r3, #1
 2282 099e 724A     		ldr	r2, .L623+16
 2283 09a0 1360     		str	r3, [r2]
ARM GAS  C:\Users\diego\AppData\Local\Temp\ccNdDNY6.s 			page 54


 2284              	.L169:
 592:.\protocolo.c **** 						corte[z]=rventa.tdinero[z-9];
 2285              		.loc 1 592 0 is_stmt 0 discriminator 1
 2286 09a2 714B     		ldr	r3, .L623+16
 2287 09a4 1B68     		ldr	r3, [r3]
 2288 09a6 102B     		cmp	r3, #16
 2289 09a8 F0D9     		bls	.L170
 594:.\protocolo.c **** 					}
 595:.\protocolo.c **** 					corte[0]=16;							
 2290              		.loc 1 595 0 is_stmt 1
 2291 09aa 1023     		movs	r3, #16
 2292 09ac 8DF82430 		strb	r3, [sp, #36]
 596:.\protocolo.c **** 					if(((rventa.manguera==(producto1&0x0F))&&(dir==a.dir))||((rventa.manguera==(producto1b&0x0F))&
 2293              		.loc 1 596 0
 2294 09b0 6F4B     		ldr	r3, .L623+24
 2295 09b2 1B78     		ldrb	r3, [r3]	@ zero_extendqisi2
 2296 09b4 03F00F03 		and	r3, r3, #15
 2297 09b8 8B42     		cmp	r3, r1
 2298 09ba 03D1     		bne	.L171
 2299              		.loc 1 596 0 is_stmt 0 discriminator 1
 2300 09bc 6D4A     		ldr	r2, .L623+28
 2301 09be 1278     		ldrb	r2, [r2]	@ zero_extendqisi2
 2302 09c0 AA42     		cmp	r2, r5
 2303 09c2 17D0     		beq	.L172
 2304              	.L171:
 2305              		.loc 1 596 0 discriminator 3
 2306 09c4 6C4A     		ldr	r2, .L623+32
 2307 09c6 1278     		ldrb	r2, [r2]	@ zero_extendqisi2
 2308 09c8 02F00F02 		and	r2, r2, #15
 2309 09cc 9142     		cmp	r1, r2
 2310 09ce 03D1     		bne	.L173
 2311              		.loc 1 596 0 discriminator 4
 2312 09d0 6A48     		ldr	r0, .L623+36
 2313 09d2 0078     		ldrb	r0, [r0]	@ zero_extendqisi2
 2314 09d4 A842     		cmp	r0, r5
 2315 09d6 0DD0     		beq	.L172
 2316              	.L173:
 2317              		.loc 1 596 0 discriminator 6
 2318 09d8 8B42     		cmp	r3, r1
 2319 09da 03D1     		bne	.L174
 2320              		.loc 1 596 0 discriminator 7
 2321 09dc 684B     		ldr	r3, .L623+40
 2322 09de 1B78     		ldrb	r3, [r3]	@ zero_extendqisi2
 2323 09e0 AB42     		cmp	r3, r5
 2324 09e2 07D0     		beq	.L172
 2325              	.L174:
 2326              		.loc 1 596 0 discriminator 9
 2327 09e4 9142     		cmp	r1, r2
 2328 09e6 40F0E380 		bne	.L175
 2329              		.loc 1 596 0 discriminator 10
 2330 09ea 664B     		ldr	r3, .L623+44
 2331 09ec 1B78     		ldrb	r3, [r3]	@ zero_extendqisi2
 2332 09ee AB42     		cmp	r3, r5
 2333 09f0 40F0DE80 		bne	.L175
 2334              	.L172:
 597:.\protocolo.c **** 						for(x=0;x<=5;x++){									
 2335              		.loc 1 597 0 is_stmt 1
ARM GAS  C:\Users\diego\AppData\Local\Temp\ccNdDNY6.s 			page 55


 2336 09f4 0022     		movs	r2, #0
 2337 09f6 5B4B     		ldr	r3, .L623+12
 2338 09f8 1A60     		str	r2, [r3]
 2339 09fa 08E0     		b	.L176
 2340              	.L177:
 598:.\protocolo.c **** 							write_psoc1(val,msn_tc[x]);
 2341              		.loc 1 598 0 discriminator 3
 2342 09fc 2046     		mov	r0, r4
 2343 09fe 624A     		ldr	r2, .L623+48
 2344 0a00 D15C     		ldrb	r1, [r2, r3]	@ zero_extendqisi2
 2345 0a02 FFF7FEFF 		bl	write_psoc1
 2346              	.LVL194:
 597:.\protocolo.c **** 						for(x=0;x<=5;x++){									
 2347              		.loc 1 597 0 discriminator 3
 2348 0a06 574A     		ldr	r2, .L623+12
 2349 0a08 1368     		ldr	r3, [r2]
 2350 0a0a 0133     		adds	r3, r3, #1
 2351 0a0c 1360     		str	r3, [r2]
 2352              	.L176:
 597:.\protocolo.c **** 						for(x=0;x<=5;x++){									
 2353              		.loc 1 597 0 is_stmt 0 discriminator 1
 2354 0a0e 554B     		ldr	r3, .L623+12
 2355 0a10 1B68     		ldr	r3, [r3]
 2356 0a12 052B     		cmp	r3, #5
 2357 0a14 F2D9     		bls	.L177
 599:.\protocolo.c **** 						}
 600:.\protocolo.c **** 						write_psoc1(val,10);
 2358              		.loc 1 600 0 is_stmt 1
 2359 0a16 2046     		mov	r0, r4
 2360 0a18 0A21     		movs	r1, #10
 2361 0a1a FFF7FEFF 		bl	write_psoc1
 2362              	.LVL195:
 601:.\protocolo.c ****                         for(x=0;x<=10;x++){									
 2363              		.loc 1 601 0
 2364 0a1e 0022     		movs	r2, #0
 2365 0a20 504B     		ldr	r3, .L623+12
 2366 0a22 1A60     		str	r2, [r3]
 2367 0a24 08E0     		b	.L178
 2368              	.L179:
 602:.\protocolo.c **** 						write_psoc1(val,producto1n[x]);
 2369              		.loc 1 602 0 discriminator 3
 2370 0a26 2046     		mov	r0, r4
 2371 0a28 584A     		ldr	r2, .L623+52
 2372 0a2a D15C     		ldrb	r1, [r2, r3]	@ zero_extendqisi2
 2373 0a2c FFF7FEFF 		bl	write_psoc1
 2374              	.LVL196:
 601:.\protocolo.c ****                         for(x=0;x<=10;x++){									
 2375              		.loc 1 601 0 discriminator 3
 2376 0a30 4C4A     		ldr	r2, .L623+12
 2377 0a32 1368     		ldr	r3, [r2]
 2378 0a34 0133     		adds	r3, r3, #1
 2379 0a36 1360     		str	r3, [r2]
 2380              	.L178:
 601:.\protocolo.c ****                         for(x=0;x<=10;x++){									
 2381              		.loc 1 601 0 is_stmt 0 discriminator 1
 2382 0a38 4A4B     		ldr	r3, .L623+12
 2383 0a3a 1B68     		ldr	r3, [r3]
ARM GAS  C:\Users\diego\AppData\Local\Temp\ccNdDNY6.s 			page 56


 2384 0a3c 0A2B     		cmp	r3, #10
 2385 0a3e F2D9     		bls	.L179
 603:.\protocolo.c **** 					    }
 604:.\protocolo.c ****                         write_psoc1(val,10);
 2386              		.loc 1 604 0 is_stmt 1
 2387 0a40 2046     		mov	r0, r4
 2388 0a42 0A21     		movs	r1, #10
 2389 0a44 FFF7FEFF 		bl	write_psoc1
 2390              	.LVL197:
 605:.\protocolo.c **** 						for(x=0;x<=14;x++){									
 2391              		.loc 1 605 0
 2392 0a48 0022     		movs	r2, #0
 2393 0a4a 464B     		ldr	r3, .L623+12
 2394 0a4c 1A60     		str	r2, [r3]
 2395 0a4e 09E0     		b	.L180
 2396              	.L181:
 606:.\protocolo.c **** 							write_psoc1(val,msn_lecact[x]);				//LECTURA ACTUAL
 2397              		.loc 1 606 0 discriminator 3
 2398 0a50 4D4A     		ldr	r2, .L623+48
 2399 0a52 1344     		add	r3, r3, r2
 2400 0a54 2046     		mov	r0, r4
 2401 0a56 197A     		ldrb	r1, [r3, #8]	@ zero_extendqisi2
 2402 0a58 FFF7FEFF 		bl	write_psoc1
 2403              	.LVL198:
 605:.\protocolo.c **** 						for(x=0;x<=14;x++){									
 2404              		.loc 1 605 0 discriminator 3
 2405 0a5c 414A     		ldr	r2, .L623+12
 2406 0a5e 1368     		ldr	r3, [r2]
 2407 0a60 0133     		adds	r3, r3, #1
 2408 0a62 1360     		str	r3, [r2]
 2409              	.L180:
 605:.\protocolo.c **** 						for(x=0;x<=14;x++){									
 2410              		.loc 1 605 0 is_stmt 0 discriminator 1
 2411 0a64 3F4B     		ldr	r3, .L623+12
 2412 0a66 1B68     		ldr	r3, [r3]
 2413 0a68 0E2B     		cmp	r3, #14
 2414 0a6a F1D9     		bls	.L181
 607:.\protocolo.c **** 						}
 608:.\protocolo.c **** 						write_psoc1(val,10);
 2415              		.loc 1 608 0 is_stmt 1
 2416 0a6c 2046     		mov	r0, r4
 2417 0a6e 0A21     		movs	r1, #10
 2418 0a70 FFF7FEFF 		bl	write_psoc1
 2419              	.LVL199:
 609:.\protocolo.c **** 						print_totalesac(8,val);	
 2420              		.loc 1 609 0
 2421 0a74 0820     		movs	r0, #8
 2422 0a76 2146     		mov	r1, r4
 2423 0a78 FFF7FEFF 		bl	print_totalesac
 2424              	.LVL200:
 610:.\protocolo.c **** 						for(x=0;x<=16;x++){												
 2425              		.loc 1 610 0
 2426 0a7c 0022     		movs	r2, #0
 2427 0a7e 394B     		ldr	r3, .L623+12
 2428 0a80 1A60     		str	r2, [r3]
 2429 0a82 09E0     		b	.L182
 2430              	.L183:
ARM GAS  C:\Users\diego\AppData\Local\Temp\ccNdDNY6.s 			page 57


 611:.\protocolo.c **** 							write_psoc1(val,msn_lecaan[x]);				//LECTURA ANTERIOR
 2431              		.loc 1 611 0 discriminator 3
 2432 0a84 404A     		ldr	r2, .L623+48
 2433 0a86 1344     		add	r3, r3, r2
 2434 0a88 2046     		mov	r0, r4
 2435 0a8a 197E     		ldrb	r1, [r3, #24]	@ zero_extendqisi2
 2436 0a8c FFF7FEFF 		bl	write_psoc1
 2437              	.LVL201:
 610:.\protocolo.c **** 						for(x=0;x<=16;x++){												
 2438              		.loc 1 610 0 discriminator 3
 2439 0a90 344A     		ldr	r2, .L623+12
 2440 0a92 1368     		ldr	r3, [r2]
 2441 0a94 0133     		adds	r3, r3, #1
 2442 0a96 1360     		str	r3, [r2]
 2443              	.L182:
 610:.\protocolo.c **** 						for(x=0;x<=16;x++){												
 2444              		.loc 1 610 0 is_stmt 0 discriminator 1
 2445 0a98 324B     		ldr	r3, .L623+12
 2446 0a9a 1B68     		ldr	r3, [r3]
 2447 0a9c 102B     		cmp	r3, #16
 2448 0a9e F1D9     		bls	.L183
 612:.\protocolo.c **** 						}
 613:.\protocolo.c **** 						write_psoc1(val,10);
 2449              		.loc 1 613 0 is_stmt 1
 2450 0aa0 2046     		mov	r0, r4
 2451 0aa2 0A21     		movs	r1, #10
 2452 0aa4 FFF7FEFF 		bl	write_psoc1
 2453              	.LVL202:
 614:.\protocolo.c **** 						if(dir==a.dir){
 2454              		.loc 1 614 0
 2455 0aa8 324B     		ldr	r3, .L623+28
 2456 0aaa 1B78     		ldrb	r3, [r3]	@ zero_extendqisi2
 2457 0aac AB42     		cmp	r3, r5
 2458 0aae 04D1     		bne	.L184
 615:.\protocolo.c **** 							leer_eeprom(192,25);
 2459              		.loc 1 615 0
 2460 0ab0 C020     		movs	r0, #192
 2461 0ab2 1921     		movs	r1, #25
 2462 0ab4 FFF7FEFF 		bl	leer_eeprom
 2463              	.LVL203:
 2464 0ab8 04E0     		b	.L185
 2465              	.L184:
 616:.\protocolo.c **** 						}
 617:.\protocolo.c **** 						else{
 618:.\protocolo.c **** 							leer_eeprom(281,25);
 2466              		.loc 1 618 0
 2467 0aba 40F21910 		movw	r0, #281
 2468 0abe 1921     		movs	r1, #25
 2469 0ac0 FFF7FEFF 		bl	leer_eeprom
 2470              	.LVL204:
 2471              	.L185:
 619:.\protocolo.c **** 						}
 620:.\protocolo.c **** 						print_totales(val);
 2472              		.loc 1 620 0
 2473 0ac4 2046     		mov	r0, r4
 2474 0ac6 FFF7FEFF 		bl	print_totales
 2475              	.LVL205:
ARM GAS  C:\Users\diego\AppData\Local\Temp\ccNdDNY6.s 			page 58


 621:.\protocolo.c **** 						for(z=1;z<=8;z++){
 2476              		.loc 1 621 0
 2477 0aca 0122     		movs	r2, #1
 2478 0acc 264B     		ldr	r3, .L623+16
 2479 0ace 1A60     		str	r2, [r3]
 2480 0ad0 10E0     		b	.L186
 2481              	.L187:
 622:.\protocolo.c **** 							minuendo[z]=rventa.tdinero[z-1];
 2482              		.loc 1 622 0 discriminator 3
 2483 0ad2 2F4A     		ldr	r2, .L623+56
 2484 0ad4 1A44     		add	r2, r2, r3
 2485 0ad6 92F8CA10 		ldrb	r1, [r2, #202]	@ zero_extendqisi2
 2486 0ada 10AA     		add	r2, sp, #64
 2487 0adc 1A44     		add	r2, r2, r3
 2488 0ade 02F82C1C 		strb	r1, [r2, #-44]
 623:.\protocolo.c **** 							sustraendo[z]=buffer_i2c[z+8];
 2489              		.loc 1 623 0 discriminator 3
 2490 0ae2 03F10801 		add	r1, r3, #8
 2491 0ae6 2B48     		ldr	r0, .L623+60
 2492 0ae8 415C     		ldrb	r1, [r0, r1]	@ zero_extendqisi2
 2493 0aea 02F83C1C 		strb	r1, [r2, #-60]
 621:.\protocolo.c **** 						for(z=1;z<=8;z++){
 2494              		.loc 1 621 0 discriminator 3
 2495 0aee 0133     		adds	r3, r3, #1
 2496 0af0 1D4A     		ldr	r2, .L623+16
 2497 0af2 1360     		str	r3, [r2]
 2498              	.L186:
 621:.\protocolo.c **** 						for(z=1;z<=8;z++){
 2499              		.loc 1 621 0 is_stmt 0 discriminator 1
 2500 0af4 1C4B     		ldr	r3, .L623+16
 2501 0af6 1B68     		ldr	r3, [r3]
 2502 0af8 082B     		cmp	r3, #8
 2503 0afa EAD9     		bls	.L187
 624:.\protocolo.c **** 						}
 625:.\protocolo.c **** 						minuendo[0]=8;
 2504              		.loc 1 625 0 is_stmt 1
 2505 0afc 10A9     		add	r1, sp, #64
 2506 0afe 0823     		movs	r3, #8
 2507 0b00 01F82C3D 		strb	r3, [r1, #-44]!
 626:.\protocolo.c **** 						operacion(2,minuendo,sustraendo);
 2508              		.loc 1 626 0
 2509 0b04 0220     		movs	r0, #2
 2510 0b06 01AA     		add	r2, sp, #4
 2511 0b08 FFF7FEFF 		bl	operacion
 2512              	.LVL206:
 627:.\protocolo.c **** 						for(x=0;x<=17;x++){									
 2513              		.loc 1 627 0
 2514 0b0c 0022     		movs	r2, #0
 2515 0b0e 154B     		ldr	r3, .L623+12
 2516 0b10 1A60     		str	r2, [r3]
 2517 0b12 0AE0     		b	.L188
 2518              	.L189:
 628:.\protocolo.c **** 							write_psoc1(val,msn_tventas[x]);				//Total de ventas
 2519              		.loc 1 628 0 discriminator 3
 2520 0b14 1C4A     		ldr	r2, .L623+48
 2521 0b16 1344     		add	r3, r3, r2
 2522 0b18 2046     		mov	r0, r4
ARM GAS  C:\Users\diego\AppData\Local\Temp\ccNdDNY6.s 			page 59


 2523 0b1a 93F82C10 		ldrb	r1, [r3, #44]	@ zero_extendqisi2
 2524 0b1e FFF7FEFF 		bl	write_psoc1
 2525              	.LVL207:
 627:.\protocolo.c **** 						for(x=0;x<=17;x++){									
 2526              		.loc 1 627 0 discriminator 3
 2527 0b22 104A     		ldr	r2, .L623+12
 2528 0b24 1368     		ldr	r3, [r2]
 2529 0b26 0133     		adds	r3, r3, #1
 2530 0b28 1360     		str	r3, [r2]
 2531              	.L188:
 627:.\protocolo.c **** 						for(x=0;x<=17;x++){									
 2532              		.loc 1 627 0 is_stmt 0 discriminator 1
 2533 0b2a 0E4B     		ldr	r3, .L623+12
 2534 0b2c 1B68     		ldr	r3, [r3]
 2535 0b2e 112B     		cmp	r3, #17
 2536 0b30 F0D9     		bls	.L189
 629:.\protocolo.c **** 						}
 630:.\protocolo.c **** 						print_valor(resultado,val);
 2537              		.loc 1 630 0 is_stmt 1
 2538 0b32 1948     		ldr	r0, .L623+64
 2539 0b34 2146     		mov	r1, r4
 2540 0b36 FFF7FEFF 		bl	print_valor
 2541              	.LVL208:
 631:.\protocolo.c **** 						if(dir==a.dir){
 2542              		.loc 1 631 0
 2543 0b3a 0E4B     		ldr	r3, .L623+28
 2544 0b3c 1B78     		ldrb	r3, [r3]	@ zero_extendqisi2
 2545 0b3e AB42     		cmp	r3, r5
 2546 0b40 2CD1     		bne	.L190
 632:.\protocolo.c **** 							write_eeprom(192,corte);	
 2547              		.loc 1 632 0
 2548 0b42 C020     		movs	r0, #192
 2549 0b44 09A9     		add	r1, sp, #36
 2550 0b46 FFF7FEFF 		bl	write_eeprom
 2551              	.LVL209:
 633:.\protocolo.c **** 							write_eeprom(512,resultado);
 2552              		.loc 1 633 0
 2553 0b4a 4FF40070 		mov	r0, #512
 2554 0b4e 1249     		ldr	r1, .L623+64
 2555 0b50 FFF7FEFF 		bl	write_eeprom
 2556              	.LVL210:
 2557 0b54 2CE0     		b	.L175
 2558              	.L624:
 2559 0b56 00BF     		.align	2
 2560              	.L623:
 2561 0b58 00000000 		.word	Surtidor_rxBuffer
 2562 0b5c 00000000 		.word	y
 2563 0b60 00000000 		.word	rventa
 2564 0b64 00000000 		.word	x
 2565 0b68 00000000 		.word	z
 2566 0b6c F7FFFFFF 		.word	rventa-9
 2567 0b70 00000000 		.word	producto1
 2568 0b74 00000000 		.word	a
 2569 0b78 00000000 		.word	producto1b
 2570 0b7c 00000000 		.word	b
 2571 0b80 00000000 		.word	c
 2572 0b84 00000000 		.word	d
ARM GAS  C:\Users\diego\AppData\Local\Temp\ccNdDNY6.s 			page 60


 2573 0b88 00000000 		.word	.LANCHOR1
 2574 0b8c 00000000 		.word	producto1n
 2575 0b90 FFFFFFFF 		.word	rventa-1
 2576 0b94 00000000 		.word	buffer_i2c
 2577 0b98 00000000 		.word	resultado
 2578              	.L190:
 634:.\protocolo.c **** 						}
 635:.\protocolo.c **** 						else{
 636:.\protocolo.c **** 							write_eeprom(281,corte);
 2579              		.loc 1 636 0
 2580 0b9c 40F21910 		movw	r0, #281
 2581 0ba0 09A9     		add	r1, sp, #36
 2582 0ba2 FFF7FEFF 		bl	write_eeprom
 2583              	.LVL211:
 637:.\protocolo.c **** 							write_eeprom(551,resultado);
 2584              		.loc 1 637 0
 2585 0ba6 40F22720 		movw	r0, #551
 2586 0baa A249     		ldr	r1, .L625
 2587 0bac FFF7FEFF 		bl	write_eeprom
 2588              	.LVL212:
 2589              	.L175:
 638:.\protocolo.c **** 						}
 639:.\protocolo.c **** 					}
 640:.\protocolo.c **** 					if(((rventa.manguera==(producto2&0x0F))&&(dir==a.dir))||((rventa.manguera==(producto2b&0x0F))&
 2590              		.loc 1 640 0
 2591 0bb0 A14B     		ldr	r3, .L625+4
 2592 0bb2 93F8E010 		ldrb	r1, [r3, #224]	@ zero_extendqisi2
 2593 0bb6 A14B     		ldr	r3, .L625+8
 2594 0bb8 1B78     		ldrb	r3, [r3]	@ zero_extendqisi2
 2595 0bba 03F00F03 		and	r3, r3, #15
 2596 0bbe 8B42     		cmp	r3, r1
 2597 0bc0 03D1     		bne	.L191
 2598              		.loc 1 640 0 is_stmt 0 discriminator 1
 2599 0bc2 9F4A     		ldr	r2, .L625+12
 2600 0bc4 1278     		ldrb	r2, [r2]	@ zero_extendqisi2
 2601 0bc6 AA42     		cmp	r2, r5
 2602 0bc8 17D0     		beq	.L192
 2603              	.L191:
 2604              		.loc 1 640 0 discriminator 3
 2605 0bca 9E4A     		ldr	r2, .L625+16
 2606 0bcc 1278     		ldrb	r2, [r2]	@ zero_extendqisi2
 2607 0bce 02F00F02 		and	r2, r2, #15
 2608 0bd2 9142     		cmp	r1, r2
 2609 0bd4 03D1     		bne	.L193
 2610              		.loc 1 640 0 discriminator 4
 2611 0bd6 9C48     		ldr	r0, .L625+20
 2612 0bd8 0078     		ldrb	r0, [r0]	@ zero_extendqisi2
 2613 0bda A842     		cmp	r0, r5
 2614 0bdc 0DD0     		beq	.L192
 2615              	.L193:
 2616              		.loc 1 640 0 discriminator 6
 2617 0bde 9142     		cmp	r1, r2
 2618 0be0 03D1     		bne	.L194
 2619              		.loc 1 640 0 discriminator 7
 2620 0be2 9A4A     		ldr	r2, .L625+24
 2621 0be4 1278     		ldrb	r2, [r2]	@ zero_extendqisi2
 2622 0be6 AA42     		cmp	r2, r5
ARM GAS  C:\Users\diego\AppData\Local\Temp\ccNdDNY6.s 			page 61


 2623 0be8 07D0     		beq	.L192
 2624              	.L194:
 2625              		.loc 1 640 0 discriminator 9
 2626 0bea 8B42     		cmp	r3, r1
 2627 0bec 40F0C080 		bne	.L195
 2628              		.loc 1 640 0 discriminator 10
 2629 0bf0 974B     		ldr	r3, .L625+28
 2630 0bf2 1B78     		ldrb	r3, [r3]	@ zero_extendqisi2
 2631 0bf4 AB42     		cmp	r3, r5
 2632 0bf6 40F0BB80 		bne	.L195
 2633              	.L192:
 641:.\protocolo.c **** 						for(x=0;x<=5;x++){									
 2634              		.loc 1 641 0 is_stmt 1
 2635 0bfa 0022     		movs	r2, #0
 2636 0bfc 954B     		ldr	r3, .L625+32
 2637 0bfe 1A60     		str	r2, [r3]
 2638 0c00 08E0     		b	.L196
 2639              	.L197:
 642:.\protocolo.c **** 						    write_psoc1(val,msn_tc[x]);
 2640              		.loc 1 642 0 discriminator 3
 2641 0c02 2046     		mov	r0, r4
 2642 0c04 944A     		ldr	r2, .L625+36
 2643 0c06 D15C     		ldrb	r1, [r2, r3]	@ zero_extendqisi2
 2644 0c08 FFF7FEFF 		bl	write_psoc1
 2645              	.LVL213:
 641:.\protocolo.c **** 						for(x=0;x<=5;x++){									
 2646              		.loc 1 641 0 discriminator 3
 2647 0c0c 914A     		ldr	r2, .L625+32
 2648 0c0e 1368     		ldr	r3, [r2]
 2649 0c10 0133     		adds	r3, r3, #1
 2650 0c12 1360     		str	r3, [r2]
 2651              	.L196:
 641:.\protocolo.c **** 						for(x=0;x<=5;x++){									
 2652              		.loc 1 641 0 is_stmt 0 discriminator 1
 2653 0c14 8F4B     		ldr	r3, .L625+32
 2654 0c16 1B68     		ldr	r3, [r3]
 2655 0c18 052B     		cmp	r3, #5
 2656 0c1a F2D9     		bls	.L197
 643:.\protocolo.c **** 					    }
 644:.\protocolo.c **** 					    write_psoc1(val,10);
 2657              		.loc 1 644 0 is_stmt 1
 2658 0c1c 2046     		mov	r0, r4
 2659 0c1e 0A21     		movs	r1, #10
 2660 0c20 FFF7FEFF 		bl	write_psoc1
 2661              	.LVL214:
 645:.\protocolo.c ****                         for(x=0;x<=10;x++){									
 2662              		.loc 1 645 0
 2663 0c24 0022     		movs	r2, #0
 2664 0c26 8B4B     		ldr	r3, .L625+32
 2665 0c28 1A60     		str	r2, [r3]
 2666 0c2a 08E0     		b	.L198
 2667              	.L199:
 646:.\protocolo.c **** 						    write_psoc1(val,producto2n[x]);
 2668              		.loc 1 646 0 discriminator 3
 2669 0c2c 2046     		mov	r0, r4
 2670 0c2e 8B4A     		ldr	r2, .L625+40
 2671 0c30 D15C     		ldrb	r1, [r2, r3]	@ zero_extendqisi2
ARM GAS  C:\Users\diego\AppData\Local\Temp\ccNdDNY6.s 			page 62


 2672 0c32 FFF7FEFF 		bl	write_psoc1
 2673              	.LVL215:
 645:.\protocolo.c ****                         for(x=0;x<=10;x++){									
 2674              		.loc 1 645 0 discriminator 3
 2675 0c36 874A     		ldr	r2, .L625+32
 2676 0c38 1368     		ldr	r3, [r2]
 2677 0c3a 0133     		adds	r3, r3, #1
 2678 0c3c 1360     		str	r3, [r2]
 2679              	.L198:
 645:.\protocolo.c ****                         for(x=0;x<=10;x++){									
 2680              		.loc 1 645 0 is_stmt 0 discriminator 1
 2681 0c3e 854B     		ldr	r3, .L625+32
 2682 0c40 1B68     		ldr	r3, [r3]
 2683 0c42 0A2B     		cmp	r3, #10
 2684 0c44 F2D9     		bls	.L199
 647:.\protocolo.c **** 					    }
 648:.\protocolo.c ****                         write_psoc1(val,10);
 2685              		.loc 1 648 0 is_stmt 1
 2686 0c46 2046     		mov	r0, r4
 2687 0c48 0A21     		movs	r1, #10
 2688 0c4a FFF7FEFF 		bl	write_psoc1
 2689              	.LVL216:
 649:.\protocolo.c **** 						for(x=0;x<=14;x++){									
 2690              		.loc 1 649 0
 2691 0c4e 0022     		movs	r2, #0
 2692 0c50 804B     		ldr	r3, .L625+32
 2693 0c52 1A60     		str	r2, [r3]
 2694 0c54 09E0     		b	.L200
 2695              	.L201:
 650:.\protocolo.c **** 							write_psoc1(val,msn_lecact[x]);				//LECTURA ACTUAL
 2696              		.loc 1 650 0 discriminator 3
 2697 0c56 804A     		ldr	r2, .L625+36
 2698 0c58 1344     		add	r3, r3, r2
 2699 0c5a 2046     		mov	r0, r4
 2700 0c5c 197A     		ldrb	r1, [r3, #8]	@ zero_extendqisi2
 2701 0c5e FFF7FEFF 		bl	write_psoc1
 2702              	.LVL217:
 649:.\protocolo.c **** 						for(x=0;x<=14;x++){									
 2703              		.loc 1 649 0 discriminator 3
 2704 0c62 7C4A     		ldr	r2, .L625+32
 2705 0c64 1368     		ldr	r3, [r2]
 2706 0c66 0133     		adds	r3, r3, #1
 2707 0c68 1360     		str	r3, [r2]
 2708              	.L200:
 649:.\protocolo.c **** 						for(x=0;x<=14;x++){									
 2709              		.loc 1 649 0 is_stmt 0 discriminator 1
 2710 0c6a 7A4B     		ldr	r3, .L625+32
 2711 0c6c 1B68     		ldr	r3, [r3]
 2712 0c6e 0E2B     		cmp	r3, #14
 2713 0c70 F1D9     		bls	.L201
 651:.\protocolo.c **** 						}
 652:.\protocolo.c **** 						write_psoc1(val,10);
 2714              		.loc 1 652 0 is_stmt 1
 2715 0c72 2046     		mov	r0, r4
 2716 0c74 0A21     		movs	r1, #10
 2717 0c76 FFF7FEFF 		bl	write_psoc1
 2718              	.LVL218:
ARM GAS  C:\Users\diego\AppData\Local\Temp\ccNdDNY6.s 			page 63


 653:.\protocolo.c **** 						print_totalesac(8,val);	
 2719              		.loc 1 653 0
 2720 0c7a 0820     		movs	r0, #8
 2721 0c7c 2146     		mov	r1, r4
 2722 0c7e FFF7FEFF 		bl	print_totalesac
 2723              	.LVL219:
 654:.\protocolo.c **** 						for(x=0;x<=16;x++){												
 2724              		.loc 1 654 0
 2725 0c82 0022     		movs	r2, #0
 2726 0c84 734B     		ldr	r3, .L625+32
 2727 0c86 1A60     		str	r2, [r3]
 2728 0c88 09E0     		b	.L202
 2729              	.L203:
 655:.\protocolo.c **** 							write_psoc1(val,msn_lecaan[x]);				//LECTURA ANTERIOR
 2730              		.loc 1 655 0 discriminator 3
 2731 0c8a 734A     		ldr	r2, .L625+36
 2732 0c8c 1344     		add	r3, r3, r2
 2733 0c8e 2046     		mov	r0, r4
 2734 0c90 197E     		ldrb	r1, [r3, #24]	@ zero_extendqisi2
 2735 0c92 FFF7FEFF 		bl	write_psoc1
 2736              	.LVL220:
 654:.\protocolo.c **** 						for(x=0;x<=16;x++){												
 2737              		.loc 1 654 0 discriminator 3
 2738 0c96 6F4A     		ldr	r2, .L625+32
 2739 0c98 1368     		ldr	r3, [r2]
 2740 0c9a 0133     		adds	r3, r3, #1
 2741 0c9c 1360     		str	r3, [r2]
 2742              	.L202:
 654:.\protocolo.c **** 						for(x=0;x<=16;x++){												
 2743              		.loc 1 654 0 is_stmt 0 discriminator 1
 2744 0c9e 6D4B     		ldr	r3, .L625+32
 2745 0ca0 1B68     		ldr	r3, [r3]
 2746 0ca2 102B     		cmp	r3, #16
 2747 0ca4 F1D9     		bls	.L203
 656:.\protocolo.c **** 						}
 657:.\protocolo.c **** 						write_psoc1(val,10);
 2748              		.loc 1 657 0 is_stmt 1
 2749 0ca6 2046     		mov	r0, r4
 2750 0ca8 0A21     		movs	r1, #10
 2751 0caa FFF7FEFF 		bl	write_psoc1
 2752              	.LVL221:
 658:.\protocolo.c **** 						if(dir==a.dir){
 2753              		.loc 1 658 0
 2754 0cae 644B     		ldr	r3, .L625+12
 2755 0cb0 1B78     		ldrb	r3, [r3]	@ zero_extendqisi2
 2756 0cb2 AB42     		cmp	r3, r5
 2757 0cb4 04D1     		bne	.L204
 659:.\protocolo.c **** 							leer_eeprom(217,25);
 2758              		.loc 1 659 0
 2759 0cb6 D920     		movs	r0, #217
 2760 0cb8 1921     		movs	r1, #25
 2761 0cba FFF7FEFF 		bl	leer_eeprom
 2762              	.LVL222:
 2763 0cbe 04E0     		b	.L205
 2764              	.L204:
 660:.\protocolo.c **** 						}
 661:.\protocolo.c **** 						else{
ARM GAS  C:\Users\diego\AppData\Local\Temp\ccNdDNY6.s 			page 64


 662:.\protocolo.c **** 							leer_eeprom(320,25);
 2765              		.loc 1 662 0
 2766 0cc0 4FF4A070 		mov	r0, #320
 2767 0cc4 1921     		movs	r1, #25
 2768 0cc6 FFF7FEFF 		bl	leer_eeprom
 2769              	.LVL223:
 2770              	.L205:
 663:.\protocolo.c **** 						}
 664:.\protocolo.c **** 						print_totales(val);
 2771              		.loc 1 664 0
 2772 0cca 2046     		mov	r0, r4
 2773 0ccc FFF7FEFF 		bl	print_totales
 2774              	.LVL224:
 665:.\protocolo.c **** 						for(z=1;z<=8;z++){
 2775              		.loc 1 665 0
 2776 0cd0 0122     		movs	r2, #1
 2777 0cd2 634B     		ldr	r3, .L625+44
 2778 0cd4 1A60     		str	r2, [r3]
 2779 0cd6 10E0     		b	.L206
 2780              	.L207:
 666:.\protocolo.c **** 							minuendo[z]=rventa.tdinero[z-1];
 2781              		.loc 1 666 0 discriminator 3
 2782 0cd8 624A     		ldr	r2, .L625+48
 2783 0cda 1A44     		add	r2, r2, r3
 2784 0cdc 92F8CA10 		ldrb	r1, [r2, #202]	@ zero_extendqisi2
 2785 0ce0 10AA     		add	r2, sp, #64
 2786 0ce2 1A44     		add	r2, r2, r3
 2787 0ce4 02F82C1C 		strb	r1, [r2, #-44]
 667:.\protocolo.c **** 							sustraendo[z]=buffer_i2c[z+8];
 2788              		.loc 1 667 0 discriminator 3
 2789 0ce8 03F10801 		add	r1, r3, #8
 2790 0cec 5E48     		ldr	r0, .L625+52
 2791 0cee 415C     		ldrb	r1, [r0, r1]	@ zero_extendqisi2
 2792 0cf0 02F83C1C 		strb	r1, [r2, #-60]
 665:.\protocolo.c **** 						for(z=1;z<=8;z++){
 2793              		.loc 1 665 0 discriminator 3
 2794 0cf4 0133     		adds	r3, r3, #1
 2795 0cf6 5A4A     		ldr	r2, .L625+44
 2796 0cf8 1360     		str	r3, [r2]
 2797              	.L206:
 665:.\protocolo.c **** 						for(z=1;z<=8;z++){
 2798              		.loc 1 665 0 is_stmt 0 discriminator 1
 2799 0cfa 594B     		ldr	r3, .L625+44
 2800 0cfc 1B68     		ldr	r3, [r3]
 2801 0cfe 082B     		cmp	r3, #8
 2802 0d00 EAD9     		bls	.L207
 668:.\protocolo.c **** 						}
 669:.\protocolo.c **** 						minuendo[0]=8;
 2803              		.loc 1 669 0 is_stmt 1
 2804 0d02 10A9     		add	r1, sp, #64
 2805 0d04 0823     		movs	r3, #8
 2806 0d06 01F82C3D 		strb	r3, [r1, #-44]!
 670:.\protocolo.c **** 						operacion(2,minuendo,sustraendo);
 2807              		.loc 1 670 0
 2808 0d0a 0220     		movs	r0, #2
 2809 0d0c 01AA     		add	r2, sp, #4
 2810 0d0e FFF7FEFF 		bl	operacion
ARM GAS  C:\Users\diego\AppData\Local\Temp\ccNdDNY6.s 			page 65


 2811              	.LVL225:
 671:.\protocolo.c **** 						for(x=0;x<=17;x++){									
 2812              		.loc 1 671 0
 2813 0d12 0022     		movs	r2, #0
 2814 0d14 4F4B     		ldr	r3, .L625+32
 2815 0d16 1A60     		str	r2, [r3]
 2816 0d18 0AE0     		b	.L208
 2817              	.L209:
 672:.\protocolo.c **** 							write_psoc1(val,msn_tventas[x]);				//Total de ventas
 2818              		.loc 1 672 0 discriminator 3
 2819 0d1a 4F4A     		ldr	r2, .L625+36
 2820 0d1c 1344     		add	r3, r3, r2
 2821 0d1e 2046     		mov	r0, r4
 2822 0d20 93F82C10 		ldrb	r1, [r3, #44]	@ zero_extendqisi2
 2823 0d24 FFF7FEFF 		bl	write_psoc1
 2824              	.LVL226:
 671:.\protocolo.c **** 						for(x=0;x<=17;x++){									
 2825              		.loc 1 671 0 discriminator 3
 2826 0d28 4A4A     		ldr	r2, .L625+32
 2827 0d2a 1368     		ldr	r3, [r2]
 2828 0d2c 0133     		adds	r3, r3, #1
 2829 0d2e 1360     		str	r3, [r2]
 2830              	.L208:
 671:.\protocolo.c **** 						for(x=0;x<=17;x++){									
 2831              		.loc 1 671 0 is_stmt 0 discriminator 1
 2832 0d30 484B     		ldr	r3, .L625+32
 2833 0d32 1B68     		ldr	r3, [r3]
 2834 0d34 112B     		cmp	r3, #17
 2835 0d36 F0D9     		bls	.L209
 673:.\protocolo.c **** 						}
 674:.\protocolo.c **** 						print_valor(resultado,val);				
 2836              		.loc 1 674 0 is_stmt 1
 2837 0d38 3E48     		ldr	r0, .L625
 2838 0d3a 2146     		mov	r1, r4
 2839 0d3c FFF7FEFF 		bl	print_valor
 2840              	.LVL227:
 675:.\protocolo.c **** 						if(dir==a.dir){
 2841              		.loc 1 675 0
 2842 0d40 3F4B     		ldr	r3, .L625+12
 2843 0d42 1B78     		ldrb	r3, [r3]	@ zero_extendqisi2
 2844 0d44 AB42     		cmp	r3, r5
 2845 0d46 09D1     		bne	.L210
 676:.\protocolo.c **** 							write_eeprom(217,corte);
 2846              		.loc 1 676 0
 2847 0d48 D920     		movs	r0, #217
 2848 0d4a 09A9     		add	r1, sp, #36
 2849 0d4c FFF7FEFF 		bl	write_eeprom
 2850              	.LVL228:
 677:.\protocolo.c **** 							write_eeprom(538,resultado);
 2851              		.loc 1 677 0
 2852 0d50 40F21A20 		movw	r0, #538
 2853 0d54 3749     		ldr	r1, .L625
 2854 0d56 FFF7FEFF 		bl	write_eeprom
 2855              	.LVL229:
 2856 0d5a 09E0     		b	.L195
 2857              	.L210:
 678:.\protocolo.c **** 						}
ARM GAS  C:\Users\diego\AppData\Local\Temp\ccNdDNY6.s 			page 66


 679:.\protocolo.c **** 						else{
 680:.\protocolo.c **** 							write_eeprom(320,corte);
 2858              		.loc 1 680 0
 2859 0d5c 4FF4A070 		mov	r0, #320
 2860 0d60 09A9     		add	r1, sp, #36
 2861 0d62 FFF7FEFF 		bl	write_eeprom
 2862              	.LVL230:
 681:.\protocolo.c **** 							write_eeprom(576,resultado);
 2863              		.loc 1 681 0
 2864 0d66 4FF41070 		mov	r0, #576
 2865 0d6a 3249     		ldr	r1, .L625
 2866 0d6c FFF7FEFF 		bl	write_eeprom
 2867              	.LVL231:
 2868              	.L195:
 682:.\protocolo.c **** 						}				
 683:.\protocolo.c **** 					}
 684:.\protocolo.c **** 					if(((rventa.manguera==(producto3&0x0F))&&(dir==a.dir))||((rventa.manguera==(producto3b&0x0F))&
 2869              		.loc 1 684 0
 2870 0d70 314B     		ldr	r3, .L625+4
 2871 0d72 93F8E020 		ldrb	r2, [r3, #224]	@ zero_extendqisi2
 2872 0d76 3D4B     		ldr	r3, .L625+56
 2873 0d78 1B78     		ldrb	r3, [r3]	@ zero_extendqisi2
 2874 0d7a 03F00F03 		and	r3, r3, #15
 2875 0d7e 9342     		cmp	r3, r2
 2876 0d80 03D1     		bne	.L211
 2877              		.loc 1 684 0 is_stmt 0 discriminator 1
 2878 0d82 2F4B     		ldr	r3, .L625+12
 2879 0d84 1B78     		ldrb	r3, [r3]	@ zero_extendqisi2
 2880 0d86 AB42     		cmp	r3, r5
 2881 0d88 0BD0     		beq	.L212
 2882              	.L211:
 2883              		.loc 1 684 0 discriminator 3
 2884 0d8a 394B     		ldr	r3, .L625+60
 2885 0d8c 1B78     		ldrb	r3, [r3]	@ zero_extendqisi2
 2886 0d8e 03F00F03 		and	r3, r3, #15
 2887 0d92 9A42     		cmp	r2, r3
 2888 0d94 40F0E580 		bne	.L213
 2889              		.loc 1 684 0 discriminator 4
 2890 0d98 2B4B     		ldr	r3, .L625+20
 2891 0d9a 1B78     		ldrb	r3, [r3]	@ zero_extendqisi2
 2892 0d9c AB42     		cmp	r3, r5
 2893 0d9e 40F0E080 		bne	.L213
 2894              	.L212:
 685:.\protocolo.c **** 						for(x=0;x<=5;x++){									
 2895              		.loc 1 685 0 is_stmt 1
 2896 0da2 0022     		movs	r2, #0
 2897 0da4 2B4B     		ldr	r3, .L625+32
 2898 0da6 1A60     		str	r2, [r3]
 2899 0da8 08E0     		b	.L214
 2900              	.L215:
 686:.\protocolo.c **** 						    write_psoc1(val,msn_tc[x]);
 2901              		.loc 1 686 0 discriminator 3
 2902 0daa 2046     		mov	r0, r4
 2903 0dac 2A4A     		ldr	r2, .L625+36
 2904 0dae D15C     		ldrb	r1, [r2, r3]	@ zero_extendqisi2
 2905 0db0 FFF7FEFF 		bl	write_psoc1
 2906              	.LVL232:
ARM GAS  C:\Users\diego\AppData\Local\Temp\ccNdDNY6.s 			page 67


 685:.\protocolo.c **** 						for(x=0;x<=5;x++){									
 2907              		.loc 1 685 0 discriminator 3
 2908 0db4 274A     		ldr	r2, .L625+32
 2909 0db6 1368     		ldr	r3, [r2]
 2910 0db8 0133     		adds	r3, r3, #1
 2911 0dba 1360     		str	r3, [r2]
 2912              	.L214:
 685:.\protocolo.c **** 						for(x=0;x<=5;x++){									
 2913              		.loc 1 685 0 is_stmt 0 discriminator 1
 2914 0dbc 254B     		ldr	r3, .L625+32
 2915 0dbe 1B68     		ldr	r3, [r3]
 2916 0dc0 052B     		cmp	r3, #5
 2917 0dc2 F2D9     		bls	.L215
 687:.\protocolo.c **** 					    }
 688:.\protocolo.c **** 					    write_psoc1(val,10);
 2918              		.loc 1 688 0 is_stmt 1
 2919 0dc4 2046     		mov	r0, r4
 2920 0dc6 0A21     		movs	r1, #10
 2921 0dc8 FFF7FEFF 		bl	write_psoc1
 2922              	.LVL233:
 689:.\protocolo.c ****                         for(x=0;x<=10;x++){									
 2923              		.loc 1 689 0
 2924 0dcc 0022     		movs	r2, #0
 2925 0dce 214B     		ldr	r3, .L625+32
 2926 0dd0 1A60     		str	r2, [r3]
 2927 0dd2 08E0     		b	.L216
 2928              	.L217:
 690:.\protocolo.c **** 						    write_psoc1(val,producto3n[x]);
 2929              		.loc 1 690 0 discriminator 3
 2930 0dd4 2046     		mov	r0, r4
 2931 0dd6 274A     		ldr	r2, .L625+64
 2932 0dd8 D15C     		ldrb	r1, [r2, r3]	@ zero_extendqisi2
 2933 0dda FFF7FEFF 		bl	write_psoc1
 2934              	.LVL234:
 689:.\protocolo.c ****                         for(x=0;x<=10;x++){									
 2935              		.loc 1 689 0 discriminator 3
 2936 0dde 1D4A     		ldr	r2, .L625+32
 2937 0de0 1368     		ldr	r3, [r2]
 2938 0de2 0133     		adds	r3, r3, #1
 2939 0de4 1360     		str	r3, [r2]
 2940              	.L216:
 689:.\protocolo.c ****                         for(x=0;x<=10;x++){									
 2941              		.loc 1 689 0 is_stmt 0 discriminator 1
 2942 0de6 1B4B     		ldr	r3, .L625+32
 2943 0de8 1B68     		ldr	r3, [r3]
 2944 0dea 0A2B     		cmp	r3, #10
 2945 0dec F2D9     		bls	.L217
 691:.\protocolo.c **** 					    }
 692:.\protocolo.c ****                         write_psoc1(val,10);
 2946              		.loc 1 692 0 is_stmt 1
 2947 0dee 2046     		mov	r0, r4
 2948 0df0 0A21     		movs	r1, #10
 2949 0df2 FFF7FEFF 		bl	write_psoc1
 2950              	.LVL235:
 693:.\protocolo.c **** 						for(x=0;x<=14;x++){									
 2951              		.loc 1 693 0
 2952 0df6 0022     		movs	r2, #0
ARM GAS  C:\Users\diego\AppData\Local\Temp\ccNdDNY6.s 			page 68


 2953 0df8 164B     		ldr	r3, .L625+32
 2954 0dfa 1A60     		str	r2, [r3]
 2955 0dfc 09E0     		b	.L218
 2956              	.L219:
 694:.\protocolo.c **** 							write_psoc1(val,msn_lecact[x]);				//LECTURA ACTUAL
 2957              		.loc 1 694 0 discriminator 3
 2958 0dfe 164A     		ldr	r2, .L625+36
 2959 0e00 1344     		add	r3, r3, r2
 2960 0e02 2046     		mov	r0, r4
 2961 0e04 197A     		ldrb	r1, [r3, #8]	@ zero_extendqisi2
 2962 0e06 FFF7FEFF 		bl	write_psoc1
 2963              	.LVL236:
 693:.\protocolo.c **** 						for(x=0;x<=14;x++){									
 2964              		.loc 1 693 0 discriminator 3
 2965 0e0a 124A     		ldr	r2, .L625+32
 2966 0e0c 1368     		ldr	r3, [r2]
 2967 0e0e 0133     		adds	r3, r3, #1
 2968 0e10 1360     		str	r3, [r2]
 2969              	.L218:
 693:.\protocolo.c **** 						for(x=0;x<=14;x++){									
 2970              		.loc 1 693 0 is_stmt 0 discriminator 1
 2971 0e12 104B     		ldr	r3, .L625+32
 2972 0e14 1B68     		ldr	r3, [r3]
 2973 0e16 0E2B     		cmp	r3, #14
 2974 0e18 F1D9     		bls	.L219
 695:.\protocolo.c **** 						}
 696:.\protocolo.c **** 						write_psoc1(val,10);
 2975              		.loc 1 696 0 is_stmt 1
 2976 0e1a 2046     		mov	r0, r4
 2977 0e1c 0A21     		movs	r1, #10
 2978 0e1e FFF7FEFF 		bl	write_psoc1
 2979              	.LVL237:
 697:.\protocolo.c **** 						print_totalesac(8,val);	
 2980              		.loc 1 697 0
 2981 0e22 0820     		movs	r0, #8
 2982 0e24 2146     		mov	r1, r4
 2983 0e26 FFF7FEFF 		bl	print_totalesac
 2984              	.LVL238:
 698:.\protocolo.c **** 						for(x=0;x<=16;x++){												
 2985              		.loc 1 698 0
 2986 0e2a 0022     		movs	r2, #0
 2987 0e2c 094B     		ldr	r3, .L625+32
 2988 0e2e 1A60     		str	r2, [r3]
 2989 0e30 2CE0     		b	.L220
 2990              	.L626:
 2991 0e32 00BF     		.align	2
 2992              	.L625:
 2993 0e34 00000000 		.word	resultado
 2994 0e38 00000000 		.word	rventa
 2995 0e3c 00000000 		.word	producto2
 2996 0e40 00000000 		.word	a
 2997 0e44 00000000 		.word	producto2b
 2998 0e48 00000000 		.word	b
 2999 0e4c 00000000 		.word	d
 3000 0e50 00000000 		.word	c
 3001 0e54 00000000 		.word	x
 3002 0e58 00000000 		.word	.LANCHOR1
ARM GAS  C:\Users\diego\AppData\Local\Temp\ccNdDNY6.s 			page 69


 3003 0e5c 00000000 		.word	producto2n
 3004 0e60 00000000 		.word	z
 3005 0e64 FFFFFFFF 		.word	rventa-1
 3006 0e68 00000000 		.word	buffer_i2c
 3007 0e6c 00000000 		.word	producto3
 3008 0e70 00000000 		.word	producto3b
 3009 0e74 00000000 		.word	producto3n
 3010              	.L221:
 699:.\protocolo.c **** 							write_psoc1(val,msn_lecaan[x]);				//LECTURA ANTERIOR
 3011              		.loc 1 699 0 discriminator 3
 3012 0e78 AC4A     		ldr	r2, .L627
 3013 0e7a 1344     		add	r3, r3, r2
 3014 0e7c 2046     		mov	r0, r4
 3015 0e7e 197E     		ldrb	r1, [r3, #24]	@ zero_extendqisi2
 3016 0e80 FFF7FEFF 		bl	write_psoc1
 3017              	.LVL239:
 698:.\protocolo.c **** 						for(x=0;x<=16;x++){												
 3018              		.loc 1 698 0 discriminator 3
 3019 0e84 AA4A     		ldr	r2, .L627+4
 3020 0e86 1368     		ldr	r3, [r2]
 3021 0e88 0133     		adds	r3, r3, #1
 3022 0e8a 1360     		str	r3, [r2]
 3023              	.L220:
 698:.\protocolo.c **** 						for(x=0;x<=16;x++){												
 3024              		.loc 1 698 0 is_stmt 0 discriminator 1
 3025 0e8c A84B     		ldr	r3, .L627+4
 3026 0e8e 1B68     		ldr	r3, [r3]
 3027 0e90 102B     		cmp	r3, #16
 3028 0e92 F1D9     		bls	.L221
 700:.\protocolo.c **** 						}
 701:.\protocolo.c **** 						write_psoc1(val,10);
 3029              		.loc 1 701 0 is_stmt 1
 3030 0e94 2046     		mov	r0, r4
 3031 0e96 0A21     		movs	r1, #10
 3032 0e98 FFF7FEFF 		bl	write_psoc1
 3033              	.LVL240:
 702:.\protocolo.c **** 						if(dir==a.dir){
 3034              		.loc 1 702 0
 3035 0e9c A54B     		ldr	r3, .L627+8
 3036 0e9e 1B78     		ldrb	r3, [r3]	@ zero_extendqisi2
 3037 0ea0 AB42     		cmp	r3, r5
 3038 0ea2 05D1     		bne	.L222
 703:.\protocolo.c **** 							leer_eeprom(256,25);
 3039              		.loc 1 703 0
 3040 0ea4 4FF48070 		mov	r0, #256
 3041 0ea8 1921     		movs	r1, #25
 3042 0eaa FFF7FEFF 		bl	leer_eeprom
 3043              	.LVL241:
 3044 0eae 04E0     		b	.L223
 3045              	.L222:
 704:.\protocolo.c **** 						}
 705:.\protocolo.c **** 						else{
 706:.\protocolo.c **** 							leer_eeprom(345,25);
 3046              		.loc 1 706 0
 3047 0eb0 40F25910 		movw	r0, #345
 3048 0eb4 1921     		movs	r1, #25
 3049 0eb6 FFF7FEFF 		bl	leer_eeprom
ARM GAS  C:\Users\diego\AppData\Local\Temp\ccNdDNY6.s 			page 70


 3050              	.LVL242:
 3051              	.L223:
 707:.\protocolo.c **** 						}
 708:.\protocolo.c **** 						print_totales(val);
 3052              		.loc 1 708 0
 3053 0eba 2046     		mov	r0, r4
 3054 0ebc FFF7FEFF 		bl	print_totales
 3055              	.LVL243:
 709:.\protocolo.c **** 						for(z=1;z<=8;z++){
 3056              		.loc 1 709 0
 3057 0ec0 0122     		movs	r2, #1
 3058 0ec2 9D4B     		ldr	r3, .L627+12
 3059 0ec4 1A60     		str	r2, [r3]
 3060 0ec6 10E0     		b	.L224
 3061              	.L225:
 710:.\protocolo.c **** 							minuendo[z]=rventa.tdinero[z-1];
 3062              		.loc 1 710 0 discriminator 3
 3063 0ec8 9C4A     		ldr	r2, .L627+16
 3064 0eca 1A44     		add	r2, r2, r3
 3065 0ecc 92F8CA10 		ldrb	r1, [r2, #202]	@ zero_extendqisi2
 3066 0ed0 10AA     		add	r2, sp, #64
 3067 0ed2 1A44     		add	r2, r2, r3
 3068 0ed4 02F82C1C 		strb	r1, [r2, #-44]
 711:.\protocolo.c **** 							sustraendo[z]=buffer_i2c[z+8];
 3069              		.loc 1 711 0 discriminator 3
 3070 0ed8 03F10801 		add	r1, r3, #8
 3071 0edc 9848     		ldr	r0, .L627+20
 3072 0ede 415C     		ldrb	r1, [r0, r1]	@ zero_extendqisi2
 3073 0ee0 02F83C1C 		strb	r1, [r2, #-60]
 709:.\protocolo.c **** 						for(z=1;z<=8;z++){
 3074              		.loc 1 709 0 discriminator 3
 3075 0ee4 0133     		adds	r3, r3, #1
 3076 0ee6 944A     		ldr	r2, .L627+12
 3077 0ee8 1360     		str	r3, [r2]
 3078              	.L224:
 709:.\protocolo.c **** 						for(z=1;z<=8;z++){
 3079              		.loc 1 709 0 is_stmt 0 discriminator 1
 3080 0eea 934B     		ldr	r3, .L627+12
 3081 0eec 1B68     		ldr	r3, [r3]
 3082 0eee 082B     		cmp	r3, #8
 3083 0ef0 EAD9     		bls	.L225
 712:.\protocolo.c **** 						}
 713:.\protocolo.c **** 						minuendo[0]=8;
 3084              		.loc 1 713 0 is_stmt 1
 3085 0ef2 10A9     		add	r1, sp, #64
 3086 0ef4 0823     		movs	r3, #8
 3087 0ef6 01F82C3D 		strb	r3, [r1, #-44]!
 714:.\protocolo.c **** 						operacion(2,minuendo,sustraendo);
 3088              		.loc 1 714 0
 3089 0efa 0220     		movs	r0, #2
 3090 0efc 01AA     		add	r2, sp, #4
 3091 0efe FFF7FEFF 		bl	operacion
 3092              	.LVL244:
 715:.\protocolo.c **** 						for(x=0;x<=17;x++){									
 3093              		.loc 1 715 0
 3094 0f02 0022     		movs	r2, #0
 3095 0f04 8A4B     		ldr	r3, .L627+4
ARM GAS  C:\Users\diego\AppData\Local\Temp\ccNdDNY6.s 			page 71


 3096 0f06 1A60     		str	r2, [r3]
 3097 0f08 0AE0     		b	.L226
 3098              	.L227:
 716:.\protocolo.c **** 							write_psoc1(val,msn_tventas[x]);				//Total de ventas
 3099              		.loc 1 716 0 discriminator 3
 3100 0f0a 884A     		ldr	r2, .L627
 3101 0f0c 1344     		add	r3, r3, r2
 3102 0f0e 2046     		mov	r0, r4
 3103 0f10 93F82C10 		ldrb	r1, [r3, #44]	@ zero_extendqisi2
 3104 0f14 FFF7FEFF 		bl	write_psoc1
 3105              	.LVL245:
 715:.\protocolo.c **** 						for(x=0;x<=17;x++){									
 3106              		.loc 1 715 0 discriminator 3
 3107 0f18 854A     		ldr	r2, .L627+4
 3108 0f1a 1368     		ldr	r3, [r2]
 3109 0f1c 0133     		adds	r3, r3, #1
 3110 0f1e 1360     		str	r3, [r2]
 3111              	.L226:
 715:.\protocolo.c **** 						for(x=0;x<=17;x++){									
 3112              		.loc 1 715 0 is_stmt 0 discriminator 1
 3113 0f20 834B     		ldr	r3, .L627+4
 3114 0f22 1B68     		ldr	r3, [r3]
 3115 0f24 112B     		cmp	r3, #17
 3116 0f26 F0D9     		bls	.L227
 717:.\protocolo.c **** 						}
 718:.\protocolo.c **** 						print_valor(resultado,val);							
 3117              		.loc 1 718 0 is_stmt 1
 3118 0f28 8648     		ldr	r0, .L627+24
 3119 0f2a 2146     		mov	r1, r4
 3120 0f2c FFF7FEFF 		bl	print_valor
 3121              	.LVL246:
 719:.\protocolo.c **** 						if(dir==a.dir){
 3122              		.loc 1 719 0
 3123 0f30 804B     		ldr	r3, .L627+8
 3124 0f32 1B78     		ldrb	r3, [r3]	@ zero_extendqisi2
 3125 0f34 AB42     		cmp	r3, r5
 3126 0f36 0AD1     		bne	.L228
 720:.\protocolo.c **** 							write_eeprom(256,corte);
 3127              		.loc 1 720 0
 3128 0f38 4FF48070 		mov	r0, #256
 3129 0f3c 09A9     		add	r1, sp, #36
 3130 0f3e FFF7FEFF 		bl	write_eeprom
 3131              	.LVL247:
 721:.\protocolo.c **** 							write_eeprom(525,resultado);
 3132              		.loc 1 721 0
 3133 0f42 40F20D20 		movw	r0, #525
 3134 0f46 7F49     		ldr	r1, .L627+24
 3135 0f48 FFF7FEFF 		bl	write_eeprom
 3136              	.LVL248:
 3137 0f4c 09E0     		b	.L213
 3138              	.L228:
 722:.\protocolo.c **** 						}
 723:.\protocolo.c **** 						else{
 724:.\protocolo.c **** 							write_eeprom(345,corte);
 3139              		.loc 1 724 0
 3140 0f4e 40F25910 		movw	r0, #345
 3141 0f52 09A9     		add	r1, sp, #36
ARM GAS  C:\Users\diego\AppData\Local\Temp\ccNdDNY6.s 			page 72


 3142 0f54 FFF7FEFF 		bl	write_eeprom
 3143              	.LVL249:
 725:.\protocolo.c **** 							write_eeprom(589,resultado);
 3144              		.loc 1 725 0
 3145 0f58 40F24D20 		movw	r0, #589
 3146 0f5c 7949     		ldr	r1, .L627+24
 3147 0f5e FFF7FEFF 		bl	write_eeprom
 3148              	.LVL250:
 3149              	.L213:
 726:.\protocolo.c **** 						}					
 727:.\protocolo.c **** 					}	
 728:.\protocolo.c ****                     
 729:.\protocolo.c ****                     if(((rventa.manguera==(producto4&0x0F))&&(dir==a.dir))||((rventa.manguera==(pro
 3150              		.loc 1 729 0
 3151 0f62 794B     		ldr	r3, .L627+28
 3152 0f64 93F8E020 		ldrb	r2, [r3, #224]	@ zero_extendqisi2
 3153 0f68 784B     		ldr	r3, .L627+32
 3154 0f6a 1B78     		ldrb	r3, [r3]	@ zero_extendqisi2
 3155 0f6c 03F00F03 		and	r3, r3, #15
 3156 0f70 9342     		cmp	r3, r2
 3157 0f72 03D1     		bne	.L229
 3158              		.loc 1 729 0 is_stmt 0 discriminator 1
 3159 0f74 6F4B     		ldr	r3, .L627+8
 3160 0f76 1B78     		ldrb	r3, [r3]	@ zero_extendqisi2
 3161 0f78 AB42     		cmp	r3, r5
 3162 0f7a 0BD0     		beq	.L230
 3163              	.L229:
 3164              		.loc 1 729 0 discriminator 3
 3165 0f7c 744B     		ldr	r3, .L627+36
 3166 0f7e 1B78     		ldrb	r3, [r3]	@ zero_extendqisi2
 3167 0f80 03F00F03 		and	r3, r3, #15
 3168 0f84 9A42     		cmp	r2, r3
 3169 0f86 40F0C280 		bne	.L231
 3170              		.loc 1 729 0 discriminator 4
 3171 0f8a 724B     		ldr	r3, .L627+40
 3172 0f8c 1B78     		ldrb	r3, [r3]	@ zero_extendqisi2
 3173 0f8e AB42     		cmp	r3, r5
 3174 0f90 40F0BD80 		bne	.L231
 3175              	.L230:
 730:.\protocolo.c **** 						for(x=0;x<=5;x++){									
 3176              		.loc 1 730 0 is_stmt 1
 3177 0f94 0022     		movs	r2, #0
 3178 0f96 664B     		ldr	r3, .L627+4
 3179 0f98 1A60     		str	r2, [r3]
 3180 0f9a 08E0     		b	.L232
 3181              	.L233:
 731:.\protocolo.c **** 						    write_psoc1(val,msn_tc[x]);
 3182              		.loc 1 731 0 discriminator 3
 3183 0f9c 2046     		mov	r0, r4
 3184 0f9e 634A     		ldr	r2, .L627
 3185 0fa0 D15C     		ldrb	r1, [r2, r3]	@ zero_extendqisi2
 3186 0fa2 FFF7FEFF 		bl	write_psoc1
 3187              	.LVL251:
 730:.\protocolo.c **** 						for(x=0;x<=5;x++){									
 3188              		.loc 1 730 0 discriminator 3
 3189 0fa6 624A     		ldr	r2, .L627+4
 3190 0fa8 1368     		ldr	r3, [r2]
ARM GAS  C:\Users\diego\AppData\Local\Temp\ccNdDNY6.s 			page 73


 3191 0faa 0133     		adds	r3, r3, #1
 3192 0fac 1360     		str	r3, [r2]
 3193              	.L232:
 730:.\protocolo.c **** 						for(x=0;x<=5;x++){									
 3194              		.loc 1 730 0 is_stmt 0 discriminator 1
 3195 0fae 604B     		ldr	r3, .L627+4
 3196 0fb0 1B68     		ldr	r3, [r3]
 3197 0fb2 052B     		cmp	r3, #5
 3198 0fb4 F2D9     		bls	.L233
 732:.\protocolo.c **** 					    }
 733:.\protocolo.c **** 					    write_psoc1(val,10);
 3199              		.loc 1 733 0 is_stmt 1
 3200 0fb6 2046     		mov	r0, r4
 3201 0fb8 0A21     		movs	r1, #10
 3202 0fba FFF7FEFF 		bl	write_psoc1
 3203              	.LVL252:
 734:.\protocolo.c ****                         for(x=0;x<=10;x++){									
 3204              		.loc 1 734 0
 3205 0fbe 0022     		movs	r2, #0
 3206 0fc0 5B4B     		ldr	r3, .L627+4
 3207 0fc2 1A60     		str	r2, [r3]
 3208 0fc4 08E0     		b	.L234
 3209              	.L235:
 735:.\protocolo.c **** 						    write_psoc1(val,producto4n[x]);
 3210              		.loc 1 735 0 discriminator 3
 3211 0fc6 2046     		mov	r0, r4
 3212 0fc8 634A     		ldr	r2, .L627+44
 3213 0fca D15C     		ldrb	r1, [r2, r3]	@ zero_extendqisi2
 3214 0fcc FFF7FEFF 		bl	write_psoc1
 3215              	.LVL253:
 734:.\protocolo.c ****                         for(x=0;x<=10;x++){									
 3216              		.loc 1 734 0 discriminator 3
 3217 0fd0 574A     		ldr	r2, .L627+4
 3218 0fd2 1368     		ldr	r3, [r2]
 3219 0fd4 0133     		adds	r3, r3, #1
 3220 0fd6 1360     		str	r3, [r2]
 3221              	.L234:
 734:.\protocolo.c ****                         for(x=0;x<=10;x++){									
 3222              		.loc 1 734 0 is_stmt 0 discriminator 1
 3223 0fd8 554B     		ldr	r3, .L627+4
 3224 0fda 1B68     		ldr	r3, [r3]
 3225 0fdc 0A2B     		cmp	r3, #10
 3226 0fde F2D9     		bls	.L235
 736:.\protocolo.c **** 					    }
 737:.\protocolo.c ****                         write_psoc1(val,10);
 3227              		.loc 1 737 0 is_stmt 1
 3228 0fe0 2046     		mov	r0, r4
 3229 0fe2 0A21     		movs	r1, #10
 3230 0fe4 FFF7FEFF 		bl	write_psoc1
 3231              	.LVL254:
 738:.\protocolo.c **** 						for(x=0;x<=14;x++){									
 3232              		.loc 1 738 0
 3233 0fe8 0022     		movs	r2, #0
 3234 0fea 514B     		ldr	r3, .L627+4
 3235 0fec 1A60     		str	r2, [r3]
 3236 0fee 09E0     		b	.L236
 3237              	.L237:
ARM GAS  C:\Users\diego\AppData\Local\Temp\ccNdDNY6.s 			page 74


 739:.\protocolo.c **** 							write_psoc1(val,msn_lecact[x]);				//LECTURA ACTUAL
 3238              		.loc 1 739 0 discriminator 3
 3239 0ff0 4E4A     		ldr	r2, .L627
 3240 0ff2 1344     		add	r3, r3, r2
 3241 0ff4 2046     		mov	r0, r4
 3242 0ff6 197A     		ldrb	r1, [r3, #8]	@ zero_extendqisi2
 3243 0ff8 FFF7FEFF 		bl	write_psoc1
 3244              	.LVL255:
 738:.\protocolo.c **** 						for(x=0;x<=14;x++){									
 3245              		.loc 1 738 0 discriminator 3
 3246 0ffc 4C4A     		ldr	r2, .L627+4
 3247 0ffe 1368     		ldr	r3, [r2]
 3248 1000 0133     		adds	r3, r3, #1
 3249 1002 1360     		str	r3, [r2]
 3250              	.L236:
 738:.\protocolo.c **** 						for(x=0;x<=14;x++){									
 3251              		.loc 1 738 0 is_stmt 0 discriminator 1
 3252 1004 4A4B     		ldr	r3, .L627+4
 3253 1006 1B68     		ldr	r3, [r3]
 3254 1008 0E2B     		cmp	r3, #14
 3255 100a F1D9     		bls	.L237
 740:.\protocolo.c **** 						}
 741:.\protocolo.c **** 						write_psoc1(val,10);
 3256              		.loc 1 741 0 is_stmt 1
 3257 100c 2046     		mov	r0, r4
 3258 100e 0A21     		movs	r1, #10
 3259 1010 FFF7FEFF 		bl	write_psoc1
 3260              	.LVL256:
 742:.\protocolo.c **** 						print_totalesac(8,val);	
 3261              		.loc 1 742 0
 3262 1014 0820     		movs	r0, #8
 3263 1016 2146     		mov	r1, r4
 3264 1018 FFF7FEFF 		bl	print_totalesac
 3265              	.LVL257:
 743:.\protocolo.c **** 						for(x=0;x<=16;x++){												
 3266              		.loc 1 743 0
 3267 101c 0022     		movs	r2, #0
 3268 101e 444B     		ldr	r3, .L627+4
 3269 1020 1A60     		str	r2, [r3]
 3270 1022 09E0     		b	.L238
 3271              	.L239:
 744:.\protocolo.c **** 							write_psoc1(val,msn_lecaan[x]);				//LECTURA ANTERIOR
 3272              		.loc 1 744 0 discriminator 3
 3273 1024 414A     		ldr	r2, .L627
 3274 1026 1344     		add	r3, r3, r2
 3275 1028 2046     		mov	r0, r4
 3276 102a 197E     		ldrb	r1, [r3, #24]	@ zero_extendqisi2
 3277 102c FFF7FEFF 		bl	write_psoc1
 3278              	.LVL258:
 743:.\protocolo.c **** 						for(x=0;x<=16;x++){												
 3279              		.loc 1 743 0 discriminator 3
 3280 1030 3F4A     		ldr	r2, .L627+4
 3281 1032 1368     		ldr	r3, [r2]
 3282 1034 0133     		adds	r3, r3, #1
 3283 1036 1360     		str	r3, [r2]
 3284              	.L238:
 743:.\protocolo.c **** 						for(x=0;x<=16;x++){												
ARM GAS  C:\Users\diego\AppData\Local\Temp\ccNdDNY6.s 			page 75


 3285              		.loc 1 743 0 is_stmt 0 discriminator 1
 3286 1038 3D4B     		ldr	r3, .L627+4
 3287 103a 1B68     		ldr	r3, [r3]
 3288 103c 102B     		cmp	r3, #16
 3289 103e F1D9     		bls	.L239
 745:.\protocolo.c **** 						}
 746:.\protocolo.c **** 						write_psoc1(val,10);
 3290              		.loc 1 746 0 is_stmt 1
 3291 1040 2046     		mov	r0, r4
 3292 1042 0A21     		movs	r1, #10
 3293 1044 FFF7FEFF 		bl	write_psoc1
 3294              	.LVL259:
 747:.\protocolo.c **** 						if(dir==a.dir){
 3295              		.loc 1 747 0
 3296 1048 3A4B     		ldr	r3, .L627+8
 3297 104a 1B78     		ldrb	r3, [r3]	@ zero_extendqisi2
 3298 104c AB42     		cmp	r3, r5
 3299 104e 05D1     		bne	.L240
 748:.\protocolo.c **** 							leer_eeprom(1096,25);
 3300              		.loc 1 748 0
 3301 1050 4FF48960 		mov	r0, #1096
 3302 1054 1921     		movs	r1, #25
 3303 1056 FFF7FEFF 		bl	leer_eeprom
 3304              	.LVL260:
 3305 105a 04E0     		b	.L241
 3306              	.L240:
 749:.\protocolo.c **** 						}
 750:.\protocolo.c **** 						else{
 751:.\protocolo.c **** 							leer_eeprom(1054,25);
 3307              		.loc 1 751 0
 3308 105c 40F21E40 		movw	r0, #1054
 3309 1060 1921     		movs	r1, #25
 3310 1062 FFF7FEFF 		bl	leer_eeprom
 3311              	.LVL261:
 3312              	.L241:
 752:.\protocolo.c **** 						}
 753:.\protocolo.c **** 						print_totales(val);
 3313              		.loc 1 753 0
 3314 1066 2046     		mov	r0, r4
 3315 1068 FFF7FEFF 		bl	print_totales
 3316              	.LVL262:
 754:.\protocolo.c **** 						for(z=1;z<=8;z++){
 3317              		.loc 1 754 0
 3318 106c 0122     		movs	r2, #1
 3319 106e 324B     		ldr	r3, .L627+12
 3320 1070 1A60     		str	r2, [r3]
 3321 1072 10E0     		b	.L242
 3322              	.L243:
 755:.\protocolo.c **** 							minuendo[z]=rventa.tdinero[z-1];
 3323              		.loc 1 755 0 discriminator 3
 3324 1074 314A     		ldr	r2, .L627+16
 3325 1076 1A44     		add	r2, r2, r3
 3326 1078 92F8CA10 		ldrb	r1, [r2, #202]	@ zero_extendqisi2
 3327 107c 10AA     		add	r2, sp, #64
 3328 107e 1A44     		add	r2, r2, r3
 3329 1080 02F82C1C 		strb	r1, [r2, #-44]
 756:.\protocolo.c **** 							sustraendo[z]=buffer_i2c[z+8];
ARM GAS  C:\Users\diego\AppData\Local\Temp\ccNdDNY6.s 			page 76


 3330              		.loc 1 756 0 discriminator 3
 3331 1084 03F10801 		add	r1, r3, #8
 3332 1088 2D48     		ldr	r0, .L627+20
 3333 108a 415C     		ldrb	r1, [r0, r1]	@ zero_extendqisi2
 3334 108c 02F83C1C 		strb	r1, [r2, #-60]
 754:.\protocolo.c **** 						for(z=1;z<=8;z++){
 3335              		.loc 1 754 0 discriminator 3
 3336 1090 0133     		adds	r3, r3, #1
 3337 1092 294A     		ldr	r2, .L627+12
 3338 1094 1360     		str	r3, [r2]
 3339              	.L242:
 754:.\protocolo.c **** 						for(z=1;z<=8;z++){
 3340              		.loc 1 754 0 is_stmt 0 discriminator 1
 3341 1096 284B     		ldr	r3, .L627+12
 3342 1098 1B68     		ldr	r3, [r3]
 3343 109a 082B     		cmp	r3, #8
 3344 109c EAD9     		bls	.L243
 757:.\protocolo.c **** 						}
 758:.\protocolo.c **** 						minuendo[0]=8;
 3345              		.loc 1 758 0 is_stmt 1
 3346 109e 10A9     		add	r1, sp, #64
 3347 10a0 0823     		movs	r3, #8
 3348 10a2 01F82C3D 		strb	r3, [r1, #-44]!
 759:.\protocolo.c **** 						operacion(2,minuendo,sustraendo);
 3349              		.loc 1 759 0
 3350 10a6 0220     		movs	r0, #2
 3351 10a8 01AA     		add	r2, sp, #4
 3352 10aa FFF7FEFF 		bl	operacion
 3353              	.LVL263:
 760:.\protocolo.c **** 						for(x=0;x<=17;x++){									
 3354              		.loc 1 760 0
 3355 10ae 0022     		movs	r2, #0
 3356 10b0 1F4B     		ldr	r3, .L627+4
 3357 10b2 1A60     		str	r2, [r3]
 3358 10b4 0AE0     		b	.L244
 3359              	.L245:
 761:.\protocolo.c **** 							write_psoc1(val,msn_tventas[x]);				//Total de ventas
 3360              		.loc 1 761 0 discriminator 3
 3361 10b6 1D4A     		ldr	r2, .L627
 3362 10b8 1344     		add	r3, r3, r2
 3363 10ba 2046     		mov	r0, r4
 3364 10bc 93F82C10 		ldrb	r1, [r3, #44]	@ zero_extendqisi2
 3365 10c0 FFF7FEFF 		bl	write_psoc1
 3366              	.LVL264:
 760:.\protocolo.c **** 						for(x=0;x<=17;x++){									
 3367              		.loc 1 760 0 discriminator 3
 3368 10c4 1A4A     		ldr	r2, .L627+4
 3369 10c6 1368     		ldr	r3, [r2]
 3370 10c8 0133     		adds	r3, r3, #1
 3371 10ca 1360     		str	r3, [r2]
 3372              	.L244:
 760:.\protocolo.c **** 						for(x=0;x<=17;x++){									
 3373              		.loc 1 760 0 is_stmt 0 discriminator 1
 3374 10cc 184B     		ldr	r3, .L627+4
 3375 10ce 1B68     		ldr	r3, [r3]
 3376 10d0 112B     		cmp	r3, #17
 3377 10d2 F0D9     		bls	.L245
ARM GAS  C:\Users\diego\AppData\Local\Temp\ccNdDNY6.s 			page 77


 762:.\protocolo.c **** 						}
 763:.\protocolo.c **** 						print_valor(resultado,val);							
 3378              		.loc 1 763 0 is_stmt 1
 3379 10d4 1B48     		ldr	r0, .L627+24
 3380 10d6 2146     		mov	r1, r4
 3381 10d8 FFF7FEFF 		bl	print_valor
 3382              	.LVL265:
 764:.\protocolo.c **** 						if(dir==a.dir){
 3383              		.loc 1 764 0
 3384 10dc 154B     		ldr	r3, .L627+8
 3385 10de 1B78     		ldrb	r3, [r3]	@ zero_extendqisi2
 3386 10e0 AB42     		cmp	r3, r5
 3387 10e2 0AD1     		bne	.L246
 765:.\protocolo.c **** 						    write_eeprom(1096,corte);
 3388              		.loc 1 765 0
 3389 10e4 4FF48960 		mov	r0, #1096
 3390 10e8 09A9     		add	r1, sp, #36
 3391 10ea FFF7FEFF 		bl	write_eeprom
 3392              	.LVL266:
 766:.\protocolo.c **** 						    write_eeprom(1038,resultado);
 3393              		.loc 1 766 0
 3394 10ee 40F20E40 		movw	r0, #1038
 3395 10f2 1449     		ldr	r1, .L627+24
 3396 10f4 FFF7FEFF 		bl	write_eeprom
 3397              	.LVL267:
 3398 10f8 09E0     		b	.L231
 3399              	.L246:
 767:.\protocolo.c **** 					    }
 768:.\protocolo.c **** 					    else{
 769:.\protocolo.c **** 						    write_eeprom(1054,corte);
 3400              		.loc 1 769 0
 3401 10fa 40F21E40 		movw	r0, #1054
 3402 10fe 09A9     		add	r1, sp, #36
 3403 1100 FFF7FEFF 		bl	write_eeprom
 3404              	.LVL268:
 770:.\protocolo.c **** 						    write_eeprom(1081,resultado);
 3405              		.loc 1 770 0
 3406 1104 40F23940 		movw	r0, #1081
 3407 1108 0E49     		ldr	r1, .L627+24
 3408 110a FFF7FEFF 		bl	write_eeprom
 3409              	.LVL269:
 3410              	.L231:
 580:.\protocolo.c **** 					rventa.manguera=(Surtidor_rxBuffer[y+2]&0x0F)+1;
 3411              		.loc 1 580 0 discriminator 2
 3412 110e 134A     		ldr	r2, .L627+48
 3413 1110 1368     		ldr	r3, [r2]
 3414 1112 1E33     		adds	r3, r3, #30
 3415 1114 1360     		str	r3, [r2]
 3416              	.L162:
 580:.\protocolo.c **** 					rventa.manguera=(Surtidor_rxBuffer[y+2]&0x0F)+1;
 3417              		.loc 1 580 0 is_stmt 0 discriminator 1
 3418 1116 114B     		ldr	r3, .L627+48
 3419 1118 1E68     		ldr	r6, [r3]
 3420 111a 1E2E     		cmp	r6, #30
 3421 111c 7FF6ECAB 		bls	.L247
 771:.\protocolo.c **** 						}					
 772:.\protocolo.c **** 					}
ARM GAS  C:\Users\diego\AppData\Local\Temp\ccNdDNY6.s 			page 78


 773:.\protocolo.c **** 				}
 774:.\protocolo.c **** 				Surtidor_ClearRxBuffer();
 3422              		.loc 1 774 0 is_stmt 1
 3423 1120 FFF7FEFF 		bl	Surtidor_ClearRxBuffer
 3424              	.LVL270:
 775:.\protocolo.c **** 				return 2;					
 3425              		.loc 1 775 0
 3426 1124 0220     		movs	r0, #2
 3427 1126 02F0A5B9 		b	.L78
 3428              	.L628:
 3429 112a 00BF     		.align	2
 3430              	.L627:
 3431 112c 00000000 		.word	.LANCHOR1
 3432 1130 00000000 		.word	x
 3433 1134 00000000 		.word	a
 3434 1138 00000000 		.word	z
 3435 113c FFFFFFFF 		.word	rventa-1
 3436 1140 00000000 		.word	buffer_i2c
 3437 1144 00000000 		.word	resultado
 3438 1148 00000000 		.word	rventa
 3439 114c 00000000 		.word	producto4
 3440 1150 00000000 		.word	producto4b
 3441 1154 00000000 		.word	b
 3442 1158 00000000 		.word	producto4n
 3443 115c 00000000 		.word	y
 3444              	.L75:
 776:.\protocolo.c **** 			}			
 777:.\protocolo.c **** 			else{
 778:.\protocolo.c **** 				return 0;
 779:.\protocolo.c **** 			}
 780:.\protocolo.c **** 		break;
 781:.\protocolo.c **** 		
 782:.\protocolo.c **** 		case 94:
 783:.\protocolo.c **** 			if((Surtidor_rxBuffer[0]==0xFF)&&(Surtidor_rxBuffer[1]==0xF6)&&(Surtidor_rxBuffer[93]==0xF0)&&(S
 3445              		.loc 1 783 0
 3446 1160 A64B     		ldr	r3, .L629
 3447 1162 1B78     		ldrb	r3, [r3]	@ zero_extendqisi2
 3448 1164 DBB2     		uxtb	r3, r3
 3449 1166 FF2B     		cmp	r3, #255
 3450 1168 42F06581 		bne	.L600
 3451              		.loc 1 783 0 is_stmt 0 discriminator 1
 3452 116c A34B     		ldr	r3, .L629
 3453 116e 5B78     		ldrb	r3, [r3, #1]	@ zero_extendqisi2
 3454 1170 DBB2     		uxtb	r3, r3
 3455 1172 F62B     		cmp	r3, #246
 3456 1174 42F06181 		bne	.L601
 3457              		.loc 1 783 0 discriminator 2
 3458 1178 A04B     		ldr	r3, .L629
 3459 117a 93F85D30 		ldrb	r3, [r3, #93]	@ zero_extendqisi2
 3460 117e DBB2     		uxtb	r3, r3
 3461 1180 F02B     		cmp	r3, #240
 3462 1182 42F05C81 		bne	.L602
 3463              		.loc 1 783 0 discriminator 3
 3464 1186 9D4B     		ldr	r3, .L629
 3465 1188 DB78     		ldrb	r3, [r3, #3]	@ zero_extendqisi2
 3466 118a DBB2     		uxtb	r3, r3
 3467 118c F92B     		cmp	r3, #249
ARM GAS  C:\Users\diego\AppData\Local\Temp\ccNdDNY6.s 			page 79


 3468 118e 42F05881 		bne	.L603
 784:.\protocolo.c **** 				for(y=0;y<=60;y+=30){
 3469              		.loc 1 784 0 is_stmt 1
 3470 1192 0022     		movs	r2, #0
 3471 1194 9A4B     		ldr	r3, .L629+4
 3472 1196 1A60     		str	r2, [r3]
 3473 1198 00F00FBC 		b	.L248
 3474              	.L333:
 785:.\protocolo.c **** 					rventa.manguera=(Surtidor_rxBuffer[y+2]&0x0F)+1;
 3475              		.loc 1 785 0
 3476 119c B31C     		adds	r3, r6, #2
 3477 119e 974A     		ldr	r2, .L629
 3478 11a0 D15C     		ldrb	r1, [r2, r3]	@ zero_extendqisi2
 3479 11a2 01F00F01 		and	r1, r1, #15
 3480 11a6 0131     		adds	r1, r1, #1
 3481 11a8 964B     		ldr	r3, .L629+8
 3482 11aa 83F8E010 		strb	r1, [r3, #224]
 786:.\protocolo.c **** 					for(x=0;x<=7;x++){
 3483              		.loc 1 786 0
 3484 11ae 0022     		movs	r2, #0
 3485 11b0 954B     		ldr	r3, .L629+12
 3486 11b2 1A60     		str	r2, [r3]
 3487 11b4 0CE0     		b	.L249
 3488              	.L250:
 787:.\protocolo.c **** 						rventa.tvolumen[x]=(Surtidor_rxBuffer[y+4+x]&0x0F);						
 3489              		.loc 1 787 0 discriminator 3
 3490 11b6 F218     		adds	r2, r6, r3
 3491 11b8 0432     		adds	r2, r2, #4
 3492 11ba 9048     		ldr	r0, .L629
 3493 11bc 805C     		ldrb	r0, [r0, r2]	@ zero_extendqisi2
 3494 11be 914A     		ldr	r2, .L629+8
 3495 11c0 1A44     		add	r2, r2, r3
 3496 11c2 00F00F00 		and	r0, r0, #15
 3497 11c6 82F8BD00 		strb	r0, [r2, #189]
 786:.\protocolo.c **** 					for(x=0;x<=7;x++){
 3498              		.loc 1 786 0 discriminator 3
 3499 11ca 0133     		adds	r3, r3, #1
 3500 11cc 8E4A     		ldr	r2, .L629+12
 3501 11ce 1360     		str	r3, [r2]
 3502              	.L249:
 786:.\protocolo.c **** 					for(x=0;x<=7;x++){
 3503              		.loc 1 786 0 is_stmt 0 discriminator 1
 3504 11d0 8D4B     		ldr	r3, .L629+12
 3505 11d2 1B68     		ldr	r3, [r3]
 3506 11d4 072B     		cmp	r3, #7
 3507 11d6 EED9     		bls	.L250
 788:.\protocolo.c **** 					}
 789:.\protocolo.c **** 					for(x=0;x<=7;x++){
 3508              		.loc 1 789 0 is_stmt 1
 3509 11d8 0022     		movs	r2, #0
 3510 11da 8B4B     		ldr	r3, .L629+12
 3511 11dc 1A60     		str	r2, [r3]
 3512 11de 0CE0     		b	.L251
 3513              	.L252:
 790:.\protocolo.c **** 						rventa.tdinero[x]=(Surtidor_rxBuffer[y+13+x]&0x0F);					
 3514              		.loc 1 790 0 discriminator 3
 3515 11e0 F218     		adds	r2, r6, r3
ARM GAS  C:\Users\diego\AppData\Local\Temp\ccNdDNY6.s 			page 80


 3516 11e2 0D32     		adds	r2, r2, #13
 3517 11e4 8548     		ldr	r0, .L629
 3518 11e6 805C     		ldrb	r0, [r0, r2]	@ zero_extendqisi2
 3519 11e8 864A     		ldr	r2, .L629+8
 3520 11ea 1A44     		add	r2, r2, r3
 3521 11ec 00F00F00 		and	r0, r0, #15
 3522 11f0 82F8CA00 		strb	r0, [r2, #202]
 789:.\protocolo.c **** 						rventa.tdinero[x]=(Surtidor_rxBuffer[y+13+x]&0x0F);					
 3523              		.loc 1 789 0 discriminator 3
 3524 11f4 0133     		adds	r3, r3, #1
 3525 11f6 844A     		ldr	r2, .L629+12
 3526 11f8 1360     		str	r3, [r2]
 3527              	.L251:
 789:.\protocolo.c **** 						rventa.tdinero[x]=(Surtidor_rxBuffer[y+13+x]&0x0F);					
 3528              		.loc 1 789 0 is_stmt 0 discriminator 1
 3529 11fa 834B     		ldr	r3, .L629+12
 3530 11fc 1B68     		ldr	r3, [r3]
 3531 11fe 072B     		cmp	r3, #7
 3532 1200 EED9     		bls	.L252
 791:.\protocolo.c **** 					}
 792:.\protocolo.c **** 					for(z=0;z<=7;z++){
 3533              		.loc 1 792 0 is_stmt 1
 3534 1202 0022     		movs	r2, #0
 3535 1204 814B     		ldr	r3, .L629+16
 3536 1206 1A60     		str	r2, [r3]
 3537 1208 0AE0     		b	.L253
 3538              	.L254:
 793:.\protocolo.c **** 						corte[z+1]=rventa.tvolumen[z];
 3539              		.loc 1 793 0 discriminator 3
 3540 120a 5A1C     		adds	r2, r3, #1
 3541 120c 7D48     		ldr	r0, .L629+8
 3542 120e 0344     		add	r3, r3, r0
 3543 1210 93F8BD00 		ldrb	r0, [r3, #189]	@ zero_extendqisi2
 3544 1214 10AB     		add	r3, sp, #64
 3545 1216 1344     		add	r3, r3, r2
 3546 1218 03F81C0C 		strb	r0, [r3, #-28]
 792:.\protocolo.c **** 						corte[z+1]=rventa.tvolumen[z];
 3547              		.loc 1 792 0 discriminator 3
 3548 121c 7B4B     		ldr	r3, .L629+16
 3549 121e 1A60     		str	r2, [r3]
 3550              	.L253:
 792:.\protocolo.c **** 						corte[z+1]=rventa.tvolumen[z];
 3551              		.loc 1 792 0 is_stmt 0 discriminator 1
 3552 1220 7A4B     		ldr	r3, .L629+16
 3553 1222 1B68     		ldr	r3, [r3]
 3554 1224 072B     		cmp	r3, #7
 3555 1226 F0D9     		bls	.L254
 794:.\protocolo.c **** 					}
 795:.\protocolo.c **** 					for(z=9;z<=16;z++){
 3556              		.loc 1 795 0 is_stmt 1
 3557 1228 0922     		movs	r2, #9
 3558 122a 784B     		ldr	r3, .L629+16
 3559 122c 1A60     		str	r2, [r3]
 3560 122e 0AE0     		b	.L255
 3561              	.L256:
 796:.\protocolo.c **** 						corte[z]=rventa.tdinero[z-9];
 3562              		.loc 1 796 0 discriminator 3
ARM GAS  C:\Users\diego\AppData\Local\Temp\ccNdDNY6.s 			page 81


 3563 1230 774A     		ldr	r2, .L629+20
 3564 1232 1A44     		add	r2, r2, r3
 3565 1234 92F8CA00 		ldrb	r0, [r2, #202]	@ zero_extendqisi2
 3566 1238 10AA     		add	r2, sp, #64
 3567 123a 1A44     		add	r2, r2, r3
 3568 123c 02F81C0C 		strb	r0, [r2, #-28]
 795:.\protocolo.c **** 						corte[z]=rventa.tdinero[z-9];
 3569              		.loc 1 795 0 discriminator 3
 3570 1240 0133     		adds	r3, r3, #1
 3571 1242 724A     		ldr	r2, .L629+16
 3572 1244 1360     		str	r3, [r2]
 3573              	.L255:
 795:.\protocolo.c **** 						corte[z]=rventa.tdinero[z-9];
 3574              		.loc 1 795 0 is_stmt 0 discriminator 1
 3575 1246 714B     		ldr	r3, .L629+16
 3576 1248 1B68     		ldr	r3, [r3]
 3577 124a 102B     		cmp	r3, #16
 3578 124c F0D9     		bls	.L256
 797:.\protocolo.c **** 					}
 798:.\protocolo.c **** 					corte[0]=16;		
 3579              		.loc 1 798 0 is_stmt 1
 3580 124e 1023     		movs	r3, #16
 3581 1250 8DF82430 		strb	r3, [sp, #36]
 799:.\protocolo.c **** 					if(((rventa.manguera==(producto1&0x0F))&&(dir==a.dir))||((rventa.manguera==(producto1b&0x0F))&
 3582              		.loc 1 799 0
 3583 1254 6F4B     		ldr	r3, .L629+24
 3584 1256 1B78     		ldrb	r3, [r3]	@ zero_extendqisi2
 3585 1258 03F00F03 		and	r3, r3, #15
 3586 125c 8B42     		cmp	r3, r1
 3587 125e 03D1     		bne	.L257
 3588              		.loc 1 799 0 is_stmt 0 discriminator 1
 3589 1260 6D4A     		ldr	r2, .L629+28
 3590 1262 1278     		ldrb	r2, [r2]	@ zero_extendqisi2
 3591 1264 AA42     		cmp	r2, r5
 3592 1266 17D0     		beq	.L258
 3593              	.L257:
 3594              		.loc 1 799 0 discriminator 3
 3595 1268 6C4A     		ldr	r2, .L629+32
 3596 126a 1278     		ldrb	r2, [r2]	@ zero_extendqisi2
 3597 126c 02F00F02 		and	r2, r2, #15
 3598 1270 9142     		cmp	r1, r2
 3599 1272 03D1     		bne	.L259
 3600              		.loc 1 799 0 discriminator 4
 3601 1274 6A48     		ldr	r0, .L629+36
 3602 1276 0078     		ldrb	r0, [r0]	@ zero_extendqisi2
 3603 1278 A842     		cmp	r0, r5
 3604 127a 0DD0     		beq	.L258
 3605              	.L259:
 3606              		.loc 1 799 0 discriminator 6
 3607 127c 8B42     		cmp	r3, r1
 3608 127e 03D1     		bne	.L260
 3609              		.loc 1 799 0 discriminator 7
 3610 1280 684B     		ldr	r3, .L629+40
 3611 1282 1B78     		ldrb	r3, [r3]	@ zero_extendqisi2
 3612 1284 AB42     		cmp	r3, r5
 3613 1286 07D0     		beq	.L258
 3614              	.L260:
ARM GAS  C:\Users\diego\AppData\Local\Temp\ccNdDNY6.s 			page 82


 3615              		.loc 1 799 0 discriminator 9
 3616 1288 9142     		cmp	r1, r2
 3617 128a 40F0E380 		bne	.L261
 3618              		.loc 1 799 0 discriminator 10
 3619 128e 664B     		ldr	r3, .L629+44
 3620 1290 1B78     		ldrb	r3, [r3]	@ zero_extendqisi2
 3621 1292 AB42     		cmp	r3, r5
 3622 1294 40F0DE80 		bne	.L261
 3623              	.L258:
 800:.\protocolo.c **** 						for(x=0;x<=5;x++){									
 3624              		.loc 1 800 0 is_stmt 1
 3625 1298 0022     		movs	r2, #0
 3626 129a 5B4B     		ldr	r3, .L629+12
 3627 129c 1A60     		str	r2, [r3]
 3628 129e 08E0     		b	.L262
 3629              	.L263:
 801:.\protocolo.c **** 							write_psoc1(val,msn_tc[x]);
 3630              		.loc 1 801 0 discriminator 3
 3631 12a0 2046     		mov	r0, r4
 3632 12a2 624A     		ldr	r2, .L629+48
 3633 12a4 D15C     		ldrb	r1, [r2, r3]	@ zero_extendqisi2
 3634 12a6 FFF7FEFF 		bl	write_psoc1
 3635              	.LVL271:
 800:.\protocolo.c **** 						for(x=0;x<=5;x++){									
 3636              		.loc 1 800 0 discriminator 3
 3637 12aa 574A     		ldr	r2, .L629+12
 3638 12ac 1368     		ldr	r3, [r2]
 3639 12ae 0133     		adds	r3, r3, #1
 3640 12b0 1360     		str	r3, [r2]
 3641              	.L262:
 800:.\protocolo.c **** 						for(x=0;x<=5;x++){									
 3642              		.loc 1 800 0 is_stmt 0 discriminator 1
 3643 12b2 554B     		ldr	r3, .L629+12
 3644 12b4 1B68     		ldr	r3, [r3]
 3645 12b6 052B     		cmp	r3, #5
 3646 12b8 F2D9     		bls	.L263
 802:.\protocolo.c **** 						}
 803:.\protocolo.c **** 						write_psoc1(val,10);
 3647              		.loc 1 803 0 is_stmt 1
 3648 12ba 2046     		mov	r0, r4
 3649 12bc 0A21     		movs	r1, #10
 3650 12be FFF7FEFF 		bl	write_psoc1
 3651              	.LVL272:
 804:.\protocolo.c ****                         for(x=0;x<=10;x++){									
 3652              		.loc 1 804 0
 3653 12c2 0022     		movs	r2, #0
 3654 12c4 504B     		ldr	r3, .L629+12
 3655 12c6 1A60     		str	r2, [r3]
 3656 12c8 08E0     		b	.L264
 3657              	.L265:
 805:.\protocolo.c **** 						write_psoc1(val,producto1n[x]);
 3658              		.loc 1 805 0 discriminator 3
 3659 12ca 2046     		mov	r0, r4
 3660 12cc 584A     		ldr	r2, .L629+52
 3661 12ce D15C     		ldrb	r1, [r2, r3]	@ zero_extendqisi2
 3662 12d0 FFF7FEFF 		bl	write_psoc1
 3663              	.LVL273:
ARM GAS  C:\Users\diego\AppData\Local\Temp\ccNdDNY6.s 			page 83


 804:.\protocolo.c ****                         for(x=0;x<=10;x++){									
 3664              		.loc 1 804 0 discriminator 3
 3665 12d4 4C4A     		ldr	r2, .L629+12
 3666 12d6 1368     		ldr	r3, [r2]
 3667 12d8 0133     		adds	r3, r3, #1
 3668 12da 1360     		str	r3, [r2]
 3669              	.L264:
 804:.\protocolo.c ****                         for(x=0;x<=10;x++){									
 3670              		.loc 1 804 0 is_stmt 0 discriminator 1
 3671 12dc 4A4B     		ldr	r3, .L629+12
 3672 12de 1B68     		ldr	r3, [r3]
 3673 12e0 0A2B     		cmp	r3, #10
 3674 12e2 F2D9     		bls	.L265
 806:.\protocolo.c **** 					    }
 807:.\protocolo.c ****                         write_psoc1(val,10);
 3675              		.loc 1 807 0 is_stmt 1
 3676 12e4 2046     		mov	r0, r4
 3677 12e6 0A21     		movs	r1, #10
 3678 12e8 FFF7FEFF 		bl	write_psoc1
 3679              	.LVL274:
 808:.\protocolo.c **** 						for(x=0;x<=14;x++){									
 3680              		.loc 1 808 0
 3681 12ec 0022     		movs	r2, #0
 3682 12ee 464B     		ldr	r3, .L629+12
 3683 12f0 1A60     		str	r2, [r3]
 3684 12f2 09E0     		b	.L266
 3685              	.L267:
 809:.\protocolo.c **** 							write_psoc1(val,msn_lecact[x]);				//LECTURA ACTUAL
 3686              		.loc 1 809 0 discriminator 3
 3687 12f4 4D4A     		ldr	r2, .L629+48
 3688 12f6 1344     		add	r3, r3, r2
 3689 12f8 2046     		mov	r0, r4
 3690 12fa 197A     		ldrb	r1, [r3, #8]	@ zero_extendqisi2
 3691 12fc FFF7FEFF 		bl	write_psoc1
 3692              	.LVL275:
 808:.\protocolo.c **** 						for(x=0;x<=14;x++){									
 3693              		.loc 1 808 0 discriminator 3
 3694 1300 414A     		ldr	r2, .L629+12
 3695 1302 1368     		ldr	r3, [r2]
 3696 1304 0133     		adds	r3, r3, #1
 3697 1306 1360     		str	r3, [r2]
 3698              	.L266:
 808:.\protocolo.c **** 						for(x=0;x<=14;x++){									
 3699              		.loc 1 808 0 is_stmt 0 discriminator 1
 3700 1308 3F4B     		ldr	r3, .L629+12
 3701 130a 1B68     		ldr	r3, [r3]
 3702 130c 0E2B     		cmp	r3, #14
 3703 130e F1D9     		bls	.L267
 810:.\protocolo.c **** 						}
 811:.\protocolo.c **** 						write_psoc1(val,10);
 3704              		.loc 1 811 0 is_stmt 1
 3705 1310 2046     		mov	r0, r4
 3706 1312 0A21     		movs	r1, #10
 3707 1314 FFF7FEFF 		bl	write_psoc1
 3708              	.LVL276:
 812:.\protocolo.c **** 						print_totalesac(8,val);	
 3709              		.loc 1 812 0
ARM GAS  C:\Users\diego\AppData\Local\Temp\ccNdDNY6.s 			page 84


 3710 1318 0820     		movs	r0, #8
 3711 131a 2146     		mov	r1, r4
 3712 131c FFF7FEFF 		bl	print_totalesac
 3713              	.LVL277:
 813:.\protocolo.c **** 						for(x=0;x<=16;x++){												
 3714              		.loc 1 813 0
 3715 1320 0022     		movs	r2, #0
 3716 1322 394B     		ldr	r3, .L629+12
 3717 1324 1A60     		str	r2, [r3]
 3718 1326 09E0     		b	.L268
 3719              	.L269:
 814:.\protocolo.c **** 							write_psoc1(val,msn_lecaan[x]);				//LECTURA ANTERIOR
 3720              		.loc 1 814 0 discriminator 3
 3721 1328 404A     		ldr	r2, .L629+48
 3722 132a 1344     		add	r3, r3, r2
 3723 132c 2046     		mov	r0, r4
 3724 132e 197E     		ldrb	r1, [r3, #24]	@ zero_extendqisi2
 3725 1330 FFF7FEFF 		bl	write_psoc1
 3726              	.LVL278:
 813:.\protocolo.c **** 						for(x=0;x<=16;x++){												
 3727              		.loc 1 813 0 discriminator 3
 3728 1334 344A     		ldr	r2, .L629+12
 3729 1336 1368     		ldr	r3, [r2]
 3730 1338 0133     		adds	r3, r3, #1
 3731 133a 1360     		str	r3, [r2]
 3732              	.L268:
 813:.\protocolo.c **** 						for(x=0;x<=16;x++){												
 3733              		.loc 1 813 0 is_stmt 0 discriminator 1
 3734 133c 324B     		ldr	r3, .L629+12
 3735 133e 1B68     		ldr	r3, [r3]
 3736 1340 102B     		cmp	r3, #16
 3737 1342 F1D9     		bls	.L269
 815:.\protocolo.c **** 						}
 816:.\protocolo.c **** 						write_psoc1(val,10);
 3738              		.loc 1 816 0 is_stmt 1
 3739 1344 2046     		mov	r0, r4
 3740 1346 0A21     		movs	r1, #10
 3741 1348 FFF7FEFF 		bl	write_psoc1
 3742              	.LVL279:
 817:.\protocolo.c **** 						if(dir==a.dir){
 3743              		.loc 1 817 0
 3744 134c 324B     		ldr	r3, .L629+28
 3745 134e 1B78     		ldrb	r3, [r3]	@ zero_extendqisi2
 3746 1350 AB42     		cmp	r3, r5
 3747 1352 04D1     		bne	.L270
 818:.\protocolo.c **** 							leer_eeprom(192,25);
 3748              		.loc 1 818 0
 3749 1354 C020     		movs	r0, #192
 3750 1356 1921     		movs	r1, #25
 3751 1358 FFF7FEFF 		bl	leer_eeprom
 3752              	.LVL280:
 3753 135c 04E0     		b	.L271
 3754              	.L270:
 819:.\protocolo.c **** 						}
 820:.\protocolo.c **** 						else{
 821:.\protocolo.c **** 							leer_eeprom(281,25);
 3755              		.loc 1 821 0
ARM GAS  C:\Users\diego\AppData\Local\Temp\ccNdDNY6.s 			page 85


 3756 135e 40F21910 		movw	r0, #281
 3757 1362 1921     		movs	r1, #25
 3758 1364 FFF7FEFF 		bl	leer_eeprom
 3759              	.LVL281:
 3760              	.L271:
 822:.\protocolo.c **** 						}
 823:.\protocolo.c **** 						print_totales(val);
 3761              		.loc 1 823 0
 3762 1368 2046     		mov	r0, r4
 3763 136a FFF7FEFF 		bl	print_totales
 3764              	.LVL282:
 824:.\protocolo.c **** 						for(z=1;z<=8;z++){
 3765              		.loc 1 824 0
 3766 136e 0122     		movs	r2, #1
 3767 1370 264B     		ldr	r3, .L629+16
 3768 1372 1A60     		str	r2, [r3]
 3769 1374 10E0     		b	.L272
 3770              	.L273:
 825:.\protocolo.c **** 							minuendo[z]=rventa.tdinero[z-1];
 3771              		.loc 1 825 0 discriminator 3
 3772 1376 2F4A     		ldr	r2, .L629+56
 3773 1378 1A44     		add	r2, r2, r3
 3774 137a 92F8CA10 		ldrb	r1, [r2, #202]	@ zero_extendqisi2
 3775 137e 10AA     		add	r2, sp, #64
 3776 1380 1A44     		add	r2, r2, r3
 3777 1382 02F82C1C 		strb	r1, [r2, #-44]
 826:.\protocolo.c **** 							sustraendo[z]=buffer_i2c[z+8];
 3778              		.loc 1 826 0 discriminator 3
 3779 1386 03F10801 		add	r1, r3, #8
 3780 138a 2B48     		ldr	r0, .L629+60
 3781 138c 415C     		ldrb	r1, [r0, r1]	@ zero_extendqisi2
 3782 138e 02F83C1C 		strb	r1, [r2, #-60]
 824:.\protocolo.c **** 						for(z=1;z<=8;z++){
 3783              		.loc 1 824 0 discriminator 3
 3784 1392 0133     		adds	r3, r3, #1
 3785 1394 1D4A     		ldr	r2, .L629+16
 3786 1396 1360     		str	r3, [r2]
 3787              	.L272:
 824:.\protocolo.c **** 						for(z=1;z<=8;z++){
 3788              		.loc 1 824 0 is_stmt 0 discriminator 1
 3789 1398 1C4B     		ldr	r3, .L629+16
 3790 139a 1B68     		ldr	r3, [r3]
 3791 139c 082B     		cmp	r3, #8
 3792 139e EAD9     		bls	.L273
 827:.\protocolo.c **** 						}
 828:.\protocolo.c **** 						minuendo[0]=8;
 3793              		.loc 1 828 0 is_stmt 1
 3794 13a0 10A9     		add	r1, sp, #64
 3795 13a2 0823     		movs	r3, #8
 3796 13a4 01F82C3D 		strb	r3, [r1, #-44]!
 829:.\protocolo.c **** 						operacion(2,minuendo,sustraendo);
 3797              		.loc 1 829 0
 3798 13a8 0220     		movs	r0, #2
 3799 13aa 01AA     		add	r2, sp, #4
 3800 13ac FFF7FEFF 		bl	operacion
 3801              	.LVL283:
 830:.\protocolo.c **** 						for(x=0;x<=17;x++){									
ARM GAS  C:\Users\diego\AppData\Local\Temp\ccNdDNY6.s 			page 86


 3802              		.loc 1 830 0
 3803 13b0 0022     		movs	r2, #0
 3804 13b2 154B     		ldr	r3, .L629+12
 3805 13b4 1A60     		str	r2, [r3]
 3806 13b6 0AE0     		b	.L274
 3807              	.L275:
 831:.\protocolo.c **** 							write_psoc1(val,msn_tventas[x]);				//Total de ventas
 3808              		.loc 1 831 0 discriminator 3
 3809 13b8 1C4A     		ldr	r2, .L629+48
 3810 13ba 1344     		add	r3, r3, r2
 3811 13bc 2046     		mov	r0, r4
 3812 13be 93F82C10 		ldrb	r1, [r3, #44]	@ zero_extendqisi2
 3813 13c2 FFF7FEFF 		bl	write_psoc1
 3814              	.LVL284:
 830:.\protocolo.c **** 						for(x=0;x<=17;x++){									
 3815              		.loc 1 830 0 discriminator 3
 3816 13c6 104A     		ldr	r2, .L629+12
 3817 13c8 1368     		ldr	r3, [r2]
 3818 13ca 0133     		adds	r3, r3, #1
 3819 13cc 1360     		str	r3, [r2]
 3820              	.L274:
 830:.\protocolo.c **** 						for(x=0;x<=17;x++){									
 3821              		.loc 1 830 0 is_stmt 0 discriminator 1
 3822 13ce 0E4B     		ldr	r3, .L629+12
 3823 13d0 1B68     		ldr	r3, [r3]
 3824 13d2 112B     		cmp	r3, #17
 3825 13d4 F0D9     		bls	.L275
 832:.\protocolo.c **** 						}
 833:.\protocolo.c **** 						print_valor(resultado,val);
 3826              		.loc 1 833 0 is_stmt 1
 3827 13d6 1948     		ldr	r0, .L629+64
 3828 13d8 2146     		mov	r1, r4
 3829 13da FFF7FEFF 		bl	print_valor
 3830              	.LVL285:
 834:.\protocolo.c **** 						if(dir==a.dir){
 3831              		.loc 1 834 0
 3832 13de 0E4B     		ldr	r3, .L629+28
 3833 13e0 1B78     		ldrb	r3, [r3]	@ zero_extendqisi2
 3834 13e2 AB42     		cmp	r3, r5
 3835 13e4 2CD1     		bne	.L276
 835:.\protocolo.c **** 							write_eeprom(192,corte);	
 3836              		.loc 1 835 0
 3837 13e6 C020     		movs	r0, #192
 3838 13e8 09A9     		add	r1, sp, #36
 3839 13ea FFF7FEFF 		bl	write_eeprom
 3840              	.LVL286:
 836:.\protocolo.c **** 							write_eeprom(512,resultado);
 3841              		.loc 1 836 0
 3842 13ee 4FF40070 		mov	r0, #512
 3843 13f2 1249     		ldr	r1, .L629+64
 3844 13f4 FFF7FEFF 		bl	write_eeprom
 3845              	.LVL287:
 3846 13f8 2CE0     		b	.L261
 3847              	.L630:
 3848 13fa 00BF     		.align	2
 3849              	.L629:
 3850 13fc 00000000 		.word	Surtidor_rxBuffer
ARM GAS  C:\Users\diego\AppData\Local\Temp\ccNdDNY6.s 			page 87


 3851 1400 00000000 		.word	y
 3852 1404 00000000 		.word	rventa
 3853 1408 00000000 		.word	x
 3854 140c 00000000 		.word	z
 3855 1410 F7FFFFFF 		.word	rventa-9
 3856 1414 00000000 		.word	producto1
 3857 1418 00000000 		.word	a
 3858 141c 00000000 		.word	producto1b
 3859 1420 00000000 		.word	b
 3860 1424 00000000 		.word	c
 3861 1428 00000000 		.word	d
 3862 142c 00000000 		.word	.LANCHOR1
 3863 1430 00000000 		.word	producto1n
 3864 1434 FFFFFFFF 		.word	rventa-1
 3865 1438 00000000 		.word	buffer_i2c
 3866 143c 00000000 		.word	resultado
 3867              	.L276:
 837:.\protocolo.c **** 						}
 838:.\protocolo.c **** 						else{
 839:.\protocolo.c **** 							write_eeprom(281,corte);
 3868              		.loc 1 839 0
 3869 1440 40F21910 		movw	r0, #281
 3870 1444 09A9     		add	r1, sp, #36
 3871 1446 FFF7FEFF 		bl	write_eeprom
 3872              	.LVL288:
 840:.\protocolo.c **** 							write_eeprom(551,resultado);
 3873              		.loc 1 840 0
 3874 144a 40F22720 		movw	r0, #551
 3875 144e A249     		ldr	r1, .L631
 3876 1450 FFF7FEFF 		bl	write_eeprom
 3877              	.LVL289:
 3878              	.L261:
 841:.\protocolo.c **** 						}
 842:.\protocolo.c **** 					}
 843:.\protocolo.c **** 					if(((rventa.manguera==(producto2&0x0F))&&(dir==a.dir))||((rventa.manguera==(producto2b&0x0F))&
 3879              		.loc 1 843 0
 3880 1454 A14B     		ldr	r3, .L631+4
 3881 1456 93F8E010 		ldrb	r1, [r3, #224]	@ zero_extendqisi2
 3882 145a A14B     		ldr	r3, .L631+8
 3883 145c 1B78     		ldrb	r3, [r3]	@ zero_extendqisi2
 3884 145e 03F00F03 		and	r3, r3, #15
 3885 1462 8B42     		cmp	r3, r1
 3886 1464 03D1     		bne	.L277
 3887              		.loc 1 843 0 is_stmt 0 discriminator 1
 3888 1466 9F4A     		ldr	r2, .L631+12
 3889 1468 1278     		ldrb	r2, [r2]	@ zero_extendqisi2
 3890 146a AA42     		cmp	r2, r5
 3891 146c 17D0     		beq	.L278
 3892              	.L277:
 3893              		.loc 1 843 0 discriminator 3
 3894 146e 9E4A     		ldr	r2, .L631+16
 3895 1470 1278     		ldrb	r2, [r2]	@ zero_extendqisi2
 3896 1472 02F00F02 		and	r2, r2, #15
 3897 1476 9142     		cmp	r1, r2
 3898 1478 03D1     		bne	.L279
 3899              		.loc 1 843 0 discriminator 4
 3900 147a 9C48     		ldr	r0, .L631+20
ARM GAS  C:\Users\diego\AppData\Local\Temp\ccNdDNY6.s 			page 88


 3901 147c 0078     		ldrb	r0, [r0]	@ zero_extendqisi2
 3902 147e A842     		cmp	r0, r5
 3903 1480 0DD0     		beq	.L278
 3904              	.L279:
 3905              		.loc 1 843 0 discriminator 6
 3906 1482 9142     		cmp	r1, r2
 3907 1484 03D1     		bne	.L280
 3908              		.loc 1 843 0 discriminator 7
 3909 1486 9A4A     		ldr	r2, .L631+24
 3910 1488 1278     		ldrb	r2, [r2]	@ zero_extendqisi2
 3911 148a AA42     		cmp	r2, r5
 3912 148c 07D0     		beq	.L278
 3913              	.L280:
 3914              		.loc 1 843 0 discriminator 9
 3915 148e 8B42     		cmp	r3, r1
 3916 1490 40F0C080 		bne	.L281
 3917              		.loc 1 843 0 discriminator 10
 3918 1494 974B     		ldr	r3, .L631+28
 3919 1496 1B78     		ldrb	r3, [r3]	@ zero_extendqisi2
 3920 1498 AB42     		cmp	r3, r5
 3921 149a 40F0BB80 		bne	.L281
 3922              	.L278:
 844:.\protocolo.c **** 						for(x=0;x<=5;x++){									
 3923              		.loc 1 844 0 is_stmt 1
 3924 149e 0022     		movs	r2, #0
 3925 14a0 954B     		ldr	r3, .L631+32
 3926 14a2 1A60     		str	r2, [r3]
 3927 14a4 08E0     		b	.L282
 3928              	.L283:
 845:.\protocolo.c **** 						    write_psoc1(val,msn_tc[x]);
 3929              		.loc 1 845 0 discriminator 3
 3930 14a6 2046     		mov	r0, r4
 3931 14a8 944A     		ldr	r2, .L631+36
 3932 14aa D15C     		ldrb	r1, [r2, r3]	@ zero_extendqisi2
 3933 14ac FFF7FEFF 		bl	write_psoc1
 3934              	.LVL290:
 844:.\protocolo.c **** 						for(x=0;x<=5;x++){									
 3935              		.loc 1 844 0 discriminator 3
 3936 14b0 914A     		ldr	r2, .L631+32
 3937 14b2 1368     		ldr	r3, [r2]
 3938 14b4 0133     		adds	r3, r3, #1
 3939 14b6 1360     		str	r3, [r2]
 3940              	.L282:
 844:.\protocolo.c **** 						for(x=0;x<=5;x++){									
 3941              		.loc 1 844 0 is_stmt 0 discriminator 1
 3942 14b8 8F4B     		ldr	r3, .L631+32
 3943 14ba 1B68     		ldr	r3, [r3]
 3944 14bc 052B     		cmp	r3, #5
 3945 14be F2D9     		bls	.L283
 846:.\protocolo.c **** 					    }
 847:.\protocolo.c **** 					    write_psoc1(val,10);
 3946              		.loc 1 847 0 is_stmt 1
 3947 14c0 2046     		mov	r0, r4
 3948 14c2 0A21     		movs	r1, #10
 3949 14c4 FFF7FEFF 		bl	write_psoc1
 3950              	.LVL291:
 848:.\protocolo.c ****                         for(x=0;x<=10;x++){									
ARM GAS  C:\Users\diego\AppData\Local\Temp\ccNdDNY6.s 			page 89


 3951              		.loc 1 848 0
 3952 14c8 0022     		movs	r2, #0
 3953 14ca 8B4B     		ldr	r3, .L631+32
 3954 14cc 1A60     		str	r2, [r3]
 3955 14ce 08E0     		b	.L284
 3956              	.L285:
 849:.\protocolo.c **** 						    write_psoc1(val,producto2n[x]);
 3957              		.loc 1 849 0 discriminator 3
 3958 14d0 2046     		mov	r0, r4
 3959 14d2 8B4A     		ldr	r2, .L631+40
 3960 14d4 D15C     		ldrb	r1, [r2, r3]	@ zero_extendqisi2
 3961 14d6 FFF7FEFF 		bl	write_psoc1
 3962              	.LVL292:
 848:.\protocolo.c ****                         for(x=0;x<=10;x++){									
 3963              		.loc 1 848 0 discriminator 3
 3964 14da 874A     		ldr	r2, .L631+32
 3965 14dc 1368     		ldr	r3, [r2]
 3966 14de 0133     		adds	r3, r3, #1
 3967 14e0 1360     		str	r3, [r2]
 3968              	.L284:
 848:.\protocolo.c ****                         for(x=0;x<=10;x++){									
 3969              		.loc 1 848 0 is_stmt 0 discriminator 1
 3970 14e2 854B     		ldr	r3, .L631+32
 3971 14e4 1B68     		ldr	r3, [r3]
 3972 14e6 0A2B     		cmp	r3, #10
 3973 14e8 F2D9     		bls	.L285
 850:.\protocolo.c **** 					    }
 851:.\protocolo.c ****                         write_psoc1(val,10);
 3974              		.loc 1 851 0 is_stmt 1
 3975 14ea 2046     		mov	r0, r4
 3976 14ec 0A21     		movs	r1, #10
 3977 14ee FFF7FEFF 		bl	write_psoc1
 3978              	.LVL293:
 852:.\protocolo.c **** 						for(x=0;x<=14;x++){									
 3979              		.loc 1 852 0
 3980 14f2 0022     		movs	r2, #0
 3981 14f4 804B     		ldr	r3, .L631+32
 3982 14f6 1A60     		str	r2, [r3]
 3983 14f8 09E0     		b	.L286
 3984              	.L287:
 853:.\protocolo.c **** 							write_psoc1(val,msn_lecact[x]);				//LECTURA ACTUAL
 3985              		.loc 1 853 0 discriminator 3
 3986 14fa 804A     		ldr	r2, .L631+36
 3987 14fc 1344     		add	r3, r3, r2
 3988 14fe 2046     		mov	r0, r4
 3989 1500 197A     		ldrb	r1, [r3, #8]	@ zero_extendqisi2
 3990 1502 FFF7FEFF 		bl	write_psoc1
 3991              	.LVL294:
 852:.\protocolo.c **** 						for(x=0;x<=14;x++){									
 3992              		.loc 1 852 0 discriminator 3
 3993 1506 7C4A     		ldr	r2, .L631+32
 3994 1508 1368     		ldr	r3, [r2]
 3995 150a 0133     		adds	r3, r3, #1
 3996 150c 1360     		str	r3, [r2]
 3997              	.L286:
 852:.\protocolo.c **** 						for(x=0;x<=14;x++){									
 3998              		.loc 1 852 0 is_stmt 0 discriminator 1
ARM GAS  C:\Users\diego\AppData\Local\Temp\ccNdDNY6.s 			page 90


 3999 150e 7A4B     		ldr	r3, .L631+32
 4000 1510 1B68     		ldr	r3, [r3]
 4001 1512 0E2B     		cmp	r3, #14
 4002 1514 F1D9     		bls	.L287
 854:.\protocolo.c **** 						}
 855:.\protocolo.c **** 						write_psoc1(val,10);
 4003              		.loc 1 855 0 is_stmt 1
 4004 1516 2046     		mov	r0, r4
 4005 1518 0A21     		movs	r1, #10
 4006 151a FFF7FEFF 		bl	write_psoc1
 4007              	.LVL295:
 856:.\protocolo.c **** 						print_totalesac(8,val);	
 4008              		.loc 1 856 0
 4009 151e 0820     		movs	r0, #8
 4010 1520 2146     		mov	r1, r4
 4011 1522 FFF7FEFF 		bl	print_totalesac
 4012              	.LVL296:
 857:.\protocolo.c **** 						for(x=0;x<=16;x++){												
 4013              		.loc 1 857 0
 4014 1526 0022     		movs	r2, #0
 4015 1528 734B     		ldr	r3, .L631+32
 4016 152a 1A60     		str	r2, [r3]
 4017 152c 09E0     		b	.L288
 4018              	.L289:
 858:.\protocolo.c **** 							write_psoc1(val,msn_lecaan[x]);				//LECTURA ANTERIOR
 4019              		.loc 1 858 0 discriminator 3
 4020 152e 734A     		ldr	r2, .L631+36
 4021 1530 1344     		add	r3, r3, r2
 4022 1532 2046     		mov	r0, r4
 4023 1534 197E     		ldrb	r1, [r3, #24]	@ zero_extendqisi2
 4024 1536 FFF7FEFF 		bl	write_psoc1
 4025              	.LVL297:
 857:.\protocolo.c **** 						for(x=0;x<=16;x++){												
 4026              		.loc 1 857 0 discriminator 3
 4027 153a 6F4A     		ldr	r2, .L631+32
 4028 153c 1368     		ldr	r3, [r2]
 4029 153e 0133     		adds	r3, r3, #1
 4030 1540 1360     		str	r3, [r2]
 4031              	.L288:
 857:.\protocolo.c **** 						for(x=0;x<=16;x++){												
 4032              		.loc 1 857 0 is_stmt 0 discriminator 1
 4033 1542 6D4B     		ldr	r3, .L631+32
 4034 1544 1B68     		ldr	r3, [r3]
 4035 1546 102B     		cmp	r3, #16
 4036 1548 F1D9     		bls	.L289
 859:.\protocolo.c **** 						}
 860:.\protocolo.c **** 						write_psoc1(val,10);
 4037              		.loc 1 860 0 is_stmt 1
 4038 154a 2046     		mov	r0, r4
 4039 154c 0A21     		movs	r1, #10
 4040 154e FFF7FEFF 		bl	write_psoc1
 4041              	.LVL298:
 861:.\protocolo.c **** 						if(dir==a.dir){
 4042              		.loc 1 861 0
 4043 1552 644B     		ldr	r3, .L631+12
 4044 1554 1B78     		ldrb	r3, [r3]	@ zero_extendqisi2
 4045 1556 AB42     		cmp	r3, r5
ARM GAS  C:\Users\diego\AppData\Local\Temp\ccNdDNY6.s 			page 91


 4046 1558 04D1     		bne	.L290
 862:.\protocolo.c **** 							leer_eeprom(217,25);
 4047              		.loc 1 862 0
 4048 155a D920     		movs	r0, #217
 4049 155c 1921     		movs	r1, #25
 4050 155e FFF7FEFF 		bl	leer_eeprom
 4051              	.LVL299:
 4052 1562 04E0     		b	.L291
 4053              	.L290:
 863:.\protocolo.c **** 						}
 864:.\protocolo.c **** 						else{
 865:.\protocolo.c **** 							leer_eeprom(320,25);
 4054              		.loc 1 865 0
 4055 1564 4FF4A070 		mov	r0, #320
 4056 1568 1921     		movs	r1, #25
 4057 156a FFF7FEFF 		bl	leer_eeprom
 4058              	.LVL300:
 4059              	.L291:
 866:.\protocolo.c **** 						}
 867:.\protocolo.c **** 						print_totales(val);
 4060              		.loc 1 867 0
 4061 156e 2046     		mov	r0, r4
 4062 1570 FFF7FEFF 		bl	print_totales
 4063              	.LVL301:
 868:.\protocolo.c **** 						for(z=1;z<=8;z++){
 4064              		.loc 1 868 0
 4065 1574 0122     		movs	r2, #1
 4066 1576 634B     		ldr	r3, .L631+44
 4067 1578 1A60     		str	r2, [r3]
 4068 157a 10E0     		b	.L292
 4069              	.L293:
 869:.\protocolo.c **** 							minuendo[z]=rventa.tdinero[z-1];
 4070              		.loc 1 869 0 discriminator 3
 4071 157c 624A     		ldr	r2, .L631+48
 4072 157e 1A44     		add	r2, r2, r3
 4073 1580 92F8CA10 		ldrb	r1, [r2, #202]	@ zero_extendqisi2
 4074 1584 10AA     		add	r2, sp, #64
 4075 1586 1A44     		add	r2, r2, r3
 4076 1588 02F82C1C 		strb	r1, [r2, #-44]
 870:.\protocolo.c **** 							sustraendo[z]=buffer_i2c[z+8];
 4077              		.loc 1 870 0 discriminator 3
 4078 158c 03F10801 		add	r1, r3, #8
 4079 1590 5E48     		ldr	r0, .L631+52
 4080 1592 415C     		ldrb	r1, [r0, r1]	@ zero_extendqisi2
 4081 1594 02F83C1C 		strb	r1, [r2, #-60]
 868:.\protocolo.c **** 						for(z=1;z<=8;z++){
 4082              		.loc 1 868 0 discriminator 3
 4083 1598 0133     		adds	r3, r3, #1
 4084 159a 5A4A     		ldr	r2, .L631+44
 4085 159c 1360     		str	r3, [r2]
 4086              	.L292:
 868:.\protocolo.c **** 						for(z=1;z<=8;z++){
 4087              		.loc 1 868 0 is_stmt 0 discriminator 1
 4088 159e 594B     		ldr	r3, .L631+44
 4089 15a0 1B68     		ldr	r3, [r3]
 4090 15a2 082B     		cmp	r3, #8
 4091 15a4 EAD9     		bls	.L293
ARM GAS  C:\Users\diego\AppData\Local\Temp\ccNdDNY6.s 			page 92


 871:.\protocolo.c **** 						}
 872:.\protocolo.c **** 						minuendo[0]=8;
 4092              		.loc 1 872 0 is_stmt 1
 4093 15a6 10A9     		add	r1, sp, #64
 4094 15a8 0823     		movs	r3, #8
 4095 15aa 01F82C3D 		strb	r3, [r1, #-44]!
 873:.\protocolo.c **** 						operacion(2,minuendo,sustraendo);
 4096              		.loc 1 873 0
 4097 15ae 0220     		movs	r0, #2
 4098 15b0 01AA     		add	r2, sp, #4
 4099 15b2 FFF7FEFF 		bl	operacion
 4100              	.LVL302:
 874:.\protocolo.c **** 						for(x=0;x<=17;x++){									
 4101              		.loc 1 874 0
 4102 15b6 0022     		movs	r2, #0
 4103 15b8 4F4B     		ldr	r3, .L631+32
 4104 15ba 1A60     		str	r2, [r3]
 4105 15bc 0AE0     		b	.L294
 4106              	.L295:
 875:.\protocolo.c **** 							write_psoc1(val,msn_tventas[x]);				//Total de ventas
 4107              		.loc 1 875 0 discriminator 3
 4108 15be 4F4A     		ldr	r2, .L631+36
 4109 15c0 1344     		add	r3, r3, r2
 4110 15c2 2046     		mov	r0, r4
 4111 15c4 93F82C10 		ldrb	r1, [r3, #44]	@ zero_extendqisi2
 4112 15c8 FFF7FEFF 		bl	write_psoc1
 4113              	.LVL303:
 874:.\protocolo.c **** 						for(x=0;x<=17;x++){									
 4114              		.loc 1 874 0 discriminator 3
 4115 15cc 4A4A     		ldr	r2, .L631+32
 4116 15ce 1368     		ldr	r3, [r2]
 4117 15d0 0133     		adds	r3, r3, #1
 4118 15d2 1360     		str	r3, [r2]
 4119              	.L294:
 874:.\protocolo.c **** 						for(x=0;x<=17;x++){									
 4120              		.loc 1 874 0 is_stmt 0 discriminator 1
 4121 15d4 484B     		ldr	r3, .L631+32
 4122 15d6 1B68     		ldr	r3, [r3]
 4123 15d8 112B     		cmp	r3, #17
 4124 15da F0D9     		bls	.L295
 876:.\protocolo.c **** 						}
 877:.\protocolo.c **** 						print_valor(resultado,val);				
 4125              		.loc 1 877 0 is_stmt 1
 4126 15dc 3E48     		ldr	r0, .L631
 4127 15de 2146     		mov	r1, r4
 4128 15e0 FFF7FEFF 		bl	print_valor
 4129              	.LVL304:
 878:.\protocolo.c **** 						if(dir==a.dir){
 4130              		.loc 1 878 0
 4131 15e4 3F4B     		ldr	r3, .L631+12
 4132 15e6 1B78     		ldrb	r3, [r3]	@ zero_extendqisi2
 4133 15e8 AB42     		cmp	r3, r5
 4134 15ea 09D1     		bne	.L296
 879:.\protocolo.c **** 							write_eeprom(217,corte);
 4135              		.loc 1 879 0
 4136 15ec D920     		movs	r0, #217
 4137 15ee 09A9     		add	r1, sp, #36
ARM GAS  C:\Users\diego\AppData\Local\Temp\ccNdDNY6.s 			page 93


 4138 15f0 FFF7FEFF 		bl	write_eeprom
 4139              	.LVL305:
 880:.\protocolo.c **** 							write_eeprom(538,resultado);
 4140              		.loc 1 880 0
 4141 15f4 40F21A20 		movw	r0, #538
 4142 15f8 3749     		ldr	r1, .L631
 4143 15fa FFF7FEFF 		bl	write_eeprom
 4144              	.LVL306:
 4145 15fe 09E0     		b	.L281
 4146              	.L296:
 881:.\protocolo.c **** 						}
 882:.\protocolo.c **** 						else{
 883:.\protocolo.c **** 							write_eeprom(320,corte);
 4147              		.loc 1 883 0
 4148 1600 4FF4A070 		mov	r0, #320
 4149 1604 09A9     		add	r1, sp, #36
 4150 1606 FFF7FEFF 		bl	write_eeprom
 4151              	.LVL307:
 884:.\protocolo.c **** 							write_eeprom(576,resultado);
 4152              		.loc 1 884 0
 4153 160a 4FF41070 		mov	r0, #576
 4154 160e 3249     		ldr	r1, .L631
 4155 1610 FFF7FEFF 		bl	write_eeprom
 4156              	.LVL308:
 4157              	.L281:
 885:.\protocolo.c **** 						}				
 886:.\protocolo.c **** 					}
 887:.\protocolo.c **** 					if(((rventa.manguera==(producto3&0x0F))&&(dir==a.dir))||((rventa.manguera==(producto3b&0x0F))&
 4158              		.loc 1 887 0
 4159 1614 314B     		ldr	r3, .L631+4
 4160 1616 93F8E020 		ldrb	r2, [r3, #224]	@ zero_extendqisi2
 4161 161a 3D4B     		ldr	r3, .L631+56
 4162 161c 1B78     		ldrb	r3, [r3]	@ zero_extendqisi2
 4163 161e 03F00F03 		and	r3, r3, #15
 4164 1622 9342     		cmp	r3, r2
 4165 1624 03D1     		bne	.L297
 4166              		.loc 1 887 0 is_stmt 0 discriminator 1
 4167 1626 2F4B     		ldr	r3, .L631+12
 4168 1628 1B78     		ldrb	r3, [r3]	@ zero_extendqisi2
 4169 162a AB42     		cmp	r3, r5
 4170 162c 0BD0     		beq	.L298
 4171              	.L297:
 4172              		.loc 1 887 0 discriminator 3
 4173 162e 394B     		ldr	r3, .L631+60
 4174 1630 1B78     		ldrb	r3, [r3]	@ zero_extendqisi2
 4175 1632 03F00F03 		and	r3, r3, #15
 4176 1636 9A42     		cmp	r2, r3
 4177 1638 40F0E580 		bne	.L299
 4178              		.loc 1 887 0 discriminator 4
 4179 163c 2B4B     		ldr	r3, .L631+20
 4180 163e 1B78     		ldrb	r3, [r3]	@ zero_extendqisi2
 4181 1640 AB42     		cmp	r3, r5
 4182 1642 40F0E080 		bne	.L299
 4183              	.L298:
 888:.\protocolo.c **** 						for(x=0;x<=5;x++){									
 4184              		.loc 1 888 0 is_stmt 1
 4185 1646 0022     		movs	r2, #0
ARM GAS  C:\Users\diego\AppData\Local\Temp\ccNdDNY6.s 			page 94


 4186 1648 2B4B     		ldr	r3, .L631+32
 4187 164a 1A60     		str	r2, [r3]
 4188 164c 08E0     		b	.L300
 4189              	.L301:
 889:.\protocolo.c **** 						    write_psoc1(val,msn_tc[x]);
 4190              		.loc 1 889 0 discriminator 3
 4191 164e 2046     		mov	r0, r4
 4192 1650 2A4A     		ldr	r2, .L631+36
 4193 1652 D15C     		ldrb	r1, [r2, r3]	@ zero_extendqisi2
 4194 1654 FFF7FEFF 		bl	write_psoc1
 4195              	.LVL309:
 888:.\protocolo.c **** 						for(x=0;x<=5;x++){									
 4196              		.loc 1 888 0 discriminator 3
 4197 1658 274A     		ldr	r2, .L631+32
 4198 165a 1368     		ldr	r3, [r2]
 4199 165c 0133     		adds	r3, r3, #1
 4200 165e 1360     		str	r3, [r2]
 4201              	.L300:
 888:.\protocolo.c **** 						for(x=0;x<=5;x++){									
 4202              		.loc 1 888 0 is_stmt 0 discriminator 1
 4203 1660 254B     		ldr	r3, .L631+32
 4204 1662 1B68     		ldr	r3, [r3]
 4205 1664 052B     		cmp	r3, #5
 4206 1666 F2D9     		bls	.L301
 890:.\protocolo.c **** 					    }
 891:.\protocolo.c **** 					    write_psoc1(val,10);
 4207              		.loc 1 891 0 is_stmt 1
 4208 1668 2046     		mov	r0, r4
 4209 166a 0A21     		movs	r1, #10
 4210 166c FFF7FEFF 		bl	write_psoc1
 4211              	.LVL310:
 892:.\protocolo.c ****                         for(x=0;x<=10;x++){									
 4212              		.loc 1 892 0
 4213 1670 0022     		movs	r2, #0
 4214 1672 214B     		ldr	r3, .L631+32
 4215 1674 1A60     		str	r2, [r3]
 4216 1676 08E0     		b	.L302
 4217              	.L303:
 893:.\protocolo.c **** 						    write_psoc1(val,producto3n[x]);
 4218              		.loc 1 893 0 discriminator 3
 4219 1678 2046     		mov	r0, r4
 4220 167a 274A     		ldr	r2, .L631+64
 4221 167c D15C     		ldrb	r1, [r2, r3]	@ zero_extendqisi2
 4222 167e FFF7FEFF 		bl	write_psoc1
 4223              	.LVL311:
 892:.\protocolo.c ****                         for(x=0;x<=10;x++){									
 4224              		.loc 1 892 0 discriminator 3
 4225 1682 1D4A     		ldr	r2, .L631+32
 4226 1684 1368     		ldr	r3, [r2]
 4227 1686 0133     		adds	r3, r3, #1
 4228 1688 1360     		str	r3, [r2]
 4229              	.L302:
 892:.\protocolo.c ****                         for(x=0;x<=10;x++){									
 4230              		.loc 1 892 0 is_stmt 0 discriminator 1
 4231 168a 1B4B     		ldr	r3, .L631+32
 4232 168c 1B68     		ldr	r3, [r3]
 4233 168e 0A2B     		cmp	r3, #10
ARM GAS  C:\Users\diego\AppData\Local\Temp\ccNdDNY6.s 			page 95


 4234 1690 F2D9     		bls	.L303
 894:.\protocolo.c **** 					    }
 895:.\protocolo.c ****                         write_psoc1(val,10);
 4235              		.loc 1 895 0 is_stmt 1
 4236 1692 2046     		mov	r0, r4
 4237 1694 0A21     		movs	r1, #10
 4238 1696 FFF7FEFF 		bl	write_psoc1
 4239              	.LVL312:
 896:.\protocolo.c **** 						for(x=0;x<=14;x++){									
 4240              		.loc 1 896 0
 4241 169a 0022     		movs	r2, #0
 4242 169c 164B     		ldr	r3, .L631+32
 4243 169e 1A60     		str	r2, [r3]
 4244 16a0 09E0     		b	.L304
 4245              	.L305:
 897:.\protocolo.c **** 							write_psoc1(val,msn_lecact[x]);				//LECTURA ACTUAL
 4246              		.loc 1 897 0 discriminator 3
 4247 16a2 164A     		ldr	r2, .L631+36
 4248 16a4 1344     		add	r3, r3, r2
 4249 16a6 2046     		mov	r0, r4
 4250 16a8 197A     		ldrb	r1, [r3, #8]	@ zero_extendqisi2
 4251 16aa FFF7FEFF 		bl	write_psoc1
 4252              	.LVL313:
 896:.\protocolo.c **** 						for(x=0;x<=14;x++){									
 4253              		.loc 1 896 0 discriminator 3
 4254 16ae 124A     		ldr	r2, .L631+32
 4255 16b0 1368     		ldr	r3, [r2]
 4256 16b2 0133     		adds	r3, r3, #1
 4257 16b4 1360     		str	r3, [r2]
 4258              	.L304:
 896:.\protocolo.c **** 						for(x=0;x<=14;x++){									
 4259              		.loc 1 896 0 is_stmt 0 discriminator 1
 4260 16b6 104B     		ldr	r3, .L631+32
 4261 16b8 1B68     		ldr	r3, [r3]
 4262 16ba 0E2B     		cmp	r3, #14
 4263 16bc F1D9     		bls	.L305
 898:.\protocolo.c **** 						}
 899:.\protocolo.c **** 						write_psoc1(val,10);
 4264              		.loc 1 899 0 is_stmt 1
 4265 16be 2046     		mov	r0, r4
 4266 16c0 0A21     		movs	r1, #10
 4267 16c2 FFF7FEFF 		bl	write_psoc1
 4268              	.LVL314:
 900:.\protocolo.c **** 						print_totalesac(8,val);	
 4269              		.loc 1 900 0
 4270 16c6 0820     		movs	r0, #8
 4271 16c8 2146     		mov	r1, r4
 4272 16ca FFF7FEFF 		bl	print_totalesac
 4273              	.LVL315:
 901:.\protocolo.c **** 						for(x=0;x<=16;x++){												
 4274              		.loc 1 901 0
 4275 16ce 0022     		movs	r2, #0
 4276 16d0 094B     		ldr	r3, .L631+32
 4277 16d2 1A60     		str	r2, [r3]
 4278 16d4 2CE0     		b	.L306
 4279              	.L632:
 4280 16d6 00BF     		.align	2
ARM GAS  C:\Users\diego\AppData\Local\Temp\ccNdDNY6.s 			page 96


 4281              	.L631:
 4282 16d8 00000000 		.word	resultado
 4283 16dc 00000000 		.word	rventa
 4284 16e0 00000000 		.word	producto2
 4285 16e4 00000000 		.word	a
 4286 16e8 00000000 		.word	producto2b
 4287 16ec 00000000 		.word	b
 4288 16f0 00000000 		.word	d
 4289 16f4 00000000 		.word	c
 4290 16f8 00000000 		.word	x
 4291 16fc 00000000 		.word	.LANCHOR1
 4292 1700 00000000 		.word	producto2n
 4293 1704 00000000 		.word	z
 4294 1708 FFFFFFFF 		.word	rventa-1
 4295 170c 00000000 		.word	buffer_i2c
 4296 1710 00000000 		.word	producto3
 4297 1714 00000000 		.word	producto3b
 4298 1718 00000000 		.word	producto3n
 4299              	.L307:
 902:.\protocolo.c **** 							write_psoc1(val,msn_lecaan[x]);				//LECTURA ANTERIOR
 4300              		.loc 1 902 0 discriminator 3
 4301 171c AC4A     		ldr	r2, .L633
 4302 171e 1344     		add	r3, r3, r2
 4303 1720 2046     		mov	r0, r4
 4304 1722 197E     		ldrb	r1, [r3, #24]	@ zero_extendqisi2
 4305 1724 FFF7FEFF 		bl	write_psoc1
 4306              	.LVL316:
 901:.\protocolo.c **** 						for(x=0;x<=16;x++){												
 4307              		.loc 1 901 0 discriminator 3
 4308 1728 AA4A     		ldr	r2, .L633+4
 4309 172a 1368     		ldr	r3, [r2]
 4310 172c 0133     		adds	r3, r3, #1
 4311 172e 1360     		str	r3, [r2]
 4312              	.L306:
 901:.\protocolo.c **** 						for(x=0;x<=16;x++){												
 4313              		.loc 1 901 0 is_stmt 0 discriminator 1
 4314 1730 A84B     		ldr	r3, .L633+4
 4315 1732 1B68     		ldr	r3, [r3]
 4316 1734 102B     		cmp	r3, #16
 4317 1736 F1D9     		bls	.L307
 903:.\protocolo.c **** 						}
 904:.\protocolo.c **** 						write_psoc1(val,10);
 4318              		.loc 1 904 0 is_stmt 1
 4319 1738 2046     		mov	r0, r4
 4320 173a 0A21     		movs	r1, #10
 4321 173c FFF7FEFF 		bl	write_psoc1
 4322              	.LVL317:
 905:.\protocolo.c **** 						if(dir==a.dir){
 4323              		.loc 1 905 0
 4324 1740 A54B     		ldr	r3, .L633+8
 4325 1742 1B78     		ldrb	r3, [r3]	@ zero_extendqisi2
 4326 1744 AB42     		cmp	r3, r5
 4327 1746 05D1     		bne	.L308
 906:.\protocolo.c **** 							leer_eeprom(256,25);
 4328              		.loc 1 906 0
 4329 1748 4FF48070 		mov	r0, #256
 4330 174c 1921     		movs	r1, #25
ARM GAS  C:\Users\diego\AppData\Local\Temp\ccNdDNY6.s 			page 97


 4331 174e FFF7FEFF 		bl	leer_eeprom
 4332              	.LVL318:
 4333 1752 04E0     		b	.L309
 4334              	.L308:
 907:.\protocolo.c **** 						}
 908:.\protocolo.c **** 						else{
 909:.\protocolo.c **** 							leer_eeprom(345,25);
 4335              		.loc 1 909 0
 4336 1754 40F25910 		movw	r0, #345
 4337 1758 1921     		movs	r1, #25
 4338 175a FFF7FEFF 		bl	leer_eeprom
 4339              	.LVL319:
 4340              	.L309:
 910:.\protocolo.c **** 						}
 911:.\protocolo.c **** 						print_totales(val);
 4341              		.loc 1 911 0
 4342 175e 2046     		mov	r0, r4
 4343 1760 FFF7FEFF 		bl	print_totales
 4344              	.LVL320:
 912:.\protocolo.c **** 						for(z=1;z<=8;z++){
 4345              		.loc 1 912 0
 4346 1764 0122     		movs	r2, #1
 4347 1766 9D4B     		ldr	r3, .L633+12
 4348 1768 1A60     		str	r2, [r3]
 4349 176a 10E0     		b	.L310
 4350              	.L311:
 913:.\protocolo.c **** 							minuendo[z]=rventa.tdinero[z-1];
 4351              		.loc 1 913 0 discriminator 3
 4352 176c 9C4A     		ldr	r2, .L633+16
 4353 176e 1A44     		add	r2, r2, r3
 4354 1770 92F8CA10 		ldrb	r1, [r2, #202]	@ zero_extendqisi2
 4355 1774 10AA     		add	r2, sp, #64
 4356 1776 1A44     		add	r2, r2, r3
 4357 1778 02F82C1C 		strb	r1, [r2, #-44]
 914:.\protocolo.c **** 							sustraendo[z]=buffer_i2c[z+8];
 4358              		.loc 1 914 0 discriminator 3
 4359 177c 03F10801 		add	r1, r3, #8
 4360 1780 9848     		ldr	r0, .L633+20
 4361 1782 415C     		ldrb	r1, [r0, r1]	@ zero_extendqisi2
 4362 1784 02F83C1C 		strb	r1, [r2, #-60]
 912:.\protocolo.c **** 						for(z=1;z<=8;z++){
 4363              		.loc 1 912 0 discriminator 3
 4364 1788 0133     		adds	r3, r3, #1
 4365 178a 944A     		ldr	r2, .L633+12
 4366 178c 1360     		str	r3, [r2]
 4367              	.L310:
 912:.\protocolo.c **** 						for(z=1;z<=8;z++){
 4368              		.loc 1 912 0 is_stmt 0 discriminator 1
 4369 178e 934B     		ldr	r3, .L633+12
 4370 1790 1B68     		ldr	r3, [r3]
 4371 1792 082B     		cmp	r3, #8
 4372 1794 EAD9     		bls	.L311
 915:.\protocolo.c **** 						}
 916:.\protocolo.c **** 						minuendo[0]=8;
 4373              		.loc 1 916 0 is_stmt 1
 4374 1796 10A9     		add	r1, sp, #64
 4375 1798 0823     		movs	r3, #8
ARM GAS  C:\Users\diego\AppData\Local\Temp\ccNdDNY6.s 			page 98


 4376 179a 01F82C3D 		strb	r3, [r1, #-44]!
 917:.\protocolo.c **** 						operacion(2,minuendo,sustraendo);
 4377              		.loc 1 917 0
 4378 179e 0220     		movs	r0, #2
 4379 17a0 01AA     		add	r2, sp, #4
 4380 17a2 FFF7FEFF 		bl	operacion
 4381              	.LVL321:
 918:.\protocolo.c **** 						for(x=0;x<=17;x++){									
 4382              		.loc 1 918 0
 4383 17a6 0022     		movs	r2, #0
 4384 17a8 8A4B     		ldr	r3, .L633+4
 4385 17aa 1A60     		str	r2, [r3]
 4386 17ac 0AE0     		b	.L312
 4387              	.L313:
 919:.\protocolo.c **** 							write_psoc1(val,msn_tventas[x]);				//Total de ventas
 4388              		.loc 1 919 0 discriminator 3
 4389 17ae 884A     		ldr	r2, .L633
 4390 17b0 1344     		add	r3, r3, r2
 4391 17b2 2046     		mov	r0, r4
 4392 17b4 93F82C10 		ldrb	r1, [r3, #44]	@ zero_extendqisi2
 4393 17b8 FFF7FEFF 		bl	write_psoc1
 4394              	.LVL322:
 918:.\protocolo.c **** 						for(x=0;x<=17;x++){									
 4395              		.loc 1 918 0 discriminator 3
 4396 17bc 854A     		ldr	r2, .L633+4
 4397 17be 1368     		ldr	r3, [r2]
 4398 17c0 0133     		adds	r3, r3, #1
 4399 17c2 1360     		str	r3, [r2]
 4400              	.L312:
 918:.\protocolo.c **** 						for(x=0;x<=17;x++){									
 4401              		.loc 1 918 0 is_stmt 0 discriminator 1
 4402 17c4 834B     		ldr	r3, .L633+4
 4403 17c6 1B68     		ldr	r3, [r3]
 4404 17c8 112B     		cmp	r3, #17
 4405 17ca F0D9     		bls	.L313
 920:.\protocolo.c **** 						}
 921:.\protocolo.c **** 						print_valor(resultado,val);							
 4406              		.loc 1 921 0 is_stmt 1
 4407 17cc 8648     		ldr	r0, .L633+24
 4408 17ce 2146     		mov	r1, r4
 4409 17d0 FFF7FEFF 		bl	print_valor
 4410              	.LVL323:
 922:.\protocolo.c **** 						if(dir==a.dir){
 4411              		.loc 1 922 0
 4412 17d4 804B     		ldr	r3, .L633+8
 4413 17d6 1B78     		ldrb	r3, [r3]	@ zero_extendqisi2
 4414 17d8 AB42     		cmp	r3, r5
 4415 17da 0AD1     		bne	.L314
 923:.\protocolo.c **** 							write_eeprom(256,corte);
 4416              		.loc 1 923 0
 4417 17dc 4FF48070 		mov	r0, #256
 4418 17e0 09A9     		add	r1, sp, #36
 4419 17e2 FFF7FEFF 		bl	write_eeprom
 4420              	.LVL324:
 924:.\protocolo.c **** 							write_eeprom(525,resultado);
 4421              		.loc 1 924 0
 4422 17e6 40F20D20 		movw	r0, #525
ARM GAS  C:\Users\diego\AppData\Local\Temp\ccNdDNY6.s 			page 99


 4423 17ea 7F49     		ldr	r1, .L633+24
 4424 17ec FFF7FEFF 		bl	write_eeprom
 4425              	.LVL325:
 4426 17f0 09E0     		b	.L299
 4427              	.L314:
 925:.\protocolo.c **** 						}
 926:.\protocolo.c **** 						else{
 927:.\protocolo.c **** 							write_eeprom(345,corte);
 4428              		.loc 1 927 0
 4429 17f2 40F25910 		movw	r0, #345
 4430 17f6 09A9     		add	r1, sp, #36
 4431 17f8 FFF7FEFF 		bl	write_eeprom
 4432              	.LVL326:
 928:.\protocolo.c **** 							write_eeprom(589,resultado);
 4433              		.loc 1 928 0
 4434 17fc 40F24D20 		movw	r0, #589
 4435 1800 7949     		ldr	r1, .L633+24
 4436 1802 FFF7FEFF 		bl	write_eeprom
 4437              	.LVL327:
 4438              	.L299:
 929:.\protocolo.c **** 						}					
 930:.\protocolo.c **** 					}
 931:.\protocolo.c ****                     
 932:.\protocolo.c ****                     if(((rventa.manguera==(producto4&0x0F))&&(dir==a.dir))||((rventa.manguera==(pro
 4439              		.loc 1 932 0
 4440 1806 794B     		ldr	r3, .L633+28
 4441 1808 93F8E020 		ldrb	r2, [r3, #224]	@ zero_extendqisi2
 4442 180c 784B     		ldr	r3, .L633+32
 4443 180e 1B78     		ldrb	r3, [r3]	@ zero_extendqisi2
 4444 1810 03F00F03 		and	r3, r3, #15
 4445 1814 9342     		cmp	r3, r2
 4446 1816 03D1     		bne	.L315
 4447              		.loc 1 932 0 is_stmt 0 discriminator 1
 4448 1818 6F4B     		ldr	r3, .L633+8
 4449 181a 1B78     		ldrb	r3, [r3]	@ zero_extendqisi2
 4450 181c AB42     		cmp	r3, r5
 4451 181e 0BD0     		beq	.L316
 4452              	.L315:
 4453              		.loc 1 932 0 discriminator 3
 4454 1820 744B     		ldr	r3, .L633+36
 4455 1822 1B78     		ldrb	r3, [r3]	@ zero_extendqisi2
 4456 1824 03F00F03 		and	r3, r3, #15
 4457 1828 9A42     		cmp	r2, r3
 4458 182a 40F0C280 		bne	.L317
 4459              		.loc 1 932 0 discriminator 4
 4460 182e 724B     		ldr	r3, .L633+40
 4461 1830 1B78     		ldrb	r3, [r3]	@ zero_extendqisi2
 4462 1832 AB42     		cmp	r3, r5
 4463 1834 40F0BD80 		bne	.L317
 4464              	.L316:
 933:.\protocolo.c **** 						for(x=0;x<=5;x++){									
 4465              		.loc 1 933 0 is_stmt 1
 4466 1838 0022     		movs	r2, #0
 4467 183a 664B     		ldr	r3, .L633+4
 4468 183c 1A60     		str	r2, [r3]
 4469 183e 08E0     		b	.L318
 4470              	.L319:
ARM GAS  C:\Users\diego\AppData\Local\Temp\ccNdDNY6.s 			page 100


 934:.\protocolo.c **** 						    write_psoc1(val,msn_tc[x]);
 4471              		.loc 1 934 0 discriminator 3
 4472 1840 2046     		mov	r0, r4
 4473 1842 634A     		ldr	r2, .L633
 4474 1844 D15C     		ldrb	r1, [r2, r3]	@ zero_extendqisi2
 4475 1846 FFF7FEFF 		bl	write_psoc1
 4476              	.LVL328:
 933:.\protocolo.c **** 						for(x=0;x<=5;x++){									
 4477              		.loc 1 933 0 discriminator 3
 4478 184a 624A     		ldr	r2, .L633+4
 4479 184c 1368     		ldr	r3, [r2]
 4480 184e 0133     		adds	r3, r3, #1
 4481 1850 1360     		str	r3, [r2]
 4482              	.L318:
 933:.\protocolo.c **** 						for(x=0;x<=5;x++){									
 4483              		.loc 1 933 0 is_stmt 0 discriminator 1
 4484 1852 604B     		ldr	r3, .L633+4
 4485 1854 1B68     		ldr	r3, [r3]
 4486 1856 052B     		cmp	r3, #5
 4487 1858 F2D9     		bls	.L319
 935:.\protocolo.c **** 					    }
 936:.\protocolo.c **** 					    write_psoc1(val,10);
 4488              		.loc 1 936 0 is_stmt 1
 4489 185a 2046     		mov	r0, r4
 4490 185c 0A21     		movs	r1, #10
 4491 185e FFF7FEFF 		bl	write_psoc1
 4492              	.LVL329:
 937:.\protocolo.c ****                         for(x=0;x<=10;x++){									
 4493              		.loc 1 937 0
 4494 1862 0022     		movs	r2, #0
 4495 1864 5B4B     		ldr	r3, .L633+4
 4496 1866 1A60     		str	r2, [r3]
 4497 1868 08E0     		b	.L320
 4498              	.L321:
 938:.\protocolo.c **** 						    write_psoc1(val,producto4n[x]);
 4499              		.loc 1 938 0 discriminator 3
 4500 186a 2046     		mov	r0, r4
 4501 186c 634A     		ldr	r2, .L633+44
 4502 186e D15C     		ldrb	r1, [r2, r3]	@ zero_extendqisi2
 4503 1870 FFF7FEFF 		bl	write_psoc1
 4504              	.LVL330:
 937:.\protocolo.c ****                         for(x=0;x<=10;x++){									
 4505              		.loc 1 937 0 discriminator 3
 4506 1874 574A     		ldr	r2, .L633+4
 4507 1876 1368     		ldr	r3, [r2]
 4508 1878 0133     		adds	r3, r3, #1
 4509 187a 1360     		str	r3, [r2]
 4510              	.L320:
 937:.\protocolo.c ****                         for(x=0;x<=10;x++){									
 4511              		.loc 1 937 0 is_stmt 0 discriminator 1
 4512 187c 554B     		ldr	r3, .L633+4
 4513 187e 1B68     		ldr	r3, [r3]
 4514 1880 0A2B     		cmp	r3, #10
 4515 1882 F2D9     		bls	.L321
 939:.\protocolo.c **** 					    }
 940:.\protocolo.c ****                         write_psoc1(val,10);
 4516              		.loc 1 940 0 is_stmt 1
ARM GAS  C:\Users\diego\AppData\Local\Temp\ccNdDNY6.s 			page 101


 4517 1884 2046     		mov	r0, r4
 4518 1886 0A21     		movs	r1, #10
 4519 1888 FFF7FEFF 		bl	write_psoc1
 4520              	.LVL331:
 941:.\protocolo.c **** 						for(x=0;x<=14;x++){									
 4521              		.loc 1 941 0
 4522 188c 0022     		movs	r2, #0
 4523 188e 514B     		ldr	r3, .L633+4
 4524 1890 1A60     		str	r2, [r3]
 4525 1892 09E0     		b	.L322
 4526              	.L323:
 942:.\protocolo.c **** 							write_psoc1(val,msn_lecact[x]);				//LECTURA ACTUAL
 4527              		.loc 1 942 0 discriminator 3
 4528 1894 4E4A     		ldr	r2, .L633
 4529 1896 1344     		add	r3, r3, r2
 4530 1898 2046     		mov	r0, r4
 4531 189a 197A     		ldrb	r1, [r3, #8]	@ zero_extendqisi2
 4532 189c FFF7FEFF 		bl	write_psoc1
 4533              	.LVL332:
 941:.\protocolo.c **** 						for(x=0;x<=14;x++){									
 4534              		.loc 1 941 0 discriminator 3
 4535 18a0 4C4A     		ldr	r2, .L633+4
 4536 18a2 1368     		ldr	r3, [r2]
 4537 18a4 0133     		adds	r3, r3, #1
 4538 18a6 1360     		str	r3, [r2]
 4539              	.L322:
 941:.\protocolo.c **** 						for(x=0;x<=14;x++){									
 4540              		.loc 1 941 0 is_stmt 0 discriminator 1
 4541 18a8 4A4B     		ldr	r3, .L633+4
 4542 18aa 1B68     		ldr	r3, [r3]
 4543 18ac 0E2B     		cmp	r3, #14
 4544 18ae F1D9     		bls	.L323
 943:.\protocolo.c **** 						}
 944:.\protocolo.c **** 						write_psoc1(val,10);
 4545              		.loc 1 944 0 is_stmt 1
 4546 18b0 2046     		mov	r0, r4
 4547 18b2 0A21     		movs	r1, #10
 4548 18b4 FFF7FEFF 		bl	write_psoc1
 4549              	.LVL333:
 945:.\protocolo.c **** 						print_totalesac(8,val);	
 4550              		.loc 1 945 0
 4551 18b8 0820     		movs	r0, #8
 4552 18ba 2146     		mov	r1, r4
 4553 18bc FFF7FEFF 		bl	print_totalesac
 4554              	.LVL334:
 946:.\protocolo.c **** 						for(x=0;x<=16;x++){												
 4555              		.loc 1 946 0
 4556 18c0 0022     		movs	r2, #0
 4557 18c2 444B     		ldr	r3, .L633+4
 4558 18c4 1A60     		str	r2, [r3]
 4559 18c6 09E0     		b	.L324
 4560              	.L325:
 947:.\protocolo.c **** 							write_psoc1(val,msn_lecaan[x]);				//LECTURA ANTERIOR
 4561              		.loc 1 947 0 discriminator 3
 4562 18c8 414A     		ldr	r2, .L633
 4563 18ca 1344     		add	r3, r3, r2
 4564 18cc 2046     		mov	r0, r4
ARM GAS  C:\Users\diego\AppData\Local\Temp\ccNdDNY6.s 			page 102


 4565 18ce 197E     		ldrb	r1, [r3, #24]	@ zero_extendqisi2
 4566 18d0 FFF7FEFF 		bl	write_psoc1
 4567              	.LVL335:
 946:.\protocolo.c **** 						for(x=0;x<=16;x++){												
 4568              		.loc 1 946 0 discriminator 3
 4569 18d4 3F4A     		ldr	r2, .L633+4
 4570 18d6 1368     		ldr	r3, [r2]
 4571 18d8 0133     		adds	r3, r3, #1
 4572 18da 1360     		str	r3, [r2]
 4573              	.L324:
 946:.\protocolo.c **** 						for(x=0;x<=16;x++){												
 4574              		.loc 1 946 0 is_stmt 0 discriminator 1
 4575 18dc 3D4B     		ldr	r3, .L633+4
 4576 18de 1B68     		ldr	r3, [r3]
 4577 18e0 102B     		cmp	r3, #16
 4578 18e2 F1D9     		bls	.L325
 948:.\protocolo.c **** 						}
 949:.\protocolo.c **** 						write_psoc1(val,10);
 4579              		.loc 1 949 0 is_stmt 1
 4580 18e4 2046     		mov	r0, r4
 4581 18e6 0A21     		movs	r1, #10
 4582 18e8 FFF7FEFF 		bl	write_psoc1
 4583              	.LVL336:
 950:.\protocolo.c **** 						if(dir==a.dir){
 4584              		.loc 1 950 0
 4585 18ec 3A4B     		ldr	r3, .L633+8
 4586 18ee 1B78     		ldrb	r3, [r3]	@ zero_extendqisi2
 4587 18f0 AB42     		cmp	r3, r5
 4588 18f2 05D1     		bne	.L326
 951:.\protocolo.c **** 							leer_eeprom(1096,25);
 4589              		.loc 1 951 0
 4590 18f4 4FF48960 		mov	r0, #1096
 4591 18f8 1921     		movs	r1, #25
 4592 18fa FFF7FEFF 		bl	leer_eeprom
 4593              	.LVL337:
 4594 18fe 04E0     		b	.L327
 4595              	.L326:
 952:.\protocolo.c **** 						}
 953:.\protocolo.c **** 						else{
 954:.\protocolo.c **** 							leer_eeprom(1054,25);
 4596              		.loc 1 954 0
 4597 1900 40F21E40 		movw	r0, #1054
 4598 1904 1921     		movs	r1, #25
 4599 1906 FFF7FEFF 		bl	leer_eeprom
 4600              	.LVL338:
 4601              	.L327:
 955:.\protocolo.c **** 						}
 956:.\protocolo.c **** 						print_totales(val);
 4602              		.loc 1 956 0
 4603 190a 2046     		mov	r0, r4
 4604 190c FFF7FEFF 		bl	print_totales
 4605              	.LVL339:
 957:.\protocolo.c **** 						for(z=1;z<=8;z++){
 4606              		.loc 1 957 0
 4607 1910 0122     		movs	r2, #1
 4608 1912 324B     		ldr	r3, .L633+12
 4609 1914 1A60     		str	r2, [r3]
ARM GAS  C:\Users\diego\AppData\Local\Temp\ccNdDNY6.s 			page 103


 4610 1916 10E0     		b	.L328
 4611              	.L329:
 958:.\protocolo.c **** 							minuendo[z]=rventa.tdinero[z-1];
 4612              		.loc 1 958 0 discriminator 3
 4613 1918 314A     		ldr	r2, .L633+16
 4614 191a 1A44     		add	r2, r2, r3
 4615 191c 92F8CA10 		ldrb	r1, [r2, #202]	@ zero_extendqisi2
 4616 1920 10AA     		add	r2, sp, #64
 4617 1922 1A44     		add	r2, r2, r3
 4618 1924 02F82C1C 		strb	r1, [r2, #-44]
 959:.\protocolo.c **** 							sustraendo[z]=buffer_i2c[z+8];
 4619              		.loc 1 959 0 discriminator 3
 4620 1928 03F10801 		add	r1, r3, #8
 4621 192c 2D48     		ldr	r0, .L633+20
 4622 192e 415C     		ldrb	r1, [r0, r1]	@ zero_extendqisi2
 4623 1930 02F83C1C 		strb	r1, [r2, #-60]
 957:.\protocolo.c **** 						for(z=1;z<=8;z++){
 4624              		.loc 1 957 0 discriminator 3
 4625 1934 0133     		adds	r3, r3, #1
 4626 1936 294A     		ldr	r2, .L633+12
 4627 1938 1360     		str	r3, [r2]
 4628              	.L328:
 957:.\protocolo.c **** 						for(z=1;z<=8;z++){
 4629              		.loc 1 957 0 is_stmt 0 discriminator 1
 4630 193a 284B     		ldr	r3, .L633+12
 4631 193c 1B68     		ldr	r3, [r3]
 4632 193e 082B     		cmp	r3, #8
 4633 1940 EAD9     		bls	.L329
 960:.\protocolo.c **** 						}
 961:.\protocolo.c **** 						minuendo[0]=8;
 4634              		.loc 1 961 0 is_stmt 1
 4635 1942 10A9     		add	r1, sp, #64
 4636 1944 0823     		movs	r3, #8
 4637 1946 01F82C3D 		strb	r3, [r1, #-44]!
 962:.\protocolo.c **** 						operacion(2,minuendo,sustraendo);
 4638              		.loc 1 962 0
 4639 194a 0220     		movs	r0, #2
 4640 194c 01AA     		add	r2, sp, #4
 4641 194e FFF7FEFF 		bl	operacion
 4642              	.LVL340:
 963:.\protocolo.c **** 						for(x=0;x<=17;x++){									
 4643              		.loc 1 963 0
 4644 1952 0022     		movs	r2, #0
 4645 1954 1F4B     		ldr	r3, .L633+4
 4646 1956 1A60     		str	r2, [r3]
 4647 1958 0AE0     		b	.L330
 4648              	.L331:
 964:.\protocolo.c **** 							write_psoc1(val,msn_tventas[x]);				//Total de ventas
 4649              		.loc 1 964 0 discriminator 3
 4650 195a 1D4A     		ldr	r2, .L633
 4651 195c 1344     		add	r3, r3, r2
 4652 195e 2046     		mov	r0, r4
 4653 1960 93F82C10 		ldrb	r1, [r3, #44]	@ zero_extendqisi2
 4654 1964 FFF7FEFF 		bl	write_psoc1
 4655              	.LVL341:
 963:.\protocolo.c **** 						for(x=0;x<=17;x++){									
 4656              		.loc 1 963 0 discriminator 3
ARM GAS  C:\Users\diego\AppData\Local\Temp\ccNdDNY6.s 			page 104


 4657 1968 1A4A     		ldr	r2, .L633+4
 4658 196a 1368     		ldr	r3, [r2]
 4659 196c 0133     		adds	r3, r3, #1
 4660 196e 1360     		str	r3, [r2]
 4661              	.L330:
 963:.\protocolo.c **** 						for(x=0;x<=17;x++){									
 4662              		.loc 1 963 0 is_stmt 0 discriminator 1
 4663 1970 184B     		ldr	r3, .L633+4
 4664 1972 1B68     		ldr	r3, [r3]
 4665 1974 112B     		cmp	r3, #17
 4666 1976 F0D9     		bls	.L331
 965:.\protocolo.c **** 						}
 966:.\protocolo.c **** 						print_valor(resultado,val);							
 4667              		.loc 1 966 0 is_stmt 1
 4668 1978 1B48     		ldr	r0, .L633+24
 4669 197a 2146     		mov	r1, r4
 4670 197c FFF7FEFF 		bl	print_valor
 4671              	.LVL342:
 967:.\protocolo.c **** 						if(dir==a.dir){
 4672              		.loc 1 967 0
 4673 1980 154B     		ldr	r3, .L633+8
 4674 1982 1B78     		ldrb	r3, [r3]	@ zero_extendqisi2
 4675 1984 AB42     		cmp	r3, r5
 4676 1986 0AD1     		bne	.L332
 968:.\protocolo.c **** 						    write_eeprom(1096,corte);
 4677              		.loc 1 968 0
 4678 1988 4FF48960 		mov	r0, #1096
 4679 198c 09A9     		add	r1, sp, #36
 4680 198e FFF7FEFF 		bl	write_eeprom
 4681              	.LVL343:
 969:.\protocolo.c **** 						    write_eeprom(1038,resultado);
 4682              		.loc 1 969 0
 4683 1992 40F20E40 		movw	r0, #1038
 4684 1996 1449     		ldr	r1, .L633+24
 4685 1998 FFF7FEFF 		bl	write_eeprom
 4686              	.LVL344:
 4687 199c 09E0     		b	.L317
 4688              	.L332:
 970:.\protocolo.c **** 					    }
 971:.\protocolo.c **** 					    else{
 972:.\protocolo.c **** 						    write_eeprom(1054,corte);
 4689              		.loc 1 972 0
 4690 199e 40F21E40 		movw	r0, #1054
 4691 19a2 09A9     		add	r1, sp, #36
 4692 19a4 FFF7FEFF 		bl	write_eeprom
 4693              	.LVL345:
 973:.\protocolo.c **** 						    write_eeprom(1081,resultado);
 4694              		.loc 1 973 0
 4695 19a8 40F23940 		movw	r0, #1081
 4696 19ac 0E49     		ldr	r1, .L633+24
 4697 19ae FFF7FEFF 		bl	write_eeprom
 4698              	.LVL346:
 4699              	.L317:
 784:.\protocolo.c **** 					rventa.manguera=(Surtidor_rxBuffer[y+2]&0x0F)+1;
 4700              		.loc 1 784 0 discriminator 2
 4701 19b2 134A     		ldr	r2, .L633+48
 4702 19b4 1368     		ldr	r3, [r2]
ARM GAS  C:\Users\diego\AppData\Local\Temp\ccNdDNY6.s 			page 105


 4703 19b6 1E33     		adds	r3, r3, #30
 4704 19b8 1360     		str	r3, [r2]
 4705              	.L248:
 784:.\protocolo.c **** 					rventa.manguera=(Surtidor_rxBuffer[y+2]&0x0F)+1;
 4706              		.loc 1 784 0 is_stmt 0 discriminator 1
 4707 19ba 114B     		ldr	r3, .L633+48
 4708 19bc 1E68     		ldr	r6, [r3]
 4709 19be 3C2E     		cmp	r6, #60
 4710 19c0 7FF6ECAB 		bls	.L333
 974:.\protocolo.c **** 						}					
 975:.\protocolo.c **** 					}
 976:.\protocolo.c ****                     
 977:.\protocolo.c **** 				}
 978:.\protocolo.c **** 				Surtidor_ClearRxBuffer();
 4711              		.loc 1 978 0 is_stmt 1
 4712 19c4 FFF7FEFF 		bl	Surtidor_ClearRxBuffer
 4713              	.LVL347:
 979:.\protocolo.c **** 				return 3;					
 4714              		.loc 1 979 0
 4715 19c8 0320     		movs	r0, #3
 4716 19ca 01F053BD 		b	.L78
 4717              	.L634:
 4718 19ce 00BF     		.align	2
 4719              	.L633:
 4720 19d0 00000000 		.word	.LANCHOR1
 4721 19d4 00000000 		.word	x
 4722 19d8 00000000 		.word	a
 4723 19dc 00000000 		.word	z
 4724 19e0 FFFFFFFF 		.word	rventa-1
 4725 19e4 00000000 		.word	buffer_i2c
 4726 19e8 00000000 		.word	resultado
 4727 19ec 00000000 		.word	rventa
 4728 19f0 00000000 		.word	producto4
 4729 19f4 00000000 		.word	producto4b
 4730 19f8 00000000 		.word	b
 4731 19fc 00000000 		.word	producto4n
 4732 1a00 00000000 		.word	y
 4733              	.L74:
 980:.\protocolo.c **** 			}			
 981:.\protocolo.c **** 			else{
 982:.\protocolo.c **** 				return 0;
 983:.\protocolo.c **** 			}			
 984:.\protocolo.c **** 		break;
 985:.\protocolo.c **** 
 986:.\protocolo.c **** 		case 46:
 987:.\protocolo.c **** 			if((Surtidor_rxBuffer[0]==0xFF)&&(Surtidor_rxBuffer[1]==0xF6)&&(Surtidor_rxBuffer[45]==0xF0)&&(S
 4734              		.loc 1 987 0
 4735 1a04 A34B     		ldr	r3, .L635
 4736 1a06 1B78     		ldrb	r3, [r3]	@ zero_extendqisi2
 4737 1a08 DBB2     		uxtb	r3, r3
 4738 1a0a FF2B     		cmp	r3, #255
 4739 1a0c 41F01B85 		bne	.L604
 4740              		.loc 1 987 0 is_stmt 0 discriminator 1
 4741 1a10 A04B     		ldr	r3, .L635
 4742 1a12 5B78     		ldrb	r3, [r3, #1]	@ zero_extendqisi2
 4743 1a14 DBB2     		uxtb	r3, r3
 4744 1a16 F62B     		cmp	r3, #246
ARM GAS  C:\Users\diego\AppData\Local\Temp\ccNdDNY6.s 			page 106


 4745 1a18 41F01785 		bne	.L605
 4746              		.loc 1 987 0 discriminator 2
 4747 1a1c 9D4B     		ldr	r3, .L635
 4748 1a1e 93F82D30 		ldrb	r3, [r3, #45]	@ zero_extendqisi2
 4749 1a22 DBB2     		uxtb	r3, r3
 4750 1a24 F02B     		cmp	r3, #240
 4751 1a26 41F01285 		bne	.L606
 4752              		.loc 1 987 0 discriminator 3
 4753 1a2a 9A4B     		ldr	r3, .L635
 4754 1a2c DB78     		ldrb	r3, [r3, #3]	@ zero_extendqisi2
 4755 1a2e DBB2     		uxtb	r3, r3
 4756 1a30 F92B     		cmp	r3, #249
 4757 1a32 41F00E85 		bne	.L607
 988:.\protocolo.c **** 				rventa.manguera=(Surtidor_rxBuffer[2]&0xF0)+1;
 4758              		.loc 1 988 0 is_stmt 1
 4759 1a36 974B     		ldr	r3, .L635
 4760 1a38 9978     		ldrb	r1, [r3, #2]	@ zero_extendqisi2
 4761 1a3a 01F0F001 		and	r1, r1, #240
 4762 1a3e 0131     		adds	r1, r1, #1
 4763 1a40 C9B2     		uxtb	r1, r1
 4764 1a42 954B     		ldr	r3, .L635+4
 4765 1a44 83F8E010 		strb	r1, [r3, #224]
 989:.\protocolo.c **** 				for(x=0;x<=11;x++){
 4766              		.loc 1 989 0
 4767 1a48 0022     		movs	r2, #0
 4768 1a4a 944B     		ldr	r3, .L635+8
 4769 1a4c 1A60     		str	r2, [r3]
 4770 1a4e 0BE0     		b	.L334
 4771              	.L335:
 990:.\protocolo.c **** 					rventa.tvolumen[x]=(Surtidor_rxBuffer[x+4]&0x0F);
 4772              		.loc 1 990 0 discriminator 3
 4773 1a50 1A1D     		adds	r2, r3, #4
 4774 1a52 9048     		ldr	r0, .L635
 4775 1a54 805C     		ldrb	r0, [r0, r2]	@ zero_extendqisi2
 4776 1a56 904A     		ldr	r2, .L635+4
 4777 1a58 1A44     		add	r2, r2, r3
 4778 1a5a 00F00F00 		and	r0, r0, #15
 4779 1a5e 82F8BD00 		strb	r0, [r2, #189]
 989:.\protocolo.c **** 				for(x=0;x<=11;x++){
 4780              		.loc 1 989 0 discriminator 3
 4781 1a62 0133     		adds	r3, r3, #1
 4782 1a64 8D4A     		ldr	r2, .L635+8
 4783 1a66 1360     		str	r3, [r2]
 4784              	.L334:
 989:.\protocolo.c **** 				for(x=0;x<=11;x++){
 4785              		.loc 1 989 0 is_stmt 0 discriminator 1
 4786 1a68 8C4B     		ldr	r3, .L635+8
 4787 1a6a 1B68     		ldr	r3, [r3]
 4788 1a6c 0B2B     		cmp	r3, #11
 4789 1a6e EFD9     		bls	.L335
 991:.\protocolo.c **** 				}
 992:.\protocolo.c **** 				for(x=0;x<=11;x++){
 4790              		.loc 1 992 0 is_stmt 1
 4791 1a70 0022     		movs	r2, #0
 4792 1a72 8A4B     		ldr	r3, .L635+8
 4793 1a74 1A60     		str	r2, [r3]
 4794 1a76 0CE0     		b	.L336
ARM GAS  C:\Users\diego\AppData\Local\Temp\ccNdDNY6.s 			page 107


 4795              	.L337:
 993:.\protocolo.c **** 					rventa.tdinero[x]=(Surtidor_rxBuffer[x+17]&0x0F);
 4796              		.loc 1 993 0 discriminator 3
 4797 1a78 03F11102 		add	r2, r3, #17
 4798 1a7c 8548     		ldr	r0, .L635
 4799 1a7e 805C     		ldrb	r0, [r0, r2]	@ zero_extendqisi2
 4800 1a80 854A     		ldr	r2, .L635+4
 4801 1a82 1A44     		add	r2, r2, r3
 4802 1a84 00F00F00 		and	r0, r0, #15
 4803 1a88 82F8CA00 		strb	r0, [r2, #202]
 992:.\protocolo.c **** 					rventa.tdinero[x]=(Surtidor_rxBuffer[x+17]&0x0F);
 4804              		.loc 1 992 0 discriminator 3
 4805 1a8c 0133     		adds	r3, r3, #1
 4806 1a8e 834A     		ldr	r2, .L635+8
 4807 1a90 1360     		str	r3, [r2]
 4808              	.L336:
 992:.\protocolo.c **** 					rventa.tdinero[x]=(Surtidor_rxBuffer[x+17]&0x0F);
 4809              		.loc 1 992 0 is_stmt 0 discriminator 1
 4810 1a92 824B     		ldr	r3, .L635+8
 4811 1a94 1B68     		ldr	r3, [r3]
 4812 1a96 0B2B     		cmp	r3, #11
 4813 1a98 EED9     		bls	.L337
 994:.\protocolo.c **** 				}
 995:.\protocolo.c **** 				for(z=0;z<=11;z++){
 4814              		.loc 1 995 0 is_stmt 1
 4815 1a9a 0022     		movs	r2, #0
 4816 1a9c 804B     		ldr	r3, .L635+12
 4817 1a9e 1A60     		str	r2, [r3]
 4818 1aa0 0AE0     		b	.L338
 4819              	.L339:
 996:.\protocolo.c **** 					corte[z+1]=rventa.tvolumen[z];
 4820              		.loc 1 996 0 discriminator 3
 4821 1aa2 5A1C     		adds	r2, r3, #1
 4822 1aa4 7C48     		ldr	r0, .L635+4
 4823 1aa6 0344     		add	r3, r3, r0
 4824 1aa8 93F8BD00 		ldrb	r0, [r3, #189]	@ zero_extendqisi2
 4825 1aac 10AB     		add	r3, sp, #64
 4826 1aae 1344     		add	r3, r3, r2
 4827 1ab0 03F81C0C 		strb	r0, [r3, #-28]
 995:.\protocolo.c **** 					corte[z+1]=rventa.tvolumen[z];
 4828              		.loc 1 995 0 discriminator 3
 4829 1ab4 7A4B     		ldr	r3, .L635+12
 4830 1ab6 1A60     		str	r2, [r3]
 4831              	.L338:
 995:.\protocolo.c **** 					corte[z+1]=rventa.tvolumen[z];
 4832              		.loc 1 995 0 is_stmt 0 discriminator 1
 4833 1ab8 794B     		ldr	r3, .L635+12
 4834 1aba 1B68     		ldr	r3, [r3]
 4835 1abc 0B2B     		cmp	r3, #11
 4836 1abe F0D9     		bls	.L339
 997:.\protocolo.c **** 				}
 998:.\protocolo.c **** 				for(z=13;z<=24;z++){
 4837              		.loc 1 998 0 is_stmt 1
 4838 1ac0 0D22     		movs	r2, #13
 4839 1ac2 774B     		ldr	r3, .L635+12
 4840 1ac4 1A60     		str	r2, [r3]
 4841 1ac6 0AE0     		b	.L340
ARM GAS  C:\Users\diego\AppData\Local\Temp\ccNdDNY6.s 			page 108


 4842              	.L341:
 999:.\protocolo.c **** 					corte[z]=rventa.tdinero[z-13];
 4843              		.loc 1 999 0 discriminator 3
 4844 1ac8 764A     		ldr	r2, .L635+16
 4845 1aca 1A44     		add	r2, r2, r3
 4846 1acc 92F8CA00 		ldrb	r0, [r2, #202]	@ zero_extendqisi2
 4847 1ad0 10AA     		add	r2, sp, #64
 4848 1ad2 1A44     		add	r2, r2, r3
 4849 1ad4 02F81C0C 		strb	r0, [r2, #-28]
 998:.\protocolo.c **** 					corte[z]=rventa.tdinero[z-13];
 4850              		.loc 1 998 0 discriminator 3
 4851 1ad8 0133     		adds	r3, r3, #1
 4852 1ada 714A     		ldr	r2, .L635+12
 4853 1adc 1360     		str	r3, [r2]
 4854              	.L340:
 998:.\protocolo.c **** 					corte[z]=rventa.tdinero[z-13];
 4855              		.loc 1 998 0 is_stmt 0 discriminator 1
 4856 1ade 704B     		ldr	r3, .L635+12
 4857 1ae0 1B68     		ldr	r3, [r3]
 4858 1ae2 182B     		cmp	r3, #24
 4859 1ae4 F0D9     		bls	.L341
1000:.\protocolo.c **** 				}
1001:.\protocolo.c **** 				corte[0]=24;				
 4860              		.loc 1 1001 0 is_stmt 1
 4861 1ae6 1823     		movs	r3, #24
 4862 1ae8 8DF82430 		strb	r3, [sp, #36]
1002:.\protocolo.c **** 				if(((rventa.manguera==(producto1&0x0F))&&(dir==a.dir))||((rventa.manguera==(producto1b&0x0F))&&
 4863              		.loc 1 1002 0
 4864 1aec 6E4B     		ldr	r3, .L635+20
 4865 1aee 1A78     		ldrb	r2, [r3]	@ zero_extendqisi2
 4866 1af0 02F00F02 		and	r2, r2, #15
 4867 1af4 8A42     		cmp	r2, r1
 4868 1af6 03D1     		bne	.L342
 4869              		.loc 1 1002 0 is_stmt 0 discriminator 1
 4870 1af8 6C4B     		ldr	r3, .L635+24
 4871 1afa 1B78     		ldrb	r3, [r3]	@ zero_extendqisi2
 4872 1afc AB42     		cmp	r3, r5
 4873 1afe 17D0     		beq	.L343
 4874              	.L342:
 4875              		.loc 1 1002 0 discriminator 3
 4876 1b00 6B4B     		ldr	r3, .L635+28
 4877 1b02 1B78     		ldrb	r3, [r3]	@ zero_extendqisi2
 4878 1b04 03F00F03 		and	r3, r3, #15
 4879 1b08 9942     		cmp	r1, r3
 4880 1b0a 03D1     		bne	.L344
 4881              		.loc 1 1002 0 discriminator 4
 4882 1b0c 6948     		ldr	r0, .L635+32
 4883 1b0e 0078     		ldrb	r0, [r0]	@ zero_extendqisi2
 4884 1b10 A842     		cmp	r0, r5
 4885 1b12 0DD0     		beq	.L343
 4886              	.L344:
 4887              		.loc 1 1002 0 discriminator 6
 4888 1b14 8A42     		cmp	r2, r1
 4889 1b16 03D1     		bne	.L345
 4890              		.loc 1 1002 0 discriminator 7
 4891 1b18 674A     		ldr	r2, .L635+36
 4892 1b1a 1278     		ldrb	r2, [r2]	@ zero_extendqisi2
ARM GAS  C:\Users\diego\AppData\Local\Temp\ccNdDNY6.s 			page 109


 4893 1b1c AA42     		cmp	r2, r5
 4894 1b1e 07D0     		beq	.L343
 4895              	.L345:
 4896              		.loc 1 1002 0 discriminator 9
 4897 1b20 9942     		cmp	r1, r3
 4898 1b22 40F0E180 		bne	.L346
 4899              		.loc 1 1002 0 discriminator 10
 4900 1b26 654B     		ldr	r3, .L635+40
 4901 1b28 1B78     		ldrb	r3, [r3]	@ zero_extendqisi2
 4902 1b2a AB42     		cmp	r3, r5
 4903 1b2c 40F0DC80 		bne	.L346
 4904              	.L343:
1003:.\protocolo.c **** 					for(x=0;x<=5;x++){									
 4905              		.loc 1 1003 0 is_stmt 1
 4906 1b30 0022     		movs	r2, #0
 4907 1b32 5A4B     		ldr	r3, .L635+8
 4908 1b34 1A60     		str	r2, [r3]
 4909 1b36 08E0     		b	.L347
 4910              	.L348:
1004:.\protocolo.c **** 						write_psoc1(val,msn_tc[x]);
 4911              		.loc 1 1004 0 discriminator 3
 4912 1b38 2046     		mov	r0, r4
 4913 1b3a 614A     		ldr	r2, .L635+44
 4914 1b3c D15C     		ldrb	r1, [r2, r3]	@ zero_extendqisi2
 4915 1b3e FFF7FEFF 		bl	write_psoc1
 4916              	.LVL348:
1003:.\protocolo.c **** 					for(x=0;x<=5;x++){									
 4917              		.loc 1 1003 0 discriminator 3
 4918 1b42 564A     		ldr	r2, .L635+8
 4919 1b44 1368     		ldr	r3, [r2]
 4920 1b46 0133     		adds	r3, r3, #1
 4921 1b48 1360     		str	r3, [r2]
 4922              	.L347:
1003:.\protocolo.c **** 					for(x=0;x<=5;x++){									
 4923              		.loc 1 1003 0 is_stmt 0 discriminator 1
 4924 1b4a 544B     		ldr	r3, .L635+8
 4925 1b4c 1B68     		ldr	r3, [r3]
 4926 1b4e 052B     		cmp	r3, #5
 4927 1b50 F2D9     		bls	.L348
1005:.\protocolo.c **** 					}
1006:.\protocolo.c **** 					write_psoc1(val,10);
 4928              		.loc 1 1006 0 is_stmt 1
 4929 1b52 2046     		mov	r0, r4
 4930 1b54 0A21     		movs	r1, #10
 4931 1b56 FFF7FEFF 		bl	write_psoc1
 4932              	.LVL349:
1007:.\protocolo.c ****                     for(x=0;x<=10;x++){									
 4933              		.loc 1 1007 0
 4934 1b5a 0022     		movs	r2, #0
 4935 1b5c 4F4B     		ldr	r3, .L635+8
 4936 1b5e 1A60     		str	r2, [r3]
 4937 1b60 08E0     		b	.L349
 4938              	.L350:
1008:.\protocolo.c **** 						write_psoc1(val,producto1n[x]);
 4939              		.loc 1 1008 0 discriminator 3
 4940 1b62 2046     		mov	r0, r4
 4941 1b64 574A     		ldr	r2, .L635+48
ARM GAS  C:\Users\diego\AppData\Local\Temp\ccNdDNY6.s 			page 110


 4942 1b66 D15C     		ldrb	r1, [r2, r3]	@ zero_extendqisi2
 4943 1b68 FFF7FEFF 		bl	write_psoc1
 4944              	.LVL350:
1007:.\protocolo.c ****                     for(x=0;x<=10;x++){									
 4945              		.loc 1 1007 0 discriminator 3
 4946 1b6c 4B4A     		ldr	r2, .L635+8
 4947 1b6e 1368     		ldr	r3, [r2]
 4948 1b70 0133     		adds	r3, r3, #1
 4949 1b72 1360     		str	r3, [r2]
 4950              	.L349:
1007:.\protocolo.c ****                     for(x=0;x<=10;x++){									
 4951              		.loc 1 1007 0 is_stmt 0 discriminator 1
 4952 1b74 494B     		ldr	r3, .L635+8
 4953 1b76 1B68     		ldr	r3, [r3]
 4954 1b78 0A2B     		cmp	r3, #10
 4955 1b7a F2D9     		bls	.L350
1009:.\protocolo.c **** 					}
1010:.\protocolo.c ****                     write_psoc1(val,10);
 4956              		.loc 1 1010 0 is_stmt 1
 4957 1b7c 2046     		mov	r0, r4
 4958 1b7e 0A21     		movs	r1, #10
 4959 1b80 FFF7FEFF 		bl	write_psoc1
 4960              	.LVL351:
1011:.\protocolo.c **** 					for(x=0;x<=14;x++){									
 4961              		.loc 1 1011 0
 4962 1b84 0022     		movs	r2, #0
 4963 1b86 454B     		ldr	r3, .L635+8
 4964 1b88 1A60     		str	r2, [r3]
 4965 1b8a 09E0     		b	.L351
 4966              	.L352:
1012:.\protocolo.c **** 						write_psoc1(val,msn_lecact[x]);				//LECTURA ACTUAL
 4967              		.loc 1 1012 0 discriminator 3
 4968 1b8c 4C4A     		ldr	r2, .L635+44
 4969 1b8e 1344     		add	r3, r3, r2
 4970 1b90 2046     		mov	r0, r4
 4971 1b92 197A     		ldrb	r1, [r3, #8]	@ zero_extendqisi2
 4972 1b94 FFF7FEFF 		bl	write_psoc1
 4973              	.LVL352:
1011:.\protocolo.c **** 					for(x=0;x<=14;x++){									
 4974              		.loc 1 1011 0 discriminator 3
 4975 1b98 404A     		ldr	r2, .L635+8
 4976 1b9a 1368     		ldr	r3, [r2]
 4977 1b9c 0133     		adds	r3, r3, #1
 4978 1b9e 1360     		str	r3, [r2]
 4979              	.L351:
1011:.\protocolo.c **** 					for(x=0;x<=14;x++){									
 4980              		.loc 1 1011 0 is_stmt 0 discriminator 1
 4981 1ba0 3E4B     		ldr	r3, .L635+8
 4982 1ba2 1B68     		ldr	r3, [r3]
 4983 1ba4 0E2B     		cmp	r3, #14
 4984 1ba6 F1D9     		bls	.L352
1013:.\protocolo.c **** 					}
1014:.\protocolo.c **** 					write_psoc1(val,10);
 4985              		.loc 1 1014 0 is_stmt 1
 4986 1ba8 2046     		mov	r0, r4
 4987 1baa 0A21     		movs	r1, #10
 4988 1bac FFF7FEFF 		bl	write_psoc1
ARM GAS  C:\Users\diego\AppData\Local\Temp\ccNdDNY6.s 			page 111


 4989              	.LVL353:
1015:.\protocolo.c **** 					print_totalesac(12,val);	
 4990              		.loc 1 1015 0
 4991 1bb0 0C20     		movs	r0, #12
 4992 1bb2 2146     		mov	r1, r4
 4993 1bb4 FFF7FEFF 		bl	print_totalesac
 4994              	.LVL354:
1016:.\protocolo.c **** 					for(x=0;x<=16;x++){												
 4995              		.loc 1 1016 0
 4996 1bb8 0022     		movs	r2, #0
 4997 1bba 384B     		ldr	r3, .L635+8
 4998 1bbc 1A60     		str	r2, [r3]
 4999 1bbe 09E0     		b	.L353
 5000              	.L354:
1017:.\protocolo.c **** 						write_psoc1(val,msn_lecaan[x]);				//LECTURA ANTERIOR
 5001              		.loc 1 1017 0 discriminator 3
 5002 1bc0 3F4A     		ldr	r2, .L635+44
 5003 1bc2 1344     		add	r3, r3, r2
 5004 1bc4 2046     		mov	r0, r4
 5005 1bc6 197E     		ldrb	r1, [r3, #24]	@ zero_extendqisi2
 5006 1bc8 FFF7FEFF 		bl	write_psoc1
 5007              	.LVL355:
1016:.\protocolo.c **** 					for(x=0;x<=16;x++){												
 5008              		.loc 1 1016 0 discriminator 3
 5009 1bcc 334A     		ldr	r2, .L635+8
 5010 1bce 1368     		ldr	r3, [r2]
 5011 1bd0 0133     		adds	r3, r3, #1
 5012 1bd2 1360     		str	r3, [r2]
 5013              	.L353:
1016:.\protocolo.c **** 					for(x=0;x<=16;x++){												
 5014              		.loc 1 1016 0 is_stmt 0 discriminator 1
 5015 1bd4 314B     		ldr	r3, .L635+8
 5016 1bd6 1B68     		ldr	r3, [r3]
 5017 1bd8 102B     		cmp	r3, #16
 5018 1bda F1D9     		bls	.L354
1018:.\protocolo.c **** 					}
1019:.\protocolo.c **** 					write_psoc1(val,10);
 5019              		.loc 1 1019 0 is_stmt 1
 5020 1bdc 2046     		mov	r0, r4
 5021 1bde 0A21     		movs	r1, #10
 5022 1be0 FFF7FEFF 		bl	write_psoc1
 5023              	.LVL356:
1020:.\protocolo.c **** 					if(dir==a.dir){
 5024              		.loc 1 1020 0
 5025 1be4 314B     		ldr	r3, .L635+24
 5026 1be6 1B78     		ldrb	r3, [r3]	@ zero_extendqisi2
 5027 1be8 AB42     		cmp	r3, r5
 5028 1bea 04D1     		bne	.L355
1021:.\protocolo.c **** 						leer_eeprom(192,25);
 5029              		.loc 1 1021 0
 5030 1bec C020     		movs	r0, #192
 5031 1bee 1921     		movs	r1, #25
 5032 1bf0 FFF7FEFF 		bl	leer_eeprom
 5033              	.LVL357:
 5034 1bf4 04E0     		b	.L356
 5035              	.L355:
1022:.\protocolo.c **** 					}
ARM GAS  C:\Users\diego\AppData\Local\Temp\ccNdDNY6.s 			page 112


1023:.\protocolo.c **** 					else{
1024:.\protocolo.c **** 						leer_eeprom(281,25);
 5036              		.loc 1 1024 0
 5037 1bf6 40F21910 		movw	r0, #281
 5038 1bfa 1921     		movs	r1, #25
 5039 1bfc FFF7FEFF 		bl	leer_eeprom
 5040              	.LVL358:
 5041              	.L356:
1025:.\protocolo.c **** 					}
1026:.\protocolo.c **** 					print_totales(val);
 5042              		.loc 1 1026 0
 5043 1c00 2046     		mov	r0, r4
 5044 1c02 FFF7FEFF 		bl	print_totales
 5045              	.LVL359:
1027:.\protocolo.c **** 					for(z=1;z<=12;z++){
 5046              		.loc 1 1027 0
 5047 1c06 0122     		movs	r2, #1
 5048 1c08 254B     		ldr	r3, .L635+12
 5049 1c0a 1A60     		str	r2, [r3]
 5050 1c0c 10E0     		b	.L357
 5051              	.L358:
1028:.\protocolo.c **** 						minuendo[z]=rventa.tdinero[z-1];
 5052              		.loc 1 1028 0 discriminator 3
 5053 1c0e 2E4A     		ldr	r2, .L635+52
 5054 1c10 1A44     		add	r2, r2, r3
 5055 1c12 92F8CA10 		ldrb	r1, [r2, #202]	@ zero_extendqisi2
 5056 1c16 10AA     		add	r2, sp, #64
 5057 1c18 1A44     		add	r2, r2, r3
 5058 1c1a 02F82C1C 		strb	r1, [r2, #-44]
1029:.\protocolo.c **** 						sustraendo[z]=buffer_i2c[z+12];
 5059              		.loc 1 1029 0 discriminator 3
 5060 1c1e 03F10C01 		add	r1, r3, #12
 5061 1c22 2A48     		ldr	r0, .L635+56
 5062 1c24 415C     		ldrb	r1, [r0, r1]	@ zero_extendqisi2
 5063 1c26 02F83C1C 		strb	r1, [r2, #-60]
1027:.\protocolo.c **** 					for(z=1;z<=12;z++){
 5064              		.loc 1 1027 0 discriminator 3
 5065 1c2a 0133     		adds	r3, r3, #1
 5066 1c2c 1C4A     		ldr	r2, .L635+12
 5067 1c2e 1360     		str	r3, [r2]
 5068              	.L357:
1027:.\protocolo.c **** 					for(z=1;z<=12;z++){
 5069              		.loc 1 1027 0 is_stmt 0 discriminator 1
 5070 1c30 1B4B     		ldr	r3, .L635+12
 5071 1c32 1B68     		ldr	r3, [r3]
 5072 1c34 0C2B     		cmp	r3, #12
 5073 1c36 EAD9     		bls	.L358
1030:.\protocolo.c **** 					}
1031:.\protocolo.c **** 					minuendo[0]=12;
 5074              		.loc 1 1031 0 is_stmt 1
 5075 1c38 10A9     		add	r1, sp, #64
 5076 1c3a 0C23     		movs	r3, #12
 5077 1c3c 01F82C3D 		strb	r3, [r1, #-44]!
1032:.\protocolo.c **** 					operacion(2,minuendo,sustraendo);
 5078              		.loc 1 1032 0
 5079 1c40 0220     		movs	r0, #2
 5080 1c42 01AA     		add	r2, sp, #4
ARM GAS  C:\Users\diego\AppData\Local\Temp\ccNdDNY6.s 			page 113


 5081 1c44 FFF7FEFF 		bl	operacion
 5082              	.LVL360:
1033:.\protocolo.c **** 					for(x=0;x<=17;x++){									
 5083              		.loc 1 1033 0
 5084 1c48 0022     		movs	r2, #0
 5085 1c4a 144B     		ldr	r3, .L635+8
 5086 1c4c 1A60     		str	r2, [r3]
 5087 1c4e 0AE0     		b	.L359
 5088              	.L360:
1034:.\protocolo.c **** 						write_psoc1(val,msn_tventas[x]);				//Total de ventas
 5089              		.loc 1 1034 0 discriminator 3
 5090 1c50 1B4A     		ldr	r2, .L635+44
 5091 1c52 1344     		add	r3, r3, r2
 5092 1c54 2046     		mov	r0, r4
 5093 1c56 93F82C10 		ldrb	r1, [r3, #44]	@ zero_extendqisi2
 5094 1c5a FFF7FEFF 		bl	write_psoc1
 5095              	.LVL361:
1033:.\protocolo.c **** 					for(x=0;x<=17;x++){									
 5096              		.loc 1 1033 0 discriminator 3
 5097 1c5e 0F4A     		ldr	r2, .L635+8
 5098 1c60 1368     		ldr	r3, [r2]
 5099 1c62 0133     		adds	r3, r3, #1
 5100 1c64 1360     		str	r3, [r2]
 5101              	.L359:
1033:.\protocolo.c **** 					for(x=0;x<=17;x++){									
 5102              		.loc 1 1033 0 is_stmt 0 discriminator 1
 5103 1c66 0D4B     		ldr	r3, .L635+8
 5104 1c68 1B68     		ldr	r3, [r3]
 5105 1c6a 112B     		cmp	r3, #17
 5106 1c6c F0D9     		bls	.L360
1035:.\protocolo.c **** 					}
1036:.\protocolo.c **** 					print_valor(resultado,val);
 5107              		.loc 1 1036 0 is_stmt 1
 5108 1c6e 1848     		ldr	r0, .L635+60
 5109 1c70 2146     		mov	r1, r4
 5110 1c72 FFF7FEFF 		bl	print_valor
 5111              	.LVL362:
1037:.\protocolo.c **** 					if(dir==a.dir){
 5112              		.loc 1 1037 0
 5113 1c76 0D4B     		ldr	r3, .L635+24
 5114 1c78 1B78     		ldrb	r3, [r3]	@ zero_extendqisi2
 5115 1c7a AB42     		cmp	r3, r5
 5116 1c7c 2AD1     		bne	.L361
1038:.\protocolo.c **** 						write_eeprom(192,corte);	
 5117              		.loc 1 1038 0
 5118 1c7e C020     		movs	r0, #192
 5119 1c80 09A9     		add	r1, sp, #36
 5120 1c82 FFF7FEFF 		bl	write_eeprom
 5121              	.LVL363:
1039:.\protocolo.c **** 						write_eeprom(512,resultado);
 5122              		.loc 1 1039 0
 5123 1c86 4FF40070 		mov	r0, #512
 5124 1c8a 1149     		ldr	r1, .L635+60
 5125 1c8c FFF7FEFF 		bl	write_eeprom
 5126              	.LVL364:
 5127 1c90 2AE0     		b	.L346
 5128              	.L636:
ARM GAS  C:\Users\diego\AppData\Local\Temp\ccNdDNY6.s 			page 114


 5129 1c92 00BF     		.align	2
 5130              	.L635:
 5131 1c94 00000000 		.word	Surtidor_rxBuffer
 5132 1c98 00000000 		.word	rventa
 5133 1c9c 00000000 		.word	x
 5134 1ca0 00000000 		.word	z
 5135 1ca4 F3FFFFFF 		.word	rventa-13
 5136 1ca8 00000000 		.word	producto1
 5137 1cac 00000000 		.word	a
 5138 1cb0 00000000 		.word	producto1b
 5139 1cb4 00000000 		.word	b
 5140 1cb8 00000000 		.word	c
 5141 1cbc 00000000 		.word	d
 5142 1cc0 00000000 		.word	.LANCHOR1
 5143 1cc4 00000000 		.word	producto1n
 5144 1cc8 FFFFFFFF 		.word	rventa-1
 5145 1ccc 00000000 		.word	buffer_i2c
 5146 1cd0 00000000 		.word	resultado
 5147              	.L361:
1040:.\protocolo.c **** 					}
1041:.\protocolo.c **** 					else{
1042:.\protocolo.c **** 						write_eeprom(281,corte);
 5148              		.loc 1 1042 0
 5149 1cd4 40F21910 		movw	r0, #281
 5150 1cd8 09A9     		add	r1, sp, #36
 5151 1cda FFF7FEFF 		bl	write_eeprom
 5152              	.LVL365:
1043:.\protocolo.c **** 						write_eeprom(551,resultado);
 5153              		.loc 1 1043 0
 5154 1cde 40F22720 		movw	r0, #551
 5155 1ce2 A249     		ldr	r1, .L637
 5156 1ce4 FFF7FEFF 		bl	write_eeprom
 5157              	.LVL366:
 5158              	.L346:
1044:.\protocolo.c **** 					}
1045:.\protocolo.c **** 				}
1046:.\protocolo.c **** 				if(((rventa.manguera==(producto2&0x0F))&&(dir==a.dir))||((rventa.manguera==(producto2b&0x0F))&&
 5159              		.loc 1 1046 0
 5160 1ce8 A14B     		ldr	r3, .L637+4
 5161 1cea 93F8E030 		ldrb	r3, [r3, #224]	@ zero_extendqisi2
 5162 1cee A14A     		ldr	r2, .L637+8
 5163 1cf0 1278     		ldrb	r2, [r2]	@ zero_extendqisi2
 5164 1cf2 02F00F02 		and	r2, r2, #15
 5165 1cf6 9A42     		cmp	r2, r3
 5166 1cf8 03D1     		bne	.L362
 5167              		.loc 1 1046 0 is_stmt 0 discriminator 1
 5168 1cfa 9F49     		ldr	r1, .L637+12
 5169 1cfc 0978     		ldrb	r1, [r1]	@ zero_extendqisi2
 5170 1cfe A942     		cmp	r1, r5
 5171 1d00 17D0     		beq	.L363
 5172              	.L362:
 5173              		.loc 1 1046 0 discriminator 3
 5174 1d02 9E49     		ldr	r1, .L637+16
 5175 1d04 0978     		ldrb	r1, [r1]	@ zero_extendqisi2
 5176 1d06 01F00F01 		and	r1, r1, #15
 5177 1d0a 8B42     		cmp	r3, r1
 5178 1d0c 03D1     		bne	.L364
ARM GAS  C:\Users\diego\AppData\Local\Temp\ccNdDNY6.s 			page 115


 5179              		.loc 1 1046 0 discriminator 4
 5180 1d0e 9C48     		ldr	r0, .L637+20
 5181 1d10 0078     		ldrb	r0, [r0]	@ zero_extendqisi2
 5182 1d12 A842     		cmp	r0, r5
 5183 1d14 0DD0     		beq	.L363
 5184              	.L364:
 5185              		.loc 1 1046 0 discriminator 6
 5186 1d16 8B42     		cmp	r3, r1
 5187 1d18 03D1     		bne	.L365
 5188              		.loc 1 1046 0 discriminator 7
 5189 1d1a 9A49     		ldr	r1, .L637+24
 5190 1d1c 0978     		ldrb	r1, [r1]	@ zero_extendqisi2
 5191 1d1e A942     		cmp	r1, r5
 5192 1d20 07D0     		beq	.L363
 5193              	.L365:
 5194              		.loc 1 1046 0 discriminator 9
 5195 1d22 9A42     		cmp	r2, r3
 5196 1d24 40F0C080 		bne	.L366
 5197              		.loc 1 1046 0 discriminator 10
 5198 1d28 974B     		ldr	r3, .L637+28
 5199 1d2a 1B78     		ldrb	r3, [r3]	@ zero_extendqisi2
 5200 1d2c AB42     		cmp	r3, r5
 5201 1d2e 40F0BB80 		bne	.L366
 5202              	.L363:
1047:.\protocolo.c **** 					for(x=0;x<=5;x++){									
 5203              		.loc 1 1047 0 is_stmt 1
 5204 1d32 0022     		movs	r2, #0
 5205 1d34 954B     		ldr	r3, .L637+32
 5206 1d36 1A60     		str	r2, [r3]
 5207 1d38 08E0     		b	.L367
 5208              	.L368:
1048:.\protocolo.c **** 						    write_psoc1(val,msn_tc[x]);
 5209              		.loc 1 1048 0 discriminator 3
 5210 1d3a 2046     		mov	r0, r4
 5211 1d3c 944A     		ldr	r2, .L637+36
 5212 1d3e D15C     		ldrb	r1, [r2, r3]	@ zero_extendqisi2
 5213 1d40 FFF7FEFF 		bl	write_psoc1
 5214              	.LVL367:
1047:.\protocolo.c **** 					for(x=0;x<=5;x++){									
 5215              		.loc 1 1047 0 discriminator 3
 5216 1d44 914A     		ldr	r2, .L637+32
 5217 1d46 1368     		ldr	r3, [r2]
 5218 1d48 0133     		adds	r3, r3, #1
 5219 1d4a 1360     		str	r3, [r2]
 5220              	.L367:
1047:.\protocolo.c **** 					for(x=0;x<=5;x++){									
 5221              		.loc 1 1047 0 is_stmt 0 discriminator 1
 5222 1d4c 8F4B     		ldr	r3, .L637+32
 5223 1d4e 1B68     		ldr	r3, [r3]
 5224 1d50 052B     		cmp	r3, #5
 5225 1d52 F2D9     		bls	.L368
1049:.\protocolo.c **** 					    }
1050:.\protocolo.c **** 					    write_psoc1(val,10);
 5226              		.loc 1 1050 0 is_stmt 1
 5227 1d54 2046     		mov	r0, r4
 5228 1d56 0A21     		movs	r1, #10
 5229 1d58 FFF7FEFF 		bl	write_psoc1
ARM GAS  C:\Users\diego\AppData\Local\Temp\ccNdDNY6.s 			page 116


 5230              	.LVL368:
1051:.\protocolo.c ****                     for(x=0;x<=10;x++){									
 5231              		.loc 1 1051 0
 5232 1d5c 0022     		movs	r2, #0
 5233 1d5e 8B4B     		ldr	r3, .L637+32
 5234 1d60 1A60     		str	r2, [r3]
 5235 1d62 08E0     		b	.L369
 5236              	.L370:
1052:.\protocolo.c **** 						    write_psoc1(val,producto2n[x]);
 5237              		.loc 1 1052 0 discriminator 3
 5238 1d64 2046     		mov	r0, r4
 5239 1d66 8B4A     		ldr	r2, .L637+40
 5240 1d68 D15C     		ldrb	r1, [r2, r3]	@ zero_extendqisi2
 5241 1d6a FFF7FEFF 		bl	write_psoc1
 5242              	.LVL369:
1051:.\protocolo.c ****                     for(x=0;x<=10;x++){									
 5243              		.loc 1 1051 0 discriminator 3
 5244 1d6e 874A     		ldr	r2, .L637+32
 5245 1d70 1368     		ldr	r3, [r2]
 5246 1d72 0133     		adds	r3, r3, #1
 5247 1d74 1360     		str	r3, [r2]
 5248              	.L369:
1051:.\protocolo.c ****                     for(x=0;x<=10;x++){									
 5249              		.loc 1 1051 0 is_stmt 0 discriminator 1
 5250 1d76 854B     		ldr	r3, .L637+32
 5251 1d78 1B68     		ldr	r3, [r3]
 5252 1d7a 0A2B     		cmp	r3, #10
 5253 1d7c F2D9     		bls	.L370
1053:.\protocolo.c **** 					    }
1054:.\protocolo.c ****                     write_psoc1(val,10);
 5254              		.loc 1 1054 0 is_stmt 1
 5255 1d7e 2046     		mov	r0, r4
 5256 1d80 0A21     		movs	r1, #10
 5257 1d82 FFF7FEFF 		bl	write_psoc1
 5258              	.LVL370:
1055:.\protocolo.c **** 					for(x=0;x<=14;x++){									
 5259              		.loc 1 1055 0
 5260 1d86 0022     		movs	r2, #0
 5261 1d88 804B     		ldr	r3, .L637+32
 5262 1d8a 1A60     		str	r2, [r3]
 5263 1d8c 09E0     		b	.L371
 5264              	.L372:
1056:.\protocolo.c **** 						write_psoc1(val,msn_lecact[x]);				//LECTURA ACTUAL
 5265              		.loc 1 1056 0 discriminator 3
 5266 1d8e 804A     		ldr	r2, .L637+36
 5267 1d90 1344     		add	r3, r3, r2
 5268 1d92 2046     		mov	r0, r4
 5269 1d94 197A     		ldrb	r1, [r3, #8]	@ zero_extendqisi2
 5270 1d96 FFF7FEFF 		bl	write_psoc1
 5271              	.LVL371:
1055:.\protocolo.c **** 					for(x=0;x<=14;x++){									
 5272              		.loc 1 1055 0 discriminator 3
 5273 1d9a 7C4A     		ldr	r2, .L637+32
 5274 1d9c 1368     		ldr	r3, [r2]
 5275 1d9e 0133     		adds	r3, r3, #1
 5276 1da0 1360     		str	r3, [r2]
 5277              	.L371:
ARM GAS  C:\Users\diego\AppData\Local\Temp\ccNdDNY6.s 			page 117


1055:.\protocolo.c **** 					for(x=0;x<=14;x++){									
 5278              		.loc 1 1055 0 is_stmt 0 discriminator 1
 5279 1da2 7A4B     		ldr	r3, .L637+32
 5280 1da4 1B68     		ldr	r3, [r3]
 5281 1da6 0E2B     		cmp	r3, #14
 5282 1da8 F1D9     		bls	.L372
1057:.\protocolo.c **** 					}
1058:.\protocolo.c **** 					write_psoc1(val,10);
 5283              		.loc 1 1058 0 is_stmt 1
 5284 1daa 2046     		mov	r0, r4
 5285 1dac 0A21     		movs	r1, #10
 5286 1dae FFF7FEFF 		bl	write_psoc1
 5287              	.LVL372:
1059:.\protocolo.c **** 					print_totalesac(12,val);	
 5288              		.loc 1 1059 0
 5289 1db2 0C20     		movs	r0, #12
 5290 1db4 2146     		mov	r1, r4
 5291 1db6 FFF7FEFF 		bl	print_totalesac
 5292              	.LVL373:
1060:.\protocolo.c **** 					for(x=0;x<=16;x++){												
 5293              		.loc 1 1060 0
 5294 1dba 0022     		movs	r2, #0
 5295 1dbc 734B     		ldr	r3, .L637+32
 5296 1dbe 1A60     		str	r2, [r3]
 5297 1dc0 09E0     		b	.L373
 5298              	.L374:
1061:.\protocolo.c **** 						write_psoc1(val,msn_lecaan[x]);				//LECTURA ANTERIOR
 5299              		.loc 1 1061 0 discriminator 3
 5300 1dc2 734A     		ldr	r2, .L637+36
 5301 1dc4 1344     		add	r3, r3, r2
 5302 1dc6 2046     		mov	r0, r4
 5303 1dc8 197E     		ldrb	r1, [r3, #24]	@ zero_extendqisi2
 5304 1dca FFF7FEFF 		bl	write_psoc1
 5305              	.LVL374:
1060:.\protocolo.c **** 					for(x=0;x<=16;x++){												
 5306              		.loc 1 1060 0 discriminator 3
 5307 1dce 6F4A     		ldr	r2, .L637+32
 5308 1dd0 1368     		ldr	r3, [r2]
 5309 1dd2 0133     		adds	r3, r3, #1
 5310 1dd4 1360     		str	r3, [r2]
 5311              	.L373:
1060:.\protocolo.c **** 					for(x=0;x<=16;x++){												
 5312              		.loc 1 1060 0 is_stmt 0 discriminator 1
 5313 1dd6 6D4B     		ldr	r3, .L637+32
 5314 1dd8 1B68     		ldr	r3, [r3]
 5315 1dda 102B     		cmp	r3, #16
 5316 1ddc F1D9     		bls	.L374
1062:.\protocolo.c **** 					}
1063:.\protocolo.c **** 					write_psoc1(val,10);
 5317              		.loc 1 1063 0 is_stmt 1
 5318 1dde 2046     		mov	r0, r4
 5319 1de0 0A21     		movs	r1, #10
 5320 1de2 FFF7FEFF 		bl	write_psoc1
 5321              	.LVL375:
1064:.\protocolo.c **** 					if(dir==a.dir){
 5322              		.loc 1 1064 0
 5323 1de6 644B     		ldr	r3, .L637+12
ARM GAS  C:\Users\diego\AppData\Local\Temp\ccNdDNY6.s 			page 118


 5324 1de8 1B78     		ldrb	r3, [r3]	@ zero_extendqisi2
 5325 1dea AB42     		cmp	r3, r5
 5326 1dec 04D1     		bne	.L375
1065:.\protocolo.c **** 						leer_eeprom(217,25);
 5327              		.loc 1 1065 0
 5328 1dee D920     		movs	r0, #217
 5329 1df0 1921     		movs	r1, #25
 5330 1df2 FFF7FEFF 		bl	leer_eeprom
 5331              	.LVL376:
 5332 1df6 04E0     		b	.L376
 5333              	.L375:
1066:.\protocolo.c **** 					}
1067:.\protocolo.c **** 					else{
1068:.\protocolo.c **** 						leer_eeprom(320,25);
 5334              		.loc 1 1068 0
 5335 1df8 4FF4A070 		mov	r0, #320
 5336 1dfc 1921     		movs	r1, #25
 5337 1dfe FFF7FEFF 		bl	leer_eeprom
 5338              	.LVL377:
 5339              	.L376:
1069:.\protocolo.c **** 					}
1070:.\protocolo.c **** 					print_totales(val);
 5340              		.loc 1 1070 0
 5341 1e02 2046     		mov	r0, r4
 5342 1e04 FFF7FEFF 		bl	print_totales
 5343              	.LVL378:
1071:.\protocolo.c **** 					for(z=1;z<=12;z++){
 5344              		.loc 1 1071 0
 5345 1e08 0122     		movs	r2, #1
 5346 1e0a 634B     		ldr	r3, .L637+44
 5347 1e0c 1A60     		str	r2, [r3]
 5348 1e0e 10E0     		b	.L377
 5349              	.L378:
1072:.\protocolo.c **** 						minuendo[z]=rventa.tdinero[z-1];
 5350              		.loc 1 1072 0 discriminator 3
 5351 1e10 624A     		ldr	r2, .L637+48
 5352 1e12 1A44     		add	r2, r2, r3
 5353 1e14 92F8CA10 		ldrb	r1, [r2, #202]	@ zero_extendqisi2
 5354 1e18 10AA     		add	r2, sp, #64
 5355 1e1a 1A44     		add	r2, r2, r3
 5356 1e1c 02F82C1C 		strb	r1, [r2, #-44]
1073:.\protocolo.c **** 						sustraendo[z]=buffer_i2c[z+12];
 5357              		.loc 1 1073 0 discriminator 3
 5358 1e20 03F10C01 		add	r1, r3, #12
 5359 1e24 5E48     		ldr	r0, .L637+52
 5360 1e26 415C     		ldrb	r1, [r0, r1]	@ zero_extendqisi2
 5361 1e28 02F83C1C 		strb	r1, [r2, #-60]
1071:.\protocolo.c **** 					for(z=1;z<=12;z++){
 5362              		.loc 1 1071 0 discriminator 3
 5363 1e2c 0133     		adds	r3, r3, #1
 5364 1e2e 5A4A     		ldr	r2, .L637+44
 5365 1e30 1360     		str	r3, [r2]
 5366              	.L377:
1071:.\protocolo.c **** 					for(z=1;z<=12;z++){
 5367              		.loc 1 1071 0 is_stmt 0 discriminator 1
 5368 1e32 594B     		ldr	r3, .L637+44
 5369 1e34 1B68     		ldr	r3, [r3]
ARM GAS  C:\Users\diego\AppData\Local\Temp\ccNdDNY6.s 			page 119


 5370 1e36 0C2B     		cmp	r3, #12
 5371 1e38 EAD9     		bls	.L378
1074:.\protocolo.c **** 					}
1075:.\protocolo.c **** 					minuendo[0]=12;
 5372              		.loc 1 1075 0 is_stmt 1
 5373 1e3a 10A9     		add	r1, sp, #64
 5374 1e3c 0C23     		movs	r3, #12
 5375 1e3e 01F82C3D 		strb	r3, [r1, #-44]!
1076:.\protocolo.c **** 					operacion(2,minuendo,sustraendo);
 5376              		.loc 1 1076 0
 5377 1e42 0220     		movs	r0, #2
 5378 1e44 01AA     		add	r2, sp, #4
 5379 1e46 FFF7FEFF 		bl	operacion
 5380              	.LVL379:
1077:.\protocolo.c **** 					for(x=0;x<=17;x++){									
 5381              		.loc 1 1077 0
 5382 1e4a 0022     		movs	r2, #0
 5383 1e4c 4F4B     		ldr	r3, .L637+32
 5384 1e4e 1A60     		str	r2, [r3]
 5385 1e50 0AE0     		b	.L379
 5386              	.L380:
1078:.\protocolo.c **** 						write_psoc1(val,msn_tventas[x]);				//Total de ventas
 5387              		.loc 1 1078 0 discriminator 3
 5388 1e52 4F4A     		ldr	r2, .L637+36
 5389 1e54 1344     		add	r3, r3, r2
 5390 1e56 2046     		mov	r0, r4
 5391 1e58 93F82C10 		ldrb	r1, [r3, #44]	@ zero_extendqisi2
 5392 1e5c FFF7FEFF 		bl	write_psoc1
 5393              	.LVL380:
1077:.\protocolo.c **** 					for(x=0;x<=17;x++){									
 5394              		.loc 1 1077 0 discriminator 3
 5395 1e60 4A4A     		ldr	r2, .L637+32
 5396 1e62 1368     		ldr	r3, [r2]
 5397 1e64 0133     		adds	r3, r3, #1
 5398 1e66 1360     		str	r3, [r2]
 5399              	.L379:
1077:.\protocolo.c **** 					for(x=0;x<=17;x++){									
 5400              		.loc 1 1077 0 is_stmt 0 discriminator 1
 5401 1e68 484B     		ldr	r3, .L637+32
 5402 1e6a 1B68     		ldr	r3, [r3]
 5403 1e6c 112B     		cmp	r3, #17
 5404 1e6e F0D9     		bls	.L380
1079:.\protocolo.c **** 					}
1080:.\protocolo.c **** 					print_valor(resultado,val);				
 5405              		.loc 1 1080 0 is_stmt 1
 5406 1e70 3E48     		ldr	r0, .L637
 5407 1e72 2146     		mov	r1, r4
 5408 1e74 FFF7FEFF 		bl	print_valor
 5409              	.LVL381:
1081:.\protocolo.c **** 					if(dir==a.dir){
 5410              		.loc 1 1081 0
 5411 1e78 3F4B     		ldr	r3, .L637+12
 5412 1e7a 1B78     		ldrb	r3, [r3]	@ zero_extendqisi2
 5413 1e7c AB42     		cmp	r3, r5
 5414 1e7e 09D1     		bne	.L381
1082:.\protocolo.c **** 						write_eeprom(217,corte);
 5415              		.loc 1 1082 0
ARM GAS  C:\Users\diego\AppData\Local\Temp\ccNdDNY6.s 			page 120


 5416 1e80 D920     		movs	r0, #217
 5417 1e82 09A9     		add	r1, sp, #36
 5418 1e84 FFF7FEFF 		bl	write_eeprom
 5419              	.LVL382:
1083:.\protocolo.c **** 						write_eeprom(538,resultado);
 5420              		.loc 1 1083 0
 5421 1e88 40F21A20 		movw	r0, #538
 5422 1e8c 3749     		ldr	r1, .L637
 5423 1e8e FFF7FEFF 		bl	write_eeprom
 5424              	.LVL383:
 5425 1e92 09E0     		b	.L366
 5426              	.L381:
1084:.\protocolo.c **** 					}
1085:.\protocolo.c **** 					else{
1086:.\protocolo.c **** 						write_eeprom(320,corte);
 5427              		.loc 1 1086 0
 5428 1e94 4FF4A070 		mov	r0, #320
 5429 1e98 09A9     		add	r1, sp, #36
 5430 1e9a FFF7FEFF 		bl	write_eeprom
 5431              	.LVL384:
1087:.\protocolo.c **** 						write_eeprom(576,resultado);
 5432              		.loc 1 1087 0
 5433 1e9e 4FF41070 		mov	r0, #576
 5434 1ea2 3249     		ldr	r1, .L637
 5435 1ea4 FFF7FEFF 		bl	write_eeprom
 5436              	.LVL385:
 5437              	.L366:
1088:.\protocolo.c **** 					}				
1089:.\protocolo.c **** 				}
1090:.\protocolo.c **** 				if(((rventa.manguera==(producto3&0x0F))&&(dir==a.dir))||((rventa.manguera==(producto3b&0x0F))&&
 5438              		.loc 1 1090 0
 5439 1ea8 314B     		ldr	r3, .L637+4
 5440 1eaa 93F8E020 		ldrb	r2, [r3, #224]	@ zero_extendqisi2
 5441 1eae 3D4B     		ldr	r3, .L637+56
 5442 1eb0 1B78     		ldrb	r3, [r3]	@ zero_extendqisi2
 5443 1eb2 03F00F03 		and	r3, r3, #15
 5444 1eb6 9342     		cmp	r3, r2
 5445 1eb8 03D1     		bne	.L382
 5446              		.loc 1 1090 0 is_stmt 0 discriminator 1
 5447 1eba 2F4B     		ldr	r3, .L637+12
 5448 1ebc 1B78     		ldrb	r3, [r3]	@ zero_extendqisi2
 5449 1ebe AB42     		cmp	r3, r5
 5450 1ec0 0BD0     		beq	.L383
 5451              	.L382:
 5452              		.loc 1 1090 0 discriminator 3
 5453 1ec2 394B     		ldr	r3, .L637+60
 5454 1ec4 1B78     		ldrb	r3, [r3]	@ zero_extendqisi2
 5455 1ec6 03F00F03 		and	r3, r3, #15
 5456 1eca 9A42     		cmp	r2, r3
 5457 1ecc 40F0E580 		bne	.L384
 5458              		.loc 1 1090 0 discriminator 4
 5459 1ed0 2B4B     		ldr	r3, .L637+20
 5460 1ed2 1B78     		ldrb	r3, [r3]	@ zero_extendqisi2
 5461 1ed4 AB42     		cmp	r3, r5
 5462 1ed6 40F0E080 		bne	.L384
 5463              	.L383:
1091:.\protocolo.c **** 					for(x=0;x<=5;x++){									
ARM GAS  C:\Users\diego\AppData\Local\Temp\ccNdDNY6.s 			page 121


 5464              		.loc 1 1091 0 is_stmt 1
 5465 1eda 0022     		movs	r2, #0
 5466 1edc 2B4B     		ldr	r3, .L637+32
 5467 1ede 1A60     		str	r2, [r3]
 5468 1ee0 08E0     		b	.L385
 5469              	.L386:
1092:.\protocolo.c **** 						    write_psoc1(val,msn_tc[x]);
 5470              		.loc 1 1092 0 discriminator 3
 5471 1ee2 2046     		mov	r0, r4
 5472 1ee4 2A4A     		ldr	r2, .L637+36
 5473 1ee6 D15C     		ldrb	r1, [r2, r3]	@ zero_extendqisi2
 5474 1ee8 FFF7FEFF 		bl	write_psoc1
 5475              	.LVL386:
1091:.\protocolo.c **** 					for(x=0;x<=5;x++){									
 5476              		.loc 1 1091 0 discriminator 3
 5477 1eec 274A     		ldr	r2, .L637+32
 5478 1eee 1368     		ldr	r3, [r2]
 5479 1ef0 0133     		adds	r3, r3, #1
 5480 1ef2 1360     		str	r3, [r2]
 5481              	.L385:
1091:.\protocolo.c **** 					for(x=0;x<=5;x++){									
 5482              		.loc 1 1091 0 is_stmt 0 discriminator 1
 5483 1ef4 254B     		ldr	r3, .L637+32
 5484 1ef6 1B68     		ldr	r3, [r3]
 5485 1ef8 052B     		cmp	r3, #5
 5486 1efa F2D9     		bls	.L386
1093:.\protocolo.c **** 					    }
1094:.\protocolo.c **** 					    write_psoc1(val,10);
 5487              		.loc 1 1094 0 is_stmt 1
 5488 1efc 2046     		mov	r0, r4
 5489 1efe 0A21     		movs	r1, #10
 5490 1f00 FFF7FEFF 		bl	write_psoc1
 5491              	.LVL387:
1095:.\protocolo.c ****                     for(x=0;x<=10;x++){									
 5492              		.loc 1 1095 0
 5493 1f04 0022     		movs	r2, #0
 5494 1f06 214B     		ldr	r3, .L637+32
 5495 1f08 1A60     		str	r2, [r3]
 5496 1f0a 08E0     		b	.L387
 5497              	.L388:
1096:.\protocolo.c **** 						    write_psoc1(val,producto3n[x]);
 5498              		.loc 1 1096 0 discriminator 3
 5499 1f0c 2046     		mov	r0, r4
 5500 1f0e 274A     		ldr	r2, .L637+64
 5501 1f10 D15C     		ldrb	r1, [r2, r3]	@ zero_extendqisi2
 5502 1f12 FFF7FEFF 		bl	write_psoc1
 5503              	.LVL388:
1095:.\protocolo.c ****                     for(x=0;x<=10;x++){									
 5504              		.loc 1 1095 0 discriminator 3
 5505 1f16 1D4A     		ldr	r2, .L637+32
 5506 1f18 1368     		ldr	r3, [r2]
 5507 1f1a 0133     		adds	r3, r3, #1
 5508 1f1c 1360     		str	r3, [r2]
 5509              	.L387:
1095:.\protocolo.c ****                     for(x=0;x<=10;x++){									
 5510              		.loc 1 1095 0 is_stmt 0 discriminator 1
 5511 1f1e 1B4B     		ldr	r3, .L637+32
ARM GAS  C:\Users\diego\AppData\Local\Temp\ccNdDNY6.s 			page 122


 5512 1f20 1B68     		ldr	r3, [r3]
 5513 1f22 0A2B     		cmp	r3, #10
 5514 1f24 F2D9     		bls	.L388
1097:.\protocolo.c **** 					    }
1098:.\protocolo.c ****                     write_psoc1(val,10);
 5515              		.loc 1 1098 0 is_stmt 1
 5516 1f26 2046     		mov	r0, r4
 5517 1f28 0A21     		movs	r1, #10
 5518 1f2a FFF7FEFF 		bl	write_psoc1
 5519              	.LVL389:
1099:.\protocolo.c **** 					for(x=0;x<=14;x++){									
 5520              		.loc 1 1099 0
 5521 1f2e 0022     		movs	r2, #0
 5522 1f30 164B     		ldr	r3, .L637+32
 5523 1f32 1A60     		str	r2, [r3]
 5524 1f34 09E0     		b	.L389
 5525              	.L390:
1100:.\protocolo.c **** 						write_psoc1(val,msn_lecact[x]);				//LECTURA ACTUAL
 5526              		.loc 1 1100 0 discriminator 3
 5527 1f36 164A     		ldr	r2, .L637+36
 5528 1f38 1344     		add	r3, r3, r2
 5529 1f3a 2046     		mov	r0, r4
 5530 1f3c 197A     		ldrb	r1, [r3, #8]	@ zero_extendqisi2
 5531 1f3e FFF7FEFF 		bl	write_psoc1
 5532              	.LVL390:
1099:.\protocolo.c **** 					for(x=0;x<=14;x++){									
 5533              		.loc 1 1099 0 discriminator 3
 5534 1f42 124A     		ldr	r2, .L637+32
 5535 1f44 1368     		ldr	r3, [r2]
 5536 1f46 0133     		adds	r3, r3, #1
 5537 1f48 1360     		str	r3, [r2]
 5538              	.L389:
1099:.\protocolo.c **** 					for(x=0;x<=14;x++){									
 5539              		.loc 1 1099 0 is_stmt 0 discriminator 1
 5540 1f4a 104B     		ldr	r3, .L637+32
 5541 1f4c 1B68     		ldr	r3, [r3]
 5542 1f4e 0E2B     		cmp	r3, #14
 5543 1f50 F1D9     		bls	.L390
1101:.\protocolo.c **** 					}
1102:.\protocolo.c **** 					write_psoc1(val,10);
 5544              		.loc 1 1102 0 is_stmt 1
 5545 1f52 2046     		mov	r0, r4
 5546 1f54 0A21     		movs	r1, #10
 5547 1f56 FFF7FEFF 		bl	write_psoc1
 5548              	.LVL391:
1103:.\protocolo.c **** 					print_totalesac(12,val);	
 5549              		.loc 1 1103 0
 5550 1f5a 0C20     		movs	r0, #12
 5551 1f5c 2146     		mov	r1, r4
 5552 1f5e FFF7FEFF 		bl	print_totalesac
 5553              	.LVL392:
1104:.\protocolo.c **** 					for(x=0;x<=16;x++){												
 5554              		.loc 1 1104 0
 5555 1f62 0022     		movs	r2, #0
 5556 1f64 094B     		ldr	r3, .L637+32
 5557 1f66 1A60     		str	r2, [r3]
 5558 1f68 2CE0     		b	.L391
ARM GAS  C:\Users\diego\AppData\Local\Temp\ccNdDNY6.s 			page 123


 5559              	.L638:
 5560 1f6a 00BF     		.align	2
 5561              	.L637:
 5562 1f6c 00000000 		.word	resultado
 5563 1f70 00000000 		.word	rventa
 5564 1f74 00000000 		.word	producto2
 5565 1f78 00000000 		.word	a
 5566 1f7c 00000000 		.word	producto2b
 5567 1f80 00000000 		.word	b
 5568 1f84 00000000 		.word	d
 5569 1f88 00000000 		.word	c
 5570 1f8c 00000000 		.word	x
 5571 1f90 00000000 		.word	.LANCHOR1
 5572 1f94 00000000 		.word	producto2n
 5573 1f98 00000000 		.word	z
 5574 1f9c FFFFFFFF 		.word	rventa-1
 5575 1fa0 00000000 		.word	buffer_i2c
 5576 1fa4 00000000 		.word	producto3
 5577 1fa8 00000000 		.word	producto3b
 5578 1fac 00000000 		.word	producto3n
 5579              	.L392:
1105:.\protocolo.c **** 						write_psoc1(val,msn_lecaan[x]);				//LECTURA ANTERIOR
 5580              		.loc 1 1105 0 discriminator 3
 5581 1fb0 A74A     		ldr	r2, .L639
 5582 1fb2 1344     		add	r3, r3, r2
 5583 1fb4 2046     		mov	r0, r4
 5584 1fb6 197E     		ldrb	r1, [r3, #24]	@ zero_extendqisi2
 5585 1fb8 FFF7FEFF 		bl	write_psoc1
 5586              	.LVL393:
1104:.\protocolo.c **** 					for(x=0;x<=16;x++){												
 5587              		.loc 1 1104 0 discriminator 3
 5588 1fbc A54A     		ldr	r2, .L639+4
 5589 1fbe 1368     		ldr	r3, [r2]
 5590 1fc0 0133     		adds	r3, r3, #1
 5591 1fc2 1360     		str	r3, [r2]
 5592              	.L391:
1104:.\protocolo.c **** 					for(x=0;x<=16;x++){												
 5593              		.loc 1 1104 0 is_stmt 0 discriminator 1
 5594 1fc4 A34B     		ldr	r3, .L639+4
 5595 1fc6 1B68     		ldr	r3, [r3]
 5596 1fc8 102B     		cmp	r3, #16
 5597 1fca F1D9     		bls	.L392
1106:.\protocolo.c **** 					}
1107:.\protocolo.c **** 					write_psoc1(val,10);
 5598              		.loc 1 1107 0 is_stmt 1
 5599 1fcc 2046     		mov	r0, r4
 5600 1fce 0A21     		movs	r1, #10
 5601 1fd0 FFF7FEFF 		bl	write_psoc1
 5602              	.LVL394:
1108:.\protocolo.c **** 					if(dir==a.dir){
 5603              		.loc 1 1108 0
 5604 1fd4 A04B     		ldr	r3, .L639+8
 5605 1fd6 1B78     		ldrb	r3, [r3]	@ zero_extendqisi2
 5606 1fd8 AB42     		cmp	r3, r5
 5607 1fda 05D1     		bne	.L393
1109:.\protocolo.c **** 						leer_eeprom(256,25);
 5608              		.loc 1 1109 0
ARM GAS  C:\Users\diego\AppData\Local\Temp\ccNdDNY6.s 			page 124


 5609 1fdc 4FF48070 		mov	r0, #256
 5610 1fe0 1921     		movs	r1, #25
 5611 1fe2 FFF7FEFF 		bl	leer_eeprom
 5612              	.LVL395:
 5613 1fe6 04E0     		b	.L394
 5614              	.L393:
1110:.\protocolo.c **** 					}
1111:.\protocolo.c **** 					else{
1112:.\protocolo.c **** 						leer_eeprom(345,25);
 5615              		.loc 1 1112 0
 5616 1fe8 40F25910 		movw	r0, #345
 5617 1fec 1921     		movs	r1, #25
 5618 1fee FFF7FEFF 		bl	leer_eeprom
 5619              	.LVL396:
 5620              	.L394:
1113:.\protocolo.c **** 					}
1114:.\protocolo.c **** 					print_totales(val);
 5621              		.loc 1 1114 0
 5622 1ff2 2046     		mov	r0, r4
 5623 1ff4 FFF7FEFF 		bl	print_totales
 5624              	.LVL397:
1115:.\protocolo.c **** 					for(z=1;z<=12;z++){
 5625              		.loc 1 1115 0
 5626 1ff8 0122     		movs	r2, #1
 5627 1ffa 984B     		ldr	r3, .L639+12
 5628 1ffc 1A60     		str	r2, [r3]
 5629 1ffe 10E0     		b	.L395
 5630              	.L396:
1116:.\protocolo.c **** 						minuendo[z]=rventa.tdinero[z-1];
 5631              		.loc 1 1116 0 discriminator 3
 5632 2000 974A     		ldr	r2, .L639+16
 5633 2002 1A44     		add	r2, r2, r3
 5634 2004 92F8CA10 		ldrb	r1, [r2, #202]	@ zero_extendqisi2
 5635 2008 10AA     		add	r2, sp, #64
 5636 200a 1A44     		add	r2, r2, r3
 5637 200c 02F82C1C 		strb	r1, [r2, #-44]
1117:.\protocolo.c **** 						sustraendo[z]=buffer_i2c[z+12];
 5638              		.loc 1 1117 0 discriminator 3
 5639 2010 03F10C01 		add	r1, r3, #12
 5640 2014 9348     		ldr	r0, .L639+20
 5641 2016 415C     		ldrb	r1, [r0, r1]	@ zero_extendqisi2
 5642 2018 02F83C1C 		strb	r1, [r2, #-60]
1115:.\protocolo.c **** 					for(z=1;z<=12;z++){
 5643              		.loc 1 1115 0 discriminator 3
 5644 201c 0133     		adds	r3, r3, #1
 5645 201e 8F4A     		ldr	r2, .L639+12
 5646 2020 1360     		str	r3, [r2]
 5647              	.L395:
1115:.\protocolo.c **** 					for(z=1;z<=12;z++){
 5648              		.loc 1 1115 0 is_stmt 0 discriminator 1
 5649 2022 8E4B     		ldr	r3, .L639+12
 5650 2024 1B68     		ldr	r3, [r3]
 5651 2026 0C2B     		cmp	r3, #12
 5652 2028 EAD9     		bls	.L396
1118:.\protocolo.c **** 					}
1119:.\protocolo.c **** 					minuendo[0]=12;
 5653              		.loc 1 1119 0 is_stmt 1
ARM GAS  C:\Users\diego\AppData\Local\Temp\ccNdDNY6.s 			page 125


 5654 202a 10A9     		add	r1, sp, #64
 5655 202c 0C23     		movs	r3, #12
 5656 202e 01F82C3D 		strb	r3, [r1, #-44]!
1120:.\protocolo.c **** 					operacion(2,minuendo,sustraendo);
 5657              		.loc 1 1120 0
 5658 2032 0220     		movs	r0, #2
 5659 2034 01AA     		add	r2, sp, #4
 5660 2036 FFF7FEFF 		bl	operacion
 5661              	.LVL398:
1121:.\protocolo.c **** 					for(x=0;x<=17;x++){									
 5662              		.loc 1 1121 0
 5663 203a 0022     		movs	r2, #0
 5664 203c 854B     		ldr	r3, .L639+4
 5665 203e 1A60     		str	r2, [r3]
 5666 2040 0AE0     		b	.L397
 5667              	.L398:
1122:.\protocolo.c **** 						write_psoc1(val,msn_tventas[x]);				//Total de ventas
 5668              		.loc 1 1122 0 discriminator 3
 5669 2042 834A     		ldr	r2, .L639
 5670 2044 1344     		add	r3, r3, r2
 5671 2046 2046     		mov	r0, r4
 5672 2048 93F82C10 		ldrb	r1, [r3, #44]	@ zero_extendqisi2
 5673 204c FFF7FEFF 		bl	write_psoc1
 5674              	.LVL399:
1121:.\protocolo.c **** 					for(x=0;x<=17;x++){									
 5675              		.loc 1 1121 0 discriminator 3
 5676 2050 804A     		ldr	r2, .L639+4
 5677 2052 1368     		ldr	r3, [r2]
 5678 2054 0133     		adds	r3, r3, #1
 5679 2056 1360     		str	r3, [r2]
 5680              	.L397:
1121:.\protocolo.c **** 					for(x=0;x<=17;x++){									
 5681              		.loc 1 1121 0 is_stmt 0 discriminator 1
 5682 2058 7E4B     		ldr	r3, .L639+4
 5683 205a 1B68     		ldr	r3, [r3]
 5684 205c 112B     		cmp	r3, #17
 5685 205e F0D9     		bls	.L398
1123:.\protocolo.c **** 					}
1124:.\protocolo.c **** 					print_valor(resultado,val);							
 5686              		.loc 1 1124 0 is_stmt 1
 5687 2060 8148     		ldr	r0, .L639+24
 5688 2062 2146     		mov	r1, r4
 5689 2064 FFF7FEFF 		bl	print_valor
 5690              	.LVL400:
1125:.\protocolo.c **** 					if(dir==a.dir){
 5691              		.loc 1 1125 0
 5692 2068 7B4B     		ldr	r3, .L639+8
 5693 206a 1B78     		ldrb	r3, [r3]	@ zero_extendqisi2
 5694 206c AB42     		cmp	r3, r5
 5695 206e 0AD1     		bne	.L399
1126:.\protocolo.c **** 						write_eeprom(256,corte);
 5696              		.loc 1 1126 0
 5697 2070 4FF48070 		mov	r0, #256
 5698 2074 09A9     		add	r1, sp, #36
 5699 2076 FFF7FEFF 		bl	write_eeprom
 5700              	.LVL401:
1127:.\protocolo.c **** 						write_eeprom(525,resultado);
ARM GAS  C:\Users\diego\AppData\Local\Temp\ccNdDNY6.s 			page 126


 5701              		.loc 1 1127 0
 5702 207a 40F20D20 		movw	r0, #525
 5703 207e 7A49     		ldr	r1, .L639+24
 5704 2080 FFF7FEFF 		bl	write_eeprom
 5705              	.LVL402:
 5706 2084 09E0     		b	.L384
 5707              	.L399:
1128:.\protocolo.c **** 					}
1129:.\protocolo.c **** 					else{
1130:.\protocolo.c **** 						write_eeprom(345,corte);
 5708              		.loc 1 1130 0
 5709 2086 40F25910 		movw	r0, #345
 5710 208a 09A9     		add	r1, sp, #36
 5711 208c FFF7FEFF 		bl	write_eeprom
 5712              	.LVL403:
1131:.\protocolo.c **** 						write_eeprom(589,resultado);
 5713              		.loc 1 1131 0
 5714 2090 40F24D20 		movw	r0, #589
 5715 2094 7449     		ldr	r1, .L639+24
 5716 2096 FFF7FEFF 		bl	write_eeprom
 5717              	.LVL404:
 5718              	.L384:
1132:.\protocolo.c **** 					}					
1133:.\protocolo.c **** 				}
1134:.\protocolo.c ****                 
1135:.\protocolo.c ****                 if(((rventa.manguera==(producto4&0x0F))&&(dir==a.dir))||((rventa.manguera==(product
 5719              		.loc 1 1135 0
 5720 209a 744B     		ldr	r3, .L639+28
 5721 209c 93F8E020 		ldrb	r2, [r3, #224]	@ zero_extendqisi2
 5722 20a0 734B     		ldr	r3, .L639+32
 5723 20a2 1B78     		ldrb	r3, [r3]	@ zero_extendqisi2
 5724 20a4 03F00F03 		and	r3, r3, #15
 5725 20a8 9342     		cmp	r3, r2
 5726 20aa 03D1     		bne	.L400
 5727              		.loc 1 1135 0 is_stmt 0 discriminator 1
 5728 20ac 6A4B     		ldr	r3, .L639+8
 5729 20ae 1B78     		ldrb	r3, [r3]	@ zero_extendqisi2
 5730 20b0 AB42     		cmp	r3, r5
 5731 20b2 0BD0     		beq	.L401
 5732              	.L400:
 5733              		.loc 1 1135 0 discriminator 3
 5734 20b4 6F4B     		ldr	r3, .L639+36
 5735 20b6 1B78     		ldrb	r3, [r3]	@ zero_extendqisi2
 5736 20b8 03F00F03 		and	r3, r3, #15
 5737 20bc 9A42     		cmp	r2, r3
 5738 20be 40F0C280 		bne	.L402
 5739              		.loc 1 1135 0 discriminator 4
 5740 20c2 6D4B     		ldr	r3, .L639+40
 5741 20c4 1B78     		ldrb	r3, [r3]	@ zero_extendqisi2
 5742 20c6 AB42     		cmp	r3, r5
 5743 20c8 40F0BD80 		bne	.L402
 5744              	.L401:
1136:.\protocolo.c **** 					for(x=0;x<=5;x++){									
 5745              		.loc 1 1136 0 is_stmt 1
 5746 20cc 0022     		movs	r2, #0
 5747 20ce 614B     		ldr	r3, .L639+4
 5748 20d0 1A60     		str	r2, [r3]
ARM GAS  C:\Users\diego\AppData\Local\Temp\ccNdDNY6.s 			page 127


 5749 20d2 08E0     		b	.L403
 5750              	.L404:
1137:.\protocolo.c **** 						    write_psoc1(val,msn_tc[x]);
 5751              		.loc 1 1137 0 discriminator 3
 5752 20d4 2046     		mov	r0, r4
 5753 20d6 5E4A     		ldr	r2, .L639
 5754 20d8 D15C     		ldrb	r1, [r2, r3]	@ zero_extendqisi2
 5755 20da FFF7FEFF 		bl	write_psoc1
 5756              	.LVL405:
1136:.\protocolo.c **** 					for(x=0;x<=5;x++){									
 5757              		.loc 1 1136 0 discriminator 3
 5758 20de 5D4A     		ldr	r2, .L639+4
 5759 20e0 1368     		ldr	r3, [r2]
 5760 20e2 0133     		adds	r3, r3, #1
 5761 20e4 1360     		str	r3, [r2]
 5762              	.L403:
1136:.\protocolo.c **** 					for(x=0;x<=5;x++){									
 5763              		.loc 1 1136 0 is_stmt 0 discriminator 1
 5764 20e6 5B4B     		ldr	r3, .L639+4
 5765 20e8 1B68     		ldr	r3, [r3]
 5766 20ea 052B     		cmp	r3, #5
 5767 20ec F2D9     		bls	.L404
1138:.\protocolo.c **** 					    }
1139:.\protocolo.c **** 					    write_psoc1(val,10);
 5768              		.loc 1 1139 0 is_stmt 1
 5769 20ee 2046     		mov	r0, r4
 5770 20f0 0A21     		movs	r1, #10
 5771 20f2 FFF7FEFF 		bl	write_psoc1
 5772              	.LVL406:
1140:.\protocolo.c ****                     for(x=0;x<=10;x++){									
 5773              		.loc 1 1140 0
 5774 20f6 0022     		movs	r2, #0
 5775 20f8 564B     		ldr	r3, .L639+4
 5776 20fa 1A60     		str	r2, [r3]
 5777 20fc 08E0     		b	.L405
 5778              	.L406:
1141:.\protocolo.c **** 						    write_psoc1(val,producto4n[x]);
 5779              		.loc 1 1141 0 discriminator 3
 5780 20fe 2046     		mov	r0, r4
 5781 2100 5E4A     		ldr	r2, .L639+44
 5782 2102 D15C     		ldrb	r1, [r2, r3]	@ zero_extendqisi2
 5783 2104 FFF7FEFF 		bl	write_psoc1
 5784              	.LVL407:
1140:.\protocolo.c ****                     for(x=0;x<=10;x++){									
 5785              		.loc 1 1140 0 discriminator 3
 5786 2108 524A     		ldr	r2, .L639+4
 5787 210a 1368     		ldr	r3, [r2]
 5788 210c 0133     		adds	r3, r3, #1
 5789 210e 1360     		str	r3, [r2]
 5790              	.L405:
1140:.\protocolo.c ****                     for(x=0;x<=10;x++){									
 5791              		.loc 1 1140 0 is_stmt 0 discriminator 1
 5792 2110 504B     		ldr	r3, .L639+4
 5793 2112 1B68     		ldr	r3, [r3]
 5794 2114 0A2B     		cmp	r3, #10
 5795 2116 F2D9     		bls	.L406
1142:.\protocolo.c **** 					    }
ARM GAS  C:\Users\diego\AppData\Local\Temp\ccNdDNY6.s 			page 128


1143:.\protocolo.c ****                     write_psoc1(val,10);
 5796              		.loc 1 1143 0 is_stmt 1
 5797 2118 2046     		mov	r0, r4
 5798 211a 0A21     		movs	r1, #10
 5799 211c FFF7FEFF 		bl	write_psoc1
 5800              	.LVL408:
1144:.\protocolo.c **** 					for(x=0;x<=14;x++){									
 5801              		.loc 1 1144 0
 5802 2120 0022     		movs	r2, #0
 5803 2122 4C4B     		ldr	r3, .L639+4
 5804 2124 1A60     		str	r2, [r3]
 5805 2126 09E0     		b	.L407
 5806              	.L408:
1145:.\protocolo.c **** 						write_psoc1(val,msn_lecact[x]);				//LECTURA ACTUAL
 5807              		.loc 1 1145 0 discriminator 3
 5808 2128 494A     		ldr	r2, .L639
 5809 212a 1344     		add	r3, r3, r2
 5810 212c 2046     		mov	r0, r4
 5811 212e 197A     		ldrb	r1, [r3, #8]	@ zero_extendqisi2
 5812 2130 FFF7FEFF 		bl	write_psoc1
 5813              	.LVL409:
1144:.\protocolo.c **** 					for(x=0;x<=14;x++){									
 5814              		.loc 1 1144 0 discriminator 3
 5815 2134 474A     		ldr	r2, .L639+4
 5816 2136 1368     		ldr	r3, [r2]
 5817 2138 0133     		adds	r3, r3, #1
 5818 213a 1360     		str	r3, [r2]
 5819              	.L407:
1144:.\protocolo.c **** 					for(x=0;x<=14;x++){									
 5820              		.loc 1 1144 0 is_stmt 0 discriminator 1
 5821 213c 454B     		ldr	r3, .L639+4
 5822 213e 1B68     		ldr	r3, [r3]
 5823 2140 0E2B     		cmp	r3, #14
 5824 2142 F1D9     		bls	.L408
1146:.\protocolo.c **** 					}
1147:.\protocolo.c **** 					write_psoc1(val,10);
 5825              		.loc 1 1147 0 is_stmt 1
 5826 2144 2046     		mov	r0, r4
 5827 2146 0A21     		movs	r1, #10
 5828 2148 FFF7FEFF 		bl	write_psoc1
 5829              	.LVL410:
1148:.\protocolo.c **** 					print_totalesac(12,val);	
 5830              		.loc 1 1148 0
 5831 214c 0C20     		movs	r0, #12
 5832 214e 2146     		mov	r1, r4
 5833 2150 FFF7FEFF 		bl	print_totalesac
 5834              	.LVL411:
1149:.\protocolo.c **** 					for(x=0;x<=16;x++){												
 5835              		.loc 1 1149 0
 5836 2154 0022     		movs	r2, #0
 5837 2156 3F4B     		ldr	r3, .L639+4
 5838 2158 1A60     		str	r2, [r3]
 5839 215a 09E0     		b	.L409
 5840              	.L410:
1150:.\protocolo.c **** 						write_psoc1(val,msn_lecaan[x]);				//LECTURA ANTERIOR
 5841              		.loc 1 1150 0 discriminator 3
 5842 215c 3C4A     		ldr	r2, .L639
ARM GAS  C:\Users\diego\AppData\Local\Temp\ccNdDNY6.s 			page 129


 5843 215e 1344     		add	r3, r3, r2
 5844 2160 2046     		mov	r0, r4
 5845 2162 197E     		ldrb	r1, [r3, #24]	@ zero_extendqisi2
 5846 2164 FFF7FEFF 		bl	write_psoc1
 5847              	.LVL412:
1149:.\protocolo.c **** 					for(x=0;x<=16;x++){												
 5848              		.loc 1 1149 0 discriminator 3
 5849 2168 3A4A     		ldr	r2, .L639+4
 5850 216a 1368     		ldr	r3, [r2]
 5851 216c 0133     		adds	r3, r3, #1
 5852 216e 1360     		str	r3, [r2]
 5853              	.L409:
1149:.\protocolo.c **** 					for(x=0;x<=16;x++){												
 5854              		.loc 1 1149 0 is_stmt 0 discriminator 1
 5855 2170 384B     		ldr	r3, .L639+4
 5856 2172 1B68     		ldr	r3, [r3]
 5857 2174 102B     		cmp	r3, #16
 5858 2176 F1D9     		bls	.L410
1151:.\protocolo.c **** 					}
1152:.\protocolo.c **** 					write_psoc1(val,10);
 5859              		.loc 1 1152 0 is_stmt 1
 5860 2178 2046     		mov	r0, r4
 5861 217a 0A21     		movs	r1, #10
 5862 217c FFF7FEFF 		bl	write_psoc1
 5863              	.LVL413:
1153:.\protocolo.c **** 					if(dir==a.dir){
 5864              		.loc 1 1153 0
 5865 2180 354B     		ldr	r3, .L639+8
 5866 2182 1B78     		ldrb	r3, [r3]	@ zero_extendqisi2
 5867 2184 AB42     		cmp	r3, r5
 5868 2186 05D1     		bne	.L411
1154:.\protocolo.c **** 						leer_eeprom(1096,25);
 5869              		.loc 1 1154 0
 5870 2188 4FF48960 		mov	r0, #1096
 5871 218c 1921     		movs	r1, #25
 5872 218e FFF7FEFF 		bl	leer_eeprom
 5873              	.LVL414:
 5874 2192 04E0     		b	.L412
 5875              	.L411:
1155:.\protocolo.c **** 					}
1156:.\protocolo.c **** 					else{
1157:.\protocolo.c **** 						leer_eeprom(1054,25);
 5876              		.loc 1 1157 0
 5877 2194 40F21E40 		movw	r0, #1054
 5878 2198 1921     		movs	r1, #25
 5879 219a FFF7FEFF 		bl	leer_eeprom
 5880              	.LVL415:
 5881              	.L412:
1158:.\protocolo.c **** 					}
1159:.\protocolo.c **** 					print_totales(val);
 5882              		.loc 1 1159 0
 5883 219e 2046     		mov	r0, r4
 5884 21a0 FFF7FEFF 		bl	print_totales
 5885              	.LVL416:
1160:.\protocolo.c **** 					for(z=1;z<=12;z++){
 5886              		.loc 1 1160 0
 5887 21a4 0122     		movs	r2, #1
ARM GAS  C:\Users\diego\AppData\Local\Temp\ccNdDNY6.s 			page 130


 5888 21a6 2D4B     		ldr	r3, .L639+12
 5889 21a8 1A60     		str	r2, [r3]
 5890 21aa 10E0     		b	.L413
 5891              	.L414:
1161:.\protocolo.c **** 						minuendo[z]=rventa.tdinero[z-1];
 5892              		.loc 1 1161 0 discriminator 3
 5893 21ac 2C4A     		ldr	r2, .L639+16
 5894 21ae 1A44     		add	r2, r2, r3
 5895 21b0 92F8CA10 		ldrb	r1, [r2, #202]	@ zero_extendqisi2
 5896 21b4 10AA     		add	r2, sp, #64
 5897 21b6 1A44     		add	r2, r2, r3
 5898 21b8 02F82C1C 		strb	r1, [r2, #-44]
1162:.\protocolo.c **** 						sustraendo[z]=buffer_i2c[z+12];
 5899              		.loc 1 1162 0 discriminator 3
 5900 21bc 03F10C01 		add	r1, r3, #12
 5901 21c0 2848     		ldr	r0, .L639+20
 5902 21c2 415C     		ldrb	r1, [r0, r1]	@ zero_extendqisi2
 5903 21c4 02F83C1C 		strb	r1, [r2, #-60]
1160:.\protocolo.c **** 					for(z=1;z<=12;z++){
 5904              		.loc 1 1160 0 discriminator 3
 5905 21c8 0133     		adds	r3, r3, #1
 5906 21ca 244A     		ldr	r2, .L639+12
 5907 21cc 1360     		str	r3, [r2]
 5908              	.L413:
1160:.\protocolo.c **** 					for(z=1;z<=12;z++){
 5909              		.loc 1 1160 0 is_stmt 0 discriminator 1
 5910 21ce 234B     		ldr	r3, .L639+12
 5911 21d0 1B68     		ldr	r3, [r3]
 5912 21d2 0C2B     		cmp	r3, #12
 5913 21d4 EAD9     		bls	.L414
1163:.\protocolo.c **** 					}
1164:.\protocolo.c **** 					minuendo[0]=12;
 5914              		.loc 1 1164 0 is_stmt 1
 5915 21d6 10A9     		add	r1, sp, #64
 5916 21d8 0C23     		movs	r3, #12
 5917 21da 01F82C3D 		strb	r3, [r1, #-44]!
1165:.\protocolo.c **** 					operacion(2,minuendo,sustraendo);
 5918              		.loc 1 1165 0
 5919 21de 0220     		movs	r0, #2
 5920 21e0 01AA     		add	r2, sp, #4
 5921 21e2 FFF7FEFF 		bl	operacion
 5922              	.LVL417:
1166:.\protocolo.c **** 					for(x=0;x<=17;x++){									
 5923              		.loc 1 1166 0
 5924 21e6 0022     		movs	r2, #0
 5925 21e8 1A4B     		ldr	r3, .L639+4
 5926 21ea 1A60     		str	r2, [r3]
 5927 21ec 0AE0     		b	.L415
 5928              	.L416:
1167:.\protocolo.c **** 						write_psoc1(val,msn_tventas[x]);				//Total de ventas
 5929              		.loc 1 1167 0 discriminator 3
 5930 21ee 184A     		ldr	r2, .L639
 5931 21f0 1344     		add	r3, r3, r2
 5932 21f2 2046     		mov	r0, r4
 5933 21f4 93F82C10 		ldrb	r1, [r3, #44]	@ zero_extendqisi2
 5934 21f8 FFF7FEFF 		bl	write_psoc1
 5935              	.LVL418:
ARM GAS  C:\Users\diego\AppData\Local\Temp\ccNdDNY6.s 			page 131


1166:.\protocolo.c **** 					for(x=0;x<=17;x++){									
 5936              		.loc 1 1166 0 discriminator 3
 5937 21fc 154A     		ldr	r2, .L639+4
 5938 21fe 1368     		ldr	r3, [r2]
 5939 2200 0133     		adds	r3, r3, #1
 5940 2202 1360     		str	r3, [r2]
 5941              	.L415:
1166:.\protocolo.c **** 					for(x=0;x<=17;x++){									
 5942              		.loc 1 1166 0 is_stmt 0 discriminator 1
 5943 2204 134B     		ldr	r3, .L639+4
 5944 2206 1B68     		ldr	r3, [r3]
 5945 2208 112B     		cmp	r3, #17
 5946 220a F0D9     		bls	.L416
1168:.\protocolo.c **** 					}
1169:.\protocolo.c **** 					print_valor(resultado,val);							
 5947              		.loc 1 1169 0 is_stmt 1
 5948 220c 1648     		ldr	r0, .L639+24
 5949 220e 2146     		mov	r1, r4
 5950 2210 FFF7FEFF 		bl	print_valor
 5951              	.LVL419:
1170:.\protocolo.c **** 					if(dir==a.dir){
 5952              		.loc 1 1170 0
 5953 2214 104B     		ldr	r3, .L639+8
 5954 2216 1B78     		ldrb	r3, [r3]	@ zero_extendqisi2
 5955 2218 AB42     		cmp	r3, r5
 5956 221a 0AD1     		bne	.L417
1171:.\protocolo.c **** 						write_eeprom(1096,corte);
 5957              		.loc 1 1171 0
 5958 221c 4FF48960 		mov	r0, #1096
 5959 2220 09A9     		add	r1, sp, #36
 5960 2222 FFF7FEFF 		bl	write_eeprom
 5961              	.LVL420:
1172:.\protocolo.c **** 						write_eeprom(1038,resultado);
 5962              		.loc 1 1172 0
 5963 2226 40F20E40 		movw	r0, #1038
 5964 222a 0F49     		ldr	r1, .L639+24
 5965 222c FFF7FEFF 		bl	write_eeprom
 5966              	.LVL421:
 5967 2230 09E0     		b	.L402
 5968              	.L417:
1173:.\protocolo.c **** 					}
1174:.\protocolo.c **** 					else{
1175:.\protocolo.c **** 						write_eeprom(1054,corte);
 5969              		.loc 1 1175 0
 5970 2232 40F21E40 		movw	r0, #1054
 5971 2236 09A9     		add	r1, sp, #36
 5972 2238 FFF7FEFF 		bl	write_eeprom
 5973              	.LVL422:
1176:.\protocolo.c **** 						write_eeprom(1081,resultado);
 5974              		.loc 1 1176 0
 5975 223c 40F23940 		movw	r0, #1081
 5976 2240 0949     		ldr	r1, .L639+24
 5977 2242 FFF7FEFF 		bl	write_eeprom
 5978              	.LVL423:
 5979              	.L402:
1177:.\protocolo.c **** 				    }						
1178:.\protocolo.c **** 				}
ARM GAS  C:\Users\diego\AppData\Local\Temp\ccNdDNY6.s 			page 132


1179:.\protocolo.c **** 				Surtidor_ClearRxBuffer();
 5980              		.loc 1 1179 0
 5981 2246 FFF7FEFF 		bl	Surtidor_ClearRxBuffer
 5982              	.LVL424:
1180:.\protocolo.c **** 				return 1;
 5983              		.loc 1 1180 0
 5984 224a 0120     		movs	r0, #1
 5985 224c 01F012B9 		b	.L78
 5986              	.L640:
 5987              		.align	2
 5988              	.L639:
 5989 2250 00000000 		.word	.LANCHOR1
 5990 2254 00000000 		.word	x
 5991 2258 00000000 		.word	a
 5992 225c 00000000 		.word	z
 5993 2260 FFFFFFFF 		.word	rventa-1
 5994 2264 00000000 		.word	buffer_i2c
 5995 2268 00000000 		.word	resultado
 5996 226c 00000000 		.word	rventa
 5997 2270 00000000 		.word	producto4
 5998 2274 00000000 		.word	producto4b
 5999 2278 00000000 		.word	b
 6000 227c 00000000 		.word	producto4n
 6001              	.L77:
1181:.\protocolo.c **** 			}
1182:.\protocolo.c **** 			else{
1183:.\protocolo.c **** 				return 0;
1184:.\protocolo.c **** 			}			
1185:.\protocolo.c **** 		break;
1186:.\protocolo.c **** 		
1187:.\protocolo.c **** 		case 88:
1188:.\protocolo.c **** 			if((Surtidor_rxBuffer[0]==0xFF)&&(Surtidor_rxBuffer[1]==0xF6)&&(Surtidor_rxBuffer[87]==0xF0)&&(S
 6002              		.loc 1 1188 0
 6003 2280 A84B     		ldr	r3, .L641
 6004 2282 1B78     		ldrb	r3, [r3]	@ zero_extendqisi2
 6005 2284 DBB2     		uxtb	r3, r3
 6006 2286 FF2B     		cmp	r3, #255
 6007 2288 41F0E580 		bne	.L608
 6008              		.loc 1 1188 0 is_stmt 0 discriminator 1
 6009 228c A54B     		ldr	r3, .L641
 6010 228e 5B78     		ldrb	r3, [r3, #1]	@ zero_extendqisi2
 6011 2290 DBB2     		uxtb	r3, r3
 6012 2292 F62B     		cmp	r3, #246
 6013 2294 41F0E180 		bne	.L609
 6014              		.loc 1 1188 0 discriminator 2
 6015 2298 A24B     		ldr	r3, .L641
 6016 229a 93F85730 		ldrb	r3, [r3, #87]	@ zero_extendqisi2
 6017 229e DBB2     		uxtb	r3, r3
 6018 22a0 F02B     		cmp	r3, #240
 6019 22a2 41F0DC80 		bne	.L610
 6020              		.loc 1 1188 0 discriminator 3
 6021 22a6 9F4B     		ldr	r3, .L641
 6022 22a8 DB78     		ldrb	r3, [r3, #3]	@ zero_extendqisi2
 6023 22aa DBB2     		uxtb	r3, r3
 6024 22ac F92B     		cmp	r3, #249
 6025 22ae 41F0D880 		bne	.L611
1189:.\protocolo.c **** 				for(y=0;y<=42;y+=42){
ARM GAS  C:\Users\diego\AppData\Local\Temp\ccNdDNY6.s 			page 133


 6026              		.loc 1 1189 0 is_stmt 1
 6027 22b2 0022     		movs	r2, #0
 6028 22b4 9C4B     		ldr	r3, .L641+4
 6029 22b6 1A60     		str	r2, [r3]
 6030 22b8 00F023BC 		b	.L418
 6031              	.L503:
1190:.\protocolo.c **** 					rventa.manguera=(Surtidor_rxBuffer[y+2]&0x0F)+1;
 6032              		.loc 1 1190 0
 6033 22bc B31C     		adds	r3, r6, #2
 6034 22be 994A     		ldr	r2, .L641
 6035 22c0 D15C     		ldrb	r1, [r2, r3]	@ zero_extendqisi2
 6036 22c2 01F00F01 		and	r1, r1, #15
 6037 22c6 0131     		adds	r1, r1, #1
 6038 22c8 984B     		ldr	r3, .L641+8
 6039 22ca 83F8E010 		strb	r1, [r3, #224]
1191:.\protocolo.c **** 					for(x=0;x<=11;x++){
 6040              		.loc 1 1191 0
 6041 22ce 0022     		movs	r2, #0
 6042 22d0 974B     		ldr	r3, .L641+12
 6043 22d2 1A60     		str	r2, [r3]
 6044 22d4 0CE0     		b	.L419
 6045              	.L420:
1192:.\protocolo.c **** 						rventa.tvolumen[x]=(Surtidor_rxBuffer[y+4+x]&0x0F);
 6046              		.loc 1 1192 0 discriminator 3
 6047 22d6 F218     		adds	r2, r6, r3
 6048 22d8 0432     		adds	r2, r2, #4
 6049 22da 9248     		ldr	r0, .L641
 6050 22dc 805C     		ldrb	r0, [r0, r2]	@ zero_extendqisi2
 6051 22de 934A     		ldr	r2, .L641+8
 6052 22e0 1A44     		add	r2, r2, r3
 6053 22e2 00F00F00 		and	r0, r0, #15
 6054 22e6 82F8BD00 		strb	r0, [r2, #189]
1191:.\protocolo.c **** 					for(x=0;x<=11;x++){
 6055              		.loc 1 1191 0 discriminator 3
 6056 22ea 0133     		adds	r3, r3, #1
 6057 22ec 904A     		ldr	r2, .L641+12
 6058 22ee 1360     		str	r3, [r2]
 6059              	.L419:
1191:.\protocolo.c **** 					for(x=0;x<=11;x++){
 6060              		.loc 1 1191 0 is_stmt 0 discriminator 1
 6061 22f0 8F4B     		ldr	r3, .L641+12
 6062 22f2 1B68     		ldr	r3, [r3]
 6063 22f4 0B2B     		cmp	r3, #11
 6064 22f6 EED9     		bls	.L420
1193:.\protocolo.c **** 					}
1194:.\protocolo.c **** 					for(x=0;x<=11;x++){
 6065              		.loc 1 1194 0 is_stmt 1
 6066 22f8 0022     		movs	r2, #0
 6067 22fa 8D4B     		ldr	r3, .L641+12
 6068 22fc 1A60     		str	r2, [r3]
 6069 22fe 0CE0     		b	.L421
 6070              	.L422:
1195:.\protocolo.c **** 						rventa.tdinero[x]=(Surtidor_rxBuffer[y+17+x]&0x0F);
 6071              		.loc 1 1195 0 discriminator 3
 6072 2300 F218     		adds	r2, r6, r3
 6073 2302 1132     		adds	r2, r2, #17
 6074 2304 8748     		ldr	r0, .L641
ARM GAS  C:\Users\diego\AppData\Local\Temp\ccNdDNY6.s 			page 134


 6075 2306 805C     		ldrb	r0, [r0, r2]	@ zero_extendqisi2
 6076 2308 884A     		ldr	r2, .L641+8
 6077 230a 1A44     		add	r2, r2, r3
 6078 230c 00F00F00 		and	r0, r0, #15
 6079 2310 82F8CA00 		strb	r0, [r2, #202]
1194:.\protocolo.c **** 						rventa.tdinero[x]=(Surtidor_rxBuffer[y+17+x]&0x0F);
 6080              		.loc 1 1194 0 discriminator 3
 6081 2314 0133     		adds	r3, r3, #1
 6082 2316 864A     		ldr	r2, .L641+12
 6083 2318 1360     		str	r3, [r2]
 6084              	.L421:
1194:.\protocolo.c **** 						rventa.tdinero[x]=(Surtidor_rxBuffer[y+17+x]&0x0F);
 6085              		.loc 1 1194 0 is_stmt 0 discriminator 1
 6086 231a 854B     		ldr	r3, .L641+12
 6087 231c 1B68     		ldr	r3, [r3]
 6088 231e 0B2B     		cmp	r3, #11
 6089 2320 EED9     		bls	.L422
1196:.\protocolo.c **** 					}
1197:.\protocolo.c **** 					for(z=0;z<=11;z++){
 6090              		.loc 1 1197 0 is_stmt 1
 6091 2322 0022     		movs	r2, #0
 6092 2324 834B     		ldr	r3, .L641+16
 6093 2326 1A60     		str	r2, [r3]
 6094 2328 0AE0     		b	.L423
 6095              	.L424:
1198:.\protocolo.c **** 						corte[z+1]=rventa.tvolumen[z];
 6096              		.loc 1 1198 0 discriminator 3
 6097 232a 5A1C     		adds	r2, r3, #1
 6098 232c 7F48     		ldr	r0, .L641+8
 6099 232e 0344     		add	r3, r3, r0
 6100 2330 93F8BD00 		ldrb	r0, [r3, #189]	@ zero_extendqisi2
 6101 2334 10AB     		add	r3, sp, #64
 6102 2336 1344     		add	r3, r3, r2
 6103 2338 03F81C0C 		strb	r0, [r3, #-28]
1197:.\protocolo.c **** 						corte[z+1]=rventa.tvolumen[z];
 6104              		.loc 1 1197 0 discriminator 3
 6105 233c 7D4B     		ldr	r3, .L641+16
 6106 233e 1A60     		str	r2, [r3]
 6107              	.L423:
1197:.\protocolo.c **** 						corte[z+1]=rventa.tvolumen[z];
 6108              		.loc 1 1197 0 is_stmt 0 discriminator 1
 6109 2340 7C4B     		ldr	r3, .L641+16
 6110 2342 1B68     		ldr	r3, [r3]
 6111 2344 0B2B     		cmp	r3, #11
 6112 2346 F0D9     		bls	.L424
1199:.\protocolo.c **** 					}
1200:.\protocolo.c **** 					for(z=13;z<=24;z++){
 6113              		.loc 1 1200 0 is_stmt 1
 6114 2348 0D22     		movs	r2, #13
 6115 234a 7A4B     		ldr	r3, .L641+16
 6116 234c 1A60     		str	r2, [r3]
 6117 234e 0AE0     		b	.L425
 6118              	.L426:
1201:.\protocolo.c **** 						corte[z]=rventa.tdinero[z-13];
 6119              		.loc 1 1201 0 discriminator 3
 6120 2350 794A     		ldr	r2, .L641+20
 6121 2352 1A44     		add	r2, r2, r3
ARM GAS  C:\Users\diego\AppData\Local\Temp\ccNdDNY6.s 			page 135


 6122 2354 92F8CA00 		ldrb	r0, [r2, #202]	@ zero_extendqisi2
 6123 2358 10AA     		add	r2, sp, #64
 6124 235a 1A44     		add	r2, r2, r3
 6125 235c 02F81C0C 		strb	r0, [r2, #-28]
1200:.\protocolo.c **** 						corte[z]=rventa.tdinero[z-13];
 6126              		.loc 1 1200 0 discriminator 3
 6127 2360 0133     		adds	r3, r3, #1
 6128 2362 744A     		ldr	r2, .L641+16
 6129 2364 1360     		str	r3, [r2]
 6130              	.L425:
1200:.\protocolo.c **** 						corte[z]=rventa.tdinero[z-13];
 6131              		.loc 1 1200 0 is_stmt 0 discriminator 1
 6132 2366 734B     		ldr	r3, .L641+16
 6133 2368 1B68     		ldr	r3, [r3]
 6134 236a 182B     		cmp	r3, #24
 6135 236c F0D9     		bls	.L426
1202:.\protocolo.c **** 					}
1203:.\protocolo.c **** 					corte[0]=24;				
 6136              		.loc 1 1203 0 is_stmt 1
 6137 236e 1823     		movs	r3, #24
 6138 2370 8DF82430 		strb	r3, [sp, #36]
1204:.\protocolo.c **** 					if(((rventa.manguera==(producto1&0x0F))&&(dir==a.dir))||((rventa.manguera==(producto1b&0x0F))&
 6139              		.loc 1 1204 0
 6140 2374 714B     		ldr	r3, .L641+24
 6141 2376 1B78     		ldrb	r3, [r3]	@ zero_extendqisi2
 6142 2378 03F00F03 		and	r3, r3, #15
 6143 237c 8B42     		cmp	r3, r1
 6144 237e 03D1     		bne	.L427
 6145              		.loc 1 1204 0 is_stmt 0 discriminator 1
 6146 2380 6F4B     		ldr	r3, .L641+28
 6147 2382 1B78     		ldrb	r3, [r3]	@ zero_extendqisi2
 6148 2384 AB42     		cmp	r3, r5
 6149 2386 1FD0     		beq	.L428
 6150              	.L427:
 6151              		.loc 1 1204 0 discriminator 3
 6152 2388 6E4B     		ldr	r3, .L641+32
 6153 238a 1B78     		ldrb	r3, [r3]	@ zero_extendqisi2
 6154 238c 03F00F03 		and	r3, r3, #15
 6155 2390 9942     		cmp	r1, r3
 6156 2392 03D1     		bne	.L429
 6157              		.loc 1 1204 0 discriminator 4
 6158 2394 6C4B     		ldr	r3, .L641+36
 6159 2396 1B78     		ldrb	r3, [r3]	@ zero_extendqisi2
 6160 2398 AB42     		cmp	r3, r5
 6161 239a 15D0     		beq	.L428
 6162              	.L429:
 6163              		.loc 1 1204 0 discriminator 6
 6164 239c 6B4B     		ldr	r3, .L641+40
 6165 239e 1B78     		ldrb	r3, [r3]	@ zero_extendqisi2
 6166 23a0 03F00F03 		and	r3, r3, #15
 6167 23a4 9942     		cmp	r1, r3
 6168 23a6 03D1     		bne	.L430
 6169              		.loc 1 1204 0 discriminator 7
 6170 23a8 694B     		ldr	r3, .L641+44
 6171 23aa 1B78     		ldrb	r3, [r3]	@ zero_extendqisi2
 6172 23ac AB42     		cmp	r3, r5
 6173 23ae 0BD0     		beq	.L428
ARM GAS  C:\Users\diego\AppData\Local\Temp\ccNdDNY6.s 			page 136


 6174              	.L430:
 6175              		.loc 1 1204 0 discriminator 9
 6176 23b0 684B     		ldr	r3, .L641+48
 6177 23b2 1B78     		ldrb	r3, [r3]	@ zero_extendqisi2
 6178 23b4 03F00F03 		and	r3, r3, #15
 6179 23b8 9942     		cmp	r1, r3
 6180 23ba 40F0E380 		bne	.L431
 6181              		.loc 1 1204 0 discriminator 10
 6182 23be 664B     		ldr	r3, .L641+52
 6183 23c0 1B78     		ldrb	r3, [r3]	@ zero_extendqisi2
 6184 23c2 AB42     		cmp	r3, r5
 6185 23c4 40F0DE80 		bne	.L431
 6186              	.L428:
1205:.\protocolo.c **** 						for(x=0;x<=5;x++){									
 6187              		.loc 1 1205 0 is_stmt 1
 6188 23c8 0022     		movs	r2, #0
 6189 23ca 594B     		ldr	r3, .L641+12
 6190 23cc 1A60     		str	r2, [r3]
 6191 23ce 08E0     		b	.L432
 6192              	.L433:
1206:.\protocolo.c **** 							write_psoc1(val,msn_tc[x]);
 6193              		.loc 1 1206 0 discriminator 3
 6194 23d0 2046     		mov	r0, r4
 6195 23d2 624A     		ldr	r2, .L641+56
 6196 23d4 D15C     		ldrb	r1, [r2, r3]	@ zero_extendqisi2
 6197 23d6 FFF7FEFF 		bl	write_psoc1
 6198              	.LVL425:
1205:.\protocolo.c **** 						for(x=0;x<=5;x++){									
 6199              		.loc 1 1205 0 discriminator 3
 6200 23da 554A     		ldr	r2, .L641+12
 6201 23dc 1368     		ldr	r3, [r2]
 6202 23de 0133     		adds	r3, r3, #1
 6203 23e0 1360     		str	r3, [r2]
 6204              	.L432:
1205:.\protocolo.c **** 						for(x=0;x<=5;x++){									
 6205              		.loc 1 1205 0 is_stmt 0 discriminator 1
 6206 23e2 534B     		ldr	r3, .L641+12
 6207 23e4 1B68     		ldr	r3, [r3]
 6208 23e6 052B     		cmp	r3, #5
 6209 23e8 F2D9     		bls	.L433
1207:.\protocolo.c **** 						}
1208:.\protocolo.c ****                         for(x=0;x<=10;x++){									
 6210              		.loc 1 1208 0 is_stmt 1
 6211 23ea 0022     		movs	r2, #0
 6212 23ec 504B     		ldr	r3, .L641+12
 6213 23ee 1A60     		str	r2, [r3]
 6214 23f0 08E0     		b	.L434
 6215              	.L435:
1209:.\protocolo.c **** 						write_psoc1(val,producto1n[x]);
 6216              		.loc 1 1209 0 discriminator 3
 6217 23f2 2046     		mov	r0, r4
 6218 23f4 5A4A     		ldr	r2, .L641+60
 6219 23f6 D15C     		ldrb	r1, [r2, r3]	@ zero_extendqisi2
 6220 23f8 FFF7FEFF 		bl	write_psoc1
 6221              	.LVL426:
1208:.\protocolo.c **** 						write_psoc1(val,producto1n[x]);
 6222              		.loc 1 1208 0 discriminator 3
ARM GAS  C:\Users\diego\AppData\Local\Temp\ccNdDNY6.s 			page 137


 6223 23fc 4C4A     		ldr	r2, .L641+12
 6224 23fe 1368     		ldr	r3, [r2]
 6225 2400 0133     		adds	r3, r3, #1
 6226 2402 1360     		str	r3, [r2]
 6227              	.L434:
1208:.\protocolo.c **** 						write_psoc1(val,producto1n[x]);
 6228              		.loc 1 1208 0 is_stmt 0 discriminator 1
 6229 2404 4A4B     		ldr	r3, .L641+12
 6230 2406 1B68     		ldr	r3, [r3]
 6231 2408 0A2B     		cmp	r3, #10
 6232 240a F2D9     		bls	.L435
1210:.\protocolo.c **** 					    }
1211:.\protocolo.c ****                         write_psoc1(val,10);						
 6233              		.loc 1 1211 0 is_stmt 1
 6234 240c 2046     		mov	r0, r4
 6235 240e 0A21     		movs	r1, #10
 6236 2410 FFF7FEFF 		bl	write_psoc1
 6237              	.LVL427:
1212:.\protocolo.c **** 						for(x=0;x<=14;x++){									
 6238              		.loc 1 1212 0
 6239 2414 0022     		movs	r2, #0
 6240 2416 464B     		ldr	r3, .L641+12
 6241 2418 1A60     		str	r2, [r3]
 6242 241a 09E0     		b	.L436
 6243              	.L437:
1213:.\protocolo.c **** 							write_psoc1(val,msn_lecact[x]);				//LECTURA ACTUAL
 6244              		.loc 1 1213 0 discriminator 3
 6245 241c 4F4A     		ldr	r2, .L641+56
 6246 241e 1344     		add	r3, r3, r2
 6247 2420 2046     		mov	r0, r4
 6248 2422 197A     		ldrb	r1, [r3, #8]	@ zero_extendqisi2
 6249 2424 FFF7FEFF 		bl	write_psoc1
 6250              	.LVL428:
1212:.\protocolo.c **** 						for(x=0;x<=14;x++){									
 6251              		.loc 1 1212 0 discriminator 3
 6252 2428 414A     		ldr	r2, .L641+12
 6253 242a 1368     		ldr	r3, [r2]
 6254 242c 0133     		adds	r3, r3, #1
 6255 242e 1360     		str	r3, [r2]
 6256              	.L436:
1212:.\protocolo.c **** 						for(x=0;x<=14;x++){									
 6257              		.loc 1 1212 0 is_stmt 0 discriminator 1
 6258 2430 3F4B     		ldr	r3, .L641+12
 6259 2432 1B68     		ldr	r3, [r3]
 6260 2434 0E2B     		cmp	r3, #14
 6261 2436 F1D9     		bls	.L437
1214:.\protocolo.c **** 						}
1215:.\protocolo.c **** 						write_psoc1(val,10);
 6262              		.loc 1 1215 0 is_stmt 1
 6263 2438 2046     		mov	r0, r4
 6264 243a 0A21     		movs	r1, #10
 6265 243c FFF7FEFF 		bl	write_psoc1
 6266              	.LVL429:
1216:.\protocolo.c **** 						print_totalesac(12,val);	
 6267              		.loc 1 1216 0
 6268 2440 0C20     		movs	r0, #12
 6269 2442 2146     		mov	r1, r4
ARM GAS  C:\Users\diego\AppData\Local\Temp\ccNdDNY6.s 			page 138


 6270 2444 FFF7FEFF 		bl	print_totalesac
 6271              	.LVL430:
1217:.\protocolo.c **** 						for(x=0;x<=16;x++){												
 6272              		.loc 1 1217 0
 6273 2448 0022     		movs	r2, #0
 6274 244a 394B     		ldr	r3, .L641+12
 6275 244c 1A60     		str	r2, [r3]
 6276 244e 09E0     		b	.L438
 6277              	.L439:
1218:.\protocolo.c **** 							write_psoc1(val,msn_lecaan[x]);				//LECTURA ANTERIOR
 6278              		.loc 1 1218 0 discriminator 3
 6279 2450 424A     		ldr	r2, .L641+56
 6280 2452 1344     		add	r3, r3, r2
 6281 2454 2046     		mov	r0, r4
 6282 2456 197E     		ldrb	r1, [r3, #24]	@ zero_extendqisi2
 6283 2458 FFF7FEFF 		bl	write_psoc1
 6284              	.LVL431:
1217:.\protocolo.c **** 						for(x=0;x<=16;x++){												
 6285              		.loc 1 1217 0 discriminator 3
 6286 245c 344A     		ldr	r2, .L641+12
 6287 245e 1368     		ldr	r3, [r2]
 6288 2460 0133     		adds	r3, r3, #1
 6289 2462 1360     		str	r3, [r2]
 6290              	.L438:
1217:.\protocolo.c **** 						for(x=0;x<=16;x++){												
 6291              		.loc 1 1217 0 is_stmt 0 discriminator 1
 6292 2464 324B     		ldr	r3, .L641+12
 6293 2466 1B68     		ldr	r3, [r3]
 6294 2468 102B     		cmp	r3, #16
 6295 246a F1D9     		bls	.L439
1219:.\protocolo.c **** 						}
1220:.\protocolo.c **** 						write_psoc1(val,10);
 6296              		.loc 1 1220 0 is_stmt 1
 6297 246c 2046     		mov	r0, r4
 6298 246e 0A21     		movs	r1, #10
 6299 2470 FFF7FEFF 		bl	write_psoc1
 6300              	.LVL432:
1221:.\protocolo.c **** 						if(dir==a.dir){
 6301              		.loc 1 1221 0
 6302 2474 324B     		ldr	r3, .L641+28
 6303 2476 1B78     		ldrb	r3, [r3]	@ zero_extendqisi2
 6304 2478 AB42     		cmp	r3, r5
 6305 247a 04D1     		bne	.L440
1222:.\protocolo.c **** 							leer_eeprom(192,25);
 6306              		.loc 1 1222 0
 6307 247c C020     		movs	r0, #192
 6308 247e 1921     		movs	r1, #25
 6309 2480 FFF7FEFF 		bl	leer_eeprom
 6310              	.LVL433:
 6311 2484 04E0     		b	.L441
 6312              	.L440:
1223:.\protocolo.c **** 						}
1224:.\protocolo.c **** 						else{
1225:.\protocolo.c **** 							leer_eeprom(281,25);
 6313              		.loc 1 1225 0
 6314 2486 40F21910 		movw	r0, #281
 6315 248a 1921     		movs	r1, #25
ARM GAS  C:\Users\diego\AppData\Local\Temp\ccNdDNY6.s 			page 139


 6316 248c FFF7FEFF 		bl	leer_eeprom
 6317              	.LVL434:
 6318              	.L441:
1226:.\protocolo.c **** 						}
1227:.\protocolo.c **** 						print_totales(val);
 6319              		.loc 1 1227 0
 6320 2490 2046     		mov	r0, r4
 6321 2492 FFF7FEFF 		bl	print_totales
 6322              	.LVL435:
1228:.\protocolo.c **** 						for(z=1;z<=12;z++){
 6323              		.loc 1 1228 0
 6324 2496 0122     		movs	r2, #1
 6325 2498 264B     		ldr	r3, .L641+16
 6326 249a 1A60     		str	r2, [r3]
 6327 249c 10E0     		b	.L442
 6328              	.L443:
1229:.\protocolo.c **** 							minuendo[z]=rventa.tdinero[z-1];
 6329              		.loc 1 1229 0 discriminator 3
 6330 249e 314A     		ldr	r2, .L641+64
 6331 24a0 1A44     		add	r2, r2, r3
 6332 24a2 92F8CA10 		ldrb	r1, [r2, #202]	@ zero_extendqisi2
 6333 24a6 10AA     		add	r2, sp, #64
 6334 24a8 1A44     		add	r2, r2, r3
 6335 24aa 02F82C1C 		strb	r1, [r2, #-44]
1230:.\protocolo.c **** 							sustraendo[z]=buffer_i2c[z+12];
 6336              		.loc 1 1230 0 discriminator 3
 6337 24ae 03F10C01 		add	r1, r3, #12
 6338 24b2 2D48     		ldr	r0, .L641+68
 6339 24b4 415C     		ldrb	r1, [r0, r1]	@ zero_extendqisi2
 6340 24b6 02F83C1C 		strb	r1, [r2, #-60]
1228:.\protocolo.c **** 						for(z=1;z<=12;z++){
 6341              		.loc 1 1228 0 discriminator 3
 6342 24ba 0133     		adds	r3, r3, #1
 6343 24bc 1D4A     		ldr	r2, .L641+16
 6344 24be 1360     		str	r3, [r2]
 6345              	.L442:
1228:.\protocolo.c **** 						for(z=1;z<=12;z++){
 6346              		.loc 1 1228 0 is_stmt 0 discriminator 1
 6347 24c0 1C4B     		ldr	r3, .L641+16
 6348 24c2 1B68     		ldr	r3, [r3]
 6349 24c4 0C2B     		cmp	r3, #12
 6350 24c6 EAD9     		bls	.L443
1231:.\protocolo.c **** 						}
1232:.\protocolo.c **** 						minuendo[0]=12;
 6351              		.loc 1 1232 0 is_stmt 1
 6352 24c8 10A9     		add	r1, sp, #64
 6353 24ca 0C23     		movs	r3, #12
 6354 24cc 01F82C3D 		strb	r3, [r1, #-44]!
1233:.\protocolo.c **** 						operacion(2,minuendo,sustraendo);
 6355              		.loc 1 1233 0
 6356 24d0 0220     		movs	r0, #2
 6357 24d2 01AA     		add	r2, sp, #4
 6358 24d4 FFF7FEFF 		bl	operacion
 6359              	.LVL436:
1234:.\protocolo.c **** 						for(x=0;x<=17;x++){									
 6360              		.loc 1 1234 0
 6361 24d8 0022     		movs	r2, #0
ARM GAS  C:\Users\diego\AppData\Local\Temp\ccNdDNY6.s 			page 140


 6362 24da 154B     		ldr	r3, .L641+12
 6363 24dc 1A60     		str	r2, [r3]
 6364 24de 0AE0     		b	.L444
 6365              	.L445:
1235:.\protocolo.c **** 							write_psoc1(val,msn_tventas[x]);				//Total de ventas
 6366              		.loc 1 1235 0 discriminator 3
 6367 24e0 1E4A     		ldr	r2, .L641+56
 6368 24e2 1344     		add	r3, r3, r2
 6369 24e4 2046     		mov	r0, r4
 6370 24e6 93F82C10 		ldrb	r1, [r3, #44]	@ zero_extendqisi2
 6371 24ea FFF7FEFF 		bl	write_psoc1
 6372              	.LVL437:
1234:.\protocolo.c **** 						for(x=0;x<=17;x++){									
 6373              		.loc 1 1234 0 discriminator 3
 6374 24ee 104A     		ldr	r2, .L641+12
 6375 24f0 1368     		ldr	r3, [r2]
 6376 24f2 0133     		adds	r3, r3, #1
 6377 24f4 1360     		str	r3, [r2]
 6378              	.L444:
1234:.\protocolo.c **** 						for(x=0;x<=17;x++){									
 6379              		.loc 1 1234 0 is_stmt 0 discriminator 1
 6380 24f6 0E4B     		ldr	r3, .L641+12
 6381 24f8 1B68     		ldr	r3, [r3]
 6382 24fa 112B     		cmp	r3, #17
 6383 24fc F0D9     		bls	.L445
1236:.\protocolo.c **** 						}
1237:.\protocolo.c **** 						print_valor(resultado,val);
 6384              		.loc 1 1237 0 is_stmt 1
 6385 24fe 1B48     		ldr	r0, .L641+72
 6386 2500 2146     		mov	r1, r4
 6387 2502 FFF7FEFF 		bl	print_valor
 6388              	.LVL438:
1238:.\protocolo.c **** 						if(dir==a.dir){
 6389              		.loc 1 1238 0
 6390 2506 0E4B     		ldr	r3, .L641+28
 6391 2508 1B78     		ldrb	r3, [r3]	@ zero_extendqisi2
 6392 250a AB42     		cmp	r3, r5
 6393 250c 30D1     		bne	.L446
1239:.\protocolo.c **** 							write_eeprom(192,corte);	
 6394              		.loc 1 1239 0
 6395 250e C020     		movs	r0, #192
 6396 2510 09A9     		add	r1, sp, #36
 6397 2512 FFF7FEFF 		bl	write_eeprom
 6398              	.LVL439:
1240:.\protocolo.c **** 							write_eeprom(512,resultado);
 6399              		.loc 1 1240 0
 6400 2516 4FF40070 		mov	r0, #512
 6401 251a 1449     		ldr	r1, .L641+72
 6402 251c FFF7FEFF 		bl	write_eeprom
 6403              	.LVL440:
 6404 2520 30E0     		b	.L431
 6405              	.L642:
 6406 2522 00BF     		.align	2
 6407              	.L641:
 6408 2524 00000000 		.word	Surtidor_rxBuffer
 6409 2528 00000000 		.word	y
 6410 252c 00000000 		.word	rventa
ARM GAS  C:\Users\diego\AppData\Local\Temp\ccNdDNY6.s 			page 141


 6411 2530 00000000 		.word	x
 6412 2534 00000000 		.word	z
 6413 2538 F3FFFFFF 		.word	rventa-13
 6414 253c 00000000 		.word	producto1
 6415 2540 00000000 		.word	a
 6416 2544 00000000 		.word	producto1b
 6417 2548 00000000 		.word	b
 6418 254c 00000000 		.word	producto1c
 6419 2550 00000000 		.word	c
 6420 2554 00000000 		.word	producto1d
 6421 2558 00000000 		.word	d
 6422 255c 00000000 		.word	.LANCHOR1
 6423 2560 00000000 		.word	producto1n
 6424 2564 FFFFFFFF 		.word	rventa-1
 6425 2568 00000000 		.word	buffer_i2c
 6426 256c 00000000 		.word	resultado
 6427              	.L446:
1241:.\protocolo.c **** 						}
1242:.\protocolo.c **** 						else{
1243:.\protocolo.c **** 							write_eeprom(281,corte);
 6428              		.loc 1 1243 0
 6429 2570 40F21910 		movw	r0, #281
 6430 2574 09A9     		add	r1, sp, #36
 6431 2576 FFF7FEFF 		bl	write_eeprom
 6432              	.LVL441:
1244:.\protocolo.c **** 							write_eeprom(551,resultado);
 6433              		.loc 1 1244 0
 6434 257a 40F22720 		movw	r0, #551
 6435 257e A649     		ldr	r1, .L643
 6436 2580 FFF7FEFF 		bl	write_eeprom
 6437              	.LVL442:
 6438              	.L431:
1245:.\protocolo.c **** 						}
1246:.\protocolo.c **** 					}
1247:.\protocolo.c **** 					if(((rventa.manguera==(producto2&0x0F))&&(dir==a.dir))||((rventa.manguera==(producto2b&0x0F))&
 6439              		.loc 1 1247 0
 6440 2584 A54B     		ldr	r3, .L643+4
 6441 2586 93F8E030 		ldrb	r3, [r3, #224]	@ zero_extendqisi2
 6442 258a A54A     		ldr	r2, .L643+8
 6443 258c 1278     		ldrb	r2, [r2]	@ zero_extendqisi2
 6444 258e 02F00F02 		and	r2, r2, #15
 6445 2592 9A42     		cmp	r2, r3
 6446 2594 03D1     		bne	.L447
 6447              		.loc 1 1247 0 is_stmt 0 discriminator 1
 6448 2596 A34A     		ldr	r2, .L643+12
 6449 2598 1278     		ldrb	r2, [r2]	@ zero_extendqisi2
 6450 259a AA42     		cmp	r2, r5
 6451 259c 1FD0     		beq	.L448
 6452              	.L447:
 6453              		.loc 1 1247 0 discriminator 3
 6454 259e A24A     		ldr	r2, .L643+16
 6455 25a0 1278     		ldrb	r2, [r2]	@ zero_extendqisi2
 6456 25a2 02F00F02 		and	r2, r2, #15
 6457 25a6 9342     		cmp	r3, r2
 6458 25a8 03D1     		bne	.L449
 6459              		.loc 1 1247 0 discriminator 4
 6460 25aa A04A     		ldr	r2, .L643+20
ARM GAS  C:\Users\diego\AppData\Local\Temp\ccNdDNY6.s 			page 142


 6461 25ac 1278     		ldrb	r2, [r2]	@ zero_extendqisi2
 6462 25ae AA42     		cmp	r2, r5
 6463 25b0 15D0     		beq	.L448
 6464              	.L449:
 6465              		.loc 1 1247 0 discriminator 6
 6466 25b2 9F4A     		ldr	r2, .L643+24
 6467 25b4 1278     		ldrb	r2, [r2]	@ zero_extendqisi2
 6468 25b6 02F00F02 		and	r2, r2, #15
 6469 25ba 9342     		cmp	r3, r2
 6470 25bc 03D1     		bne	.L450
 6471              		.loc 1 1247 0 discriminator 7
 6472 25be 9D4A     		ldr	r2, .L643+28
 6473 25c0 1278     		ldrb	r2, [r2]	@ zero_extendqisi2
 6474 25c2 AA42     		cmp	r2, r5
 6475 25c4 0BD0     		beq	.L448
 6476              	.L450:
 6477              		.loc 1 1247 0 discriminator 9
 6478 25c6 9C4A     		ldr	r2, .L643+32
 6479 25c8 1278     		ldrb	r2, [r2]	@ zero_extendqisi2
 6480 25ca 02F00F02 		and	r2, r2, #15
 6481 25ce 9342     		cmp	r3, r2
 6482 25d0 40F0C080 		bne	.L451
 6483              		.loc 1 1247 0 discriminator 10
 6484 25d4 994B     		ldr	r3, .L643+36
 6485 25d6 1B78     		ldrb	r3, [r3]	@ zero_extendqisi2
 6486 25d8 AB42     		cmp	r3, r5
 6487 25da 40F0BB80 		bne	.L451
 6488              	.L448:
1248:.\protocolo.c **** 						for(x=0;x<=5;x++){									
 6489              		.loc 1 1248 0 is_stmt 1
 6490 25de 0022     		movs	r2, #0
 6491 25e0 974B     		ldr	r3, .L643+40
 6492 25e2 1A60     		str	r2, [r3]
 6493 25e4 08E0     		b	.L452
 6494              	.L453:
1249:.\protocolo.c **** 						    write_psoc1(val,msn_tc[x]);
 6495              		.loc 1 1249 0 discriminator 3
 6496 25e6 2046     		mov	r0, r4
 6497 25e8 964A     		ldr	r2, .L643+44
 6498 25ea D15C     		ldrb	r1, [r2, r3]	@ zero_extendqisi2
 6499 25ec FFF7FEFF 		bl	write_psoc1
 6500              	.LVL443:
1248:.\protocolo.c **** 						for(x=0;x<=5;x++){									
 6501              		.loc 1 1248 0 discriminator 3
 6502 25f0 934A     		ldr	r2, .L643+40
 6503 25f2 1368     		ldr	r3, [r2]
 6504 25f4 0133     		adds	r3, r3, #1
 6505 25f6 1360     		str	r3, [r2]
 6506              	.L452:
1248:.\protocolo.c **** 						for(x=0;x<=5;x++){									
 6507              		.loc 1 1248 0 is_stmt 0 discriminator 1
 6508 25f8 914B     		ldr	r3, .L643+40
 6509 25fa 1B68     		ldr	r3, [r3]
 6510 25fc 052B     		cmp	r3, #5
 6511 25fe F2D9     		bls	.L453
1250:.\protocolo.c **** 					    }
1251:.\protocolo.c **** 					    write_psoc1(val,10);
ARM GAS  C:\Users\diego\AppData\Local\Temp\ccNdDNY6.s 			page 143


 6512              		.loc 1 1251 0 is_stmt 1
 6513 2600 2046     		mov	r0, r4
 6514 2602 0A21     		movs	r1, #10
 6515 2604 FFF7FEFF 		bl	write_psoc1
 6516              	.LVL444:
1252:.\protocolo.c ****                         for(x=0;x<=10;x++){									
 6517              		.loc 1 1252 0
 6518 2608 0022     		movs	r2, #0
 6519 260a 8D4B     		ldr	r3, .L643+40
 6520 260c 1A60     		str	r2, [r3]
 6521 260e 08E0     		b	.L454
 6522              	.L455:
1253:.\protocolo.c **** 						    write_psoc1(val,producto2n[x]);
 6523              		.loc 1 1253 0 discriminator 3
 6524 2610 2046     		mov	r0, r4
 6525 2612 8D4A     		ldr	r2, .L643+48
 6526 2614 D15C     		ldrb	r1, [r2, r3]	@ zero_extendqisi2
 6527 2616 FFF7FEFF 		bl	write_psoc1
 6528              	.LVL445:
1252:.\protocolo.c ****                         for(x=0;x<=10;x++){									
 6529              		.loc 1 1252 0 discriminator 3
 6530 261a 894A     		ldr	r2, .L643+40
 6531 261c 1368     		ldr	r3, [r2]
 6532 261e 0133     		adds	r3, r3, #1
 6533 2620 1360     		str	r3, [r2]
 6534              	.L454:
1252:.\protocolo.c ****                         for(x=0;x<=10;x++){									
 6535              		.loc 1 1252 0 is_stmt 0 discriminator 1
 6536 2622 874B     		ldr	r3, .L643+40
 6537 2624 1B68     		ldr	r3, [r3]
 6538 2626 0A2B     		cmp	r3, #10
 6539 2628 F2D9     		bls	.L455
1254:.\protocolo.c **** 					    }
1255:.\protocolo.c ****                         write_psoc1(val,10);
 6540              		.loc 1 1255 0 is_stmt 1
 6541 262a 2046     		mov	r0, r4
 6542 262c 0A21     		movs	r1, #10
 6543 262e FFF7FEFF 		bl	write_psoc1
 6544              	.LVL446:
1256:.\protocolo.c **** 						for(x=0;x<=14;x++){									
 6545              		.loc 1 1256 0
 6546 2632 0022     		movs	r2, #0
 6547 2634 824B     		ldr	r3, .L643+40
 6548 2636 1A60     		str	r2, [r3]
 6549 2638 09E0     		b	.L456
 6550              	.L457:
1257:.\protocolo.c **** 							write_psoc1(val,msn_lecact[x]);				//LECTURA ACTUAL
 6551              		.loc 1 1257 0 discriminator 3
 6552 263a 824A     		ldr	r2, .L643+44
 6553 263c 1344     		add	r3, r3, r2
 6554 263e 2046     		mov	r0, r4
 6555 2640 197A     		ldrb	r1, [r3, #8]	@ zero_extendqisi2
 6556 2642 FFF7FEFF 		bl	write_psoc1
 6557              	.LVL447:
1256:.\protocolo.c **** 						for(x=0;x<=14;x++){									
 6558              		.loc 1 1256 0 discriminator 3
 6559 2646 7E4A     		ldr	r2, .L643+40
ARM GAS  C:\Users\diego\AppData\Local\Temp\ccNdDNY6.s 			page 144


 6560 2648 1368     		ldr	r3, [r2]
 6561 264a 0133     		adds	r3, r3, #1
 6562 264c 1360     		str	r3, [r2]
 6563              	.L456:
1256:.\protocolo.c **** 						for(x=0;x<=14;x++){									
 6564              		.loc 1 1256 0 is_stmt 0 discriminator 1
 6565 264e 7C4B     		ldr	r3, .L643+40
 6566 2650 1B68     		ldr	r3, [r3]
 6567 2652 0E2B     		cmp	r3, #14
 6568 2654 F1D9     		bls	.L457
1258:.\protocolo.c **** 						}
1259:.\protocolo.c **** 						write_psoc1(val,10);
 6569              		.loc 1 1259 0 is_stmt 1
 6570 2656 2046     		mov	r0, r4
 6571 2658 0A21     		movs	r1, #10
 6572 265a FFF7FEFF 		bl	write_psoc1
 6573              	.LVL448:
1260:.\protocolo.c **** 						print_totalesac(12,val);	
 6574              		.loc 1 1260 0
 6575 265e 0C20     		movs	r0, #12
 6576 2660 2146     		mov	r1, r4
 6577 2662 FFF7FEFF 		bl	print_totalesac
 6578              	.LVL449:
1261:.\protocolo.c **** 						for(x=0;x<=16;x++){												
 6579              		.loc 1 1261 0
 6580 2666 0022     		movs	r2, #0
 6581 2668 754B     		ldr	r3, .L643+40
 6582 266a 1A60     		str	r2, [r3]
 6583 266c 09E0     		b	.L458
 6584              	.L459:
1262:.\protocolo.c **** 							write_psoc1(val,msn_lecaan[x]);				//LECTURA ANTERIOR
 6585              		.loc 1 1262 0 discriminator 3
 6586 266e 754A     		ldr	r2, .L643+44
 6587 2670 1344     		add	r3, r3, r2
 6588 2672 2046     		mov	r0, r4
 6589 2674 197E     		ldrb	r1, [r3, #24]	@ zero_extendqisi2
 6590 2676 FFF7FEFF 		bl	write_psoc1
 6591              	.LVL450:
1261:.\protocolo.c **** 						for(x=0;x<=16;x++){												
 6592              		.loc 1 1261 0 discriminator 3
 6593 267a 714A     		ldr	r2, .L643+40
 6594 267c 1368     		ldr	r3, [r2]
 6595 267e 0133     		adds	r3, r3, #1
 6596 2680 1360     		str	r3, [r2]
 6597              	.L458:
1261:.\protocolo.c **** 						for(x=0;x<=16;x++){												
 6598              		.loc 1 1261 0 is_stmt 0 discriminator 1
 6599 2682 6F4B     		ldr	r3, .L643+40
 6600 2684 1B68     		ldr	r3, [r3]
 6601 2686 102B     		cmp	r3, #16
 6602 2688 F1D9     		bls	.L459
1263:.\protocolo.c **** 						}
1264:.\protocolo.c **** 						write_psoc1(val,10);
 6603              		.loc 1 1264 0 is_stmt 1
 6604 268a 2046     		mov	r0, r4
 6605 268c 0A21     		movs	r1, #10
 6606 268e FFF7FEFF 		bl	write_psoc1
ARM GAS  C:\Users\diego\AppData\Local\Temp\ccNdDNY6.s 			page 145


 6607              	.LVL451:
1265:.\protocolo.c **** 						if(dir==a.dir){
 6608              		.loc 1 1265 0
 6609 2692 644B     		ldr	r3, .L643+12
 6610 2694 1B78     		ldrb	r3, [r3]	@ zero_extendqisi2
 6611 2696 AB42     		cmp	r3, r5
 6612 2698 04D1     		bne	.L460
1266:.\protocolo.c **** 							leer_eeprom(217,25);
 6613              		.loc 1 1266 0
 6614 269a D920     		movs	r0, #217
 6615 269c 1921     		movs	r1, #25
 6616 269e FFF7FEFF 		bl	leer_eeprom
 6617              	.LVL452:
 6618 26a2 04E0     		b	.L461
 6619              	.L460:
1267:.\protocolo.c **** 						}
1268:.\protocolo.c **** 						else{
1269:.\protocolo.c **** 							leer_eeprom(320,25);
 6620              		.loc 1 1269 0
 6621 26a4 4FF4A070 		mov	r0, #320
 6622 26a8 1921     		movs	r1, #25
 6623 26aa FFF7FEFF 		bl	leer_eeprom
 6624              	.LVL453:
 6625              	.L461:
1270:.\protocolo.c **** 						}
1271:.\protocolo.c **** 						print_totales(val);
 6626              		.loc 1 1271 0
 6627 26ae 2046     		mov	r0, r4
 6628 26b0 FFF7FEFF 		bl	print_totales
 6629              	.LVL454:
1272:.\protocolo.c **** 						for(z=1;z<=12;z++){
 6630              		.loc 1 1272 0
 6631 26b4 0122     		movs	r2, #1
 6632 26b6 654B     		ldr	r3, .L643+52
 6633 26b8 1A60     		str	r2, [r3]
 6634 26ba 10E0     		b	.L462
 6635              	.L463:
1273:.\protocolo.c **** 							minuendo[z]=rventa.tdinero[z-1];
 6636              		.loc 1 1273 0 discriminator 3
 6637 26bc 644A     		ldr	r2, .L643+56
 6638 26be 1A44     		add	r2, r2, r3
 6639 26c0 92F8CA10 		ldrb	r1, [r2, #202]	@ zero_extendqisi2
 6640 26c4 10AA     		add	r2, sp, #64
 6641 26c6 1A44     		add	r2, r2, r3
 6642 26c8 02F82C1C 		strb	r1, [r2, #-44]
1274:.\protocolo.c **** 							sustraendo[z]=buffer_i2c[z+12];
 6643              		.loc 1 1274 0 discriminator 3
 6644 26cc 03F10C01 		add	r1, r3, #12
 6645 26d0 6048     		ldr	r0, .L643+60
 6646 26d2 415C     		ldrb	r1, [r0, r1]	@ zero_extendqisi2
 6647 26d4 02F83C1C 		strb	r1, [r2, #-60]
1272:.\protocolo.c **** 						for(z=1;z<=12;z++){
 6648              		.loc 1 1272 0 discriminator 3
 6649 26d8 0133     		adds	r3, r3, #1
 6650 26da 5C4A     		ldr	r2, .L643+52
 6651 26dc 1360     		str	r3, [r2]
 6652              	.L462:
ARM GAS  C:\Users\diego\AppData\Local\Temp\ccNdDNY6.s 			page 146


1272:.\protocolo.c **** 						for(z=1;z<=12;z++){
 6653              		.loc 1 1272 0 is_stmt 0 discriminator 1
 6654 26de 5B4B     		ldr	r3, .L643+52
 6655 26e0 1B68     		ldr	r3, [r3]
 6656 26e2 0C2B     		cmp	r3, #12
 6657 26e4 EAD9     		bls	.L463
1275:.\protocolo.c **** 						}
1276:.\protocolo.c **** 						minuendo[0]=12;
 6658              		.loc 1 1276 0 is_stmt 1
 6659 26e6 10A9     		add	r1, sp, #64
 6660 26e8 0C23     		movs	r3, #12
 6661 26ea 01F82C3D 		strb	r3, [r1, #-44]!
1277:.\protocolo.c **** 						operacion(2,minuendo,sustraendo);
 6662              		.loc 1 1277 0
 6663 26ee 0220     		movs	r0, #2
 6664 26f0 01AA     		add	r2, sp, #4
 6665 26f2 FFF7FEFF 		bl	operacion
 6666              	.LVL455:
1278:.\protocolo.c **** 						for(x=0;x<=17;x++){									
 6667              		.loc 1 1278 0
 6668 26f6 0022     		movs	r2, #0
 6669 26f8 514B     		ldr	r3, .L643+40
 6670 26fa 1A60     		str	r2, [r3]
 6671 26fc 0AE0     		b	.L464
 6672              	.L465:
1279:.\protocolo.c **** 							write_psoc1(val,msn_tventas[x]);				//Total de ventas
 6673              		.loc 1 1279 0 discriminator 3
 6674 26fe 514A     		ldr	r2, .L643+44
 6675 2700 1344     		add	r3, r3, r2
 6676 2702 2046     		mov	r0, r4
 6677 2704 93F82C10 		ldrb	r1, [r3, #44]	@ zero_extendqisi2
 6678 2708 FFF7FEFF 		bl	write_psoc1
 6679              	.LVL456:
1278:.\protocolo.c **** 						for(x=0;x<=17;x++){									
 6680              		.loc 1 1278 0 discriminator 3
 6681 270c 4C4A     		ldr	r2, .L643+40
 6682 270e 1368     		ldr	r3, [r2]
 6683 2710 0133     		adds	r3, r3, #1
 6684 2712 1360     		str	r3, [r2]
 6685              	.L464:
1278:.\protocolo.c **** 						for(x=0;x<=17;x++){									
 6686              		.loc 1 1278 0 is_stmt 0 discriminator 1
 6687 2714 4A4B     		ldr	r3, .L643+40
 6688 2716 1B68     		ldr	r3, [r3]
 6689 2718 112B     		cmp	r3, #17
 6690 271a F0D9     		bls	.L465
1280:.\protocolo.c **** 						}
1281:.\protocolo.c **** 						print_valor(resultado,val);				
 6691              		.loc 1 1281 0 is_stmt 1
 6692 271c 3E48     		ldr	r0, .L643
 6693 271e 2146     		mov	r1, r4
 6694 2720 FFF7FEFF 		bl	print_valor
 6695              	.LVL457:
1282:.\protocolo.c **** 						if(dir==a.dir){
 6696              		.loc 1 1282 0
 6697 2724 3F4B     		ldr	r3, .L643+12
 6698 2726 1B78     		ldrb	r3, [r3]	@ zero_extendqisi2
ARM GAS  C:\Users\diego\AppData\Local\Temp\ccNdDNY6.s 			page 147


 6699 2728 AB42     		cmp	r3, r5
 6700 272a 09D1     		bne	.L466
1283:.\protocolo.c **** 							write_eeprom(217,corte);
 6701              		.loc 1 1283 0
 6702 272c D920     		movs	r0, #217
 6703 272e 09A9     		add	r1, sp, #36
 6704 2730 FFF7FEFF 		bl	write_eeprom
 6705              	.LVL458:
1284:.\protocolo.c **** 							write_eeprom(538,resultado);
 6706              		.loc 1 1284 0
 6707 2734 40F21A20 		movw	r0, #538
 6708 2738 3749     		ldr	r1, .L643
 6709 273a FFF7FEFF 		bl	write_eeprom
 6710              	.LVL459:
 6711 273e 09E0     		b	.L451
 6712              	.L466:
1285:.\protocolo.c **** 						}
1286:.\protocolo.c **** 						else{
1287:.\protocolo.c **** 							write_eeprom(320,corte);
 6713              		.loc 1 1287 0
 6714 2740 4FF4A070 		mov	r0, #320
 6715 2744 09A9     		add	r1, sp, #36
 6716 2746 FFF7FEFF 		bl	write_eeprom
 6717              	.LVL460:
1288:.\protocolo.c **** 							write_eeprom(576,resultado);
 6718              		.loc 1 1288 0
 6719 274a 4FF41070 		mov	r0, #576
 6720 274e 3249     		ldr	r1, .L643
 6721 2750 FFF7FEFF 		bl	write_eeprom
 6722              	.LVL461:
 6723              	.L451:
1289:.\protocolo.c **** 						}				
1290:.\protocolo.c **** 					}
1291:.\protocolo.c **** 					if(((rventa.manguera==(producto3&0x0F))&&(dir==a.dir))||((rventa.manguera==(producto3b&0x0F))&
 6724              		.loc 1 1291 0
 6725 2754 314B     		ldr	r3, .L643+4
 6726 2756 93F8E020 		ldrb	r2, [r3, #224]	@ zero_extendqisi2
 6727 275a 3F4B     		ldr	r3, .L643+64
 6728 275c 1B78     		ldrb	r3, [r3]	@ zero_extendqisi2
 6729 275e 03F00F03 		and	r3, r3, #15
 6730 2762 9342     		cmp	r3, r2
 6731 2764 03D1     		bne	.L467
 6732              		.loc 1 1291 0 is_stmt 0 discriminator 1
 6733 2766 2F4B     		ldr	r3, .L643+12
 6734 2768 1B78     		ldrb	r3, [r3]	@ zero_extendqisi2
 6735 276a AB42     		cmp	r3, r5
 6736 276c 0BD0     		beq	.L468
 6737              	.L467:
 6738              		.loc 1 1291 0 discriminator 3
 6739 276e 3B4B     		ldr	r3, .L643+68
 6740 2770 1B78     		ldrb	r3, [r3]	@ zero_extendqisi2
 6741 2772 03F00F03 		and	r3, r3, #15
 6742 2776 9A42     		cmp	r2, r3
 6743 2778 40F0E980 		bne	.L469
 6744              		.loc 1 1291 0 discriminator 4
 6745 277c 2B4B     		ldr	r3, .L643+20
 6746 277e 1B78     		ldrb	r3, [r3]	@ zero_extendqisi2
ARM GAS  C:\Users\diego\AppData\Local\Temp\ccNdDNY6.s 			page 148


 6747 2780 AB42     		cmp	r3, r5
 6748 2782 40F0E480 		bne	.L469
 6749              	.L468:
1292:.\protocolo.c **** 						for(x=0;x<=5;x++){									
 6750              		.loc 1 1292 0 is_stmt 1
 6751 2786 0022     		movs	r2, #0
 6752 2788 2D4B     		ldr	r3, .L643+40
 6753 278a 1A60     		str	r2, [r3]
 6754 278c 08E0     		b	.L470
 6755              	.L471:
1293:.\protocolo.c **** 						    write_psoc1(val,msn_tc[x]);
 6756              		.loc 1 1293 0 discriminator 3
 6757 278e 2046     		mov	r0, r4
 6758 2790 2C4A     		ldr	r2, .L643+44
 6759 2792 D15C     		ldrb	r1, [r2, r3]	@ zero_extendqisi2
 6760 2794 FFF7FEFF 		bl	write_psoc1
 6761              	.LVL462:
1292:.\protocolo.c **** 						for(x=0;x<=5;x++){									
 6762              		.loc 1 1292 0 discriminator 3
 6763 2798 294A     		ldr	r2, .L643+40
 6764 279a 1368     		ldr	r3, [r2]
 6765 279c 0133     		adds	r3, r3, #1
 6766 279e 1360     		str	r3, [r2]
 6767              	.L470:
1292:.\protocolo.c **** 						for(x=0;x<=5;x++){									
 6768              		.loc 1 1292 0 is_stmt 0 discriminator 1
 6769 27a0 274B     		ldr	r3, .L643+40
 6770 27a2 1B68     		ldr	r3, [r3]
 6771 27a4 052B     		cmp	r3, #5
 6772 27a6 F2D9     		bls	.L471
1294:.\protocolo.c **** 					    }
1295:.\protocolo.c **** 					    write_psoc1(val,10);
 6773              		.loc 1 1295 0 is_stmt 1
 6774 27a8 2046     		mov	r0, r4
 6775 27aa 0A21     		movs	r1, #10
 6776 27ac FFF7FEFF 		bl	write_psoc1
 6777              	.LVL463:
1296:.\protocolo.c ****                         for(x=0;x<=10;x++){									
 6778              		.loc 1 1296 0
 6779 27b0 0022     		movs	r2, #0
 6780 27b2 234B     		ldr	r3, .L643+40
 6781 27b4 1A60     		str	r2, [r3]
 6782 27b6 08E0     		b	.L472
 6783              	.L473:
1297:.\protocolo.c **** 						    write_psoc1(val,producto3n[x]);
 6784              		.loc 1 1297 0 discriminator 3
 6785 27b8 2046     		mov	r0, r4
 6786 27ba 294A     		ldr	r2, .L643+72
 6787 27bc D15C     		ldrb	r1, [r2, r3]	@ zero_extendqisi2
 6788 27be FFF7FEFF 		bl	write_psoc1
 6789              	.LVL464:
1296:.\protocolo.c ****                         for(x=0;x<=10;x++){									
 6790              		.loc 1 1296 0 discriminator 3
 6791 27c2 1F4A     		ldr	r2, .L643+40
 6792 27c4 1368     		ldr	r3, [r2]
 6793 27c6 0133     		adds	r3, r3, #1
 6794 27c8 1360     		str	r3, [r2]
ARM GAS  C:\Users\diego\AppData\Local\Temp\ccNdDNY6.s 			page 149


 6795              	.L472:
1296:.\protocolo.c ****                         for(x=0;x<=10;x++){									
 6796              		.loc 1 1296 0 is_stmt 0 discriminator 1
 6797 27ca 1D4B     		ldr	r3, .L643+40
 6798 27cc 1B68     		ldr	r3, [r3]
 6799 27ce 0A2B     		cmp	r3, #10
 6800 27d0 F2D9     		bls	.L473
1298:.\protocolo.c **** 					    }
1299:.\protocolo.c ****                         write_psoc1(val,10);
 6801              		.loc 1 1299 0 is_stmt 1
 6802 27d2 2046     		mov	r0, r4
 6803 27d4 0A21     		movs	r1, #10
 6804 27d6 FFF7FEFF 		bl	write_psoc1
 6805              	.LVL465:
1300:.\protocolo.c **** 						for(x=0;x<=14;x++){									
 6806              		.loc 1 1300 0
 6807 27da 0022     		movs	r2, #0
 6808 27dc 184B     		ldr	r3, .L643+40
 6809 27de 1A60     		str	r2, [r3]
 6810 27e0 09E0     		b	.L474
 6811              	.L475:
1301:.\protocolo.c **** 							write_psoc1(val,msn_lecact[x]);				//LECTURA ACTUAL
 6812              		.loc 1 1301 0 discriminator 3
 6813 27e2 184A     		ldr	r2, .L643+44
 6814 27e4 1344     		add	r3, r3, r2
 6815 27e6 2046     		mov	r0, r4
 6816 27e8 197A     		ldrb	r1, [r3, #8]	@ zero_extendqisi2
 6817 27ea FFF7FEFF 		bl	write_psoc1
 6818              	.LVL466:
1300:.\protocolo.c **** 						for(x=0;x<=14;x++){									
 6819              		.loc 1 1300 0 discriminator 3
 6820 27ee 144A     		ldr	r2, .L643+40
 6821 27f0 1368     		ldr	r3, [r2]
 6822 27f2 0133     		adds	r3, r3, #1
 6823 27f4 1360     		str	r3, [r2]
 6824              	.L474:
1300:.\protocolo.c **** 						for(x=0;x<=14;x++){									
 6825              		.loc 1 1300 0 is_stmt 0 discriminator 1
 6826 27f6 124B     		ldr	r3, .L643+40
 6827 27f8 1B68     		ldr	r3, [r3]
 6828 27fa 0E2B     		cmp	r3, #14
 6829 27fc F1D9     		bls	.L475
1302:.\protocolo.c **** 						}
1303:.\protocolo.c **** 						write_psoc1(val,10);
 6830              		.loc 1 1303 0 is_stmt 1
 6831 27fe 2046     		mov	r0, r4
 6832 2800 0A21     		movs	r1, #10
 6833 2802 FFF7FEFF 		bl	write_psoc1
 6834              	.LVL467:
1304:.\protocolo.c **** 						print_totalesac(12,val);	
 6835              		.loc 1 1304 0
 6836 2806 0C20     		movs	r0, #12
 6837 2808 2146     		mov	r1, r4
 6838 280a FFF7FEFF 		bl	print_totalesac
 6839              	.LVL468:
1305:.\protocolo.c **** 						for(x=0;x<=16;x++){												
 6840              		.loc 1 1305 0
ARM GAS  C:\Users\diego\AppData\Local\Temp\ccNdDNY6.s 			page 150


 6841 280e 0022     		movs	r2, #0
 6842 2810 0B4B     		ldr	r3, .L643+40
 6843 2812 1A60     		str	r2, [r3]
 6844 2814 30E0     		b	.L476
 6845              	.L644:
 6846 2816 00BF     		.align	2
 6847              	.L643:
 6848 2818 00000000 		.word	resultado
 6849 281c 00000000 		.word	rventa
 6850 2820 00000000 		.word	producto2
 6851 2824 00000000 		.word	a
 6852 2828 00000000 		.word	producto2b
 6853 282c 00000000 		.word	b
 6854 2830 00000000 		.word	producto2d
 6855 2834 00000000 		.word	d
 6856 2838 00000000 		.word	producto2c
 6857 283c 00000000 		.word	c
 6858 2840 00000000 		.word	x
 6859 2844 00000000 		.word	.LANCHOR1
 6860 2848 00000000 		.word	producto2n
 6861 284c 00000000 		.word	z
 6862 2850 FFFFFFFF 		.word	rventa-1
 6863 2854 00000000 		.word	buffer_i2c
 6864 2858 00000000 		.word	producto3
 6865 285c 00000000 		.word	producto3b
 6866 2860 00000000 		.word	producto3n
 6867              	.L477:
1306:.\protocolo.c **** 							write_psoc1(val,msn_lecaan[x]);				//LECTURA ANTERIOR
 6868              		.loc 1 1306 0 discriminator 3
 6869 2864 AC4A     		ldr	r2, .L645
 6870 2866 1344     		add	r3, r3, r2
 6871 2868 2046     		mov	r0, r4
 6872 286a 197E     		ldrb	r1, [r3, #24]	@ zero_extendqisi2
 6873 286c FFF7FEFF 		bl	write_psoc1
 6874              	.LVL469:
1305:.\protocolo.c **** 						for(x=0;x<=16;x++){												
 6875              		.loc 1 1305 0 discriminator 3
 6876 2870 AA4A     		ldr	r2, .L645+4
 6877 2872 1368     		ldr	r3, [r2]
 6878 2874 0133     		adds	r3, r3, #1
 6879 2876 1360     		str	r3, [r2]
 6880              	.L476:
1305:.\protocolo.c **** 						for(x=0;x<=16;x++){												
 6881              		.loc 1 1305 0 is_stmt 0 discriminator 1
 6882 2878 A84B     		ldr	r3, .L645+4
 6883 287a 1B68     		ldr	r3, [r3]
 6884 287c 102B     		cmp	r3, #16
 6885 287e F1D9     		bls	.L477
1307:.\protocolo.c **** 						}
1308:.\protocolo.c **** 						write_psoc1(val,10);
 6886              		.loc 1 1308 0 is_stmt 1
 6887 2880 2046     		mov	r0, r4
 6888 2882 0A21     		movs	r1, #10
 6889 2884 FFF7FEFF 		bl	write_psoc1
 6890              	.LVL470:
1309:.\protocolo.c **** 						if(dir==a.dir){
 6891              		.loc 1 1309 0
ARM GAS  C:\Users\diego\AppData\Local\Temp\ccNdDNY6.s 			page 151


 6892 2888 A54B     		ldr	r3, .L645+8
 6893 288a 1B78     		ldrb	r3, [r3]	@ zero_extendqisi2
 6894 288c AB42     		cmp	r3, r5
 6895 288e 05D1     		bne	.L478
1310:.\protocolo.c **** 							leer_eeprom(256,25);
 6896              		.loc 1 1310 0
 6897 2890 4FF48070 		mov	r0, #256
 6898 2894 1921     		movs	r1, #25
 6899 2896 FFF7FEFF 		bl	leer_eeprom
 6900              	.LVL471:
 6901 289a 04E0     		b	.L479
 6902              	.L478:
1311:.\protocolo.c **** 						}
1312:.\protocolo.c **** 						else{
1313:.\protocolo.c **** 							leer_eeprom(345,25);
 6903              		.loc 1 1313 0
 6904 289c 40F25910 		movw	r0, #345
 6905 28a0 1921     		movs	r1, #25
 6906 28a2 FFF7FEFF 		bl	leer_eeprom
 6907              	.LVL472:
 6908              	.L479:
1314:.\protocolo.c **** 						}
1315:.\protocolo.c **** 						print_totales(val);
 6909              		.loc 1 1315 0
 6910 28a6 2046     		mov	r0, r4
 6911 28a8 FFF7FEFF 		bl	print_totales
 6912              	.LVL473:
1316:.\protocolo.c **** 						for(z=1;z<=12;z++){
 6913              		.loc 1 1316 0
 6914 28ac 0122     		movs	r2, #1
 6915 28ae 9D4B     		ldr	r3, .L645+12
 6916 28b0 1A60     		str	r2, [r3]
 6917 28b2 10E0     		b	.L480
 6918              	.L481:
1317:.\protocolo.c **** 							minuendo[z]=rventa.tdinero[z-1];
 6919              		.loc 1 1317 0 discriminator 3
 6920 28b4 9C4A     		ldr	r2, .L645+16
 6921 28b6 1A44     		add	r2, r2, r3
 6922 28b8 92F8CA10 		ldrb	r1, [r2, #202]	@ zero_extendqisi2
 6923 28bc 10AA     		add	r2, sp, #64
 6924 28be 1A44     		add	r2, r2, r3
 6925 28c0 02F82C1C 		strb	r1, [r2, #-44]
1318:.\protocolo.c **** 							sustraendo[z]=buffer_i2c[z+12];
 6926              		.loc 1 1318 0 discriminator 3
 6927 28c4 03F10C01 		add	r1, r3, #12
 6928 28c8 9848     		ldr	r0, .L645+20
 6929 28ca 415C     		ldrb	r1, [r0, r1]	@ zero_extendqisi2
 6930 28cc 02F83C1C 		strb	r1, [r2, #-60]
1316:.\protocolo.c **** 						for(z=1;z<=12;z++){
 6931              		.loc 1 1316 0 discriminator 3
 6932 28d0 0133     		adds	r3, r3, #1
 6933 28d2 944A     		ldr	r2, .L645+12
 6934 28d4 1360     		str	r3, [r2]
 6935              	.L480:
1316:.\protocolo.c **** 						for(z=1;z<=12;z++){
 6936              		.loc 1 1316 0 is_stmt 0 discriminator 1
 6937 28d6 934B     		ldr	r3, .L645+12
ARM GAS  C:\Users\diego\AppData\Local\Temp\ccNdDNY6.s 			page 152


 6938 28d8 1B68     		ldr	r3, [r3]
 6939 28da 0C2B     		cmp	r3, #12
 6940 28dc EAD9     		bls	.L481
1319:.\protocolo.c **** 						}
1320:.\protocolo.c **** 						minuendo[0]=12;
 6941              		.loc 1 1320 0 is_stmt 1
 6942 28de 10A9     		add	r1, sp, #64
 6943 28e0 0C23     		movs	r3, #12
 6944 28e2 01F82C3D 		strb	r3, [r1, #-44]!
1321:.\protocolo.c **** 						operacion(2,minuendo,sustraendo);
 6945              		.loc 1 1321 0
 6946 28e6 0220     		movs	r0, #2
 6947 28e8 01AA     		add	r2, sp, #4
 6948 28ea FFF7FEFF 		bl	operacion
 6949              	.LVL474:
1322:.\protocolo.c **** 						for(x=0;x<=17;x++){									
 6950              		.loc 1 1322 0
 6951 28ee 0022     		movs	r2, #0
 6952 28f0 8A4B     		ldr	r3, .L645+4
 6953 28f2 1A60     		str	r2, [r3]
 6954 28f4 0AE0     		b	.L482
 6955              	.L483:
1323:.\protocolo.c **** 							write_psoc1(val,msn_tventas[x]);				//Total de ventas
 6956              		.loc 1 1323 0 discriminator 3
 6957 28f6 884A     		ldr	r2, .L645
 6958 28f8 1344     		add	r3, r3, r2
 6959 28fa 2046     		mov	r0, r4
 6960 28fc 93F82C10 		ldrb	r1, [r3, #44]	@ zero_extendqisi2
 6961 2900 FFF7FEFF 		bl	write_psoc1
 6962              	.LVL475:
1322:.\protocolo.c **** 						for(x=0;x<=17;x++){									
 6963              		.loc 1 1322 0 discriminator 3
 6964 2904 854A     		ldr	r2, .L645+4
 6965 2906 1368     		ldr	r3, [r2]
 6966 2908 0133     		adds	r3, r3, #1
 6967 290a 1360     		str	r3, [r2]
 6968              	.L482:
1322:.\protocolo.c **** 						for(x=0;x<=17;x++){									
 6969              		.loc 1 1322 0 is_stmt 0 discriminator 1
 6970 290c 834B     		ldr	r3, .L645+4
 6971 290e 1B68     		ldr	r3, [r3]
 6972 2910 112B     		cmp	r3, #17
 6973 2912 F0D9     		bls	.L483
1324:.\protocolo.c **** 						}
1325:.\protocolo.c **** 						print_valor(resultado,val);							
 6974              		.loc 1 1325 0 is_stmt 1
 6975 2914 8648     		ldr	r0, .L645+24
 6976 2916 2146     		mov	r1, r4
 6977 2918 FFF7FEFF 		bl	print_valor
 6978              	.LVL476:
1326:.\protocolo.c **** 						if(dir==a.dir){
 6979              		.loc 1 1326 0
 6980 291c 804B     		ldr	r3, .L645+8
 6981 291e 1B78     		ldrb	r3, [r3]	@ zero_extendqisi2
 6982 2920 AB42     		cmp	r3, r5
 6983 2922 0AD1     		bne	.L484
1327:.\protocolo.c **** 							write_eeprom(256,corte);
ARM GAS  C:\Users\diego\AppData\Local\Temp\ccNdDNY6.s 			page 153


 6984              		.loc 1 1327 0
 6985 2924 4FF48070 		mov	r0, #256
 6986 2928 09A9     		add	r1, sp, #36
 6987 292a FFF7FEFF 		bl	write_eeprom
 6988              	.LVL477:
1328:.\protocolo.c **** 							write_eeprom(525,resultado);
 6989              		.loc 1 1328 0
 6990 292e 40F20D20 		movw	r0, #525
 6991 2932 7F49     		ldr	r1, .L645+24
 6992 2934 FFF7FEFF 		bl	write_eeprom
 6993              	.LVL478:
 6994 2938 09E0     		b	.L469
 6995              	.L484:
1329:.\protocolo.c **** 						}
1330:.\protocolo.c **** 						else{
1331:.\protocolo.c **** 							write_eeprom(345,corte);
 6996              		.loc 1 1331 0
 6997 293a 40F25910 		movw	r0, #345
 6998 293e 09A9     		add	r1, sp, #36
 6999 2940 FFF7FEFF 		bl	write_eeprom
 7000              	.LVL479:
1332:.\protocolo.c **** 							write_eeprom(589,resultado);
 7001              		.loc 1 1332 0
 7002 2944 40F24D20 		movw	r0, #589
 7003 2948 7949     		ldr	r1, .L645+24
 7004 294a FFF7FEFF 		bl	write_eeprom
 7005              	.LVL480:
 7006              	.L469:
1333:.\protocolo.c **** 						}					
1334:.\protocolo.c **** 					}
1335:.\protocolo.c ****                     
1336:.\protocolo.c ****                     
1337:.\protocolo.c ****                     if(((rventa.manguera==(producto4&0x0F))&&(dir==a.dir))||((rventa.manguera==(pro
 7007              		.loc 1 1337 0
 7008 294e 794B     		ldr	r3, .L645+28
 7009 2950 93F8E020 		ldrb	r2, [r3, #224]	@ zero_extendqisi2
 7010 2954 784B     		ldr	r3, .L645+32
 7011 2956 1B78     		ldrb	r3, [r3]	@ zero_extendqisi2
 7012 2958 03F00F03 		and	r3, r3, #15
 7013 295c 9342     		cmp	r3, r2
 7014 295e 03D1     		bne	.L485
 7015              		.loc 1 1337 0 is_stmt 0 discriminator 1
 7016 2960 6F4B     		ldr	r3, .L645+8
 7017 2962 1B78     		ldrb	r3, [r3]	@ zero_extendqisi2
 7018 2964 AB42     		cmp	r3, r5
 7019 2966 0BD0     		beq	.L486
 7020              	.L485:
 7021              		.loc 1 1337 0 discriminator 3
 7022 2968 744B     		ldr	r3, .L645+36
 7023 296a 1B78     		ldrb	r3, [r3]	@ zero_extendqisi2
 7024 296c 03F00F03 		and	r3, r3, #15
 7025 2970 9A42     		cmp	r2, r3
 7026 2972 40F0C280 		bne	.L487
 7027              		.loc 1 1337 0 discriminator 4
 7028 2976 724B     		ldr	r3, .L645+40
 7029 2978 1B78     		ldrb	r3, [r3]	@ zero_extendqisi2
 7030 297a AB42     		cmp	r3, r5
ARM GAS  C:\Users\diego\AppData\Local\Temp\ccNdDNY6.s 			page 154


 7031 297c 40F0BD80 		bne	.L487
 7032              	.L486:
1338:.\protocolo.c **** 						for(x=0;x<=5;x++){									
 7033              		.loc 1 1338 0 is_stmt 1
 7034 2980 0022     		movs	r2, #0
 7035 2982 664B     		ldr	r3, .L645+4
 7036 2984 1A60     		str	r2, [r3]
 7037 2986 08E0     		b	.L488
 7038              	.L489:
1339:.\protocolo.c **** 						    write_psoc1(val,msn_tc[x]);
 7039              		.loc 1 1339 0 discriminator 3
 7040 2988 2046     		mov	r0, r4
 7041 298a 634A     		ldr	r2, .L645
 7042 298c D15C     		ldrb	r1, [r2, r3]	@ zero_extendqisi2
 7043 298e FFF7FEFF 		bl	write_psoc1
 7044              	.LVL481:
1338:.\protocolo.c **** 						for(x=0;x<=5;x++){									
 7045              		.loc 1 1338 0 discriminator 3
 7046 2992 624A     		ldr	r2, .L645+4
 7047 2994 1368     		ldr	r3, [r2]
 7048 2996 0133     		adds	r3, r3, #1
 7049 2998 1360     		str	r3, [r2]
 7050              	.L488:
1338:.\protocolo.c **** 						for(x=0;x<=5;x++){									
 7051              		.loc 1 1338 0 is_stmt 0 discriminator 1
 7052 299a 604B     		ldr	r3, .L645+4
 7053 299c 1B68     		ldr	r3, [r3]
 7054 299e 052B     		cmp	r3, #5
 7055 29a0 F2D9     		bls	.L489
1340:.\protocolo.c **** 					    }
1341:.\protocolo.c **** 					    write_psoc1(val,10);
 7056              		.loc 1 1341 0 is_stmt 1
 7057 29a2 2046     		mov	r0, r4
 7058 29a4 0A21     		movs	r1, #10
 7059 29a6 FFF7FEFF 		bl	write_psoc1
 7060              	.LVL482:
1342:.\protocolo.c ****                         for(x=0;x<=10;x++){									
 7061              		.loc 1 1342 0
 7062 29aa 0022     		movs	r2, #0
 7063 29ac 5B4B     		ldr	r3, .L645+4
 7064 29ae 1A60     		str	r2, [r3]
 7065 29b0 08E0     		b	.L490
 7066              	.L491:
1343:.\protocolo.c **** 						    write_psoc1(val,producto4n[x]);
 7067              		.loc 1 1343 0 discriminator 3
 7068 29b2 2046     		mov	r0, r4
 7069 29b4 634A     		ldr	r2, .L645+44
 7070 29b6 D15C     		ldrb	r1, [r2, r3]	@ zero_extendqisi2
 7071 29b8 FFF7FEFF 		bl	write_psoc1
 7072              	.LVL483:
1342:.\protocolo.c ****                         for(x=0;x<=10;x++){									
 7073              		.loc 1 1342 0 discriminator 3
 7074 29bc 574A     		ldr	r2, .L645+4
 7075 29be 1368     		ldr	r3, [r2]
 7076 29c0 0133     		adds	r3, r3, #1
 7077 29c2 1360     		str	r3, [r2]
 7078              	.L490:
ARM GAS  C:\Users\diego\AppData\Local\Temp\ccNdDNY6.s 			page 155


1342:.\protocolo.c ****                         for(x=0;x<=10;x++){									
 7079              		.loc 1 1342 0 is_stmt 0 discriminator 1
 7080 29c4 554B     		ldr	r3, .L645+4
 7081 29c6 1B68     		ldr	r3, [r3]
 7082 29c8 0A2B     		cmp	r3, #10
 7083 29ca F2D9     		bls	.L491
1344:.\protocolo.c **** 					    }
1345:.\protocolo.c ****                         write_psoc1(val,10);
 7084              		.loc 1 1345 0 is_stmt 1
 7085 29cc 2046     		mov	r0, r4
 7086 29ce 0A21     		movs	r1, #10
 7087 29d0 FFF7FEFF 		bl	write_psoc1
 7088              	.LVL484:
1346:.\protocolo.c **** 						for(x=0;x<=14;x++){									
 7089              		.loc 1 1346 0
 7090 29d4 0022     		movs	r2, #0
 7091 29d6 514B     		ldr	r3, .L645+4
 7092 29d8 1A60     		str	r2, [r3]
 7093 29da 09E0     		b	.L492
 7094              	.L493:
1347:.\protocolo.c **** 							write_psoc1(val,msn_lecact[x]);				//LECTURA ACTUAL
 7095              		.loc 1 1347 0 discriminator 3
 7096 29dc 4E4A     		ldr	r2, .L645
 7097 29de 1344     		add	r3, r3, r2
 7098 29e0 2046     		mov	r0, r4
 7099 29e2 197A     		ldrb	r1, [r3, #8]	@ zero_extendqisi2
 7100 29e4 FFF7FEFF 		bl	write_psoc1
 7101              	.LVL485:
1346:.\protocolo.c **** 						for(x=0;x<=14;x++){									
 7102              		.loc 1 1346 0 discriminator 3
 7103 29e8 4C4A     		ldr	r2, .L645+4
 7104 29ea 1368     		ldr	r3, [r2]
 7105 29ec 0133     		adds	r3, r3, #1
 7106 29ee 1360     		str	r3, [r2]
 7107              	.L492:
1346:.\protocolo.c **** 						for(x=0;x<=14;x++){									
 7108              		.loc 1 1346 0 is_stmt 0 discriminator 1
 7109 29f0 4A4B     		ldr	r3, .L645+4
 7110 29f2 1B68     		ldr	r3, [r3]
 7111 29f4 0E2B     		cmp	r3, #14
 7112 29f6 F1D9     		bls	.L493
1348:.\protocolo.c **** 						}
1349:.\protocolo.c **** 						write_psoc1(val,10);
 7113              		.loc 1 1349 0 is_stmt 1
 7114 29f8 2046     		mov	r0, r4
 7115 29fa 0A21     		movs	r1, #10
 7116 29fc FFF7FEFF 		bl	write_psoc1
 7117              	.LVL486:
1350:.\protocolo.c **** 						print_totalesac(12,val);	
 7118              		.loc 1 1350 0
 7119 2a00 0C20     		movs	r0, #12
 7120 2a02 2146     		mov	r1, r4
 7121 2a04 FFF7FEFF 		bl	print_totalesac
 7122              	.LVL487:
1351:.\protocolo.c **** 						for(x=0;x<=16;x++){												
 7123              		.loc 1 1351 0
 7124 2a08 0022     		movs	r2, #0
ARM GAS  C:\Users\diego\AppData\Local\Temp\ccNdDNY6.s 			page 156


 7125 2a0a 444B     		ldr	r3, .L645+4
 7126 2a0c 1A60     		str	r2, [r3]
 7127 2a0e 09E0     		b	.L494
 7128              	.L495:
1352:.\protocolo.c **** 							write_psoc1(val,msn_lecaan[x]);				//LECTURA ANTERIOR
 7129              		.loc 1 1352 0 discriminator 3
 7130 2a10 414A     		ldr	r2, .L645
 7131 2a12 1344     		add	r3, r3, r2
 7132 2a14 2046     		mov	r0, r4
 7133 2a16 197E     		ldrb	r1, [r3, #24]	@ zero_extendqisi2
 7134 2a18 FFF7FEFF 		bl	write_psoc1
 7135              	.LVL488:
1351:.\protocolo.c **** 						for(x=0;x<=16;x++){												
 7136              		.loc 1 1351 0 discriminator 3
 7137 2a1c 3F4A     		ldr	r2, .L645+4
 7138 2a1e 1368     		ldr	r3, [r2]
 7139 2a20 0133     		adds	r3, r3, #1
 7140 2a22 1360     		str	r3, [r2]
 7141              	.L494:
1351:.\protocolo.c **** 						for(x=0;x<=16;x++){												
 7142              		.loc 1 1351 0 is_stmt 0 discriminator 1
 7143 2a24 3D4B     		ldr	r3, .L645+4
 7144 2a26 1B68     		ldr	r3, [r3]
 7145 2a28 102B     		cmp	r3, #16
 7146 2a2a F1D9     		bls	.L495
1353:.\protocolo.c **** 						}
1354:.\protocolo.c **** 						write_psoc1(val,10);
 7147              		.loc 1 1354 0 is_stmt 1
 7148 2a2c 2046     		mov	r0, r4
 7149 2a2e 0A21     		movs	r1, #10
 7150 2a30 FFF7FEFF 		bl	write_psoc1
 7151              	.LVL489:
1355:.\protocolo.c **** 						if(dir==a.dir){
 7152              		.loc 1 1355 0
 7153 2a34 3A4B     		ldr	r3, .L645+8
 7154 2a36 1B78     		ldrb	r3, [r3]	@ zero_extendqisi2
 7155 2a38 AB42     		cmp	r3, r5
 7156 2a3a 05D1     		bne	.L496
1356:.\protocolo.c **** 							leer_eeprom(1096,25);
 7157              		.loc 1 1356 0
 7158 2a3c 4FF48960 		mov	r0, #1096
 7159 2a40 1921     		movs	r1, #25
 7160 2a42 FFF7FEFF 		bl	leer_eeprom
 7161              	.LVL490:
 7162 2a46 04E0     		b	.L497
 7163              	.L496:
1357:.\protocolo.c **** 						}
1358:.\protocolo.c **** 						else{
1359:.\protocolo.c **** 							leer_eeprom(1054,25);
 7164              		.loc 1 1359 0
 7165 2a48 40F21E40 		movw	r0, #1054
 7166 2a4c 1921     		movs	r1, #25
 7167 2a4e FFF7FEFF 		bl	leer_eeprom
 7168              	.LVL491:
 7169              	.L497:
1360:.\protocolo.c **** 						}
1361:.\protocolo.c **** 						print_totales(val);
ARM GAS  C:\Users\diego\AppData\Local\Temp\ccNdDNY6.s 			page 157


 7170              		.loc 1 1361 0
 7171 2a52 2046     		mov	r0, r4
 7172 2a54 FFF7FEFF 		bl	print_totales
 7173              	.LVL492:
1362:.\protocolo.c **** 						for(z=1;z<=12;z++){
 7174              		.loc 1 1362 0
 7175 2a58 0122     		movs	r2, #1
 7176 2a5a 324B     		ldr	r3, .L645+12
 7177 2a5c 1A60     		str	r2, [r3]
 7178 2a5e 10E0     		b	.L498
 7179              	.L499:
1363:.\protocolo.c **** 							minuendo[z]=rventa.tdinero[z-1];
 7180              		.loc 1 1363 0 discriminator 3
 7181 2a60 314A     		ldr	r2, .L645+16
 7182 2a62 1A44     		add	r2, r2, r3
 7183 2a64 92F8CA10 		ldrb	r1, [r2, #202]	@ zero_extendqisi2
 7184 2a68 10AA     		add	r2, sp, #64
 7185 2a6a 1A44     		add	r2, r2, r3
 7186 2a6c 02F82C1C 		strb	r1, [r2, #-44]
1364:.\protocolo.c **** 							sustraendo[z]=buffer_i2c[z+12];
 7187              		.loc 1 1364 0 discriminator 3
 7188 2a70 03F10C01 		add	r1, r3, #12
 7189 2a74 2D48     		ldr	r0, .L645+20
 7190 2a76 415C     		ldrb	r1, [r0, r1]	@ zero_extendqisi2
 7191 2a78 02F83C1C 		strb	r1, [r2, #-60]
1362:.\protocolo.c **** 						for(z=1;z<=12;z++){
 7192              		.loc 1 1362 0 discriminator 3
 7193 2a7c 0133     		adds	r3, r3, #1
 7194 2a7e 294A     		ldr	r2, .L645+12
 7195 2a80 1360     		str	r3, [r2]
 7196              	.L498:
1362:.\protocolo.c **** 						for(z=1;z<=12;z++){
 7197              		.loc 1 1362 0 is_stmt 0 discriminator 1
 7198 2a82 284B     		ldr	r3, .L645+12
 7199 2a84 1B68     		ldr	r3, [r3]
 7200 2a86 0C2B     		cmp	r3, #12
 7201 2a88 EAD9     		bls	.L499
1365:.\protocolo.c **** 						}
1366:.\protocolo.c **** 						minuendo[0]=12;
 7202              		.loc 1 1366 0 is_stmt 1
 7203 2a8a 10A9     		add	r1, sp, #64
 7204 2a8c 0C23     		movs	r3, #12
 7205 2a8e 01F82C3D 		strb	r3, [r1, #-44]!
1367:.\protocolo.c **** 						operacion(2,minuendo,sustraendo);
 7206              		.loc 1 1367 0
 7207 2a92 0220     		movs	r0, #2
 7208 2a94 01AA     		add	r2, sp, #4
 7209 2a96 FFF7FEFF 		bl	operacion
 7210              	.LVL493:
1368:.\protocolo.c **** 						for(x=0;x<=17;x++){									
 7211              		.loc 1 1368 0
 7212 2a9a 0022     		movs	r2, #0
 7213 2a9c 1F4B     		ldr	r3, .L645+4
 7214 2a9e 1A60     		str	r2, [r3]
 7215 2aa0 0AE0     		b	.L500
 7216              	.L501:
1369:.\protocolo.c **** 							write_psoc1(val,msn_tventas[x]);				//Total de ventas
ARM GAS  C:\Users\diego\AppData\Local\Temp\ccNdDNY6.s 			page 158


 7217              		.loc 1 1369 0 discriminator 3
 7218 2aa2 1D4A     		ldr	r2, .L645
 7219 2aa4 1344     		add	r3, r3, r2
 7220 2aa6 2046     		mov	r0, r4
 7221 2aa8 93F82C10 		ldrb	r1, [r3, #44]	@ zero_extendqisi2
 7222 2aac FFF7FEFF 		bl	write_psoc1
 7223              	.LVL494:
1368:.\protocolo.c **** 						for(x=0;x<=17;x++){									
 7224              		.loc 1 1368 0 discriminator 3
 7225 2ab0 1A4A     		ldr	r2, .L645+4
 7226 2ab2 1368     		ldr	r3, [r2]
 7227 2ab4 0133     		adds	r3, r3, #1
 7228 2ab6 1360     		str	r3, [r2]
 7229              	.L500:
1368:.\protocolo.c **** 						for(x=0;x<=17;x++){									
 7230              		.loc 1 1368 0 is_stmt 0 discriminator 1
 7231 2ab8 184B     		ldr	r3, .L645+4
 7232 2aba 1B68     		ldr	r3, [r3]
 7233 2abc 112B     		cmp	r3, #17
 7234 2abe F0D9     		bls	.L501
1370:.\protocolo.c **** 						}
1371:.\protocolo.c **** 						print_valor(resultado,val);							
 7235              		.loc 1 1371 0 is_stmt 1
 7236 2ac0 1B48     		ldr	r0, .L645+24
 7237 2ac2 2146     		mov	r1, r4
 7238 2ac4 FFF7FEFF 		bl	print_valor
 7239              	.LVL495:
1372:.\protocolo.c **** 						if(dir==a.dir){
 7240              		.loc 1 1372 0
 7241 2ac8 154B     		ldr	r3, .L645+8
 7242 2aca 1B78     		ldrb	r3, [r3]	@ zero_extendqisi2
 7243 2acc AB42     		cmp	r3, r5
 7244 2ace 0AD1     		bne	.L502
1373:.\protocolo.c **** 						    write_eeprom(1096,corte);
 7245              		.loc 1 1373 0
 7246 2ad0 4FF48960 		mov	r0, #1096
 7247 2ad4 09A9     		add	r1, sp, #36
 7248 2ad6 FFF7FEFF 		bl	write_eeprom
 7249              	.LVL496:
1374:.\protocolo.c **** 						    write_eeprom(1038,resultado);
 7250              		.loc 1 1374 0
 7251 2ada 40F20E40 		movw	r0, #1038
 7252 2ade 1449     		ldr	r1, .L645+24
 7253 2ae0 FFF7FEFF 		bl	write_eeprom
 7254              	.LVL497:
 7255 2ae4 09E0     		b	.L487
 7256              	.L502:
1375:.\protocolo.c **** 					    }
1376:.\protocolo.c **** 					    else{
1377:.\protocolo.c **** 						    write_eeprom(1054,corte);
 7257              		.loc 1 1377 0
 7258 2ae6 40F21E40 		movw	r0, #1054
 7259 2aea 09A9     		add	r1, sp, #36
 7260 2aec FFF7FEFF 		bl	write_eeprom
 7261              	.LVL498:
1378:.\protocolo.c **** 						    write_eeprom(1081,resultado);
 7262              		.loc 1 1378 0
ARM GAS  C:\Users\diego\AppData\Local\Temp\ccNdDNY6.s 			page 159


 7263 2af0 40F23940 		movw	r0, #1081
 7264 2af4 0E49     		ldr	r1, .L645+24
 7265 2af6 FFF7FEFF 		bl	write_eeprom
 7266              	.LVL499:
 7267              	.L487:
1189:.\protocolo.c **** 					rventa.manguera=(Surtidor_rxBuffer[y+2]&0x0F)+1;
 7268              		.loc 1 1189 0 discriminator 2
 7269 2afa 134A     		ldr	r2, .L645+48
 7270 2afc 1368     		ldr	r3, [r2]
 7271 2afe 2A33     		adds	r3, r3, #42
 7272 2b00 1360     		str	r3, [r2]
 7273              	.L418:
1189:.\protocolo.c **** 					rventa.manguera=(Surtidor_rxBuffer[y+2]&0x0F)+1;
 7274              		.loc 1 1189 0 is_stmt 0 discriminator 1
 7275 2b02 114B     		ldr	r3, .L645+48
 7276 2b04 1E68     		ldr	r6, [r3]
 7277 2b06 2A2E     		cmp	r6, #42
 7278 2b08 7FF6D8AB 		bls	.L503
1379:.\protocolo.c **** 				        }					
1380:.\protocolo.c **** 					}
1381:.\protocolo.c **** 				}
1382:.\protocolo.c **** 				Surtidor_ClearRxBuffer();
 7279              		.loc 1 1382 0 is_stmt 1
 7280 2b0c FFF7FEFF 		bl	Surtidor_ClearRxBuffer
 7281              	.LVL500:
1383:.\protocolo.c **** 				return 2;					
 7282              		.loc 1 1383 0
 7283 2b10 0220     		movs	r0, #2
 7284 2b12 00F0AFBC 		b	.L78
 7285              	.L646:
 7286 2b16 00BF     		.align	2
 7287              	.L645:
 7288 2b18 00000000 		.word	.LANCHOR1
 7289 2b1c 00000000 		.word	x
 7290 2b20 00000000 		.word	a
 7291 2b24 00000000 		.word	z
 7292 2b28 FFFFFFFF 		.word	rventa-1
 7293 2b2c 00000000 		.word	buffer_i2c
 7294 2b30 00000000 		.word	resultado
 7295 2b34 00000000 		.word	rventa
 7296 2b38 00000000 		.word	producto4
 7297 2b3c 00000000 		.word	producto4b
 7298 2b40 00000000 		.word	b
 7299 2b44 00000000 		.word	producto4n
 7300 2b48 00000000 		.word	y
 7301              	.L76:
1384:.\protocolo.c **** 			}			
1385:.\protocolo.c **** 			else{
1386:.\protocolo.c **** 				return 0;
1387:.\protocolo.c **** 			}			
1388:.\protocolo.c **** 		break;
1389:.\protocolo.c **** 		
1390:.\protocolo.c **** 		case 130:
1391:.\protocolo.c **** 			if((Surtidor_rxBuffer[0]==0xFF)&&(Surtidor_rxBuffer[1]==0xF6)&&(Surtidor_rxBuffer[129]==0xF0)&&(
 7302              		.loc 1 1391 0
 7303 2b4c A64B     		ldr	r3, .L647
 7304 2b4e 1B78     		ldrb	r3, [r3]	@ zero_extendqisi2
ARM GAS  C:\Users\diego\AppData\Local\Temp\ccNdDNY6.s 			page 160


 7305 2b50 DBB2     		uxtb	r3, r3
 7306 2b52 FF2B     		cmp	r3, #255
 7307 2b54 40F08784 		bne	.L612
 7308              		.loc 1 1391 0 is_stmt 0 discriminator 1
 7309 2b58 A34B     		ldr	r3, .L647
 7310 2b5a 5B78     		ldrb	r3, [r3, #1]	@ zero_extendqisi2
 7311 2b5c DBB2     		uxtb	r3, r3
 7312 2b5e F62B     		cmp	r3, #246
 7313 2b60 40F08384 		bne	.L613
 7314              		.loc 1 1391 0 discriminator 2
 7315 2b64 A04B     		ldr	r3, .L647
 7316 2b66 93F88130 		ldrb	r3, [r3, #129]	@ zero_extendqisi2
 7317 2b6a DBB2     		uxtb	r3, r3
 7318 2b6c F02B     		cmp	r3, #240
 7319 2b6e 40F07E84 		bne	.L614
 7320              		.loc 1 1391 0 discriminator 3
 7321 2b72 9D4B     		ldr	r3, .L647
 7322 2b74 DB78     		ldrb	r3, [r3, #3]	@ zero_extendqisi2
 7323 2b76 DBB2     		uxtb	r3, r3
 7324 2b78 F92B     		cmp	r3, #249
 7325 2b7a 40F07A84 		bne	.L615
1392:.\protocolo.c **** 				for(y=0;y<=84;y+=42){
 7326              		.loc 1 1392 0 is_stmt 1
 7327 2b7e 0022     		movs	r2, #0
 7328 2b80 9A4B     		ldr	r3, .L647+4
 7329 2b82 1A60     		str	r2, [r3]
 7330 2b84 00F00FBC 		b	.L504
 7331              	.L589:
1393:.\protocolo.c **** 					rventa.manguera=(Surtidor_rxBuffer[y+2]&0x0F)+1;
 7332              		.loc 1 1393 0
 7333 2b88 B31C     		adds	r3, r6, #2
 7334 2b8a 974A     		ldr	r2, .L647
 7335 2b8c D15C     		ldrb	r1, [r2, r3]	@ zero_extendqisi2
 7336 2b8e 01F00F01 		and	r1, r1, #15
 7337 2b92 0131     		adds	r1, r1, #1
 7338 2b94 964B     		ldr	r3, .L647+8
 7339 2b96 83F8E010 		strb	r1, [r3, #224]
1394:.\protocolo.c **** 					for(x=0;x<=11;x++){
 7340              		.loc 1 1394 0
 7341 2b9a 0022     		movs	r2, #0
 7342 2b9c 954B     		ldr	r3, .L647+12
 7343 2b9e 1A60     		str	r2, [r3]
 7344 2ba0 0CE0     		b	.L505
 7345              	.L506:
1395:.\protocolo.c **** 						rventa.tvolumen[x]=(Surtidor_rxBuffer[y+4+x]&0x0F);
 7346              		.loc 1 1395 0 discriminator 3
 7347 2ba2 F218     		adds	r2, r6, r3
 7348 2ba4 0432     		adds	r2, r2, #4
 7349 2ba6 9048     		ldr	r0, .L647
 7350 2ba8 805C     		ldrb	r0, [r0, r2]	@ zero_extendqisi2
 7351 2baa 914A     		ldr	r2, .L647+8
 7352 2bac 1A44     		add	r2, r2, r3
 7353 2bae 00F00F00 		and	r0, r0, #15
 7354 2bb2 82F8BD00 		strb	r0, [r2, #189]
1394:.\protocolo.c **** 					for(x=0;x<=11;x++){
 7355              		.loc 1 1394 0 discriminator 3
 7356 2bb6 0133     		adds	r3, r3, #1
ARM GAS  C:\Users\diego\AppData\Local\Temp\ccNdDNY6.s 			page 161


 7357 2bb8 8E4A     		ldr	r2, .L647+12
 7358 2bba 1360     		str	r3, [r2]
 7359              	.L505:
1394:.\protocolo.c **** 					for(x=0;x<=11;x++){
 7360              		.loc 1 1394 0 is_stmt 0 discriminator 1
 7361 2bbc 8D4B     		ldr	r3, .L647+12
 7362 2bbe 1B68     		ldr	r3, [r3]
 7363 2bc0 0B2B     		cmp	r3, #11
 7364 2bc2 EED9     		bls	.L506
1396:.\protocolo.c **** 					}
1397:.\protocolo.c **** 					for(x=0;x<=11;x++){
 7365              		.loc 1 1397 0 is_stmt 1
 7366 2bc4 0022     		movs	r2, #0
 7367 2bc6 8B4B     		ldr	r3, .L647+12
 7368 2bc8 1A60     		str	r2, [r3]
 7369 2bca 0CE0     		b	.L507
 7370              	.L508:
1398:.\protocolo.c **** 						rventa.tdinero[x]=(Surtidor_rxBuffer[y+17+x]&0x0F);
 7371              		.loc 1 1398 0 discriminator 3
 7372 2bcc F218     		adds	r2, r6, r3
 7373 2bce 1132     		adds	r2, r2, #17
 7374 2bd0 8548     		ldr	r0, .L647
 7375 2bd2 805C     		ldrb	r0, [r0, r2]	@ zero_extendqisi2
 7376 2bd4 864A     		ldr	r2, .L647+8
 7377 2bd6 1A44     		add	r2, r2, r3
 7378 2bd8 00F00F00 		and	r0, r0, #15
 7379 2bdc 82F8CA00 		strb	r0, [r2, #202]
1397:.\protocolo.c **** 						rventa.tdinero[x]=(Surtidor_rxBuffer[y+17+x]&0x0F);
 7380              		.loc 1 1397 0 discriminator 3
 7381 2be0 0133     		adds	r3, r3, #1
 7382 2be2 844A     		ldr	r2, .L647+12
 7383 2be4 1360     		str	r3, [r2]
 7384              	.L507:
1397:.\protocolo.c **** 						rventa.tdinero[x]=(Surtidor_rxBuffer[y+17+x]&0x0F);
 7385              		.loc 1 1397 0 is_stmt 0 discriminator 1
 7386 2be6 834B     		ldr	r3, .L647+12
 7387 2be8 1B68     		ldr	r3, [r3]
 7388 2bea 0B2B     		cmp	r3, #11
 7389 2bec EED9     		bls	.L508
1399:.\protocolo.c **** 					}
1400:.\protocolo.c **** 					for(z=0;z<=11;z++){
 7390              		.loc 1 1400 0 is_stmt 1
 7391 2bee 0022     		movs	r2, #0
 7392 2bf0 814B     		ldr	r3, .L647+16
 7393 2bf2 1A60     		str	r2, [r3]
 7394 2bf4 0AE0     		b	.L509
 7395              	.L510:
1401:.\protocolo.c **** 						corte[z+1]=rventa.tvolumen[z];
 7396              		.loc 1 1401 0 discriminator 3
 7397 2bf6 5A1C     		adds	r2, r3, #1
 7398 2bf8 7D48     		ldr	r0, .L647+8
 7399 2bfa 0344     		add	r3, r3, r0
 7400 2bfc 93F8BD00 		ldrb	r0, [r3, #189]	@ zero_extendqisi2
 7401 2c00 10AB     		add	r3, sp, #64
 7402 2c02 1344     		add	r3, r3, r2
 7403 2c04 03F81C0C 		strb	r0, [r3, #-28]
1400:.\protocolo.c **** 						corte[z+1]=rventa.tvolumen[z];
ARM GAS  C:\Users\diego\AppData\Local\Temp\ccNdDNY6.s 			page 162


 7404              		.loc 1 1400 0 discriminator 3
 7405 2c08 7B4B     		ldr	r3, .L647+16
 7406 2c0a 1A60     		str	r2, [r3]
 7407              	.L509:
1400:.\protocolo.c **** 						corte[z+1]=rventa.tvolumen[z];
 7408              		.loc 1 1400 0 is_stmt 0 discriminator 1
 7409 2c0c 7A4B     		ldr	r3, .L647+16
 7410 2c0e 1B68     		ldr	r3, [r3]
 7411 2c10 0B2B     		cmp	r3, #11
 7412 2c12 F0D9     		bls	.L510
1402:.\protocolo.c **** 					}
1403:.\protocolo.c **** 					for(z=13;z<=24;z++){
 7413              		.loc 1 1403 0 is_stmt 1
 7414 2c14 0D22     		movs	r2, #13
 7415 2c16 784B     		ldr	r3, .L647+16
 7416 2c18 1A60     		str	r2, [r3]
 7417 2c1a 0AE0     		b	.L511
 7418              	.L512:
1404:.\protocolo.c **** 						corte[z]=rventa.tdinero[z-13];
 7419              		.loc 1 1404 0 discriminator 3
 7420 2c1c 774A     		ldr	r2, .L647+20
 7421 2c1e 1A44     		add	r2, r2, r3
 7422 2c20 92F8CA00 		ldrb	r0, [r2, #202]	@ zero_extendqisi2
 7423 2c24 10AA     		add	r2, sp, #64
 7424 2c26 1A44     		add	r2, r2, r3
 7425 2c28 02F81C0C 		strb	r0, [r2, #-28]
1403:.\protocolo.c **** 						corte[z]=rventa.tdinero[z-13];
 7426              		.loc 1 1403 0 discriminator 3
 7427 2c2c 0133     		adds	r3, r3, #1
 7428 2c2e 724A     		ldr	r2, .L647+16
 7429 2c30 1360     		str	r3, [r2]
 7430              	.L511:
1403:.\protocolo.c **** 						corte[z]=rventa.tdinero[z-13];
 7431              		.loc 1 1403 0 is_stmt 0 discriminator 1
 7432 2c32 714B     		ldr	r3, .L647+16
 7433 2c34 1B68     		ldr	r3, [r3]
 7434 2c36 182B     		cmp	r3, #24
 7435 2c38 F0D9     		bls	.L512
1405:.\protocolo.c **** 					}
1406:.\protocolo.c **** 					corte[0]=24;				
 7436              		.loc 1 1406 0 is_stmt 1
 7437 2c3a 1823     		movs	r3, #24
 7438 2c3c 8DF82430 		strb	r3, [sp, #36]
1407:.\protocolo.c **** 					if(((rventa.manguera==(producto1&0x0F))&&(dir==a.dir))||((rventa.manguera==(producto1b&0x0F))&
 7439              		.loc 1 1407 0
 7440 2c40 6F4B     		ldr	r3, .L647+24
 7441 2c42 1B78     		ldrb	r3, [r3]	@ zero_extendqisi2
 7442 2c44 03F00F03 		and	r3, r3, #15
 7443 2c48 8B42     		cmp	r3, r1
 7444 2c4a 03D1     		bne	.L513
 7445              		.loc 1 1407 0 is_stmt 0 discriminator 1
 7446 2c4c 6D4A     		ldr	r2, .L647+28
 7447 2c4e 1278     		ldrb	r2, [r2]	@ zero_extendqisi2
 7448 2c50 AA42     		cmp	r2, r5
 7449 2c52 17D0     		beq	.L514
 7450              	.L513:
 7451              		.loc 1 1407 0 discriminator 3
ARM GAS  C:\Users\diego\AppData\Local\Temp\ccNdDNY6.s 			page 163


 7452 2c54 6C4A     		ldr	r2, .L647+32
 7453 2c56 1278     		ldrb	r2, [r2]	@ zero_extendqisi2
 7454 2c58 02F00F02 		and	r2, r2, #15
 7455 2c5c 9142     		cmp	r1, r2
 7456 2c5e 03D1     		bne	.L515
 7457              		.loc 1 1407 0 discriminator 4
 7458 2c60 6A48     		ldr	r0, .L647+36
 7459 2c62 0078     		ldrb	r0, [r0]	@ zero_extendqisi2
 7460 2c64 A842     		cmp	r0, r5
 7461 2c66 0DD0     		beq	.L514
 7462              	.L515:
 7463              		.loc 1 1407 0 discriminator 6
 7464 2c68 8B42     		cmp	r3, r1
 7465 2c6a 03D1     		bne	.L516
 7466              		.loc 1 1407 0 discriminator 7
 7467 2c6c 684B     		ldr	r3, .L647+40
 7468 2c6e 1B78     		ldrb	r3, [r3]	@ zero_extendqisi2
 7469 2c70 AB42     		cmp	r3, r5
 7470 2c72 07D0     		beq	.L514
 7471              	.L516:
 7472              		.loc 1 1407 0 discriminator 9
 7473 2c74 9142     		cmp	r1, r2
 7474 2c76 40F0E380 		bne	.L517
 7475              		.loc 1 1407 0 discriminator 10
 7476 2c7a 664B     		ldr	r3, .L647+44
 7477 2c7c 1B78     		ldrb	r3, [r3]	@ zero_extendqisi2
 7478 2c7e AB42     		cmp	r3, r5
 7479 2c80 40F0DE80 		bne	.L517
 7480              	.L514:
1408:.\protocolo.c **** 						for(x=0;x<=5;x++){									
 7481              		.loc 1 1408 0 is_stmt 1
 7482 2c84 0022     		movs	r2, #0
 7483 2c86 5B4B     		ldr	r3, .L647+12
 7484 2c88 1A60     		str	r2, [r3]
 7485 2c8a 08E0     		b	.L518
 7486              	.L519:
1409:.\protocolo.c **** 							write_psoc1(val,msn_tc[x]);
 7487              		.loc 1 1409 0 discriminator 3
 7488 2c8c 2046     		mov	r0, r4
 7489 2c8e 624A     		ldr	r2, .L647+48
 7490 2c90 D15C     		ldrb	r1, [r2, r3]	@ zero_extendqisi2
 7491 2c92 FFF7FEFF 		bl	write_psoc1
 7492              	.LVL501:
1408:.\protocolo.c **** 						for(x=0;x<=5;x++){									
 7493              		.loc 1 1408 0 discriminator 3
 7494 2c96 574A     		ldr	r2, .L647+12
 7495 2c98 1368     		ldr	r3, [r2]
 7496 2c9a 0133     		adds	r3, r3, #1
 7497 2c9c 1360     		str	r3, [r2]
 7498              	.L518:
1408:.\protocolo.c **** 						for(x=0;x<=5;x++){									
 7499              		.loc 1 1408 0 is_stmt 0 discriminator 1
 7500 2c9e 554B     		ldr	r3, .L647+12
 7501 2ca0 1B68     		ldr	r3, [r3]
 7502 2ca2 052B     		cmp	r3, #5
 7503 2ca4 F2D9     		bls	.L519
1410:.\protocolo.c **** 						}
ARM GAS  C:\Users\diego\AppData\Local\Temp\ccNdDNY6.s 			page 164


1411:.\protocolo.c **** 						write_psoc1(val,10);
 7504              		.loc 1 1411 0 is_stmt 1
 7505 2ca6 2046     		mov	r0, r4
 7506 2ca8 0A21     		movs	r1, #10
 7507 2caa FFF7FEFF 		bl	write_psoc1
 7508              	.LVL502:
1412:.\protocolo.c ****                         for(x=0;x<=10;x++){									
 7509              		.loc 1 1412 0
 7510 2cae 0022     		movs	r2, #0
 7511 2cb0 504B     		ldr	r3, .L647+12
 7512 2cb2 1A60     		str	r2, [r3]
 7513 2cb4 08E0     		b	.L520
 7514              	.L521:
1413:.\protocolo.c **** 						write_psoc1(val,producto1n[x]);
 7515              		.loc 1 1413 0 discriminator 3
 7516 2cb6 2046     		mov	r0, r4
 7517 2cb8 584A     		ldr	r2, .L647+52
 7518 2cba D15C     		ldrb	r1, [r2, r3]	@ zero_extendqisi2
 7519 2cbc FFF7FEFF 		bl	write_psoc1
 7520              	.LVL503:
1412:.\protocolo.c ****                         for(x=0;x<=10;x++){									
 7521              		.loc 1 1412 0 discriminator 3
 7522 2cc0 4C4A     		ldr	r2, .L647+12
 7523 2cc2 1368     		ldr	r3, [r2]
 7524 2cc4 0133     		adds	r3, r3, #1
 7525 2cc6 1360     		str	r3, [r2]
 7526              	.L520:
1412:.\protocolo.c ****                         for(x=0;x<=10;x++){									
 7527              		.loc 1 1412 0 is_stmt 0 discriminator 1
 7528 2cc8 4A4B     		ldr	r3, .L647+12
 7529 2cca 1B68     		ldr	r3, [r3]
 7530 2ccc 0A2B     		cmp	r3, #10
 7531 2cce F2D9     		bls	.L521
1414:.\protocolo.c **** 					    }
1415:.\protocolo.c ****                         write_psoc1(val,10);
 7532              		.loc 1 1415 0 is_stmt 1
 7533 2cd0 2046     		mov	r0, r4
 7534 2cd2 0A21     		movs	r1, #10
 7535 2cd4 FFF7FEFF 		bl	write_psoc1
 7536              	.LVL504:
1416:.\protocolo.c **** 						for(x=0;x<=14;x++){									
 7537              		.loc 1 1416 0
 7538 2cd8 0022     		movs	r2, #0
 7539 2cda 464B     		ldr	r3, .L647+12
 7540 2cdc 1A60     		str	r2, [r3]
 7541 2cde 09E0     		b	.L522
 7542              	.L523:
1417:.\protocolo.c **** 							write_psoc1(val,msn_lecact[x]);				//LECTURA ACTUAL
 7543              		.loc 1 1417 0 discriminator 3
 7544 2ce0 4D4A     		ldr	r2, .L647+48
 7545 2ce2 1344     		add	r3, r3, r2
 7546 2ce4 2046     		mov	r0, r4
 7547 2ce6 197A     		ldrb	r1, [r3, #8]	@ zero_extendqisi2
 7548 2ce8 FFF7FEFF 		bl	write_psoc1
 7549              	.LVL505:
1416:.\protocolo.c **** 						for(x=0;x<=14;x++){									
 7550              		.loc 1 1416 0 discriminator 3
ARM GAS  C:\Users\diego\AppData\Local\Temp\ccNdDNY6.s 			page 165


 7551 2cec 414A     		ldr	r2, .L647+12
 7552 2cee 1368     		ldr	r3, [r2]
 7553 2cf0 0133     		adds	r3, r3, #1
 7554 2cf2 1360     		str	r3, [r2]
 7555              	.L522:
1416:.\protocolo.c **** 						for(x=0;x<=14;x++){									
 7556              		.loc 1 1416 0 is_stmt 0 discriminator 1
 7557 2cf4 3F4B     		ldr	r3, .L647+12
 7558 2cf6 1B68     		ldr	r3, [r3]
 7559 2cf8 0E2B     		cmp	r3, #14
 7560 2cfa F1D9     		bls	.L523
1418:.\protocolo.c **** 						}
1419:.\protocolo.c **** 						write_psoc1(val,10);
 7561              		.loc 1 1419 0 is_stmt 1
 7562 2cfc 2046     		mov	r0, r4
 7563 2cfe 0A21     		movs	r1, #10
 7564 2d00 FFF7FEFF 		bl	write_psoc1
 7565              	.LVL506:
1420:.\protocolo.c **** 						print_totalesac(12,val);	
 7566              		.loc 1 1420 0
 7567 2d04 0C20     		movs	r0, #12
 7568 2d06 2146     		mov	r1, r4
 7569 2d08 FFF7FEFF 		bl	print_totalesac
 7570              	.LVL507:
1421:.\protocolo.c **** 						for(x=0;x<=16;x++){												
 7571              		.loc 1 1421 0
 7572 2d0c 0022     		movs	r2, #0
 7573 2d0e 394B     		ldr	r3, .L647+12
 7574 2d10 1A60     		str	r2, [r3]
 7575 2d12 09E0     		b	.L524
 7576              	.L525:
1422:.\protocolo.c **** 							write_psoc1(val,msn_lecaan[x]);				//LECTURA ANTERIOR
 7577              		.loc 1 1422 0 discriminator 3
 7578 2d14 404A     		ldr	r2, .L647+48
 7579 2d16 1344     		add	r3, r3, r2
 7580 2d18 2046     		mov	r0, r4
 7581 2d1a 197E     		ldrb	r1, [r3, #24]	@ zero_extendqisi2
 7582 2d1c FFF7FEFF 		bl	write_psoc1
 7583              	.LVL508:
1421:.\protocolo.c **** 						for(x=0;x<=16;x++){												
 7584              		.loc 1 1421 0 discriminator 3
 7585 2d20 344A     		ldr	r2, .L647+12
 7586 2d22 1368     		ldr	r3, [r2]
 7587 2d24 0133     		adds	r3, r3, #1
 7588 2d26 1360     		str	r3, [r2]
 7589              	.L524:
1421:.\protocolo.c **** 						for(x=0;x<=16;x++){												
 7590              		.loc 1 1421 0 is_stmt 0 discriminator 1
 7591 2d28 324B     		ldr	r3, .L647+12
 7592 2d2a 1B68     		ldr	r3, [r3]
 7593 2d2c 102B     		cmp	r3, #16
 7594 2d2e F1D9     		bls	.L525
1423:.\protocolo.c **** 						}
1424:.\protocolo.c **** 						write_psoc1(val,10);
 7595              		.loc 1 1424 0 is_stmt 1
 7596 2d30 2046     		mov	r0, r4
 7597 2d32 0A21     		movs	r1, #10
ARM GAS  C:\Users\diego\AppData\Local\Temp\ccNdDNY6.s 			page 166


 7598 2d34 FFF7FEFF 		bl	write_psoc1
 7599              	.LVL509:
1425:.\protocolo.c **** 						if(dir==a.dir){
 7600              		.loc 1 1425 0
 7601 2d38 324B     		ldr	r3, .L647+28
 7602 2d3a 1B78     		ldrb	r3, [r3]	@ zero_extendqisi2
 7603 2d3c AB42     		cmp	r3, r5
 7604 2d3e 04D1     		bne	.L526
1426:.\protocolo.c **** 							leer_eeprom(192,25);
 7605              		.loc 1 1426 0
 7606 2d40 C020     		movs	r0, #192
 7607 2d42 1921     		movs	r1, #25
 7608 2d44 FFF7FEFF 		bl	leer_eeprom
 7609              	.LVL510:
 7610 2d48 04E0     		b	.L527
 7611              	.L526:
1427:.\protocolo.c **** 						}
1428:.\protocolo.c **** 						else{
1429:.\protocolo.c **** 							leer_eeprom(281,25);
 7612              		.loc 1 1429 0
 7613 2d4a 40F21910 		movw	r0, #281
 7614 2d4e 1921     		movs	r1, #25
 7615 2d50 FFF7FEFF 		bl	leer_eeprom
 7616              	.LVL511:
 7617              	.L527:
1430:.\protocolo.c **** 						}
1431:.\protocolo.c **** 						print_totales(val);
 7618              		.loc 1 1431 0
 7619 2d54 2046     		mov	r0, r4
 7620 2d56 FFF7FEFF 		bl	print_totales
 7621              	.LVL512:
1432:.\protocolo.c **** 						for(z=1;z<=12;z++){
 7622              		.loc 1 1432 0
 7623 2d5a 0122     		movs	r2, #1
 7624 2d5c 264B     		ldr	r3, .L647+16
 7625 2d5e 1A60     		str	r2, [r3]
 7626 2d60 10E0     		b	.L528
 7627              	.L529:
1433:.\protocolo.c **** 							minuendo[z]=rventa.tdinero[z-1];
 7628              		.loc 1 1433 0 discriminator 3
 7629 2d62 2F4A     		ldr	r2, .L647+56
 7630 2d64 1A44     		add	r2, r2, r3
 7631 2d66 92F8CA10 		ldrb	r1, [r2, #202]	@ zero_extendqisi2
 7632 2d6a 10AA     		add	r2, sp, #64
 7633 2d6c 1A44     		add	r2, r2, r3
 7634 2d6e 02F82C1C 		strb	r1, [r2, #-44]
1434:.\protocolo.c **** 							sustraendo[z]=buffer_i2c[z+12];
 7635              		.loc 1 1434 0 discriminator 3
 7636 2d72 03F10C01 		add	r1, r3, #12
 7637 2d76 2B48     		ldr	r0, .L647+60
 7638 2d78 415C     		ldrb	r1, [r0, r1]	@ zero_extendqisi2
 7639 2d7a 02F83C1C 		strb	r1, [r2, #-60]
1432:.\protocolo.c **** 						for(z=1;z<=12;z++){
 7640              		.loc 1 1432 0 discriminator 3
 7641 2d7e 0133     		adds	r3, r3, #1
 7642 2d80 1D4A     		ldr	r2, .L647+16
 7643 2d82 1360     		str	r3, [r2]
ARM GAS  C:\Users\diego\AppData\Local\Temp\ccNdDNY6.s 			page 167


 7644              	.L528:
1432:.\protocolo.c **** 						for(z=1;z<=12;z++){
 7645              		.loc 1 1432 0 is_stmt 0 discriminator 1
 7646 2d84 1C4B     		ldr	r3, .L647+16
 7647 2d86 1B68     		ldr	r3, [r3]
 7648 2d88 0C2B     		cmp	r3, #12
 7649 2d8a EAD9     		bls	.L529
1435:.\protocolo.c **** 						}
1436:.\protocolo.c **** 						minuendo[0]=12;
 7650              		.loc 1 1436 0 is_stmt 1
 7651 2d8c 10A9     		add	r1, sp, #64
 7652 2d8e 0C23     		movs	r3, #12
 7653 2d90 01F82C3D 		strb	r3, [r1, #-44]!
1437:.\protocolo.c **** 						operacion(2,minuendo,sustraendo);
 7654              		.loc 1 1437 0
 7655 2d94 0220     		movs	r0, #2
 7656 2d96 01AA     		add	r2, sp, #4
 7657 2d98 FFF7FEFF 		bl	operacion
 7658              	.LVL513:
1438:.\protocolo.c **** 						for(x=0;x<=17;x++){									
 7659              		.loc 1 1438 0
 7660 2d9c 0022     		movs	r2, #0
 7661 2d9e 154B     		ldr	r3, .L647+12
 7662 2da0 1A60     		str	r2, [r3]
 7663 2da2 0AE0     		b	.L530
 7664              	.L531:
1439:.\protocolo.c **** 							write_psoc1(val,msn_tventas[x]);				//Total de ventas
 7665              		.loc 1 1439 0 discriminator 3
 7666 2da4 1C4A     		ldr	r2, .L647+48
 7667 2da6 1344     		add	r3, r3, r2
 7668 2da8 2046     		mov	r0, r4
 7669 2daa 93F82C10 		ldrb	r1, [r3, #44]	@ zero_extendqisi2
 7670 2dae FFF7FEFF 		bl	write_psoc1
 7671              	.LVL514:
1438:.\protocolo.c **** 						for(x=0;x<=17;x++){									
 7672              		.loc 1 1438 0 discriminator 3
 7673 2db2 104A     		ldr	r2, .L647+12
 7674 2db4 1368     		ldr	r3, [r2]
 7675 2db6 0133     		adds	r3, r3, #1
 7676 2db8 1360     		str	r3, [r2]
 7677              	.L530:
1438:.\protocolo.c **** 						for(x=0;x<=17;x++){									
 7678              		.loc 1 1438 0 is_stmt 0 discriminator 1
 7679 2dba 0E4B     		ldr	r3, .L647+12
 7680 2dbc 1B68     		ldr	r3, [r3]
 7681 2dbe 112B     		cmp	r3, #17
 7682 2dc0 F0D9     		bls	.L531
1440:.\protocolo.c **** 						}
1441:.\protocolo.c **** 						print_valor(resultado,val);
 7683              		.loc 1 1441 0 is_stmt 1
 7684 2dc2 1948     		ldr	r0, .L647+64
 7685 2dc4 2146     		mov	r1, r4
 7686 2dc6 FFF7FEFF 		bl	print_valor
 7687              	.LVL515:
1442:.\protocolo.c **** 						if(dir==a.dir){
 7688              		.loc 1 1442 0
 7689 2dca 0E4B     		ldr	r3, .L647+28
ARM GAS  C:\Users\diego\AppData\Local\Temp\ccNdDNY6.s 			page 168


 7690 2dcc 1B78     		ldrb	r3, [r3]	@ zero_extendqisi2
 7691 2dce AB42     		cmp	r3, r5
 7692 2dd0 2CD1     		bne	.L532
1443:.\protocolo.c **** 							write_eeprom(192,corte);	
 7693              		.loc 1 1443 0
 7694 2dd2 C020     		movs	r0, #192
 7695 2dd4 09A9     		add	r1, sp, #36
 7696 2dd6 FFF7FEFF 		bl	write_eeprom
 7697              	.LVL516:
1444:.\protocolo.c **** 							write_eeprom(512,resultado);
 7698              		.loc 1 1444 0
 7699 2dda 4FF40070 		mov	r0, #512
 7700 2dde 1249     		ldr	r1, .L647+64
 7701 2de0 FFF7FEFF 		bl	write_eeprom
 7702              	.LVL517:
 7703 2de4 2CE0     		b	.L517
 7704              	.L648:
 7705 2de6 00BF     		.align	2
 7706              	.L647:
 7707 2de8 00000000 		.word	Surtidor_rxBuffer
 7708 2dec 00000000 		.word	y
 7709 2df0 00000000 		.word	rventa
 7710 2df4 00000000 		.word	x
 7711 2df8 00000000 		.word	z
 7712 2dfc F3FFFFFF 		.word	rventa-13
 7713 2e00 00000000 		.word	producto1
 7714 2e04 00000000 		.word	a
 7715 2e08 00000000 		.word	producto1b
 7716 2e0c 00000000 		.word	b
 7717 2e10 00000000 		.word	c
 7718 2e14 00000000 		.word	d
 7719 2e18 00000000 		.word	.LANCHOR1
 7720 2e1c 00000000 		.word	producto1n
 7721 2e20 FFFFFFFF 		.word	rventa-1
 7722 2e24 00000000 		.word	buffer_i2c
 7723 2e28 00000000 		.word	resultado
 7724              	.L532:
1445:.\protocolo.c **** 						}
1446:.\protocolo.c **** 						else{
1447:.\protocolo.c **** 							write_eeprom(281,corte);
 7725              		.loc 1 1447 0
 7726 2e2c 40F21910 		movw	r0, #281
 7727 2e30 09A9     		add	r1, sp, #36
 7728 2e32 FFF7FEFF 		bl	write_eeprom
 7729              	.LVL518:
1448:.\protocolo.c **** 							write_eeprom(551,resultado);
 7730              		.loc 1 1448 0
 7731 2e36 40F22720 		movw	r0, #551
 7732 2e3a A249     		ldr	r1, .L649
 7733 2e3c FFF7FEFF 		bl	write_eeprom
 7734              	.LVL519:
 7735              	.L517:
1449:.\protocolo.c **** 						}
1450:.\protocolo.c **** 					}
1451:.\protocolo.c **** 					if(((rventa.manguera==(producto2&0x0F))&&(dir==a.dir))||((rventa.manguera==(producto2b&0x0F))&
 7736              		.loc 1 1451 0
 7737 2e40 A14B     		ldr	r3, .L649+4
ARM GAS  C:\Users\diego\AppData\Local\Temp\ccNdDNY6.s 			page 169


 7738 2e42 93F8E010 		ldrb	r1, [r3, #224]	@ zero_extendqisi2
 7739 2e46 A14B     		ldr	r3, .L649+8
 7740 2e48 1B78     		ldrb	r3, [r3]	@ zero_extendqisi2
 7741 2e4a 03F00F03 		and	r3, r3, #15
 7742 2e4e 8B42     		cmp	r3, r1
 7743 2e50 03D1     		bne	.L533
 7744              		.loc 1 1451 0 is_stmt 0 discriminator 1
 7745 2e52 9F4A     		ldr	r2, .L649+12
 7746 2e54 1278     		ldrb	r2, [r2]	@ zero_extendqisi2
 7747 2e56 AA42     		cmp	r2, r5
 7748 2e58 17D0     		beq	.L534
 7749              	.L533:
 7750              		.loc 1 1451 0 discriminator 3
 7751 2e5a 9E4A     		ldr	r2, .L649+16
 7752 2e5c 1278     		ldrb	r2, [r2]	@ zero_extendqisi2
 7753 2e5e 02F00F02 		and	r2, r2, #15
 7754 2e62 9142     		cmp	r1, r2
 7755 2e64 03D1     		bne	.L535
 7756              		.loc 1 1451 0 discriminator 4
 7757 2e66 9C48     		ldr	r0, .L649+20
 7758 2e68 0078     		ldrb	r0, [r0]	@ zero_extendqisi2
 7759 2e6a A842     		cmp	r0, r5
 7760 2e6c 0DD0     		beq	.L534
 7761              	.L535:
 7762              		.loc 1 1451 0 discriminator 6
 7763 2e6e 9142     		cmp	r1, r2
 7764 2e70 03D1     		bne	.L536
 7765              		.loc 1 1451 0 discriminator 7
 7766 2e72 9A4A     		ldr	r2, .L649+24
 7767 2e74 1278     		ldrb	r2, [r2]	@ zero_extendqisi2
 7768 2e76 AA42     		cmp	r2, r5
 7769 2e78 07D0     		beq	.L534
 7770              	.L536:
 7771              		.loc 1 1451 0 discriminator 9
 7772 2e7a 8B42     		cmp	r3, r1
 7773 2e7c 40F0C080 		bne	.L537
 7774              		.loc 1 1451 0 discriminator 10
 7775 2e80 974B     		ldr	r3, .L649+28
 7776 2e82 1B78     		ldrb	r3, [r3]	@ zero_extendqisi2
 7777 2e84 AB42     		cmp	r3, r5
 7778 2e86 40F0BB80 		bne	.L537
 7779              	.L534:
1452:.\protocolo.c **** 						for(x=0;x<=5;x++){									
 7780              		.loc 1 1452 0 is_stmt 1
 7781 2e8a 0022     		movs	r2, #0
 7782 2e8c 954B     		ldr	r3, .L649+32
 7783 2e8e 1A60     		str	r2, [r3]
 7784 2e90 08E0     		b	.L538
 7785              	.L539:
1453:.\protocolo.c **** 						    write_psoc1(val,msn_tc[x]);
 7786              		.loc 1 1453 0 discriminator 3
 7787 2e92 2046     		mov	r0, r4
 7788 2e94 944A     		ldr	r2, .L649+36
 7789 2e96 D15C     		ldrb	r1, [r2, r3]	@ zero_extendqisi2
 7790 2e98 FFF7FEFF 		bl	write_psoc1
 7791              	.LVL520:
1452:.\protocolo.c **** 						for(x=0;x<=5;x++){									
ARM GAS  C:\Users\diego\AppData\Local\Temp\ccNdDNY6.s 			page 170


 7792              		.loc 1 1452 0 discriminator 3
 7793 2e9c 914A     		ldr	r2, .L649+32
 7794 2e9e 1368     		ldr	r3, [r2]
 7795 2ea0 0133     		adds	r3, r3, #1
 7796 2ea2 1360     		str	r3, [r2]
 7797              	.L538:
1452:.\protocolo.c **** 						for(x=0;x<=5;x++){									
 7798              		.loc 1 1452 0 is_stmt 0 discriminator 1
 7799 2ea4 8F4B     		ldr	r3, .L649+32
 7800 2ea6 1B68     		ldr	r3, [r3]
 7801 2ea8 052B     		cmp	r3, #5
 7802 2eaa F2D9     		bls	.L539
1454:.\protocolo.c **** 					    }
1455:.\protocolo.c **** 					    write_psoc1(val,10);
 7803              		.loc 1 1455 0 is_stmt 1
 7804 2eac 2046     		mov	r0, r4
 7805 2eae 0A21     		movs	r1, #10
 7806 2eb0 FFF7FEFF 		bl	write_psoc1
 7807              	.LVL521:
1456:.\protocolo.c ****                         for(x=0;x<=10;x++){									
 7808              		.loc 1 1456 0
 7809 2eb4 0022     		movs	r2, #0
 7810 2eb6 8B4B     		ldr	r3, .L649+32
 7811 2eb8 1A60     		str	r2, [r3]
 7812 2eba 08E0     		b	.L540
 7813              	.L541:
1457:.\protocolo.c **** 						    write_psoc1(val,producto2n[x]);
 7814              		.loc 1 1457 0 discriminator 3
 7815 2ebc 2046     		mov	r0, r4
 7816 2ebe 8B4A     		ldr	r2, .L649+40
 7817 2ec0 D15C     		ldrb	r1, [r2, r3]	@ zero_extendqisi2
 7818 2ec2 FFF7FEFF 		bl	write_psoc1
 7819              	.LVL522:
1456:.\protocolo.c ****                         for(x=0;x<=10;x++){									
 7820              		.loc 1 1456 0 discriminator 3
 7821 2ec6 874A     		ldr	r2, .L649+32
 7822 2ec8 1368     		ldr	r3, [r2]
 7823 2eca 0133     		adds	r3, r3, #1
 7824 2ecc 1360     		str	r3, [r2]
 7825              	.L540:
1456:.\protocolo.c ****                         for(x=0;x<=10;x++){									
 7826              		.loc 1 1456 0 is_stmt 0 discriminator 1
 7827 2ece 854B     		ldr	r3, .L649+32
 7828 2ed0 1B68     		ldr	r3, [r3]
 7829 2ed2 0A2B     		cmp	r3, #10
 7830 2ed4 F2D9     		bls	.L541
1458:.\protocolo.c **** 					    }
1459:.\protocolo.c ****                         write_psoc1(val,10);
 7831              		.loc 1 1459 0 is_stmt 1
 7832 2ed6 2046     		mov	r0, r4
 7833 2ed8 0A21     		movs	r1, #10
 7834 2eda FFF7FEFF 		bl	write_psoc1
 7835              	.LVL523:
1460:.\protocolo.c **** 						for(x=0;x<=14;x++){									
 7836              		.loc 1 1460 0
 7837 2ede 0022     		movs	r2, #0
 7838 2ee0 804B     		ldr	r3, .L649+32
ARM GAS  C:\Users\diego\AppData\Local\Temp\ccNdDNY6.s 			page 171


 7839 2ee2 1A60     		str	r2, [r3]
 7840 2ee4 09E0     		b	.L542
 7841              	.L543:
1461:.\protocolo.c **** 							write_psoc1(val,msn_lecact[x]);				//LECTURA ACTUAL
 7842              		.loc 1 1461 0 discriminator 3
 7843 2ee6 804A     		ldr	r2, .L649+36
 7844 2ee8 1344     		add	r3, r3, r2
 7845 2eea 2046     		mov	r0, r4
 7846 2eec 197A     		ldrb	r1, [r3, #8]	@ zero_extendqisi2
 7847 2eee FFF7FEFF 		bl	write_psoc1
 7848              	.LVL524:
1460:.\protocolo.c **** 						for(x=0;x<=14;x++){									
 7849              		.loc 1 1460 0 discriminator 3
 7850 2ef2 7C4A     		ldr	r2, .L649+32
 7851 2ef4 1368     		ldr	r3, [r2]
 7852 2ef6 0133     		adds	r3, r3, #1
 7853 2ef8 1360     		str	r3, [r2]
 7854              	.L542:
1460:.\protocolo.c **** 						for(x=0;x<=14;x++){									
 7855              		.loc 1 1460 0 is_stmt 0 discriminator 1
 7856 2efa 7A4B     		ldr	r3, .L649+32
 7857 2efc 1B68     		ldr	r3, [r3]
 7858 2efe 0E2B     		cmp	r3, #14
 7859 2f00 F1D9     		bls	.L543
1462:.\protocolo.c **** 						}
1463:.\protocolo.c **** 						write_psoc1(val,10);
 7860              		.loc 1 1463 0 is_stmt 1
 7861 2f02 2046     		mov	r0, r4
 7862 2f04 0A21     		movs	r1, #10
 7863 2f06 FFF7FEFF 		bl	write_psoc1
 7864              	.LVL525:
1464:.\protocolo.c **** 						print_totalesac(12,val);	
 7865              		.loc 1 1464 0
 7866 2f0a 0C20     		movs	r0, #12
 7867 2f0c 2146     		mov	r1, r4
 7868 2f0e FFF7FEFF 		bl	print_totalesac
 7869              	.LVL526:
1465:.\protocolo.c **** 						for(x=0;x<=16;x++){												
 7870              		.loc 1 1465 0
 7871 2f12 0022     		movs	r2, #0
 7872 2f14 734B     		ldr	r3, .L649+32
 7873 2f16 1A60     		str	r2, [r3]
 7874 2f18 09E0     		b	.L544
 7875              	.L545:
1466:.\protocolo.c **** 							write_psoc1(val,msn_lecaan[x]);				//LECTURA ANTERIOR
 7876              		.loc 1 1466 0 discriminator 3
 7877 2f1a 734A     		ldr	r2, .L649+36
 7878 2f1c 1344     		add	r3, r3, r2
 7879 2f1e 2046     		mov	r0, r4
 7880 2f20 197E     		ldrb	r1, [r3, #24]	@ zero_extendqisi2
 7881 2f22 FFF7FEFF 		bl	write_psoc1
 7882              	.LVL527:
1465:.\protocolo.c **** 						for(x=0;x<=16;x++){												
 7883              		.loc 1 1465 0 discriminator 3
 7884 2f26 6F4A     		ldr	r2, .L649+32
 7885 2f28 1368     		ldr	r3, [r2]
 7886 2f2a 0133     		adds	r3, r3, #1
ARM GAS  C:\Users\diego\AppData\Local\Temp\ccNdDNY6.s 			page 172


 7887 2f2c 1360     		str	r3, [r2]
 7888              	.L544:
1465:.\protocolo.c **** 						for(x=0;x<=16;x++){												
 7889              		.loc 1 1465 0 is_stmt 0 discriminator 1
 7890 2f2e 6D4B     		ldr	r3, .L649+32
 7891 2f30 1B68     		ldr	r3, [r3]
 7892 2f32 102B     		cmp	r3, #16
 7893 2f34 F1D9     		bls	.L545
1467:.\protocolo.c **** 						}
1468:.\protocolo.c **** 						write_psoc1(val,10);
 7894              		.loc 1 1468 0 is_stmt 1
 7895 2f36 2046     		mov	r0, r4
 7896 2f38 0A21     		movs	r1, #10
 7897 2f3a FFF7FEFF 		bl	write_psoc1
 7898              	.LVL528:
1469:.\protocolo.c **** 						if(dir==a.dir){
 7899              		.loc 1 1469 0
 7900 2f3e 644B     		ldr	r3, .L649+12
 7901 2f40 1B78     		ldrb	r3, [r3]	@ zero_extendqisi2
 7902 2f42 AB42     		cmp	r3, r5
 7903 2f44 04D1     		bne	.L546
1470:.\protocolo.c **** 							leer_eeprom(217,25);
 7904              		.loc 1 1470 0
 7905 2f46 D920     		movs	r0, #217
 7906 2f48 1921     		movs	r1, #25
 7907 2f4a FFF7FEFF 		bl	leer_eeprom
 7908              	.LVL529:
 7909 2f4e 04E0     		b	.L547
 7910              	.L546:
1471:.\protocolo.c **** 						}
1472:.\protocolo.c **** 						else{
1473:.\protocolo.c **** 							leer_eeprom(320,25);
 7911              		.loc 1 1473 0
 7912 2f50 4FF4A070 		mov	r0, #320
 7913 2f54 1921     		movs	r1, #25
 7914 2f56 FFF7FEFF 		bl	leer_eeprom
 7915              	.LVL530:
 7916              	.L547:
1474:.\protocolo.c **** 						}
1475:.\protocolo.c **** 						print_totales(val);
 7917              		.loc 1 1475 0
 7918 2f5a 2046     		mov	r0, r4
 7919 2f5c FFF7FEFF 		bl	print_totales
 7920              	.LVL531:
1476:.\protocolo.c **** 						for(z=1;z<=12;z++){
 7921              		.loc 1 1476 0
 7922 2f60 0122     		movs	r2, #1
 7923 2f62 634B     		ldr	r3, .L649+44
 7924 2f64 1A60     		str	r2, [r3]
 7925 2f66 10E0     		b	.L548
 7926              	.L549:
1477:.\protocolo.c **** 							minuendo[z]=rventa.tdinero[z-1];
 7927              		.loc 1 1477 0 discriminator 3
 7928 2f68 624A     		ldr	r2, .L649+48
 7929 2f6a 1A44     		add	r2, r2, r3
 7930 2f6c 92F8CA10 		ldrb	r1, [r2, #202]	@ zero_extendqisi2
 7931 2f70 10AA     		add	r2, sp, #64
ARM GAS  C:\Users\diego\AppData\Local\Temp\ccNdDNY6.s 			page 173


 7932 2f72 1A44     		add	r2, r2, r3
 7933 2f74 02F82C1C 		strb	r1, [r2, #-44]
1478:.\protocolo.c **** 							sustraendo[z]=buffer_i2c[z+12];
 7934              		.loc 1 1478 0 discriminator 3
 7935 2f78 03F10C01 		add	r1, r3, #12
 7936 2f7c 5E48     		ldr	r0, .L649+52
 7937 2f7e 415C     		ldrb	r1, [r0, r1]	@ zero_extendqisi2
 7938 2f80 02F83C1C 		strb	r1, [r2, #-60]
1476:.\protocolo.c **** 						for(z=1;z<=12;z++){
 7939              		.loc 1 1476 0 discriminator 3
 7940 2f84 0133     		adds	r3, r3, #1
 7941 2f86 5A4A     		ldr	r2, .L649+44
 7942 2f88 1360     		str	r3, [r2]
 7943              	.L548:
1476:.\protocolo.c **** 						for(z=1;z<=12;z++){
 7944              		.loc 1 1476 0 is_stmt 0 discriminator 1
 7945 2f8a 594B     		ldr	r3, .L649+44
 7946 2f8c 1B68     		ldr	r3, [r3]
 7947 2f8e 0C2B     		cmp	r3, #12
 7948 2f90 EAD9     		bls	.L549
1479:.\protocolo.c **** 						}
1480:.\protocolo.c **** 						minuendo[0]=12;
 7949              		.loc 1 1480 0 is_stmt 1
 7950 2f92 10A9     		add	r1, sp, #64
 7951 2f94 0C23     		movs	r3, #12
 7952 2f96 01F82C3D 		strb	r3, [r1, #-44]!
1481:.\protocolo.c **** 						operacion(2,minuendo,sustraendo);
 7953              		.loc 1 1481 0
 7954 2f9a 0220     		movs	r0, #2
 7955 2f9c 01AA     		add	r2, sp, #4
 7956 2f9e FFF7FEFF 		bl	operacion
 7957              	.LVL532:
1482:.\protocolo.c **** 						for(x=0;x<=17;x++){									
 7958              		.loc 1 1482 0
 7959 2fa2 0022     		movs	r2, #0
 7960 2fa4 4F4B     		ldr	r3, .L649+32
 7961 2fa6 1A60     		str	r2, [r3]
 7962 2fa8 0AE0     		b	.L550
 7963              	.L551:
1483:.\protocolo.c **** 							write_psoc1(val,msn_tventas[x]);				//Total de ventas
 7964              		.loc 1 1483 0 discriminator 3
 7965 2faa 4F4A     		ldr	r2, .L649+36
 7966 2fac 1344     		add	r3, r3, r2
 7967 2fae 2046     		mov	r0, r4
 7968 2fb0 93F82C10 		ldrb	r1, [r3, #44]	@ zero_extendqisi2
 7969 2fb4 FFF7FEFF 		bl	write_psoc1
 7970              	.LVL533:
1482:.\protocolo.c **** 						for(x=0;x<=17;x++){									
 7971              		.loc 1 1482 0 discriminator 3
 7972 2fb8 4A4A     		ldr	r2, .L649+32
 7973 2fba 1368     		ldr	r3, [r2]
 7974 2fbc 0133     		adds	r3, r3, #1
 7975 2fbe 1360     		str	r3, [r2]
 7976              	.L550:
1482:.\protocolo.c **** 						for(x=0;x<=17;x++){									
 7977              		.loc 1 1482 0 is_stmt 0 discriminator 1
 7978 2fc0 484B     		ldr	r3, .L649+32
ARM GAS  C:\Users\diego\AppData\Local\Temp\ccNdDNY6.s 			page 174


 7979 2fc2 1B68     		ldr	r3, [r3]
 7980 2fc4 112B     		cmp	r3, #17
 7981 2fc6 F0D9     		bls	.L551
1484:.\protocolo.c **** 						}
1485:.\protocolo.c **** 						print_valor(resultado,val);				
 7982              		.loc 1 1485 0 is_stmt 1
 7983 2fc8 3E48     		ldr	r0, .L649
 7984 2fca 2146     		mov	r1, r4
 7985 2fcc FFF7FEFF 		bl	print_valor
 7986              	.LVL534:
1486:.\protocolo.c **** 						if(dir==a.dir){
 7987              		.loc 1 1486 0
 7988 2fd0 3F4B     		ldr	r3, .L649+12
 7989 2fd2 1B78     		ldrb	r3, [r3]	@ zero_extendqisi2
 7990 2fd4 AB42     		cmp	r3, r5
 7991 2fd6 09D1     		bne	.L552
1487:.\protocolo.c **** 							write_eeprom(217,corte);
 7992              		.loc 1 1487 0
 7993 2fd8 D920     		movs	r0, #217
 7994 2fda 09A9     		add	r1, sp, #36
 7995 2fdc FFF7FEFF 		bl	write_eeprom
 7996              	.LVL535:
1488:.\protocolo.c **** 							write_eeprom(538,resultado);
 7997              		.loc 1 1488 0
 7998 2fe0 40F21A20 		movw	r0, #538
 7999 2fe4 3749     		ldr	r1, .L649
 8000 2fe6 FFF7FEFF 		bl	write_eeprom
 8001              	.LVL536:
 8002 2fea 09E0     		b	.L537
 8003              	.L552:
1489:.\protocolo.c **** 						}
1490:.\protocolo.c **** 						else{
1491:.\protocolo.c **** 							write_eeprom(320,corte);
 8004              		.loc 1 1491 0
 8005 2fec 4FF4A070 		mov	r0, #320
 8006 2ff0 09A9     		add	r1, sp, #36
 8007 2ff2 FFF7FEFF 		bl	write_eeprom
 8008              	.LVL537:
1492:.\protocolo.c **** 							write_eeprom(576,resultado);
 8009              		.loc 1 1492 0
 8010 2ff6 4FF41070 		mov	r0, #576
 8011 2ffa 3249     		ldr	r1, .L649
 8012 2ffc FFF7FEFF 		bl	write_eeprom
 8013              	.LVL538:
 8014              	.L537:
1493:.\protocolo.c **** 						}				
1494:.\protocolo.c **** 					}
1495:.\protocolo.c **** 					if(((rventa.manguera==(producto3&0x0F))&&(dir==a.dir))||((rventa.manguera==(producto3b&0x0F))&
 8015              		.loc 1 1495 0
 8016 3000 314B     		ldr	r3, .L649+4
 8017 3002 93F8E020 		ldrb	r2, [r3, #224]	@ zero_extendqisi2
 8018 3006 3D4B     		ldr	r3, .L649+56
 8019 3008 1B78     		ldrb	r3, [r3]	@ zero_extendqisi2
 8020 300a 03F00F03 		and	r3, r3, #15
 8021 300e 9342     		cmp	r3, r2
 8022 3010 03D1     		bne	.L553
 8023              		.loc 1 1495 0 is_stmt 0 discriminator 1
ARM GAS  C:\Users\diego\AppData\Local\Temp\ccNdDNY6.s 			page 175


 8024 3012 2F4B     		ldr	r3, .L649+12
 8025 3014 1B78     		ldrb	r3, [r3]	@ zero_extendqisi2
 8026 3016 AB42     		cmp	r3, r5
 8027 3018 0BD0     		beq	.L554
 8028              	.L553:
 8029              		.loc 1 1495 0 discriminator 3
 8030 301a 394B     		ldr	r3, .L649+60
 8031 301c 1B78     		ldrb	r3, [r3]	@ zero_extendqisi2
 8032 301e 03F00F03 		and	r3, r3, #15
 8033 3022 9A42     		cmp	r2, r3
 8034 3024 40F0E580 		bne	.L555
 8035              		.loc 1 1495 0 discriminator 4
 8036 3028 2B4B     		ldr	r3, .L649+20
 8037 302a 1B78     		ldrb	r3, [r3]	@ zero_extendqisi2
 8038 302c AB42     		cmp	r3, r5
 8039 302e 40F0E080 		bne	.L555
 8040              	.L554:
1496:.\protocolo.c **** 						for(x=0;x<=5;x++){									
 8041              		.loc 1 1496 0 is_stmt 1
 8042 3032 0022     		movs	r2, #0
 8043 3034 2B4B     		ldr	r3, .L649+32
 8044 3036 1A60     		str	r2, [r3]
 8045 3038 08E0     		b	.L556
 8046              	.L557:
1497:.\protocolo.c **** 						    write_psoc1(val,msn_tc[x]);
 8047              		.loc 1 1497 0 discriminator 3
 8048 303a 2046     		mov	r0, r4
 8049 303c 2A4A     		ldr	r2, .L649+36
 8050 303e D15C     		ldrb	r1, [r2, r3]	@ zero_extendqisi2
 8051 3040 FFF7FEFF 		bl	write_psoc1
 8052              	.LVL539:
1496:.\protocolo.c **** 						for(x=0;x<=5;x++){									
 8053              		.loc 1 1496 0 discriminator 3
 8054 3044 274A     		ldr	r2, .L649+32
 8055 3046 1368     		ldr	r3, [r2]
 8056 3048 0133     		adds	r3, r3, #1
 8057 304a 1360     		str	r3, [r2]
 8058              	.L556:
1496:.\protocolo.c **** 						for(x=0;x<=5;x++){									
 8059              		.loc 1 1496 0 is_stmt 0 discriminator 1
 8060 304c 254B     		ldr	r3, .L649+32
 8061 304e 1B68     		ldr	r3, [r3]
 8062 3050 052B     		cmp	r3, #5
 8063 3052 F2D9     		bls	.L557
1498:.\protocolo.c **** 					    }
1499:.\protocolo.c **** 					    write_psoc1(val,10);
 8064              		.loc 1 1499 0 is_stmt 1
 8065 3054 2046     		mov	r0, r4
 8066 3056 0A21     		movs	r1, #10
 8067 3058 FFF7FEFF 		bl	write_psoc1
 8068              	.LVL540:
1500:.\protocolo.c ****                         for(x=0;x<=10;x++){									
 8069              		.loc 1 1500 0
 8070 305c 0022     		movs	r2, #0
 8071 305e 214B     		ldr	r3, .L649+32
 8072 3060 1A60     		str	r2, [r3]
 8073 3062 08E0     		b	.L558
ARM GAS  C:\Users\diego\AppData\Local\Temp\ccNdDNY6.s 			page 176


 8074              	.L559:
1501:.\protocolo.c **** 						    write_psoc1(val,producto3n[x]);
 8075              		.loc 1 1501 0 discriminator 3
 8076 3064 2046     		mov	r0, r4
 8077 3066 274A     		ldr	r2, .L649+64
 8078 3068 D15C     		ldrb	r1, [r2, r3]	@ zero_extendqisi2
 8079 306a FFF7FEFF 		bl	write_psoc1
 8080              	.LVL541:
1500:.\protocolo.c ****                         for(x=0;x<=10;x++){									
 8081              		.loc 1 1500 0 discriminator 3
 8082 306e 1D4A     		ldr	r2, .L649+32
 8083 3070 1368     		ldr	r3, [r2]
 8084 3072 0133     		adds	r3, r3, #1
 8085 3074 1360     		str	r3, [r2]
 8086              	.L558:
1500:.\protocolo.c ****                         for(x=0;x<=10;x++){									
 8087              		.loc 1 1500 0 is_stmt 0 discriminator 1
 8088 3076 1B4B     		ldr	r3, .L649+32
 8089 3078 1B68     		ldr	r3, [r3]
 8090 307a 0A2B     		cmp	r3, #10
 8091 307c F2D9     		bls	.L559
1502:.\protocolo.c **** 					    }
1503:.\protocolo.c ****                         write_psoc1(val,10);
 8092              		.loc 1 1503 0 is_stmt 1
 8093 307e 2046     		mov	r0, r4
 8094 3080 0A21     		movs	r1, #10
 8095 3082 FFF7FEFF 		bl	write_psoc1
 8096              	.LVL542:
1504:.\protocolo.c **** 						for(x=0;x<=14;x++){									
 8097              		.loc 1 1504 0
 8098 3086 0022     		movs	r2, #0
 8099 3088 164B     		ldr	r3, .L649+32
 8100 308a 1A60     		str	r2, [r3]
 8101 308c 09E0     		b	.L560
 8102              	.L561:
1505:.\protocolo.c **** 							write_psoc1(val,msn_lecact[x]);				//LECTURA ACTUAL
 8103              		.loc 1 1505 0 discriminator 3
 8104 308e 164A     		ldr	r2, .L649+36
 8105 3090 1344     		add	r3, r3, r2
 8106 3092 2046     		mov	r0, r4
 8107 3094 197A     		ldrb	r1, [r3, #8]	@ zero_extendqisi2
 8108 3096 FFF7FEFF 		bl	write_psoc1
 8109              	.LVL543:
1504:.\protocolo.c **** 						for(x=0;x<=14;x++){									
 8110              		.loc 1 1504 0 discriminator 3
 8111 309a 124A     		ldr	r2, .L649+32
 8112 309c 1368     		ldr	r3, [r2]
 8113 309e 0133     		adds	r3, r3, #1
 8114 30a0 1360     		str	r3, [r2]
 8115              	.L560:
1504:.\protocolo.c **** 						for(x=0;x<=14;x++){									
 8116              		.loc 1 1504 0 is_stmt 0 discriminator 1
 8117 30a2 104B     		ldr	r3, .L649+32
 8118 30a4 1B68     		ldr	r3, [r3]
 8119 30a6 0E2B     		cmp	r3, #14
 8120 30a8 F1D9     		bls	.L561
1506:.\protocolo.c **** 						}
ARM GAS  C:\Users\diego\AppData\Local\Temp\ccNdDNY6.s 			page 177


1507:.\protocolo.c **** 						write_psoc1(val,10);
 8121              		.loc 1 1507 0 is_stmt 1
 8122 30aa 2046     		mov	r0, r4
 8123 30ac 0A21     		movs	r1, #10
 8124 30ae FFF7FEFF 		bl	write_psoc1
 8125              	.LVL544:
1508:.\protocolo.c **** 						print_totalesac(12,val);	
 8126              		.loc 1 1508 0
 8127 30b2 0C20     		movs	r0, #12
 8128 30b4 2146     		mov	r1, r4
 8129 30b6 FFF7FEFF 		bl	print_totalesac
 8130              	.LVL545:
1509:.\protocolo.c **** 						for(x=0;x<=16;x++){												
 8131              		.loc 1 1509 0
 8132 30ba 0022     		movs	r2, #0
 8133 30bc 094B     		ldr	r3, .L649+32
 8134 30be 1A60     		str	r2, [r3]
 8135 30c0 2CE0     		b	.L562
 8136              	.L650:
 8137 30c2 00BF     		.align	2
 8138              	.L649:
 8139 30c4 00000000 		.word	resultado
 8140 30c8 00000000 		.word	rventa
 8141 30cc 00000000 		.word	producto2
 8142 30d0 00000000 		.word	a
 8143 30d4 00000000 		.word	producto2b
 8144 30d8 00000000 		.word	b
 8145 30dc 00000000 		.word	d
 8146 30e0 00000000 		.word	c
 8147 30e4 00000000 		.word	x
 8148 30e8 00000000 		.word	.LANCHOR1
 8149 30ec 00000000 		.word	producto2n
 8150 30f0 00000000 		.word	z
 8151 30f4 FFFFFFFF 		.word	rventa-1
 8152 30f8 00000000 		.word	buffer_i2c
 8153 30fc 00000000 		.word	producto3
 8154 3100 00000000 		.word	producto3b
 8155 3104 00000000 		.word	producto3n
 8156              	.L563:
1510:.\protocolo.c **** 							write_psoc1(val,msn_lecaan[x]);				//LECTURA ANTERIOR
 8157              		.loc 1 1510 0 discriminator 3
 8158 3108 AD4A     		ldr	r2, .L651
 8159 310a 1344     		add	r3, r3, r2
 8160 310c 2046     		mov	r0, r4
 8161 310e 197E     		ldrb	r1, [r3, #24]	@ zero_extendqisi2
 8162 3110 FFF7FEFF 		bl	write_psoc1
 8163              	.LVL546:
1509:.\protocolo.c **** 						for(x=0;x<=16;x++){												
 8164              		.loc 1 1509 0 discriminator 3
 8165 3114 AB4A     		ldr	r2, .L651+4
 8166 3116 1368     		ldr	r3, [r2]
 8167 3118 0133     		adds	r3, r3, #1
 8168 311a 1360     		str	r3, [r2]
 8169              	.L562:
1509:.\protocolo.c **** 						for(x=0;x<=16;x++){												
 8170              		.loc 1 1509 0 is_stmt 0 discriminator 1
 8171 311c A94B     		ldr	r3, .L651+4
ARM GAS  C:\Users\diego\AppData\Local\Temp\ccNdDNY6.s 			page 178


 8172 311e 1B68     		ldr	r3, [r3]
 8173 3120 102B     		cmp	r3, #16
 8174 3122 F1D9     		bls	.L563
1511:.\protocolo.c **** 						}
1512:.\protocolo.c **** 						write_psoc1(val,10);
 8175              		.loc 1 1512 0 is_stmt 1
 8176 3124 2046     		mov	r0, r4
 8177 3126 0A21     		movs	r1, #10
 8178 3128 FFF7FEFF 		bl	write_psoc1
 8179              	.LVL547:
1513:.\protocolo.c **** 						if(dir==a.dir){
 8180              		.loc 1 1513 0
 8181 312c A64B     		ldr	r3, .L651+8
 8182 312e 1B78     		ldrb	r3, [r3]	@ zero_extendqisi2
 8183 3130 AB42     		cmp	r3, r5
 8184 3132 05D1     		bne	.L564
1514:.\protocolo.c **** 							leer_eeprom(256,25);
 8185              		.loc 1 1514 0
 8186 3134 4FF48070 		mov	r0, #256
 8187 3138 1921     		movs	r1, #25
 8188 313a FFF7FEFF 		bl	leer_eeprom
 8189              	.LVL548:
 8190 313e 04E0     		b	.L565
 8191              	.L564:
1515:.\protocolo.c **** 						}
1516:.\protocolo.c **** 						else{
1517:.\protocolo.c **** 							leer_eeprom(345,25);
 8192              		.loc 1 1517 0
 8193 3140 40F25910 		movw	r0, #345
 8194 3144 1921     		movs	r1, #25
 8195 3146 FFF7FEFF 		bl	leer_eeprom
 8196              	.LVL549:
 8197              	.L565:
1518:.\protocolo.c **** 						}
1519:.\protocolo.c **** 						print_totales(val);
 8198              		.loc 1 1519 0
 8199 314a 2046     		mov	r0, r4
 8200 314c FFF7FEFF 		bl	print_totales
 8201              	.LVL550:
1520:.\protocolo.c **** 						for(z=1;z<=12;z++){
 8202              		.loc 1 1520 0
 8203 3150 0122     		movs	r2, #1
 8204 3152 9E4B     		ldr	r3, .L651+12
 8205 3154 1A60     		str	r2, [r3]
 8206 3156 10E0     		b	.L566
 8207              	.L567:
1521:.\protocolo.c **** 							minuendo[z]=rventa.tdinero[z-1];
 8208              		.loc 1 1521 0 discriminator 3
 8209 3158 9D4A     		ldr	r2, .L651+16
 8210 315a 1A44     		add	r2, r2, r3
 8211 315c 92F8CA10 		ldrb	r1, [r2, #202]	@ zero_extendqisi2
 8212 3160 10AA     		add	r2, sp, #64
 8213 3162 1A44     		add	r2, r2, r3
 8214 3164 02F82C1C 		strb	r1, [r2, #-44]
1522:.\protocolo.c **** 							sustraendo[z]=buffer_i2c[z+12];
 8215              		.loc 1 1522 0 discriminator 3
 8216 3168 03F10C01 		add	r1, r3, #12
ARM GAS  C:\Users\diego\AppData\Local\Temp\ccNdDNY6.s 			page 179


 8217 316c 9948     		ldr	r0, .L651+20
 8218 316e 415C     		ldrb	r1, [r0, r1]	@ zero_extendqisi2
 8219 3170 02F83C1C 		strb	r1, [r2, #-60]
1520:.\protocolo.c **** 						for(z=1;z<=12;z++){
 8220              		.loc 1 1520 0 discriminator 3
 8221 3174 0133     		adds	r3, r3, #1
 8222 3176 954A     		ldr	r2, .L651+12
 8223 3178 1360     		str	r3, [r2]
 8224              	.L566:
1520:.\protocolo.c **** 						for(z=1;z<=12;z++){
 8225              		.loc 1 1520 0 is_stmt 0 discriminator 1
 8226 317a 944B     		ldr	r3, .L651+12
 8227 317c 1B68     		ldr	r3, [r3]
 8228 317e 0C2B     		cmp	r3, #12
 8229 3180 EAD9     		bls	.L567
1523:.\protocolo.c **** 						}
1524:.\protocolo.c **** 						minuendo[0]=12;
 8230              		.loc 1 1524 0 is_stmt 1
 8231 3182 10A9     		add	r1, sp, #64
 8232 3184 0C23     		movs	r3, #12
 8233 3186 01F82C3D 		strb	r3, [r1, #-44]!
1525:.\protocolo.c **** 						operacion(2,minuendo,sustraendo);
 8234              		.loc 1 1525 0
 8235 318a 0220     		movs	r0, #2
 8236 318c 01AA     		add	r2, sp, #4
 8237 318e FFF7FEFF 		bl	operacion
 8238              	.LVL551:
1526:.\protocolo.c **** 						for(x=0;x<=17;x++){									
 8239              		.loc 1 1526 0
 8240 3192 0022     		movs	r2, #0
 8241 3194 8B4B     		ldr	r3, .L651+4
 8242 3196 1A60     		str	r2, [r3]
 8243 3198 0AE0     		b	.L568
 8244              	.L569:
1527:.\protocolo.c **** 							write_psoc1(val,msn_tventas[x]);				//Total de ventas
 8245              		.loc 1 1527 0 discriminator 3
 8246 319a 894A     		ldr	r2, .L651
 8247 319c 1344     		add	r3, r3, r2
 8248 319e 2046     		mov	r0, r4
 8249 31a0 93F82C10 		ldrb	r1, [r3, #44]	@ zero_extendqisi2
 8250 31a4 FFF7FEFF 		bl	write_psoc1
 8251              	.LVL552:
1526:.\protocolo.c **** 						for(x=0;x<=17;x++){									
 8252              		.loc 1 1526 0 discriminator 3
 8253 31a8 864A     		ldr	r2, .L651+4
 8254 31aa 1368     		ldr	r3, [r2]
 8255 31ac 0133     		adds	r3, r3, #1
 8256 31ae 1360     		str	r3, [r2]
 8257              	.L568:
1526:.\protocolo.c **** 						for(x=0;x<=17;x++){									
 8258              		.loc 1 1526 0 is_stmt 0 discriminator 1
 8259 31b0 844B     		ldr	r3, .L651+4
 8260 31b2 1B68     		ldr	r3, [r3]
 8261 31b4 112B     		cmp	r3, #17
 8262 31b6 F0D9     		bls	.L569
1528:.\protocolo.c **** 						}
1529:.\protocolo.c **** 						print_valor(resultado,val);							
ARM GAS  C:\Users\diego\AppData\Local\Temp\ccNdDNY6.s 			page 180


 8263              		.loc 1 1529 0 is_stmt 1
 8264 31b8 8748     		ldr	r0, .L651+24
 8265 31ba 2146     		mov	r1, r4
 8266 31bc FFF7FEFF 		bl	print_valor
 8267              	.LVL553:
1530:.\protocolo.c **** 						if(dir==a.dir){
 8268              		.loc 1 1530 0
 8269 31c0 814B     		ldr	r3, .L651+8
 8270 31c2 1B78     		ldrb	r3, [r3]	@ zero_extendqisi2
 8271 31c4 AB42     		cmp	r3, r5
 8272 31c6 0AD1     		bne	.L570
1531:.\protocolo.c **** 							write_eeprom(256,corte);
 8273              		.loc 1 1531 0
 8274 31c8 4FF48070 		mov	r0, #256
 8275 31cc 09A9     		add	r1, sp, #36
 8276 31ce FFF7FEFF 		bl	write_eeprom
 8277              	.LVL554:
1532:.\protocolo.c **** 							write_eeprom(525,resultado);
 8278              		.loc 1 1532 0
 8279 31d2 40F20D20 		movw	r0, #525
 8280 31d6 8049     		ldr	r1, .L651+24
 8281 31d8 FFF7FEFF 		bl	write_eeprom
 8282              	.LVL555:
 8283 31dc 09E0     		b	.L555
 8284              	.L570:
1533:.\protocolo.c **** 						}
1534:.\protocolo.c **** 						else{
1535:.\protocolo.c **** 							write_eeprom(345,corte);
 8285              		.loc 1 1535 0
 8286 31de 40F25910 		movw	r0, #345
 8287 31e2 09A9     		add	r1, sp, #36
 8288 31e4 FFF7FEFF 		bl	write_eeprom
 8289              	.LVL556:
1536:.\protocolo.c **** 							write_eeprom(589,resultado);
 8290              		.loc 1 1536 0
 8291 31e8 40F24D20 		movw	r0, #589
 8292 31ec 7A49     		ldr	r1, .L651+24
 8293 31ee FFF7FEFF 		bl	write_eeprom
 8294              	.LVL557:
 8295              	.L555:
1537:.\protocolo.c **** 						}					
1538:.\protocolo.c **** 					}
1539:.\protocolo.c ****                     
1540:.\protocolo.c ****                     if(((rventa.manguera==(producto4&0x0F))&&(dir==a.dir))||((rventa.manguera==(pro
 8296              		.loc 1 1540 0
 8297 31f2 7A4B     		ldr	r3, .L651+28
 8298 31f4 93F8E020 		ldrb	r2, [r3, #224]	@ zero_extendqisi2
 8299 31f8 794B     		ldr	r3, .L651+32
 8300 31fa 1B78     		ldrb	r3, [r3]	@ zero_extendqisi2
 8301 31fc 03F00F03 		and	r3, r3, #15
 8302 3200 9342     		cmp	r3, r2
 8303 3202 03D1     		bne	.L571
 8304              		.loc 1 1540 0 is_stmt 0 discriminator 1
 8305 3204 704B     		ldr	r3, .L651+8
 8306 3206 1B78     		ldrb	r3, [r3]	@ zero_extendqisi2
 8307 3208 AB42     		cmp	r3, r5
 8308 320a 0BD0     		beq	.L572
ARM GAS  C:\Users\diego\AppData\Local\Temp\ccNdDNY6.s 			page 181


 8309              	.L571:
 8310              		.loc 1 1540 0 discriminator 3
 8311 320c 754B     		ldr	r3, .L651+36
 8312 320e 1B78     		ldrb	r3, [r3]	@ zero_extendqisi2
 8313 3210 03F00F03 		and	r3, r3, #15
 8314 3214 9A42     		cmp	r2, r3
 8315 3216 40F0C280 		bne	.L573
 8316              		.loc 1 1540 0 discriminator 4
 8317 321a 734B     		ldr	r3, .L651+40
 8318 321c 1B78     		ldrb	r3, [r3]	@ zero_extendqisi2
 8319 321e AB42     		cmp	r3, r5
 8320 3220 40F0BD80 		bne	.L573
 8321              	.L572:
1541:.\protocolo.c **** 						for(x=0;x<=5;x++){									
 8322              		.loc 1 1541 0 is_stmt 1
 8323 3224 0022     		movs	r2, #0
 8324 3226 674B     		ldr	r3, .L651+4
 8325 3228 1A60     		str	r2, [r3]
 8326 322a 08E0     		b	.L574
 8327              	.L575:
1542:.\protocolo.c **** 						    write_psoc1(val,msn_tc[x]);
 8328              		.loc 1 1542 0 discriminator 3
 8329 322c 2046     		mov	r0, r4
 8330 322e 644A     		ldr	r2, .L651
 8331 3230 D15C     		ldrb	r1, [r2, r3]	@ zero_extendqisi2
 8332 3232 FFF7FEFF 		bl	write_psoc1
 8333              	.LVL558:
1541:.\protocolo.c **** 						for(x=0;x<=5;x++){									
 8334              		.loc 1 1541 0 discriminator 3
 8335 3236 634A     		ldr	r2, .L651+4
 8336 3238 1368     		ldr	r3, [r2]
 8337 323a 0133     		adds	r3, r3, #1
 8338 323c 1360     		str	r3, [r2]
 8339              	.L574:
1541:.\protocolo.c **** 						for(x=0;x<=5;x++){									
 8340              		.loc 1 1541 0 is_stmt 0 discriminator 1
 8341 323e 614B     		ldr	r3, .L651+4
 8342 3240 1B68     		ldr	r3, [r3]
 8343 3242 052B     		cmp	r3, #5
 8344 3244 F2D9     		bls	.L575
1543:.\protocolo.c **** 					    }
1544:.\protocolo.c **** 					    write_psoc1(val,10);
 8345              		.loc 1 1544 0 is_stmt 1
 8346 3246 2046     		mov	r0, r4
 8347 3248 0A21     		movs	r1, #10
 8348 324a FFF7FEFF 		bl	write_psoc1
 8349              	.LVL559:
1545:.\protocolo.c ****                         for(x=0;x<=10;x++){									
 8350              		.loc 1 1545 0
 8351 324e 0022     		movs	r2, #0
 8352 3250 5C4B     		ldr	r3, .L651+4
 8353 3252 1A60     		str	r2, [r3]
 8354 3254 08E0     		b	.L576
 8355              	.L577:
1546:.\protocolo.c **** 						    write_psoc1(val,producto4n[x]);
 8356              		.loc 1 1546 0 discriminator 3
 8357 3256 2046     		mov	r0, r4
ARM GAS  C:\Users\diego\AppData\Local\Temp\ccNdDNY6.s 			page 182


 8358 3258 644A     		ldr	r2, .L651+44
 8359 325a D15C     		ldrb	r1, [r2, r3]	@ zero_extendqisi2
 8360 325c FFF7FEFF 		bl	write_psoc1
 8361              	.LVL560:
1545:.\protocolo.c ****                         for(x=0;x<=10;x++){									
 8362              		.loc 1 1545 0 discriminator 3
 8363 3260 584A     		ldr	r2, .L651+4
 8364 3262 1368     		ldr	r3, [r2]
 8365 3264 0133     		adds	r3, r3, #1
 8366 3266 1360     		str	r3, [r2]
 8367              	.L576:
1545:.\protocolo.c ****                         for(x=0;x<=10;x++){									
 8368              		.loc 1 1545 0 is_stmt 0 discriminator 1
 8369 3268 564B     		ldr	r3, .L651+4
 8370 326a 1B68     		ldr	r3, [r3]
 8371 326c 0A2B     		cmp	r3, #10
 8372 326e F2D9     		bls	.L577
1547:.\protocolo.c **** 					    }
1548:.\protocolo.c ****                         write_psoc1(val,10);
 8373              		.loc 1 1548 0 is_stmt 1
 8374 3270 2046     		mov	r0, r4
 8375 3272 0A21     		movs	r1, #10
 8376 3274 FFF7FEFF 		bl	write_psoc1
 8377              	.LVL561:
1549:.\protocolo.c **** 						for(x=0;x<=14;x++){									
 8378              		.loc 1 1549 0
 8379 3278 0022     		movs	r2, #0
 8380 327a 524B     		ldr	r3, .L651+4
 8381 327c 1A60     		str	r2, [r3]
 8382 327e 09E0     		b	.L578
 8383              	.L579:
1550:.\protocolo.c **** 							write_psoc1(val,msn_lecact[x]);				//LECTURA ACTUAL
 8384              		.loc 1 1550 0 discriminator 3
 8385 3280 4F4A     		ldr	r2, .L651
 8386 3282 1344     		add	r3, r3, r2
 8387 3284 2046     		mov	r0, r4
 8388 3286 197A     		ldrb	r1, [r3, #8]	@ zero_extendqisi2
 8389 3288 FFF7FEFF 		bl	write_psoc1
 8390              	.LVL562:
1549:.\protocolo.c **** 						for(x=0;x<=14;x++){									
 8391              		.loc 1 1549 0 discriminator 3
 8392 328c 4D4A     		ldr	r2, .L651+4
 8393 328e 1368     		ldr	r3, [r2]
 8394 3290 0133     		adds	r3, r3, #1
 8395 3292 1360     		str	r3, [r2]
 8396              	.L578:
1549:.\protocolo.c **** 						for(x=0;x<=14;x++){									
 8397              		.loc 1 1549 0 is_stmt 0 discriminator 1
 8398 3294 4B4B     		ldr	r3, .L651+4
 8399 3296 1B68     		ldr	r3, [r3]
 8400 3298 0E2B     		cmp	r3, #14
 8401 329a F1D9     		bls	.L579
1551:.\protocolo.c **** 						}
1552:.\protocolo.c **** 						write_psoc1(val,10);
 8402              		.loc 1 1552 0 is_stmt 1
 8403 329c 2046     		mov	r0, r4
 8404 329e 0A21     		movs	r1, #10
ARM GAS  C:\Users\diego\AppData\Local\Temp\ccNdDNY6.s 			page 183


 8405 32a0 FFF7FEFF 		bl	write_psoc1
 8406              	.LVL563:
1553:.\protocolo.c **** 						print_totalesac(12,val);	
 8407              		.loc 1 1553 0
 8408 32a4 0C20     		movs	r0, #12
 8409 32a6 2146     		mov	r1, r4
 8410 32a8 FFF7FEFF 		bl	print_totalesac
 8411              	.LVL564:
1554:.\protocolo.c **** 						for(x=0;x<=16;x++){												
 8412              		.loc 1 1554 0
 8413 32ac 0022     		movs	r2, #0
 8414 32ae 454B     		ldr	r3, .L651+4
 8415 32b0 1A60     		str	r2, [r3]
 8416 32b2 09E0     		b	.L580
 8417              	.L581:
1555:.\protocolo.c **** 							write_psoc1(val,msn_lecaan[x]);				//LECTURA ANTERIOR
 8418              		.loc 1 1555 0 discriminator 3
 8419 32b4 424A     		ldr	r2, .L651
 8420 32b6 1344     		add	r3, r3, r2
 8421 32b8 2046     		mov	r0, r4
 8422 32ba 197E     		ldrb	r1, [r3, #24]	@ zero_extendqisi2
 8423 32bc FFF7FEFF 		bl	write_psoc1
 8424              	.LVL565:
1554:.\protocolo.c **** 						for(x=0;x<=16;x++){												
 8425              		.loc 1 1554 0 discriminator 3
 8426 32c0 404A     		ldr	r2, .L651+4
 8427 32c2 1368     		ldr	r3, [r2]
 8428 32c4 0133     		adds	r3, r3, #1
 8429 32c6 1360     		str	r3, [r2]
 8430              	.L580:
1554:.\protocolo.c **** 						for(x=0;x<=16;x++){												
 8431              		.loc 1 1554 0 is_stmt 0 discriminator 1
 8432 32c8 3E4B     		ldr	r3, .L651+4
 8433 32ca 1B68     		ldr	r3, [r3]
 8434 32cc 102B     		cmp	r3, #16
 8435 32ce F1D9     		bls	.L581
1556:.\protocolo.c **** 						}
1557:.\protocolo.c **** 						write_psoc1(val,10);
 8436              		.loc 1 1557 0 is_stmt 1
 8437 32d0 2046     		mov	r0, r4
 8438 32d2 0A21     		movs	r1, #10
 8439 32d4 FFF7FEFF 		bl	write_psoc1
 8440              	.LVL566:
1558:.\protocolo.c **** 						if(dir==a.dir){
 8441              		.loc 1 1558 0
 8442 32d8 3B4B     		ldr	r3, .L651+8
 8443 32da 1B78     		ldrb	r3, [r3]	@ zero_extendqisi2
 8444 32dc AB42     		cmp	r3, r5
 8445 32de 05D1     		bne	.L582
1559:.\protocolo.c **** 							leer_eeprom(1096,25);
 8446              		.loc 1 1559 0
 8447 32e0 4FF48960 		mov	r0, #1096
 8448 32e4 1921     		movs	r1, #25
 8449 32e6 FFF7FEFF 		bl	leer_eeprom
 8450              	.LVL567:
 8451 32ea 04E0     		b	.L583
 8452              	.L582:
ARM GAS  C:\Users\diego\AppData\Local\Temp\ccNdDNY6.s 			page 184


1560:.\protocolo.c **** 						}
1561:.\protocolo.c **** 						else{
1562:.\protocolo.c **** 							leer_eeprom(1054,25);
 8453              		.loc 1 1562 0
 8454 32ec 40F21E40 		movw	r0, #1054
 8455 32f0 1921     		movs	r1, #25
 8456 32f2 FFF7FEFF 		bl	leer_eeprom
 8457              	.LVL568:
 8458              	.L583:
1563:.\protocolo.c **** 						}
1564:.\protocolo.c **** 						print_totales(val);
 8459              		.loc 1 1564 0
 8460 32f6 2046     		mov	r0, r4
 8461 32f8 FFF7FEFF 		bl	print_totales
 8462              	.LVL569:
1565:.\protocolo.c **** 						for(z=1;z<=12;z++){
 8463              		.loc 1 1565 0
 8464 32fc 0122     		movs	r2, #1
 8465 32fe 334B     		ldr	r3, .L651+12
 8466 3300 1A60     		str	r2, [r3]
 8467 3302 10E0     		b	.L584
 8468              	.L585:
1566:.\protocolo.c **** 							minuendo[z]=rventa.tdinero[z-1];
 8469              		.loc 1 1566 0 discriminator 3
 8470 3304 324A     		ldr	r2, .L651+16
 8471 3306 1A44     		add	r2, r2, r3
 8472 3308 92F8CA10 		ldrb	r1, [r2, #202]	@ zero_extendqisi2
 8473 330c 10AA     		add	r2, sp, #64
 8474 330e 1A44     		add	r2, r2, r3
 8475 3310 02F82C1C 		strb	r1, [r2, #-44]
1567:.\protocolo.c **** 							sustraendo[z]=buffer_i2c[z+12];
 8476              		.loc 1 1567 0 discriminator 3
 8477 3314 03F10C01 		add	r1, r3, #12
 8478 3318 2E48     		ldr	r0, .L651+20
 8479 331a 415C     		ldrb	r1, [r0, r1]	@ zero_extendqisi2
 8480 331c 02F83C1C 		strb	r1, [r2, #-60]
1565:.\protocolo.c **** 						for(z=1;z<=12;z++){
 8481              		.loc 1 1565 0 discriminator 3
 8482 3320 0133     		adds	r3, r3, #1
 8483 3322 2A4A     		ldr	r2, .L651+12
 8484 3324 1360     		str	r3, [r2]
 8485              	.L584:
1565:.\protocolo.c **** 						for(z=1;z<=12;z++){
 8486              		.loc 1 1565 0 is_stmt 0 discriminator 1
 8487 3326 294B     		ldr	r3, .L651+12
 8488 3328 1B68     		ldr	r3, [r3]
 8489 332a 0C2B     		cmp	r3, #12
 8490 332c EAD9     		bls	.L585
1568:.\protocolo.c **** 						}
1569:.\protocolo.c **** 						minuendo[0]=12;
 8491              		.loc 1 1569 0 is_stmt 1
 8492 332e 10A9     		add	r1, sp, #64
 8493 3330 0C23     		movs	r3, #12
 8494 3332 01F82C3D 		strb	r3, [r1, #-44]!
1570:.\protocolo.c **** 						operacion(2,minuendo,sustraendo);
 8495              		.loc 1 1570 0
 8496 3336 0220     		movs	r0, #2
ARM GAS  C:\Users\diego\AppData\Local\Temp\ccNdDNY6.s 			page 185


 8497 3338 01AA     		add	r2, sp, #4
 8498 333a FFF7FEFF 		bl	operacion
 8499              	.LVL570:
1571:.\protocolo.c **** 						for(x=0;x<=17;x++){									
 8500              		.loc 1 1571 0
 8501 333e 0022     		movs	r2, #0
 8502 3340 204B     		ldr	r3, .L651+4
 8503 3342 1A60     		str	r2, [r3]
 8504 3344 0AE0     		b	.L586
 8505              	.L587:
1572:.\protocolo.c **** 							write_psoc1(val,msn_tventas[x]);				//Total de ventas
 8506              		.loc 1 1572 0 discriminator 3
 8507 3346 1E4A     		ldr	r2, .L651
 8508 3348 1344     		add	r3, r3, r2
 8509 334a 2046     		mov	r0, r4
 8510 334c 93F82C10 		ldrb	r1, [r3, #44]	@ zero_extendqisi2
 8511 3350 FFF7FEFF 		bl	write_psoc1
 8512              	.LVL571:
1571:.\protocolo.c **** 						for(x=0;x<=17;x++){									
 8513              		.loc 1 1571 0 discriminator 3
 8514 3354 1B4A     		ldr	r2, .L651+4
 8515 3356 1368     		ldr	r3, [r2]
 8516 3358 0133     		adds	r3, r3, #1
 8517 335a 1360     		str	r3, [r2]
 8518              	.L586:
1571:.\protocolo.c **** 						for(x=0;x<=17;x++){									
 8519              		.loc 1 1571 0 is_stmt 0 discriminator 1
 8520 335c 194B     		ldr	r3, .L651+4
 8521 335e 1B68     		ldr	r3, [r3]
 8522 3360 112B     		cmp	r3, #17
 8523 3362 F0D9     		bls	.L587
1573:.\protocolo.c **** 						}
1574:.\protocolo.c **** 						print_valor(resultado,val);							
 8524              		.loc 1 1574 0 is_stmt 1
 8525 3364 1C48     		ldr	r0, .L651+24
 8526 3366 2146     		mov	r1, r4
 8527 3368 FFF7FEFF 		bl	print_valor
 8528              	.LVL572:
1575:.\protocolo.c **** 						if(dir==a.dir){
 8529              		.loc 1 1575 0
 8530 336c 164B     		ldr	r3, .L651+8
 8531 336e 1B78     		ldrb	r3, [r3]	@ zero_extendqisi2
 8532 3370 AB42     		cmp	r3, r5
 8533 3372 0AD1     		bne	.L588
1576:.\protocolo.c **** 						    write_eeprom(1096,corte);
 8534              		.loc 1 1576 0
 8535 3374 4FF48960 		mov	r0, #1096
 8536 3378 09A9     		add	r1, sp, #36
 8537 337a FFF7FEFF 		bl	write_eeprom
 8538              	.LVL573:
1577:.\protocolo.c **** 						    write_eeprom(1038,resultado);
 8539              		.loc 1 1577 0
 8540 337e 40F20E40 		movw	r0, #1038
 8541 3382 1549     		ldr	r1, .L651+24
 8542 3384 FFF7FEFF 		bl	write_eeprom
 8543              	.LVL574:
 8544 3388 09E0     		b	.L573
ARM GAS  C:\Users\diego\AppData\Local\Temp\ccNdDNY6.s 			page 186


 8545              	.L588:
1578:.\protocolo.c **** 					    }
1579:.\protocolo.c **** 					    else{
1580:.\protocolo.c **** 						    write_eeprom(1054,corte);
 8546              		.loc 1 1580 0
 8547 338a 40F21E40 		movw	r0, #1054
 8548 338e 09A9     		add	r1, sp, #36
 8549 3390 FFF7FEFF 		bl	write_eeprom
 8550              	.LVL575:
1581:.\protocolo.c **** 						    write_eeprom(1081,resultado);
 8551              		.loc 1 1581 0
 8552 3394 40F23940 		movw	r0, #1081
 8553 3398 0F49     		ldr	r1, .L651+24
 8554 339a FFF7FEFF 		bl	write_eeprom
 8555              	.LVL576:
 8556              	.L573:
1392:.\protocolo.c **** 					rventa.manguera=(Surtidor_rxBuffer[y+2]&0x0F)+1;
 8557              		.loc 1 1392 0 discriminator 2
 8558 339e 144A     		ldr	r2, .L651+48
 8559 33a0 1368     		ldr	r3, [r2]
 8560 33a2 2A33     		adds	r3, r3, #42
 8561 33a4 1360     		str	r3, [r2]
 8562              	.L504:
1392:.\protocolo.c **** 					rventa.manguera=(Surtidor_rxBuffer[y+2]&0x0F)+1;
 8563              		.loc 1 1392 0 is_stmt 0 discriminator 1
 8564 33a6 124B     		ldr	r3, .L651+48
 8565 33a8 1E68     		ldr	r6, [r3]
 8566 33aa 542E     		cmp	r6, #84
 8567 33ac 7FF6ECAB 		bls	.L589
1582:.\protocolo.c **** 				        }					
1583:.\protocolo.c **** 					}
1584:.\protocolo.c **** 				}
1585:.\protocolo.c **** 				Surtidor_ClearRxBuffer();
 8568              		.loc 1 1585 0 is_stmt 1
 8569 33b0 FFF7FEFF 		bl	Surtidor_ClearRxBuffer
 8570              	.LVL577:
1586:.\protocolo.c **** 				return 3;					
 8571              		.loc 1 1586 0
 8572 33b4 0320     		movs	r0, #3
 8573 33b6 5DE0     		b	.L78
 8574              	.L70:
1587:.\protocolo.c **** 			}			
1588:.\protocolo.c **** 			else{
1589:.\protocolo.c **** 				return 0;
1590:.\protocolo.c **** 			}			
1591:.\protocolo.c **** 		break;
1592:.\protocolo.c **** 			
1593:.\protocolo.c **** 		default:
1594:.\protocolo.c ****             for(x=0;x<15;x++){									
 8575              		.loc 1 1594 0
 8576 33b8 0022     		movs	r2, #0
 8577 33ba 024B     		ldr	r3, .L651+4
 8578 33bc 1A60     		str	r2, [r3]
 8579 33be 24E0     		b	.L590
 8580              	.L652:
 8581              		.align	2
 8582              	.L651:
ARM GAS  C:\Users\diego\AppData\Local\Temp\ccNdDNY6.s 			page 187


 8583 33c0 00000000 		.word	.LANCHOR1
 8584 33c4 00000000 		.word	x
 8585 33c8 00000000 		.word	a
 8586 33cc 00000000 		.word	z
 8587 33d0 FFFFFFFF 		.word	rventa-1
 8588 33d4 00000000 		.word	buffer_i2c
 8589 33d8 00000000 		.word	resultado
 8590 33dc 00000000 		.word	rventa
 8591 33e0 00000000 		.word	producto4
 8592 33e4 00000000 		.word	producto4b
 8593 33e8 00000000 		.word	b
 8594 33ec 00000000 		.word	producto4n
 8595 33f0 00000000 		.word	y
 8596              	.L591:
1595:.\protocolo.c **** 				write_psoc1(val,msn_totalcero[x]);				//Total de ventas
 8597              		.loc 1 1595 0 discriminator 3
 8598 33f4 204A     		ldr	r2, .L653
 8599 33f6 1344     		add	r3, r3, r2
 8600 33f8 2046     		mov	r0, r4
 8601 33fa 93F84010 		ldrb	r1, [r3, #64]	@ zero_extendqisi2
 8602 33fe FFF7FEFF 		bl	write_psoc1
 8603              	.LVL578:
1594:.\protocolo.c **** 				write_psoc1(val,msn_totalcero[x]);				//Total de ventas
 8604              		.loc 1 1594 0 discriminator 3
 8605 3402 1E4A     		ldr	r2, .L653+4
 8606 3404 1368     		ldr	r3, [r2]
 8607 3406 0133     		adds	r3, r3, #1
 8608 3408 1360     		str	r3, [r2]
 8609              	.L590:
1594:.\protocolo.c **** 				write_psoc1(val,msn_totalcero[x]);				//Total de ventas
 8610              		.loc 1 1594 0 is_stmt 0 discriminator 1
 8611 340a 1C4B     		ldr	r3, .L653+4
 8612 340c 1B68     		ldr	r3, [r3]
 8613 340e 0E2B     		cmp	r3, #14
 8614 3410 F0D9     		bls	.L591
1596:.\protocolo.c **** 			}
1597:.\protocolo.c **** 			return 0;	
 8615              		.loc 1 1597 0 is_stmt 1
 8616 3412 0020     		movs	r0, #0
 8617 3414 2EE0     		b	.L78
 8618              	.L592:
 574:.\protocolo.c **** 			}
 8619              		.loc 1 574 0
 8620 3416 0020     		movs	r0, #0
 8621 3418 2CE0     		b	.L78
 8622              	.L593:
 8623 341a 0020     		movs	r0, #0
 8624 341c 2AE0     		b	.L78
 8625              	.L594:
 8626 341e 0020     		movs	r0, #0
 8627 3420 28E0     		b	.L78
 8628              	.L595:
 8629 3422 0020     		movs	r0, #0
 8630 3424 26E0     		b	.L78
 8631              	.L596:
 778:.\protocolo.c **** 			}
 8632              		.loc 1 778 0
ARM GAS  C:\Users\diego\AppData\Local\Temp\ccNdDNY6.s 			page 188


 8633 3426 0020     		movs	r0, #0
 8634 3428 24E0     		b	.L78
 8635              	.L597:
 8636 342a 0020     		movs	r0, #0
 8637 342c 22E0     		b	.L78
 8638              	.L598:
 8639 342e 0020     		movs	r0, #0
 8640 3430 20E0     		b	.L78
 8641              	.L599:
 8642 3432 0020     		movs	r0, #0
 8643 3434 1EE0     		b	.L78
 8644              	.L600:
 982:.\protocolo.c **** 			}			
 8645              		.loc 1 982 0
 8646 3436 0020     		movs	r0, #0
 8647 3438 1CE0     		b	.L78
 8648              	.L601:
 8649 343a 0020     		movs	r0, #0
 8650 343c 1AE0     		b	.L78
 8651              	.L602:
 8652 343e 0020     		movs	r0, #0
 8653 3440 18E0     		b	.L78
 8654              	.L603:
 8655 3442 0020     		movs	r0, #0
 8656 3444 16E0     		b	.L78
 8657              	.L604:
1183:.\protocolo.c **** 			}			
 8658              		.loc 1 1183 0
 8659 3446 0020     		movs	r0, #0
 8660 3448 14E0     		b	.L78
 8661              	.L605:
 8662 344a 0020     		movs	r0, #0
 8663 344c 12E0     		b	.L78
 8664              	.L606:
 8665 344e 0020     		movs	r0, #0
 8666 3450 10E0     		b	.L78
 8667              	.L607:
 8668 3452 0020     		movs	r0, #0
 8669 3454 0EE0     		b	.L78
 8670              	.L608:
1386:.\protocolo.c **** 			}			
 8671              		.loc 1 1386 0
 8672 3456 0020     		movs	r0, #0
 8673 3458 0CE0     		b	.L78
 8674              	.L609:
 8675 345a 0020     		movs	r0, #0
 8676 345c 0AE0     		b	.L78
 8677              	.L610:
 8678 345e 0020     		movs	r0, #0
 8679 3460 08E0     		b	.L78
 8680              	.L611:
 8681 3462 0020     		movs	r0, #0
 8682 3464 06E0     		b	.L78
 8683              	.L612:
1589:.\protocolo.c **** 			}			
 8684              		.loc 1 1589 0
 8685 3466 0020     		movs	r0, #0
ARM GAS  C:\Users\diego\AppData\Local\Temp\ccNdDNY6.s 			page 189


 8686 3468 04E0     		b	.L78
 8687              	.L613:
 8688 346a 0020     		movs	r0, #0
 8689 346c 02E0     		b	.L78
 8690              	.L614:
 8691 346e 0020     		movs	r0, #0
 8692 3470 00E0     		b	.L78
 8693              	.L615:
 8694 3472 0020     		movs	r0, #0
 8695              	.L78:
1598:.\protocolo.c **** 		break;	
1599:.\protocolo.c **** 	}		
1600:.\protocolo.c **** }
 8696              		.loc 1 1600 0
 8697 3474 10B0     		add	sp, sp, #64
 8698              		.cfi_def_cfa_offset 16
 8699              		@ sp needed
 8700 3476 70BD     		pop	{r4, r5, r6, pc}
 8701              	.L654:
 8702              		.align	2
 8703              	.L653:
 8704 3478 00000000 		.word	.LANCHOR1
 8705 347c 00000000 		.word	x
 8706              		.cfi_endproc
 8707              	.LFE67:
 8708              		.size	get_totales, .-get_totales
 8709              		.section	.text.programar,"ax",%progbits
 8710              		.align	2
 8711              		.global	programar
 8712              		.thumb
 8713              		.thumb_func
 8714              		.type	programar, %function
 8715              	programar:
 8716              	.LFB68:
1601:.\protocolo.c **** 
1602:.\protocolo.c **** /*
1603:.\protocolo.c **** ***************************************************************************************************
1604:.\protocolo.c **** *                                         uint8 programar(uint8 dir)
1605:.\protocolo.c **** *
1606:.\protocolo.c **** * Description : 
1607:.\protocolo.c **** *               
1608:.\protocolo.c **** *
1609:.\protocolo.c **** * Argument(s) : none
1610:.\protocolo.c **** *
1611:.\protocolo.c **** * Return(s)   : none
1612:.\protocolo.c **** *
1613:.\protocolo.c **** * Caller(s)   : 
1614:.\protocolo.c **** *
1615:.\protocolo.c **** * Note(s)     : none.
1616:.\protocolo.c **** ***************************************************************************************************
1617:.\protocolo.c **** */
1618:.\protocolo.c **** uint8 programar(uint8 dir, uint8 grado, uint8 *valor, uint8 preset){
 8717              		.loc 1 1618 0
 8718              		.cfi_startproc
 8719              		@ args = 0, pretend = 0, frame = 24
 8720              		@ frame_needed = 0, uses_anonymous_args = 0
 8721              	.LVL579:
ARM GAS  C:\Users\diego\AppData\Local\Temp\ccNdDNY6.s 			page 190


 8722 0000 2DE9F041 		push	{r4, r5, r6, r7, r8, lr}
 8723              		.cfi_def_cfa_offset 24
 8724              		.cfi_offset 4, -24
 8725              		.cfi_offset 5, -20
 8726              		.cfi_offset 6, -16
 8727              		.cfi_offset 7, -12
 8728              		.cfi_offset 8, -8
 8729              		.cfi_offset 14, -4
 8730 0004 86B0     		sub	sp, sp, #24
 8731              		.cfi_def_cfa_offset 48
1619:.\protocolo.c **** 	uint8 buffer[18]={0,0,0,0,0,0,0,0,0,0,0,0,0,0,0,0,0,0},size,temp,i,j,decimal=0;
 8732              		.loc 1 1619 0
 8733 0006 0024     		movs	r4, #0
 8734 0008 0194     		str	r4, [sp, #4]
 8735 000a 0294     		str	r4, [sp, #8]
 8736 000c 0394     		str	r4, [sp, #12]
 8737 000e 0494     		str	r4, [sp, #16]
 8738 0010 ADF81440 		strh	r4, [sp, #20]	@ movhi
 8739              	.LVL580:
1620:.\protocolo.c **** 	temp=4;
1621:.\protocolo.c **** 	if(((versurt==5)||(versurt==6))&&(preset==1)){
 8740              		.loc 1 1621 0
 8741 0014 C14C     		ldr	r4, .L718
 8742 0016 2478     		ldrb	r4, [r4]	@ zero_extendqisi2
 8743 0018 651F     		subs	r5, r4, #5
 8744 001a EDB2     		uxtb	r5, r5
 8745 001c 012D     		cmp	r5, #1
 8746 001e 04D8     		bhi	.L706
 8747              		.loc 1 1621 0 is_stmt 0 discriminator 1
 8748 0020 012B     		cmp	r3, #1
 8749 0022 05D0     		beq	.L707
1620:.\protocolo.c **** 	temp=4;
 8750              		.loc 1 1620 0 is_stmt 1
 8751 0024 4FF0040E 		mov	lr, #4
 8752 0028 04E0     		b	.L656
 8753              	.L706:
 8754 002a 4FF0040E 		mov	lr, #4
 8755 002e 01E0     		b	.L656
 8756              	.L707:
1622:.\protocolo.c **** 		temp=3;
 8757              		.loc 1 1622 0
 8758 0030 4FF0030E 		mov	lr, #3
 8759              	.L656:
 8760              	.LVL581:
1623:.\protocolo.c **** 	}
1624:.\protocolo.c **** 	if((versurt==5)&&(preset==2)){
 8761              		.loc 1 1624 0
 8762 0034 052C     		cmp	r4, #5
 8763 0036 03D1     		bne	.L657
 8764              		.loc 1 1624 0 is_stmt 0 discriminator 1
 8765 0038 022B     		cmp	r3, #2
 8766 003a 01D1     		bne	.L657
1625:.\protocolo.c **** 		temp=5;
 8767              		.loc 1 1625 0 is_stmt 1
 8768 003c 4FF0050E 		mov	lr, #5
 8769              	.LVL582:
 8770              	.L657:
ARM GAS  C:\Users\diego\AppData\Local\Temp\ccNdDNY6.s 			page 191


1626:.\protocolo.c **** 	}
1627:.\protocolo.c **** 	if((versurt==7)&&(preset==1)){
 8771              		.loc 1 1627 0
 8772 0040 072C     		cmp	r4, #7
 8773 0042 03D1     		bne	.L658
 8774              		.loc 1 1627 0 is_stmt 0 discriminator 1
 8775 0044 012B     		cmp	r3, #1
 8776 0046 01D1     		bne	.L658
1628:.\protocolo.c **** 		temp=0;
 8777              		.loc 1 1628 0 is_stmt 1
 8778 0048 4FF0000E 		mov	lr, #0
 8779              	.LVL583:
 8780              	.L658:
1629:.\protocolo.c **** 	}
1630:.\protocolo.c **** 	if((versurt==7)&&(preset==2)){
 8781              		.loc 1 1630 0
 8782 004c 072C     		cmp	r4, #7
 8783 004e 03D1     		bne	.L659
 8784              		.loc 1 1630 0 is_stmt 0 discriminator 1
 8785 0050 022B     		cmp	r3, #2
 8786 0052 01D1     		bne	.L659
1631:.\protocolo.c **** 		temp=2;
 8787              		.loc 1 1631 0 is_stmt 1
 8788 0054 4FF0020E 		mov	lr, #2
 8789              	.LVL584:
 8790              	.L659:
1632:.\protocolo.c **** 	}	
1633:.\protocolo.c **** 	decimal=0;
 8791              		.loc 1 1633 0
 8792 0058 0025     		movs	r5, #0
1634:.\protocolo.c **** 	for(i=1;i<=valor[0];i++){
 8793              		.loc 1 1634 0
 8794 005a 0124     		movs	r4, #1
 8795 005c 0FE0     		b	.L660
 8796              	.LVL585:
 8797              	.L663:
1635:.\protocolo.c **** 		if(decimal>=1){
 8798              		.loc 1 1635 0
 8799 005e 25B1     		cbz	r5, .L661
1636:.\protocolo.c **** 			decimal++;
 8800              		.loc 1 1636 0
 8801 0060 0135     		adds	r5, r5, #1
 8802              	.LVL586:
 8803 0062 EDB2     		uxtb	r5, r5
 8804              	.LVL587:
1637:.\protocolo.c **** 			valor[i]=valor[i+1];
 8805              		.loc 1 1637 0
 8806 0064 1719     		adds	r7, r2, r4
 8807 0066 7F78     		ldrb	r7, [r7, #1]	@ zero_extendqisi2
 8808 0068 1755     		strb	r7, [r2, r4]
 8809              	.L661:
1638:.\protocolo.c **** 		}				
1639:.\protocolo.c **** 		if(valor[i]==','){
 8810              		.loc 1 1639 0
 8811 006a 175D     		ldrb	r7, [r2, r4]	@ zero_extendqisi2
 8812 006c 2C2F     		cmp	r7, #44
 8813 006e 04D1     		bne	.L662
ARM GAS  C:\Users\diego\AppData\Local\Temp\ccNdDNY6.s 			page 192


1640:.\protocolo.c **** 			decimal++;
 8814              		.loc 1 1640 0
 8815 0070 0135     		adds	r5, r5, #1
 8816              	.LVL588:
 8817 0072 EDB2     		uxtb	r5, r5
 8818              	.LVL589:
1641:.\protocolo.c **** 			valor[i]=valor[i+1];
 8819              		.loc 1 1641 0
 8820 0074 1719     		adds	r7, r2, r4
 8821 0076 7F78     		ldrb	r7, [r7, #1]	@ zero_extendqisi2
 8822 0078 1755     		strb	r7, [r2, r4]
 8823              	.L662:
1634:.\protocolo.c **** 		if(decimal>=1){
 8824              		.loc 1 1634 0 discriminator 2
 8825 007a 0134     		adds	r4, r4, #1
 8826              	.LVL590:
 8827 007c E4B2     		uxtb	r4, r4
 8828              	.LVL591:
 8829              	.L660:
1634:.\protocolo.c **** 		if(decimal>=1){
 8830              		.loc 1 1634 0 is_stmt 0 discriminator 1
 8831 007e 1778     		ldrb	r7, [r2]	@ zero_extendqisi2
 8832 0080 A742     		cmp	r7, r4
 8833 0082 ECD2     		bcs	.L663
1642:.\protocolo.c **** 		}
1643:.\protocolo.c **** 	}
1644:.\protocolo.c **** 	if(decimal>=1){
 8834              		.loc 1 1644 0 is_stmt 1
 8835 0084 1DB1     		cbz	r5, .L664
1645:.\protocolo.c **** 		decimal=decimal-1;
 8836              		.loc 1 1645 0
 8837 0086 013D     		subs	r5, r5, #1
 8838              	.LVL592:
 8839 0088 EDB2     		uxtb	r5, r5
 8840              	.LVL593:
1646:.\protocolo.c **** 		valor[0]=valor[0]-1;
 8841              		.loc 1 1646 0
 8842 008a 013F     		subs	r7, r7, #1
 8843 008c 1770     		strb	r7, [r2]
 8844              	.L664:
1647:.\protocolo.c **** 	}	
1648:.\protocolo.c **** 	if(decimal>=4){
 8845              		.loc 1 1648 0
 8846 008e 032D     		cmp	r5, #3
 8847 0090 00F2EA81 		bhi	.L711
1649:.\protocolo.c **** 		return 0;
1650:.\protocolo.c **** 	}	
1651:.\protocolo.c **** 	if(versurt!=7){		
 8848              		.loc 1 1651 0
 8849 0094 A14C     		ldr	r4, .L718
 8850              	.LVL594:
 8851 0096 94F800C0 		ldrb	ip, [r4]	@ zero_extendqisi2
 8852 009a BCF1070F 		cmp	ip, #7
 8853 009e 00F0EF80 		beq	.L666
1652:.\protocolo.c **** 		buffer[0]=0xFF;
 8854              		.loc 1 1652 0
 8855 00a2 FF24     		movs	r4, #255
ARM GAS  C:\Users\diego\AppData\Local\Temp\ccNdDNY6.s 			page 193


 8856 00a4 8DF80440 		strb	r4, [sp, #4]
1653:.\protocolo.c **** 		buffer[1]=(0xE0|temp);
 8857              		.loc 1 1653 0
 8858 00a8 6EF01F04 		orn	r4, lr, #31
 8859 00ac 8DF80540 		strb	r4, [sp, #5]
1654:.\protocolo.c **** 		buffer[2]=(0xF0|preset);
 8860              		.loc 1 1654 0
 8861 00b0 63F00F04 		orn	r4, r3, #15
 8862 00b4 8DF80640 		strb	r4, [sp, #6]
1655:.\protocolo.c **** 		buffer[3]=0xF4;
 8863              		.loc 1 1655 0
 8864 00b8 F424     		movs	r4, #244
 8865 00ba 8DF80740 		strb	r4, [sp, #7]
1656:.\protocolo.c **** 		buffer[4]=0xF8;	
 8866              		.loc 1 1656 0
 8867 00be F824     		movs	r4, #248
 8868 00c0 8DF80840 		strb	r4, [sp, #8]
 8869              	.LVL595:
1657:.\protocolo.c **** 		for(i=5;i<((5+decimalD)-decimal);i++){
 8870              		.loc 1 1657 0
 8871 00c4 0524     		movs	r4, #5
 8872 00c6 06E0     		b	.L667
 8873              	.LVL596:
 8874              	.L668:
1658:.\protocolo.c **** 			buffer[i]=0xE0;
 8875              		.loc 1 1658 0 discriminator 3
 8876 00c8 06AE     		add	r6, sp, #24
 8877 00ca 2644     		add	r6, r6, r4
 8878 00cc E027     		movs	r7, #224
 8879 00ce 06F8147C 		strb	r7, [r6, #-20]
1657:.\protocolo.c **** 		for(i=5;i<((5+decimalD)-decimal);i++){
 8880              		.loc 1 1657 0 discriminator 3
 8881 00d2 0134     		adds	r4, r4, #1
 8882              	.LVL597:
 8883 00d4 E4B2     		uxtb	r4, r4
 8884              	.LVL598:
 8885              	.L667:
1657:.\protocolo.c **** 		for(i=5;i<((5+decimalD)-decimal);i++){
 8886              		.loc 1 1657 0 is_stmt 0 discriminator 1
 8887 00d6 A046     		mov	r8, r4
 8888 00d8 914E     		ldr	r6, .L718+4
 8889 00da 3678     		ldrb	r6, [r6]	@ zero_extendqisi2
 8890 00dc 0536     		adds	r6, r6, #5
 8891 00de 761B     		subs	r6, r6, r5
 8892 00e0 B442     		cmp	r4, r6
 8893 00e2 F1DB     		blt	.L668
 8894 00e4 0DE0     		b	.L669
 8895              	.LVL599:
 8896              	.L670:
1659:.\protocolo.c **** 		}
1660:.\protocolo.c **** 		for(j=i;j<(i+valor[0]);j++){
1661:.\protocolo.c **** 			buffer[j]=(0xE0|(valor[valor[0]-(j-i)]&0x0F));	
 8897              		.loc 1 1661 0 is_stmt 1 discriminator 3
 8898 00e6 C4EB0806 		rsb	r6, r4, r8
 8899 00ea 3744     		add	r7, r7, r6
 8900 00ec D65D     		ldrb	r6, [r2, r7]	@ zero_extendqisi2
 8901 00ee 06AF     		add	r7, sp, #24
ARM GAS  C:\Users\diego\AppData\Local\Temp\ccNdDNY6.s 			page 194


 8902 00f0 2744     		add	r7, r7, r4
 8903 00f2 06F00F06 		and	r6, r6, #15
 8904 00f6 66F01F06 		orn	r6, r6, #31
 8905 00fa 07F8146C 		strb	r6, [r7, #-20]
1660:.\protocolo.c **** 			buffer[j]=(0xE0|(valor[valor[0]-(j-i)]&0x0F));	
 8906              		.loc 1 1660 0 discriminator 3
 8907 00fe 0134     		adds	r4, r4, #1
 8908              	.LVL600:
 8909 0100 E4B2     		uxtb	r4, r4
 8910              	.LVL601:
 8911              	.L669:
1660:.\protocolo.c **** 			buffer[j]=(0xE0|(valor[valor[0]-(j-i)]&0x0F));	
 8912              		.loc 1 1660 0 is_stmt 0 discriminator 1
 8913 0102 1778     		ldrb	r7, [r2]	@ zero_extendqisi2
 8914 0104 08EB0706 		add	r6, r8, r7
 8915 0108 B442     		cmp	r4, r6
 8916 010a ECDB     		blt	.L670
 8917 010c 07E0     		b	.L671
 8918              	.LVL602:
 8919              	.L672:
1662:.\protocolo.c **** 		}
1663:.\protocolo.c **** 		for(i=j;i<=10;i++){
1664:.\protocolo.c **** 			buffer[i]=0xE0;
 8920              		.loc 1 1664 0 is_stmt 1 discriminator 3
 8921 010e 06AE     		add	r6, sp, #24
 8922 0110 2644     		add	r6, r6, r4
 8923 0112 4FF0E008 		mov	r8, #224
 8924 0116 06F8148C 		strb	r8, [r6, #-20]
1663:.\protocolo.c **** 			buffer[i]=0xE0;
 8925              		.loc 1 1663 0 discriminator 3
 8926 011a 0134     		adds	r4, r4, #1
 8927              	.LVL603:
 8928 011c E4B2     		uxtb	r4, r4
 8929              	.LVL604:
 8930              	.L671:
1663:.\protocolo.c **** 			buffer[i]=0xE0;
 8931              		.loc 1 1663 0 is_stmt 0 discriminator 1
 8932 011e 0A2C     		cmp	r4, #10
 8933 0120 F5D9     		bls	.L672
1665:.\protocolo.c **** 		}
1666:.\protocolo.c **** 		buffer[11]=0xFB;
 8934              		.loc 1 1666 0 is_stmt 1
 8935 0122 FB24     		movs	r4, #251
 8936              	.LVL605:
 8937 0124 8DF80F40 		strb	r4, [sp, #15]
1667:.\protocolo.c **** 		buffer[12]=0;
 8938              		.loc 1 1667 0
 8939 0128 0024     		movs	r4, #0
 8940 012a 8DF81040 		strb	r4, [sp, #16]
 8941              	.LVL606:
1668:.\protocolo.c **** 		for(i=0;i<=11;i++){
 8942              		.loc 1 1668 0
 8943 012e 0CE0     		b	.L673
 8944              	.LVL607:
 8945              	.L674:
1669:.\protocolo.c **** 			buffer[12]+=(buffer[i]&0x0F);	
 8946              		.loc 1 1669 0 discriminator 3
ARM GAS  C:\Users\diego\AppData\Local\Temp\ccNdDNY6.s 			page 195


 8947 0130 06AE     		add	r6, sp, #24
 8948 0132 2644     		add	r6, r6, r4
 8949 0134 16F8146C 		ldrb	r6, [r6, #-20]	@ zero_extendqisi2
 8950 0138 06F00F06 		and	r6, r6, #15
 8951 013c 9DF81080 		ldrb	r8, [sp, #16]	@ zero_extendqisi2
 8952 0140 4644     		add	r6, r6, r8
 8953 0142 8DF81060 		strb	r6, [sp, #16]
1668:.\protocolo.c **** 		for(i=0;i<=11;i++){
 8954              		.loc 1 1668 0 discriminator 3
 8955 0146 0134     		adds	r4, r4, #1
 8956              	.LVL608:
 8957 0148 E4B2     		uxtb	r4, r4
 8958              	.LVL609:
 8959              	.L673:
1668:.\protocolo.c **** 		for(i=0;i<=11;i++){
 8960              		.loc 1 1668 0 is_stmt 0 discriminator 1
 8961 014a 0B2C     		cmp	r4, #11
 8962 014c F0D9     		bls	.L674
1670:.\protocolo.c **** 		}
1671:.\protocolo.c **** 		buffer[12]=(((~buffer[12])+1)&0x0F)|0xE0;
 8963              		.loc 1 1671 0 is_stmt 1
 8964 014e 9DF81040 		ldrb	r4, [sp, #16]	@ zero_extendqisi2
 8965              	.LVL610:
 8966 0152 6442     		negs	r4, r4
 8967 0154 04F00F04 		and	r4, r4, #15
 8968 0158 64F01F04 		orn	r4, r4, #31
 8969 015c 8DF81040 		strb	r4, [sp, #16]
1672:.\protocolo.c **** 		buffer[13]=0xF0;
 8970              		.loc 1 1672 0
 8971 0160 F024     		movs	r4, #240
 8972 0162 8DF81140 		strb	r4, [sp, #17]
 8973              	.LVL611:
1673:.\protocolo.c **** 		size=13;
1674:.\protocolo.c **** 		if(versurt==5){
 8974              		.loc 1 1674 0
 8975 0166 BCF1050F 		cmp	ip, #5
 8976 016a 23D1     		bne	.L712
1675:.\protocolo.c **** 			buffer[10]=0xFB;
 8977              		.loc 1 1675 0
 8978 016c FB24     		movs	r4, #251
 8979 016e 8DF80E40 		strb	r4, [sp, #14]
1676:.\protocolo.c **** 			buffer[11]=0;
 8980              		.loc 1 1676 0
 8981 0172 0024     		movs	r4, #0
 8982 0174 8DF80F40 		strb	r4, [sp, #15]
 8983              	.LVL612:
1677:.\protocolo.c **** 			for(i=0;i<=10;i++){
 8984              		.loc 1 1677 0
 8985 0178 0CE0     		b	.L676
 8986              	.LVL613:
 8987              	.L677:
1678:.\protocolo.c **** 				buffer[11]+=(buffer[i]&0x0F);	
 8988              		.loc 1 1678 0 discriminator 3
 8989 017a 06AE     		add	r6, sp, #24
 8990 017c 2644     		add	r6, r6, r4
 8991 017e 16F8146C 		ldrb	r6, [r6, #-20]	@ zero_extendqisi2
 8992 0182 06F00F06 		and	r6, r6, #15
ARM GAS  C:\Users\diego\AppData\Local\Temp\ccNdDNY6.s 			page 196


 8993 0186 9DF80FC0 		ldrb	ip, [sp, #15]	@ zero_extendqisi2
 8994 018a 6644     		add	r6, r6, ip
 8995 018c 8DF80F60 		strb	r6, [sp, #15]
1677:.\protocolo.c **** 			for(i=0;i<=10;i++){
 8996              		.loc 1 1677 0 discriminator 3
 8997 0190 0134     		adds	r4, r4, #1
 8998              	.LVL614:
 8999 0192 E4B2     		uxtb	r4, r4
 9000              	.LVL615:
 9001              	.L676:
1677:.\protocolo.c **** 			for(i=0;i<=10;i++){
 9002              		.loc 1 1677 0 is_stmt 0 discriminator 1
 9003 0194 0A2C     		cmp	r4, #10
 9004 0196 F0D9     		bls	.L677
1679:.\protocolo.c **** 			}
1680:.\protocolo.c **** 			buffer[11]=(((~buffer[11])+1)&0x0F)|0xE0;
 9005              		.loc 1 1680 0 is_stmt 1
 9006 0198 9DF80F40 		ldrb	r4, [sp, #15]	@ zero_extendqisi2
 9007              	.LVL616:
 9008 019c 6442     		negs	r4, r4
 9009 019e 04F00F04 		and	r4, r4, #15
 9010 01a2 64F01F04 		orn	r4, r4, #31
 9011 01a6 8DF80F40 		strb	r4, [sp, #15]
1681:.\protocolo.c **** 			buffer[12]=0xF0;
 9012              		.loc 1 1681 0
 9013 01aa F024     		movs	r4, #240
 9014 01ac 8DF81040 		strb	r4, [sp, #16]
 9015              	.LVL617:
1682:.\protocolo.c **** 			size=12;		
 9016              		.loc 1 1682 0
 9017 01b0 0C26     		movs	r6, #12
 9018 01b2 00E0     		b	.L675
 9019              	.LVL618:
 9020              	.L712:
1673:.\protocolo.c **** 		if(versurt==5){
 9021              		.loc 1 1673 0
 9022 01b4 0D26     		movs	r6, #13
 9023              	.LVL619:
 9024              	.L675:
1683:.\protocolo.c **** 		}
1684:.\protocolo.c **** 		if(preset==1){
 9025              		.loc 1 1684 0
 9026 01b6 012B     		cmp	r3, #1
 9027 01b8 62D1     		bne	.L666
1685:.\protocolo.c **** 			if(decimal==3){
 9028              		.loc 1 1685 0
 9029 01ba 032D     		cmp	r5, #3
 9030 01bc 03D1     		bne	.L678
1686:.\protocolo.c **** 				valor[0]=valor[0]-1;
 9031              		.loc 1 1686 0
 9032 01be 013F     		subs	r7, r7, #1
 9033 01c0 1770     		strb	r7, [r2]
1687:.\protocolo.c **** 				decimal=decimal-1;
 9034              		.loc 1 1687 0
 9035 01c2 013D     		subs	r5, r5, #1
 9036              	.LVL620:
 9037 01c4 EDB2     		uxtb	r5, r5
ARM GAS  C:\Users\diego\AppData\Local\Temp\ccNdDNY6.s 			page 197


 9038              	.LVL621:
 9039              	.L678:
1688:.\protocolo.c **** 			}
1689:.\protocolo.c **** 			buffer[4]=0xF6;
 9040              		.loc 1 1689 0
 9041 01c6 F624     		movs	r4, #246
 9042 01c8 8DF80840 		strb	r4, [sp, #8]
1690:.\protocolo.c **** 			buffer[5]=(0xE0|(grado-1));
 9043              		.loc 1 1690 0
 9044 01cc 4C1E     		subs	r4, r1, #1
 9045 01ce 64F01F04 		orn	r4, r4, #31
 9046 01d2 8DF80940 		strb	r4, [sp, #9]
1691:.\protocolo.c **** 			buffer[6]=0xF8;
 9047              		.loc 1 1691 0
 9048 01d6 F824     		movs	r4, #248
 9049 01d8 8DF80A40 		strb	r4, [sp, #10]
 9050              	.LVL622:
1692:.\protocolo.c **** 			for(i=7;i<((7+(decimalV-1))-decimal);i++){
 9051              		.loc 1 1692 0
 9052 01dc 0724     		movs	r4, #7
 9053 01de 06E0     		b	.L679
 9054              	.LVL623:
 9055              	.L680:
1693:.\protocolo.c **** 				buffer[i]=0xE0;
 9056              		.loc 1 1693 0 discriminator 3
 9057 01e0 06AE     		add	r6, sp, #24
 9058 01e2 2644     		add	r6, r6, r4
 9059 01e4 E027     		movs	r7, #224
 9060 01e6 06F8147C 		strb	r7, [r6, #-20]
1692:.\protocolo.c **** 			for(i=7;i<((7+(decimalV-1))-decimal);i++){
 9061              		.loc 1 1692 0 discriminator 3
 9062 01ea 0134     		adds	r4, r4, #1
 9063              	.LVL624:
 9064 01ec E4B2     		uxtb	r4, r4
 9065              	.LVL625:
 9066              	.L679:
1692:.\protocolo.c **** 			for(i=7;i<((7+(decimalV-1))-decimal);i++){
 9067              		.loc 1 1692 0 is_stmt 0 discriminator 1
 9068 01ee 2746     		mov	r7, r4
 9069 01f0 4C4E     		ldr	r6, .L718+8
 9070 01f2 3678     		ldrb	r6, [r6]	@ zero_extendqisi2
 9071 01f4 0636     		adds	r6, r6, #6
 9072 01f6 761B     		subs	r6, r6, r5
 9073 01f8 B442     		cmp	r4, r6
 9074 01fa F1DB     		blt	.L680
 9075 01fc 0DE0     		b	.L681
 9076              	.LVL626:
 9077              	.L682:
1694:.\protocolo.c **** 			}
1695:.\protocolo.c **** 			for(j=i;j<(i+valor[0]);j++){
1696:.\protocolo.c **** 				buffer[j]=(0xE0|(valor[valor[0]-(j-i)]&0x0F));	
 9078              		.loc 1 1696 0 is_stmt 1 discriminator 3
 9079 01fe 3E1B     		subs	r6, r7, r4
 9080 0200 6644     		add	r6, r6, ip
 9081 0202 965D     		ldrb	r6, [r2, r6]	@ zero_extendqisi2
 9082 0204 0DF1180C 		add	ip, sp, #24
 9083 0208 A444     		add	ip, ip, r4
ARM GAS  C:\Users\diego\AppData\Local\Temp\ccNdDNY6.s 			page 198


 9084 020a 06F00F06 		and	r6, r6, #15
 9085 020e 66F01F06 		orn	r6, r6, #31
 9086 0212 0CF8146C 		strb	r6, [ip, #-20]
1695:.\protocolo.c **** 				buffer[j]=(0xE0|(valor[valor[0]-(j-i)]&0x0F));	
 9087              		.loc 1 1695 0 discriminator 3
 9088 0216 0134     		adds	r4, r4, #1
 9089              	.LVL627:
 9090 0218 E4B2     		uxtb	r4, r4
 9091              	.LVL628:
 9092              	.L681:
1695:.\protocolo.c **** 				buffer[j]=(0xE0|(valor[valor[0]-(j-i)]&0x0F));	
 9093              		.loc 1 1695 0 is_stmt 0 discriminator 1
 9094 021a 92F800C0 		ldrb	ip, [r2]	@ zero_extendqisi2
 9095 021e 07EB0C06 		add	r6, r7, ip
 9096 0222 B442     		cmp	r4, r6
 9097 0224 EBDB     		blt	.L682
 9098 0226 06E0     		b	.L683
 9099              	.LVL629:
 9100              	.L684:
1697:.\protocolo.c **** 			}
1698:.\protocolo.c **** 			for(i=j;i<=11;i++){
1699:.\protocolo.c **** 				buffer[i]=0xE0;
 9101              		.loc 1 1699 0 is_stmt 1 discriminator 3
 9102 0228 06AE     		add	r6, sp, #24
 9103 022a 2644     		add	r6, r6, r4
 9104 022c E027     		movs	r7, #224
 9105 022e 06F8147C 		strb	r7, [r6, #-20]
1698:.\protocolo.c **** 				buffer[i]=0xE0;
 9106              		.loc 1 1698 0 discriminator 3
 9107 0232 0134     		adds	r4, r4, #1
 9108              	.LVL630:
 9109 0234 E4B2     		uxtb	r4, r4
 9110              	.LVL631:
 9111              	.L683:
1698:.\protocolo.c **** 				buffer[i]=0xE0;
 9112              		.loc 1 1698 0 is_stmt 0 discriminator 1
 9113 0236 0B2C     		cmp	r4, #11
 9114 0238 F6D9     		bls	.L684
1700:.\protocolo.c **** 			}			
1701:.\protocolo.c **** 			buffer[12]=0xFB;
 9115              		.loc 1 1701 0 is_stmt 1
 9116 023a FB24     		movs	r4, #251
 9117              	.LVL632:
 9118 023c 8DF81040 		strb	r4, [sp, #16]
1702:.\protocolo.c **** 			buffer[13]=0;
 9119              		.loc 1 1702 0
 9120 0240 0024     		movs	r4, #0
 9121 0242 8DF81140 		strb	r4, [sp, #17]
 9122              	.LVL633:
1703:.\protocolo.c **** 			for(i=0;i<=12;i++){
 9123              		.loc 1 1703 0
 9124 0246 0CE0     		b	.L685
 9125              	.LVL634:
 9126              	.L686:
1704:.\protocolo.c **** 				buffer[13]+=(buffer[i]&0x0F);	
 9127              		.loc 1 1704 0 discriminator 3
 9128 0248 06AE     		add	r6, sp, #24
ARM GAS  C:\Users\diego\AppData\Local\Temp\ccNdDNY6.s 			page 199


 9129 024a 2644     		add	r6, r6, r4
 9130 024c 16F8146C 		ldrb	r6, [r6, #-20]	@ zero_extendqisi2
 9131 0250 06F00F06 		and	r6, r6, #15
 9132 0254 9DF81170 		ldrb	r7, [sp, #17]	@ zero_extendqisi2
 9133 0258 3E44     		add	r6, r6, r7
 9134 025a 8DF81160 		strb	r6, [sp, #17]
1703:.\protocolo.c **** 			for(i=0;i<=12;i++){
 9135              		.loc 1 1703 0 discriminator 3
 9136 025e 0134     		adds	r4, r4, #1
 9137              	.LVL635:
 9138 0260 E4B2     		uxtb	r4, r4
 9139              	.LVL636:
 9140              	.L685:
1703:.\protocolo.c **** 			for(i=0;i<=12;i++){
 9141              		.loc 1 1703 0 is_stmt 0 discriminator 1
 9142 0262 0C2C     		cmp	r4, #12
 9143 0264 F0D9     		bls	.L686
1705:.\protocolo.c **** 			}
1706:.\protocolo.c **** 			buffer[13]=(((~buffer[13])+1)&0x0F)|0xE0;			
 9144              		.loc 1 1706 0 is_stmt 1
 9145 0266 9DF81140 		ldrb	r4, [sp, #17]	@ zero_extendqisi2
 9146              	.LVL637:
 9147 026a 6442     		negs	r4, r4
 9148 026c 04F00F04 		and	r4, r4, #15
 9149 0270 64F01F04 		orn	r4, r4, #31
 9150 0274 8DF81140 		strb	r4, [sp, #17]
1707:.\protocolo.c **** 			buffer[14]=0xF0;
 9151              		.loc 1 1707 0
 9152 0278 F024     		movs	r4, #240
 9153 027a 8DF81240 		strb	r4, [sp, #18]
 9154              	.LVL638:
1708:.\protocolo.c **** 			size=14;
 9155              		.loc 1 1708 0
 9156 027e 0E26     		movs	r6, #14
 9157              	.LVL639:
 9158              	.L666:
1709:.\protocolo.c **** 		}	
1710:.\protocolo.c **** 	}	
1711:.\protocolo.c **** 	if(versurt==7){
 9159              		.loc 1 1711 0
 9160 0280 264C     		ldr	r4, .L718
 9161 0282 2478     		ldrb	r4, [r4]	@ zero_extendqisi2
 9162 0284 072C     		cmp	r4, #7
 9163 0286 40F0C780 		bne	.L687
1712:.\protocolo.c **** 		buffer[0]=0xFF;
 9164              		.loc 1 1712 0
 9165 028a FF24     		movs	r4, #255
 9166 028c 8DF80440 		strb	r4, [sp, #4]
1713:.\protocolo.c **** 		buffer[1]=(0xE0|temp);
 9167              		.loc 1 1713 0
 9168 0290 6EF01F0E 		orn	lr, lr, #31
 9169              	.LVL640:
 9170 0294 8DF805E0 		strb	lr, [sp, #5]
1714:.\protocolo.c **** 		buffer[2]=(0xF0|preset);
 9171              		.loc 1 1714 0
 9172 0298 63F00F04 		orn	r4, r3, #15
 9173 029c 8DF80640 		strb	r4, [sp, #6]
ARM GAS  C:\Users\diego\AppData\Local\Temp\ccNdDNY6.s 			page 200


1715:.\protocolo.c **** 		buffer[3]=0xF4;
 9174              		.loc 1 1715 0
 9175 02a0 F424     		movs	r4, #244
 9176 02a2 8DF80740 		strb	r4, [sp, #7]
1716:.\protocolo.c **** 		buffer[4]=0xF8;	
 9177              		.loc 1 1716 0
 9178 02a6 F824     		movs	r4, #248
 9179 02a8 8DF80840 		strb	r4, [sp, #8]
 9180              	.LVL641:
1717:.\protocolo.c **** 		for(i=5;i<((5+decimalD)-decimal);i++){
 9181              		.loc 1 1717 0
 9182 02ac 0524     		movs	r4, #5
 9183 02ae 06E0     		b	.L688
 9184              	.LVL642:
 9185              	.L689:
1718:.\protocolo.c **** 			buffer[i]=0xE0;
 9186              		.loc 1 1718 0 discriminator 3
 9187 02b0 06AE     		add	r6, sp, #24
 9188 02b2 2644     		add	r6, r6, r4
 9189 02b4 E027     		movs	r7, #224
 9190 02b6 06F8147C 		strb	r7, [r6, #-20]
1717:.\protocolo.c **** 		for(i=5;i<((5+decimalD)-decimal);i++){
 9191              		.loc 1 1717 0 discriminator 3
 9192 02ba 0134     		adds	r4, r4, #1
 9193              	.LVL643:
 9194 02bc E4B2     		uxtb	r4, r4
 9195              	.LVL644:
 9196              	.L688:
1717:.\protocolo.c **** 		for(i=5;i<((5+decimalD)-decimal);i++){
 9197              		.loc 1 1717 0 is_stmt 0 discriminator 1
 9198 02be A646     		mov	lr, r4
 9199 02c0 174E     		ldr	r6, .L718+4
 9200 02c2 3678     		ldrb	r6, [r6]	@ zero_extendqisi2
 9201 02c4 0536     		adds	r6, r6, #5
 9202 02c6 2F46     		mov	r7, r5
 9203 02c8 761B     		subs	r6, r6, r5
 9204 02ca B442     		cmp	r4, r6
 9205 02cc F0DB     		blt	.L689
 9206 02ce 0DE0     		b	.L690
 9207              	.LVL645:
 9208              	.L691:
1719:.\protocolo.c **** 		}
1720:.\protocolo.c **** 		for(j=i;j<(i+valor[0]);j++){
1721:.\protocolo.c **** 			buffer[j]=(0xE0|(valor[valor[0]-(j-i)]&0x0F));	
 9209              		.loc 1 1721 0 is_stmt 1 discriminator 3
 9210 02d0 C4EB0E05 		rsb	r5, r4, lr
 9211 02d4 2E44     		add	r6, r6, r5
 9212 02d6 955D     		ldrb	r5, [r2, r6]	@ zero_extendqisi2
 9213 02d8 06AE     		add	r6, sp, #24
 9214 02da 2644     		add	r6, r6, r4
 9215 02dc 05F00F05 		and	r5, r5, #15
 9216 02e0 65F01F05 		orn	r5, r5, #31
 9217 02e4 06F8145C 		strb	r5, [r6, #-20]
1720:.\protocolo.c **** 			buffer[j]=(0xE0|(valor[valor[0]-(j-i)]&0x0F));	
 9218              		.loc 1 1720 0 discriminator 3
 9219 02e8 0134     		adds	r4, r4, #1
 9220              	.LVL646:
ARM GAS  C:\Users\diego\AppData\Local\Temp\ccNdDNY6.s 			page 201


 9221 02ea E4B2     		uxtb	r4, r4
 9222              	.LVL647:
 9223              	.L690:
1720:.\protocolo.c **** 			buffer[j]=(0xE0|(valor[valor[0]-(j-i)]&0x0F));	
 9224              		.loc 1 1720 0 is_stmt 0 discriminator 1
 9225 02ec 1678     		ldrb	r6, [r2]	@ zero_extendqisi2
 9226 02ee 0EEB0605 		add	r5, lr, r6
 9227 02f2 AC42     		cmp	r4, r5
 9228 02f4 ECDB     		blt	.L691
 9229 02f6 07E0     		b	.L692
 9230              	.LVL648:
 9231              	.L693:
1722:.\protocolo.c **** 		}
1723:.\protocolo.c **** 		for(i=j;i<=12;i++){
1724:.\protocolo.c **** 			buffer[i]=0xE0;
 9232              		.loc 1 1724 0 is_stmt 1 discriminator 3
 9233 02f8 06AD     		add	r5, sp, #24
 9234 02fa 2544     		add	r5, r5, r4
 9235 02fc 4FF0E00E 		mov	lr, #224
 9236 0300 05F814EC 		strb	lr, [r5, #-20]
1723:.\protocolo.c **** 			buffer[i]=0xE0;
 9237              		.loc 1 1723 0 discriminator 3
 9238 0304 0134     		adds	r4, r4, #1
 9239              	.LVL649:
 9240 0306 E4B2     		uxtb	r4, r4
 9241              	.LVL650:
 9242              	.L692:
1723:.\protocolo.c **** 			buffer[i]=0xE0;
 9243              		.loc 1 1723 0 is_stmt 0 discriminator 1
 9244 0308 0C2C     		cmp	r4, #12
 9245 030a F5D9     		bls	.L693
1725:.\protocolo.c **** 		}
1726:.\protocolo.c **** 		buffer[13]=0xFB;
 9246              		.loc 1 1726 0 is_stmt 1
 9247 030c FB24     		movs	r4, #251
 9248              	.LVL651:
 9249 030e 8DF81140 		strb	r4, [sp, #17]
1727:.\protocolo.c **** 		buffer[14]=0;
 9250              		.loc 1 1727 0
 9251 0312 0024     		movs	r4, #0
 9252 0314 8DF81240 		strb	r4, [sp, #18]
 9253              	.LVL652:
1728:.\protocolo.c **** 		for(i=0;i<=13;i++){
 9254              		.loc 1 1728 0
 9255 0318 13E0     		b	.L694
 9256              	.L719:
 9257 031a 00BF     		.align	2
 9258              	.L718:
 9259 031c 00000000 		.word	versurt
 9260 0320 00000000 		.word	decimalD
 9261 0324 00000000 		.word	decimalV
 9262              	.LVL653:
 9263              	.L695:
1729:.\protocolo.c **** 			buffer[14]+=(buffer[i]&0x0F);	
 9264              		.loc 1 1729 0 discriminator 3
 9265 0328 06AD     		add	r5, sp, #24
 9266 032a 2544     		add	r5, r5, r4
ARM GAS  C:\Users\diego\AppData\Local\Temp\ccNdDNY6.s 			page 202


 9267 032c 15F8145C 		ldrb	r5, [r5, #-20]	@ zero_extendqisi2
 9268 0330 05F00F05 		and	r5, r5, #15
 9269 0334 9DF812E0 		ldrb	lr, [sp, #18]	@ zero_extendqisi2
 9270 0338 7544     		add	r5, r5, lr
 9271 033a 8DF81250 		strb	r5, [sp, #18]
1728:.\protocolo.c **** 		for(i=0;i<=13;i++){
 9272              		.loc 1 1728 0 discriminator 3
 9273 033e 0134     		adds	r4, r4, #1
 9274              	.LVL654:
 9275 0340 E4B2     		uxtb	r4, r4
 9276              	.LVL655:
 9277              	.L694:
1728:.\protocolo.c **** 		for(i=0;i<=13;i++){
 9278              		.loc 1 1728 0 is_stmt 0 discriminator 1
 9279 0342 0D2C     		cmp	r4, #13
 9280 0344 F0D9     		bls	.L695
1730:.\protocolo.c **** 		}
1731:.\protocolo.c **** 		buffer[14]=(((~buffer[14])+1)&0x0F)|0xE0;
 9281              		.loc 1 1731 0 is_stmt 1
 9282 0346 9DF81240 		ldrb	r4, [sp, #18]	@ zero_extendqisi2
 9283              	.LVL656:
 9284 034a 6442     		negs	r4, r4
 9285 034c 04F00F04 		and	r4, r4, #15
 9286 0350 64F01F04 		orn	r4, r4, #31
 9287 0354 8DF81240 		strb	r4, [sp, #18]
1732:.\protocolo.c **** 		buffer[15]=0xF0;
 9288              		.loc 1 1732 0
 9289 0358 F024     		movs	r4, #240
 9290 035a 8DF81340 		strb	r4, [sp, #19]
 9291              	.LVL657:
1733:.\protocolo.c **** 		size=15;
1734:.\protocolo.c **** 		if(preset==1){
 9292              		.loc 1 1734 0
 9293 035e 012B     		cmp	r3, #1
 9294 0360 59D1     		bne	.L713
1735:.\protocolo.c **** 			buffer[4]=0xF6;
 9295              		.loc 1 1735 0
 9296 0362 F623     		movs	r3, #246
 9297              	.LVL658:
 9298 0364 8DF80830 		strb	r3, [sp, #8]
1736:.\protocolo.c **** 			buffer[5]=(0xE0|(grado-1));
 9299              		.loc 1 1736 0
 9300 0368 4B1E     		subs	r3, r1, #1
 9301 036a 63F01F03 		orn	r3, r3, #31
 9302 036e 8DF80930 		strb	r3, [sp, #9]
1737:.\protocolo.c **** 			buffer[6]=0xF8;
 9303              		.loc 1 1737 0
 9304 0372 F823     		movs	r3, #248
 9305 0374 8DF80A30 		strb	r3, [sp, #10]
 9306              	.LVL659:
1738:.\protocolo.c **** 			for(i=7;i<((7+decimalV)-decimal);i++){
 9307              		.loc 1 1738 0
 9308 0378 0723     		movs	r3, #7
 9309 037a 06E0     		b	.L696
 9310              	.LVL660:
 9311              	.L697:
1739:.\protocolo.c **** 				buffer[i]=0xE0;
ARM GAS  C:\Users\diego\AppData\Local\Temp\ccNdDNY6.s 			page 203


 9312              		.loc 1 1739 0 discriminator 3
 9313 037c 06A9     		add	r1, sp, #24
 9314 037e 1944     		add	r1, r1, r3
 9315 0380 E024     		movs	r4, #224
 9316 0382 01F8144C 		strb	r4, [r1, #-20]
1738:.\protocolo.c **** 			for(i=7;i<((7+decimalV)-decimal);i++){
 9317              		.loc 1 1738 0 discriminator 3
 9318 0386 0133     		adds	r3, r3, #1
 9319              	.LVL661:
 9320 0388 DBB2     		uxtb	r3, r3
 9321              	.LVL662:
 9322              	.L696:
1738:.\protocolo.c **** 			for(i=7;i<((7+decimalV)-decimal);i++){
 9323              		.loc 1 1738 0 is_stmt 0 discriminator 1
 9324 038a 1C46     		mov	r4, r3
 9325 038c 3C49     		ldr	r1, .L720
 9326 038e 0978     		ldrb	r1, [r1]	@ zero_extendqisi2
 9327 0390 0731     		adds	r1, r1, #7
 9328 0392 C91B     		subs	r1, r1, r7
 9329 0394 8B42     		cmp	r3, r1
 9330 0396 F1DB     		blt	.L697
 9331 0398 0CE0     		b	.L698
 9332              	.LVL663:
 9333              	.L699:
1740:.\protocolo.c **** 			}
1741:.\protocolo.c **** 			for(j=i;j<(i+valor[0]);j++){
1742:.\protocolo.c **** 				buffer[j]=(0xE0|(valor[valor[0]-(j-i)]&0x0F));	
 9334              		.loc 1 1742 0 is_stmt 1 discriminator 3
 9335 039a E11A     		subs	r1, r4, r3
 9336 039c 3144     		add	r1, r1, r6
 9337 039e 515C     		ldrb	r1, [r2, r1]	@ zero_extendqisi2
 9338 03a0 06AD     		add	r5, sp, #24
 9339 03a2 1D44     		add	r5, r5, r3
 9340 03a4 01F00F01 		and	r1, r1, #15
 9341 03a8 61F01F01 		orn	r1, r1, #31
 9342 03ac 05F8141C 		strb	r1, [r5, #-20]
1741:.\protocolo.c **** 				buffer[j]=(0xE0|(valor[valor[0]-(j-i)]&0x0F));	
 9343              		.loc 1 1741 0 discriminator 3
 9344 03b0 0133     		adds	r3, r3, #1
 9345              	.LVL664:
 9346 03b2 DBB2     		uxtb	r3, r3
 9347              	.LVL665:
 9348              	.L698:
1741:.\protocolo.c **** 				buffer[j]=(0xE0|(valor[valor[0]-(j-i)]&0x0F));	
 9349              		.loc 1 1741 0 is_stmt 0 discriminator 1
 9350 03b4 3119     		adds	r1, r6, r4
 9351 03b6 8B42     		cmp	r3, r1
 9352 03b8 EFDB     		blt	.L699
 9353 03ba 06E0     		b	.L700
 9354              	.LVL666:
 9355              	.L701:
1743:.\protocolo.c **** 			}
1744:.\protocolo.c **** 			for(i=j;i<=14;i++){
1745:.\protocolo.c **** 				buffer[i]=0xE0;
 9356              		.loc 1 1745 0 is_stmt 1 discriminator 3
 9357 03bc 06AA     		add	r2, sp, #24
 9358 03be 1A44     		add	r2, r2, r3
ARM GAS  C:\Users\diego\AppData\Local\Temp\ccNdDNY6.s 			page 204


 9359 03c0 E021     		movs	r1, #224
 9360 03c2 02F8141C 		strb	r1, [r2, #-20]
1744:.\protocolo.c **** 				buffer[i]=0xE0;
 9361              		.loc 1 1744 0 discriminator 3
 9362 03c6 0133     		adds	r3, r3, #1
 9363              	.LVL667:
 9364 03c8 DBB2     		uxtb	r3, r3
 9365              	.LVL668:
 9366              	.L700:
1744:.\protocolo.c **** 				buffer[i]=0xE0;
 9367              		.loc 1 1744 0 is_stmt 0 discriminator 1
 9368 03ca 0E2B     		cmp	r3, #14
 9369 03cc F6D9     		bls	.L701
1746:.\protocolo.c **** 			}			
1747:.\protocolo.c **** 			buffer[15]=0xFB;
 9370              		.loc 1 1747 0 is_stmt 1
 9371 03ce FB23     		movs	r3, #251
 9372              	.LVL669:
 9373 03d0 8DF81330 		strb	r3, [sp, #19]
1748:.\protocolo.c **** 			buffer[16]=0;
 9374              		.loc 1 1748 0
 9375 03d4 0023     		movs	r3, #0
 9376 03d6 8DF81430 		strb	r3, [sp, #20]
 9377              	.LVL670:
1749:.\protocolo.c **** 			for(i=0;i<=15;i++){
 9378              		.loc 1 1749 0
 9379 03da 0CE0     		b	.L702
 9380              	.LVL671:
 9381              	.L703:
1750:.\protocolo.c **** 				buffer[16]+=(buffer[i]&0x0F);	
 9382              		.loc 1 1750 0 discriminator 3
 9383 03dc 06AA     		add	r2, sp, #24
 9384 03de 1A44     		add	r2, r2, r3
 9385 03e0 12F8142C 		ldrb	r2, [r2, #-20]	@ zero_extendqisi2
 9386 03e4 02F00F02 		and	r2, r2, #15
 9387 03e8 9DF81410 		ldrb	r1, [sp, #20]	@ zero_extendqisi2
 9388 03ec 0A44     		add	r2, r2, r1
 9389 03ee 8DF81420 		strb	r2, [sp, #20]
1749:.\protocolo.c **** 			for(i=0;i<=15;i++){
 9390              		.loc 1 1749 0 discriminator 3
 9391 03f2 0133     		adds	r3, r3, #1
 9392              	.LVL672:
 9393 03f4 DBB2     		uxtb	r3, r3
 9394              	.LVL673:
 9395              	.L702:
1749:.\protocolo.c **** 			for(i=0;i<=15;i++){
 9396              		.loc 1 1749 0 is_stmt 0 discriminator 1
 9397 03f6 0F2B     		cmp	r3, #15
 9398 03f8 F0D9     		bls	.L703
1751:.\protocolo.c **** 			}
1752:.\protocolo.c **** 			buffer[16]=(((~buffer[16])+1)&0x0F)|0xE0;			
 9399              		.loc 1 1752 0 is_stmt 1
 9400 03fa 9DF81430 		ldrb	r3, [sp, #20]	@ zero_extendqisi2
 9401              	.LVL674:
 9402 03fe 5B42     		negs	r3, r3
 9403 0400 03F00F03 		and	r3, r3, #15
 9404 0404 63F01F03 		orn	r3, r3, #31
ARM GAS  C:\Users\diego\AppData\Local\Temp\ccNdDNY6.s 			page 205


 9405 0408 8DF81430 		strb	r3, [sp, #20]
1753:.\protocolo.c **** 			buffer[17]=0xF0;
 9406              		.loc 1 1753 0
 9407 040c F023     		movs	r3, #240
 9408 040e 8DF81530 		strb	r3, [sp, #21]
 9409              	.LVL675:
1754:.\protocolo.c **** 			size=17;
 9410              		.loc 1 1754 0
 9411 0412 1126     		movs	r6, #17
 9412 0414 00E0     		b	.L687
 9413              	.LVL676:
 9414              	.L713:
1733:.\protocolo.c **** 		if(preset==1){
 9415              		.loc 1 1733 0
 9416 0416 0F26     		movs	r6, #15
 9417              	.LVL677:
 9418              	.L687:
 9419 0418 0446     		mov	r4, r0
 9420              	.LVL678:
1755:.\protocolo.c **** 		}		
1756:.\protocolo.c **** 	}	
1757:.\protocolo.c **** 	Surtidor_PutChar(0x20|dir);	
 9421              		.loc 1 1757 0
 9422 041a 40F02000 		orr	r0, r0, #32
 9423              	.LVL679:
 9424 041e FFF7FEFF 		bl	Surtidor_PutChar
 9425              	.LVL680:
1758:.\protocolo.c ****     CyDelay(50);
 9426              		.loc 1 1758 0
 9427 0422 3220     		movs	r0, #50
 9428 0424 FFF7FEFF 		bl	CyDelay
 9429              	.LVL681:
1759:.\protocolo.c ****     if(Surtidor_GetRxBufferSize()>=1){
 9430              		.loc 1 1759 0
 9431 0428 FFF7FEFF 		bl	Surtidor_GetRxBufferSize
 9432              	.LVL682:
 9433 042c F0B1     		cbz	r0, .L714
1760:.\protocolo.c **** 		if(Surtidor_ReadRxData()==(0xD0|dir)){
 9434              		.loc 1 1760 0
 9435 042e FFF7FEFF 		bl	Surtidor_ReadRxData
 9436              	.LVL683:
 9437 0432 44F0D003 		orr	r3, r4, #208
 9438 0436 9842     		cmp	r0, r3
 9439 0438 1AD1     		bne	.L715
1761:.\protocolo.c ****             Surtidor_ClearRxBuffer();
 9440              		.loc 1 1761 0
 9441 043a FFF7FEFF 		bl	Surtidor_ClearRxBuffer
 9442              	.LVL684:
1762:.\protocolo.c ****             for(i=0;i<=size;i++){
 9443              		.loc 1 1762 0
 9444 043e 0025     		movs	r5, #0
 9445 0440 07E0     		b	.L704
 9446              	.LVL685:
 9447              	.L705:
1763:.\protocolo.c ****                	Surtidor_PutChar(buffer[i]);
 9448              		.loc 1 1763 0 discriminator 3
 9449 0442 06AB     		add	r3, sp, #24
ARM GAS  C:\Users\diego\AppData\Local\Temp\ccNdDNY6.s 			page 206


 9450 0444 2B44     		add	r3, r3, r5
 9451 0446 13F8140C 		ldrb	r0, [r3, #-20]	@ zero_extendqisi2
 9452 044a FFF7FEFF 		bl	Surtidor_PutChar
 9453              	.LVL686:
1762:.\protocolo.c ****             for(i=0;i<=size;i++){
 9454              		.loc 1 1762 0 discriminator 3
 9455 044e 0135     		adds	r5, r5, #1
 9456              	.LVL687:
 9457 0450 EDB2     		uxtb	r5, r5
 9458              	.LVL688:
 9459              	.L704:
1762:.\protocolo.c ****             for(i=0;i<=size;i++){
 9460              		.loc 1 1762 0 is_stmt 0 discriminator 1
 9461 0452 B542     		cmp	r5, r6
 9462 0454 F5D9     		bls	.L705
1764:.\protocolo.c ****             }
1765:.\protocolo.c **** 			CyDelay(50);
 9463              		.loc 1 1765 0 is_stmt 1
 9464 0456 3220     		movs	r0, #50
 9465 0458 FFF7FEFF 		bl	CyDelay
 9466              	.LVL689:
1766:.\protocolo.c **** 			if(get_estado(dir)==0){
 9467              		.loc 1 1766 0
 9468 045c 2046     		mov	r0, r4
 9469 045e FFF7FEFF 		bl	get_estado
 9470              	.LVL690:
 9471 0462 0346     		mov	r3, r0
 9472 0464 30B9     		cbnz	r0, .L716
 9473 0466 06E0     		b	.L665
 9474              	.LVL691:
 9475              	.L711:
1649:.\protocolo.c **** 	}	
 9476              		.loc 1 1649 0
 9477 0468 0023     		movs	r3, #0
 9478              	.LVL692:
 9479 046a 04E0     		b	.L665
 9480              	.LVL693:
 9481              	.L714:
1767:.\protocolo.c **** 				return 0;
1768:.\protocolo.c **** 			}
1769:.\protocolo.c **** 			else{
1770:.\protocolo.c **** 				return 1;
1771:.\protocolo.c **** 			}
1772:.\protocolo.c **** 		}
1773:.\protocolo.c **** 		else{
1774:.\protocolo.c **** 			return 0;
1775:.\protocolo.c **** 		}
1776:.\protocolo.c **** 	}
1777:.\protocolo.c **** 	else{
1778:.\protocolo.c **** 		return 0;	
 9482              		.loc 1 1778 0
 9483 046c 0023     		movs	r3, #0
 9484 046e 02E0     		b	.L665
 9485              	.L715:
1774:.\protocolo.c **** 		}
 9486              		.loc 1 1774 0
 9487 0470 0023     		movs	r3, #0
ARM GAS  C:\Users\diego\AppData\Local\Temp\ccNdDNY6.s 			page 207


 9488 0472 00E0     		b	.L665
 9489              	.LVL694:
 9490              	.L716:
1770:.\protocolo.c **** 			}
 9491              		.loc 1 1770 0
 9492 0474 0123     		movs	r3, #1
 9493              	.LVL695:
 9494              	.L665:
1779:.\protocolo.c **** 	}
1780:.\protocolo.c **** }
 9495              		.loc 1 1780 0
 9496 0476 1846     		mov	r0, r3
 9497 0478 06B0     		add	sp, sp, #24
 9498              		.cfi_def_cfa_offset 24
 9499              		@ sp needed
 9500 047a BDE8F081 		pop	{r4, r5, r6, r7, r8, pc}
 9501              	.L721:
 9502 047e 00BF     		.align	2
 9503              	.L720:
 9504 0480 00000000 		.word	decimalV
 9505              		.cfi_endproc
 9506              	.LFE68:
 9507              		.size	programar, .-programar
 9508              		.section	.text.cambiar_precio,"ax",%progbits
 9509              		.align	2
 9510              		.global	cambiar_precio
 9511              		.thumb
 9512              		.thumb_func
 9513              		.type	cambiar_precio, %function
 9514              	cambiar_precio:
 9515              	.LFB69:
1781:.\protocolo.c **** /*
1782:.\protocolo.c **** ***************************************************************************************************
1783:.\protocolo.c **** *                                         uint8 cambiar precio(uint8 dir)
1784:.\protocolo.c **** *
1785:.\protocolo.c **** * Description : 
1786:.\protocolo.c **** *               
1787:.\protocolo.c **** *
1788:.\protocolo.c **** * Argument(s) : none
1789:.\protocolo.c **** *
1790:.\protocolo.c **** * Return(s)   : none
1791:.\protocolo.c **** *
1792:.\protocolo.c **** * Caller(s)   : 
1793:.\protocolo.c **** *
1794:.\protocolo.c **** * Note(s)     : none.
1795:.\protocolo.c **** ***************************************************************************************************
1796:.\protocolo.c **** */
1797:.\protocolo.c **** uint8 cambiar_precio(uint8 dir){
 9516              		.loc 1 1797 0
 9517              		.cfi_startproc
 9518              		@ args = 0, pretend = 0, frame = 16
 9519              		@ frame_needed = 0, uses_anonymous_args = 0
 9520              	.LVL696:
 9521 0000 30B5     		push	{r4, r5, lr}
 9522              		.cfi_def_cfa_offset 12
 9523              		.cfi_offset 4, -12
 9524              		.cfi_offset 5, -8
ARM GAS  C:\Users\diego\AppData\Local\Temp\ccNdDNY6.s 			page 208


 9525              		.cfi_offset 14, -4
 9526 0002 85B0     		sub	sp, sp, #20
 9527              		.cfi_def_cfa_offset 32
 9528 0004 0446     		mov	r4, r0
1798:.\protocolo.c **** 	uint8 buffer[15]={0,0,0,0,0,0,0,0,0,0,0,0,0,0,0},size;
 9529              		.loc 1 1798 0
 9530 0006 0023     		movs	r3, #0
 9531 0008 8DF80030 		strb	r3, [sp]
 9532 000c 8DF80130 		strb	r3, [sp, #1]
 9533 0010 8DF80230 		strb	r3, [sp, #2]
 9534 0014 8DF80330 		strb	r3, [sp, #3]
 9535 0018 8DF80430 		strb	r3, [sp, #4]
 9536 001c 8DF80530 		strb	r3, [sp, #5]
 9537 0020 8DF80630 		strb	r3, [sp, #6]
 9538 0024 8DF80730 		strb	r3, [sp, #7]
 9539 0028 8DF80830 		strb	r3, [sp, #8]
 9540 002c 8DF80930 		strb	r3, [sp, #9]
 9541 0030 8DF80A30 		strb	r3, [sp, #10]
 9542 0034 8DF80B30 		strb	r3, [sp, #11]
 9543 0038 8DF80C30 		strb	r3, [sp, #12]
 9544 003c 8DF80D30 		strb	r3, [sp, #13]
 9545 0040 8DF80E30 		strb	r3, [sp, #14]
1799:.\protocolo.c **** 	if(versurt!=7){
 9546              		.loc 1 1799 0
 9547 0044 984B     		ldr	r3, .L749
 9548 0046 1B78     		ldrb	r3, [r3]	@ zero_extendqisi2
 9549 0048 072B     		cmp	r3, #7
 9550 004a 00F08A80 		beq	.L723
1800:.\protocolo.c **** 		buffer[0]=0xFF;
 9551              		.loc 1 1800 0
 9552 004e FF23     		movs	r3, #255
 9553 0050 8DF80030 		strb	r3, [sp]
1801:.\protocolo.c **** 		buffer[1]=0xE5;
 9554              		.loc 1 1801 0
 9555 0054 E523     		movs	r3, #229
 9556 0056 8DF80130 		strb	r3, [sp, #1]
1802:.\protocolo.c **** 		buffer[2]=0xF4;
 9557              		.loc 1 1802 0
 9558 005a F423     		movs	r3, #244
 9559 005c 8DF80230 		strb	r3, [sp, #2]
1803:.\protocolo.c **** 		buffer[3]=0xF6;
 9560              		.loc 1 1803 0
 9561 0060 F623     		movs	r3, #246
 9562 0062 8DF80330 		strb	r3, [sp, #3]
1804:.\protocolo.c **** 		buffer[4]=(0xE0|((rventa.producto&0x0f)-1));
 9563              		.loc 1 1804 0
 9564 0066 914B     		ldr	r3, .L749+4
 9565 0068 93F8A330 		ldrb	r3, [r3, #163]	@ zero_extendqisi2
 9566 006c 03F00F03 		and	r3, r3, #15
 9567 0070 013B     		subs	r3, r3, #1
 9568 0072 63F01F03 		orn	r3, r3, #31
 9569 0076 8DF80430 		strb	r3, [sp, #4]
1805:.\protocolo.c **** 		buffer[5]=0xF7;	
 9570              		.loc 1 1805 0
 9571 007a F723     		movs	r3, #247
 9572 007c 8DF80530 		strb	r3, [sp, #5]
1806:.\protocolo.c **** 		if(ppux10==0){
ARM GAS  C:\Users\diego\AppData\Local\Temp\ccNdDNY6.s 			page 209


 9573              		.loc 1 1806 0
 9574 0080 8B4B     		ldr	r3, .L749+8
 9575 0082 1B78     		ldrb	r3, [r3]	@ zero_extendqisi2
 9576 0084 D3B9     		cbnz	r3, .L724
1807:.\protocolo.c **** 			for(x=6;x<(6+teclas1);x++){
 9577              		.loc 1 1807 0
 9578 0086 0622     		movs	r2, #6
 9579 0088 8A4B     		ldr	r3, .L749+12
 9580 008a 1A60     		str	r2, [r3]
 9581 008c 0EE0     		b	.L725
 9582              	.L726:
1808:.\protocolo.c **** 				buffer[x]=(0xE0|(Buffer_LCD1.valor[teclas1-(x-6)]&0x0F));
 9583              		.loc 1 1808 0 discriminator 3
 9584 008e D21A     		subs	r2, r2, r3
 9585 0090 8949     		ldr	r1, .L749+16
 9586 0092 0A44     		add	r2, r2, r1
 9587 0094 D27A     		ldrb	r2, [r2, #11]	@ zero_extendqisi2
 9588 0096 04A9     		add	r1, sp, #16
 9589 0098 1944     		add	r1, r1, r3
 9590 009a 02F00F02 		and	r2, r2, #15
 9591 009e 62F01F02 		orn	r2, r2, #31
 9592 00a2 01F8102C 		strb	r2, [r1, #-16]
1807:.\protocolo.c **** 			for(x=6;x<(6+teclas1);x++){
 9593              		.loc 1 1807 0 discriminator 3
 9594 00a6 0133     		adds	r3, r3, #1
 9595 00a8 824A     		ldr	r2, .L749+12
 9596 00aa 1360     		str	r3, [r2]
 9597              	.L725:
1807:.\protocolo.c **** 			for(x=6;x<(6+teclas1);x++){
 9598              		.loc 1 1807 0 is_stmt 0 discriminator 1
 9599 00ac 834B     		ldr	r3, .L749+20
 9600 00ae 1A78     		ldrb	r2, [r3]	@ zero_extendqisi2
 9601 00b0 911D     		adds	r1, r2, #6
 9602 00b2 804B     		ldr	r3, .L749+12
 9603 00b4 1B68     		ldr	r3, [r3]
 9604 00b6 9942     		cmp	r1, r3
 9605 00b8 E9D8     		bhi	.L726
 9606 00ba 1CE0     		b	.L727
 9607              	.L724:
1809:.\protocolo.c **** 			}
1810:.\protocolo.c **** 		}
1811:.\protocolo.c **** 		else{
1812:.\protocolo.c **** 			teclas1=teclas1-1;
 9608              		.loc 1 1812 0 is_stmt 1
 9609 00bc 7F4B     		ldr	r3, .L749+20
 9610 00be 1978     		ldrb	r1, [r3]	@ zero_extendqisi2
 9611 00c0 0139     		subs	r1, r1, #1
 9612 00c2 C9B2     		uxtb	r1, r1
 9613 00c4 1970     		strb	r1, [r3]
1813:.\protocolo.c **** 			for(x=6;x<(6+teclas1);x++){
 9614              		.loc 1 1813 0
 9615 00c6 0622     		movs	r2, #6
 9616 00c8 7A4B     		ldr	r3, .L749+12
 9617 00ca 1A60     		str	r2, [r3]
 9618 00cc 0EE0     		b	.L728
 9619              	.LVL697:
 9620              	.L729:
ARM GAS  C:\Users\diego\AppData\Local\Temp\ccNdDNY6.s 			page 210


1814:.\protocolo.c **** 				buffer[x]=(0xE0|(Buffer_LCD1.valor[teclas1-(x-6)]&0x0F));
 9621              		.loc 1 1814 0 discriminator 3
 9622 00ce C81A     		subs	r0, r1, r3
 9623 00d0 794A     		ldr	r2, .L749+16
 9624 00d2 0244     		add	r2, r2, r0
 9625 00d4 D27A     		ldrb	r2, [r2, #11]	@ zero_extendqisi2
 9626 00d6 04A8     		add	r0, sp, #16
 9627 00d8 1844     		add	r0, r0, r3
 9628 00da 02F00F02 		and	r2, r2, #15
 9629 00de 62F01F02 		orn	r2, r2, #31
 9630 00e2 00F8102C 		strb	r2, [r0, #-16]
1813:.\protocolo.c **** 			for(x=6;x<(6+teclas1);x++){
 9631              		.loc 1 1813 0 discriminator 3
 9632 00e6 0133     		adds	r3, r3, #1
 9633 00e8 724A     		ldr	r2, .L749+12
 9634 00ea 1360     		str	r3, [r2]
 9635              	.L728:
1813:.\protocolo.c **** 			for(x=6;x<(6+teclas1);x++){
 9636              		.loc 1 1813 0 is_stmt 0 discriminator 1
 9637 00ec 8A1D     		adds	r2, r1, #6
 9638 00ee 714B     		ldr	r3, .L749+12
 9639 00f0 1B68     		ldr	r3, [r3]
 9640 00f2 9A42     		cmp	r2, r3
 9641 00f4 EBD8     		bhi	.L729
 9642              	.L727:
1815:.\protocolo.c **** 			}	
1816:.\protocolo.c **** 		}
1817:.\protocolo.c **** 		for(y=x;y<=9;y++){
 9643              		.loc 1 1817 0 is_stmt 1
 9644 00f6 6F4B     		ldr	r3, .L749+12
 9645 00f8 1A68     		ldr	r2, [r3]
 9646 00fa 714B     		ldr	r3, .L749+24
 9647 00fc 1A60     		str	r2, [r3]
 9648 00fe 07E0     		b	.L730
 9649              	.L731:
1818:.\protocolo.c **** 			buffer[y]=0xE0;	
 9650              		.loc 1 1818 0 discriminator 3
 9651 0100 04AA     		add	r2, sp, #16
 9652 0102 1A44     		add	r2, r2, r3
 9653 0104 E021     		movs	r1, #224
 9654 0106 02F8101C 		strb	r1, [r2, #-16]
1817:.\protocolo.c **** 			buffer[y]=0xE0;	
 9655              		.loc 1 1817 0 discriminator 3
 9656 010a 0133     		adds	r3, r3, #1
 9657 010c 6C4A     		ldr	r2, .L749+24
 9658 010e 1360     		str	r3, [r2]
 9659              	.L730:
1817:.\protocolo.c **** 			buffer[y]=0xE0;	
 9660              		.loc 1 1817 0 is_stmt 0 discriminator 1
 9661 0110 6B4B     		ldr	r3, .L749+24
 9662 0112 1B68     		ldr	r3, [r3]
 9663 0114 092B     		cmp	r3, #9
 9664 0116 F3D9     		bls	.L731
1819:.\protocolo.c **** 		}
1820:.\protocolo.c **** 		buffer[10]=0xFB;
 9665              		.loc 1 1820 0 is_stmt 1
 9666 0118 FB23     		movs	r3, #251
ARM GAS  C:\Users\diego\AppData\Local\Temp\ccNdDNY6.s 			page 211


 9667 011a 8DF80A30 		strb	r3, [sp, #10]
1821:.\protocolo.c **** 		for(x=0;x<=10;x++){
 9668              		.loc 1 1821 0
 9669 011e 0022     		movs	r2, #0
 9670 0120 644B     		ldr	r3, .L749+12
 9671 0122 1A60     		str	r2, [r3]
 9672 0124 0DE0     		b	.L732
 9673              	.L733:
1822:.\protocolo.c **** 			buffer[11]+=(buffer[x]&0x0F);	
 9674              		.loc 1 1822 0 discriminator 3
 9675 0126 04AA     		add	r2, sp, #16
 9676 0128 1A44     		add	r2, r2, r3
 9677 012a 12F8102C 		ldrb	r2, [r2, #-16]	@ zero_extendqisi2
 9678 012e 02F00F02 		and	r2, r2, #15
 9679 0132 9DF80B10 		ldrb	r1, [sp, #11]	@ zero_extendqisi2
 9680 0136 0A44     		add	r2, r2, r1
 9681 0138 8DF80B20 		strb	r2, [sp, #11]
1821:.\protocolo.c **** 		for(x=0;x<=10;x++){
 9682              		.loc 1 1821 0 discriminator 3
 9683 013c 0133     		adds	r3, r3, #1
 9684 013e 5D4A     		ldr	r2, .L749+12
 9685 0140 1360     		str	r3, [r2]
 9686              	.L732:
1821:.\protocolo.c **** 		for(x=0;x<=10;x++){
 9687              		.loc 1 1821 0 is_stmt 0 discriminator 1
 9688 0142 5C4B     		ldr	r3, .L749+12
 9689 0144 1B68     		ldr	r3, [r3]
 9690 0146 0A2B     		cmp	r3, #10
 9691 0148 EDD9     		bls	.L733
1823:.\protocolo.c **** 		}
1824:.\protocolo.c **** 		buffer[11]=(((~buffer[11])+1)&0x0F)|0xE0;
 9692              		.loc 1 1824 0 is_stmt 1
 9693 014a 9DF80B30 		ldrb	r3, [sp, #11]	@ zero_extendqisi2
 9694 014e 5B42     		negs	r3, r3
 9695 0150 03F00F03 		and	r3, r3, #15
 9696 0154 63F01F03 		orn	r3, r3, #31
 9697 0158 8DF80B30 		strb	r3, [sp, #11]
1825:.\protocolo.c **** 		buffer[12]=0xF0;
 9698              		.loc 1 1825 0
 9699 015c F023     		movs	r3, #240
 9700 015e 8DF80C30 		strb	r3, [sp, #12]
 9701              	.LVL698:
 9702              	.L723:
1826:.\protocolo.c **** 		size=12;
1827:.\protocolo.c **** 	}
1828:.\protocolo.c **** 	if(versurt==7){
 9703              		.loc 1 1828 0
 9704 0162 514B     		ldr	r3, .L749
 9705 0164 1B78     		ldrb	r3, [r3]	@ zero_extendqisi2
 9706 0166 072B     		cmp	r3, #7
 9707 0168 68D1     		bne	.L744
1829:.\protocolo.c **** 		buffer[0]=0xFF;
 9708              		.loc 1 1829 0
 9709 016a FF23     		movs	r3, #255
 9710 016c 8DF80030 		strb	r3, [sp]
1830:.\protocolo.c **** 		buffer[1]=0xE3;
 9711              		.loc 1 1830 0
ARM GAS  C:\Users\diego\AppData\Local\Temp\ccNdDNY6.s 			page 212


 9712 0170 E323     		movs	r3, #227
 9713 0172 8DF80130 		strb	r3, [sp, #1]
1831:.\protocolo.c **** 		buffer[2]=0xF4;
 9714              		.loc 1 1831 0
 9715 0176 F423     		movs	r3, #244
 9716 0178 8DF80230 		strb	r3, [sp, #2]
1832:.\protocolo.c **** 		buffer[3]=0xF6;
 9717              		.loc 1 1832 0
 9718 017c F623     		movs	r3, #246
 9719 017e 8DF80330 		strb	r3, [sp, #3]
1833:.\protocolo.c **** 		buffer[4]=(0xE0|((rventa.producto&0x0f)-1));
 9720              		.loc 1 1833 0
 9721 0182 4A4B     		ldr	r3, .L749+4
 9722 0184 93F8A330 		ldrb	r3, [r3, #163]	@ zero_extendqisi2
 9723 0188 03F00F03 		and	r3, r3, #15
 9724 018c 013B     		subs	r3, r3, #1
 9725 018e 63F01F03 		orn	r3, r3, #31
 9726 0192 8DF80430 		strb	r3, [sp, #4]
1834:.\protocolo.c **** 		buffer[5]=0xF7;		
 9727              		.loc 1 1834 0
 9728 0196 F723     		movs	r3, #247
 9729 0198 8DF80530 		strb	r3, [sp, #5]
1835:.\protocolo.c **** 		for(x=6;x<(6+teclas1);x++){
 9730              		.loc 1 1835 0
 9731 019c 0622     		movs	r2, #6
 9732 019e 454B     		ldr	r3, .L749+12
 9733 01a0 1A60     		str	r2, [r3]
 9734 01a2 0EE0     		b	.L735
 9735              	.L736:
1836:.\protocolo.c **** 			buffer[x]=(0xE0|(Buffer_LCD1.valor[teclas1-(x-6)]&0x0F));
 9736              		.loc 1 1836 0 discriminator 3
 9737 01a4 D21A     		subs	r2, r2, r3
 9738 01a6 4449     		ldr	r1, .L749+16
 9739 01a8 0A44     		add	r2, r2, r1
 9740 01aa D27A     		ldrb	r2, [r2, #11]	@ zero_extendqisi2
 9741 01ac 04A9     		add	r1, sp, #16
 9742 01ae 1944     		add	r1, r1, r3
 9743 01b0 02F00F02 		and	r2, r2, #15
 9744 01b4 62F01F02 		orn	r2, r2, #31
 9745 01b8 01F8102C 		strb	r2, [r1, #-16]
1835:.\protocolo.c **** 		for(x=6;x<(6+teclas1);x++){
 9746              		.loc 1 1835 0 discriminator 3
 9747 01bc 0133     		adds	r3, r3, #1
 9748 01be 3D4A     		ldr	r2, .L749+12
 9749 01c0 1360     		str	r3, [r2]
 9750              	.L735:
1835:.\protocolo.c **** 		for(x=6;x<(6+teclas1);x++){
 9751              		.loc 1 1835 0 is_stmt 0 discriminator 1
 9752 01c2 3E4B     		ldr	r3, .L749+20
 9753 01c4 1A78     		ldrb	r2, [r3]	@ zero_extendqisi2
 9754 01c6 911D     		adds	r1, r2, #6
 9755 01c8 3A4B     		ldr	r3, .L749+12
 9756 01ca 1B68     		ldr	r3, [r3]
 9757 01cc 9942     		cmp	r1, r3
 9758 01ce E9D8     		bhi	.L736
1837:.\protocolo.c **** 		}	
1838:.\protocolo.c **** 		for(y=x;y<=11;y++){
ARM GAS  C:\Users\diego\AppData\Local\Temp\ccNdDNY6.s 			page 213


 9759              		.loc 1 1838 0 is_stmt 1
 9760 01d0 3B4A     		ldr	r2, .L749+24
 9761 01d2 1360     		str	r3, [r2]
 9762 01d4 07E0     		b	.L737
 9763              	.L738:
1839:.\protocolo.c **** 			buffer[y]=0xE0;	
 9764              		.loc 1 1839 0 discriminator 3
 9765 01d6 04AA     		add	r2, sp, #16
 9766 01d8 1A44     		add	r2, r2, r3
 9767 01da E021     		movs	r1, #224
 9768 01dc 02F8101C 		strb	r1, [r2, #-16]
1838:.\protocolo.c **** 			buffer[y]=0xE0;	
 9769              		.loc 1 1838 0 discriminator 3
 9770 01e0 0133     		adds	r3, r3, #1
 9771 01e2 374A     		ldr	r2, .L749+24
 9772 01e4 1360     		str	r3, [r2]
 9773              	.L737:
1838:.\protocolo.c **** 			buffer[y]=0xE0;	
 9774              		.loc 1 1838 0 is_stmt 0 discriminator 1
 9775 01e6 364B     		ldr	r3, .L749+24
 9776 01e8 1B68     		ldr	r3, [r3]
 9777 01ea 0B2B     		cmp	r3, #11
 9778 01ec F3D9     		bls	.L738
1840:.\protocolo.c **** 		}		
1841:.\protocolo.c **** 		buffer[12]=0xFB;
 9779              		.loc 1 1841 0 is_stmt 1
 9780 01ee FB23     		movs	r3, #251
 9781 01f0 8DF80C30 		strb	r3, [sp, #12]
1842:.\protocolo.c **** 		for(x=0;x<=12;x++){
 9782              		.loc 1 1842 0
 9783 01f4 0022     		movs	r2, #0
 9784 01f6 2F4B     		ldr	r3, .L749+12
 9785 01f8 1A60     		str	r2, [r3]
 9786 01fa 0DE0     		b	.L739
 9787              	.L740:
1843:.\protocolo.c **** 			buffer[13]+=(buffer[x]&0x0F);	
 9788              		.loc 1 1843 0 discriminator 3
 9789 01fc 04AA     		add	r2, sp, #16
 9790 01fe 1A44     		add	r2, r2, r3
 9791 0200 12F8102C 		ldrb	r2, [r2, #-16]	@ zero_extendqisi2
 9792 0204 02F00F02 		and	r2, r2, #15
 9793 0208 9DF80D10 		ldrb	r1, [sp, #13]	@ zero_extendqisi2
 9794 020c 0A44     		add	r2, r2, r1
 9795 020e 8DF80D20 		strb	r2, [sp, #13]
1842:.\protocolo.c **** 		for(x=0;x<=12;x++){
 9796              		.loc 1 1842 0 discriminator 3
 9797 0212 0133     		adds	r3, r3, #1
 9798 0214 274A     		ldr	r2, .L749+12
 9799 0216 1360     		str	r3, [r2]
 9800              	.L739:
1842:.\protocolo.c **** 		for(x=0;x<=12;x++){
 9801              		.loc 1 1842 0 is_stmt 0 discriminator 1
 9802 0218 264B     		ldr	r3, .L749+12
 9803 021a 1B68     		ldr	r3, [r3]
 9804 021c 0C2B     		cmp	r3, #12
 9805 021e EDD9     		bls	.L740
1844:.\protocolo.c **** 		}
ARM GAS  C:\Users\diego\AppData\Local\Temp\ccNdDNY6.s 			page 214


1845:.\protocolo.c **** 		buffer[13]=(((~buffer[13])+1)&0x0F)|0xE0;
 9806              		.loc 1 1845 0 is_stmt 1
 9807 0220 9DF80D30 		ldrb	r3, [sp, #13]	@ zero_extendqisi2
 9808 0224 5B42     		negs	r3, r3
 9809 0226 03F00F03 		and	r3, r3, #15
 9810 022a 63F01F03 		orn	r3, r3, #31
 9811 022e 8DF80D30 		strb	r3, [sp, #13]
1846:.\protocolo.c **** 		buffer[14]=0xF0;
 9812              		.loc 1 1846 0
 9813 0232 F023     		movs	r3, #240
 9814 0234 8DF80E30 		strb	r3, [sp, #14]
 9815              	.LVL699:
1847:.\protocolo.c **** 		size=14;
 9816              		.loc 1 1847 0
 9817 0238 0E25     		movs	r5, #14
 9818 023a 00E0     		b	.L734
 9819              	.LVL700:
 9820              	.L744:
 9821 023c 0C25     		movs	r5, #12
 9822              	.LVL701:
 9823              	.L734:
1848:.\protocolo.c **** 	}	
1849:.\protocolo.c **** 	Surtidor_PutChar(0x20|dir);	
 9824              		.loc 1 1849 0
 9825 023e 44F02000 		orr	r0, r4, #32
 9826 0242 FFF7FEFF 		bl	Surtidor_PutChar
 9827              	.LVL702:
1850:.\protocolo.c ****     CyDelay(100);
 9828              		.loc 1 1850 0
 9829 0246 6420     		movs	r0, #100
 9830 0248 FFF7FEFF 		bl	CyDelay
 9831              	.LVL703:
1851:.\protocolo.c ****     if(Surtidor_GetRxBufferSize()>=1){
 9832              		.loc 1 1851 0
 9833 024c FFF7FEFF 		bl	Surtidor_GetRxBufferSize
 9834              	.LVL704:
 9835 0250 10B3     		cbz	r0, .L745
1852:.\protocolo.c **** 		if(Surtidor_ReadRxData()==(0xD0|dir)){
 9836              		.loc 1 1852 0
 9837 0252 FFF7FEFF 		bl	Surtidor_ReadRxData
 9838              	.LVL705:
 9839 0256 44F0D003 		orr	r3, r4, #208
 9840 025a 9842     		cmp	r0, r3
 9841 025c 1ED1     		bne	.L746
1853:.\protocolo.c ****             Surtidor_ClearRxBuffer();
 9842              		.loc 1 1853 0
 9843 025e FFF7FEFF 		bl	Surtidor_ClearRxBuffer
 9844              	.LVL706:
1854:.\protocolo.c ****             for(x=0;x<=size;x++){
 9845              		.loc 1 1854 0
 9846 0262 0022     		movs	r2, #0
 9847 0264 134B     		ldr	r3, .L749+12
 9848 0266 1A60     		str	r2, [r3]
 9849 0268 09E0     		b	.L742
 9850              	.L743:
1855:.\protocolo.c ****                	Surtidor_PutChar(buffer[x]); 	
 9851              		.loc 1 1855 0 discriminator 3
ARM GAS  C:\Users\diego\AppData\Local\Temp\ccNdDNY6.s 			page 215


 9852 026a 04AA     		add	r2, sp, #16
 9853 026c 1344     		add	r3, r3, r2
 9854 026e 13F8100C 		ldrb	r0, [r3, #-16]	@ zero_extendqisi2
 9855 0272 FFF7FEFF 		bl	Surtidor_PutChar
 9856              	.LVL707:
1854:.\protocolo.c ****             for(x=0;x<=size;x++){
 9857              		.loc 1 1854 0 discriminator 3
 9858 0276 0F4A     		ldr	r2, .L749+12
 9859 0278 1368     		ldr	r3, [r2]
 9860 027a 0133     		adds	r3, r3, #1
 9861 027c 1360     		str	r3, [r2]
 9862              	.L742:
1854:.\protocolo.c ****             for(x=0;x<=size;x++){
 9863              		.loc 1 1854 0 is_stmt 0 discriminator 1
 9864 027e 0D4B     		ldr	r3, .L749+12
 9865 0280 1B68     		ldr	r3, [r3]
 9866 0282 9D42     		cmp	r5, r3
 9867 0284 F1D2     		bcs	.L743
1856:.\protocolo.c ****             }
1857:.\protocolo.c **** 			CyDelay(50);
 9868              		.loc 1 1857 0 is_stmt 1
 9869 0286 3220     		movs	r0, #50
 9870 0288 FFF7FEFF 		bl	CyDelay
 9871              	.LVL708:
1858:.\protocolo.c **** 			if(get_estado(dir)==0){
 9872              		.loc 1 1858 0
 9873 028c 2046     		mov	r0, r4
 9874 028e FFF7FEFF 		bl	get_estado
 9875              	.LVL709:
 9876 0292 0346     		mov	r3, r0
 9877 0294 20B9     		cbnz	r0, .L747
 9878 0296 04E0     		b	.L741
 9879              	.L745:
1859:.\protocolo.c **** 				return 0;
1860:.\protocolo.c **** 			}
1861:.\protocolo.c **** 			else{
1862:.\protocolo.c **** 				return 1;
1863:.\protocolo.c **** 			}
1864:.\protocolo.c **** 		}
1865:.\protocolo.c **** 		else{
1866:.\protocolo.c **** 			return 0;
1867:.\protocolo.c **** 		}
1868:.\protocolo.c **** 	}
1869:.\protocolo.c **** 	else{
1870:.\protocolo.c **** 		return 0;	
 9880              		.loc 1 1870 0
 9881 0298 0023     		movs	r3, #0
 9882 029a 02E0     		b	.L741
 9883              	.L746:
1866:.\protocolo.c **** 		}
 9884              		.loc 1 1866 0
 9885 029c 0023     		movs	r3, #0
 9886 029e 00E0     		b	.L741
 9887              	.L747:
1862:.\protocolo.c **** 			}
 9888              		.loc 1 1862 0
 9889 02a0 0123     		movs	r3, #1
ARM GAS  C:\Users\diego\AppData\Local\Temp\ccNdDNY6.s 			page 216


 9890              	.L741:
1871:.\protocolo.c **** 	}
1872:.\protocolo.c **** }
 9891              		.loc 1 1872 0
 9892 02a2 1846     		mov	r0, r3
 9893 02a4 05B0     		add	sp, sp, #20
 9894              		.cfi_def_cfa_offset 12
 9895              		@ sp needed
 9896 02a6 30BD     		pop	{r4, r5, pc}
 9897              	.LVL710:
 9898              	.L750:
 9899              		.align	2
 9900              	.L749:
 9901 02a8 00000000 		.word	versurt
 9902 02ac 00000000 		.word	rventa
 9903 02b0 00000000 		.word	ppux10
 9904 02b4 00000000 		.word	x
 9905 02b8 06000000 		.word	Buffer_LCD1+6
 9906 02bc 00000000 		.word	teclas1
 9907 02c0 00000000 		.word	y
 9908              		.cfi_endproc
 9909              	.LFE69:
 9910              		.size	cambiar_precio, .-cambiar_precio
 9911              		.section	.text.totales,"ax",%progbits
 9912              		.align	2
 9913              		.global	totales
 9914              		.thumb
 9915              		.thumb_func
 9916              		.type	totales, %function
 9917              	totales:
 9918              	.LFB70:
1873:.\protocolo.c **** 
1874:.\protocolo.c **** /*
1875:.\protocolo.c **** ***************************************************************************************************
1876:.\protocolo.c **** *                                         uint8 totales(uint8 dir)
1877:.\protocolo.c **** *
1878:.\protocolo.c **** * Description : 
1879:.\protocolo.c **** *               
1880:.\protocolo.c **** *
1881:.\protocolo.c **** * Argument(s) : none
1882:.\protocolo.c **** *
1883:.\protocolo.c **** * Return(s)   : none
1884:.\protocolo.c **** *
1885:.\protocolo.c **** * Caller(s)   : 
1886:.\protocolo.c **** *
1887:.\protocolo.c **** * Note(s)     : none.
1888:.\protocolo.c **** ***************************************************************************************************
1889:.\protocolo.c **** */
1890:.\protocolo.c **** uint8 totales (uint8 addr){
 9919              		.loc 1 1890 0
 9920              		.cfi_startproc
 9921              		@ args = 0, pretend = 0, frame = 0
 9922              		@ frame_needed = 0, uses_anonymous_args = 0
 9923              	.LVL711:
 9924 0000 10B5     		push	{r4, lr}
 9925              		.cfi_def_cfa_offset 8
 9926              		.cfi_offset 4, -8
ARM GAS  C:\Users\diego\AppData\Local\Temp\ccNdDNY6.s 			page 217


 9927              		.cfi_offset 14, -4
 9928 0002 0446     		mov	r4, r0
1891:.\protocolo.c ****     uint8 x;
1892:.\protocolo.c ****     Surtidor_ClearRxBuffer();
 9929              		.loc 1 1892 0
 9930 0004 FFF7FEFF 		bl	Surtidor_ClearRxBuffer
 9931              	.LVL712:
1893:.\protocolo.c ****     Surtidor_PutChar(0x50|addr);
 9932              		.loc 1 1893 0
 9933 0008 44F05000 		orr	r0, r4, #80
 9934 000c FFF7FEFF 		bl	Surtidor_PutChar
 9935              	.LVL713:
1894:.\protocolo.c ****     CyDelay(100);
 9936              		.loc 1 1894 0
 9937 0010 6420     		movs	r0, #100
 9938 0012 FFF7FEFF 		bl	CyDelay
 9939              	.LVL714:
1895:.\protocolo.c **** 	if(Surtidor_GetRxBufferSize()>=1){
 9940              		.loc 1 1895 0
 9941 0016 FFF7FEFF 		bl	Surtidor_GetRxBufferSize
 9942              	.LVL715:
 9943 001a C0B1     		cbz	r0, .L752
1896:.\protocolo.c ****         if(addr==(a.dir)){
 9944              		.loc 1 1896 0
 9945 001c 0D4B     		ldr	r3, .L755
 9946 001e 1B78     		ldrb	r3, [r3]	@ zero_extendqisi2
 9947 0020 A342     		cmp	r3, r4
 9948 0022 14D1     		bne	.L752
1897:.\protocolo.c ****             x=Surtidor_GetRxBufferSize();
 9949              		.loc 1 1897 0
 9950 0024 FFF7FEFF 		bl	Surtidor_GetRxBufferSize
 9951              	.LVL716:
 9952 0028 C0B2     		uxtb	r0, r0
 9953              	.LVL717:
1898:.\protocolo.c ****             if((x==46)||(x==88)||(x==130)){				
 9954              		.loc 1 1898 0
 9955 002a 2E28     		cmp	r0, #46
 9956 002c 03D0     		beq	.L753
 9957              		.loc 1 1898 0 is_stmt 0 discriminator 1
 9958 002e 5828     		cmp	r0, #88
 9959 0030 01D0     		beq	.L753
 9960              		.loc 1 1898 0 discriminator 2
 9961 0032 8228     		cmp	r0, #130
 9962 0034 0BD1     		bne	.L752
 9963              	.L753:
1899:.\protocolo.c **** 					if((Surtidor_rxBuffer[0]==0xFF)&&(Surtidor_rxBuffer[1]==0xF6)&&(Surtidor_rxBuffer[3]==0xF9)){
 9964              		.loc 1 1899 0 is_stmt 1
 9965 0036 084B     		ldr	r3, .L755+4
 9966 0038 1B78     		ldrb	r3, [r3]	@ zero_extendqisi2
 9967 003a DBB2     		uxtb	r3, r3
 9968 003c FF2B     		cmp	r3, #255
 9969 003e 06D1     		bne	.L752
 9970              		.loc 1 1899 0 is_stmt 0 discriminator 1
 9971 0040 054B     		ldr	r3, .L755+4
 9972 0042 5B78     		ldrb	r3, [r3, #1]	@ zero_extendqisi2
 9973 0044 DBB2     		uxtb	r3, r3
 9974 0046 F62B     		cmp	r3, #246
ARM GAS  C:\Users\diego\AppData\Local\Temp\ccNdDNY6.s 			page 218


 9975 0048 01D1     		bne	.L752
 9976              		.loc 1 1899 0 discriminator 2
 9977 004a 034B     		ldr	r3, .L755+4
 9978 004c DB78     		ldrb	r3, [r3, #3]	@ zero_extendqisi2
 9979              	.LVL718:
 9980              	.L752:
1900:.\protocolo.c ****                     
1901:.\protocolo.c ****                     }
1902:.\protocolo.c ****             }
1903:.\protocolo.c ****         }
1904:.\protocolo.c ****     }
1905:.\protocolo.c ****     
1906:.\protocolo.c ****     return 0;
1907:.\protocolo.c **** }
 9981              		.loc 1 1907 0 is_stmt 1
 9982 004e 0020     		movs	r0, #0
 9983 0050 10BD     		pop	{r4, pc}
 9984              	.L756:
 9985 0052 00BF     		.align	2
 9986              	.L755:
 9987 0054 00000000 		.word	a
 9988 0058 00000000 		.word	Surtidor_rxBuffer
 9989              		.cfi_endproc
 9990              	.LFE70:
 9991              		.size	totales, .-totales
 9992              		.global	msn_totalcero
 9993              		.global	msn_tventas
 9994              		.global	msn_lecaan
 9995              		.global	msn_lecact
 9996              		.global	msn_tc
 9997              		.comm	rventa2,225,4
 9998              		.comm	rventa,225,4
 9999              		.comm	producto,1,1
 10000              		.comm	grado4,1,1
 10001              		.comm	grado3,1,1
 10002              		.comm	grado2,1,1
 10003              		.comm	grado1,1,1
 10004              		.comm	modulo,400,4
 10005              		.comm	w,4,4
 10006              		.comm	z,4,4
 10007              		.comm	y,4,4
 10008              		.comm	x,4,4
 10009              		.comm	d,76,4
 10010              		.comm	c,76,4
 10011              		.comm	b,76,4
 10012              		.comm	a,76,4
 10013              		.comm	estado_0,1,1
 10014              		.comm	Buffer_LCD4,152,4
 10015              		.comm	Buffer_LCD3,152,4
 10016              		.comm	Buffer_LCD2,152,4
 10017              		.comm	Buffer_LCD1,152,4
 10018              		.comm	no_venta,4,4
 10019              		.comm	id_corte,2,2
 10020              		.comm	venta_activa4,1,1
 10021              		.comm	venta_activa2,1,1
 10022              		.comm	venta_activa3,1,1
 10023              		.comm	venta_activa,1,1
ARM GAS  C:\Users\diego\AppData\Local\Temp\ccNdDNY6.s 			page 219


 10024              		.comm	seleccion_pos2,1,1
 10025              		.comm	seleccion_pos,1,1
 10026              		.comm	estado_lcd2,1,1
 10027              		.comm	estado_lcd1,1,1
 10028              		.comm	flujo_pos4,1,1
 10029              		.comm	flujo_pos3,1,1
 10030              		.comm	flujo_pos2,1,1
 10031              		.comm	flujo_pos,1,1
 10032              		.comm	imagen,1,1
 10033              		.comm	no_imprime2,1,1
 10034              		.comm	no_imprime,1,1
 10035              		.comm	n_copias,1,4
 10036              		.comm	a_copias,1,1
 10037              		.comm	producto4n,11,4
 10038              		.comm	producto3n,11,4
 10039              		.comm	producto2n,11,4
 10040              		.comm	producto1n,11,4
 10041              		.comm	nombreproducto,1,1
 10042              		.comm	id_venta,6,4
 10043              		.comm	copia_recibo2,2,4
 10044              		.comm	copia_recibo,2,4
 10045              		.comm	print2,2,4
 10046              		.comm	print1,2,4
 10047              		.comm	crc_total,1,1
 10048              		.comm	pos_ibutton,1,1
 10049              		.comm	fecha_corte,6,4
 10050              		.comm	decimalD,1,1
 10051              		.comm	decimalV,1,1
 10052              		.comm	tipo_imp,2,4
 10053              		.comm	bandera,2,4
 10054              		.comm	ppux10,1,1
 10055              		.comm	teclado2,1,1
 10056              		.comm	teclado,1,1
 10057              		.comm	resultado,14,4
 10058              		.comm	buffer_i2c,64,4
 10059              		.comm	producto4d,1,1
 10060              		.comm	producto3d,1,1
 10061              		.comm	producto2d,1,1
 10062              		.comm	producto1d,1,1
 10063              		.comm	producto4c,1,1
 10064              		.comm	producto3c,1,1
 10065              		.comm	producto2c,1,1
 10066              		.comm	producto1c,1,1
 10067              		.comm	producto4b,1,1
 10068              		.comm	producto3b,1,1
 10069              		.comm	producto2b,1,1
 10070              		.comm	producto1b,1,1
 10071              		.comm	producto4,1,1
 10072              		.comm	producto3,1,1
 10073              		.comm	producto2,1,1
 10074              		.comm	producto1,1,1
 10075              		.comm	versurt,1,1
 10076              		.comm	comas2,1,1
 10077              		.comm	comas1,1,1
 10078              		.comm	teclas2,1,1
 10079              		.comm	teclas1,1,1
 10080              		.comm	cont1,1,1
ARM GAS  C:\Users\diego\AppData\Local\Temp\ccNdDNY6.s 			page 220


 10081              		.comm	flujo_LCD4,1,1
 10082              		.comm	flujo_LCD3,1,1
 10083              		.comm	flujo_LCD2,1,1
 10084              		.comm	flujo_LCD,1,1
 10085              		.section	.rodata
 10086              		.align	2
 10087              		.set	.LANCHOR0,. + 0
 10088              	.LC0:
 10089 0000 FF       		.byte	-1
 10090 0001 E9       		.byte	-23
 10091 0002 FE       		.byte	-2
 10092 0003 E0       		.byte	-32
 10093 0004 E1       		.byte	-31
 10094 0005 E0       		.byte	-32
 10095 0006 FB       		.byte	-5
 10096 0007 EE       		.byte	-18
 10097 0008 F0       		.byte	-16
 10098 0009 000000   		.data
 10099              		.align	2
 10100              		.set	.LANCHOR1,. + 0
 10101              		.type	msn_tc, %object
 10102              		.size	msn_tc, 6
 10103              	msn_tc:
 10104 0000 544F5441 		.ascii	"TOTAL\000"
 10104      4C00
 10105 0006 0000     		.space	2
 10106              		.type	msn_lecact, %object
 10107              		.size	msn_lecact, 15
 10108              	msn_lecact:
 10109 0008 56616C6F 		.ascii	"Valor actual: \000"
 10109      72206163 
 10109      7475616C 
 10109      3A2000
 10110 0017 00       		.space	1
 10111              		.type	msn_lecaan, %object
 10112              		.size	msn_lecaan, 17
 10113              	msn_lecaan:
 10114 0018 56616C6F 		.ascii	"Valor anterior:  "
 10114      7220616E 
 10114      74657269 
 10114      6F723A20 
 10114      20
 10115 0029 000000   		.space	3
 10116              		.type	msn_tventas, %object
 10117              		.size	msn_tventas, 18
 10118              	msn_tventas:
 10119 002c 44696E65 		.ascii	"Dinero total: $   "
 10119      726F2074 
 10119      6F74616C 
 10119      3A202420 
 10119      2020
 10120 003e 0000     		.space	2
 10121              		.type	msn_totalcero, %object
 10122              		.size	msn_totalcero, 15
 10123              	msn_totalcero:
 10124 0040 4E6F2074 		.ascii	"No toma totales"
 10124      6F6D6120 
ARM GAS  C:\Users\diego\AppData\Local\Temp\ccNdDNY6.s 			page 221


 10124      746F7461 
 10124      6C6573
 10125 004f 00       		.text
 10126              	.Letext0:
 10127              		.file 2 "c:\\program files (x86)\\cypress\\psoc creator\\3.3\\psoc creator\\import\\gnu\\arm\\4.9.
 10128              		.file 3 "c:\\program files (x86)\\cypress\\psoc creator\\3.3\\psoc creator\\import\\gnu\\arm\\4.9.
 10129              		.file 4 "Generated_Source\\PSoC5/cytypes.h"
 10130              		.file 5 ".\\VariablesG.h"
 10131              		.file 6 "Generated_Source\\PSoC5/Surtidor.h"
 10132              		.file 7 "Generated_Source\\PSoC5/core_cm3.h"
 10133              		.file 8 "Generated_Source\\PSoC5/CyLib.h"
 10134              		.file 9 ".\\I2C.h"
 10135              		.file 10 ".\\Print.h"
 10136              		.section	.debug_info,"",%progbits
 10137              	.Ldebug_info0:
 10138 0000 D83D0000 		.4byte	0x3dd8
 10139 0004 0400     		.2byte	0x4
 10140 0006 00000000 		.4byte	.Ldebug_abbrev0
 10141 000a 04       		.byte	0x4
 10142 000b 01       		.uleb128 0x1
 10143 000c 18060000 		.4byte	.LASF161
 10144 0010 01       		.byte	0x1
 10145 0011 47050000 		.4byte	.LASF162
 10146 0015 89000000 		.4byte	.LASF163
 10147 0019 00000000 		.4byte	.Ldebug_ranges0+0
 10148 001d 00000000 		.4byte	0
 10149 0021 00000000 		.4byte	.Ldebug_line0
 10150 0025 02       		.uleb128 0x2
 10151 0026 01       		.byte	0x1
 10152 0027 06       		.byte	0x6
 10153 0028 BC060000 		.4byte	.LASF0
 10154 002c 02       		.uleb128 0x2
 10155 002d 01       		.byte	0x1
 10156 002e 08       		.byte	0x8
 10157 002f 0A060000 		.4byte	.LASF1
 10158 0033 02       		.uleb128 0x2
 10159 0034 02       		.byte	0x2
 10160 0035 05       		.byte	0x5
 10161 0036 0E050000 		.4byte	.LASF2
 10162 003a 02       		.uleb128 0x2
 10163 003b 02       		.byte	0x2
 10164 003c 07       		.byte	0x7
 10165 003d CE060000 		.4byte	.LASF3
 10166 0041 03       		.uleb128 0x3
 10167 0042 51000000 		.4byte	.LASF9
 10168 0046 02       		.byte	0x2
 10169 0047 3F       		.byte	0x3f
 10170 0048 4C000000 		.4byte	0x4c
 10171 004c 02       		.uleb128 0x2
 10172 004d 04       		.byte	0x4
 10173 004e 05       		.byte	0x5
 10174 004f 18050000 		.4byte	.LASF4
 10175 0053 02       		.uleb128 0x2
 10176 0054 04       		.byte	0x4
 10177 0055 07       		.byte	0x7
 10178 0056 BC050000 		.4byte	.LASF5
 10179 005a 02       		.uleb128 0x2
ARM GAS  C:\Users\diego\AppData\Local\Temp\ccNdDNY6.s 			page 222


 10180 005b 08       		.byte	0x8
 10181 005c 05       		.byte	0x5
 10182 005d 13040000 		.4byte	.LASF6
 10183 0061 02       		.uleb128 0x2
 10184 0062 08       		.byte	0x8
 10185 0063 07       		.byte	0x7
 10186 0064 50020000 		.4byte	.LASF7
 10187 0068 04       		.uleb128 0x4
 10188 0069 04       		.byte	0x4
 10189 006a 05       		.byte	0x5
 10190 006b 696E7400 		.ascii	"int\000"
 10191 006f 02       		.uleb128 0x2
 10192 0070 04       		.byte	0x4
 10193 0071 07       		.byte	0x7
 10194 0072 36000000 		.4byte	.LASF8
 10195 0076 03       		.uleb128 0x3
 10196 0077 EB050000 		.4byte	.LASF10
 10197 007b 03       		.byte	0x3
 10198 007c 2C       		.byte	0x2c
 10199 007d 41000000 		.4byte	0x41
 10200 0081 05       		.uleb128 0x5
 10201 0082 14070000 		.4byte	.LASF11
 10202 0086 04       		.byte	0x4
 10203 0087 3801     		.2byte	0x138
 10204 0089 2C000000 		.4byte	0x2c
 10205 008d 05       		.uleb128 0x5
 10206 008e C1030000 		.4byte	.LASF12
 10207 0092 04       		.byte	0x4
 10208 0093 3901     		.2byte	0x139
 10209 0095 3A000000 		.4byte	0x3a
 10210 0099 05       		.uleb128 0x5
 10211 009a 72040000 		.4byte	.LASF13
 10212 009e 04       		.byte	0x4
 10213 009f 3A01     		.2byte	0x13a
 10214 00a1 53000000 		.4byte	0x53
 10215 00a5 02       		.uleb128 0x2
 10216 00a6 04       		.byte	0x4
 10217 00a7 04       		.byte	0x4
 10218 00a8 F4010000 		.4byte	.LASF14
 10219 00ac 02       		.uleb128 0x2
 10220 00ad 08       		.byte	0x8
 10221 00ae 04       		.byte	0x4
 10222 00af 1A070000 		.4byte	.LASF15
 10223 00b3 02       		.uleb128 0x2
 10224 00b4 01       		.byte	0x1
 10225 00b5 08       		.byte	0x8
 10226 00b6 A4030000 		.4byte	.LASF16
 10227 00ba 02       		.uleb128 0x2
 10228 00bb 04       		.byte	0x4
 10229 00bc 07       		.byte	0x7
 10230 00bd B3050000 		.4byte	.LASF17
 10231 00c1 06       		.uleb128 0x6
 10232 00c2 2F000000 		.4byte	.LASF28
 10233 00c6 98       		.byte	0x98
 10234 00c7 05       		.byte	0x5
 10235 00c8 98       		.byte	0x98
 10236 00c9 68010000 		.4byte	0x168
ARM GAS  C:\Users\diego\AppData\Local\Temp\ccNdDNY6.s 			page 223


 10237 00cd 07       		.uleb128 0x7
 10238 00ce 6D040000 		.4byte	.LASF18
 10239 00d2 05       		.byte	0x5
 10240 00d3 99       		.byte	0x99
 10241 00d4 81000000 		.4byte	0x81
 10242 00d8 00       		.byte	0
 10243 00d9 08       		.uleb128 0x8
 10244 00da 706F7300 		.ascii	"pos\000"
 10245 00de 05       		.byte	0x5
 10246 00df 9A       		.byte	0x9a
 10247 00e0 81000000 		.4byte	0x81
 10248 00e4 01       		.byte	0x1
 10249 00e5 07       		.uleb128 0x7
 10250 00e6 04010000 		.4byte	.LASF19
 10251 00ea 05       		.byte	0x5
 10252 00eb 9B       		.byte	0x9b
 10253 00ec 81000000 		.4byte	0x81
 10254 00f0 02       		.byte	0x2
 10255 00f1 07       		.uleb128 0x7
 10256 00f2 CD010000 		.4byte	.LASF20
 10257 00f6 05       		.byte	0x5
 10258 00f7 9C       		.byte	0x9c
 10259 00f8 81000000 		.4byte	0x81
 10260 00fc 03       		.byte	0x3
 10261 00fd 08       		.uleb128 0x8
 10262 00fe 6B6D00   		.ascii	"km\000"
 10263 0101 05       		.byte	0x5
 10264 0102 9D       		.byte	0x9d
 10265 0103 68010000 		.4byte	0x168
 10266 0107 04       		.byte	0x4
 10267 0108 07       		.uleb128 0x7
 10268 0109 C8060000 		.4byte	.LASF21
 10269 010d 05       		.byte	0x5
 10270 010e 9E       		.byte	0x9e
 10271 010f 78010000 		.4byte	0x178
 10272 0113 0B       		.byte	0xb
 10273 0114 08       		.uleb128 0x8
 10274 0115 696400   		.ascii	"id\000"
 10275 0118 05       		.byte	0x5
 10276 0119 9F       		.byte	0x9f
 10277 011a 78010000 		.4byte	0x178
 10278 011e 29       		.byte	0x29
 10279 011f 07       		.uleb128 0x7
 10280 0120 6F020000 		.4byte	.LASF22
 10281 0124 05       		.byte	0x5
 10282 0125 A0       		.byte	0xa0
 10283 0126 78010000 		.4byte	0x178
 10284 012a 47       		.byte	0x47
 10285 012b 07       		.uleb128 0x7
 10286 012c D6020000 		.4byte	.LASF23
 10287 0130 05       		.byte	0x5
 10288 0131 A1       		.byte	0xa1
 10289 0132 78010000 		.4byte	0x178
 10290 0136 65       		.byte	0x65
 10291 0137 07       		.uleb128 0x7
 10292 0138 5B000000 		.4byte	.LASF24
 10293 013c 05       		.byte	0x5
ARM GAS  C:\Users\diego\AppData\Local\Temp\ccNdDNY6.s 			page 224


 10294 013d A2       		.byte	0xa2
 10295 013e 81000000 		.4byte	0x81
 10296 0142 83       		.byte	0x83
 10297 0143 07       		.uleb128 0x7
 10298 0144 43040000 		.4byte	.LASF25
 10299 0148 05       		.byte	0x5
 10300 0149 A3       		.byte	0xa3
 10301 014a 88010000 		.4byte	0x188
 10302 014e 84       		.byte	0x84
 10303 014f 07       		.uleb128 0x7
 10304 0150 00000000 		.4byte	.LASF26
 10305 0154 05       		.byte	0x5
 10306 0155 A4       		.byte	0xa4
 10307 0156 98010000 		.4byte	0x198
 10308 015a 8E       		.byte	0x8e
 10309 015b 07       		.uleb128 0x7
 10310 015c E2030000 		.4byte	.LASF27
 10311 0160 05       		.byte	0x5
 10312 0161 A5       		.byte	0xa5
 10313 0162 81000000 		.4byte	0x81
 10314 0166 97       		.byte	0x97
 10315 0167 00       		.byte	0
 10316 0168 09       		.uleb128 0x9
 10317 0169 81000000 		.4byte	0x81
 10318 016d 78010000 		.4byte	0x178
 10319 0171 0A       		.uleb128 0xa
 10320 0172 BA000000 		.4byte	0xba
 10321 0176 06       		.byte	0x6
 10322 0177 00       		.byte	0
 10323 0178 09       		.uleb128 0x9
 10324 0179 81000000 		.4byte	0x81
 10325 017d 88010000 		.4byte	0x188
 10326 0181 0A       		.uleb128 0xa
 10327 0182 BA000000 		.4byte	0xba
 10328 0186 1D       		.byte	0x1d
 10329 0187 00       		.byte	0
 10330 0188 09       		.uleb128 0x9
 10331 0189 81000000 		.4byte	0x81
 10332 018d 98010000 		.4byte	0x198
 10333 0191 0A       		.uleb128 0xa
 10334 0192 BA000000 		.4byte	0xba
 10335 0196 09       		.byte	0x9
 10336 0197 00       		.byte	0
 10337 0198 09       		.uleb128 0x9
 10338 0199 81000000 		.4byte	0x81
 10339 019d A8010000 		.4byte	0x1a8
 10340 01a1 0A       		.uleb128 0xa
 10341 01a2 BA000000 		.4byte	0xba
 10342 01a6 08       		.byte	0x8
 10343 01a7 00       		.byte	0
 10344 01a8 0B       		.uleb128 0xb
 10345 01a9 706F7300 		.ascii	"pos\000"
 10346 01ad 4C       		.byte	0x4c
 10347 01ae 05       		.byte	0x5
 10348 01af AE       		.byte	0xae
 10349 01b0 F1010000 		.4byte	0x1f1
 10350 01b4 08       		.uleb128 0x8
ARM GAS  C:\Users\diego\AppData\Local\Temp\ccNdDNY6.s 			page 225


 10351 01b5 64697200 		.ascii	"dir\000"
 10352 01b9 05       		.byte	0x5
 10353 01ba AF       		.byte	0xaf
 10354 01bb 81000000 		.4byte	0x81
 10355 01bf 00       		.byte	0
 10356 01c0 07       		.uleb128 0x7
 10357 01c1 A5040000 		.4byte	.LASF29
 10358 01c5 05       		.byte	0x5
 10359 01c6 B0       		.byte	0xb0
 10360 01c7 81000000 		.4byte	0x81
 10361 01cb 01       		.byte	0x1
 10362 01cc 07       		.uleb128 0x7
 10363 01cd 34070000 		.4byte	.LASF30
 10364 01d1 05       		.byte	0x5
 10365 01d2 B1       		.byte	0xb1
 10366 01d3 81000000 		.4byte	0x81
 10367 01d7 02       		.byte	0x2
 10368 01d8 07       		.uleb128 0x7
 10369 01d9 14000000 		.4byte	.LASF31
 10370 01dd 05       		.byte	0x5
 10371 01de B2       		.byte	0xb2
 10372 01df 81000000 		.4byte	0x81
 10373 01e3 03       		.byte	0x3
 10374 01e4 07       		.uleb128 0x7
 10375 01e5 FF030000 		.4byte	.LASF32
 10376 01e9 05       		.byte	0x5
 10377 01ea B3       		.byte	0xb3
 10378 01eb 07020000 		.4byte	0x207
 10379 01ef 04       		.byte	0x4
 10380 01f0 00       		.byte	0
 10381 01f1 09       		.uleb128 0x9
 10382 01f2 81000000 		.4byte	0x81
 10383 01f6 07020000 		.4byte	0x207
 10384 01fa 0A       		.uleb128 0xa
 10385 01fb BA000000 		.4byte	0xba
 10386 01ff 02       		.byte	0x2
 10387 0200 0A       		.uleb128 0xa
 10388 0201 BA000000 		.4byte	0xba
 10389 0205 17       		.byte	0x17
 10390 0206 00       		.byte	0
 10391 0207 0C       		.uleb128 0xc
 10392 0208 F1010000 		.4byte	0x1f1
 10393 020c 06       		.uleb128 0x6
 10394 020d 8B040000 		.4byte	.LASF33
 10395 0211 E1       		.byte	0xe1
 10396 0212 05       		.byte	0x5
 10397 0213 BD       		.byte	0xbd
 10398 0214 F1020000 		.4byte	0x2f1
 10399 0218 07       		.uleb128 0x7
 10400 0219 DE040000 		.4byte	.LASF34
 10401 021d 05       		.byte	0x5
 10402 021e BE       		.byte	0xbe
 10403 021f 78010000 		.4byte	0x178
 10404 0223 00       		.byte	0
 10405 0224 08       		.uleb128 0x8
 10406 0225 6E697400 		.ascii	"nit\000"
 10407 0229 05       		.byte	0x5
ARM GAS  C:\Users\diego\AppData\Local\Temp\ccNdDNY6.s 			page 226


 10408 022a BF       		.byte	0xbf
 10409 022b F1020000 		.4byte	0x2f1
 10410 022f 1E       		.byte	0x1e
 10411 0230 07       		.uleb128 0x7
 10412 0231 2A040000 		.4byte	.LASF35
 10413 0235 05       		.byte	0x5
 10414 0236 C0       		.byte	0xc0
 10415 0237 01030000 		.4byte	0x301
 10416 023b 2D       		.byte	0x2d
 10417 023c 07       		.uleb128 0x7
 10418 023d 36030000 		.4byte	.LASF36
 10419 0241 05       		.byte	0x5
 10420 0242 C1       		.byte	0xc1
 10421 0243 11030000 		.4byte	0x311
 10422 0247 2F       		.byte	0x2f
 10423 0248 07       		.uleb128 0x7
 10424 0249 97010000 		.4byte	.LASF37
 10425 024d 05       		.byte	0x5
 10426 024e C2       		.byte	0xc2
 10427 024f 78010000 		.4byte	0x178
 10428 0253 43       		.byte	0x43
 10429 0254 07       		.uleb128 0x7
 10430 0255 1A020000 		.4byte	.LASF38
 10431 0259 05       		.byte	0x5
 10432 025a C3       		.byte	0xc3
 10433 025b 78010000 		.4byte	0x178
 10434 025f 61       		.byte	0x61
 10435 0260 07       		.uleb128 0x7
 10436 0261 20020000 		.4byte	.LASF39
 10437 0265 05       		.byte	0x5
 10438 0266 C4       		.byte	0xc4
 10439 0267 78010000 		.4byte	0x178
 10440 026b 7F       		.byte	0x7f
 10441 026c 07       		.uleb128 0x7
 10442 026d B1060000 		.4byte	.LASF40
 10443 0271 05       		.byte	0x5
 10444 0272 C5       		.byte	0xc5
 10445 0273 21030000 		.4byte	0x321
 10446 0277 9D       		.byte	0x9d
 10447 0278 07       		.uleb128 0x7
 10448 0279 47010000 		.4byte	.LASF41
 10449 027d 05       		.byte	0x5
 10450 027e C6       		.byte	0xc6
 10451 027f 01030000 		.4byte	0x301
 10452 0283 A0       		.byte	0xa0
 10453 0284 07       		.uleb128 0x7
 10454 0285 7D010000 		.4byte	.LASF42
 10455 0289 05       		.byte	0x5
 10456 028a C7       		.byte	0xc7
 10457 028b 81000000 		.4byte	0x81
 10458 028f A2       		.byte	0xa2
 10459 0290 07       		.uleb128 0x7
 10460 0291 21040000 		.4byte	.LASF43
 10461 0295 05       		.byte	0x5
 10462 0296 C8       		.byte	0xc8
 10463 0297 81000000 		.4byte	0x81
 10464 029b A3       		.byte	0xa3
ARM GAS  C:\Users\diego\AppData\Local\Temp\ccNdDNY6.s 			page 227


 10465 029c 08       		.uleb128 0x8
 10466 029d 70707500 		.ascii	"ppu\000"
 10467 02a1 05       		.byte	0x5
 10468 02a2 C9       		.byte	0xc9
 10469 02a3 68010000 		.4byte	0x168
 10470 02a7 A4       		.byte	0xa4
 10471 02a8 07       		.uleb128 0x7
 10472 02a9 92040000 		.4byte	.LASF44
 10473 02ad 05       		.byte	0x5
 10474 02ae CA       		.byte	0xca
 10475 02af 98010000 		.4byte	0x198
 10476 02b3 AB       		.byte	0xab
 10477 02b4 07       		.uleb128 0x7
 10478 02b5 28030000 		.4byte	.LASF45
 10479 02b9 05       		.byte	0x5
 10480 02ba CB       		.byte	0xcb
 10481 02bb 98010000 		.4byte	0x198
 10482 02bf B4       		.byte	0xb4
 10483 02c0 07       		.uleb128 0x7
 10484 02c1 69030000 		.4byte	.LASF46
 10485 02c5 05       		.byte	0x5
 10486 02c6 CC       		.byte	0xcc
 10487 02c7 31030000 		.4byte	0x331
 10488 02cb BD       		.byte	0xbd
 10489 02cc 07       		.uleb128 0x7
 10490 02cd 75010000 		.4byte	.LASF47
 10491 02d1 05       		.byte	0x5
 10492 02d2 CD       		.byte	0xcd
 10493 02d3 31030000 		.4byte	0x331
 10494 02d7 CA       		.byte	0xca
 10495 02d8 07       		.uleb128 0x7
 10496 02d9 00000000 		.4byte	.LASF26
 10497 02dd 05       		.byte	0x5
 10498 02de CE       		.byte	0xce
 10499 02df 98010000 		.4byte	0x198
 10500 02e3 D7       		.byte	0xd7
 10501 02e4 07       		.uleb128 0x7
 10502 02e5 34070000 		.4byte	.LASF30
 10503 02e9 05       		.byte	0x5
 10504 02ea CF       		.byte	0xcf
 10505 02eb 81000000 		.4byte	0x81
 10506 02ef E0       		.byte	0xe0
 10507 02f0 00       		.byte	0
 10508 02f1 09       		.uleb128 0x9
 10509 02f2 81000000 		.4byte	0x81
 10510 02f6 01030000 		.4byte	0x301
 10511 02fa 0A       		.uleb128 0xa
 10512 02fb BA000000 		.4byte	0xba
 10513 02ff 0E       		.byte	0xe
 10514 0300 00       		.byte	0
 10515 0301 09       		.uleb128 0x9
 10516 0302 81000000 		.4byte	0x81
 10517 0306 11030000 		.4byte	0x311
 10518 030a 0A       		.uleb128 0xa
 10519 030b BA000000 		.4byte	0xba
 10520 030f 01       		.byte	0x1
 10521 0310 00       		.byte	0
ARM GAS  C:\Users\diego\AppData\Local\Temp\ccNdDNY6.s 			page 228


 10522 0311 09       		.uleb128 0x9
 10523 0312 81000000 		.4byte	0x81
 10524 0316 21030000 		.4byte	0x321
 10525 031a 0A       		.uleb128 0xa
 10526 031b BA000000 		.4byte	0xba
 10527 031f 13       		.byte	0x13
 10528 0320 00       		.byte	0
 10529 0321 09       		.uleb128 0x9
 10530 0322 81000000 		.4byte	0x81
 10531 0326 31030000 		.4byte	0x331
 10532 032a 0A       		.uleb128 0xa
 10533 032b BA000000 		.4byte	0xba
 10534 032f 02       		.byte	0x2
 10535 0330 00       		.byte	0
 10536 0331 09       		.uleb128 0x9
 10537 0332 81000000 		.4byte	0x81
 10538 0336 41030000 		.4byte	0x341
 10539 033a 0A       		.uleb128 0xa
 10540 033b BA000000 		.4byte	0xba
 10541 033f 0C       		.byte	0xc
 10542 0340 00       		.byte	0
 10543 0341 0D       		.uleb128 0xd
 10544 0342 20030000 		.4byte	.LASF48
 10545 0346 01       		.byte	0x1
 10546 0347 47       		.byte	0x47
 10547 0348 81000000 		.4byte	0x81
 10548 034c 00000000 		.4byte	.LFB63
 10549 0350 14010000 		.4byte	.LFE63-.LFB63
 10550 0354 01       		.uleb128 0x1
 10551 0355 9C       		.byte	0x9c
 10552 0356 D8030000 		.4byte	0x3d8
 10553 035a 0E       		.uleb128 0xe
 10554 035b 7800     		.ascii	"x\000"
 10555 035d 01       		.byte	0x1
 10556 035e 48       		.byte	0x48
 10557 035f 81000000 		.4byte	0x81
 10558 0363 00000000 		.4byte	.LLST0
 10559 0367 0F       		.uleb128 0xf
 10560 0368 1E000000 		.4byte	.LVL2
 10561 036c FA3C0000 		.4byte	0x3cfa
 10562 0370 7B030000 		.4byte	0x37b
 10563 0374 10       		.uleb128 0x10
 10564 0375 01       		.uleb128 0x1
 10565 0376 50       		.byte	0x50
 10566 0377 02       		.uleb128 0x2
 10567 0378 74       		.byte	0x74
 10568 0379 00       		.sleb128 0
 10569 037a 00       		.byte	0
 10570 037b 0F       		.uleb128 0xf
 10571 037c 24000000 		.4byte	.LVL3
 10572 0380 0B3D0000 		.4byte	0x3d0b
 10573 0384 8F030000 		.4byte	0x38f
 10574 0388 10       		.uleb128 0x10
 10575 0389 01       		.uleb128 0x1
 10576 038a 50       		.byte	0x50
 10577 038b 02       		.uleb128 0x2
 10578 038c 08       		.byte	0x8
ARM GAS  C:\Users\diego\AppData\Local\Temp\ccNdDNY6.s 			page 229


 10579 038d 64       		.byte	0x64
 10580 038e 00       		.byte	0
 10581 038f 11       		.uleb128 0x11
 10582 0390 28000000 		.4byte	.LVL4
 10583 0394 1C3D0000 		.4byte	0x3d1c
 10584 0398 11       		.uleb128 0x11
 10585 0399 3A000000 		.4byte	.LVL5
 10586 039d 273D0000 		.4byte	0x3d27
 10587 03a1 11       		.uleb128 0x11
 10588 03a2 3E000000 		.4byte	.LVL6
 10589 03a6 1C3D0000 		.4byte	0x3d1c
 10590 03aa 11       		.uleb128 0x11
 10591 03ab 58000000 		.4byte	.LVL7
 10592 03af 273D0000 		.4byte	0x3d27
 10593 03b3 11       		.uleb128 0x11
 10594 03b4 5C000000 		.4byte	.LVL8
 10595 03b8 1C3D0000 		.4byte	0x3d1c
 10596 03bc 11       		.uleb128 0x11
 10597 03bd 7A000000 		.4byte	.LVL9
 10598 03c1 273D0000 		.4byte	0x3d27
 10599 03c5 11       		.uleb128 0x11
 10600 03c6 7E000000 		.4byte	.LVL10
 10601 03ca 1C3D0000 		.4byte	0x3d1c
 10602 03ce 11       		.uleb128 0x11
 10603 03cf A8000000 		.4byte	.LVL11
 10604 03d3 273D0000 		.4byte	0x3d27
 10605 03d7 00       		.byte	0
 10606 03d8 0D       		.uleb128 0xd
 10607 03d9 A6060000 		.4byte	.LASF49
 10608 03dd 01       		.byte	0x1
 10609 03de 82       		.byte	0x82
 10610 03df 81000000 		.4byte	0x81
 10611 03e3 00000000 		.4byte	.LFB64
 10612 03e7 26000000 		.4byte	.LFE64-.LFB64
 10613 03eb 01       		.uleb128 0x1
 10614 03ec 9C       		.byte	0x9c
 10615 03ed 48040000 		.4byte	0x448
 10616 03f1 12       		.uleb128 0x12
 10617 03f2 64697200 		.ascii	"dir\000"
 10618 03f6 01       		.byte	0x1
 10619 03f7 82       		.byte	0x82
 10620 03f8 81000000 		.4byte	0x81
 10621 03fc 2A000000 		.4byte	.LLST1
 10622 0400 13       		.uleb128 0x13
 10623 0401 A5040000 		.4byte	.LASF29
 10624 0405 01       		.byte	0x1
 10625 0406 83       		.byte	0x83
 10626 0407 81000000 		.4byte	0x81
 10627 040b 4B000000 		.4byte	.LLST2
 10628 040f 11       		.uleb128 0x11
 10629 0410 06000000 		.4byte	.LVL21
 10630 0414 FA3C0000 		.4byte	0x3cfa
 10631 0418 0F       		.uleb128 0xf
 10632 0419 0C000000 		.4byte	.LVL22
 10633 041d 0B3D0000 		.4byte	0x3d0b
 10634 0421 2C040000 		.4byte	0x42c
 10635 0425 10       		.uleb128 0x10
ARM GAS  C:\Users\diego\AppData\Local\Temp\ccNdDNY6.s 			page 230


 10636 0426 01       		.uleb128 0x1
 10637 0427 50       		.byte	0x50
 10638 0428 02       		.uleb128 0x2
 10639 0429 08       		.byte	0x8
 10640 042a 32       		.byte	0x32
 10641 042b 00       		.byte	0
 10642 042c 11       		.uleb128 0x11
 10643 042d 10000000 		.4byte	.LVL23
 10644 0431 1C3D0000 		.4byte	0x3d1c
 10645 0435 11       		.uleb128 0x11
 10646 0436 16000000 		.4byte	.LVL24
 10647 043a 2E3D0000 		.4byte	0x3d2e
 10648 043e 11       		.uleb128 0x11
 10649 043f 1E000000 		.4byte	.LVL26
 10650 0443 273D0000 		.4byte	0x3d27
 10651 0447 00       		.byte	0
 10652 0448 0D       		.uleb128 0xd
 10653 0449 99050000 		.4byte	.LASF50
 10654 044d 01       		.byte	0x1
 10655 044e BD       		.byte	0xbd
 10656 044f 81000000 		.4byte	0x81
 10657 0453 00000000 		.4byte	.LFB65
 10658 0457 E8000000 		.4byte	.LFE65-.LFB65
 10659 045b 01       		.uleb128 0x1
 10660 045c 9C       		.byte	0x9c
 10661 045d 2B050000 		.4byte	0x52b
 10662 0461 12       		.uleb128 0x12
 10663 0462 76616C00 		.ascii	"val\000"
 10664 0466 01       		.byte	0x1
 10665 0467 BD       		.byte	0xbd
 10666 0468 81000000 		.4byte	0x81
 10667 046c 5E000000 		.4byte	.LLST3
 10668 0470 14       		.uleb128 0x14
 10669 0471 21070000 		.4byte	.LASF51
 10670 0475 01       		.byte	0x1
 10671 0476 BE       		.byte	0xbe
 10672 0477 2B050000 		.4byte	0x52b
 10673 047b 02       		.uleb128 0x2
 10674 047c 91       		.byte	0x91
 10675 047d 64       		.sleb128 -28
 10676 047e 0E       		.uleb128 0xe
 10677 047f 7800     		.ascii	"x\000"
 10678 0481 01       		.byte	0x1
 10679 0482 BE       		.byte	0xbe
 10680 0483 81000000 		.4byte	0x81
 10681 0487 7F000000 		.4byte	.LLST4
 10682 048b 14       		.uleb128 0x14
 10683 048c 8B030000 		.4byte	.LASF52
 10684 0490 01       		.byte	0x1
 10685 0491 BE       		.byte	0xbe
 10686 0492 98010000 		.4byte	0x198
 10687 0496 02       		.uleb128 0x2
 10688 0497 91       		.byte	0x91
 10689 0498 58       		.sleb128 -40
 10690 0499 0F       		.uleb128 0xf
 10691 049a 1C000000 		.4byte	.LVL30
 10692 049e FA3C0000 		.4byte	0x3cfa
ARM GAS  C:\Users\diego\AppData\Local\Temp\ccNdDNY6.s 			page 231


 10693 04a2 B0040000 		.4byte	0x4b0
 10694 04a6 10       		.uleb128 0x10
 10695 04a7 01       		.uleb128 0x1
 10696 04a8 50       		.byte	0x50
 10697 04a9 05       		.uleb128 0x5
 10698 04aa 74       		.byte	0x74
 10699 04ab 00       		.sleb128 0
 10700 04ac 08       		.byte	0x8
 10701 04ad 20       		.byte	0x20
 10702 04ae 21       		.byte	0x21
 10703 04af 00       		.byte	0
 10704 04b0 0F       		.uleb128 0xf
 10705 04b1 28000000 		.4byte	.LVL31
 10706 04b5 0B3D0000 		.4byte	0x3d0b
 10707 04b9 C4040000 		.4byte	0x4c4
 10708 04bd 10       		.uleb128 0x10
 10709 04be 01       		.uleb128 0x1
 10710 04bf 50       		.byte	0x50
 10711 04c0 02       		.uleb128 0x2
 10712 04c1 08       		.byte	0x8
 10713 04c2 64       		.byte	0x64
 10714 04c3 00       		.byte	0
 10715 04c4 11       		.uleb128 0x11
 10716 04c5 2C000000 		.4byte	.LVL32
 10717 04c9 1C3D0000 		.4byte	0x3d1c
 10718 04cd 11       		.uleb128 0x11
 10719 04ce 34000000 		.4byte	.LVL33
 10720 04d2 2E3D0000 		.4byte	0x3d2e
 10721 04d6 11       		.uleb128 0x11
 10722 04d7 40000000 		.4byte	.LVL34
 10723 04db 273D0000 		.4byte	0x3d27
 10724 04df 0F       		.uleb128 0xf
 10725 04e0 50000000 		.4byte	.LVL36
 10726 04e4 FA3C0000 		.4byte	0x3cfa
 10727 04e8 FB040000 		.4byte	0x4fb
 10728 04ec 10       		.uleb128 0x10
 10729 04ed 01       		.uleb128 0x1
 10730 04ee 50       		.byte	0x50
 10731 04ef 0A       		.uleb128 0xa
 10732 04f0 91       		.byte	0x91
 10733 04f1 00       		.sleb128 0
 10734 04f2 74       		.byte	0x74
 10735 04f3 00       		.sleb128 0
 10736 04f4 22       		.byte	0x22
 10737 04f5 08       		.byte	0x8
 10738 04f6 28       		.byte	0x28
 10739 04f7 1C       		.byte	0x1c
 10740 04f8 94       		.byte	0x94
 10741 04f9 01       		.byte	0x1
 10742 04fa 00       		.byte	0
 10743 04fb 0F       		.uleb128 0xf
 10744 04fc 5E000000 		.4byte	.LVL39
 10745 0500 0B3D0000 		.4byte	0x3d0b
 10746 0504 0F050000 		.4byte	0x50f
 10747 0508 10       		.uleb128 0x10
 10748 0509 01       		.uleb128 0x1
 10749 050a 50       		.byte	0x50
ARM GAS  C:\Users\diego\AppData\Local\Temp\ccNdDNY6.s 			page 232


 10750 050b 02       		.uleb128 0x2
 10751 050c 08       		.byte	0x8
 10752 050d C8       		.byte	0xc8
 10753 050e 00       		.byte	0
 10754 050f 11       		.uleb128 0x11
 10755 0510 62000000 		.4byte	.LVL40
 10756 0514 1C3D0000 		.4byte	0x3d1c
 10757 0518 11       		.uleb128 0x11
 10758 0519 6E000000 		.4byte	.LVL41
 10759 051d 2E3D0000 		.4byte	0x3d2e
 10760 0521 11       		.uleb128 0x11
 10761 0522 86000000 		.4byte	.LVL45
 10762 0526 273D0000 		.4byte	0x3d27
 10763 052a 00       		.byte	0
 10764 052b 09       		.uleb128 0x9
 10765 052c 81000000 		.4byte	0x81
 10766 0530 3B050000 		.4byte	0x53b
 10767 0534 0A       		.uleb128 0xa
 10768 0535 BA000000 		.4byte	0xba
 10769 0539 12       		.byte	0x12
 10770 053a 00       		.byte	0
 10771 053b 15       		.uleb128 0x15
 10772 053c 30030000 		.4byte	.LASF53
 10773 0540 01       		.byte	0x1
 10774 0541 1301     		.2byte	0x113
 10775 0543 81000000 		.4byte	0x81
 10776 0547 00000000 		.4byte	.LFB66
 10777 054b E8010000 		.4byte	.LFE66-.LFB66
 10778 054f 01       		.uleb128 0x1
 10779 0550 9C       		.byte	0x9c
 10780 0551 8F060000 		.4byte	0x68f
 10781 0555 16       		.uleb128 0x16
 10782 0556 76616C00 		.ascii	"val\000"
 10783 055a 01       		.byte	0x1
 10784 055b 1301     		.2byte	0x113
 10785 055d 81000000 		.4byte	0x81
 10786 0561 BF000000 		.4byte	.LLST5
 10787 0565 17       		.uleb128 0x17
 10788 0566 CE050000 		.4byte	.LASF54
 10789 056a 01       		.byte	0x1
 10790 056b 1401     		.2byte	0x114
 10791 056d 8F060000 		.4byte	0x68f
 10792 0571 02       		.uleb128 0x2
 10793 0572 91       		.byte	0x91
 10794 0573 48       		.sleb128 -56
 10795 0574 18       		.uleb128 0x18
 10796 0575 7800     		.ascii	"x\000"
 10797 0577 01       		.byte	0x1
 10798 0578 1401     		.2byte	0x114
 10799 057a 81000000 		.4byte	0x81
 10800 057e E0000000 		.4byte	.LLST6
 10801 0582 18       		.uleb128 0x18
 10802 0583 706F7300 		.ascii	"pos\000"
 10803 0587 01       		.byte	0x1
 10804 0588 1401     		.2byte	0x114
 10805 058a 81000000 		.4byte	0x81
 10806 058e C6010000 		.4byte	.LLST7
ARM GAS  C:\Users\diego\AppData\Local\Temp\ccNdDNY6.s 			page 233


 10807 0592 18       		.uleb128 0x18
 10808 0593 7900     		.ascii	"y\000"
 10809 0595 01       		.byte	0x1
 10810 0596 1401     		.2byte	0x114
 10811 0598 81000000 		.4byte	0x81
 10812 059c FB010000 		.4byte	.LLST8
 10813 05a0 0F       		.uleb128 0xf
 10814 05a1 0E000000 		.4byte	.LVL52
 10815 05a5 FA3C0000 		.4byte	0x3cfa
 10816 05a9 B7050000 		.4byte	0x5b7
 10817 05ad 10       		.uleb128 0x10
 10818 05ae 01       		.uleb128 0x1
 10819 05af 50       		.byte	0x50
 10820 05b0 05       		.uleb128 0x5
 10821 05b1 74       		.byte	0x74
 10822 05b2 00       		.sleb128 0
 10823 05b3 08       		.byte	0x8
 10824 05b4 40       		.byte	0x40
 10825 05b5 21       		.byte	0x21
 10826 05b6 00       		.byte	0
 10827 05b7 0F       		.uleb128 0xf
 10828 05b8 16000000 		.4byte	.LVL53
 10829 05bc 0B3D0000 		.4byte	0x3d0b
 10830 05c0 CC050000 		.4byte	0x5cc
 10831 05c4 10       		.uleb128 0x10
 10832 05c5 01       		.uleb128 0x1
 10833 05c6 50       		.byte	0x50
 10834 05c7 03       		.uleb128 0x3
 10835 05c8 0A       		.byte	0xa
 10836 05c9 2C01     		.2byte	0x12c
 10837 05cb 00       		.byte	0
 10838 05cc 11       		.uleb128 0x11
 10839 05cd 1A000000 		.4byte	.LVL54
 10840 05d1 1C3D0000 		.4byte	0x3d1c
 10841 05d5 11       		.uleb128 0x11
 10842 05d6 26000000 		.4byte	.LVL56
 10843 05da 2E3D0000 		.4byte	0x3d2e
 10844 05de 11       		.uleb128 0x11
 10845 05df 3A000000 		.4byte	.LVL61
 10846 05e3 1C3D0000 		.4byte	0x3d1c
 10847 05e7 11       		.uleb128 0x11
 10848 05e8 42000000 		.4byte	.LVL62
 10849 05ec 273D0000 		.4byte	0x3d27
 10850 05f0 0F       		.uleb128 0xf
 10851 05f1 88010000 		.4byte	.LVL103
 10852 05f5 393D0000 		.4byte	0x3d39
 10853 05f9 0B060000 		.4byte	0x60b
 10854 05fd 10       		.uleb128 0x10
 10855 05fe 01       		.uleb128 0x1
 10856 05ff 51       		.byte	0x51
 10857 0600 02       		.uleb128 0x2
 10858 0601 74       		.byte	0x74
 10859 0602 00       		.sleb128 0
 10860 0603 10       		.uleb128 0x10
 10861 0604 01       		.uleb128 0x1
 10862 0605 50       		.byte	0x50
 10863 0606 03       		.uleb128 0x3
ARM GAS  C:\Users\diego\AppData\Local\Temp\ccNdDNY6.s 			page 234


 10864 0607 0A       		.byte	0xa
 10865 0608 C901     		.2byte	0x1c9
 10866 060a 00       		.byte	0
 10867 060b 0F       		.uleb128 0xf
 10868 060c 94010000 		.4byte	.LVL104
 10869 0610 393D0000 		.4byte	0x3d39
 10870 0614 26060000 		.4byte	0x626
 10871 0618 10       		.uleb128 0x10
 10872 0619 01       		.uleb128 0x1
 10873 061a 51       		.byte	0x51
 10874 061b 02       		.uleb128 0x2
 10875 061c 74       		.byte	0x74
 10876 061d 09       		.sleb128 9
 10877 061e 10       		.uleb128 0x10
 10878 061f 01       		.uleb128 0x1
 10879 0620 50       		.byte	0x50
 10880 0621 03       		.uleb128 0x3
 10881 0622 0A       		.byte	0xa
 10882 0623 D201     		.2byte	0x1d2
 10883 0625 00       		.byte	0
 10884 0626 0F       		.uleb128 0xf
 10885 0627 9E010000 		.4byte	.LVL105
 10886 062b 393D0000 		.4byte	0x3d39
 10887 062f 41060000 		.4byte	0x641
 10888 0633 10       		.uleb128 0x10
 10889 0634 01       		.uleb128 0x1
 10890 0635 51       		.byte	0x51
 10891 0636 02       		.uleb128 0x2
 10892 0637 74       		.byte	0x74
 10893 0638 79       		.sleb128 -7
 10894 0639 10       		.uleb128 0x10
 10895 063a 01       		.uleb128 0x1
 10896 063b 50       		.byte	0x50
 10897 063c 03       		.uleb128 0x3
 10898 063d 0A       		.byte	0xa
 10899 063e DB01     		.2byte	0x1db
 10900 0640 00       		.byte	0
 10901 0641 0F       		.uleb128 0xf
 10902 0642 AE010000 		.4byte	.LVL106
 10903 0646 393D0000 		.4byte	0x3d39
 10904 064a 5C060000 		.4byte	0x65c
 10905 064e 10       		.uleb128 0x10
 10906 064f 01       		.uleb128 0x1
 10907 0650 51       		.byte	0x51
 10908 0651 02       		.uleb128 0x2
 10909 0652 74       		.byte	0x74
 10910 0653 00       		.sleb128 0
 10911 0654 10       		.uleb128 0x10
 10912 0655 01       		.uleb128 0x1
 10913 0656 50       		.byte	0x50
 10914 0657 03       		.uleb128 0x3
 10915 0658 0A       		.byte	0xa
 10916 0659 E201     		.2byte	0x1e2
 10917 065b 00       		.byte	0
 10918 065c 0F       		.uleb128 0xf
 10919 065d B8010000 		.4byte	.LVL107
 10920 0661 393D0000 		.4byte	0x3d39
ARM GAS  C:\Users\diego\AppData\Local\Temp\ccNdDNY6.s 			page 235


 10921 0665 77060000 		.4byte	0x677
 10922 0669 10       		.uleb128 0x10
 10923 066a 01       		.uleb128 0x1
 10924 066b 51       		.byte	0x51
 10925 066c 02       		.uleb128 0x2
 10926 066d 74       		.byte	0x74
 10927 066e 79       		.sleb128 -7
 10928 066f 10       		.uleb128 0x10
 10929 0670 01       		.uleb128 0x1
 10930 0671 50       		.byte	0x50
 10931 0672 03       		.uleb128 0x3
 10932 0673 0A       		.byte	0xa
 10933 0674 F401     		.2byte	0x1f4
 10934 0676 00       		.byte	0
 10935 0677 19       		.uleb128 0x19
 10936 0678 C4010000 		.4byte	.LVL108
 10937 067c 393D0000 		.4byte	0x3d39
 10938 0680 10       		.uleb128 0x10
 10939 0681 01       		.uleb128 0x1
 10940 0682 51       		.byte	0x51
 10941 0683 02       		.uleb128 0x2
 10942 0684 74       		.byte	0x74
 10943 0685 09       		.sleb128 9
 10944 0686 10       		.uleb128 0x10
 10945 0687 01       		.uleb128 0x1
 10946 0688 50       		.byte	0x50
 10947 0689 03       		.uleb128 0x3
 10948 068a 0A       		.byte	0xa
 10949 068b EB01     		.2byte	0x1eb
 10950 068d 00       		.byte	0
 10951 068e 00       		.byte	0
 10952 068f 09       		.uleb128 0x9
 10953 0690 81000000 		.4byte	0x81
 10954 0694 9F060000 		.4byte	0x69f
 10955 0698 0A       		.uleb128 0xa
 10956 0699 BA000000 		.4byte	0xba
 10957 069d 26       		.byte	0x26
 10958 069e 00       		.byte	0
 10959 069f 15       		.uleb128 0x15
 10960 06a0 3B050000 		.4byte	.LASF55
 10961 06a4 01       		.byte	0x1
 10962 06a5 7201     		.2byte	0x172
 10963 06a7 81000000 		.4byte	0x81
 10964 06ab 00000000 		.4byte	.LFB67
 10965 06af 80340000 		.4byte	.LFE67-.LFB67
 10966 06b3 01       		.uleb128 0x1
 10967 06b4 9C       		.byte	0x9c
 10968 06b5 92330000 		.4byte	0x3392
 10969 06b9 16       		.uleb128 0x16
 10970 06ba 64697200 		.ascii	"dir\000"
 10971 06be 01       		.byte	0x1
 10972 06bf 7201     		.2byte	0x172
 10973 06c1 81000000 		.4byte	0x81
 10974 06c5 69020000 		.4byte	.LLST9
 10975 06c9 16       		.uleb128 0x16
 10976 06ca 76616C00 		.ascii	"val\000"
 10977 06ce 01       		.byte	0x1
ARM GAS  C:\Users\diego\AppData\Local\Temp\ccNdDNY6.s 			page 236


 10978 06cf 7201     		.2byte	0x172
 10979 06d1 81000000 		.4byte	0x81
 10980 06d5 8A020000 		.4byte	.LLST10
 10981 06d9 17       		.uleb128 0x17
 10982 06da A9030000 		.4byte	.LASF56
 10983 06de 01       		.byte	0x1
 10984 06df 7301     		.2byte	0x173
 10985 06e1 92330000 		.4byte	0x3392
 10986 06e5 02       		.uleb128 0x2
 10987 06e6 91       		.byte	0x91
 10988 06e7 54       		.sleb128 -44
 10989 06e8 17       		.uleb128 0x17
 10990 06e9 E1060000 		.4byte	.LASF57
 10991 06ed 01       		.byte	0x1
 10992 06ee 7301     		.2byte	0x173
 10993 06f0 A2330000 		.4byte	0x33a2
 10994 06f4 02       		.uleb128 0x2
 10995 06f5 91       		.byte	0x91
 10996 06f6 44       		.sleb128 -60
 10997 06f7 17       		.uleb128 0x17
 10998 06f8 DC020000 		.4byte	.LASF58
 10999 06fc 01       		.byte	0x1
 11000 06fd 7301     		.2byte	0x173
 11001 06ff A2330000 		.4byte	0x33a2
 11002 0703 03       		.uleb128 0x3
 11003 0704 91       		.byte	0x91
 11004 0705 B47F     		.sleb128 -76
 11005 0707 0F       		.uleb128 0xf
 11006 0708 10000000 		.4byte	.LVL114
 11007 070c FA3C0000 		.4byte	0x3cfa
 11008 0710 1E070000 		.4byte	0x71e
 11009 0714 10       		.uleb128 0x10
 11010 0715 01       		.uleb128 0x1
 11011 0716 50       		.byte	0x50
 11012 0717 05       		.uleb128 0x5
 11013 0718 75       		.byte	0x75
 11014 0719 00       		.sleb128 0
 11015 071a 08       		.byte	0x8
 11016 071b 50       		.byte	0x50
 11017 071c 21       		.byte	0x21
 11018 071d 00       		.byte	0
 11019 071e 0F       		.uleb128 0xf
 11020 071f 18000000 		.4byte	.LVL115
 11021 0723 0B3D0000 		.4byte	0x3d0b
 11022 0727 33070000 		.4byte	0x733
 11023 072b 10       		.uleb128 0x10
 11024 072c 01       		.uleb128 0x1
 11025 072d 50       		.byte	0x50
 11026 072e 03       		.uleb128 0x3
 11027 072f 0A       		.byte	0xa
 11028 0730 E803     		.2byte	0x3e8
 11029 0732 00       		.byte	0
 11030 0733 11       		.uleb128 0x11
 11031 0734 1C000000 		.4byte	.LVL116
 11032 0738 1C3D0000 		.4byte	0x3d1c
 11033 073c 0F       		.uleb128 0xf
 11034 073d 80010000 		.4byte	.LVL117
ARM GAS  C:\Users\diego\AppData\Local\Temp\ccNdDNY6.s 			page 237


 11035 0741 533D0000 		.4byte	0x3d53
 11036 0745 50070000 		.4byte	0x750
 11037 0749 10       		.uleb128 0x10
 11038 074a 01       		.uleb128 0x1
 11039 074b 50       		.byte	0x50
 11040 074c 02       		.uleb128 0x2
 11041 074d 74       		.byte	0x74
 11042 074e 00       		.sleb128 0
 11043 074f 00       		.byte	0
 11044 0750 0F       		.uleb128 0xf
 11045 0751 98010000 		.4byte	.LVL118
 11046 0755 533D0000 		.4byte	0x3d53
 11047 0759 69070000 		.4byte	0x769
 11048 075d 10       		.uleb128 0x10
 11049 075e 01       		.uleb128 0x1
 11050 075f 51       		.byte	0x51
 11051 0760 01       		.uleb128 0x1
 11052 0761 3A       		.byte	0x3a
 11053 0762 10       		.uleb128 0x10
 11054 0763 01       		.uleb128 0x1
 11055 0764 50       		.byte	0x50
 11056 0765 02       		.uleb128 0x2
 11057 0766 74       		.byte	0x74
 11058 0767 00       		.sleb128 0
 11059 0768 00       		.byte	0
 11060 0769 0F       		.uleb128 0xf
 11061 076a AA010000 		.4byte	.LVL119
 11062 076e 533D0000 		.4byte	0x3d53
 11063 0772 7D070000 		.4byte	0x77d
 11064 0776 10       		.uleb128 0x10
 11065 0777 01       		.uleb128 0x1
 11066 0778 50       		.byte	0x50
 11067 0779 02       		.uleb128 0x2
 11068 077a 74       		.byte	0x74
 11069 077b 00       		.sleb128 0
 11070 077c 00       		.byte	0
 11071 077d 0F       		.uleb128 0xf
 11072 077e C2010000 		.4byte	.LVL120
 11073 0782 533D0000 		.4byte	0x3d53
 11074 0786 96070000 		.4byte	0x796
 11075 078a 10       		.uleb128 0x10
 11076 078b 01       		.uleb128 0x1
 11077 078c 51       		.byte	0x51
 11078 078d 01       		.uleb128 0x1
 11079 078e 3A       		.byte	0x3a
 11080 078f 10       		.uleb128 0x10
 11081 0790 01       		.uleb128 0x1
 11082 0791 50       		.byte	0x50
 11083 0792 02       		.uleb128 0x2
 11084 0793 74       		.byte	0x74
 11085 0794 00       		.sleb128 0
 11086 0795 00       		.byte	0
 11087 0796 0F       		.uleb128 0xf
 11088 0797 D6010000 		.4byte	.LVL121
 11089 079b 533D0000 		.4byte	0x3d53
 11090 079f AA070000 		.4byte	0x7aa
 11091 07a3 10       		.uleb128 0x10
ARM GAS  C:\Users\diego\AppData\Local\Temp\ccNdDNY6.s 			page 238


 11092 07a4 01       		.uleb128 0x1
 11093 07a5 50       		.byte	0x50
 11094 07a6 02       		.uleb128 0x2
 11095 07a7 74       		.byte	0x74
 11096 07a8 00       		.sleb128 0
 11097 07a9 00       		.byte	0
 11098 07aa 0F       		.uleb128 0xf
 11099 07ab EE010000 		.4byte	.LVL122
 11100 07af 533D0000 		.4byte	0x3d53
 11101 07b3 C3070000 		.4byte	0x7c3
 11102 07b7 10       		.uleb128 0x10
 11103 07b8 01       		.uleb128 0x1
 11104 07b9 51       		.byte	0x51
 11105 07ba 01       		.uleb128 0x1
 11106 07bb 3A       		.byte	0x3a
 11107 07bc 10       		.uleb128 0x10
 11108 07bd 01       		.uleb128 0x1
 11109 07be 50       		.byte	0x50
 11110 07bf 02       		.uleb128 0x2
 11111 07c0 74       		.byte	0x74
 11112 07c1 00       		.sleb128 0
 11113 07c2 00       		.byte	0
 11114 07c3 0F       		.uleb128 0xf
 11115 07c4 F6010000 		.4byte	.LVL123
 11116 07c8 6D3D0000 		.4byte	0x3d6d
 11117 07cc DC070000 		.4byte	0x7dc
 11118 07d0 10       		.uleb128 0x10
 11119 07d1 01       		.uleb128 0x1
 11120 07d2 51       		.byte	0x51
 11121 07d3 02       		.uleb128 0x2
 11122 07d4 74       		.byte	0x74
 11123 07d5 00       		.sleb128 0
 11124 07d6 10       		.uleb128 0x10
 11125 07d7 01       		.uleb128 0x1
 11126 07d8 50       		.byte	0x50
 11127 07d9 01       		.uleb128 0x1
 11128 07da 38       		.byte	0x38
 11129 07db 00       		.byte	0
 11130 07dc 0F       		.uleb128 0xf
 11131 07dd 0A020000 		.4byte	.LVL124
 11132 07e1 533D0000 		.4byte	0x3d53
 11133 07e5 F0070000 		.4byte	0x7f0
 11134 07e9 10       		.uleb128 0x10
 11135 07ea 01       		.uleb128 0x1
 11136 07eb 50       		.byte	0x50
 11137 07ec 02       		.uleb128 0x2
 11138 07ed 74       		.byte	0x74
 11139 07ee 00       		.sleb128 0
 11140 07ef 00       		.byte	0
 11141 07f0 0F       		.uleb128 0xf
 11142 07f1 22020000 		.4byte	.LVL125
 11143 07f5 533D0000 		.4byte	0x3d53
 11144 07f9 09080000 		.4byte	0x809
 11145 07fd 10       		.uleb128 0x10
 11146 07fe 01       		.uleb128 0x1
 11147 07ff 51       		.byte	0x51
 11148 0800 01       		.uleb128 0x1
ARM GAS  C:\Users\diego\AppData\Local\Temp\ccNdDNY6.s 			page 239


 11149 0801 3A       		.byte	0x3a
 11150 0802 10       		.uleb128 0x10
 11151 0803 01       		.uleb128 0x1
 11152 0804 50       		.byte	0x50
 11153 0805 02       		.uleb128 0x2
 11154 0806 74       		.byte	0x74
 11155 0807 00       		.sleb128 0
 11156 0808 00       		.byte	0
 11157 0809 0F       		.uleb128 0xf
 11158 080a 32020000 		.4byte	.LVL126
 11159 080e 833D0000 		.4byte	0x3d83
 11160 0812 22080000 		.4byte	0x822
 11161 0816 10       		.uleb128 0x10
 11162 0817 01       		.uleb128 0x1
 11163 0818 51       		.byte	0x51
 11164 0819 01       		.uleb128 0x1
 11165 081a 49       		.byte	0x49
 11166 081b 10       		.uleb128 0x10
 11167 081c 01       		.uleb128 0x1
 11168 081d 50       		.byte	0x50
 11169 081e 02       		.uleb128 0x2
 11170 081f 08       		.byte	0x8
 11171 0820 C0       		.byte	0xc0
 11172 0821 00       		.byte	0
 11173 0822 0F       		.uleb128 0xf
 11174 0823 3E020000 		.4byte	.LVL127
 11175 0827 833D0000 		.4byte	0x3d83
 11176 082b 3C080000 		.4byte	0x83c
 11177 082f 10       		.uleb128 0x10
 11178 0830 01       		.uleb128 0x1
 11179 0831 51       		.byte	0x51
 11180 0832 01       		.uleb128 0x1
 11181 0833 49       		.byte	0x49
 11182 0834 10       		.uleb128 0x10
 11183 0835 01       		.uleb128 0x1
 11184 0836 50       		.byte	0x50
 11185 0837 03       		.uleb128 0x3
 11186 0838 0A       		.byte	0xa
 11187 0839 1901     		.2byte	0x119
 11188 083b 00       		.byte	0
 11189 083c 0F       		.uleb128 0xf
 11190 083d 44020000 		.4byte	.LVL128
 11191 0841 9D3D0000 		.4byte	0x3d9d
 11192 0845 50080000 		.4byte	0x850
 11193 0849 10       		.uleb128 0x10
 11194 084a 01       		.uleb128 0x1
 11195 084b 50       		.byte	0x50
 11196 084c 02       		.uleb128 0x2
 11197 084d 74       		.byte	0x74
 11198 084e 00       		.sleb128 0
 11199 084f 00       		.byte	0
 11200 0850 0F       		.uleb128 0xf
 11201 0851 86020000 		.4byte	.LVL129
 11202 0855 AE3D0000 		.4byte	0x3dae
 11203 0859 70080000 		.4byte	0x870
 11204 085d 10       		.uleb128 0x10
 11205 085e 01       		.uleb128 0x1
ARM GAS  C:\Users\diego\AppData\Local\Temp\ccNdDNY6.s 			page 240


 11206 085f 52       		.byte	0x52
 11207 0860 03       		.uleb128 0x3
 11208 0861 91       		.byte	0x91
 11209 0862 B47F     		.sleb128 -76
 11210 0864 10       		.uleb128 0x10
 11211 0865 01       		.uleb128 0x1
 11212 0866 51       		.byte	0x51
 11213 0867 02       		.uleb128 0x2
 11214 0868 91       		.byte	0x91
 11215 0869 44       		.sleb128 -60
 11216 086a 10       		.uleb128 0x10
 11217 086b 01       		.uleb128 0x1
 11218 086c 50       		.byte	0x50
 11219 086d 01       		.uleb128 0x1
 11220 086e 32       		.byte	0x32
 11221 086f 00       		.byte	0
 11222 0870 0F       		.uleb128 0xf
 11223 0871 9C020000 		.4byte	.LVL130
 11224 0875 533D0000 		.4byte	0x3d53
 11225 0879 84080000 		.4byte	0x884
 11226 087d 10       		.uleb128 0x10
 11227 087e 01       		.uleb128 0x1
 11228 087f 50       		.byte	0x50
 11229 0880 02       		.uleb128 0x2
 11230 0881 74       		.byte	0x74
 11231 0882 00       		.sleb128 0
 11232 0883 00       		.byte	0
 11233 0884 0F       		.uleb128 0xf
 11234 0885 B4020000 		.4byte	.LVL131
 11235 0889 C93D0000 		.4byte	0x3dc9
 11236 088d A1080000 		.4byte	0x8a1
 11237 0891 10       		.uleb128 0x10
 11238 0892 01       		.uleb128 0x1
 11239 0893 51       		.byte	0x51
 11240 0894 02       		.uleb128 0x2
 11241 0895 74       		.byte	0x74
 11242 0896 00       		.sleb128 0
 11243 0897 10       		.uleb128 0x10
 11244 0898 01       		.uleb128 0x1
 11245 0899 50       		.byte	0x50
 11246 089a 05       		.uleb128 0x5
 11247 089b 03       		.byte	0x3
 11248 089c 00000000 		.4byte	resultado
 11249 08a0 00       		.byte	0
 11250 08a1 0F       		.uleb128 0xf
 11251 08a2 C4020000 		.4byte	.LVL132
 11252 08a6 393D0000 		.4byte	0x3d39
 11253 08aa BB080000 		.4byte	0x8bb
 11254 08ae 10       		.uleb128 0x10
 11255 08af 01       		.uleb128 0x1
 11256 08b0 51       		.byte	0x51
 11257 08b1 02       		.uleb128 0x2
 11258 08b2 91       		.byte	0x91
 11259 08b3 54       		.sleb128 -44
 11260 08b4 10       		.uleb128 0x10
 11261 08b5 01       		.uleb128 0x1
 11262 08b6 50       		.byte	0x50
ARM GAS  C:\Users\diego\AppData\Local\Temp\ccNdDNY6.s 			page 241


 11263 08b7 02       		.uleb128 0x2
 11264 08b8 08       		.byte	0x8
 11265 08b9 C0       		.byte	0xc0
 11266 08ba 00       		.byte	0
 11267 08bb 0F       		.uleb128 0xf
 11268 08bc CE020000 		.4byte	.LVL133
 11269 08c0 393D0000 		.4byte	0x3d39
 11270 08c4 D9080000 		.4byte	0x8d9
 11271 08c8 10       		.uleb128 0x10
 11272 08c9 01       		.uleb128 0x1
 11273 08ca 51       		.byte	0x51
 11274 08cb 05       		.uleb128 0x5
 11275 08cc 03       		.byte	0x3
 11276 08cd 00000000 		.4byte	resultado
 11277 08d1 10       		.uleb128 0x10
 11278 08d2 01       		.uleb128 0x1
 11279 08d3 50       		.byte	0x50
 11280 08d4 03       		.uleb128 0x3
 11281 08d5 0A       		.byte	0xa
 11282 08d6 0002     		.2byte	0x200
 11283 08d8 00       		.byte	0
 11284 08d9 0F       		.uleb128 0xf
 11285 08da 1A030000 		.4byte	.LVL134
 11286 08de 393D0000 		.4byte	0x3d39
 11287 08e2 F4080000 		.4byte	0x8f4
 11288 08e6 10       		.uleb128 0x10
 11289 08e7 01       		.uleb128 0x1
 11290 08e8 51       		.byte	0x51
 11291 08e9 02       		.uleb128 0x2
 11292 08ea 91       		.byte	0x91
 11293 08eb 54       		.sleb128 -44
 11294 08ec 10       		.uleb128 0x10
 11295 08ed 01       		.uleb128 0x1
 11296 08ee 50       		.byte	0x50
 11297 08ef 03       		.uleb128 0x3
 11298 08f0 0A       		.byte	0xa
 11299 08f1 1901     		.2byte	0x119
 11300 08f3 00       		.byte	0
 11301 08f4 0F       		.uleb128 0xf
 11302 08f5 24030000 		.4byte	.LVL135
 11303 08f9 393D0000 		.4byte	0x3d39
 11304 08fd 12090000 		.4byte	0x912
 11305 0901 10       		.uleb128 0x10
 11306 0902 01       		.uleb128 0x1
 11307 0903 51       		.byte	0x51
 11308 0904 05       		.uleb128 0x5
 11309 0905 03       		.byte	0x3
 11310 0906 00000000 		.4byte	resultado
 11311 090a 10       		.uleb128 0x10
 11312 090b 01       		.uleb128 0x1
 11313 090c 50       		.byte	0x50
 11314 090d 03       		.uleb128 0x3
 11315 090e 0A       		.byte	0xa
 11316 090f 2702     		.2byte	0x227
 11317 0911 00       		.byte	0
 11318 0912 0F       		.uleb128 0xf
 11319 0913 80030000 		.4byte	.LVL136
ARM GAS  C:\Users\diego\AppData\Local\Temp\ccNdDNY6.s 			page 242


 11320 0917 533D0000 		.4byte	0x3d53
 11321 091b 26090000 		.4byte	0x926
 11322 091f 10       		.uleb128 0x10
 11323 0920 01       		.uleb128 0x1
 11324 0921 50       		.byte	0x50
 11325 0922 02       		.uleb128 0x2
 11326 0923 74       		.byte	0x74
 11327 0924 00       		.sleb128 0
 11328 0925 00       		.byte	0
 11329 0926 0F       		.uleb128 0xf
 11330 0927 98030000 		.4byte	.LVL137
 11331 092b 533D0000 		.4byte	0x3d53
 11332 092f 3F090000 		.4byte	0x93f
 11333 0933 10       		.uleb128 0x10
 11334 0934 01       		.uleb128 0x1
 11335 0935 51       		.byte	0x51
 11336 0936 01       		.uleb128 0x1
 11337 0937 3A       		.byte	0x3a
 11338 0938 10       		.uleb128 0x10
 11339 0939 01       		.uleb128 0x1
 11340 093a 50       		.byte	0x50
 11341 093b 02       		.uleb128 0x2
 11342 093c 74       		.byte	0x74
 11343 093d 00       		.sleb128 0
 11344 093e 00       		.byte	0
 11345 093f 0F       		.uleb128 0xf
 11346 0940 AA030000 		.4byte	.LVL138
 11347 0944 533D0000 		.4byte	0x3d53
 11348 0948 53090000 		.4byte	0x953
 11349 094c 10       		.uleb128 0x10
 11350 094d 01       		.uleb128 0x1
 11351 094e 50       		.byte	0x50
 11352 094f 02       		.uleb128 0x2
 11353 0950 74       		.byte	0x74
 11354 0951 00       		.sleb128 0
 11355 0952 00       		.byte	0
 11356 0953 0F       		.uleb128 0xf
 11357 0954 C2030000 		.4byte	.LVL139
 11358 0958 533D0000 		.4byte	0x3d53
 11359 095c 6C090000 		.4byte	0x96c
 11360 0960 10       		.uleb128 0x10
 11361 0961 01       		.uleb128 0x1
 11362 0962 51       		.byte	0x51
 11363 0963 01       		.uleb128 0x1
 11364 0964 3A       		.byte	0x3a
 11365 0965 10       		.uleb128 0x10
 11366 0966 01       		.uleb128 0x1
 11367 0967 50       		.byte	0x50
 11368 0968 02       		.uleb128 0x2
 11369 0969 74       		.byte	0x74
 11370 096a 00       		.sleb128 0
 11371 096b 00       		.byte	0
 11372 096c 0F       		.uleb128 0xf
 11373 096d D6030000 		.4byte	.LVL140
 11374 0971 533D0000 		.4byte	0x3d53
 11375 0975 80090000 		.4byte	0x980
 11376 0979 10       		.uleb128 0x10
ARM GAS  C:\Users\diego\AppData\Local\Temp\ccNdDNY6.s 			page 243


 11377 097a 01       		.uleb128 0x1
 11378 097b 50       		.byte	0x50
 11379 097c 02       		.uleb128 0x2
 11380 097d 74       		.byte	0x74
 11381 097e 00       		.sleb128 0
 11382 097f 00       		.byte	0
 11383 0980 0F       		.uleb128 0xf
 11384 0981 EE030000 		.4byte	.LVL141
 11385 0985 533D0000 		.4byte	0x3d53
 11386 0989 99090000 		.4byte	0x999
 11387 098d 10       		.uleb128 0x10
 11388 098e 01       		.uleb128 0x1
 11389 098f 51       		.byte	0x51
 11390 0990 01       		.uleb128 0x1
 11391 0991 3A       		.byte	0x3a
 11392 0992 10       		.uleb128 0x10
 11393 0993 01       		.uleb128 0x1
 11394 0994 50       		.byte	0x50
 11395 0995 02       		.uleb128 0x2
 11396 0996 74       		.byte	0x74
 11397 0997 00       		.sleb128 0
 11398 0998 00       		.byte	0
 11399 0999 0F       		.uleb128 0xf
 11400 099a F6030000 		.4byte	.LVL142
 11401 099e 6D3D0000 		.4byte	0x3d6d
 11402 09a2 B2090000 		.4byte	0x9b2
 11403 09a6 10       		.uleb128 0x10
 11404 09a7 01       		.uleb128 0x1
 11405 09a8 51       		.byte	0x51
 11406 09a9 02       		.uleb128 0x2
 11407 09aa 74       		.byte	0x74
 11408 09ab 00       		.sleb128 0
 11409 09ac 10       		.uleb128 0x10
 11410 09ad 01       		.uleb128 0x1
 11411 09ae 50       		.byte	0x50
 11412 09af 01       		.uleb128 0x1
 11413 09b0 38       		.byte	0x38
 11414 09b1 00       		.byte	0
 11415 09b2 0F       		.uleb128 0xf
 11416 09b3 0A040000 		.4byte	.LVL143
 11417 09b7 533D0000 		.4byte	0x3d53
 11418 09bb C6090000 		.4byte	0x9c6
 11419 09bf 10       		.uleb128 0x10
 11420 09c0 01       		.uleb128 0x1
 11421 09c1 50       		.byte	0x50
 11422 09c2 02       		.uleb128 0x2
 11423 09c3 74       		.byte	0x74
 11424 09c4 00       		.sleb128 0
 11425 09c5 00       		.byte	0
 11426 09c6 0F       		.uleb128 0xf
 11427 09c7 22040000 		.4byte	.LVL144
 11428 09cb 533D0000 		.4byte	0x3d53
 11429 09cf DF090000 		.4byte	0x9df
 11430 09d3 10       		.uleb128 0x10
 11431 09d4 01       		.uleb128 0x1
 11432 09d5 51       		.byte	0x51
 11433 09d6 01       		.uleb128 0x1
ARM GAS  C:\Users\diego\AppData\Local\Temp\ccNdDNY6.s 			page 244


 11434 09d7 3A       		.byte	0x3a
 11435 09d8 10       		.uleb128 0x10
 11436 09d9 01       		.uleb128 0x1
 11437 09da 50       		.byte	0x50
 11438 09db 02       		.uleb128 0x2
 11439 09dc 74       		.byte	0x74
 11440 09dd 00       		.sleb128 0
 11441 09de 00       		.byte	0
 11442 09df 0F       		.uleb128 0xf
 11443 09e0 32040000 		.4byte	.LVL145
 11444 09e4 833D0000 		.4byte	0x3d83
 11445 09e8 F8090000 		.4byte	0x9f8
 11446 09ec 10       		.uleb128 0x10
 11447 09ed 01       		.uleb128 0x1
 11448 09ee 51       		.byte	0x51
 11449 09ef 01       		.uleb128 0x1
 11450 09f0 49       		.byte	0x49
 11451 09f1 10       		.uleb128 0x10
 11452 09f2 01       		.uleb128 0x1
 11453 09f3 50       		.byte	0x50
 11454 09f4 02       		.uleb128 0x2
 11455 09f5 08       		.byte	0x8
 11456 09f6 D9       		.byte	0xd9
 11457 09f7 00       		.byte	0
 11458 09f8 0F       		.uleb128 0xf
 11459 09f9 3E040000 		.4byte	.LVL146
 11460 09fd 833D0000 		.4byte	0x3d83
 11461 0a01 120A0000 		.4byte	0xa12
 11462 0a05 10       		.uleb128 0x10
 11463 0a06 01       		.uleb128 0x1
 11464 0a07 51       		.byte	0x51
 11465 0a08 01       		.uleb128 0x1
 11466 0a09 49       		.byte	0x49
 11467 0a0a 10       		.uleb128 0x10
 11468 0a0b 01       		.uleb128 0x1
 11469 0a0c 50       		.byte	0x50
 11470 0a0d 03       		.uleb128 0x3
 11471 0a0e 0A       		.byte	0xa
 11472 0a0f 4001     		.2byte	0x140
 11473 0a11 00       		.byte	0
 11474 0a12 0F       		.uleb128 0xf
 11475 0a13 44040000 		.4byte	.LVL147
 11476 0a17 9D3D0000 		.4byte	0x3d9d
 11477 0a1b 260A0000 		.4byte	0xa26
 11478 0a1f 10       		.uleb128 0x10
 11479 0a20 01       		.uleb128 0x1
 11480 0a21 50       		.byte	0x50
 11481 0a22 02       		.uleb128 0x2
 11482 0a23 74       		.byte	0x74
 11483 0a24 00       		.sleb128 0
 11484 0a25 00       		.byte	0
 11485 0a26 0F       		.uleb128 0xf
 11486 0a27 86040000 		.4byte	.LVL148
 11487 0a2b AE3D0000 		.4byte	0x3dae
 11488 0a2f 460A0000 		.4byte	0xa46
 11489 0a33 10       		.uleb128 0x10
 11490 0a34 01       		.uleb128 0x1
ARM GAS  C:\Users\diego\AppData\Local\Temp\ccNdDNY6.s 			page 245


 11491 0a35 52       		.byte	0x52
 11492 0a36 03       		.uleb128 0x3
 11493 0a37 91       		.byte	0x91
 11494 0a38 B47F     		.sleb128 -76
 11495 0a3a 10       		.uleb128 0x10
 11496 0a3b 01       		.uleb128 0x1
 11497 0a3c 51       		.byte	0x51
 11498 0a3d 02       		.uleb128 0x2
 11499 0a3e 91       		.byte	0x91
 11500 0a3f 44       		.sleb128 -60
 11501 0a40 10       		.uleb128 0x10
 11502 0a41 01       		.uleb128 0x1
 11503 0a42 50       		.byte	0x50
 11504 0a43 01       		.uleb128 0x1
 11505 0a44 32       		.byte	0x32
 11506 0a45 00       		.byte	0
 11507 0a46 0F       		.uleb128 0xf
 11508 0a47 9C040000 		.4byte	.LVL149
 11509 0a4b 533D0000 		.4byte	0x3d53
 11510 0a4f 5A0A0000 		.4byte	0xa5a
 11511 0a53 10       		.uleb128 0x10
 11512 0a54 01       		.uleb128 0x1
 11513 0a55 50       		.byte	0x50
 11514 0a56 02       		.uleb128 0x2
 11515 0a57 74       		.byte	0x74
 11516 0a58 00       		.sleb128 0
 11517 0a59 00       		.byte	0
 11518 0a5a 0F       		.uleb128 0xf
 11519 0a5b B4040000 		.4byte	.LVL150
 11520 0a5f C93D0000 		.4byte	0x3dc9
 11521 0a63 770A0000 		.4byte	0xa77
 11522 0a67 10       		.uleb128 0x10
 11523 0a68 01       		.uleb128 0x1
 11524 0a69 51       		.byte	0x51
 11525 0a6a 02       		.uleb128 0x2
 11526 0a6b 74       		.byte	0x74
 11527 0a6c 00       		.sleb128 0
 11528 0a6d 10       		.uleb128 0x10
 11529 0a6e 01       		.uleb128 0x1
 11530 0a6f 50       		.byte	0x50
 11531 0a70 05       		.uleb128 0x5
 11532 0a71 03       		.byte	0x3
 11533 0a72 00000000 		.4byte	resultado
 11534 0a76 00       		.byte	0
 11535 0a77 0F       		.uleb128 0xf
 11536 0a78 C4040000 		.4byte	.LVL151
 11537 0a7c 393D0000 		.4byte	0x3d39
 11538 0a80 910A0000 		.4byte	0xa91
 11539 0a84 10       		.uleb128 0x10
 11540 0a85 01       		.uleb128 0x1
 11541 0a86 51       		.byte	0x51
 11542 0a87 02       		.uleb128 0x2
 11543 0a88 91       		.byte	0x91
 11544 0a89 54       		.sleb128 -44
 11545 0a8a 10       		.uleb128 0x10
 11546 0a8b 01       		.uleb128 0x1
 11547 0a8c 50       		.byte	0x50
ARM GAS  C:\Users\diego\AppData\Local\Temp\ccNdDNY6.s 			page 246


 11548 0a8d 02       		.uleb128 0x2
 11549 0a8e 08       		.byte	0x8
 11550 0a8f D9       		.byte	0xd9
 11551 0a90 00       		.byte	0
 11552 0a91 0F       		.uleb128 0xf
 11553 0a92 CE040000 		.4byte	.LVL152
 11554 0a96 393D0000 		.4byte	0x3d39
 11555 0a9a AF0A0000 		.4byte	0xaaf
 11556 0a9e 10       		.uleb128 0x10
 11557 0a9f 01       		.uleb128 0x1
 11558 0aa0 51       		.byte	0x51
 11559 0aa1 05       		.uleb128 0x5
 11560 0aa2 03       		.byte	0x3
 11561 0aa3 00000000 		.4byte	resultado
 11562 0aa7 10       		.uleb128 0x10
 11563 0aa8 01       		.uleb128 0x1
 11564 0aa9 50       		.byte	0x50
 11565 0aaa 03       		.uleb128 0x3
 11566 0aab 0A       		.byte	0xa
 11567 0aac 1A02     		.2byte	0x21a
 11568 0aae 00       		.byte	0
 11569 0aaf 0F       		.uleb128 0xf
 11570 0ab0 DA040000 		.4byte	.LVL153
 11571 0ab4 393D0000 		.4byte	0x3d39
 11572 0ab8 CA0A0000 		.4byte	0xaca
 11573 0abc 10       		.uleb128 0x10
 11574 0abd 01       		.uleb128 0x1
 11575 0abe 51       		.byte	0x51
 11576 0abf 02       		.uleb128 0x2
 11577 0ac0 91       		.byte	0x91
 11578 0ac1 54       		.sleb128 -44
 11579 0ac2 10       		.uleb128 0x10
 11580 0ac3 01       		.uleb128 0x1
 11581 0ac4 50       		.byte	0x50
 11582 0ac5 03       		.uleb128 0x3
 11583 0ac6 0A       		.byte	0xa
 11584 0ac7 4001     		.2byte	0x140
 11585 0ac9 00       		.byte	0
 11586 0aca 0F       		.uleb128 0xf
 11587 0acb E4040000 		.4byte	.LVL154
 11588 0acf 393D0000 		.4byte	0x3d39
 11589 0ad3 E80A0000 		.4byte	0xae8
 11590 0ad7 10       		.uleb128 0x10
 11591 0ad8 01       		.uleb128 0x1
 11592 0ad9 51       		.byte	0x51
 11593 0ada 05       		.uleb128 0x5
 11594 0adb 03       		.byte	0x3
 11595 0adc 00000000 		.4byte	resultado
 11596 0ae0 10       		.uleb128 0x10
 11597 0ae1 01       		.uleb128 0x1
 11598 0ae2 50       		.byte	0x50
 11599 0ae3 03       		.uleb128 0x3
 11600 0ae4 0A       		.byte	0xa
 11601 0ae5 4002     		.2byte	0x240
 11602 0ae7 00       		.byte	0
 11603 0ae8 0F       		.uleb128 0xf
 11604 0ae9 28050000 		.4byte	.LVL155
ARM GAS  C:\Users\diego\AppData\Local\Temp\ccNdDNY6.s 			page 247


 11605 0aed 533D0000 		.4byte	0x3d53
 11606 0af1 FC0A0000 		.4byte	0xafc
 11607 0af5 10       		.uleb128 0x10
 11608 0af6 01       		.uleb128 0x1
 11609 0af7 50       		.byte	0x50
 11610 0af8 02       		.uleb128 0x2
 11611 0af9 74       		.byte	0x74
 11612 0afa 00       		.sleb128 0
 11613 0afb 00       		.byte	0
 11614 0afc 0F       		.uleb128 0xf
 11615 0afd 40050000 		.4byte	.LVL156
 11616 0b01 533D0000 		.4byte	0x3d53
 11617 0b05 150B0000 		.4byte	0xb15
 11618 0b09 10       		.uleb128 0x10
 11619 0b0a 01       		.uleb128 0x1
 11620 0b0b 51       		.byte	0x51
 11621 0b0c 01       		.uleb128 0x1
 11622 0b0d 3A       		.byte	0x3a
 11623 0b0e 10       		.uleb128 0x10
 11624 0b0f 01       		.uleb128 0x1
 11625 0b10 50       		.byte	0x50
 11626 0b11 02       		.uleb128 0x2
 11627 0b12 74       		.byte	0x74
 11628 0b13 00       		.sleb128 0
 11629 0b14 00       		.byte	0
 11630 0b15 0F       		.uleb128 0xf
 11631 0b16 52050000 		.4byte	.LVL157
 11632 0b1a 533D0000 		.4byte	0x3d53
 11633 0b1e 290B0000 		.4byte	0xb29
 11634 0b22 10       		.uleb128 0x10
 11635 0b23 01       		.uleb128 0x1
 11636 0b24 50       		.byte	0x50
 11637 0b25 02       		.uleb128 0x2
 11638 0b26 74       		.byte	0x74
 11639 0b27 00       		.sleb128 0
 11640 0b28 00       		.byte	0
 11641 0b29 0F       		.uleb128 0xf
 11642 0b2a 6A050000 		.4byte	.LVL158
 11643 0b2e 533D0000 		.4byte	0x3d53
 11644 0b32 420B0000 		.4byte	0xb42
 11645 0b36 10       		.uleb128 0x10
 11646 0b37 01       		.uleb128 0x1
 11647 0b38 51       		.byte	0x51
 11648 0b39 01       		.uleb128 0x1
 11649 0b3a 3A       		.byte	0x3a
 11650 0b3b 10       		.uleb128 0x10
 11651 0b3c 01       		.uleb128 0x1
 11652 0b3d 50       		.byte	0x50
 11653 0b3e 02       		.uleb128 0x2
 11654 0b3f 74       		.byte	0x74
 11655 0b40 00       		.sleb128 0
 11656 0b41 00       		.byte	0
 11657 0b42 0F       		.uleb128 0xf
 11658 0b43 7E050000 		.4byte	.LVL159
 11659 0b47 533D0000 		.4byte	0x3d53
 11660 0b4b 560B0000 		.4byte	0xb56
 11661 0b4f 10       		.uleb128 0x10
ARM GAS  C:\Users\diego\AppData\Local\Temp\ccNdDNY6.s 			page 248


 11662 0b50 01       		.uleb128 0x1
 11663 0b51 50       		.byte	0x50
 11664 0b52 02       		.uleb128 0x2
 11665 0b53 74       		.byte	0x74
 11666 0b54 00       		.sleb128 0
 11667 0b55 00       		.byte	0
 11668 0b56 0F       		.uleb128 0xf
 11669 0b57 96050000 		.4byte	.LVL160
 11670 0b5b 533D0000 		.4byte	0x3d53
 11671 0b5f 6F0B0000 		.4byte	0xb6f
 11672 0b63 10       		.uleb128 0x10
 11673 0b64 01       		.uleb128 0x1
 11674 0b65 51       		.byte	0x51
 11675 0b66 01       		.uleb128 0x1
 11676 0b67 3A       		.byte	0x3a
 11677 0b68 10       		.uleb128 0x10
 11678 0b69 01       		.uleb128 0x1
 11679 0b6a 50       		.byte	0x50
 11680 0b6b 02       		.uleb128 0x2
 11681 0b6c 74       		.byte	0x74
 11682 0b6d 00       		.sleb128 0
 11683 0b6e 00       		.byte	0
 11684 0b6f 0F       		.uleb128 0xf
 11685 0b70 9E050000 		.4byte	.LVL161
 11686 0b74 6D3D0000 		.4byte	0x3d6d
 11687 0b78 880B0000 		.4byte	0xb88
 11688 0b7c 10       		.uleb128 0x10
 11689 0b7d 01       		.uleb128 0x1
 11690 0b7e 51       		.byte	0x51
 11691 0b7f 02       		.uleb128 0x2
 11692 0b80 74       		.byte	0x74
 11693 0b81 00       		.sleb128 0
 11694 0b82 10       		.uleb128 0x10
 11695 0b83 01       		.uleb128 0x1
 11696 0b84 50       		.byte	0x50
 11697 0b85 01       		.uleb128 0x1
 11698 0b86 38       		.byte	0x38
 11699 0b87 00       		.byte	0
 11700 0b88 0F       		.uleb128 0xf
 11701 0b89 F8050000 		.4byte	.LVL162
 11702 0b8d 533D0000 		.4byte	0x3d53
 11703 0b91 9C0B0000 		.4byte	0xb9c
 11704 0b95 10       		.uleb128 0x10
 11705 0b96 01       		.uleb128 0x1
 11706 0b97 50       		.byte	0x50
 11707 0b98 02       		.uleb128 0x2
 11708 0b99 74       		.byte	0x74
 11709 0b9a 00       		.sleb128 0
 11710 0b9b 00       		.byte	0
 11711 0b9c 0F       		.uleb128 0xf
 11712 0b9d 10060000 		.4byte	.LVL163
 11713 0ba1 533D0000 		.4byte	0x3d53
 11714 0ba5 B50B0000 		.4byte	0xbb5
 11715 0ba9 10       		.uleb128 0x10
 11716 0baa 01       		.uleb128 0x1
 11717 0bab 51       		.byte	0x51
 11718 0bac 01       		.uleb128 0x1
ARM GAS  C:\Users\diego\AppData\Local\Temp\ccNdDNY6.s 			page 249


 11719 0bad 3A       		.byte	0x3a
 11720 0bae 10       		.uleb128 0x10
 11721 0baf 01       		.uleb128 0x1
 11722 0bb0 50       		.byte	0x50
 11723 0bb1 02       		.uleb128 0x2
 11724 0bb2 74       		.byte	0x74
 11725 0bb3 00       		.sleb128 0
 11726 0bb4 00       		.byte	0
 11727 0bb5 0F       		.uleb128 0xf
 11728 0bb6 22060000 		.4byte	.LVL164
 11729 0bba 833D0000 		.4byte	0x3d83
 11730 0bbe CF0B0000 		.4byte	0xbcf
 11731 0bc2 10       		.uleb128 0x10
 11732 0bc3 01       		.uleb128 0x1
 11733 0bc4 51       		.byte	0x51
 11734 0bc5 01       		.uleb128 0x1
 11735 0bc6 49       		.byte	0x49
 11736 0bc7 10       		.uleb128 0x10
 11737 0bc8 01       		.uleb128 0x1
 11738 0bc9 50       		.byte	0x50
 11739 0bca 03       		.uleb128 0x3
 11740 0bcb 0A       		.byte	0xa
 11741 0bcc 0001     		.2byte	0x100
 11742 0bce 00       		.byte	0
 11743 0bcf 0F       		.uleb128 0xf
 11744 0bd0 2E060000 		.4byte	.LVL165
 11745 0bd4 833D0000 		.4byte	0x3d83
 11746 0bd8 E90B0000 		.4byte	0xbe9
 11747 0bdc 10       		.uleb128 0x10
 11748 0bdd 01       		.uleb128 0x1
 11749 0bde 51       		.byte	0x51
 11750 0bdf 01       		.uleb128 0x1
 11751 0be0 49       		.byte	0x49
 11752 0be1 10       		.uleb128 0x10
 11753 0be2 01       		.uleb128 0x1
 11754 0be3 50       		.byte	0x50
 11755 0be4 03       		.uleb128 0x3
 11756 0be5 0A       		.byte	0xa
 11757 0be6 5901     		.2byte	0x159
 11758 0be8 00       		.byte	0
 11759 0be9 0F       		.uleb128 0xf
 11760 0bea 34060000 		.4byte	.LVL166
 11761 0bee 9D3D0000 		.4byte	0x3d9d
 11762 0bf2 FD0B0000 		.4byte	0xbfd
 11763 0bf6 10       		.uleb128 0x10
 11764 0bf7 01       		.uleb128 0x1
 11765 0bf8 50       		.byte	0x50
 11766 0bf9 02       		.uleb128 0x2
 11767 0bfa 74       		.byte	0x74
 11768 0bfb 00       		.sleb128 0
 11769 0bfc 00       		.byte	0
 11770 0bfd 0F       		.uleb128 0xf
 11771 0bfe 76060000 		.4byte	.LVL167
 11772 0c02 AE3D0000 		.4byte	0x3dae
 11773 0c06 1D0C0000 		.4byte	0xc1d
 11774 0c0a 10       		.uleb128 0x10
 11775 0c0b 01       		.uleb128 0x1
ARM GAS  C:\Users\diego\AppData\Local\Temp\ccNdDNY6.s 			page 250


 11776 0c0c 52       		.byte	0x52
 11777 0c0d 03       		.uleb128 0x3
 11778 0c0e 91       		.byte	0x91
 11779 0c0f B47F     		.sleb128 -76
 11780 0c11 10       		.uleb128 0x10
 11781 0c12 01       		.uleb128 0x1
 11782 0c13 51       		.byte	0x51
 11783 0c14 02       		.uleb128 0x2
 11784 0c15 91       		.byte	0x91
 11785 0c16 44       		.sleb128 -60
 11786 0c17 10       		.uleb128 0x10
 11787 0c18 01       		.uleb128 0x1
 11788 0c19 50       		.byte	0x50
 11789 0c1a 01       		.uleb128 0x1
 11790 0c1b 32       		.byte	0x32
 11791 0c1c 00       		.byte	0
 11792 0c1d 0F       		.uleb128 0xf
 11793 0c1e 8C060000 		.4byte	.LVL168
 11794 0c22 533D0000 		.4byte	0x3d53
 11795 0c26 310C0000 		.4byte	0xc31
 11796 0c2a 10       		.uleb128 0x10
 11797 0c2b 01       		.uleb128 0x1
 11798 0c2c 50       		.byte	0x50
 11799 0c2d 02       		.uleb128 0x2
 11800 0c2e 74       		.byte	0x74
 11801 0c2f 00       		.sleb128 0
 11802 0c30 00       		.byte	0
 11803 0c31 0F       		.uleb128 0xf
 11804 0c32 A4060000 		.4byte	.LVL169
 11805 0c36 C93D0000 		.4byte	0x3dc9
 11806 0c3a 4E0C0000 		.4byte	0xc4e
 11807 0c3e 10       		.uleb128 0x10
 11808 0c3f 01       		.uleb128 0x1
 11809 0c40 51       		.byte	0x51
 11810 0c41 02       		.uleb128 0x2
 11811 0c42 74       		.byte	0x74
 11812 0c43 00       		.sleb128 0
 11813 0c44 10       		.uleb128 0x10
 11814 0c45 01       		.uleb128 0x1
 11815 0c46 50       		.byte	0x50
 11816 0c47 05       		.uleb128 0x5
 11817 0c48 03       		.byte	0x3
 11818 0c49 00000000 		.4byte	resultado
 11819 0c4d 00       		.byte	0
 11820 0c4e 0F       		.uleb128 0xf
 11821 0c4f B6060000 		.4byte	.LVL170
 11822 0c53 393D0000 		.4byte	0x3d39
 11823 0c57 690C0000 		.4byte	0xc69
 11824 0c5b 10       		.uleb128 0x10
 11825 0c5c 01       		.uleb128 0x1
 11826 0c5d 51       		.byte	0x51
 11827 0c5e 02       		.uleb128 0x2
 11828 0c5f 91       		.byte	0x91
 11829 0c60 54       		.sleb128 -44
 11830 0c61 10       		.uleb128 0x10
 11831 0c62 01       		.uleb128 0x1
 11832 0c63 50       		.byte	0x50
ARM GAS  C:\Users\diego\AppData\Local\Temp\ccNdDNY6.s 			page 251


 11833 0c64 03       		.uleb128 0x3
 11834 0c65 0A       		.byte	0xa
 11835 0c66 0001     		.2byte	0x100
 11836 0c68 00       		.byte	0
 11837 0c69 0F       		.uleb128 0xf
 11838 0c6a C0060000 		.4byte	.LVL171
 11839 0c6e 393D0000 		.4byte	0x3d39
 11840 0c72 870C0000 		.4byte	0xc87
 11841 0c76 10       		.uleb128 0x10
 11842 0c77 01       		.uleb128 0x1
 11843 0c78 51       		.byte	0x51
 11844 0c79 05       		.uleb128 0x5
 11845 0c7a 03       		.byte	0x3
 11846 0c7b 00000000 		.4byte	resultado
 11847 0c7f 10       		.uleb128 0x10
 11848 0c80 01       		.uleb128 0x1
 11849 0c81 50       		.byte	0x50
 11850 0c82 03       		.uleb128 0x3
 11851 0c83 0A       		.byte	0xa
 11852 0c84 0D02     		.2byte	0x20d
 11853 0c86 00       		.byte	0
 11854 0c87 0F       		.uleb128 0xf
 11855 0c88 CC060000 		.4byte	.LVL172
 11856 0c8c 393D0000 		.4byte	0x3d39
 11857 0c90 A20C0000 		.4byte	0xca2
 11858 0c94 10       		.uleb128 0x10
 11859 0c95 01       		.uleb128 0x1
 11860 0c96 51       		.byte	0x51
 11861 0c97 02       		.uleb128 0x2
 11862 0c98 91       		.byte	0x91
 11863 0c99 54       		.sleb128 -44
 11864 0c9a 10       		.uleb128 0x10
 11865 0c9b 01       		.uleb128 0x1
 11866 0c9c 50       		.byte	0x50
 11867 0c9d 03       		.uleb128 0x3
 11868 0c9e 0A       		.byte	0xa
 11869 0c9f 5901     		.2byte	0x159
 11870 0ca1 00       		.byte	0
 11871 0ca2 0F       		.uleb128 0xf
 11872 0ca3 D6060000 		.4byte	.LVL173
 11873 0ca7 393D0000 		.4byte	0x3d39
 11874 0cab C00C0000 		.4byte	0xcc0
 11875 0caf 10       		.uleb128 0x10
 11876 0cb0 01       		.uleb128 0x1
 11877 0cb1 51       		.byte	0x51
 11878 0cb2 05       		.uleb128 0x5
 11879 0cb3 03       		.byte	0x3
 11880 0cb4 00000000 		.4byte	resultado
 11881 0cb8 10       		.uleb128 0x10
 11882 0cb9 01       		.uleb128 0x1
 11883 0cba 50       		.byte	0x50
 11884 0cbb 03       		.uleb128 0x3
 11885 0cbc 0A       		.byte	0xa
 11886 0cbd 4D02     		.2byte	0x24d
 11887 0cbf 00       		.byte	0
 11888 0cc0 0F       		.uleb128 0xf
 11889 0cc1 1A070000 		.4byte	.LVL174
ARM GAS  C:\Users\diego\AppData\Local\Temp\ccNdDNY6.s 			page 252


 11890 0cc5 533D0000 		.4byte	0x3d53
 11891 0cc9 D40C0000 		.4byte	0xcd4
 11892 0ccd 10       		.uleb128 0x10
 11893 0cce 01       		.uleb128 0x1
 11894 0ccf 50       		.byte	0x50
 11895 0cd0 02       		.uleb128 0x2
 11896 0cd1 74       		.byte	0x74
 11897 0cd2 00       		.sleb128 0
 11898 0cd3 00       		.byte	0
 11899 0cd4 0F       		.uleb128 0xf
 11900 0cd5 32070000 		.4byte	.LVL175
 11901 0cd9 533D0000 		.4byte	0x3d53
 11902 0cdd ED0C0000 		.4byte	0xced
 11903 0ce1 10       		.uleb128 0x10
 11904 0ce2 01       		.uleb128 0x1
 11905 0ce3 51       		.byte	0x51
 11906 0ce4 01       		.uleb128 0x1
 11907 0ce5 3A       		.byte	0x3a
 11908 0ce6 10       		.uleb128 0x10
 11909 0ce7 01       		.uleb128 0x1
 11910 0ce8 50       		.byte	0x50
 11911 0ce9 02       		.uleb128 0x2
 11912 0cea 74       		.byte	0x74
 11913 0ceb 00       		.sleb128 0
 11914 0cec 00       		.byte	0
 11915 0ced 0F       		.uleb128 0xf
 11916 0cee 44070000 		.4byte	.LVL176
 11917 0cf2 533D0000 		.4byte	0x3d53
 11918 0cf6 010D0000 		.4byte	0xd01
 11919 0cfa 10       		.uleb128 0x10
 11920 0cfb 01       		.uleb128 0x1
 11921 0cfc 50       		.byte	0x50
 11922 0cfd 02       		.uleb128 0x2
 11923 0cfe 74       		.byte	0x74
 11924 0cff 00       		.sleb128 0
 11925 0d00 00       		.byte	0
 11926 0d01 0F       		.uleb128 0xf
 11927 0d02 5C070000 		.4byte	.LVL177
 11928 0d06 533D0000 		.4byte	0x3d53
 11929 0d0a 1A0D0000 		.4byte	0xd1a
 11930 0d0e 10       		.uleb128 0x10
 11931 0d0f 01       		.uleb128 0x1
 11932 0d10 51       		.byte	0x51
 11933 0d11 01       		.uleb128 0x1
 11934 0d12 3A       		.byte	0x3a
 11935 0d13 10       		.uleb128 0x10
 11936 0d14 01       		.uleb128 0x1
 11937 0d15 50       		.byte	0x50
 11938 0d16 02       		.uleb128 0x2
 11939 0d17 74       		.byte	0x74
 11940 0d18 00       		.sleb128 0
 11941 0d19 00       		.byte	0
 11942 0d1a 0F       		.uleb128 0xf
 11943 0d1b 70070000 		.4byte	.LVL178
 11944 0d1f 533D0000 		.4byte	0x3d53
 11945 0d23 2E0D0000 		.4byte	0xd2e
 11946 0d27 10       		.uleb128 0x10
ARM GAS  C:\Users\diego\AppData\Local\Temp\ccNdDNY6.s 			page 253


 11947 0d28 01       		.uleb128 0x1
 11948 0d29 50       		.byte	0x50
 11949 0d2a 02       		.uleb128 0x2
 11950 0d2b 74       		.byte	0x74
 11951 0d2c 00       		.sleb128 0
 11952 0d2d 00       		.byte	0
 11953 0d2e 0F       		.uleb128 0xf
 11954 0d2f 88070000 		.4byte	.LVL179
 11955 0d33 533D0000 		.4byte	0x3d53
 11956 0d37 470D0000 		.4byte	0xd47
 11957 0d3b 10       		.uleb128 0x10
 11958 0d3c 01       		.uleb128 0x1
 11959 0d3d 51       		.byte	0x51
 11960 0d3e 01       		.uleb128 0x1
 11961 0d3f 3A       		.byte	0x3a
 11962 0d40 10       		.uleb128 0x10
 11963 0d41 01       		.uleb128 0x1
 11964 0d42 50       		.byte	0x50
 11965 0d43 02       		.uleb128 0x2
 11966 0d44 74       		.byte	0x74
 11967 0d45 00       		.sleb128 0
 11968 0d46 00       		.byte	0
 11969 0d47 0F       		.uleb128 0xf
 11970 0d48 90070000 		.4byte	.LVL180
 11971 0d4c 6D3D0000 		.4byte	0x3d6d
 11972 0d50 600D0000 		.4byte	0xd60
 11973 0d54 10       		.uleb128 0x10
 11974 0d55 01       		.uleb128 0x1
 11975 0d56 51       		.byte	0x51
 11976 0d57 02       		.uleb128 0x2
 11977 0d58 74       		.byte	0x74
 11978 0d59 00       		.sleb128 0
 11979 0d5a 10       		.uleb128 0x10
 11980 0d5b 01       		.uleb128 0x1
 11981 0d5c 50       		.byte	0x50
 11982 0d5d 01       		.uleb128 0x1
 11983 0d5e 38       		.byte	0x38
 11984 0d5f 00       		.byte	0
 11985 0d60 0F       		.uleb128 0xf
 11986 0d61 A4070000 		.4byte	.LVL181
 11987 0d65 533D0000 		.4byte	0x3d53
 11988 0d69 740D0000 		.4byte	0xd74
 11989 0d6d 10       		.uleb128 0x10
 11990 0d6e 01       		.uleb128 0x1
 11991 0d6f 50       		.byte	0x50
 11992 0d70 02       		.uleb128 0x2
 11993 0d71 74       		.byte	0x74
 11994 0d72 00       		.sleb128 0
 11995 0d73 00       		.byte	0
 11996 0d74 0F       		.uleb128 0xf
 11997 0d75 BC070000 		.4byte	.LVL182
 11998 0d79 533D0000 		.4byte	0x3d53
 11999 0d7d 8D0D0000 		.4byte	0xd8d
 12000 0d81 10       		.uleb128 0x10
 12001 0d82 01       		.uleb128 0x1
 12002 0d83 51       		.byte	0x51
 12003 0d84 01       		.uleb128 0x1
ARM GAS  C:\Users\diego\AppData\Local\Temp\ccNdDNY6.s 			page 254


 12004 0d85 3A       		.byte	0x3a
 12005 0d86 10       		.uleb128 0x10
 12006 0d87 01       		.uleb128 0x1
 12007 0d88 50       		.byte	0x50
 12008 0d89 02       		.uleb128 0x2
 12009 0d8a 74       		.byte	0x74
 12010 0d8b 00       		.sleb128 0
 12011 0d8c 00       		.byte	0
 12012 0d8d 0F       		.uleb128 0xf
 12013 0d8e CE070000 		.4byte	.LVL183
 12014 0d92 833D0000 		.4byte	0x3d83
 12015 0d96 A70D0000 		.4byte	0xda7
 12016 0d9a 10       		.uleb128 0x10
 12017 0d9b 01       		.uleb128 0x1
 12018 0d9c 51       		.byte	0x51
 12019 0d9d 01       		.uleb128 0x1
 12020 0d9e 49       		.byte	0x49
 12021 0d9f 10       		.uleb128 0x10
 12022 0da0 01       		.uleb128 0x1
 12023 0da1 50       		.byte	0x50
 12024 0da2 03       		.uleb128 0x3
 12025 0da3 0A       		.byte	0xa
 12026 0da4 4804     		.2byte	0x448
 12027 0da6 00       		.byte	0
 12028 0da7 0F       		.uleb128 0xf
 12029 0da8 DA070000 		.4byte	.LVL184
 12030 0dac 833D0000 		.4byte	0x3d83
 12031 0db0 C10D0000 		.4byte	0xdc1
 12032 0db4 10       		.uleb128 0x10
 12033 0db5 01       		.uleb128 0x1
 12034 0db6 51       		.byte	0x51
 12035 0db7 01       		.uleb128 0x1
 12036 0db8 49       		.byte	0x49
 12037 0db9 10       		.uleb128 0x10
 12038 0dba 01       		.uleb128 0x1
 12039 0dbb 50       		.byte	0x50
 12040 0dbc 03       		.uleb128 0x3
 12041 0dbd 0A       		.byte	0xa
 12042 0dbe 1E04     		.2byte	0x41e
 12043 0dc0 00       		.byte	0
 12044 0dc1 0F       		.uleb128 0xf
 12045 0dc2 E0070000 		.4byte	.LVL185
 12046 0dc6 9D3D0000 		.4byte	0x3d9d
 12047 0dca D50D0000 		.4byte	0xdd5
 12048 0dce 10       		.uleb128 0x10
 12049 0dcf 01       		.uleb128 0x1
 12050 0dd0 50       		.byte	0x50
 12051 0dd1 02       		.uleb128 0x2
 12052 0dd2 74       		.byte	0x74
 12053 0dd3 00       		.sleb128 0
 12054 0dd4 00       		.byte	0
 12055 0dd5 0F       		.uleb128 0xf
 12056 0dd6 22080000 		.4byte	.LVL186
 12057 0dda AE3D0000 		.4byte	0x3dae
 12058 0dde F50D0000 		.4byte	0xdf5
 12059 0de2 10       		.uleb128 0x10
 12060 0de3 01       		.uleb128 0x1
ARM GAS  C:\Users\diego\AppData\Local\Temp\ccNdDNY6.s 			page 255


 12061 0de4 52       		.byte	0x52
 12062 0de5 03       		.uleb128 0x3
 12063 0de6 91       		.byte	0x91
 12064 0de7 B47F     		.sleb128 -76
 12065 0de9 10       		.uleb128 0x10
 12066 0dea 01       		.uleb128 0x1
 12067 0deb 51       		.byte	0x51
 12068 0dec 02       		.uleb128 0x2
 12069 0ded 91       		.byte	0x91
 12070 0dee 44       		.sleb128 -60
 12071 0def 10       		.uleb128 0x10
 12072 0df0 01       		.uleb128 0x1
 12073 0df1 50       		.byte	0x50
 12074 0df2 01       		.uleb128 0x1
 12075 0df3 32       		.byte	0x32
 12076 0df4 00       		.byte	0
 12077 0df5 0F       		.uleb128 0xf
 12078 0df6 38080000 		.4byte	.LVL187
 12079 0dfa 533D0000 		.4byte	0x3d53
 12080 0dfe 090E0000 		.4byte	0xe09
 12081 0e02 10       		.uleb128 0x10
 12082 0e03 01       		.uleb128 0x1
 12083 0e04 50       		.byte	0x50
 12084 0e05 02       		.uleb128 0x2
 12085 0e06 74       		.byte	0x74
 12086 0e07 00       		.sleb128 0
 12087 0e08 00       		.byte	0
 12088 0e09 0F       		.uleb128 0xf
 12089 0e0a 50080000 		.4byte	.LVL188
 12090 0e0e C93D0000 		.4byte	0x3dc9
 12091 0e12 260E0000 		.4byte	0xe26
 12092 0e16 10       		.uleb128 0x10
 12093 0e17 01       		.uleb128 0x1
 12094 0e18 51       		.byte	0x51
 12095 0e19 02       		.uleb128 0x2
 12096 0e1a 74       		.byte	0x74
 12097 0e1b 00       		.sleb128 0
 12098 0e1c 10       		.uleb128 0x10
 12099 0e1d 01       		.uleb128 0x1
 12100 0e1e 50       		.byte	0x50
 12101 0e1f 05       		.uleb128 0x5
 12102 0e20 03       		.byte	0x3
 12103 0e21 00000000 		.4byte	resultado
 12104 0e25 00       		.byte	0
 12105 0e26 0F       		.uleb128 0xf
 12106 0e27 62080000 		.4byte	.LVL189
 12107 0e2b 393D0000 		.4byte	0x3d39
 12108 0e2f 410E0000 		.4byte	0xe41
 12109 0e33 10       		.uleb128 0x10
 12110 0e34 01       		.uleb128 0x1
 12111 0e35 51       		.byte	0x51
 12112 0e36 02       		.uleb128 0x2
 12113 0e37 91       		.byte	0x91
 12114 0e38 54       		.sleb128 -44
 12115 0e39 10       		.uleb128 0x10
 12116 0e3a 01       		.uleb128 0x1
 12117 0e3b 50       		.byte	0x50
ARM GAS  C:\Users\diego\AppData\Local\Temp\ccNdDNY6.s 			page 256


 12118 0e3c 03       		.uleb128 0x3
 12119 0e3d 0A       		.byte	0xa
 12120 0e3e 4804     		.2byte	0x448
 12121 0e40 00       		.byte	0
 12122 0e41 0F       		.uleb128 0xf
 12123 0e42 6C080000 		.4byte	.LVL190
 12124 0e46 393D0000 		.4byte	0x3d39
 12125 0e4a 5F0E0000 		.4byte	0xe5f
 12126 0e4e 10       		.uleb128 0x10
 12127 0e4f 01       		.uleb128 0x1
 12128 0e50 51       		.byte	0x51
 12129 0e51 05       		.uleb128 0x5
 12130 0e52 03       		.byte	0x3
 12131 0e53 00000000 		.4byte	resultado
 12132 0e57 10       		.uleb128 0x10
 12133 0e58 01       		.uleb128 0x1
 12134 0e59 50       		.byte	0x50
 12135 0e5a 03       		.uleb128 0x3
 12136 0e5b 0A       		.byte	0xa
 12137 0e5c 0E04     		.2byte	0x40e
 12138 0e5e 00       		.byte	0
 12139 0e5f 0F       		.uleb128 0xf
 12140 0e60 78080000 		.4byte	.LVL191
 12141 0e64 393D0000 		.4byte	0x3d39
 12142 0e68 7A0E0000 		.4byte	0xe7a
 12143 0e6c 10       		.uleb128 0x10
 12144 0e6d 01       		.uleb128 0x1
 12145 0e6e 51       		.byte	0x51
 12146 0e6f 02       		.uleb128 0x2
 12147 0e70 91       		.byte	0x91
 12148 0e71 54       		.sleb128 -44
 12149 0e72 10       		.uleb128 0x10
 12150 0e73 01       		.uleb128 0x1
 12151 0e74 50       		.byte	0x50
 12152 0e75 03       		.uleb128 0x3
 12153 0e76 0A       		.byte	0xa
 12154 0e77 1E04     		.2byte	0x41e
 12155 0e79 00       		.byte	0
 12156 0e7a 0F       		.uleb128 0xf
 12157 0e7b 82080000 		.4byte	.LVL192
 12158 0e7f 393D0000 		.4byte	0x3d39
 12159 0e83 980E0000 		.4byte	0xe98
 12160 0e87 10       		.uleb128 0x10
 12161 0e88 01       		.uleb128 0x1
 12162 0e89 51       		.byte	0x51
 12163 0e8a 05       		.uleb128 0x5
 12164 0e8b 03       		.byte	0x3
 12165 0e8c 00000000 		.4byte	resultado
 12166 0e90 10       		.uleb128 0x10
 12167 0e91 01       		.uleb128 0x1
 12168 0e92 50       		.byte	0x50
 12169 0e93 03       		.uleb128 0x3
 12170 0e94 0A       		.byte	0xa
 12171 0e95 3904     		.2byte	0x439
 12172 0e97 00       		.byte	0
 12173 0e98 11       		.uleb128 0x11
 12174 0e99 86080000 		.4byte	.LVL193
ARM GAS  C:\Users\diego\AppData\Local\Temp\ccNdDNY6.s 			page 257


 12175 0e9d 273D0000 		.4byte	0x3d27
 12176 0ea1 0F       		.uleb128 0xf
 12177 0ea2 060A0000 		.4byte	.LVL194
 12178 0ea6 533D0000 		.4byte	0x3d53
 12179 0eaa B50E0000 		.4byte	0xeb5
 12180 0eae 10       		.uleb128 0x10
 12181 0eaf 01       		.uleb128 0x1
 12182 0eb0 50       		.byte	0x50
 12183 0eb1 02       		.uleb128 0x2
 12184 0eb2 74       		.byte	0x74
 12185 0eb3 00       		.sleb128 0
 12186 0eb4 00       		.byte	0
 12187 0eb5 0F       		.uleb128 0xf
 12188 0eb6 1E0A0000 		.4byte	.LVL195
 12189 0eba 533D0000 		.4byte	0x3d53
 12190 0ebe CE0E0000 		.4byte	0xece
 12191 0ec2 10       		.uleb128 0x10
 12192 0ec3 01       		.uleb128 0x1
 12193 0ec4 51       		.byte	0x51
 12194 0ec5 01       		.uleb128 0x1
 12195 0ec6 3A       		.byte	0x3a
 12196 0ec7 10       		.uleb128 0x10
 12197 0ec8 01       		.uleb128 0x1
 12198 0ec9 50       		.byte	0x50
 12199 0eca 02       		.uleb128 0x2
 12200 0ecb 74       		.byte	0x74
 12201 0ecc 00       		.sleb128 0
 12202 0ecd 00       		.byte	0
 12203 0ece 0F       		.uleb128 0xf
 12204 0ecf 300A0000 		.4byte	.LVL196
 12205 0ed3 533D0000 		.4byte	0x3d53
 12206 0ed7 E20E0000 		.4byte	0xee2
 12207 0edb 10       		.uleb128 0x10
 12208 0edc 01       		.uleb128 0x1
 12209 0edd 50       		.byte	0x50
 12210 0ede 02       		.uleb128 0x2
 12211 0edf 74       		.byte	0x74
 12212 0ee0 00       		.sleb128 0
 12213 0ee1 00       		.byte	0
 12214 0ee2 0F       		.uleb128 0xf
 12215 0ee3 480A0000 		.4byte	.LVL197
 12216 0ee7 533D0000 		.4byte	0x3d53
 12217 0eeb FB0E0000 		.4byte	0xefb
 12218 0eef 10       		.uleb128 0x10
 12219 0ef0 01       		.uleb128 0x1
 12220 0ef1 51       		.byte	0x51
 12221 0ef2 01       		.uleb128 0x1
 12222 0ef3 3A       		.byte	0x3a
 12223 0ef4 10       		.uleb128 0x10
 12224 0ef5 01       		.uleb128 0x1
 12225 0ef6 50       		.byte	0x50
 12226 0ef7 02       		.uleb128 0x2
 12227 0ef8 74       		.byte	0x74
 12228 0ef9 00       		.sleb128 0
 12229 0efa 00       		.byte	0
 12230 0efb 0F       		.uleb128 0xf
 12231 0efc 5C0A0000 		.4byte	.LVL198
ARM GAS  C:\Users\diego\AppData\Local\Temp\ccNdDNY6.s 			page 258


 12232 0f00 533D0000 		.4byte	0x3d53
 12233 0f04 0F0F0000 		.4byte	0xf0f
 12234 0f08 10       		.uleb128 0x10
 12235 0f09 01       		.uleb128 0x1
 12236 0f0a 50       		.byte	0x50
 12237 0f0b 02       		.uleb128 0x2
 12238 0f0c 74       		.byte	0x74
 12239 0f0d 00       		.sleb128 0
 12240 0f0e 00       		.byte	0
 12241 0f0f 0F       		.uleb128 0xf
 12242 0f10 740A0000 		.4byte	.LVL199
 12243 0f14 533D0000 		.4byte	0x3d53
 12244 0f18 280F0000 		.4byte	0xf28
 12245 0f1c 10       		.uleb128 0x10
 12246 0f1d 01       		.uleb128 0x1
 12247 0f1e 51       		.byte	0x51
 12248 0f1f 01       		.uleb128 0x1
 12249 0f20 3A       		.byte	0x3a
 12250 0f21 10       		.uleb128 0x10
 12251 0f22 01       		.uleb128 0x1
 12252 0f23 50       		.byte	0x50
 12253 0f24 02       		.uleb128 0x2
 12254 0f25 74       		.byte	0x74
 12255 0f26 00       		.sleb128 0
 12256 0f27 00       		.byte	0
 12257 0f28 0F       		.uleb128 0xf
 12258 0f29 7C0A0000 		.4byte	.LVL200
 12259 0f2d 6D3D0000 		.4byte	0x3d6d
 12260 0f31 410F0000 		.4byte	0xf41
 12261 0f35 10       		.uleb128 0x10
 12262 0f36 01       		.uleb128 0x1
 12263 0f37 51       		.byte	0x51
 12264 0f38 02       		.uleb128 0x2
 12265 0f39 74       		.byte	0x74
 12266 0f3a 00       		.sleb128 0
 12267 0f3b 10       		.uleb128 0x10
 12268 0f3c 01       		.uleb128 0x1
 12269 0f3d 50       		.byte	0x50
 12270 0f3e 01       		.uleb128 0x1
 12271 0f3f 38       		.byte	0x38
 12272 0f40 00       		.byte	0
 12273 0f41 0F       		.uleb128 0xf
 12274 0f42 900A0000 		.4byte	.LVL201
 12275 0f46 533D0000 		.4byte	0x3d53
 12276 0f4a 550F0000 		.4byte	0xf55
 12277 0f4e 10       		.uleb128 0x10
 12278 0f4f 01       		.uleb128 0x1
 12279 0f50 50       		.byte	0x50
 12280 0f51 02       		.uleb128 0x2
 12281 0f52 74       		.byte	0x74
 12282 0f53 00       		.sleb128 0
 12283 0f54 00       		.byte	0
 12284 0f55 0F       		.uleb128 0xf
 12285 0f56 A80A0000 		.4byte	.LVL202
 12286 0f5a 533D0000 		.4byte	0x3d53
 12287 0f5e 6E0F0000 		.4byte	0xf6e
 12288 0f62 10       		.uleb128 0x10
ARM GAS  C:\Users\diego\AppData\Local\Temp\ccNdDNY6.s 			page 259


 12289 0f63 01       		.uleb128 0x1
 12290 0f64 51       		.byte	0x51
 12291 0f65 01       		.uleb128 0x1
 12292 0f66 3A       		.byte	0x3a
 12293 0f67 10       		.uleb128 0x10
 12294 0f68 01       		.uleb128 0x1
 12295 0f69 50       		.byte	0x50
 12296 0f6a 02       		.uleb128 0x2
 12297 0f6b 74       		.byte	0x74
 12298 0f6c 00       		.sleb128 0
 12299 0f6d 00       		.byte	0
 12300 0f6e 0F       		.uleb128 0xf
 12301 0f6f B80A0000 		.4byte	.LVL203
 12302 0f73 833D0000 		.4byte	0x3d83
 12303 0f77 870F0000 		.4byte	0xf87
 12304 0f7b 10       		.uleb128 0x10
 12305 0f7c 01       		.uleb128 0x1
 12306 0f7d 51       		.byte	0x51
 12307 0f7e 01       		.uleb128 0x1
 12308 0f7f 49       		.byte	0x49
 12309 0f80 10       		.uleb128 0x10
 12310 0f81 01       		.uleb128 0x1
 12311 0f82 50       		.byte	0x50
 12312 0f83 02       		.uleb128 0x2
 12313 0f84 08       		.byte	0x8
 12314 0f85 C0       		.byte	0xc0
 12315 0f86 00       		.byte	0
 12316 0f87 0F       		.uleb128 0xf
 12317 0f88 C40A0000 		.4byte	.LVL204
 12318 0f8c 833D0000 		.4byte	0x3d83
 12319 0f90 A10F0000 		.4byte	0xfa1
 12320 0f94 10       		.uleb128 0x10
 12321 0f95 01       		.uleb128 0x1
 12322 0f96 51       		.byte	0x51
 12323 0f97 01       		.uleb128 0x1
 12324 0f98 49       		.byte	0x49
 12325 0f99 10       		.uleb128 0x10
 12326 0f9a 01       		.uleb128 0x1
 12327 0f9b 50       		.byte	0x50
 12328 0f9c 03       		.uleb128 0x3
 12329 0f9d 0A       		.byte	0xa
 12330 0f9e 1901     		.2byte	0x119
 12331 0fa0 00       		.byte	0
 12332 0fa1 0F       		.uleb128 0xf
 12333 0fa2 CA0A0000 		.4byte	.LVL205
 12334 0fa6 9D3D0000 		.4byte	0x3d9d
 12335 0faa B50F0000 		.4byte	0xfb5
 12336 0fae 10       		.uleb128 0x10
 12337 0faf 01       		.uleb128 0x1
 12338 0fb0 50       		.byte	0x50
 12339 0fb1 02       		.uleb128 0x2
 12340 0fb2 74       		.byte	0x74
 12341 0fb3 00       		.sleb128 0
 12342 0fb4 00       		.byte	0
 12343 0fb5 0F       		.uleb128 0xf
 12344 0fb6 0C0B0000 		.4byte	.LVL206
 12345 0fba AE3D0000 		.4byte	0x3dae
ARM GAS  C:\Users\diego\AppData\Local\Temp\ccNdDNY6.s 			page 260


 12346 0fbe D50F0000 		.4byte	0xfd5
 12347 0fc2 10       		.uleb128 0x10
 12348 0fc3 01       		.uleb128 0x1
 12349 0fc4 52       		.byte	0x52
 12350 0fc5 03       		.uleb128 0x3
 12351 0fc6 91       		.byte	0x91
 12352 0fc7 B47F     		.sleb128 -76
 12353 0fc9 10       		.uleb128 0x10
 12354 0fca 01       		.uleb128 0x1
 12355 0fcb 51       		.byte	0x51
 12356 0fcc 02       		.uleb128 0x2
 12357 0fcd 91       		.byte	0x91
 12358 0fce 44       		.sleb128 -60
 12359 0fcf 10       		.uleb128 0x10
 12360 0fd0 01       		.uleb128 0x1
 12361 0fd1 50       		.byte	0x50
 12362 0fd2 01       		.uleb128 0x1
 12363 0fd3 32       		.byte	0x32
 12364 0fd4 00       		.byte	0
 12365 0fd5 0F       		.uleb128 0xf
 12366 0fd6 220B0000 		.4byte	.LVL207
 12367 0fda 533D0000 		.4byte	0x3d53
 12368 0fde E90F0000 		.4byte	0xfe9
 12369 0fe2 10       		.uleb128 0x10
 12370 0fe3 01       		.uleb128 0x1
 12371 0fe4 50       		.byte	0x50
 12372 0fe5 02       		.uleb128 0x2
 12373 0fe6 74       		.byte	0x74
 12374 0fe7 00       		.sleb128 0
 12375 0fe8 00       		.byte	0
 12376 0fe9 0F       		.uleb128 0xf
 12377 0fea 3A0B0000 		.4byte	.LVL208
 12378 0fee C93D0000 		.4byte	0x3dc9
 12379 0ff2 06100000 		.4byte	0x1006
 12380 0ff6 10       		.uleb128 0x10
 12381 0ff7 01       		.uleb128 0x1
 12382 0ff8 51       		.byte	0x51
 12383 0ff9 02       		.uleb128 0x2
 12384 0ffa 74       		.byte	0x74
 12385 0ffb 00       		.sleb128 0
 12386 0ffc 10       		.uleb128 0x10
 12387 0ffd 01       		.uleb128 0x1
 12388 0ffe 50       		.byte	0x50
 12389 0fff 05       		.uleb128 0x5
 12390 1000 03       		.byte	0x3
 12391 1001 00000000 		.4byte	resultado
 12392 1005 00       		.byte	0
 12393 1006 0F       		.uleb128 0xf
 12394 1007 4A0B0000 		.4byte	.LVL209
 12395 100b 393D0000 		.4byte	0x3d39
 12396 100f 20100000 		.4byte	0x1020
 12397 1013 10       		.uleb128 0x10
 12398 1014 01       		.uleb128 0x1
 12399 1015 51       		.byte	0x51
 12400 1016 02       		.uleb128 0x2
 12401 1017 91       		.byte	0x91
 12402 1018 54       		.sleb128 -44
ARM GAS  C:\Users\diego\AppData\Local\Temp\ccNdDNY6.s 			page 261


 12403 1019 10       		.uleb128 0x10
 12404 101a 01       		.uleb128 0x1
 12405 101b 50       		.byte	0x50
 12406 101c 02       		.uleb128 0x2
 12407 101d 08       		.byte	0x8
 12408 101e C0       		.byte	0xc0
 12409 101f 00       		.byte	0
 12410 1020 0F       		.uleb128 0xf
 12411 1021 540B0000 		.4byte	.LVL210
 12412 1025 393D0000 		.4byte	0x3d39
 12413 1029 3E100000 		.4byte	0x103e
 12414 102d 10       		.uleb128 0x10
 12415 102e 01       		.uleb128 0x1
 12416 102f 51       		.byte	0x51
 12417 1030 05       		.uleb128 0x5
 12418 1031 03       		.byte	0x3
 12419 1032 00000000 		.4byte	resultado
 12420 1036 10       		.uleb128 0x10
 12421 1037 01       		.uleb128 0x1
 12422 1038 50       		.byte	0x50
 12423 1039 03       		.uleb128 0x3
 12424 103a 0A       		.byte	0xa
 12425 103b 0002     		.2byte	0x200
 12426 103d 00       		.byte	0
 12427 103e 0F       		.uleb128 0xf
 12428 103f A60B0000 		.4byte	.LVL211
 12429 1043 393D0000 		.4byte	0x3d39
 12430 1047 59100000 		.4byte	0x1059
 12431 104b 10       		.uleb128 0x10
 12432 104c 01       		.uleb128 0x1
 12433 104d 51       		.byte	0x51
 12434 104e 02       		.uleb128 0x2
 12435 104f 91       		.byte	0x91
 12436 1050 54       		.sleb128 -44
 12437 1051 10       		.uleb128 0x10
 12438 1052 01       		.uleb128 0x1
 12439 1053 50       		.byte	0x50
 12440 1054 03       		.uleb128 0x3
 12441 1055 0A       		.byte	0xa
 12442 1056 1901     		.2byte	0x119
 12443 1058 00       		.byte	0
 12444 1059 0F       		.uleb128 0xf
 12445 105a B00B0000 		.4byte	.LVL212
 12446 105e 393D0000 		.4byte	0x3d39
 12447 1062 77100000 		.4byte	0x1077
 12448 1066 10       		.uleb128 0x10
 12449 1067 01       		.uleb128 0x1
 12450 1068 51       		.byte	0x51
 12451 1069 05       		.uleb128 0x5
 12452 106a 03       		.byte	0x3
 12453 106b 00000000 		.4byte	resultado
 12454 106f 10       		.uleb128 0x10
 12455 1070 01       		.uleb128 0x1
 12456 1071 50       		.byte	0x50
 12457 1072 03       		.uleb128 0x3
 12458 1073 0A       		.byte	0xa
 12459 1074 2702     		.2byte	0x227
ARM GAS  C:\Users\diego\AppData\Local\Temp\ccNdDNY6.s 			page 262


 12460 1076 00       		.byte	0
 12461 1077 0F       		.uleb128 0xf
 12462 1078 0C0C0000 		.4byte	.LVL213
 12463 107c 533D0000 		.4byte	0x3d53
 12464 1080 8B100000 		.4byte	0x108b
 12465 1084 10       		.uleb128 0x10
 12466 1085 01       		.uleb128 0x1
 12467 1086 50       		.byte	0x50
 12468 1087 02       		.uleb128 0x2
 12469 1088 74       		.byte	0x74
 12470 1089 00       		.sleb128 0
 12471 108a 00       		.byte	0
 12472 108b 0F       		.uleb128 0xf
 12473 108c 240C0000 		.4byte	.LVL214
 12474 1090 533D0000 		.4byte	0x3d53
 12475 1094 A4100000 		.4byte	0x10a4
 12476 1098 10       		.uleb128 0x10
 12477 1099 01       		.uleb128 0x1
 12478 109a 51       		.byte	0x51
 12479 109b 01       		.uleb128 0x1
 12480 109c 3A       		.byte	0x3a
 12481 109d 10       		.uleb128 0x10
 12482 109e 01       		.uleb128 0x1
 12483 109f 50       		.byte	0x50
 12484 10a0 02       		.uleb128 0x2
 12485 10a1 74       		.byte	0x74
 12486 10a2 00       		.sleb128 0
 12487 10a3 00       		.byte	0
 12488 10a4 0F       		.uleb128 0xf
 12489 10a5 360C0000 		.4byte	.LVL215
 12490 10a9 533D0000 		.4byte	0x3d53
 12491 10ad B8100000 		.4byte	0x10b8
 12492 10b1 10       		.uleb128 0x10
 12493 10b2 01       		.uleb128 0x1
 12494 10b3 50       		.byte	0x50
 12495 10b4 02       		.uleb128 0x2
 12496 10b5 74       		.byte	0x74
 12497 10b6 00       		.sleb128 0
 12498 10b7 00       		.byte	0
 12499 10b8 0F       		.uleb128 0xf
 12500 10b9 4E0C0000 		.4byte	.LVL216
 12501 10bd 533D0000 		.4byte	0x3d53
 12502 10c1 D1100000 		.4byte	0x10d1
 12503 10c5 10       		.uleb128 0x10
 12504 10c6 01       		.uleb128 0x1
 12505 10c7 51       		.byte	0x51
 12506 10c8 01       		.uleb128 0x1
 12507 10c9 3A       		.byte	0x3a
 12508 10ca 10       		.uleb128 0x10
 12509 10cb 01       		.uleb128 0x1
 12510 10cc 50       		.byte	0x50
 12511 10cd 02       		.uleb128 0x2
 12512 10ce 74       		.byte	0x74
 12513 10cf 00       		.sleb128 0
 12514 10d0 00       		.byte	0
 12515 10d1 0F       		.uleb128 0xf
 12516 10d2 620C0000 		.4byte	.LVL217
ARM GAS  C:\Users\diego\AppData\Local\Temp\ccNdDNY6.s 			page 263


 12517 10d6 533D0000 		.4byte	0x3d53
 12518 10da E5100000 		.4byte	0x10e5
 12519 10de 10       		.uleb128 0x10
 12520 10df 01       		.uleb128 0x1
 12521 10e0 50       		.byte	0x50
 12522 10e1 02       		.uleb128 0x2
 12523 10e2 74       		.byte	0x74
 12524 10e3 00       		.sleb128 0
 12525 10e4 00       		.byte	0
 12526 10e5 0F       		.uleb128 0xf
 12527 10e6 7A0C0000 		.4byte	.LVL218
 12528 10ea 533D0000 		.4byte	0x3d53
 12529 10ee FE100000 		.4byte	0x10fe
 12530 10f2 10       		.uleb128 0x10
 12531 10f3 01       		.uleb128 0x1
 12532 10f4 51       		.byte	0x51
 12533 10f5 01       		.uleb128 0x1
 12534 10f6 3A       		.byte	0x3a
 12535 10f7 10       		.uleb128 0x10
 12536 10f8 01       		.uleb128 0x1
 12537 10f9 50       		.byte	0x50
 12538 10fa 02       		.uleb128 0x2
 12539 10fb 74       		.byte	0x74
 12540 10fc 00       		.sleb128 0
 12541 10fd 00       		.byte	0
 12542 10fe 0F       		.uleb128 0xf
 12543 10ff 820C0000 		.4byte	.LVL219
 12544 1103 6D3D0000 		.4byte	0x3d6d
 12545 1107 17110000 		.4byte	0x1117
 12546 110b 10       		.uleb128 0x10
 12547 110c 01       		.uleb128 0x1
 12548 110d 51       		.byte	0x51
 12549 110e 02       		.uleb128 0x2
 12550 110f 74       		.byte	0x74
 12551 1110 00       		.sleb128 0
 12552 1111 10       		.uleb128 0x10
 12553 1112 01       		.uleb128 0x1
 12554 1113 50       		.byte	0x50
 12555 1114 01       		.uleb128 0x1
 12556 1115 38       		.byte	0x38
 12557 1116 00       		.byte	0
 12558 1117 0F       		.uleb128 0xf
 12559 1118 960C0000 		.4byte	.LVL220
 12560 111c 533D0000 		.4byte	0x3d53
 12561 1120 2B110000 		.4byte	0x112b
 12562 1124 10       		.uleb128 0x10
 12563 1125 01       		.uleb128 0x1
 12564 1126 50       		.byte	0x50
 12565 1127 02       		.uleb128 0x2
 12566 1128 74       		.byte	0x74
 12567 1129 00       		.sleb128 0
 12568 112a 00       		.byte	0
 12569 112b 0F       		.uleb128 0xf
 12570 112c AE0C0000 		.4byte	.LVL221
 12571 1130 533D0000 		.4byte	0x3d53
 12572 1134 44110000 		.4byte	0x1144
 12573 1138 10       		.uleb128 0x10
ARM GAS  C:\Users\diego\AppData\Local\Temp\ccNdDNY6.s 			page 264


 12574 1139 01       		.uleb128 0x1
 12575 113a 51       		.byte	0x51
 12576 113b 01       		.uleb128 0x1
 12577 113c 3A       		.byte	0x3a
 12578 113d 10       		.uleb128 0x10
 12579 113e 01       		.uleb128 0x1
 12580 113f 50       		.byte	0x50
 12581 1140 02       		.uleb128 0x2
 12582 1141 74       		.byte	0x74
 12583 1142 00       		.sleb128 0
 12584 1143 00       		.byte	0
 12585 1144 0F       		.uleb128 0xf
 12586 1145 BE0C0000 		.4byte	.LVL222
 12587 1149 833D0000 		.4byte	0x3d83
 12588 114d 5D110000 		.4byte	0x115d
 12589 1151 10       		.uleb128 0x10
 12590 1152 01       		.uleb128 0x1
 12591 1153 51       		.byte	0x51
 12592 1154 01       		.uleb128 0x1
 12593 1155 49       		.byte	0x49
 12594 1156 10       		.uleb128 0x10
 12595 1157 01       		.uleb128 0x1
 12596 1158 50       		.byte	0x50
 12597 1159 02       		.uleb128 0x2
 12598 115a 08       		.byte	0x8
 12599 115b D9       		.byte	0xd9
 12600 115c 00       		.byte	0
 12601 115d 0F       		.uleb128 0xf
 12602 115e CA0C0000 		.4byte	.LVL223
 12603 1162 833D0000 		.4byte	0x3d83
 12604 1166 77110000 		.4byte	0x1177
 12605 116a 10       		.uleb128 0x10
 12606 116b 01       		.uleb128 0x1
 12607 116c 51       		.byte	0x51
 12608 116d 01       		.uleb128 0x1
 12609 116e 49       		.byte	0x49
 12610 116f 10       		.uleb128 0x10
 12611 1170 01       		.uleb128 0x1
 12612 1171 50       		.byte	0x50
 12613 1172 03       		.uleb128 0x3
 12614 1173 0A       		.byte	0xa
 12615 1174 4001     		.2byte	0x140
 12616 1176 00       		.byte	0
 12617 1177 0F       		.uleb128 0xf
 12618 1178 D00C0000 		.4byte	.LVL224
 12619 117c 9D3D0000 		.4byte	0x3d9d
 12620 1180 8B110000 		.4byte	0x118b
 12621 1184 10       		.uleb128 0x10
 12622 1185 01       		.uleb128 0x1
 12623 1186 50       		.byte	0x50
 12624 1187 02       		.uleb128 0x2
 12625 1188 74       		.byte	0x74
 12626 1189 00       		.sleb128 0
 12627 118a 00       		.byte	0
 12628 118b 0F       		.uleb128 0xf
 12629 118c 120D0000 		.4byte	.LVL225
 12630 1190 AE3D0000 		.4byte	0x3dae
ARM GAS  C:\Users\diego\AppData\Local\Temp\ccNdDNY6.s 			page 265


 12631 1194 AB110000 		.4byte	0x11ab
 12632 1198 10       		.uleb128 0x10
 12633 1199 01       		.uleb128 0x1
 12634 119a 52       		.byte	0x52
 12635 119b 03       		.uleb128 0x3
 12636 119c 91       		.byte	0x91
 12637 119d B47F     		.sleb128 -76
 12638 119f 10       		.uleb128 0x10
 12639 11a0 01       		.uleb128 0x1
 12640 11a1 51       		.byte	0x51
 12641 11a2 02       		.uleb128 0x2
 12642 11a3 91       		.byte	0x91
 12643 11a4 44       		.sleb128 -60
 12644 11a5 10       		.uleb128 0x10
 12645 11a6 01       		.uleb128 0x1
 12646 11a7 50       		.byte	0x50
 12647 11a8 01       		.uleb128 0x1
 12648 11a9 32       		.byte	0x32
 12649 11aa 00       		.byte	0
 12650 11ab 0F       		.uleb128 0xf
 12651 11ac 280D0000 		.4byte	.LVL226
 12652 11b0 533D0000 		.4byte	0x3d53
 12653 11b4 BF110000 		.4byte	0x11bf
 12654 11b8 10       		.uleb128 0x10
 12655 11b9 01       		.uleb128 0x1
 12656 11ba 50       		.byte	0x50
 12657 11bb 02       		.uleb128 0x2
 12658 11bc 74       		.byte	0x74
 12659 11bd 00       		.sleb128 0
 12660 11be 00       		.byte	0
 12661 11bf 0F       		.uleb128 0xf
 12662 11c0 400D0000 		.4byte	.LVL227
 12663 11c4 C93D0000 		.4byte	0x3dc9
 12664 11c8 DC110000 		.4byte	0x11dc
 12665 11cc 10       		.uleb128 0x10
 12666 11cd 01       		.uleb128 0x1
 12667 11ce 51       		.byte	0x51
 12668 11cf 02       		.uleb128 0x2
 12669 11d0 74       		.byte	0x74
 12670 11d1 00       		.sleb128 0
 12671 11d2 10       		.uleb128 0x10
 12672 11d3 01       		.uleb128 0x1
 12673 11d4 50       		.byte	0x50
 12674 11d5 05       		.uleb128 0x5
 12675 11d6 03       		.byte	0x3
 12676 11d7 00000000 		.4byte	resultado
 12677 11db 00       		.byte	0
 12678 11dc 0F       		.uleb128 0xf
 12679 11dd 500D0000 		.4byte	.LVL228
 12680 11e1 393D0000 		.4byte	0x3d39
 12681 11e5 F6110000 		.4byte	0x11f6
 12682 11e9 10       		.uleb128 0x10
 12683 11ea 01       		.uleb128 0x1
 12684 11eb 51       		.byte	0x51
 12685 11ec 02       		.uleb128 0x2
 12686 11ed 91       		.byte	0x91
 12687 11ee 54       		.sleb128 -44
ARM GAS  C:\Users\diego\AppData\Local\Temp\ccNdDNY6.s 			page 266


 12688 11ef 10       		.uleb128 0x10
 12689 11f0 01       		.uleb128 0x1
 12690 11f1 50       		.byte	0x50
 12691 11f2 02       		.uleb128 0x2
 12692 11f3 08       		.byte	0x8
 12693 11f4 D9       		.byte	0xd9
 12694 11f5 00       		.byte	0
 12695 11f6 0F       		.uleb128 0xf
 12696 11f7 5A0D0000 		.4byte	.LVL229
 12697 11fb 393D0000 		.4byte	0x3d39
 12698 11ff 14120000 		.4byte	0x1214
 12699 1203 10       		.uleb128 0x10
 12700 1204 01       		.uleb128 0x1
 12701 1205 51       		.byte	0x51
 12702 1206 05       		.uleb128 0x5
 12703 1207 03       		.byte	0x3
 12704 1208 00000000 		.4byte	resultado
 12705 120c 10       		.uleb128 0x10
 12706 120d 01       		.uleb128 0x1
 12707 120e 50       		.byte	0x50
 12708 120f 03       		.uleb128 0x3
 12709 1210 0A       		.byte	0xa
 12710 1211 1A02     		.2byte	0x21a
 12711 1213 00       		.byte	0
 12712 1214 0F       		.uleb128 0xf
 12713 1215 660D0000 		.4byte	.LVL230
 12714 1219 393D0000 		.4byte	0x3d39
 12715 121d 2F120000 		.4byte	0x122f
 12716 1221 10       		.uleb128 0x10
 12717 1222 01       		.uleb128 0x1
 12718 1223 51       		.byte	0x51
 12719 1224 02       		.uleb128 0x2
 12720 1225 91       		.byte	0x91
 12721 1226 54       		.sleb128 -44
 12722 1227 10       		.uleb128 0x10
 12723 1228 01       		.uleb128 0x1
 12724 1229 50       		.byte	0x50
 12725 122a 03       		.uleb128 0x3
 12726 122b 0A       		.byte	0xa
 12727 122c 4001     		.2byte	0x140
 12728 122e 00       		.byte	0
 12729 122f 0F       		.uleb128 0xf
 12730 1230 700D0000 		.4byte	.LVL231
 12731 1234 393D0000 		.4byte	0x3d39
 12732 1238 4D120000 		.4byte	0x124d
 12733 123c 10       		.uleb128 0x10
 12734 123d 01       		.uleb128 0x1
 12735 123e 51       		.byte	0x51
 12736 123f 05       		.uleb128 0x5
 12737 1240 03       		.byte	0x3
 12738 1241 00000000 		.4byte	resultado
 12739 1245 10       		.uleb128 0x10
 12740 1246 01       		.uleb128 0x1
 12741 1247 50       		.byte	0x50
 12742 1248 03       		.uleb128 0x3
 12743 1249 0A       		.byte	0xa
 12744 124a 4002     		.2byte	0x240
ARM GAS  C:\Users\diego\AppData\Local\Temp\ccNdDNY6.s 			page 267


 12745 124c 00       		.byte	0
 12746 124d 0F       		.uleb128 0xf
 12747 124e B40D0000 		.4byte	.LVL232
 12748 1252 533D0000 		.4byte	0x3d53
 12749 1256 61120000 		.4byte	0x1261
 12750 125a 10       		.uleb128 0x10
 12751 125b 01       		.uleb128 0x1
 12752 125c 50       		.byte	0x50
 12753 125d 02       		.uleb128 0x2
 12754 125e 74       		.byte	0x74
 12755 125f 00       		.sleb128 0
 12756 1260 00       		.byte	0
 12757 1261 0F       		.uleb128 0xf
 12758 1262 CC0D0000 		.4byte	.LVL233
 12759 1266 533D0000 		.4byte	0x3d53
 12760 126a 7A120000 		.4byte	0x127a
 12761 126e 10       		.uleb128 0x10
 12762 126f 01       		.uleb128 0x1
 12763 1270 51       		.byte	0x51
 12764 1271 01       		.uleb128 0x1
 12765 1272 3A       		.byte	0x3a
 12766 1273 10       		.uleb128 0x10
 12767 1274 01       		.uleb128 0x1
 12768 1275 50       		.byte	0x50
 12769 1276 02       		.uleb128 0x2
 12770 1277 74       		.byte	0x74
 12771 1278 00       		.sleb128 0
 12772 1279 00       		.byte	0
 12773 127a 0F       		.uleb128 0xf
 12774 127b DE0D0000 		.4byte	.LVL234
 12775 127f 533D0000 		.4byte	0x3d53
 12776 1283 8E120000 		.4byte	0x128e
 12777 1287 10       		.uleb128 0x10
 12778 1288 01       		.uleb128 0x1
 12779 1289 50       		.byte	0x50
 12780 128a 02       		.uleb128 0x2
 12781 128b 74       		.byte	0x74
 12782 128c 00       		.sleb128 0
 12783 128d 00       		.byte	0
 12784 128e 0F       		.uleb128 0xf
 12785 128f F60D0000 		.4byte	.LVL235
 12786 1293 533D0000 		.4byte	0x3d53
 12787 1297 A7120000 		.4byte	0x12a7
 12788 129b 10       		.uleb128 0x10
 12789 129c 01       		.uleb128 0x1
 12790 129d 51       		.byte	0x51
 12791 129e 01       		.uleb128 0x1
 12792 129f 3A       		.byte	0x3a
 12793 12a0 10       		.uleb128 0x10
 12794 12a1 01       		.uleb128 0x1
 12795 12a2 50       		.byte	0x50
 12796 12a3 02       		.uleb128 0x2
 12797 12a4 74       		.byte	0x74
 12798 12a5 00       		.sleb128 0
 12799 12a6 00       		.byte	0
 12800 12a7 0F       		.uleb128 0xf
 12801 12a8 0A0E0000 		.4byte	.LVL236
ARM GAS  C:\Users\diego\AppData\Local\Temp\ccNdDNY6.s 			page 268


 12802 12ac 533D0000 		.4byte	0x3d53
 12803 12b0 BB120000 		.4byte	0x12bb
 12804 12b4 10       		.uleb128 0x10
 12805 12b5 01       		.uleb128 0x1
 12806 12b6 50       		.byte	0x50
 12807 12b7 02       		.uleb128 0x2
 12808 12b8 74       		.byte	0x74
 12809 12b9 00       		.sleb128 0
 12810 12ba 00       		.byte	0
 12811 12bb 0F       		.uleb128 0xf
 12812 12bc 220E0000 		.4byte	.LVL237
 12813 12c0 533D0000 		.4byte	0x3d53
 12814 12c4 D4120000 		.4byte	0x12d4
 12815 12c8 10       		.uleb128 0x10
 12816 12c9 01       		.uleb128 0x1
 12817 12ca 51       		.byte	0x51
 12818 12cb 01       		.uleb128 0x1
 12819 12cc 3A       		.byte	0x3a
 12820 12cd 10       		.uleb128 0x10
 12821 12ce 01       		.uleb128 0x1
 12822 12cf 50       		.byte	0x50
 12823 12d0 02       		.uleb128 0x2
 12824 12d1 74       		.byte	0x74
 12825 12d2 00       		.sleb128 0
 12826 12d3 00       		.byte	0
 12827 12d4 0F       		.uleb128 0xf
 12828 12d5 2A0E0000 		.4byte	.LVL238
 12829 12d9 6D3D0000 		.4byte	0x3d6d
 12830 12dd ED120000 		.4byte	0x12ed
 12831 12e1 10       		.uleb128 0x10
 12832 12e2 01       		.uleb128 0x1
 12833 12e3 51       		.byte	0x51
 12834 12e4 02       		.uleb128 0x2
 12835 12e5 74       		.byte	0x74
 12836 12e6 00       		.sleb128 0
 12837 12e7 10       		.uleb128 0x10
 12838 12e8 01       		.uleb128 0x1
 12839 12e9 50       		.byte	0x50
 12840 12ea 01       		.uleb128 0x1
 12841 12eb 38       		.byte	0x38
 12842 12ec 00       		.byte	0
 12843 12ed 0F       		.uleb128 0xf
 12844 12ee 840E0000 		.4byte	.LVL239
 12845 12f2 533D0000 		.4byte	0x3d53
 12846 12f6 01130000 		.4byte	0x1301
 12847 12fa 10       		.uleb128 0x10
 12848 12fb 01       		.uleb128 0x1
 12849 12fc 50       		.byte	0x50
 12850 12fd 02       		.uleb128 0x2
 12851 12fe 74       		.byte	0x74
 12852 12ff 00       		.sleb128 0
 12853 1300 00       		.byte	0
 12854 1301 0F       		.uleb128 0xf
 12855 1302 9C0E0000 		.4byte	.LVL240
 12856 1306 533D0000 		.4byte	0x3d53
 12857 130a 1A130000 		.4byte	0x131a
 12858 130e 10       		.uleb128 0x10
ARM GAS  C:\Users\diego\AppData\Local\Temp\ccNdDNY6.s 			page 269


 12859 130f 01       		.uleb128 0x1
 12860 1310 51       		.byte	0x51
 12861 1311 01       		.uleb128 0x1
 12862 1312 3A       		.byte	0x3a
 12863 1313 10       		.uleb128 0x10
 12864 1314 01       		.uleb128 0x1
 12865 1315 50       		.byte	0x50
 12866 1316 02       		.uleb128 0x2
 12867 1317 74       		.byte	0x74
 12868 1318 00       		.sleb128 0
 12869 1319 00       		.byte	0
 12870 131a 0F       		.uleb128 0xf
 12871 131b AE0E0000 		.4byte	.LVL241
 12872 131f 833D0000 		.4byte	0x3d83
 12873 1323 34130000 		.4byte	0x1334
 12874 1327 10       		.uleb128 0x10
 12875 1328 01       		.uleb128 0x1
 12876 1329 51       		.byte	0x51
 12877 132a 01       		.uleb128 0x1
 12878 132b 49       		.byte	0x49
 12879 132c 10       		.uleb128 0x10
 12880 132d 01       		.uleb128 0x1
 12881 132e 50       		.byte	0x50
 12882 132f 03       		.uleb128 0x3
 12883 1330 0A       		.byte	0xa
 12884 1331 0001     		.2byte	0x100
 12885 1333 00       		.byte	0
 12886 1334 0F       		.uleb128 0xf
 12887 1335 BA0E0000 		.4byte	.LVL242
 12888 1339 833D0000 		.4byte	0x3d83
 12889 133d 4E130000 		.4byte	0x134e
 12890 1341 10       		.uleb128 0x10
 12891 1342 01       		.uleb128 0x1
 12892 1343 51       		.byte	0x51
 12893 1344 01       		.uleb128 0x1
 12894 1345 49       		.byte	0x49
 12895 1346 10       		.uleb128 0x10
 12896 1347 01       		.uleb128 0x1
 12897 1348 50       		.byte	0x50
 12898 1349 03       		.uleb128 0x3
 12899 134a 0A       		.byte	0xa
 12900 134b 5901     		.2byte	0x159
 12901 134d 00       		.byte	0
 12902 134e 0F       		.uleb128 0xf
 12903 134f C00E0000 		.4byte	.LVL243
 12904 1353 9D3D0000 		.4byte	0x3d9d
 12905 1357 62130000 		.4byte	0x1362
 12906 135b 10       		.uleb128 0x10
 12907 135c 01       		.uleb128 0x1
 12908 135d 50       		.byte	0x50
 12909 135e 02       		.uleb128 0x2
 12910 135f 74       		.byte	0x74
 12911 1360 00       		.sleb128 0
 12912 1361 00       		.byte	0
 12913 1362 0F       		.uleb128 0xf
 12914 1363 020F0000 		.4byte	.LVL244
 12915 1367 AE3D0000 		.4byte	0x3dae
ARM GAS  C:\Users\diego\AppData\Local\Temp\ccNdDNY6.s 			page 270


 12916 136b 82130000 		.4byte	0x1382
 12917 136f 10       		.uleb128 0x10
 12918 1370 01       		.uleb128 0x1
 12919 1371 52       		.byte	0x52
 12920 1372 03       		.uleb128 0x3
 12921 1373 91       		.byte	0x91
 12922 1374 B47F     		.sleb128 -76
 12923 1376 10       		.uleb128 0x10
 12924 1377 01       		.uleb128 0x1
 12925 1378 51       		.byte	0x51
 12926 1379 02       		.uleb128 0x2
 12927 137a 91       		.byte	0x91
 12928 137b 44       		.sleb128 -60
 12929 137c 10       		.uleb128 0x10
 12930 137d 01       		.uleb128 0x1
 12931 137e 50       		.byte	0x50
 12932 137f 01       		.uleb128 0x1
 12933 1380 32       		.byte	0x32
 12934 1381 00       		.byte	0
 12935 1382 0F       		.uleb128 0xf
 12936 1383 180F0000 		.4byte	.LVL245
 12937 1387 533D0000 		.4byte	0x3d53
 12938 138b 96130000 		.4byte	0x1396
 12939 138f 10       		.uleb128 0x10
 12940 1390 01       		.uleb128 0x1
 12941 1391 50       		.byte	0x50
 12942 1392 02       		.uleb128 0x2
 12943 1393 74       		.byte	0x74
 12944 1394 00       		.sleb128 0
 12945 1395 00       		.byte	0
 12946 1396 0F       		.uleb128 0xf
 12947 1397 300F0000 		.4byte	.LVL246
 12948 139b C93D0000 		.4byte	0x3dc9
 12949 139f B3130000 		.4byte	0x13b3
 12950 13a3 10       		.uleb128 0x10
 12951 13a4 01       		.uleb128 0x1
 12952 13a5 51       		.byte	0x51
 12953 13a6 02       		.uleb128 0x2
 12954 13a7 74       		.byte	0x74
 12955 13a8 00       		.sleb128 0
 12956 13a9 10       		.uleb128 0x10
 12957 13aa 01       		.uleb128 0x1
 12958 13ab 50       		.byte	0x50
 12959 13ac 05       		.uleb128 0x5
 12960 13ad 03       		.byte	0x3
 12961 13ae 00000000 		.4byte	resultado
 12962 13b2 00       		.byte	0
 12963 13b3 0F       		.uleb128 0xf
 12964 13b4 420F0000 		.4byte	.LVL247
 12965 13b8 393D0000 		.4byte	0x3d39
 12966 13bc CE130000 		.4byte	0x13ce
 12967 13c0 10       		.uleb128 0x10
 12968 13c1 01       		.uleb128 0x1
 12969 13c2 51       		.byte	0x51
 12970 13c3 02       		.uleb128 0x2
 12971 13c4 91       		.byte	0x91
 12972 13c5 54       		.sleb128 -44
ARM GAS  C:\Users\diego\AppData\Local\Temp\ccNdDNY6.s 			page 271


 12973 13c6 10       		.uleb128 0x10
 12974 13c7 01       		.uleb128 0x1
 12975 13c8 50       		.byte	0x50
 12976 13c9 03       		.uleb128 0x3
 12977 13ca 0A       		.byte	0xa
 12978 13cb 0001     		.2byte	0x100
 12979 13cd 00       		.byte	0
 12980 13ce 0F       		.uleb128 0xf
 12981 13cf 4C0F0000 		.4byte	.LVL248
 12982 13d3 393D0000 		.4byte	0x3d39
 12983 13d7 EC130000 		.4byte	0x13ec
 12984 13db 10       		.uleb128 0x10
 12985 13dc 01       		.uleb128 0x1
 12986 13dd 51       		.byte	0x51
 12987 13de 05       		.uleb128 0x5
 12988 13df 03       		.byte	0x3
 12989 13e0 00000000 		.4byte	resultado
 12990 13e4 10       		.uleb128 0x10
 12991 13e5 01       		.uleb128 0x1
 12992 13e6 50       		.byte	0x50
 12993 13e7 03       		.uleb128 0x3
 12994 13e8 0A       		.byte	0xa
 12995 13e9 0D02     		.2byte	0x20d
 12996 13eb 00       		.byte	0
 12997 13ec 0F       		.uleb128 0xf
 12998 13ed 580F0000 		.4byte	.LVL249
 12999 13f1 393D0000 		.4byte	0x3d39
 13000 13f5 07140000 		.4byte	0x1407
 13001 13f9 10       		.uleb128 0x10
 13002 13fa 01       		.uleb128 0x1
 13003 13fb 51       		.byte	0x51
 13004 13fc 02       		.uleb128 0x2
 13005 13fd 91       		.byte	0x91
 13006 13fe 54       		.sleb128 -44
 13007 13ff 10       		.uleb128 0x10
 13008 1400 01       		.uleb128 0x1
 13009 1401 50       		.byte	0x50
 13010 1402 03       		.uleb128 0x3
 13011 1403 0A       		.byte	0xa
 13012 1404 5901     		.2byte	0x159
 13013 1406 00       		.byte	0
 13014 1407 0F       		.uleb128 0xf
 13015 1408 620F0000 		.4byte	.LVL250
 13016 140c 393D0000 		.4byte	0x3d39
 13017 1410 25140000 		.4byte	0x1425
 13018 1414 10       		.uleb128 0x10
 13019 1415 01       		.uleb128 0x1
 13020 1416 51       		.byte	0x51
 13021 1417 05       		.uleb128 0x5
 13022 1418 03       		.byte	0x3
 13023 1419 00000000 		.4byte	resultado
 13024 141d 10       		.uleb128 0x10
 13025 141e 01       		.uleb128 0x1
 13026 141f 50       		.byte	0x50
 13027 1420 03       		.uleb128 0x3
 13028 1421 0A       		.byte	0xa
 13029 1422 4D02     		.2byte	0x24d
ARM GAS  C:\Users\diego\AppData\Local\Temp\ccNdDNY6.s 			page 272


 13030 1424 00       		.byte	0
 13031 1425 0F       		.uleb128 0xf
 13032 1426 A60F0000 		.4byte	.LVL251
 13033 142a 533D0000 		.4byte	0x3d53
 13034 142e 39140000 		.4byte	0x1439
 13035 1432 10       		.uleb128 0x10
 13036 1433 01       		.uleb128 0x1
 13037 1434 50       		.byte	0x50
 13038 1435 02       		.uleb128 0x2
 13039 1436 74       		.byte	0x74
 13040 1437 00       		.sleb128 0
 13041 1438 00       		.byte	0
 13042 1439 0F       		.uleb128 0xf
 13043 143a BE0F0000 		.4byte	.LVL252
 13044 143e 533D0000 		.4byte	0x3d53
 13045 1442 52140000 		.4byte	0x1452
 13046 1446 10       		.uleb128 0x10
 13047 1447 01       		.uleb128 0x1
 13048 1448 51       		.byte	0x51
 13049 1449 01       		.uleb128 0x1
 13050 144a 3A       		.byte	0x3a
 13051 144b 10       		.uleb128 0x10
 13052 144c 01       		.uleb128 0x1
 13053 144d 50       		.byte	0x50
 13054 144e 02       		.uleb128 0x2
 13055 144f 74       		.byte	0x74
 13056 1450 00       		.sleb128 0
 13057 1451 00       		.byte	0
 13058 1452 0F       		.uleb128 0xf
 13059 1453 D00F0000 		.4byte	.LVL253
 13060 1457 533D0000 		.4byte	0x3d53
 13061 145b 66140000 		.4byte	0x1466
 13062 145f 10       		.uleb128 0x10
 13063 1460 01       		.uleb128 0x1
 13064 1461 50       		.byte	0x50
 13065 1462 02       		.uleb128 0x2
 13066 1463 74       		.byte	0x74
 13067 1464 00       		.sleb128 0
 13068 1465 00       		.byte	0
 13069 1466 0F       		.uleb128 0xf
 13070 1467 E80F0000 		.4byte	.LVL254
 13071 146b 533D0000 		.4byte	0x3d53
 13072 146f 7F140000 		.4byte	0x147f
 13073 1473 10       		.uleb128 0x10
 13074 1474 01       		.uleb128 0x1
 13075 1475 51       		.byte	0x51
 13076 1476 01       		.uleb128 0x1
 13077 1477 3A       		.byte	0x3a
 13078 1478 10       		.uleb128 0x10
 13079 1479 01       		.uleb128 0x1
 13080 147a 50       		.byte	0x50
 13081 147b 02       		.uleb128 0x2
 13082 147c 74       		.byte	0x74
 13083 147d 00       		.sleb128 0
 13084 147e 00       		.byte	0
 13085 147f 0F       		.uleb128 0xf
 13086 1480 FC0F0000 		.4byte	.LVL255
ARM GAS  C:\Users\diego\AppData\Local\Temp\ccNdDNY6.s 			page 273


 13087 1484 533D0000 		.4byte	0x3d53
 13088 1488 93140000 		.4byte	0x1493
 13089 148c 10       		.uleb128 0x10
 13090 148d 01       		.uleb128 0x1
 13091 148e 50       		.byte	0x50
 13092 148f 02       		.uleb128 0x2
 13093 1490 74       		.byte	0x74
 13094 1491 00       		.sleb128 0
 13095 1492 00       		.byte	0
 13096 1493 0F       		.uleb128 0xf
 13097 1494 14100000 		.4byte	.LVL256
 13098 1498 533D0000 		.4byte	0x3d53
 13099 149c AC140000 		.4byte	0x14ac
 13100 14a0 10       		.uleb128 0x10
 13101 14a1 01       		.uleb128 0x1
 13102 14a2 51       		.byte	0x51
 13103 14a3 01       		.uleb128 0x1
 13104 14a4 3A       		.byte	0x3a
 13105 14a5 10       		.uleb128 0x10
 13106 14a6 01       		.uleb128 0x1
 13107 14a7 50       		.byte	0x50
 13108 14a8 02       		.uleb128 0x2
 13109 14a9 74       		.byte	0x74
 13110 14aa 00       		.sleb128 0
 13111 14ab 00       		.byte	0
 13112 14ac 0F       		.uleb128 0xf
 13113 14ad 1C100000 		.4byte	.LVL257
 13114 14b1 6D3D0000 		.4byte	0x3d6d
 13115 14b5 C5140000 		.4byte	0x14c5
 13116 14b9 10       		.uleb128 0x10
 13117 14ba 01       		.uleb128 0x1
 13118 14bb 51       		.byte	0x51
 13119 14bc 02       		.uleb128 0x2
 13120 14bd 74       		.byte	0x74
 13121 14be 00       		.sleb128 0
 13122 14bf 10       		.uleb128 0x10
 13123 14c0 01       		.uleb128 0x1
 13124 14c1 50       		.byte	0x50
 13125 14c2 01       		.uleb128 0x1
 13126 14c3 38       		.byte	0x38
 13127 14c4 00       		.byte	0
 13128 14c5 0F       		.uleb128 0xf
 13129 14c6 30100000 		.4byte	.LVL258
 13130 14ca 533D0000 		.4byte	0x3d53
 13131 14ce D9140000 		.4byte	0x14d9
 13132 14d2 10       		.uleb128 0x10
 13133 14d3 01       		.uleb128 0x1
 13134 14d4 50       		.byte	0x50
 13135 14d5 02       		.uleb128 0x2
 13136 14d6 74       		.byte	0x74
 13137 14d7 00       		.sleb128 0
 13138 14d8 00       		.byte	0
 13139 14d9 0F       		.uleb128 0xf
 13140 14da 48100000 		.4byte	.LVL259
 13141 14de 533D0000 		.4byte	0x3d53
 13142 14e2 F2140000 		.4byte	0x14f2
 13143 14e6 10       		.uleb128 0x10
ARM GAS  C:\Users\diego\AppData\Local\Temp\ccNdDNY6.s 			page 274


 13144 14e7 01       		.uleb128 0x1
 13145 14e8 51       		.byte	0x51
 13146 14e9 01       		.uleb128 0x1
 13147 14ea 3A       		.byte	0x3a
 13148 14eb 10       		.uleb128 0x10
 13149 14ec 01       		.uleb128 0x1
 13150 14ed 50       		.byte	0x50
 13151 14ee 02       		.uleb128 0x2
 13152 14ef 74       		.byte	0x74
 13153 14f0 00       		.sleb128 0
 13154 14f1 00       		.byte	0
 13155 14f2 0F       		.uleb128 0xf
 13156 14f3 5A100000 		.4byte	.LVL260
 13157 14f7 833D0000 		.4byte	0x3d83
 13158 14fb 0C150000 		.4byte	0x150c
 13159 14ff 10       		.uleb128 0x10
 13160 1500 01       		.uleb128 0x1
 13161 1501 51       		.byte	0x51
 13162 1502 01       		.uleb128 0x1
 13163 1503 49       		.byte	0x49
 13164 1504 10       		.uleb128 0x10
 13165 1505 01       		.uleb128 0x1
 13166 1506 50       		.byte	0x50
 13167 1507 03       		.uleb128 0x3
 13168 1508 0A       		.byte	0xa
 13169 1509 4804     		.2byte	0x448
 13170 150b 00       		.byte	0
 13171 150c 0F       		.uleb128 0xf
 13172 150d 66100000 		.4byte	.LVL261
 13173 1511 833D0000 		.4byte	0x3d83
 13174 1515 26150000 		.4byte	0x1526
 13175 1519 10       		.uleb128 0x10
 13176 151a 01       		.uleb128 0x1
 13177 151b 51       		.byte	0x51
 13178 151c 01       		.uleb128 0x1
 13179 151d 49       		.byte	0x49
 13180 151e 10       		.uleb128 0x10
 13181 151f 01       		.uleb128 0x1
 13182 1520 50       		.byte	0x50
 13183 1521 03       		.uleb128 0x3
 13184 1522 0A       		.byte	0xa
 13185 1523 1E04     		.2byte	0x41e
 13186 1525 00       		.byte	0
 13187 1526 0F       		.uleb128 0xf
 13188 1527 6C100000 		.4byte	.LVL262
 13189 152b 9D3D0000 		.4byte	0x3d9d
 13190 152f 3A150000 		.4byte	0x153a
 13191 1533 10       		.uleb128 0x10
 13192 1534 01       		.uleb128 0x1
 13193 1535 50       		.byte	0x50
 13194 1536 02       		.uleb128 0x2
 13195 1537 74       		.byte	0x74
 13196 1538 00       		.sleb128 0
 13197 1539 00       		.byte	0
 13198 153a 0F       		.uleb128 0xf
 13199 153b AE100000 		.4byte	.LVL263
 13200 153f AE3D0000 		.4byte	0x3dae
ARM GAS  C:\Users\diego\AppData\Local\Temp\ccNdDNY6.s 			page 275


 13201 1543 5A150000 		.4byte	0x155a
 13202 1547 10       		.uleb128 0x10
 13203 1548 01       		.uleb128 0x1
 13204 1549 52       		.byte	0x52
 13205 154a 03       		.uleb128 0x3
 13206 154b 91       		.byte	0x91
 13207 154c B47F     		.sleb128 -76
 13208 154e 10       		.uleb128 0x10
 13209 154f 01       		.uleb128 0x1
 13210 1550 51       		.byte	0x51
 13211 1551 02       		.uleb128 0x2
 13212 1552 91       		.byte	0x91
 13213 1553 44       		.sleb128 -60
 13214 1554 10       		.uleb128 0x10
 13215 1555 01       		.uleb128 0x1
 13216 1556 50       		.byte	0x50
 13217 1557 01       		.uleb128 0x1
 13218 1558 32       		.byte	0x32
 13219 1559 00       		.byte	0
 13220 155a 0F       		.uleb128 0xf
 13221 155b C4100000 		.4byte	.LVL264
 13222 155f 533D0000 		.4byte	0x3d53
 13223 1563 6E150000 		.4byte	0x156e
 13224 1567 10       		.uleb128 0x10
 13225 1568 01       		.uleb128 0x1
 13226 1569 50       		.byte	0x50
 13227 156a 02       		.uleb128 0x2
 13228 156b 74       		.byte	0x74
 13229 156c 00       		.sleb128 0
 13230 156d 00       		.byte	0
 13231 156e 0F       		.uleb128 0xf
 13232 156f DC100000 		.4byte	.LVL265
 13233 1573 C93D0000 		.4byte	0x3dc9
 13234 1577 8B150000 		.4byte	0x158b
 13235 157b 10       		.uleb128 0x10
 13236 157c 01       		.uleb128 0x1
 13237 157d 51       		.byte	0x51
 13238 157e 02       		.uleb128 0x2
 13239 157f 74       		.byte	0x74
 13240 1580 00       		.sleb128 0
 13241 1581 10       		.uleb128 0x10
 13242 1582 01       		.uleb128 0x1
 13243 1583 50       		.byte	0x50
 13244 1584 05       		.uleb128 0x5
 13245 1585 03       		.byte	0x3
 13246 1586 00000000 		.4byte	resultado
 13247 158a 00       		.byte	0
 13248 158b 0F       		.uleb128 0xf
 13249 158c EE100000 		.4byte	.LVL266
 13250 1590 393D0000 		.4byte	0x3d39
 13251 1594 A6150000 		.4byte	0x15a6
 13252 1598 10       		.uleb128 0x10
 13253 1599 01       		.uleb128 0x1
 13254 159a 51       		.byte	0x51
 13255 159b 02       		.uleb128 0x2
 13256 159c 91       		.byte	0x91
 13257 159d 54       		.sleb128 -44
ARM GAS  C:\Users\diego\AppData\Local\Temp\ccNdDNY6.s 			page 276


 13258 159e 10       		.uleb128 0x10
 13259 159f 01       		.uleb128 0x1
 13260 15a0 50       		.byte	0x50
 13261 15a1 03       		.uleb128 0x3
 13262 15a2 0A       		.byte	0xa
 13263 15a3 4804     		.2byte	0x448
 13264 15a5 00       		.byte	0
 13265 15a6 0F       		.uleb128 0xf
 13266 15a7 F8100000 		.4byte	.LVL267
 13267 15ab 393D0000 		.4byte	0x3d39
 13268 15af C4150000 		.4byte	0x15c4
 13269 15b3 10       		.uleb128 0x10
 13270 15b4 01       		.uleb128 0x1
 13271 15b5 51       		.byte	0x51
 13272 15b6 05       		.uleb128 0x5
 13273 15b7 03       		.byte	0x3
 13274 15b8 00000000 		.4byte	resultado
 13275 15bc 10       		.uleb128 0x10
 13276 15bd 01       		.uleb128 0x1
 13277 15be 50       		.byte	0x50
 13278 15bf 03       		.uleb128 0x3
 13279 15c0 0A       		.byte	0xa
 13280 15c1 0E04     		.2byte	0x40e
 13281 15c3 00       		.byte	0
 13282 15c4 0F       		.uleb128 0xf
 13283 15c5 04110000 		.4byte	.LVL268
 13284 15c9 393D0000 		.4byte	0x3d39
 13285 15cd DF150000 		.4byte	0x15df
 13286 15d1 10       		.uleb128 0x10
 13287 15d2 01       		.uleb128 0x1
 13288 15d3 51       		.byte	0x51
 13289 15d4 02       		.uleb128 0x2
 13290 15d5 91       		.byte	0x91
 13291 15d6 54       		.sleb128 -44
 13292 15d7 10       		.uleb128 0x10
 13293 15d8 01       		.uleb128 0x1
 13294 15d9 50       		.byte	0x50
 13295 15da 03       		.uleb128 0x3
 13296 15db 0A       		.byte	0xa
 13297 15dc 1E04     		.2byte	0x41e
 13298 15de 00       		.byte	0
 13299 15df 0F       		.uleb128 0xf
 13300 15e0 0E110000 		.4byte	.LVL269
 13301 15e4 393D0000 		.4byte	0x3d39
 13302 15e8 FD150000 		.4byte	0x15fd
 13303 15ec 10       		.uleb128 0x10
 13304 15ed 01       		.uleb128 0x1
 13305 15ee 51       		.byte	0x51
 13306 15ef 05       		.uleb128 0x5
 13307 15f0 03       		.byte	0x3
 13308 15f1 00000000 		.4byte	resultado
 13309 15f5 10       		.uleb128 0x10
 13310 15f6 01       		.uleb128 0x1
 13311 15f7 50       		.byte	0x50
 13312 15f8 03       		.uleb128 0x3
 13313 15f9 0A       		.byte	0xa
 13314 15fa 3904     		.2byte	0x439
ARM GAS  C:\Users\diego\AppData\Local\Temp\ccNdDNY6.s 			page 277


 13315 15fc 00       		.byte	0
 13316 15fd 11       		.uleb128 0x11
 13317 15fe 24110000 		.4byte	.LVL270
 13318 1602 273D0000 		.4byte	0x3d27
 13319 1606 0F       		.uleb128 0xf
 13320 1607 AA120000 		.4byte	.LVL271
 13321 160b 533D0000 		.4byte	0x3d53
 13322 160f 1A160000 		.4byte	0x161a
 13323 1613 10       		.uleb128 0x10
 13324 1614 01       		.uleb128 0x1
 13325 1615 50       		.byte	0x50
 13326 1616 02       		.uleb128 0x2
 13327 1617 74       		.byte	0x74
 13328 1618 00       		.sleb128 0
 13329 1619 00       		.byte	0
 13330 161a 0F       		.uleb128 0xf
 13331 161b C2120000 		.4byte	.LVL272
 13332 161f 533D0000 		.4byte	0x3d53
 13333 1623 33160000 		.4byte	0x1633
 13334 1627 10       		.uleb128 0x10
 13335 1628 01       		.uleb128 0x1
 13336 1629 51       		.byte	0x51
 13337 162a 01       		.uleb128 0x1
 13338 162b 3A       		.byte	0x3a
 13339 162c 10       		.uleb128 0x10
 13340 162d 01       		.uleb128 0x1
 13341 162e 50       		.byte	0x50
 13342 162f 02       		.uleb128 0x2
 13343 1630 74       		.byte	0x74
 13344 1631 00       		.sleb128 0
 13345 1632 00       		.byte	0
 13346 1633 0F       		.uleb128 0xf
 13347 1634 D4120000 		.4byte	.LVL273
 13348 1638 533D0000 		.4byte	0x3d53
 13349 163c 47160000 		.4byte	0x1647
 13350 1640 10       		.uleb128 0x10
 13351 1641 01       		.uleb128 0x1
 13352 1642 50       		.byte	0x50
 13353 1643 02       		.uleb128 0x2
 13354 1644 74       		.byte	0x74
 13355 1645 00       		.sleb128 0
 13356 1646 00       		.byte	0
 13357 1647 0F       		.uleb128 0xf
 13358 1648 EC120000 		.4byte	.LVL274
 13359 164c 533D0000 		.4byte	0x3d53
 13360 1650 60160000 		.4byte	0x1660
 13361 1654 10       		.uleb128 0x10
 13362 1655 01       		.uleb128 0x1
 13363 1656 51       		.byte	0x51
 13364 1657 01       		.uleb128 0x1
 13365 1658 3A       		.byte	0x3a
 13366 1659 10       		.uleb128 0x10
 13367 165a 01       		.uleb128 0x1
 13368 165b 50       		.byte	0x50
 13369 165c 02       		.uleb128 0x2
 13370 165d 74       		.byte	0x74
 13371 165e 00       		.sleb128 0
ARM GAS  C:\Users\diego\AppData\Local\Temp\ccNdDNY6.s 			page 278


 13372 165f 00       		.byte	0
 13373 1660 0F       		.uleb128 0xf
 13374 1661 00130000 		.4byte	.LVL275
 13375 1665 533D0000 		.4byte	0x3d53
 13376 1669 74160000 		.4byte	0x1674
 13377 166d 10       		.uleb128 0x10
 13378 166e 01       		.uleb128 0x1
 13379 166f 50       		.byte	0x50
 13380 1670 02       		.uleb128 0x2
 13381 1671 74       		.byte	0x74
 13382 1672 00       		.sleb128 0
 13383 1673 00       		.byte	0
 13384 1674 0F       		.uleb128 0xf
 13385 1675 18130000 		.4byte	.LVL276
 13386 1679 533D0000 		.4byte	0x3d53
 13387 167d 8D160000 		.4byte	0x168d
 13388 1681 10       		.uleb128 0x10
 13389 1682 01       		.uleb128 0x1
 13390 1683 51       		.byte	0x51
 13391 1684 01       		.uleb128 0x1
 13392 1685 3A       		.byte	0x3a
 13393 1686 10       		.uleb128 0x10
 13394 1687 01       		.uleb128 0x1
 13395 1688 50       		.byte	0x50
 13396 1689 02       		.uleb128 0x2
 13397 168a 74       		.byte	0x74
 13398 168b 00       		.sleb128 0
 13399 168c 00       		.byte	0
 13400 168d 0F       		.uleb128 0xf
 13401 168e 20130000 		.4byte	.LVL277
 13402 1692 6D3D0000 		.4byte	0x3d6d
 13403 1696 A6160000 		.4byte	0x16a6
 13404 169a 10       		.uleb128 0x10
 13405 169b 01       		.uleb128 0x1
 13406 169c 51       		.byte	0x51
 13407 169d 02       		.uleb128 0x2
 13408 169e 74       		.byte	0x74
 13409 169f 00       		.sleb128 0
 13410 16a0 10       		.uleb128 0x10
 13411 16a1 01       		.uleb128 0x1
 13412 16a2 50       		.byte	0x50
 13413 16a3 01       		.uleb128 0x1
 13414 16a4 38       		.byte	0x38
 13415 16a5 00       		.byte	0
 13416 16a6 0F       		.uleb128 0xf
 13417 16a7 34130000 		.4byte	.LVL278
 13418 16ab 533D0000 		.4byte	0x3d53
 13419 16af BA160000 		.4byte	0x16ba
 13420 16b3 10       		.uleb128 0x10
 13421 16b4 01       		.uleb128 0x1
 13422 16b5 50       		.byte	0x50
 13423 16b6 02       		.uleb128 0x2
 13424 16b7 74       		.byte	0x74
 13425 16b8 00       		.sleb128 0
 13426 16b9 00       		.byte	0
 13427 16ba 0F       		.uleb128 0xf
 13428 16bb 4C130000 		.4byte	.LVL279
ARM GAS  C:\Users\diego\AppData\Local\Temp\ccNdDNY6.s 			page 279


 13429 16bf 533D0000 		.4byte	0x3d53
 13430 16c3 D3160000 		.4byte	0x16d3
 13431 16c7 10       		.uleb128 0x10
 13432 16c8 01       		.uleb128 0x1
 13433 16c9 51       		.byte	0x51
 13434 16ca 01       		.uleb128 0x1
 13435 16cb 3A       		.byte	0x3a
 13436 16cc 10       		.uleb128 0x10
 13437 16cd 01       		.uleb128 0x1
 13438 16ce 50       		.byte	0x50
 13439 16cf 02       		.uleb128 0x2
 13440 16d0 74       		.byte	0x74
 13441 16d1 00       		.sleb128 0
 13442 16d2 00       		.byte	0
 13443 16d3 0F       		.uleb128 0xf
 13444 16d4 5C130000 		.4byte	.LVL280
 13445 16d8 833D0000 		.4byte	0x3d83
 13446 16dc EC160000 		.4byte	0x16ec
 13447 16e0 10       		.uleb128 0x10
 13448 16e1 01       		.uleb128 0x1
 13449 16e2 51       		.byte	0x51
 13450 16e3 01       		.uleb128 0x1
 13451 16e4 49       		.byte	0x49
 13452 16e5 10       		.uleb128 0x10
 13453 16e6 01       		.uleb128 0x1
 13454 16e7 50       		.byte	0x50
 13455 16e8 02       		.uleb128 0x2
 13456 16e9 08       		.byte	0x8
 13457 16ea C0       		.byte	0xc0
 13458 16eb 00       		.byte	0
 13459 16ec 0F       		.uleb128 0xf
 13460 16ed 68130000 		.4byte	.LVL281
 13461 16f1 833D0000 		.4byte	0x3d83
 13462 16f5 06170000 		.4byte	0x1706
 13463 16f9 10       		.uleb128 0x10
 13464 16fa 01       		.uleb128 0x1
 13465 16fb 51       		.byte	0x51
 13466 16fc 01       		.uleb128 0x1
 13467 16fd 49       		.byte	0x49
 13468 16fe 10       		.uleb128 0x10
 13469 16ff 01       		.uleb128 0x1
 13470 1700 50       		.byte	0x50
 13471 1701 03       		.uleb128 0x3
 13472 1702 0A       		.byte	0xa
 13473 1703 1901     		.2byte	0x119
 13474 1705 00       		.byte	0
 13475 1706 0F       		.uleb128 0xf
 13476 1707 6E130000 		.4byte	.LVL282
 13477 170b 9D3D0000 		.4byte	0x3d9d
 13478 170f 1A170000 		.4byte	0x171a
 13479 1713 10       		.uleb128 0x10
 13480 1714 01       		.uleb128 0x1
 13481 1715 50       		.byte	0x50
 13482 1716 02       		.uleb128 0x2
 13483 1717 74       		.byte	0x74
 13484 1718 00       		.sleb128 0
 13485 1719 00       		.byte	0
ARM GAS  C:\Users\diego\AppData\Local\Temp\ccNdDNY6.s 			page 280


 13486 171a 0F       		.uleb128 0xf
 13487 171b B0130000 		.4byte	.LVL283
 13488 171f AE3D0000 		.4byte	0x3dae
 13489 1723 3A170000 		.4byte	0x173a
 13490 1727 10       		.uleb128 0x10
 13491 1728 01       		.uleb128 0x1
 13492 1729 52       		.byte	0x52
 13493 172a 03       		.uleb128 0x3
 13494 172b 91       		.byte	0x91
 13495 172c B47F     		.sleb128 -76
 13496 172e 10       		.uleb128 0x10
 13497 172f 01       		.uleb128 0x1
 13498 1730 51       		.byte	0x51
 13499 1731 02       		.uleb128 0x2
 13500 1732 91       		.byte	0x91
 13501 1733 44       		.sleb128 -60
 13502 1734 10       		.uleb128 0x10
 13503 1735 01       		.uleb128 0x1
 13504 1736 50       		.byte	0x50
 13505 1737 01       		.uleb128 0x1
 13506 1738 32       		.byte	0x32
 13507 1739 00       		.byte	0
 13508 173a 0F       		.uleb128 0xf
 13509 173b C6130000 		.4byte	.LVL284
 13510 173f 533D0000 		.4byte	0x3d53
 13511 1743 4E170000 		.4byte	0x174e
 13512 1747 10       		.uleb128 0x10
 13513 1748 01       		.uleb128 0x1
 13514 1749 50       		.byte	0x50
 13515 174a 02       		.uleb128 0x2
 13516 174b 74       		.byte	0x74
 13517 174c 00       		.sleb128 0
 13518 174d 00       		.byte	0
 13519 174e 0F       		.uleb128 0xf
 13520 174f DE130000 		.4byte	.LVL285
 13521 1753 C93D0000 		.4byte	0x3dc9
 13522 1757 6B170000 		.4byte	0x176b
 13523 175b 10       		.uleb128 0x10
 13524 175c 01       		.uleb128 0x1
 13525 175d 51       		.byte	0x51
 13526 175e 02       		.uleb128 0x2
 13527 175f 74       		.byte	0x74
 13528 1760 00       		.sleb128 0
 13529 1761 10       		.uleb128 0x10
 13530 1762 01       		.uleb128 0x1
 13531 1763 50       		.byte	0x50
 13532 1764 05       		.uleb128 0x5
 13533 1765 03       		.byte	0x3
 13534 1766 00000000 		.4byte	resultado
 13535 176a 00       		.byte	0
 13536 176b 0F       		.uleb128 0xf
 13537 176c EE130000 		.4byte	.LVL286
 13538 1770 393D0000 		.4byte	0x3d39
 13539 1774 85170000 		.4byte	0x1785
 13540 1778 10       		.uleb128 0x10
 13541 1779 01       		.uleb128 0x1
 13542 177a 51       		.byte	0x51
ARM GAS  C:\Users\diego\AppData\Local\Temp\ccNdDNY6.s 			page 281


 13543 177b 02       		.uleb128 0x2
 13544 177c 91       		.byte	0x91
 13545 177d 54       		.sleb128 -44
 13546 177e 10       		.uleb128 0x10
 13547 177f 01       		.uleb128 0x1
 13548 1780 50       		.byte	0x50
 13549 1781 02       		.uleb128 0x2
 13550 1782 08       		.byte	0x8
 13551 1783 C0       		.byte	0xc0
 13552 1784 00       		.byte	0
 13553 1785 0F       		.uleb128 0xf
 13554 1786 F8130000 		.4byte	.LVL287
 13555 178a 393D0000 		.4byte	0x3d39
 13556 178e A3170000 		.4byte	0x17a3
 13557 1792 10       		.uleb128 0x10
 13558 1793 01       		.uleb128 0x1
 13559 1794 51       		.byte	0x51
 13560 1795 05       		.uleb128 0x5
 13561 1796 03       		.byte	0x3
 13562 1797 00000000 		.4byte	resultado
 13563 179b 10       		.uleb128 0x10
 13564 179c 01       		.uleb128 0x1
 13565 179d 50       		.byte	0x50
 13566 179e 03       		.uleb128 0x3
 13567 179f 0A       		.byte	0xa
 13568 17a0 0002     		.2byte	0x200
 13569 17a2 00       		.byte	0
 13570 17a3 0F       		.uleb128 0xf
 13571 17a4 4A140000 		.4byte	.LVL288
 13572 17a8 393D0000 		.4byte	0x3d39
 13573 17ac BE170000 		.4byte	0x17be
 13574 17b0 10       		.uleb128 0x10
 13575 17b1 01       		.uleb128 0x1
 13576 17b2 51       		.byte	0x51
 13577 17b3 02       		.uleb128 0x2
 13578 17b4 91       		.byte	0x91
 13579 17b5 54       		.sleb128 -44
 13580 17b6 10       		.uleb128 0x10
 13581 17b7 01       		.uleb128 0x1
 13582 17b8 50       		.byte	0x50
 13583 17b9 03       		.uleb128 0x3
 13584 17ba 0A       		.byte	0xa
 13585 17bb 1901     		.2byte	0x119
 13586 17bd 00       		.byte	0
 13587 17be 0F       		.uleb128 0xf
 13588 17bf 54140000 		.4byte	.LVL289
 13589 17c3 393D0000 		.4byte	0x3d39
 13590 17c7 DC170000 		.4byte	0x17dc
 13591 17cb 10       		.uleb128 0x10
 13592 17cc 01       		.uleb128 0x1
 13593 17cd 51       		.byte	0x51
 13594 17ce 05       		.uleb128 0x5
 13595 17cf 03       		.byte	0x3
 13596 17d0 00000000 		.4byte	resultado
 13597 17d4 10       		.uleb128 0x10
 13598 17d5 01       		.uleb128 0x1
 13599 17d6 50       		.byte	0x50
ARM GAS  C:\Users\diego\AppData\Local\Temp\ccNdDNY6.s 			page 282


 13600 17d7 03       		.uleb128 0x3
 13601 17d8 0A       		.byte	0xa
 13602 17d9 2702     		.2byte	0x227
 13603 17db 00       		.byte	0
 13604 17dc 0F       		.uleb128 0xf
 13605 17dd B0140000 		.4byte	.LVL290
 13606 17e1 533D0000 		.4byte	0x3d53
 13607 17e5 F0170000 		.4byte	0x17f0
 13608 17e9 10       		.uleb128 0x10
 13609 17ea 01       		.uleb128 0x1
 13610 17eb 50       		.byte	0x50
 13611 17ec 02       		.uleb128 0x2
 13612 17ed 74       		.byte	0x74
 13613 17ee 00       		.sleb128 0
 13614 17ef 00       		.byte	0
 13615 17f0 0F       		.uleb128 0xf
 13616 17f1 C8140000 		.4byte	.LVL291
 13617 17f5 533D0000 		.4byte	0x3d53
 13618 17f9 09180000 		.4byte	0x1809
 13619 17fd 10       		.uleb128 0x10
 13620 17fe 01       		.uleb128 0x1
 13621 17ff 51       		.byte	0x51
 13622 1800 01       		.uleb128 0x1
 13623 1801 3A       		.byte	0x3a
 13624 1802 10       		.uleb128 0x10
 13625 1803 01       		.uleb128 0x1
 13626 1804 50       		.byte	0x50
 13627 1805 02       		.uleb128 0x2
 13628 1806 74       		.byte	0x74
 13629 1807 00       		.sleb128 0
 13630 1808 00       		.byte	0
 13631 1809 0F       		.uleb128 0xf
 13632 180a DA140000 		.4byte	.LVL292
 13633 180e 533D0000 		.4byte	0x3d53
 13634 1812 1D180000 		.4byte	0x181d
 13635 1816 10       		.uleb128 0x10
 13636 1817 01       		.uleb128 0x1
 13637 1818 50       		.byte	0x50
 13638 1819 02       		.uleb128 0x2
 13639 181a 74       		.byte	0x74
 13640 181b 00       		.sleb128 0
 13641 181c 00       		.byte	0
 13642 181d 0F       		.uleb128 0xf
 13643 181e F2140000 		.4byte	.LVL293
 13644 1822 533D0000 		.4byte	0x3d53
 13645 1826 36180000 		.4byte	0x1836
 13646 182a 10       		.uleb128 0x10
 13647 182b 01       		.uleb128 0x1
 13648 182c 51       		.byte	0x51
 13649 182d 01       		.uleb128 0x1
 13650 182e 3A       		.byte	0x3a
 13651 182f 10       		.uleb128 0x10
 13652 1830 01       		.uleb128 0x1
 13653 1831 50       		.byte	0x50
 13654 1832 02       		.uleb128 0x2
 13655 1833 74       		.byte	0x74
 13656 1834 00       		.sleb128 0
ARM GAS  C:\Users\diego\AppData\Local\Temp\ccNdDNY6.s 			page 283


 13657 1835 00       		.byte	0
 13658 1836 0F       		.uleb128 0xf
 13659 1837 06150000 		.4byte	.LVL294
 13660 183b 533D0000 		.4byte	0x3d53
 13661 183f 4A180000 		.4byte	0x184a
 13662 1843 10       		.uleb128 0x10
 13663 1844 01       		.uleb128 0x1
 13664 1845 50       		.byte	0x50
 13665 1846 02       		.uleb128 0x2
 13666 1847 74       		.byte	0x74
 13667 1848 00       		.sleb128 0
 13668 1849 00       		.byte	0
 13669 184a 0F       		.uleb128 0xf
 13670 184b 1E150000 		.4byte	.LVL295
 13671 184f 533D0000 		.4byte	0x3d53
 13672 1853 63180000 		.4byte	0x1863
 13673 1857 10       		.uleb128 0x10
 13674 1858 01       		.uleb128 0x1
 13675 1859 51       		.byte	0x51
 13676 185a 01       		.uleb128 0x1
 13677 185b 3A       		.byte	0x3a
 13678 185c 10       		.uleb128 0x10
 13679 185d 01       		.uleb128 0x1
 13680 185e 50       		.byte	0x50
 13681 185f 02       		.uleb128 0x2
 13682 1860 74       		.byte	0x74
 13683 1861 00       		.sleb128 0
 13684 1862 00       		.byte	0
 13685 1863 0F       		.uleb128 0xf
 13686 1864 26150000 		.4byte	.LVL296
 13687 1868 6D3D0000 		.4byte	0x3d6d
 13688 186c 7C180000 		.4byte	0x187c
 13689 1870 10       		.uleb128 0x10
 13690 1871 01       		.uleb128 0x1
 13691 1872 51       		.byte	0x51
 13692 1873 02       		.uleb128 0x2
 13693 1874 74       		.byte	0x74
 13694 1875 00       		.sleb128 0
 13695 1876 10       		.uleb128 0x10
 13696 1877 01       		.uleb128 0x1
 13697 1878 50       		.byte	0x50
 13698 1879 01       		.uleb128 0x1
 13699 187a 38       		.byte	0x38
 13700 187b 00       		.byte	0
 13701 187c 0F       		.uleb128 0xf
 13702 187d 3A150000 		.4byte	.LVL297
 13703 1881 533D0000 		.4byte	0x3d53
 13704 1885 90180000 		.4byte	0x1890
 13705 1889 10       		.uleb128 0x10
 13706 188a 01       		.uleb128 0x1
 13707 188b 50       		.byte	0x50
 13708 188c 02       		.uleb128 0x2
 13709 188d 74       		.byte	0x74
 13710 188e 00       		.sleb128 0
 13711 188f 00       		.byte	0
 13712 1890 0F       		.uleb128 0xf
 13713 1891 52150000 		.4byte	.LVL298
ARM GAS  C:\Users\diego\AppData\Local\Temp\ccNdDNY6.s 			page 284


 13714 1895 533D0000 		.4byte	0x3d53
 13715 1899 A9180000 		.4byte	0x18a9
 13716 189d 10       		.uleb128 0x10
 13717 189e 01       		.uleb128 0x1
 13718 189f 51       		.byte	0x51
 13719 18a0 01       		.uleb128 0x1
 13720 18a1 3A       		.byte	0x3a
 13721 18a2 10       		.uleb128 0x10
 13722 18a3 01       		.uleb128 0x1
 13723 18a4 50       		.byte	0x50
 13724 18a5 02       		.uleb128 0x2
 13725 18a6 74       		.byte	0x74
 13726 18a7 00       		.sleb128 0
 13727 18a8 00       		.byte	0
 13728 18a9 0F       		.uleb128 0xf
 13729 18aa 62150000 		.4byte	.LVL299
 13730 18ae 833D0000 		.4byte	0x3d83
 13731 18b2 C2180000 		.4byte	0x18c2
 13732 18b6 10       		.uleb128 0x10
 13733 18b7 01       		.uleb128 0x1
 13734 18b8 51       		.byte	0x51
 13735 18b9 01       		.uleb128 0x1
 13736 18ba 49       		.byte	0x49
 13737 18bb 10       		.uleb128 0x10
 13738 18bc 01       		.uleb128 0x1
 13739 18bd 50       		.byte	0x50
 13740 18be 02       		.uleb128 0x2
 13741 18bf 08       		.byte	0x8
 13742 18c0 D9       		.byte	0xd9
 13743 18c1 00       		.byte	0
 13744 18c2 0F       		.uleb128 0xf
 13745 18c3 6E150000 		.4byte	.LVL300
 13746 18c7 833D0000 		.4byte	0x3d83
 13747 18cb DC180000 		.4byte	0x18dc
 13748 18cf 10       		.uleb128 0x10
 13749 18d0 01       		.uleb128 0x1
 13750 18d1 51       		.byte	0x51
 13751 18d2 01       		.uleb128 0x1
 13752 18d3 49       		.byte	0x49
 13753 18d4 10       		.uleb128 0x10
 13754 18d5 01       		.uleb128 0x1
 13755 18d6 50       		.byte	0x50
 13756 18d7 03       		.uleb128 0x3
 13757 18d8 0A       		.byte	0xa
 13758 18d9 4001     		.2byte	0x140
 13759 18db 00       		.byte	0
 13760 18dc 0F       		.uleb128 0xf
 13761 18dd 74150000 		.4byte	.LVL301
 13762 18e1 9D3D0000 		.4byte	0x3d9d
 13763 18e5 F0180000 		.4byte	0x18f0
 13764 18e9 10       		.uleb128 0x10
 13765 18ea 01       		.uleb128 0x1
 13766 18eb 50       		.byte	0x50
 13767 18ec 02       		.uleb128 0x2
 13768 18ed 74       		.byte	0x74
 13769 18ee 00       		.sleb128 0
 13770 18ef 00       		.byte	0
ARM GAS  C:\Users\diego\AppData\Local\Temp\ccNdDNY6.s 			page 285


 13771 18f0 0F       		.uleb128 0xf
 13772 18f1 B6150000 		.4byte	.LVL302
 13773 18f5 AE3D0000 		.4byte	0x3dae
 13774 18f9 10190000 		.4byte	0x1910
 13775 18fd 10       		.uleb128 0x10
 13776 18fe 01       		.uleb128 0x1
 13777 18ff 52       		.byte	0x52
 13778 1900 03       		.uleb128 0x3
 13779 1901 91       		.byte	0x91
 13780 1902 B47F     		.sleb128 -76
 13781 1904 10       		.uleb128 0x10
 13782 1905 01       		.uleb128 0x1
 13783 1906 51       		.byte	0x51
 13784 1907 02       		.uleb128 0x2
 13785 1908 91       		.byte	0x91
 13786 1909 44       		.sleb128 -60
 13787 190a 10       		.uleb128 0x10
 13788 190b 01       		.uleb128 0x1
 13789 190c 50       		.byte	0x50
 13790 190d 01       		.uleb128 0x1
 13791 190e 32       		.byte	0x32
 13792 190f 00       		.byte	0
 13793 1910 0F       		.uleb128 0xf
 13794 1911 CC150000 		.4byte	.LVL303
 13795 1915 533D0000 		.4byte	0x3d53
 13796 1919 24190000 		.4byte	0x1924
 13797 191d 10       		.uleb128 0x10
 13798 191e 01       		.uleb128 0x1
 13799 191f 50       		.byte	0x50
 13800 1920 02       		.uleb128 0x2
 13801 1921 74       		.byte	0x74
 13802 1922 00       		.sleb128 0
 13803 1923 00       		.byte	0
 13804 1924 0F       		.uleb128 0xf
 13805 1925 E4150000 		.4byte	.LVL304
 13806 1929 C93D0000 		.4byte	0x3dc9
 13807 192d 41190000 		.4byte	0x1941
 13808 1931 10       		.uleb128 0x10
 13809 1932 01       		.uleb128 0x1
 13810 1933 51       		.byte	0x51
 13811 1934 02       		.uleb128 0x2
 13812 1935 74       		.byte	0x74
 13813 1936 00       		.sleb128 0
 13814 1937 10       		.uleb128 0x10
 13815 1938 01       		.uleb128 0x1
 13816 1939 50       		.byte	0x50
 13817 193a 05       		.uleb128 0x5
 13818 193b 03       		.byte	0x3
 13819 193c 00000000 		.4byte	resultado
 13820 1940 00       		.byte	0
 13821 1941 0F       		.uleb128 0xf
 13822 1942 F4150000 		.4byte	.LVL305
 13823 1946 393D0000 		.4byte	0x3d39
 13824 194a 5B190000 		.4byte	0x195b
 13825 194e 10       		.uleb128 0x10
 13826 194f 01       		.uleb128 0x1
 13827 1950 51       		.byte	0x51
ARM GAS  C:\Users\diego\AppData\Local\Temp\ccNdDNY6.s 			page 286


 13828 1951 02       		.uleb128 0x2
 13829 1952 91       		.byte	0x91
 13830 1953 54       		.sleb128 -44
 13831 1954 10       		.uleb128 0x10
 13832 1955 01       		.uleb128 0x1
 13833 1956 50       		.byte	0x50
 13834 1957 02       		.uleb128 0x2
 13835 1958 08       		.byte	0x8
 13836 1959 D9       		.byte	0xd9
 13837 195a 00       		.byte	0
 13838 195b 0F       		.uleb128 0xf
 13839 195c FE150000 		.4byte	.LVL306
 13840 1960 393D0000 		.4byte	0x3d39
 13841 1964 79190000 		.4byte	0x1979
 13842 1968 10       		.uleb128 0x10
 13843 1969 01       		.uleb128 0x1
 13844 196a 51       		.byte	0x51
 13845 196b 05       		.uleb128 0x5
 13846 196c 03       		.byte	0x3
 13847 196d 00000000 		.4byte	resultado
 13848 1971 10       		.uleb128 0x10
 13849 1972 01       		.uleb128 0x1
 13850 1973 50       		.byte	0x50
 13851 1974 03       		.uleb128 0x3
 13852 1975 0A       		.byte	0xa
 13853 1976 1A02     		.2byte	0x21a
 13854 1978 00       		.byte	0
 13855 1979 0F       		.uleb128 0xf
 13856 197a 0A160000 		.4byte	.LVL307
 13857 197e 393D0000 		.4byte	0x3d39
 13858 1982 94190000 		.4byte	0x1994
 13859 1986 10       		.uleb128 0x10
 13860 1987 01       		.uleb128 0x1
 13861 1988 51       		.byte	0x51
 13862 1989 02       		.uleb128 0x2
 13863 198a 91       		.byte	0x91
 13864 198b 54       		.sleb128 -44
 13865 198c 10       		.uleb128 0x10
 13866 198d 01       		.uleb128 0x1
 13867 198e 50       		.byte	0x50
 13868 198f 03       		.uleb128 0x3
 13869 1990 0A       		.byte	0xa
 13870 1991 4001     		.2byte	0x140
 13871 1993 00       		.byte	0
 13872 1994 0F       		.uleb128 0xf
 13873 1995 14160000 		.4byte	.LVL308
 13874 1999 393D0000 		.4byte	0x3d39
 13875 199d B2190000 		.4byte	0x19b2
 13876 19a1 10       		.uleb128 0x10
 13877 19a2 01       		.uleb128 0x1
 13878 19a3 51       		.byte	0x51
 13879 19a4 05       		.uleb128 0x5
 13880 19a5 03       		.byte	0x3
 13881 19a6 00000000 		.4byte	resultado
 13882 19aa 10       		.uleb128 0x10
 13883 19ab 01       		.uleb128 0x1
 13884 19ac 50       		.byte	0x50
ARM GAS  C:\Users\diego\AppData\Local\Temp\ccNdDNY6.s 			page 287


 13885 19ad 03       		.uleb128 0x3
 13886 19ae 0A       		.byte	0xa
 13887 19af 4002     		.2byte	0x240
 13888 19b1 00       		.byte	0
 13889 19b2 0F       		.uleb128 0xf
 13890 19b3 58160000 		.4byte	.LVL309
 13891 19b7 533D0000 		.4byte	0x3d53
 13892 19bb C6190000 		.4byte	0x19c6
 13893 19bf 10       		.uleb128 0x10
 13894 19c0 01       		.uleb128 0x1
 13895 19c1 50       		.byte	0x50
 13896 19c2 02       		.uleb128 0x2
 13897 19c3 74       		.byte	0x74
 13898 19c4 00       		.sleb128 0
 13899 19c5 00       		.byte	0
 13900 19c6 0F       		.uleb128 0xf
 13901 19c7 70160000 		.4byte	.LVL310
 13902 19cb 533D0000 		.4byte	0x3d53
 13903 19cf DF190000 		.4byte	0x19df
 13904 19d3 10       		.uleb128 0x10
 13905 19d4 01       		.uleb128 0x1
 13906 19d5 51       		.byte	0x51
 13907 19d6 01       		.uleb128 0x1
 13908 19d7 3A       		.byte	0x3a
 13909 19d8 10       		.uleb128 0x10
 13910 19d9 01       		.uleb128 0x1
 13911 19da 50       		.byte	0x50
 13912 19db 02       		.uleb128 0x2
 13913 19dc 74       		.byte	0x74
 13914 19dd 00       		.sleb128 0
 13915 19de 00       		.byte	0
 13916 19df 0F       		.uleb128 0xf
 13917 19e0 82160000 		.4byte	.LVL311
 13918 19e4 533D0000 		.4byte	0x3d53
 13919 19e8 F3190000 		.4byte	0x19f3
 13920 19ec 10       		.uleb128 0x10
 13921 19ed 01       		.uleb128 0x1
 13922 19ee 50       		.byte	0x50
 13923 19ef 02       		.uleb128 0x2
 13924 19f0 74       		.byte	0x74
 13925 19f1 00       		.sleb128 0
 13926 19f2 00       		.byte	0
 13927 19f3 0F       		.uleb128 0xf
 13928 19f4 9A160000 		.4byte	.LVL312
 13929 19f8 533D0000 		.4byte	0x3d53
 13930 19fc 0C1A0000 		.4byte	0x1a0c
 13931 1a00 10       		.uleb128 0x10
 13932 1a01 01       		.uleb128 0x1
 13933 1a02 51       		.byte	0x51
 13934 1a03 01       		.uleb128 0x1
 13935 1a04 3A       		.byte	0x3a
 13936 1a05 10       		.uleb128 0x10
 13937 1a06 01       		.uleb128 0x1
 13938 1a07 50       		.byte	0x50
 13939 1a08 02       		.uleb128 0x2
 13940 1a09 74       		.byte	0x74
 13941 1a0a 00       		.sleb128 0
ARM GAS  C:\Users\diego\AppData\Local\Temp\ccNdDNY6.s 			page 288


 13942 1a0b 00       		.byte	0
 13943 1a0c 0F       		.uleb128 0xf
 13944 1a0d AE160000 		.4byte	.LVL313
 13945 1a11 533D0000 		.4byte	0x3d53
 13946 1a15 201A0000 		.4byte	0x1a20
 13947 1a19 10       		.uleb128 0x10
 13948 1a1a 01       		.uleb128 0x1
 13949 1a1b 50       		.byte	0x50
 13950 1a1c 02       		.uleb128 0x2
 13951 1a1d 74       		.byte	0x74
 13952 1a1e 00       		.sleb128 0
 13953 1a1f 00       		.byte	0
 13954 1a20 0F       		.uleb128 0xf
 13955 1a21 C6160000 		.4byte	.LVL314
 13956 1a25 533D0000 		.4byte	0x3d53
 13957 1a29 391A0000 		.4byte	0x1a39
 13958 1a2d 10       		.uleb128 0x10
 13959 1a2e 01       		.uleb128 0x1
 13960 1a2f 51       		.byte	0x51
 13961 1a30 01       		.uleb128 0x1
 13962 1a31 3A       		.byte	0x3a
 13963 1a32 10       		.uleb128 0x10
 13964 1a33 01       		.uleb128 0x1
 13965 1a34 50       		.byte	0x50
 13966 1a35 02       		.uleb128 0x2
 13967 1a36 74       		.byte	0x74
 13968 1a37 00       		.sleb128 0
 13969 1a38 00       		.byte	0
 13970 1a39 0F       		.uleb128 0xf
 13971 1a3a CE160000 		.4byte	.LVL315
 13972 1a3e 6D3D0000 		.4byte	0x3d6d
 13973 1a42 521A0000 		.4byte	0x1a52
 13974 1a46 10       		.uleb128 0x10
 13975 1a47 01       		.uleb128 0x1
 13976 1a48 51       		.byte	0x51
 13977 1a49 02       		.uleb128 0x2
 13978 1a4a 74       		.byte	0x74
 13979 1a4b 00       		.sleb128 0
 13980 1a4c 10       		.uleb128 0x10
 13981 1a4d 01       		.uleb128 0x1
 13982 1a4e 50       		.byte	0x50
 13983 1a4f 01       		.uleb128 0x1
 13984 1a50 38       		.byte	0x38
 13985 1a51 00       		.byte	0
 13986 1a52 0F       		.uleb128 0xf
 13987 1a53 28170000 		.4byte	.LVL316
 13988 1a57 533D0000 		.4byte	0x3d53
 13989 1a5b 661A0000 		.4byte	0x1a66
 13990 1a5f 10       		.uleb128 0x10
 13991 1a60 01       		.uleb128 0x1
 13992 1a61 50       		.byte	0x50
 13993 1a62 02       		.uleb128 0x2
 13994 1a63 74       		.byte	0x74
 13995 1a64 00       		.sleb128 0
 13996 1a65 00       		.byte	0
 13997 1a66 0F       		.uleb128 0xf
 13998 1a67 40170000 		.4byte	.LVL317
ARM GAS  C:\Users\diego\AppData\Local\Temp\ccNdDNY6.s 			page 289


 13999 1a6b 533D0000 		.4byte	0x3d53
 14000 1a6f 7F1A0000 		.4byte	0x1a7f
 14001 1a73 10       		.uleb128 0x10
 14002 1a74 01       		.uleb128 0x1
 14003 1a75 51       		.byte	0x51
 14004 1a76 01       		.uleb128 0x1
 14005 1a77 3A       		.byte	0x3a
 14006 1a78 10       		.uleb128 0x10
 14007 1a79 01       		.uleb128 0x1
 14008 1a7a 50       		.byte	0x50
 14009 1a7b 02       		.uleb128 0x2
 14010 1a7c 74       		.byte	0x74
 14011 1a7d 00       		.sleb128 0
 14012 1a7e 00       		.byte	0
 14013 1a7f 0F       		.uleb128 0xf
 14014 1a80 52170000 		.4byte	.LVL318
 14015 1a84 833D0000 		.4byte	0x3d83
 14016 1a88 991A0000 		.4byte	0x1a99
 14017 1a8c 10       		.uleb128 0x10
 14018 1a8d 01       		.uleb128 0x1
 14019 1a8e 51       		.byte	0x51
 14020 1a8f 01       		.uleb128 0x1
 14021 1a90 49       		.byte	0x49
 14022 1a91 10       		.uleb128 0x10
 14023 1a92 01       		.uleb128 0x1
 14024 1a93 50       		.byte	0x50
 14025 1a94 03       		.uleb128 0x3
 14026 1a95 0A       		.byte	0xa
 14027 1a96 0001     		.2byte	0x100
 14028 1a98 00       		.byte	0
 14029 1a99 0F       		.uleb128 0xf
 14030 1a9a 5E170000 		.4byte	.LVL319
 14031 1a9e 833D0000 		.4byte	0x3d83
 14032 1aa2 B31A0000 		.4byte	0x1ab3
 14033 1aa6 10       		.uleb128 0x10
 14034 1aa7 01       		.uleb128 0x1
 14035 1aa8 51       		.byte	0x51
 14036 1aa9 01       		.uleb128 0x1
 14037 1aaa 49       		.byte	0x49
 14038 1aab 10       		.uleb128 0x10
 14039 1aac 01       		.uleb128 0x1
 14040 1aad 50       		.byte	0x50
 14041 1aae 03       		.uleb128 0x3
 14042 1aaf 0A       		.byte	0xa
 14043 1ab0 5901     		.2byte	0x159
 14044 1ab2 00       		.byte	0
 14045 1ab3 0F       		.uleb128 0xf
 14046 1ab4 64170000 		.4byte	.LVL320
 14047 1ab8 9D3D0000 		.4byte	0x3d9d
 14048 1abc C71A0000 		.4byte	0x1ac7
 14049 1ac0 10       		.uleb128 0x10
 14050 1ac1 01       		.uleb128 0x1
 14051 1ac2 50       		.byte	0x50
 14052 1ac3 02       		.uleb128 0x2
 14053 1ac4 74       		.byte	0x74
 14054 1ac5 00       		.sleb128 0
 14055 1ac6 00       		.byte	0
ARM GAS  C:\Users\diego\AppData\Local\Temp\ccNdDNY6.s 			page 290


 14056 1ac7 0F       		.uleb128 0xf
 14057 1ac8 A6170000 		.4byte	.LVL321
 14058 1acc AE3D0000 		.4byte	0x3dae
 14059 1ad0 E71A0000 		.4byte	0x1ae7
 14060 1ad4 10       		.uleb128 0x10
 14061 1ad5 01       		.uleb128 0x1
 14062 1ad6 52       		.byte	0x52
 14063 1ad7 03       		.uleb128 0x3
 14064 1ad8 91       		.byte	0x91
 14065 1ad9 B47F     		.sleb128 -76
 14066 1adb 10       		.uleb128 0x10
 14067 1adc 01       		.uleb128 0x1
 14068 1add 51       		.byte	0x51
 14069 1ade 02       		.uleb128 0x2
 14070 1adf 91       		.byte	0x91
 14071 1ae0 44       		.sleb128 -60
 14072 1ae1 10       		.uleb128 0x10
 14073 1ae2 01       		.uleb128 0x1
 14074 1ae3 50       		.byte	0x50
 14075 1ae4 01       		.uleb128 0x1
 14076 1ae5 32       		.byte	0x32
 14077 1ae6 00       		.byte	0
 14078 1ae7 0F       		.uleb128 0xf
 14079 1ae8 BC170000 		.4byte	.LVL322
 14080 1aec 533D0000 		.4byte	0x3d53
 14081 1af0 FB1A0000 		.4byte	0x1afb
 14082 1af4 10       		.uleb128 0x10
 14083 1af5 01       		.uleb128 0x1
 14084 1af6 50       		.byte	0x50
 14085 1af7 02       		.uleb128 0x2
 14086 1af8 74       		.byte	0x74
 14087 1af9 00       		.sleb128 0
 14088 1afa 00       		.byte	0
 14089 1afb 0F       		.uleb128 0xf
 14090 1afc D4170000 		.4byte	.LVL323
 14091 1b00 C93D0000 		.4byte	0x3dc9
 14092 1b04 181B0000 		.4byte	0x1b18
 14093 1b08 10       		.uleb128 0x10
 14094 1b09 01       		.uleb128 0x1
 14095 1b0a 51       		.byte	0x51
 14096 1b0b 02       		.uleb128 0x2
 14097 1b0c 74       		.byte	0x74
 14098 1b0d 00       		.sleb128 0
 14099 1b0e 10       		.uleb128 0x10
 14100 1b0f 01       		.uleb128 0x1
 14101 1b10 50       		.byte	0x50
 14102 1b11 05       		.uleb128 0x5
 14103 1b12 03       		.byte	0x3
 14104 1b13 00000000 		.4byte	resultado
 14105 1b17 00       		.byte	0
 14106 1b18 0F       		.uleb128 0xf
 14107 1b19 E6170000 		.4byte	.LVL324
 14108 1b1d 393D0000 		.4byte	0x3d39
 14109 1b21 331B0000 		.4byte	0x1b33
 14110 1b25 10       		.uleb128 0x10
 14111 1b26 01       		.uleb128 0x1
 14112 1b27 51       		.byte	0x51
ARM GAS  C:\Users\diego\AppData\Local\Temp\ccNdDNY6.s 			page 291


 14113 1b28 02       		.uleb128 0x2
 14114 1b29 91       		.byte	0x91
 14115 1b2a 54       		.sleb128 -44
 14116 1b2b 10       		.uleb128 0x10
 14117 1b2c 01       		.uleb128 0x1
 14118 1b2d 50       		.byte	0x50
 14119 1b2e 03       		.uleb128 0x3
 14120 1b2f 0A       		.byte	0xa
 14121 1b30 0001     		.2byte	0x100
 14122 1b32 00       		.byte	0
 14123 1b33 0F       		.uleb128 0xf
 14124 1b34 F0170000 		.4byte	.LVL325
 14125 1b38 393D0000 		.4byte	0x3d39
 14126 1b3c 511B0000 		.4byte	0x1b51
 14127 1b40 10       		.uleb128 0x10
 14128 1b41 01       		.uleb128 0x1
 14129 1b42 51       		.byte	0x51
 14130 1b43 05       		.uleb128 0x5
 14131 1b44 03       		.byte	0x3
 14132 1b45 00000000 		.4byte	resultado
 14133 1b49 10       		.uleb128 0x10
 14134 1b4a 01       		.uleb128 0x1
 14135 1b4b 50       		.byte	0x50
 14136 1b4c 03       		.uleb128 0x3
 14137 1b4d 0A       		.byte	0xa
 14138 1b4e 0D02     		.2byte	0x20d
 14139 1b50 00       		.byte	0
 14140 1b51 0F       		.uleb128 0xf
 14141 1b52 FC170000 		.4byte	.LVL326
 14142 1b56 393D0000 		.4byte	0x3d39
 14143 1b5a 6C1B0000 		.4byte	0x1b6c
 14144 1b5e 10       		.uleb128 0x10
 14145 1b5f 01       		.uleb128 0x1
 14146 1b60 51       		.byte	0x51
 14147 1b61 02       		.uleb128 0x2
 14148 1b62 91       		.byte	0x91
 14149 1b63 54       		.sleb128 -44
 14150 1b64 10       		.uleb128 0x10
 14151 1b65 01       		.uleb128 0x1
 14152 1b66 50       		.byte	0x50
 14153 1b67 03       		.uleb128 0x3
 14154 1b68 0A       		.byte	0xa
 14155 1b69 5901     		.2byte	0x159
 14156 1b6b 00       		.byte	0
 14157 1b6c 0F       		.uleb128 0xf
 14158 1b6d 06180000 		.4byte	.LVL327
 14159 1b71 393D0000 		.4byte	0x3d39
 14160 1b75 8A1B0000 		.4byte	0x1b8a
 14161 1b79 10       		.uleb128 0x10
 14162 1b7a 01       		.uleb128 0x1
 14163 1b7b 51       		.byte	0x51
 14164 1b7c 05       		.uleb128 0x5
 14165 1b7d 03       		.byte	0x3
 14166 1b7e 00000000 		.4byte	resultado
 14167 1b82 10       		.uleb128 0x10
 14168 1b83 01       		.uleb128 0x1
 14169 1b84 50       		.byte	0x50
ARM GAS  C:\Users\diego\AppData\Local\Temp\ccNdDNY6.s 			page 292


 14170 1b85 03       		.uleb128 0x3
 14171 1b86 0A       		.byte	0xa
 14172 1b87 4D02     		.2byte	0x24d
 14173 1b89 00       		.byte	0
 14174 1b8a 0F       		.uleb128 0xf
 14175 1b8b 4A180000 		.4byte	.LVL328
 14176 1b8f 533D0000 		.4byte	0x3d53
 14177 1b93 9E1B0000 		.4byte	0x1b9e
 14178 1b97 10       		.uleb128 0x10
 14179 1b98 01       		.uleb128 0x1
 14180 1b99 50       		.byte	0x50
 14181 1b9a 02       		.uleb128 0x2
 14182 1b9b 74       		.byte	0x74
 14183 1b9c 00       		.sleb128 0
 14184 1b9d 00       		.byte	0
 14185 1b9e 0F       		.uleb128 0xf
 14186 1b9f 62180000 		.4byte	.LVL329
 14187 1ba3 533D0000 		.4byte	0x3d53
 14188 1ba7 B71B0000 		.4byte	0x1bb7
 14189 1bab 10       		.uleb128 0x10
 14190 1bac 01       		.uleb128 0x1
 14191 1bad 51       		.byte	0x51
 14192 1bae 01       		.uleb128 0x1
 14193 1baf 3A       		.byte	0x3a
 14194 1bb0 10       		.uleb128 0x10
 14195 1bb1 01       		.uleb128 0x1
 14196 1bb2 50       		.byte	0x50
 14197 1bb3 02       		.uleb128 0x2
 14198 1bb4 74       		.byte	0x74
 14199 1bb5 00       		.sleb128 0
 14200 1bb6 00       		.byte	0
 14201 1bb7 0F       		.uleb128 0xf
 14202 1bb8 74180000 		.4byte	.LVL330
 14203 1bbc 533D0000 		.4byte	0x3d53
 14204 1bc0 CB1B0000 		.4byte	0x1bcb
 14205 1bc4 10       		.uleb128 0x10
 14206 1bc5 01       		.uleb128 0x1
 14207 1bc6 50       		.byte	0x50
 14208 1bc7 02       		.uleb128 0x2
 14209 1bc8 74       		.byte	0x74
 14210 1bc9 00       		.sleb128 0
 14211 1bca 00       		.byte	0
 14212 1bcb 0F       		.uleb128 0xf
 14213 1bcc 8C180000 		.4byte	.LVL331
 14214 1bd0 533D0000 		.4byte	0x3d53
 14215 1bd4 E41B0000 		.4byte	0x1be4
 14216 1bd8 10       		.uleb128 0x10
 14217 1bd9 01       		.uleb128 0x1
 14218 1bda 51       		.byte	0x51
 14219 1bdb 01       		.uleb128 0x1
 14220 1bdc 3A       		.byte	0x3a
 14221 1bdd 10       		.uleb128 0x10
 14222 1bde 01       		.uleb128 0x1
 14223 1bdf 50       		.byte	0x50
 14224 1be0 02       		.uleb128 0x2
 14225 1be1 74       		.byte	0x74
 14226 1be2 00       		.sleb128 0
ARM GAS  C:\Users\diego\AppData\Local\Temp\ccNdDNY6.s 			page 293


 14227 1be3 00       		.byte	0
 14228 1be4 0F       		.uleb128 0xf
 14229 1be5 A0180000 		.4byte	.LVL332
 14230 1be9 533D0000 		.4byte	0x3d53
 14231 1bed F81B0000 		.4byte	0x1bf8
 14232 1bf1 10       		.uleb128 0x10
 14233 1bf2 01       		.uleb128 0x1
 14234 1bf3 50       		.byte	0x50
 14235 1bf4 02       		.uleb128 0x2
 14236 1bf5 74       		.byte	0x74
 14237 1bf6 00       		.sleb128 0
 14238 1bf7 00       		.byte	0
 14239 1bf8 0F       		.uleb128 0xf
 14240 1bf9 B8180000 		.4byte	.LVL333
 14241 1bfd 533D0000 		.4byte	0x3d53
 14242 1c01 111C0000 		.4byte	0x1c11
 14243 1c05 10       		.uleb128 0x10
 14244 1c06 01       		.uleb128 0x1
 14245 1c07 51       		.byte	0x51
 14246 1c08 01       		.uleb128 0x1
 14247 1c09 3A       		.byte	0x3a
 14248 1c0a 10       		.uleb128 0x10
 14249 1c0b 01       		.uleb128 0x1
 14250 1c0c 50       		.byte	0x50
 14251 1c0d 02       		.uleb128 0x2
 14252 1c0e 74       		.byte	0x74
 14253 1c0f 00       		.sleb128 0
 14254 1c10 00       		.byte	0
 14255 1c11 0F       		.uleb128 0xf
 14256 1c12 C0180000 		.4byte	.LVL334
 14257 1c16 6D3D0000 		.4byte	0x3d6d
 14258 1c1a 2A1C0000 		.4byte	0x1c2a
 14259 1c1e 10       		.uleb128 0x10
 14260 1c1f 01       		.uleb128 0x1
 14261 1c20 51       		.byte	0x51
 14262 1c21 02       		.uleb128 0x2
 14263 1c22 74       		.byte	0x74
 14264 1c23 00       		.sleb128 0
 14265 1c24 10       		.uleb128 0x10
 14266 1c25 01       		.uleb128 0x1
 14267 1c26 50       		.byte	0x50
 14268 1c27 01       		.uleb128 0x1
 14269 1c28 38       		.byte	0x38
 14270 1c29 00       		.byte	0
 14271 1c2a 0F       		.uleb128 0xf
 14272 1c2b D4180000 		.4byte	.LVL335
 14273 1c2f 533D0000 		.4byte	0x3d53
 14274 1c33 3E1C0000 		.4byte	0x1c3e
 14275 1c37 10       		.uleb128 0x10
 14276 1c38 01       		.uleb128 0x1
 14277 1c39 50       		.byte	0x50
 14278 1c3a 02       		.uleb128 0x2
 14279 1c3b 74       		.byte	0x74
 14280 1c3c 00       		.sleb128 0
 14281 1c3d 00       		.byte	0
 14282 1c3e 0F       		.uleb128 0xf
 14283 1c3f EC180000 		.4byte	.LVL336
ARM GAS  C:\Users\diego\AppData\Local\Temp\ccNdDNY6.s 			page 294


 14284 1c43 533D0000 		.4byte	0x3d53
 14285 1c47 571C0000 		.4byte	0x1c57
 14286 1c4b 10       		.uleb128 0x10
 14287 1c4c 01       		.uleb128 0x1
 14288 1c4d 51       		.byte	0x51
 14289 1c4e 01       		.uleb128 0x1
 14290 1c4f 3A       		.byte	0x3a
 14291 1c50 10       		.uleb128 0x10
 14292 1c51 01       		.uleb128 0x1
 14293 1c52 50       		.byte	0x50
 14294 1c53 02       		.uleb128 0x2
 14295 1c54 74       		.byte	0x74
 14296 1c55 00       		.sleb128 0
 14297 1c56 00       		.byte	0
 14298 1c57 0F       		.uleb128 0xf
 14299 1c58 FE180000 		.4byte	.LVL337
 14300 1c5c 833D0000 		.4byte	0x3d83
 14301 1c60 711C0000 		.4byte	0x1c71
 14302 1c64 10       		.uleb128 0x10
 14303 1c65 01       		.uleb128 0x1
 14304 1c66 51       		.byte	0x51
 14305 1c67 01       		.uleb128 0x1
 14306 1c68 49       		.byte	0x49
 14307 1c69 10       		.uleb128 0x10
 14308 1c6a 01       		.uleb128 0x1
 14309 1c6b 50       		.byte	0x50
 14310 1c6c 03       		.uleb128 0x3
 14311 1c6d 0A       		.byte	0xa
 14312 1c6e 4804     		.2byte	0x448
 14313 1c70 00       		.byte	0
 14314 1c71 0F       		.uleb128 0xf
 14315 1c72 0A190000 		.4byte	.LVL338
 14316 1c76 833D0000 		.4byte	0x3d83
 14317 1c7a 8B1C0000 		.4byte	0x1c8b
 14318 1c7e 10       		.uleb128 0x10
 14319 1c7f 01       		.uleb128 0x1
 14320 1c80 51       		.byte	0x51
 14321 1c81 01       		.uleb128 0x1
 14322 1c82 49       		.byte	0x49
 14323 1c83 10       		.uleb128 0x10
 14324 1c84 01       		.uleb128 0x1
 14325 1c85 50       		.byte	0x50
 14326 1c86 03       		.uleb128 0x3
 14327 1c87 0A       		.byte	0xa
 14328 1c88 1E04     		.2byte	0x41e
 14329 1c8a 00       		.byte	0
 14330 1c8b 0F       		.uleb128 0xf
 14331 1c8c 10190000 		.4byte	.LVL339
 14332 1c90 9D3D0000 		.4byte	0x3d9d
 14333 1c94 9F1C0000 		.4byte	0x1c9f
 14334 1c98 10       		.uleb128 0x10
 14335 1c99 01       		.uleb128 0x1
 14336 1c9a 50       		.byte	0x50
 14337 1c9b 02       		.uleb128 0x2
 14338 1c9c 74       		.byte	0x74
 14339 1c9d 00       		.sleb128 0
 14340 1c9e 00       		.byte	0
ARM GAS  C:\Users\diego\AppData\Local\Temp\ccNdDNY6.s 			page 295


 14341 1c9f 0F       		.uleb128 0xf
 14342 1ca0 52190000 		.4byte	.LVL340
 14343 1ca4 AE3D0000 		.4byte	0x3dae
 14344 1ca8 BF1C0000 		.4byte	0x1cbf
 14345 1cac 10       		.uleb128 0x10
 14346 1cad 01       		.uleb128 0x1
 14347 1cae 52       		.byte	0x52
 14348 1caf 03       		.uleb128 0x3
 14349 1cb0 91       		.byte	0x91
 14350 1cb1 B47F     		.sleb128 -76
 14351 1cb3 10       		.uleb128 0x10
 14352 1cb4 01       		.uleb128 0x1
 14353 1cb5 51       		.byte	0x51
 14354 1cb6 02       		.uleb128 0x2
 14355 1cb7 91       		.byte	0x91
 14356 1cb8 44       		.sleb128 -60
 14357 1cb9 10       		.uleb128 0x10
 14358 1cba 01       		.uleb128 0x1
 14359 1cbb 50       		.byte	0x50
 14360 1cbc 01       		.uleb128 0x1
 14361 1cbd 32       		.byte	0x32
 14362 1cbe 00       		.byte	0
 14363 1cbf 0F       		.uleb128 0xf
 14364 1cc0 68190000 		.4byte	.LVL341
 14365 1cc4 533D0000 		.4byte	0x3d53
 14366 1cc8 D31C0000 		.4byte	0x1cd3
 14367 1ccc 10       		.uleb128 0x10
 14368 1ccd 01       		.uleb128 0x1
 14369 1cce 50       		.byte	0x50
 14370 1ccf 02       		.uleb128 0x2
 14371 1cd0 74       		.byte	0x74
 14372 1cd1 00       		.sleb128 0
 14373 1cd2 00       		.byte	0
 14374 1cd3 0F       		.uleb128 0xf
 14375 1cd4 80190000 		.4byte	.LVL342
 14376 1cd8 C93D0000 		.4byte	0x3dc9
 14377 1cdc F01C0000 		.4byte	0x1cf0
 14378 1ce0 10       		.uleb128 0x10
 14379 1ce1 01       		.uleb128 0x1
 14380 1ce2 51       		.byte	0x51
 14381 1ce3 02       		.uleb128 0x2
 14382 1ce4 74       		.byte	0x74
 14383 1ce5 00       		.sleb128 0
 14384 1ce6 10       		.uleb128 0x10
 14385 1ce7 01       		.uleb128 0x1
 14386 1ce8 50       		.byte	0x50
 14387 1ce9 05       		.uleb128 0x5
 14388 1cea 03       		.byte	0x3
 14389 1ceb 00000000 		.4byte	resultado
 14390 1cef 00       		.byte	0
 14391 1cf0 0F       		.uleb128 0xf
 14392 1cf1 92190000 		.4byte	.LVL343
 14393 1cf5 393D0000 		.4byte	0x3d39
 14394 1cf9 0B1D0000 		.4byte	0x1d0b
 14395 1cfd 10       		.uleb128 0x10
 14396 1cfe 01       		.uleb128 0x1
 14397 1cff 51       		.byte	0x51
ARM GAS  C:\Users\diego\AppData\Local\Temp\ccNdDNY6.s 			page 296


 14398 1d00 02       		.uleb128 0x2
 14399 1d01 91       		.byte	0x91
 14400 1d02 54       		.sleb128 -44
 14401 1d03 10       		.uleb128 0x10
 14402 1d04 01       		.uleb128 0x1
 14403 1d05 50       		.byte	0x50
 14404 1d06 03       		.uleb128 0x3
 14405 1d07 0A       		.byte	0xa
 14406 1d08 4804     		.2byte	0x448
 14407 1d0a 00       		.byte	0
 14408 1d0b 0F       		.uleb128 0xf
 14409 1d0c 9C190000 		.4byte	.LVL344
 14410 1d10 393D0000 		.4byte	0x3d39
 14411 1d14 291D0000 		.4byte	0x1d29
 14412 1d18 10       		.uleb128 0x10
 14413 1d19 01       		.uleb128 0x1
 14414 1d1a 51       		.byte	0x51
 14415 1d1b 05       		.uleb128 0x5
 14416 1d1c 03       		.byte	0x3
 14417 1d1d 00000000 		.4byte	resultado
 14418 1d21 10       		.uleb128 0x10
 14419 1d22 01       		.uleb128 0x1
 14420 1d23 50       		.byte	0x50
 14421 1d24 03       		.uleb128 0x3
 14422 1d25 0A       		.byte	0xa
 14423 1d26 0E04     		.2byte	0x40e
 14424 1d28 00       		.byte	0
 14425 1d29 0F       		.uleb128 0xf
 14426 1d2a A8190000 		.4byte	.LVL345
 14427 1d2e 393D0000 		.4byte	0x3d39
 14428 1d32 441D0000 		.4byte	0x1d44
 14429 1d36 10       		.uleb128 0x10
 14430 1d37 01       		.uleb128 0x1
 14431 1d38 51       		.byte	0x51
 14432 1d39 02       		.uleb128 0x2
 14433 1d3a 91       		.byte	0x91
 14434 1d3b 54       		.sleb128 -44
 14435 1d3c 10       		.uleb128 0x10
 14436 1d3d 01       		.uleb128 0x1
 14437 1d3e 50       		.byte	0x50
 14438 1d3f 03       		.uleb128 0x3
 14439 1d40 0A       		.byte	0xa
 14440 1d41 1E04     		.2byte	0x41e
 14441 1d43 00       		.byte	0
 14442 1d44 0F       		.uleb128 0xf
 14443 1d45 B2190000 		.4byte	.LVL346
 14444 1d49 393D0000 		.4byte	0x3d39
 14445 1d4d 621D0000 		.4byte	0x1d62
 14446 1d51 10       		.uleb128 0x10
 14447 1d52 01       		.uleb128 0x1
 14448 1d53 51       		.byte	0x51
 14449 1d54 05       		.uleb128 0x5
 14450 1d55 03       		.byte	0x3
 14451 1d56 00000000 		.4byte	resultado
 14452 1d5a 10       		.uleb128 0x10
 14453 1d5b 01       		.uleb128 0x1
 14454 1d5c 50       		.byte	0x50
ARM GAS  C:\Users\diego\AppData\Local\Temp\ccNdDNY6.s 			page 297


 14455 1d5d 03       		.uleb128 0x3
 14456 1d5e 0A       		.byte	0xa
 14457 1d5f 3904     		.2byte	0x439
 14458 1d61 00       		.byte	0
 14459 1d62 11       		.uleb128 0x11
 14460 1d63 C8190000 		.4byte	.LVL347
 14461 1d67 273D0000 		.4byte	0x3d27
 14462 1d6b 0F       		.uleb128 0xf
 14463 1d6c 421B0000 		.4byte	.LVL348
 14464 1d70 533D0000 		.4byte	0x3d53
 14465 1d74 7F1D0000 		.4byte	0x1d7f
 14466 1d78 10       		.uleb128 0x10
 14467 1d79 01       		.uleb128 0x1
 14468 1d7a 50       		.byte	0x50
 14469 1d7b 02       		.uleb128 0x2
 14470 1d7c 74       		.byte	0x74
 14471 1d7d 00       		.sleb128 0
 14472 1d7e 00       		.byte	0
 14473 1d7f 0F       		.uleb128 0xf
 14474 1d80 5A1B0000 		.4byte	.LVL349
 14475 1d84 533D0000 		.4byte	0x3d53
 14476 1d88 981D0000 		.4byte	0x1d98
 14477 1d8c 10       		.uleb128 0x10
 14478 1d8d 01       		.uleb128 0x1
 14479 1d8e 51       		.byte	0x51
 14480 1d8f 01       		.uleb128 0x1
 14481 1d90 3A       		.byte	0x3a
 14482 1d91 10       		.uleb128 0x10
 14483 1d92 01       		.uleb128 0x1
 14484 1d93 50       		.byte	0x50
 14485 1d94 02       		.uleb128 0x2
 14486 1d95 74       		.byte	0x74
 14487 1d96 00       		.sleb128 0
 14488 1d97 00       		.byte	0
 14489 1d98 0F       		.uleb128 0xf
 14490 1d99 6C1B0000 		.4byte	.LVL350
 14491 1d9d 533D0000 		.4byte	0x3d53
 14492 1da1 AC1D0000 		.4byte	0x1dac
 14493 1da5 10       		.uleb128 0x10
 14494 1da6 01       		.uleb128 0x1
 14495 1da7 50       		.byte	0x50
 14496 1da8 02       		.uleb128 0x2
 14497 1da9 74       		.byte	0x74
 14498 1daa 00       		.sleb128 0
 14499 1dab 00       		.byte	0
 14500 1dac 0F       		.uleb128 0xf
 14501 1dad 841B0000 		.4byte	.LVL351
 14502 1db1 533D0000 		.4byte	0x3d53
 14503 1db5 C51D0000 		.4byte	0x1dc5
 14504 1db9 10       		.uleb128 0x10
 14505 1dba 01       		.uleb128 0x1
 14506 1dbb 51       		.byte	0x51
 14507 1dbc 01       		.uleb128 0x1
 14508 1dbd 3A       		.byte	0x3a
 14509 1dbe 10       		.uleb128 0x10
 14510 1dbf 01       		.uleb128 0x1
 14511 1dc0 50       		.byte	0x50
ARM GAS  C:\Users\diego\AppData\Local\Temp\ccNdDNY6.s 			page 298


 14512 1dc1 02       		.uleb128 0x2
 14513 1dc2 74       		.byte	0x74
 14514 1dc3 00       		.sleb128 0
 14515 1dc4 00       		.byte	0
 14516 1dc5 0F       		.uleb128 0xf
 14517 1dc6 981B0000 		.4byte	.LVL352
 14518 1dca 533D0000 		.4byte	0x3d53
 14519 1dce D91D0000 		.4byte	0x1dd9
 14520 1dd2 10       		.uleb128 0x10
 14521 1dd3 01       		.uleb128 0x1
 14522 1dd4 50       		.byte	0x50
 14523 1dd5 02       		.uleb128 0x2
 14524 1dd6 74       		.byte	0x74
 14525 1dd7 00       		.sleb128 0
 14526 1dd8 00       		.byte	0
 14527 1dd9 0F       		.uleb128 0xf
 14528 1dda B01B0000 		.4byte	.LVL353
 14529 1dde 533D0000 		.4byte	0x3d53
 14530 1de2 F21D0000 		.4byte	0x1df2
 14531 1de6 10       		.uleb128 0x10
 14532 1de7 01       		.uleb128 0x1
 14533 1de8 51       		.byte	0x51
 14534 1de9 01       		.uleb128 0x1
 14535 1dea 3A       		.byte	0x3a
 14536 1deb 10       		.uleb128 0x10
 14537 1dec 01       		.uleb128 0x1
 14538 1ded 50       		.byte	0x50
 14539 1dee 02       		.uleb128 0x2
 14540 1def 74       		.byte	0x74
 14541 1df0 00       		.sleb128 0
 14542 1df1 00       		.byte	0
 14543 1df2 0F       		.uleb128 0xf
 14544 1df3 B81B0000 		.4byte	.LVL354
 14545 1df7 6D3D0000 		.4byte	0x3d6d
 14546 1dfb 0B1E0000 		.4byte	0x1e0b
 14547 1dff 10       		.uleb128 0x10
 14548 1e00 01       		.uleb128 0x1
 14549 1e01 51       		.byte	0x51
 14550 1e02 02       		.uleb128 0x2
 14551 1e03 74       		.byte	0x74
 14552 1e04 00       		.sleb128 0
 14553 1e05 10       		.uleb128 0x10
 14554 1e06 01       		.uleb128 0x1
 14555 1e07 50       		.byte	0x50
 14556 1e08 01       		.uleb128 0x1
 14557 1e09 3C       		.byte	0x3c
 14558 1e0a 00       		.byte	0
 14559 1e0b 0F       		.uleb128 0xf
 14560 1e0c CC1B0000 		.4byte	.LVL355
 14561 1e10 533D0000 		.4byte	0x3d53
 14562 1e14 1F1E0000 		.4byte	0x1e1f
 14563 1e18 10       		.uleb128 0x10
 14564 1e19 01       		.uleb128 0x1
 14565 1e1a 50       		.byte	0x50
 14566 1e1b 02       		.uleb128 0x2
 14567 1e1c 74       		.byte	0x74
 14568 1e1d 00       		.sleb128 0
ARM GAS  C:\Users\diego\AppData\Local\Temp\ccNdDNY6.s 			page 299


 14569 1e1e 00       		.byte	0
 14570 1e1f 0F       		.uleb128 0xf
 14571 1e20 E41B0000 		.4byte	.LVL356
 14572 1e24 533D0000 		.4byte	0x3d53
 14573 1e28 381E0000 		.4byte	0x1e38
 14574 1e2c 10       		.uleb128 0x10
 14575 1e2d 01       		.uleb128 0x1
 14576 1e2e 51       		.byte	0x51
 14577 1e2f 01       		.uleb128 0x1
 14578 1e30 3A       		.byte	0x3a
 14579 1e31 10       		.uleb128 0x10
 14580 1e32 01       		.uleb128 0x1
 14581 1e33 50       		.byte	0x50
 14582 1e34 02       		.uleb128 0x2
 14583 1e35 74       		.byte	0x74
 14584 1e36 00       		.sleb128 0
 14585 1e37 00       		.byte	0
 14586 1e38 0F       		.uleb128 0xf
 14587 1e39 F41B0000 		.4byte	.LVL357
 14588 1e3d 833D0000 		.4byte	0x3d83
 14589 1e41 511E0000 		.4byte	0x1e51
 14590 1e45 10       		.uleb128 0x10
 14591 1e46 01       		.uleb128 0x1
 14592 1e47 51       		.byte	0x51
 14593 1e48 01       		.uleb128 0x1
 14594 1e49 49       		.byte	0x49
 14595 1e4a 10       		.uleb128 0x10
 14596 1e4b 01       		.uleb128 0x1
 14597 1e4c 50       		.byte	0x50
 14598 1e4d 02       		.uleb128 0x2
 14599 1e4e 08       		.byte	0x8
 14600 1e4f C0       		.byte	0xc0
 14601 1e50 00       		.byte	0
 14602 1e51 0F       		.uleb128 0xf
 14603 1e52 001C0000 		.4byte	.LVL358
 14604 1e56 833D0000 		.4byte	0x3d83
 14605 1e5a 6B1E0000 		.4byte	0x1e6b
 14606 1e5e 10       		.uleb128 0x10
 14607 1e5f 01       		.uleb128 0x1
 14608 1e60 51       		.byte	0x51
 14609 1e61 01       		.uleb128 0x1
 14610 1e62 49       		.byte	0x49
 14611 1e63 10       		.uleb128 0x10
 14612 1e64 01       		.uleb128 0x1
 14613 1e65 50       		.byte	0x50
 14614 1e66 03       		.uleb128 0x3
 14615 1e67 0A       		.byte	0xa
 14616 1e68 1901     		.2byte	0x119
 14617 1e6a 00       		.byte	0
 14618 1e6b 0F       		.uleb128 0xf
 14619 1e6c 061C0000 		.4byte	.LVL359
 14620 1e70 9D3D0000 		.4byte	0x3d9d
 14621 1e74 7F1E0000 		.4byte	0x1e7f
 14622 1e78 10       		.uleb128 0x10
 14623 1e79 01       		.uleb128 0x1
 14624 1e7a 50       		.byte	0x50
 14625 1e7b 02       		.uleb128 0x2
ARM GAS  C:\Users\diego\AppData\Local\Temp\ccNdDNY6.s 			page 300


 14626 1e7c 74       		.byte	0x74
 14627 1e7d 00       		.sleb128 0
 14628 1e7e 00       		.byte	0
 14629 1e7f 0F       		.uleb128 0xf
 14630 1e80 481C0000 		.4byte	.LVL360
 14631 1e84 AE3D0000 		.4byte	0x3dae
 14632 1e88 9F1E0000 		.4byte	0x1e9f
 14633 1e8c 10       		.uleb128 0x10
 14634 1e8d 01       		.uleb128 0x1
 14635 1e8e 52       		.byte	0x52
 14636 1e8f 03       		.uleb128 0x3
 14637 1e90 91       		.byte	0x91
 14638 1e91 B47F     		.sleb128 -76
 14639 1e93 10       		.uleb128 0x10
 14640 1e94 01       		.uleb128 0x1
 14641 1e95 51       		.byte	0x51
 14642 1e96 02       		.uleb128 0x2
 14643 1e97 91       		.byte	0x91
 14644 1e98 44       		.sleb128 -60
 14645 1e99 10       		.uleb128 0x10
 14646 1e9a 01       		.uleb128 0x1
 14647 1e9b 50       		.byte	0x50
 14648 1e9c 01       		.uleb128 0x1
 14649 1e9d 32       		.byte	0x32
 14650 1e9e 00       		.byte	0
 14651 1e9f 0F       		.uleb128 0xf
 14652 1ea0 5E1C0000 		.4byte	.LVL361
 14653 1ea4 533D0000 		.4byte	0x3d53
 14654 1ea8 B31E0000 		.4byte	0x1eb3
 14655 1eac 10       		.uleb128 0x10
 14656 1ead 01       		.uleb128 0x1
 14657 1eae 50       		.byte	0x50
 14658 1eaf 02       		.uleb128 0x2
 14659 1eb0 74       		.byte	0x74
 14660 1eb1 00       		.sleb128 0
 14661 1eb2 00       		.byte	0
 14662 1eb3 0F       		.uleb128 0xf
 14663 1eb4 761C0000 		.4byte	.LVL362
 14664 1eb8 C93D0000 		.4byte	0x3dc9
 14665 1ebc D01E0000 		.4byte	0x1ed0
 14666 1ec0 10       		.uleb128 0x10
 14667 1ec1 01       		.uleb128 0x1
 14668 1ec2 51       		.byte	0x51
 14669 1ec3 02       		.uleb128 0x2
 14670 1ec4 74       		.byte	0x74
 14671 1ec5 00       		.sleb128 0
 14672 1ec6 10       		.uleb128 0x10
 14673 1ec7 01       		.uleb128 0x1
 14674 1ec8 50       		.byte	0x50
 14675 1ec9 05       		.uleb128 0x5
 14676 1eca 03       		.byte	0x3
 14677 1ecb 00000000 		.4byte	resultado
 14678 1ecf 00       		.byte	0
 14679 1ed0 0F       		.uleb128 0xf
 14680 1ed1 861C0000 		.4byte	.LVL363
 14681 1ed5 393D0000 		.4byte	0x3d39
 14682 1ed9 EA1E0000 		.4byte	0x1eea
ARM GAS  C:\Users\diego\AppData\Local\Temp\ccNdDNY6.s 			page 301


 14683 1edd 10       		.uleb128 0x10
 14684 1ede 01       		.uleb128 0x1
 14685 1edf 51       		.byte	0x51
 14686 1ee0 02       		.uleb128 0x2
 14687 1ee1 91       		.byte	0x91
 14688 1ee2 54       		.sleb128 -44
 14689 1ee3 10       		.uleb128 0x10
 14690 1ee4 01       		.uleb128 0x1
 14691 1ee5 50       		.byte	0x50
 14692 1ee6 02       		.uleb128 0x2
 14693 1ee7 08       		.byte	0x8
 14694 1ee8 C0       		.byte	0xc0
 14695 1ee9 00       		.byte	0
 14696 1eea 0F       		.uleb128 0xf
 14697 1eeb 901C0000 		.4byte	.LVL364
 14698 1eef 393D0000 		.4byte	0x3d39
 14699 1ef3 081F0000 		.4byte	0x1f08
 14700 1ef7 10       		.uleb128 0x10
 14701 1ef8 01       		.uleb128 0x1
 14702 1ef9 51       		.byte	0x51
 14703 1efa 05       		.uleb128 0x5
 14704 1efb 03       		.byte	0x3
 14705 1efc 00000000 		.4byte	resultado
 14706 1f00 10       		.uleb128 0x10
 14707 1f01 01       		.uleb128 0x1
 14708 1f02 50       		.byte	0x50
 14709 1f03 03       		.uleb128 0x3
 14710 1f04 0A       		.byte	0xa
 14711 1f05 0002     		.2byte	0x200
 14712 1f07 00       		.byte	0
 14713 1f08 0F       		.uleb128 0xf
 14714 1f09 DE1C0000 		.4byte	.LVL365
 14715 1f0d 393D0000 		.4byte	0x3d39
 14716 1f11 231F0000 		.4byte	0x1f23
 14717 1f15 10       		.uleb128 0x10
 14718 1f16 01       		.uleb128 0x1
 14719 1f17 51       		.byte	0x51
 14720 1f18 02       		.uleb128 0x2
 14721 1f19 91       		.byte	0x91
 14722 1f1a 54       		.sleb128 -44
 14723 1f1b 10       		.uleb128 0x10
 14724 1f1c 01       		.uleb128 0x1
 14725 1f1d 50       		.byte	0x50
 14726 1f1e 03       		.uleb128 0x3
 14727 1f1f 0A       		.byte	0xa
 14728 1f20 1901     		.2byte	0x119
 14729 1f22 00       		.byte	0
 14730 1f23 0F       		.uleb128 0xf
 14731 1f24 E81C0000 		.4byte	.LVL366
 14732 1f28 393D0000 		.4byte	0x3d39
 14733 1f2c 411F0000 		.4byte	0x1f41
 14734 1f30 10       		.uleb128 0x10
 14735 1f31 01       		.uleb128 0x1
 14736 1f32 51       		.byte	0x51
 14737 1f33 05       		.uleb128 0x5
 14738 1f34 03       		.byte	0x3
 14739 1f35 00000000 		.4byte	resultado
ARM GAS  C:\Users\diego\AppData\Local\Temp\ccNdDNY6.s 			page 302


 14740 1f39 10       		.uleb128 0x10
 14741 1f3a 01       		.uleb128 0x1
 14742 1f3b 50       		.byte	0x50
 14743 1f3c 03       		.uleb128 0x3
 14744 1f3d 0A       		.byte	0xa
 14745 1f3e 2702     		.2byte	0x227
 14746 1f40 00       		.byte	0
 14747 1f41 0F       		.uleb128 0xf
 14748 1f42 441D0000 		.4byte	.LVL367
 14749 1f46 533D0000 		.4byte	0x3d53
 14750 1f4a 551F0000 		.4byte	0x1f55
 14751 1f4e 10       		.uleb128 0x10
 14752 1f4f 01       		.uleb128 0x1
 14753 1f50 50       		.byte	0x50
 14754 1f51 02       		.uleb128 0x2
 14755 1f52 74       		.byte	0x74
 14756 1f53 00       		.sleb128 0
 14757 1f54 00       		.byte	0
 14758 1f55 0F       		.uleb128 0xf
 14759 1f56 5C1D0000 		.4byte	.LVL368
 14760 1f5a 533D0000 		.4byte	0x3d53
 14761 1f5e 6E1F0000 		.4byte	0x1f6e
 14762 1f62 10       		.uleb128 0x10
 14763 1f63 01       		.uleb128 0x1
 14764 1f64 51       		.byte	0x51
 14765 1f65 01       		.uleb128 0x1
 14766 1f66 3A       		.byte	0x3a
 14767 1f67 10       		.uleb128 0x10
 14768 1f68 01       		.uleb128 0x1
 14769 1f69 50       		.byte	0x50
 14770 1f6a 02       		.uleb128 0x2
 14771 1f6b 74       		.byte	0x74
 14772 1f6c 00       		.sleb128 0
 14773 1f6d 00       		.byte	0
 14774 1f6e 0F       		.uleb128 0xf
 14775 1f6f 6E1D0000 		.4byte	.LVL369
 14776 1f73 533D0000 		.4byte	0x3d53
 14777 1f77 821F0000 		.4byte	0x1f82
 14778 1f7b 10       		.uleb128 0x10
 14779 1f7c 01       		.uleb128 0x1
 14780 1f7d 50       		.byte	0x50
 14781 1f7e 02       		.uleb128 0x2
 14782 1f7f 74       		.byte	0x74
 14783 1f80 00       		.sleb128 0
 14784 1f81 00       		.byte	0
 14785 1f82 0F       		.uleb128 0xf
 14786 1f83 861D0000 		.4byte	.LVL370
 14787 1f87 533D0000 		.4byte	0x3d53
 14788 1f8b 9B1F0000 		.4byte	0x1f9b
 14789 1f8f 10       		.uleb128 0x10
 14790 1f90 01       		.uleb128 0x1
 14791 1f91 51       		.byte	0x51
 14792 1f92 01       		.uleb128 0x1
 14793 1f93 3A       		.byte	0x3a
 14794 1f94 10       		.uleb128 0x10
 14795 1f95 01       		.uleb128 0x1
 14796 1f96 50       		.byte	0x50
ARM GAS  C:\Users\diego\AppData\Local\Temp\ccNdDNY6.s 			page 303


 14797 1f97 02       		.uleb128 0x2
 14798 1f98 74       		.byte	0x74
 14799 1f99 00       		.sleb128 0
 14800 1f9a 00       		.byte	0
 14801 1f9b 0F       		.uleb128 0xf
 14802 1f9c 9A1D0000 		.4byte	.LVL371
 14803 1fa0 533D0000 		.4byte	0x3d53
 14804 1fa4 AF1F0000 		.4byte	0x1faf
 14805 1fa8 10       		.uleb128 0x10
 14806 1fa9 01       		.uleb128 0x1
 14807 1faa 50       		.byte	0x50
 14808 1fab 02       		.uleb128 0x2
 14809 1fac 74       		.byte	0x74
 14810 1fad 00       		.sleb128 0
 14811 1fae 00       		.byte	0
 14812 1faf 0F       		.uleb128 0xf
 14813 1fb0 B21D0000 		.4byte	.LVL372
 14814 1fb4 533D0000 		.4byte	0x3d53
 14815 1fb8 C81F0000 		.4byte	0x1fc8
 14816 1fbc 10       		.uleb128 0x10
 14817 1fbd 01       		.uleb128 0x1
 14818 1fbe 51       		.byte	0x51
 14819 1fbf 01       		.uleb128 0x1
 14820 1fc0 3A       		.byte	0x3a
 14821 1fc1 10       		.uleb128 0x10
 14822 1fc2 01       		.uleb128 0x1
 14823 1fc3 50       		.byte	0x50
 14824 1fc4 02       		.uleb128 0x2
 14825 1fc5 74       		.byte	0x74
 14826 1fc6 00       		.sleb128 0
 14827 1fc7 00       		.byte	0
 14828 1fc8 0F       		.uleb128 0xf
 14829 1fc9 BA1D0000 		.4byte	.LVL373
 14830 1fcd 6D3D0000 		.4byte	0x3d6d
 14831 1fd1 E11F0000 		.4byte	0x1fe1
 14832 1fd5 10       		.uleb128 0x10
 14833 1fd6 01       		.uleb128 0x1
 14834 1fd7 51       		.byte	0x51
 14835 1fd8 02       		.uleb128 0x2
 14836 1fd9 74       		.byte	0x74
 14837 1fda 00       		.sleb128 0
 14838 1fdb 10       		.uleb128 0x10
 14839 1fdc 01       		.uleb128 0x1
 14840 1fdd 50       		.byte	0x50
 14841 1fde 01       		.uleb128 0x1
 14842 1fdf 3C       		.byte	0x3c
 14843 1fe0 00       		.byte	0
 14844 1fe1 0F       		.uleb128 0xf
 14845 1fe2 CE1D0000 		.4byte	.LVL374
 14846 1fe6 533D0000 		.4byte	0x3d53
 14847 1fea F51F0000 		.4byte	0x1ff5
 14848 1fee 10       		.uleb128 0x10
 14849 1fef 01       		.uleb128 0x1
 14850 1ff0 50       		.byte	0x50
 14851 1ff1 02       		.uleb128 0x2
 14852 1ff2 74       		.byte	0x74
 14853 1ff3 00       		.sleb128 0
ARM GAS  C:\Users\diego\AppData\Local\Temp\ccNdDNY6.s 			page 304


 14854 1ff4 00       		.byte	0
 14855 1ff5 0F       		.uleb128 0xf
 14856 1ff6 E61D0000 		.4byte	.LVL375
 14857 1ffa 533D0000 		.4byte	0x3d53
 14858 1ffe 0E200000 		.4byte	0x200e
 14859 2002 10       		.uleb128 0x10
 14860 2003 01       		.uleb128 0x1
 14861 2004 51       		.byte	0x51
 14862 2005 01       		.uleb128 0x1
 14863 2006 3A       		.byte	0x3a
 14864 2007 10       		.uleb128 0x10
 14865 2008 01       		.uleb128 0x1
 14866 2009 50       		.byte	0x50
 14867 200a 02       		.uleb128 0x2
 14868 200b 74       		.byte	0x74
 14869 200c 00       		.sleb128 0
 14870 200d 00       		.byte	0
 14871 200e 0F       		.uleb128 0xf
 14872 200f F61D0000 		.4byte	.LVL376
 14873 2013 833D0000 		.4byte	0x3d83
 14874 2017 27200000 		.4byte	0x2027
 14875 201b 10       		.uleb128 0x10
 14876 201c 01       		.uleb128 0x1
 14877 201d 51       		.byte	0x51
 14878 201e 01       		.uleb128 0x1
 14879 201f 49       		.byte	0x49
 14880 2020 10       		.uleb128 0x10
 14881 2021 01       		.uleb128 0x1
 14882 2022 50       		.byte	0x50
 14883 2023 02       		.uleb128 0x2
 14884 2024 08       		.byte	0x8
 14885 2025 D9       		.byte	0xd9
 14886 2026 00       		.byte	0
 14887 2027 0F       		.uleb128 0xf
 14888 2028 021E0000 		.4byte	.LVL377
 14889 202c 833D0000 		.4byte	0x3d83
 14890 2030 41200000 		.4byte	0x2041
 14891 2034 10       		.uleb128 0x10
 14892 2035 01       		.uleb128 0x1
 14893 2036 51       		.byte	0x51
 14894 2037 01       		.uleb128 0x1
 14895 2038 49       		.byte	0x49
 14896 2039 10       		.uleb128 0x10
 14897 203a 01       		.uleb128 0x1
 14898 203b 50       		.byte	0x50
 14899 203c 03       		.uleb128 0x3
 14900 203d 0A       		.byte	0xa
 14901 203e 4001     		.2byte	0x140
 14902 2040 00       		.byte	0
 14903 2041 0F       		.uleb128 0xf
 14904 2042 081E0000 		.4byte	.LVL378
 14905 2046 9D3D0000 		.4byte	0x3d9d
 14906 204a 55200000 		.4byte	0x2055
 14907 204e 10       		.uleb128 0x10
 14908 204f 01       		.uleb128 0x1
 14909 2050 50       		.byte	0x50
 14910 2051 02       		.uleb128 0x2
ARM GAS  C:\Users\diego\AppData\Local\Temp\ccNdDNY6.s 			page 305


 14911 2052 74       		.byte	0x74
 14912 2053 00       		.sleb128 0
 14913 2054 00       		.byte	0
 14914 2055 0F       		.uleb128 0xf
 14915 2056 4A1E0000 		.4byte	.LVL379
 14916 205a AE3D0000 		.4byte	0x3dae
 14917 205e 75200000 		.4byte	0x2075
 14918 2062 10       		.uleb128 0x10
 14919 2063 01       		.uleb128 0x1
 14920 2064 52       		.byte	0x52
 14921 2065 03       		.uleb128 0x3
 14922 2066 91       		.byte	0x91
 14923 2067 B47F     		.sleb128 -76
 14924 2069 10       		.uleb128 0x10
 14925 206a 01       		.uleb128 0x1
 14926 206b 51       		.byte	0x51
 14927 206c 02       		.uleb128 0x2
 14928 206d 91       		.byte	0x91
 14929 206e 44       		.sleb128 -60
 14930 206f 10       		.uleb128 0x10
 14931 2070 01       		.uleb128 0x1
 14932 2071 50       		.byte	0x50
 14933 2072 01       		.uleb128 0x1
 14934 2073 32       		.byte	0x32
 14935 2074 00       		.byte	0
 14936 2075 0F       		.uleb128 0xf
 14937 2076 601E0000 		.4byte	.LVL380
 14938 207a 533D0000 		.4byte	0x3d53
 14939 207e 89200000 		.4byte	0x2089
 14940 2082 10       		.uleb128 0x10
 14941 2083 01       		.uleb128 0x1
 14942 2084 50       		.byte	0x50
 14943 2085 02       		.uleb128 0x2
 14944 2086 74       		.byte	0x74
 14945 2087 00       		.sleb128 0
 14946 2088 00       		.byte	0
 14947 2089 0F       		.uleb128 0xf
 14948 208a 781E0000 		.4byte	.LVL381
 14949 208e C93D0000 		.4byte	0x3dc9
 14950 2092 A6200000 		.4byte	0x20a6
 14951 2096 10       		.uleb128 0x10
 14952 2097 01       		.uleb128 0x1
 14953 2098 51       		.byte	0x51
 14954 2099 02       		.uleb128 0x2
 14955 209a 74       		.byte	0x74
 14956 209b 00       		.sleb128 0
 14957 209c 10       		.uleb128 0x10
 14958 209d 01       		.uleb128 0x1
 14959 209e 50       		.byte	0x50
 14960 209f 05       		.uleb128 0x5
 14961 20a0 03       		.byte	0x3
 14962 20a1 00000000 		.4byte	resultado
 14963 20a5 00       		.byte	0
 14964 20a6 0F       		.uleb128 0xf
 14965 20a7 881E0000 		.4byte	.LVL382
 14966 20ab 393D0000 		.4byte	0x3d39
 14967 20af C0200000 		.4byte	0x20c0
ARM GAS  C:\Users\diego\AppData\Local\Temp\ccNdDNY6.s 			page 306


 14968 20b3 10       		.uleb128 0x10
 14969 20b4 01       		.uleb128 0x1
 14970 20b5 51       		.byte	0x51
 14971 20b6 02       		.uleb128 0x2
 14972 20b7 91       		.byte	0x91
 14973 20b8 54       		.sleb128 -44
 14974 20b9 10       		.uleb128 0x10
 14975 20ba 01       		.uleb128 0x1
 14976 20bb 50       		.byte	0x50
 14977 20bc 02       		.uleb128 0x2
 14978 20bd 08       		.byte	0x8
 14979 20be D9       		.byte	0xd9
 14980 20bf 00       		.byte	0
 14981 20c0 0F       		.uleb128 0xf
 14982 20c1 921E0000 		.4byte	.LVL383
 14983 20c5 393D0000 		.4byte	0x3d39
 14984 20c9 DE200000 		.4byte	0x20de
 14985 20cd 10       		.uleb128 0x10
 14986 20ce 01       		.uleb128 0x1
 14987 20cf 51       		.byte	0x51
 14988 20d0 05       		.uleb128 0x5
 14989 20d1 03       		.byte	0x3
 14990 20d2 00000000 		.4byte	resultado
 14991 20d6 10       		.uleb128 0x10
 14992 20d7 01       		.uleb128 0x1
 14993 20d8 50       		.byte	0x50
 14994 20d9 03       		.uleb128 0x3
 14995 20da 0A       		.byte	0xa
 14996 20db 1A02     		.2byte	0x21a
 14997 20dd 00       		.byte	0
 14998 20de 0F       		.uleb128 0xf
 14999 20df 9E1E0000 		.4byte	.LVL384
 15000 20e3 393D0000 		.4byte	0x3d39
 15001 20e7 F9200000 		.4byte	0x20f9
 15002 20eb 10       		.uleb128 0x10
 15003 20ec 01       		.uleb128 0x1
 15004 20ed 51       		.byte	0x51
 15005 20ee 02       		.uleb128 0x2
 15006 20ef 91       		.byte	0x91
 15007 20f0 54       		.sleb128 -44
 15008 20f1 10       		.uleb128 0x10
 15009 20f2 01       		.uleb128 0x1
 15010 20f3 50       		.byte	0x50
 15011 20f4 03       		.uleb128 0x3
 15012 20f5 0A       		.byte	0xa
 15013 20f6 4001     		.2byte	0x140
 15014 20f8 00       		.byte	0
 15015 20f9 0F       		.uleb128 0xf
 15016 20fa A81E0000 		.4byte	.LVL385
 15017 20fe 393D0000 		.4byte	0x3d39
 15018 2102 17210000 		.4byte	0x2117
 15019 2106 10       		.uleb128 0x10
 15020 2107 01       		.uleb128 0x1
 15021 2108 51       		.byte	0x51
 15022 2109 05       		.uleb128 0x5
 15023 210a 03       		.byte	0x3
 15024 210b 00000000 		.4byte	resultado
ARM GAS  C:\Users\diego\AppData\Local\Temp\ccNdDNY6.s 			page 307


 15025 210f 10       		.uleb128 0x10
 15026 2110 01       		.uleb128 0x1
 15027 2111 50       		.byte	0x50
 15028 2112 03       		.uleb128 0x3
 15029 2113 0A       		.byte	0xa
 15030 2114 4002     		.2byte	0x240
 15031 2116 00       		.byte	0
 15032 2117 0F       		.uleb128 0xf
 15033 2118 EC1E0000 		.4byte	.LVL386
 15034 211c 533D0000 		.4byte	0x3d53
 15035 2120 2B210000 		.4byte	0x212b
 15036 2124 10       		.uleb128 0x10
 15037 2125 01       		.uleb128 0x1
 15038 2126 50       		.byte	0x50
 15039 2127 02       		.uleb128 0x2
 15040 2128 74       		.byte	0x74
 15041 2129 00       		.sleb128 0
 15042 212a 00       		.byte	0
 15043 212b 0F       		.uleb128 0xf
 15044 212c 041F0000 		.4byte	.LVL387
 15045 2130 533D0000 		.4byte	0x3d53
 15046 2134 44210000 		.4byte	0x2144
 15047 2138 10       		.uleb128 0x10
 15048 2139 01       		.uleb128 0x1
 15049 213a 51       		.byte	0x51
 15050 213b 01       		.uleb128 0x1
 15051 213c 3A       		.byte	0x3a
 15052 213d 10       		.uleb128 0x10
 15053 213e 01       		.uleb128 0x1
 15054 213f 50       		.byte	0x50
 15055 2140 02       		.uleb128 0x2
 15056 2141 74       		.byte	0x74
 15057 2142 00       		.sleb128 0
 15058 2143 00       		.byte	0
 15059 2144 0F       		.uleb128 0xf
 15060 2145 161F0000 		.4byte	.LVL388
 15061 2149 533D0000 		.4byte	0x3d53
 15062 214d 58210000 		.4byte	0x2158
 15063 2151 10       		.uleb128 0x10
 15064 2152 01       		.uleb128 0x1
 15065 2153 50       		.byte	0x50
 15066 2154 02       		.uleb128 0x2
 15067 2155 74       		.byte	0x74
 15068 2156 00       		.sleb128 0
 15069 2157 00       		.byte	0
 15070 2158 0F       		.uleb128 0xf
 15071 2159 2E1F0000 		.4byte	.LVL389
 15072 215d 533D0000 		.4byte	0x3d53
 15073 2161 71210000 		.4byte	0x2171
 15074 2165 10       		.uleb128 0x10
 15075 2166 01       		.uleb128 0x1
 15076 2167 51       		.byte	0x51
 15077 2168 01       		.uleb128 0x1
 15078 2169 3A       		.byte	0x3a
 15079 216a 10       		.uleb128 0x10
 15080 216b 01       		.uleb128 0x1
 15081 216c 50       		.byte	0x50
ARM GAS  C:\Users\diego\AppData\Local\Temp\ccNdDNY6.s 			page 308


 15082 216d 02       		.uleb128 0x2
 15083 216e 74       		.byte	0x74
 15084 216f 00       		.sleb128 0
 15085 2170 00       		.byte	0
 15086 2171 0F       		.uleb128 0xf
 15087 2172 421F0000 		.4byte	.LVL390
 15088 2176 533D0000 		.4byte	0x3d53
 15089 217a 85210000 		.4byte	0x2185
 15090 217e 10       		.uleb128 0x10
 15091 217f 01       		.uleb128 0x1
 15092 2180 50       		.byte	0x50
 15093 2181 02       		.uleb128 0x2
 15094 2182 74       		.byte	0x74
 15095 2183 00       		.sleb128 0
 15096 2184 00       		.byte	0
 15097 2185 0F       		.uleb128 0xf
 15098 2186 5A1F0000 		.4byte	.LVL391
 15099 218a 533D0000 		.4byte	0x3d53
 15100 218e 9E210000 		.4byte	0x219e
 15101 2192 10       		.uleb128 0x10
 15102 2193 01       		.uleb128 0x1
 15103 2194 51       		.byte	0x51
 15104 2195 01       		.uleb128 0x1
 15105 2196 3A       		.byte	0x3a
 15106 2197 10       		.uleb128 0x10
 15107 2198 01       		.uleb128 0x1
 15108 2199 50       		.byte	0x50
 15109 219a 02       		.uleb128 0x2
 15110 219b 74       		.byte	0x74
 15111 219c 00       		.sleb128 0
 15112 219d 00       		.byte	0
 15113 219e 0F       		.uleb128 0xf
 15114 219f 621F0000 		.4byte	.LVL392
 15115 21a3 6D3D0000 		.4byte	0x3d6d
 15116 21a7 B7210000 		.4byte	0x21b7
 15117 21ab 10       		.uleb128 0x10
 15118 21ac 01       		.uleb128 0x1
 15119 21ad 51       		.byte	0x51
 15120 21ae 02       		.uleb128 0x2
 15121 21af 74       		.byte	0x74
 15122 21b0 00       		.sleb128 0
 15123 21b1 10       		.uleb128 0x10
 15124 21b2 01       		.uleb128 0x1
 15125 21b3 50       		.byte	0x50
 15126 21b4 01       		.uleb128 0x1
 15127 21b5 3C       		.byte	0x3c
 15128 21b6 00       		.byte	0
 15129 21b7 0F       		.uleb128 0xf
 15130 21b8 BC1F0000 		.4byte	.LVL393
 15131 21bc 533D0000 		.4byte	0x3d53
 15132 21c0 CB210000 		.4byte	0x21cb
 15133 21c4 10       		.uleb128 0x10
 15134 21c5 01       		.uleb128 0x1
 15135 21c6 50       		.byte	0x50
 15136 21c7 02       		.uleb128 0x2
 15137 21c8 74       		.byte	0x74
 15138 21c9 00       		.sleb128 0
ARM GAS  C:\Users\diego\AppData\Local\Temp\ccNdDNY6.s 			page 309


 15139 21ca 00       		.byte	0
 15140 21cb 0F       		.uleb128 0xf
 15141 21cc D41F0000 		.4byte	.LVL394
 15142 21d0 533D0000 		.4byte	0x3d53
 15143 21d4 E4210000 		.4byte	0x21e4
 15144 21d8 10       		.uleb128 0x10
 15145 21d9 01       		.uleb128 0x1
 15146 21da 51       		.byte	0x51
 15147 21db 01       		.uleb128 0x1
 15148 21dc 3A       		.byte	0x3a
 15149 21dd 10       		.uleb128 0x10
 15150 21de 01       		.uleb128 0x1
 15151 21df 50       		.byte	0x50
 15152 21e0 02       		.uleb128 0x2
 15153 21e1 74       		.byte	0x74
 15154 21e2 00       		.sleb128 0
 15155 21e3 00       		.byte	0
 15156 21e4 0F       		.uleb128 0xf
 15157 21e5 E61F0000 		.4byte	.LVL395
 15158 21e9 833D0000 		.4byte	0x3d83
 15159 21ed FE210000 		.4byte	0x21fe
 15160 21f1 10       		.uleb128 0x10
 15161 21f2 01       		.uleb128 0x1
 15162 21f3 51       		.byte	0x51
 15163 21f4 01       		.uleb128 0x1
 15164 21f5 49       		.byte	0x49
 15165 21f6 10       		.uleb128 0x10
 15166 21f7 01       		.uleb128 0x1
 15167 21f8 50       		.byte	0x50
 15168 21f9 03       		.uleb128 0x3
 15169 21fa 0A       		.byte	0xa
 15170 21fb 0001     		.2byte	0x100
 15171 21fd 00       		.byte	0
 15172 21fe 0F       		.uleb128 0xf
 15173 21ff F21F0000 		.4byte	.LVL396
 15174 2203 833D0000 		.4byte	0x3d83
 15175 2207 18220000 		.4byte	0x2218
 15176 220b 10       		.uleb128 0x10
 15177 220c 01       		.uleb128 0x1
 15178 220d 51       		.byte	0x51
 15179 220e 01       		.uleb128 0x1
 15180 220f 49       		.byte	0x49
 15181 2210 10       		.uleb128 0x10
 15182 2211 01       		.uleb128 0x1
 15183 2212 50       		.byte	0x50
 15184 2213 03       		.uleb128 0x3
 15185 2214 0A       		.byte	0xa
 15186 2215 5901     		.2byte	0x159
 15187 2217 00       		.byte	0
 15188 2218 0F       		.uleb128 0xf
 15189 2219 F81F0000 		.4byte	.LVL397
 15190 221d 9D3D0000 		.4byte	0x3d9d
 15191 2221 2C220000 		.4byte	0x222c
 15192 2225 10       		.uleb128 0x10
 15193 2226 01       		.uleb128 0x1
 15194 2227 50       		.byte	0x50
 15195 2228 02       		.uleb128 0x2
ARM GAS  C:\Users\diego\AppData\Local\Temp\ccNdDNY6.s 			page 310


 15196 2229 74       		.byte	0x74
 15197 222a 00       		.sleb128 0
 15198 222b 00       		.byte	0
 15199 222c 0F       		.uleb128 0xf
 15200 222d 3A200000 		.4byte	.LVL398
 15201 2231 AE3D0000 		.4byte	0x3dae
 15202 2235 4C220000 		.4byte	0x224c
 15203 2239 10       		.uleb128 0x10
 15204 223a 01       		.uleb128 0x1
 15205 223b 52       		.byte	0x52
 15206 223c 03       		.uleb128 0x3
 15207 223d 91       		.byte	0x91
 15208 223e B47F     		.sleb128 -76
 15209 2240 10       		.uleb128 0x10
 15210 2241 01       		.uleb128 0x1
 15211 2242 51       		.byte	0x51
 15212 2243 02       		.uleb128 0x2
 15213 2244 91       		.byte	0x91
 15214 2245 44       		.sleb128 -60
 15215 2246 10       		.uleb128 0x10
 15216 2247 01       		.uleb128 0x1
 15217 2248 50       		.byte	0x50
 15218 2249 01       		.uleb128 0x1
 15219 224a 32       		.byte	0x32
 15220 224b 00       		.byte	0
 15221 224c 0F       		.uleb128 0xf
 15222 224d 50200000 		.4byte	.LVL399
 15223 2251 533D0000 		.4byte	0x3d53
 15224 2255 60220000 		.4byte	0x2260
 15225 2259 10       		.uleb128 0x10
 15226 225a 01       		.uleb128 0x1
 15227 225b 50       		.byte	0x50
 15228 225c 02       		.uleb128 0x2
 15229 225d 74       		.byte	0x74
 15230 225e 00       		.sleb128 0
 15231 225f 00       		.byte	0
 15232 2260 0F       		.uleb128 0xf
 15233 2261 68200000 		.4byte	.LVL400
 15234 2265 C93D0000 		.4byte	0x3dc9
 15235 2269 7D220000 		.4byte	0x227d
 15236 226d 10       		.uleb128 0x10
 15237 226e 01       		.uleb128 0x1
 15238 226f 51       		.byte	0x51
 15239 2270 02       		.uleb128 0x2
 15240 2271 74       		.byte	0x74
 15241 2272 00       		.sleb128 0
 15242 2273 10       		.uleb128 0x10
 15243 2274 01       		.uleb128 0x1
 15244 2275 50       		.byte	0x50
 15245 2276 05       		.uleb128 0x5
 15246 2277 03       		.byte	0x3
 15247 2278 00000000 		.4byte	resultado
 15248 227c 00       		.byte	0
 15249 227d 0F       		.uleb128 0xf
 15250 227e 7A200000 		.4byte	.LVL401
 15251 2282 393D0000 		.4byte	0x3d39
 15252 2286 98220000 		.4byte	0x2298
ARM GAS  C:\Users\diego\AppData\Local\Temp\ccNdDNY6.s 			page 311


 15253 228a 10       		.uleb128 0x10
 15254 228b 01       		.uleb128 0x1
 15255 228c 51       		.byte	0x51
 15256 228d 02       		.uleb128 0x2
 15257 228e 91       		.byte	0x91
 15258 228f 54       		.sleb128 -44
 15259 2290 10       		.uleb128 0x10
 15260 2291 01       		.uleb128 0x1
 15261 2292 50       		.byte	0x50
 15262 2293 03       		.uleb128 0x3
 15263 2294 0A       		.byte	0xa
 15264 2295 0001     		.2byte	0x100
 15265 2297 00       		.byte	0
 15266 2298 0F       		.uleb128 0xf
 15267 2299 84200000 		.4byte	.LVL402
 15268 229d 393D0000 		.4byte	0x3d39
 15269 22a1 B6220000 		.4byte	0x22b6
 15270 22a5 10       		.uleb128 0x10
 15271 22a6 01       		.uleb128 0x1
 15272 22a7 51       		.byte	0x51
 15273 22a8 05       		.uleb128 0x5
 15274 22a9 03       		.byte	0x3
 15275 22aa 00000000 		.4byte	resultado
 15276 22ae 10       		.uleb128 0x10
 15277 22af 01       		.uleb128 0x1
 15278 22b0 50       		.byte	0x50
 15279 22b1 03       		.uleb128 0x3
 15280 22b2 0A       		.byte	0xa
 15281 22b3 0D02     		.2byte	0x20d
 15282 22b5 00       		.byte	0
 15283 22b6 0F       		.uleb128 0xf
 15284 22b7 90200000 		.4byte	.LVL403
 15285 22bb 393D0000 		.4byte	0x3d39
 15286 22bf D1220000 		.4byte	0x22d1
 15287 22c3 10       		.uleb128 0x10
 15288 22c4 01       		.uleb128 0x1
 15289 22c5 51       		.byte	0x51
 15290 22c6 02       		.uleb128 0x2
 15291 22c7 91       		.byte	0x91
 15292 22c8 54       		.sleb128 -44
 15293 22c9 10       		.uleb128 0x10
 15294 22ca 01       		.uleb128 0x1
 15295 22cb 50       		.byte	0x50
 15296 22cc 03       		.uleb128 0x3
 15297 22cd 0A       		.byte	0xa
 15298 22ce 5901     		.2byte	0x159
 15299 22d0 00       		.byte	0
 15300 22d1 0F       		.uleb128 0xf
 15301 22d2 9A200000 		.4byte	.LVL404
 15302 22d6 393D0000 		.4byte	0x3d39
 15303 22da EF220000 		.4byte	0x22ef
 15304 22de 10       		.uleb128 0x10
 15305 22df 01       		.uleb128 0x1
 15306 22e0 51       		.byte	0x51
 15307 22e1 05       		.uleb128 0x5
 15308 22e2 03       		.byte	0x3
 15309 22e3 00000000 		.4byte	resultado
ARM GAS  C:\Users\diego\AppData\Local\Temp\ccNdDNY6.s 			page 312


 15310 22e7 10       		.uleb128 0x10
 15311 22e8 01       		.uleb128 0x1
 15312 22e9 50       		.byte	0x50
 15313 22ea 03       		.uleb128 0x3
 15314 22eb 0A       		.byte	0xa
 15315 22ec 4D02     		.2byte	0x24d
 15316 22ee 00       		.byte	0
 15317 22ef 0F       		.uleb128 0xf
 15318 22f0 DE200000 		.4byte	.LVL405
 15319 22f4 533D0000 		.4byte	0x3d53
 15320 22f8 03230000 		.4byte	0x2303
 15321 22fc 10       		.uleb128 0x10
 15322 22fd 01       		.uleb128 0x1
 15323 22fe 50       		.byte	0x50
 15324 22ff 02       		.uleb128 0x2
 15325 2300 74       		.byte	0x74
 15326 2301 00       		.sleb128 0
 15327 2302 00       		.byte	0
 15328 2303 0F       		.uleb128 0xf
 15329 2304 F6200000 		.4byte	.LVL406
 15330 2308 533D0000 		.4byte	0x3d53
 15331 230c 1C230000 		.4byte	0x231c
 15332 2310 10       		.uleb128 0x10
 15333 2311 01       		.uleb128 0x1
 15334 2312 51       		.byte	0x51
 15335 2313 01       		.uleb128 0x1
 15336 2314 3A       		.byte	0x3a
 15337 2315 10       		.uleb128 0x10
 15338 2316 01       		.uleb128 0x1
 15339 2317 50       		.byte	0x50
 15340 2318 02       		.uleb128 0x2
 15341 2319 74       		.byte	0x74
 15342 231a 00       		.sleb128 0
 15343 231b 00       		.byte	0
 15344 231c 0F       		.uleb128 0xf
 15345 231d 08210000 		.4byte	.LVL407
 15346 2321 533D0000 		.4byte	0x3d53
 15347 2325 30230000 		.4byte	0x2330
 15348 2329 10       		.uleb128 0x10
 15349 232a 01       		.uleb128 0x1
 15350 232b 50       		.byte	0x50
 15351 232c 02       		.uleb128 0x2
 15352 232d 74       		.byte	0x74
 15353 232e 00       		.sleb128 0
 15354 232f 00       		.byte	0
 15355 2330 0F       		.uleb128 0xf
 15356 2331 20210000 		.4byte	.LVL408
 15357 2335 533D0000 		.4byte	0x3d53
 15358 2339 49230000 		.4byte	0x2349
 15359 233d 10       		.uleb128 0x10
 15360 233e 01       		.uleb128 0x1
 15361 233f 51       		.byte	0x51
 15362 2340 01       		.uleb128 0x1
 15363 2341 3A       		.byte	0x3a
 15364 2342 10       		.uleb128 0x10
 15365 2343 01       		.uleb128 0x1
 15366 2344 50       		.byte	0x50
ARM GAS  C:\Users\diego\AppData\Local\Temp\ccNdDNY6.s 			page 313


 15367 2345 02       		.uleb128 0x2
 15368 2346 74       		.byte	0x74
 15369 2347 00       		.sleb128 0
 15370 2348 00       		.byte	0
 15371 2349 0F       		.uleb128 0xf
 15372 234a 34210000 		.4byte	.LVL409
 15373 234e 533D0000 		.4byte	0x3d53
 15374 2352 5D230000 		.4byte	0x235d
 15375 2356 10       		.uleb128 0x10
 15376 2357 01       		.uleb128 0x1
 15377 2358 50       		.byte	0x50
 15378 2359 02       		.uleb128 0x2
 15379 235a 74       		.byte	0x74
 15380 235b 00       		.sleb128 0
 15381 235c 00       		.byte	0
 15382 235d 0F       		.uleb128 0xf
 15383 235e 4C210000 		.4byte	.LVL410
 15384 2362 533D0000 		.4byte	0x3d53
 15385 2366 76230000 		.4byte	0x2376
 15386 236a 10       		.uleb128 0x10
 15387 236b 01       		.uleb128 0x1
 15388 236c 51       		.byte	0x51
 15389 236d 01       		.uleb128 0x1
 15390 236e 3A       		.byte	0x3a
 15391 236f 10       		.uleb128 0x10
 15392 2370 01       		.uleb128 0x1
 15393 2371 50       		.byte	0x50
 15394 2372 02       		.uleb128 0x2
 15395 2373 74       		.byte	0x74
 15396 2374 00       		.sleb128 0
 15397 2375 00       		.byte	0
 15398 2376 0F       		.uleb128 0xf
 15399 2377 54210000 		.4byte	.LVL411
 15400 237b 6D3D0000 		.4byte	0x3d6d
 15401 237f 8F230000 		.4byte	0x238f
 15402 2383 10       		.uleb128 0x10
 15403 2384 01       		.uleb128 0x1
 15404 2385 51       		.byte	0x51
 15405 2386 02       		.uleb128 0x2
 15406 2387 74       		.byte	0x74
 15407 2388 00       		.sleb128 0
 15408 2389 10       		.uleb128 0x10
 15409 238a 01       		.uleb128 0x1
 15410 238b 50       		.byte	0x50
 15411 238c 01       		.uleb128 0x1
 15412 238d 3C       		.byte	0x3c
 15413 238e 00       		.byte	0
 15414 238f 0F       		.uleb128 0xf
 15415 2390 68210000 		.4byte	.LVL412
 15416 2394 533D0000 		.4byte	0x3d53
 15417 2398 A3230000 		.4byte	0x23a3
 15418 239c 10       		.uleb128 0x10
 15419 239d 01       		.uleb128 0x1
 15420 239e 50       		.byte	0x50
 15421 239f 02       		.uleb128 0x2
 15422 23a0 74       		.byte	0x74
 15423 23a1 00       		.sleb128 0
ARM GAS  C:\Users\diego\AppData\Local\Temp\ccNdDNY6.s 			page 314


 15424 23a2 00       		.byte	0
 15425 23a3 0F       		.uleb128 0xf
 15426 23a4 80210000 		.4byte	.LVL413
 15427 23a8 533D0000 		.4byte	0x3d53
 15428 23ac BC230000 		.4byte	0x23bc
 15429 23b0 10       		.uleb128 0x10
 15430 23b1 01       		.uleb128 0x1
 15431 23b2 51       		.byte	0x51
 15432 23b3 01       		.uleb128 0x1
 15433 23b4 3A       		.byte	0x3a
 15434 23b5 10       		.uleb128 0x10
 15435 23b6 01       		.uleb128 0x1
 15436 23b7 50       		.byte	0x50
 15437 23b8 02       		.uleb128 0x2
 15438 23b9 74       		.byte	0x74
 15439 23ba 00       		.sleb128 0
 15440 23bb 00       		.byte	0
 15441 23bc 0F       		.uleb128 0xf
 15442 23bd 92210000 		.4byte	.LVL414
 15443 23c1 833D0000 		.4byte	0x3d83
 15444 23c5 D6230000 		.4byte	0x23d6
 15445 23c9 10       		.uleb128 0x10
 15446 23ca 01       		.uleb128 0x1
 15447 23cb 51       		.byte	0x51
 15448 23cc 01       		.uleb128 0x1
 15449 23cd 49       		.byte	0x49
 15450 23ce 10       		.uleb128 0x10
 15451 23cf 01       		.uleb128 0x1
 15452 23d0 50       		.byte	0x50
 15453 23d1 03       		.uleb128 0x3
 15454 23d2 0A       		.byte	0xa
 15455 23d3 4804     		.2byte	0x448
 15456 23d5 00       		.byte	0
 15457 23d6 0F       		.uleb128 0xf
 15458 23d7 9E210000 		.4byte	.LVL415
 15459 23db 833D0000 		.4byte	0x3d83
 15460 23df F0230000 		.4byte	0x23f0
 15461 23e3 10       		.uleb128 0x10
 15462 23e4 01       		.uleb128 0x1
 15463 23e5 51       		.byte	0x51
 15464 23e6 01       		.uleb128 0x1
 15465 23e7 49       		.byte	0x49
 15466 23e8 10       		.uleb128 0x10
 15467 23e9 01       		.uleb128 0x1
 15468 23ea 50       		.byte	0x50
 15469 23eb 03       		.uleb128 0x3
 15470 23ec 0A       		.byte	0xa
 15471 23ed 1E04     		.2byte	0x41e
 15472 23ef 00       		.byte	0
 15473 23f0 0F       		.uleb128 0xf
 15474 23f1 A4210000 		.4byte	.LVL416
 15475 23f5 9D3D0000 		.4byte	0x3d9d
 15476 23f9 04240000 		.4byte	0x2404
 15477 23fd 10       		.uleb128 0x10
 15478 23fe 01       		.uleb128 0x1
 15479 23ff 50       		.byte	0x50
 15480 2400 02       		.uleb128 0x2
ARM GAS  C:\Users\diego\AppData\Local\Temp\ccNdDNY6.s 			page 315


 15481 2401 74       		.byte	0x74
 15482 2402 00       		.sleb128 0
 15483 2403 00       		.byte	0
 15484 2404 0F       		.uleb128 0xf
 15485 2405 E6210000 		.4byte	.LVL417
 15486 2409 AE3D0000 		.4byte	0x3dae
 15487 240d 24240000 		.4byte	0x2424
 15488 2411 10       		.uleb128 0x10
 15489 2412 01       		.uleb128 0x1
 15490 2413 52       		.byte	0x52
 15491 2414 03       		.uleb128 0x3
 15492 2415 91       		.byte	0x91
 15493 2416 B47F     		.sleb128 -76
 15494 2418 10       		.uleb128 0x10
 15495 2419 01       		.uleb128 0x1
 15496 241a 51       		.byte	0x51
 15497 241b 02       		.uleb128 0x2
 15498 241c 91       		.byte	0x91
 15499 241d 44       		.sleb128 -60
 15500 241e 10       		.uleb128 0x10
 15501 241f 01       		.uleb128 0x1
 15502 2420 50       		.byte	0x50
 15503 2421 01       		.uleb128 0x1
 15504 2422 32       		.byte	0x32
 15505 2423 00       		.byte	0
 15506 2424 0F       		.uleb128 0xf
 15507 2425 FC210000 		.4byte	.LVL418
 15508 2429 533D0000 		.4byte	0x3d53
 15509 242d 38240000 		.4byte	0x2438
 15510 2431 10       		.uleb128 0x10
 15511 2432 01       		.uleb128 0x1
 15512 2433 50       		.byte	0x50
 15513 2434 02       		.uleb128 0x2
 15514 2435 74       		.byte	0x74
 15515 2436 00       		.sleb128 0
 15516 2437 00       		.byte	0
 15517 2438 0F       		.uleb128 0xf
 15518 2439 14220000 		.4byte	.LVL419
 15519 243d C93D0000 		.4byte	0x3dc9
 15520 2441 55240000 		.4byte	0x2455
 15521 2445 10       		.uleb128 0x10
 15522 2446 01       		.uleb128 0x1
 15523 2447 51       		.byte	0x51
 15524 2448 02       		.uleb128 0x2
 15525 2449 74       		.byte	0x74
 15526 244a 00       		.sleb128 0
 15527 244b 10       		.uleb128 0x10
 15528 244c 01       		.uleb128 0x1
 15529 244d 50       		.byte	0x50
 15530 244e 05       		.uleb128 0x5
 15531 244f 03       		.byte	0x3
 15532 2450 00000000 		.4byte	resultado
 15533 2454 00       		.byte	0
 15534 2455 0F       		.uleb128 0xf
 15535 2456 26220000 		.4byte	.LVL420
 15536 245a 393D0000 		.4byte	0x3d39
 15537 245e 70240000 		.4byte	0x2470
ARM GAS  C:\Users\diego\AppData\Local\Temp\ccNdDNY6.s 			page 316


 15538 2462 10       		.uleb128 0x10
 15539 2463 01       		.uleb128 0x1
 15540 2464 51       		.byte	0x51
 15541 2465 02       		.uleb128 0x2
 15542 2466 91       		.byte	0x91
 15543 2467 54       		.sleb128 -44
 15544 2468 10       		.uleb128 0x10
 15545 2469 01       		.uleb128 0x1
 15546 246a 50       		.byte	0x50
 15547 246b 03       		.uleb128 0x3
 15548 246c 0A       		.byte	0xa
 15549 246d 4804     		.2byte	0x448
 15550 246f 00       		.byte	0
 15551 2470 0F       		.uleb128 0xf
 15552 2471 30220000 		.4byte	.LVL421
 15553 2475 393D0000 		.4byte	0x3d39
 15554 2479 8E240000 		.4byte	0x248e
 15555 247d 10       		.uleb128 0x10
 15556 247e 01       		.uleb128 0x1
 15557 247f 51       		.byte	0x51
 15558 2480 05       		.uleb128 0x5
 15559 2481 03       		.byte	0x3
 15560 2482 00000000 		.4byte	resultado
 15561 2486 10       		.uleb128 0x10
 15562 2487 01       		.uleb128 0x1
 15563 2488 50       		.byte	0x50
 15564 2489 03       		.uleb128 0x3
 15565 248a 0A       		.byte	0xa
 15566 248b 0E04     		.2byte	0x40e
 15567 248d 00       		.byte	0
 15568 248e 0F       		.uleb128 0xf
 15569 248f 3C220000 		.4byte	.LVL422
 15570 2493 393D0000 		.4byte	0x3d39
 15571 2497 A9240000 		.4byte	0x24a9
 15572 249b 10       		.uleb128 0x10
 15573 249c 01       		.uleb128 0x1
 15574 249d 51       		.byte	0x51
 15575 249e 02       		.uleb128 0x2
 15576 249f 91       		.byte	0x91
 15577 24a0 54       		.sleb128 -44
 15578 24a1 10       		.uleb128 0x10
 15579 24a2 01       		.uleb128 0x1
 15580 24a3 50       		.byte	0x50
 15581 24a4 03       		.uleb128 0x3
 15582 24a5 0A       		.byte	0xa
 15583 24a6 1E04     		.2byte	0x41e
 15584 24a8 00       		.byte	0
 15585 24a9 0F       		.uleb128 0xf
 15586 24aa 46220000 		.4byte	.LVL423
 15587 24ae 393D0000 		.4byte	0x3d39
 15588 24b2 C7240000 		.4byte	0x24c7
 15589 24b6 10       		.uleb128 0x10
 15590 24b7 01       		.uleb128 0x1
 15591 24b8 51       		.byte	0x51
 15592 24b9 05       		.uleb128 0x5
 15593 24ba 03       		.byte	0x3
 15594 24bb 00000000 		.4byte	resultado
ARM GAS  C:\Users\diego\AppData\Local\Temp\ccNdDNY6.s 			page 317


 15595 24bf 10       		.uleb128 0x10
 15596 24c0 01       		.uleb128 0x1
 15597 24c1 50       		.byte	0x50
 15598 24c2 03       		.uleb128 0x3
 15599 24c3 0A       		.byte	0xa
 15600 24c4 3904     		.2byte	0x439
 15601 24c6 00       		.byte	0
 15602 24c7 11       		.uleb128 0x11
 15603 24c8 4A220000 		.4byte	.LVL424
 15604 24cc 273D0000 		.4byte	0x3d27
 15605 24d0 0F       		.uleb128 0xf
 15606 24d1 DA230000 		.4byte	.LVL425
 15607 24d5 533D0000 		.4byte	0x3d53
 15608 24d9 E4240000 		.4byte	0x24e4
 15609 24dd 10       		.uleb128 0x10
 15610 24de 01       		.uleb128 0x1
 15611 24df 50       		.byte	0x50
 15612 24e0 02       		.uleb128 0x2
 15613 24e1 74       		.byte	0x74
 15614 24e2 00       		.sleb128 0
 15615 24e3 00       		.byte	0
 15616 24e4 0F       		.uleb128 0xf
 15617 24e5 FC230000 		.4byte	.LVL426
 15618 24e9 533D0000 		.4byte	0x3d53
 15619 24ed F8240000 		.4byte	0x24f8
 15620 24f1 10       		.uleb128 0x10
 15621 24f2 01       		.uleb128 0x1
 15622 24f3 50       		.byte	0x50
 15623 24f4 02       		.uleb128 0x2
 15624 24f5 74       		.byte	0x74
 15625 24f6 00       		.sleb128 0
 15626 24f7 00       		.byte	0
 15627 24f8 0F       		.uleb128 0xf
 15628 24f9 14240000 		.4byte	.LVL427
 15629 24fd 533D0000 		.4byte	0x3d53
 15630 2501 11250000 		.4byte	0x2511
 15631 2505 10       		.uleb128 0x10
 15632 2506 01       		.uleb128 0x1
 15633 2507 51       		.byte	0x51
 15634 2508 01       		.uleb128 0x1
 15635 2509 3A       		.byte	0x3a
 15636 250a 10       		.uleb128 0x10
 15637 250b 01       		.uleb128 0x1
 15638 250c 50       		.byte	0x50
 15639 250d 02       		.uleb128 0x2
 15640 250e 74       		.byte	0x74
 15641 250f 00       		.sleb128 0
 15642 2510 00       		.byte	0
 15643 2511 0F       		.uleb128 0xf
 15644 2512 28240000 		.4byte	.LVL428
 15645 2516 533D0000 		.4byte	0x3d53
 15646 251a 25250000 		.4byte	0x2525
 15647 251e 10       		.uleb128 0x10
 15648 251f 01       		.uleb128 0x1
 15649 2520 50       		.byte	0x50
 15650 2521 02       		.uleb128 0x2
 15651 2522 74       		.byte	0x74
ARM GAS  C:\Users\diego\AppData\Local\Temp\ccNdDNY6.s 			page 318


 15652 2523 00       		.sleb128 0
 15653 2524 00       		.byte	0
 15654 2525 0F       		.uleb128 0xf
 15655 2526 40240000 		.4byte	.LVL429
 15656 252a 533D0000 		.4byte	0x3d53
 15657 252e 3E250000 		.4byte	0x253e
 15658 2532 10       		.uleb128 0x10
 15659 2533 01       		.uleb128 0x1
 15660 2534 51       		.byte	0x51
 15661 2535 01       		.uleb128 0x1
 15662 2536 3A       		.byte	0x3a
 15663 2537 10       		.uleb128 0x10
 15664 2538 01       		.uleb128 0x1
 15665 2539 50       		.byte	0x50
 15666 253a 02       		.uleb128 0x2
 15667 253b 74       		.byte	0x74
 15668 253c 00       		.sleb128 0
 15669 253d 00       		.byte	0
 15670 253e 0F       		.uleb128 0xf
 15671 253f 48240000 		.4byte	.LVL430
 15672 2543 6D3D0000 		.4byte	0x3d6d
 15673 2547 57250000 		.4byte	0x2557
 15674 254b 10       		.uleb128 0x10
 15675 254c 01       		.uleb128 0x1
 15676 254d 51       		.byte	0x51
 15677 254e 02       		.uleb128 0x2
 15678 254f 74       		.byte	0x74
 15679 2550 00       		.sleb128 0
 15680 2551 10       		.uleb128 0x10
 15681 2552 01       		.uleb128 0x1
 15682 2553 50       		.byte	0x50
 15683 2554 01       		.uleb128 0x1
 15684 2555 3C       		.byte	0x3c
 15685 2556 00       		.byte	0
 15686 2557 0F       		.uleb128 0xf
 15687 2558 5C240000 		.4byte	.LVL431
 15688 255c 533D0000 		.4byte	0x3d53
 15689 2560 6B250000 		.4byte	0x256b
 15690 2564 10       		.uleb128 0x10
 15691 2565 01       		.uleb128 0x1
 15692 2566 50       		.byte	0x50
 15693 2567 02       		.uleb128 0x2
 15694 2568 74       		.byte	0x74
 15695 2569 00       		.sleb128 0
 15696 256a 00       		.byte	0
 15697 256b 0F       		.uleb128 0xf
 15698 256c 74240000 		.4byte	.LVL432
 15699 2570 533D0000 		.4byte	0x3d53
 15700 2574 84250000 		.4byte	0x2584
 15701 2578 10       		.uleb128 0x10
 15702 2579 01       		.uleb128 0x1
 15703 257a 51       		.byte	0x51
 15704 257b 01       		.uleb128 0x1
 15705 257c 3A       		.byte	0x3a
 15706 257d 10       		.uleb128 0x10
 15707 257e 01       		.uleb128 0x1
 15708 257f 50       		.byte	0x50
ARM GAS  C:\Users\diego\AppData\Local\Temp\ccNdDNY6.s 			page 319


 15709 2580 02       		.uleb128 0x2
 15710 2581 74       		.byte	0x74
 15711 2582 00       		.sleb128 0
 15712 2583 00       		.byte	0
 15713 2584 0F       		.uleb128 0xf
 15714 2585 84240000 		.4byte	.LVL433
 15715 2589 833D0000 		.4byte	0x3d83
 15716 258d 9D250000 		.4byte	0x259d
 15717 2591 10       		.uleb128 0x10
 15718 2592 01       		.uleb128 0x1
 15719 2593 51       		.byte	0x51
 15720 2594 01       		.uleb128 0x1
 15721 2595 49       		.byte	0x49
 15722 2596 10       		.uleb128 0x10
 15723 2597 01       		.uleb128 0x1
 15724 2598 50       		.byte	0x50
 15725 2599 02       		.uleb128 0x2
 15726 259a 08       		.byte	0x8
 15727 259b C0       		.byte	0xc0
 15728 259c 00       		.byte	0
 15729 259d 0F       		.uleb128 0xf
 15730 259e 90240000 		.4byte	.LVL434
 15731 25a2 833D0000 		.4byte	0x3d83
 15732 25a6 B7250000 		.4byte	0x25b7
 15733 25aa 10       		.uleb128 0x10
 15734 25ab 01       		.uleb128 0x1
 15735 25ac 51       		.byte	0x51
 15736 25ad 01       		.uleb128 0x1
 15737 25ae 49       		.byte	0x49
 15738 25af 10       		.uleb128 0x10
 15739 25b0 01       		.uleb128 0x1
 15740 25b1 50       		.byte	0x50
 15741 25b2 03       		.uleb128 0x3
 15742 25b3 0A       		.byte	0xa
 15743 25b4 1901     		.2byte	0x119
 15744 25b6 00       		.byte	0
 15745 25b7 0F       		.uleb128 0xf
 15746 25b8 96240000 		.4byte	.LVL435
 15747 25bc 9D3D0000 		.4byte	0x3d9d
 15748 25c0 CB250000 		.4byte	0x25cb
 15749 25c4 10       		.uleb128 0x10
 15750 25c5 01       		.uleb128 0x1
 15751 25c6 50       		.byte	0x50
 15752 25c7 02       		.uleb128 0x2
 15753 25c8 74       		.byte	0x74
 15754 25c9 00       		.sleb128 0
 15755 25ca 00       		.byte	0
 15756 25cb 0F       		.uleb128 0xf
 15757 25cc D8240000 		.4byte	.LVL436
 15758 25d0 AE3D0000 		.4byte	0x3dae
 15759 25d4 EB250000 		.4byte	0x25eb
 15760 25d8 10       		.uleb128 0x10
 15761 25d9 01       		.uleb128 0x1
 15762 25da 52       		.byte	0x52
 15763 25db 03       		.uleb128 0x3
 15764 25dc 91       		.byte	0x91
 15765 25dd B47F     		.sleb128 -76
ARM GAS  C:\Users\diego\AppData\Local\Temp\ccNdDNY6.s 			page 320


 15766 25df 10       		.uleb128 0x10
 15767 25e0 01       		.uleb128 0x1
 15768 25e1 51       		.byte	0x51
 15769 25e2 02       		.uleb128 0x2
 15770 25e3 91       		.byte	0x91
 15771 25e4 44       		.sleb128 -60
 15772 25e5 10       		.uleb128 0x10
 15773 25e6 01       		.uleb128 0x1
 15774 25e7 50       		.byte	0x50
 15775 25e8 01       		.uleb128 0x1
 15776 25e9 32       		.byte	0x32
 15777 25ea 00       		.byte	0
 15778 25eb 0F       		.uleb128 0xf
 15779 25ec EE240000 		.4byte	.LVL437
 15780 25f0 533D0000 		.4byte	0x3d53
 15781 25f4 FF250000 		.4byte	0x25ff
 15782 25f8 10       		.uleb128 0x10
 15783 25f9 01       		.uleb128 0x1
 15784 25fa 50       		.byte	0x50
 15785 25fb 02       		.uleb128 0x2
 15786 25fc 74       		.byte	0x74
 15787 25fd 00       		.sleb128 0
 15788 25fe 00       		.byte	0
 15789 25ff 0F       		.uleb128 0xf
 15790 2600 06250000 		.4byte	.LVL438
 15791 2604 C93D0000 		.4byte	0x3dc9
 15792 2608 1C260000 		.4byte	0x261c
 15793 260c 10       		.uleb128 0x10
 15794 260d 01       		.uleb128 0x1
 15795 260e 51       		.byte	0x51
 15796 260f 02       		.uleb128 0x2
 15797 2610 74       		.byte	0x74
 15798 2611 00       		.sleb128 0
 15799 2612 10       		.uleb128 0x10
 15800 2613 01       		.uleb128 0x1
 15801 2614 50       		.byte	0x50
 15802 2615 05       		.uleb128 0x5
 15803 2616 03       		.byte	0x3
 15804 2617 00000000 		.4byte	resultado
 15805 261b 00       		.byte	0
 15806 261c 0F       		.uleb128 0xf
 15807 261d 16250000 		.4byte	.LVL439
 15808 2621 393D0000 		.4byte	0x3d39
 15809 2625 36260000 		.4byte	0x2636
 15810 2629 10       		.uleb128 0x10
 15811 262a 01       		.uleb128 0x1
 15812 262b 51       		.byte	0x51
 15813 262c 02       		.uleb128 0x2
 15814 262d 91       		.byte	0x91
 15815 262e 54       		.sleb128 -44
 15816 262f 10       		.uleb128 0x10
 15817 2630 01       		.uleb128 0x1
 15818 2631 50       		.byte	0x50
 15819 2632 02       		.uleb128 0x2
 15820 2633 08       		.byte	0x8
 15821 2634 C0       		.byte	0xc0
 15822 2635 00       		.byte	0
ARM GAS  C:\Users\diego\AppData\Local\Temp\ccNdDNY6.s 			page 321


 15823 2636 0F       		.uleb128 0xf
 15824 2637 20250000 		.4byte	.LVL440
 15825 263b 393D0000 		.4byte	0x3d39
 15826 263f 54260000 		.4byte	0x2654
 15827 2643 10       		.uleb128 0x10
 15828 2644 01       		.uleb128 0x1
 15829 2645 51       		.byte	0x51
 15830 2646 05       		.uleb128 0x5
 15831 2647 03       		.byte	0x3
 15832 2648 00000000 		.4byte	resultado
 15833 264c 10       		.uleb128 0x10
 15834 264d 01       		.uleb128 0x1
 15835 264e 50       		.byte	0x50
 15836 264f 03       		.uleb128 0x3
 15837 2650 0A       		.byte	0xa
 15838 2651 0002     		.2byte	0x200
 15839 2653 00       		.byte	0
 15840 2654 0F       		.uleb128 0xf
 15841 2655 7A250000 		.4byte	.LVL441
 15842 2659 393D0000 		.4byte	0x3d39
 15843 265d 6F260000 		.4byte	0x266f
 15844 2661 10       		.uleb128 0x10
 15845 2662 01       		.uleb128 0x1
 15846 2663 51       		.byte	0x51
 15847 2664 02       		.uleb128 0x2
 15848 2665 91       		.byte	0x91
 15849 2666 54       		.sleb128 -44
 15850 2667 10       		.uleb128 0x10
 15851 2668 01       		.uleb128 0x1
 15852 2669 50       		.byte	0x50
 15853 266a 03       		.uleb128 0x3
 15854 266b 0A       		.byte	0xa
 15855 266c 1901     		.2byte	0x119
 15856 266e 00       		.byte	0
 15857 266f 0F       		.uleb128 0xf
 15858 2670 84250000 		.4byte	.LVL442
 15859 2674 393D0000 		.4byte	0x3d39
 15860 2678 8D260000 		.4byte	0x268d
 15861 267c 10       		.uleb128 0x10
 15862 267d 01       		.uleb128 0x1
 15863 267e 51       		.byte	0x51
 15864 267f 05       		.uleb128 0x5
 15865 2680 03       		.byte	0x3
 15866 2681 00000000 		.4byte	resultado
 15867 2685 10       		.uleb128 0x10
 15868 2686 01       		.uleb128 0x1
 15869 2687 50       		.byte	0x50
 15870 2688 03       		.uleb128 0x3
 15871 2689 0A       		.byte	0xa
 15872 268a 2702     		.2byte	0x227
 15873 268c 00       		.byte	0
 15874 268d 0F       		.uleb128 0xf
 15875 268e F0250000 		.4byte	.LVL443
 15876 2692 533D0000 		.4byte	0x3d53
 15877 2696 A1260000 		.4byte	0x26a1
 15878 269a 10       		.uleb128 0x10
 15879 269b 01       		.uleb128 0x1
ARM GAS  C:\Users\diego\AppData\Local\Temp\ccNdDNY6.s 			page 322


 15880 269c 50       		.byte	0x50
 15881 269d 02       		.uleb128 0x2
 15882 269e 74       		.byte	0x74
 15883 269f 00       		.sleb128 0
 15884 26a0 00       		.byte	0
 15885 26a1 0F       		.uleb128 0xf
 15886 26a2 08260000 		.4byte	.LVL444
 15887 26a6 533D0000 		.4byte	0x3d53
 15888 26aa BA260000 		.4byte	0x26ba
 15889 26ae 10       		.uleb128 0x10
 15890 26af 01       		.uleb128 0x1
 15891 26b0 51       		.byte	0x51
 15892 26b1 01       		.uleb128 0x1
 15893 26b2 3A       		.byte	0x3a
 15894 26b3 10       		.uleb128 0x10
 15895 26b4 01       		.uleb128 0x1
 15896 26b5 50       		.byte	0x50
 15897 26b6 02       		.uleb128 0x2
 15898 26b7 74       		.byte	0x74
 15899 26b8 00       		.sleb128 0
 15900 26b9 00       		.byte	0
 15901 26ba 0F       		.uleb128 0xf
 15902 26bb 1A260000 		.4byte	.LVL445
 15903 26bf 533D0000 		.4byte	0x3d53
 15904 26c3 CE260000 		.4byte	0x26ce
 15905 26c7 10       		.uleb128 0x10
 15906 26c8 01       		.uleb128 0x1
 15907 26c9 50       		.byte	0x50
 15908 26ca 02       		.uleb128 0x2
 15909 26cb 74       		.byte	0x74
 15910 26cc 00       		.sleb128 0
 15911 26cd 00       		.byte	0
 15912 26ce 0F       		.uleb128 0xf
 15913 26cf 32260000 		.4byte	.LVL446
 15914 26d3 533D0000 		.4byte	0x3d53
 15915 26d7 E7260000 		.4byte	0x26e7
 15916 26db 10       		.uleb128 0x10
 15917 26dc 01       		.uleb128 0x1
 15918 26dd 51       		.byte	0x51
 15919 26de 01       		.uleb128 0x1
 15920 26df 3A       		.byte	0x3a
 15921 26e0 10       		.uleb128 0x10
 15922 26e1 01       		.uleb128 0x1
 15923 26e2 50       		.byte	0x50
 15924 26e3 02       		.uleb128 0x2
 15925 26e4 74       		.byte	0x74
 15926 26e5 00       		.sleb128 0
 15927 26e6 00       		.byte	0
 15928 26e7 0F       		.uleb128 0xf
 15929 26e8 46260000 		.4byte	.LVL447
 15930 26ec 533D0000 		.4byte	0x3d53
 15931 26f0 FB260000 		.4byte	0x26fb
 15932 26f4 10       		.uleb128 0x10
 15933 26f5 01       		.uleb128 0x1
 15934 26f6 50       		.byte	0x50
 15935 26f7 02       		.uleb128 0x2
 15936 26f8 74       		.byte	0x74
ARM GAS  C:\Users\diego\AppData\Local\Temp\ccNdDNY6.s 			page 323


 15937 26f9 00       		.sleb128 0
 15938 26fa 00       		.byte	0
 15939 26fb 0F       		.uleb128 0xf
 15940 26fc 5E260000 		.4byte	.LVL448
 15941 2700 533D0000 		.4byte	0x3d53
 15942 2704 14270000 		.4byte	0x2714
 15943 2708 10       		.uleb128 0x10
 15944 2709 01       		.uleb128 0x1
 15945 270a 51       		.byte	0x51
 15946 270b 01       		.uleb128 0x1
 15947 270c 3A       		.byte	0x3a
 15948 270d 10       		.uleb128 0x10
 15949 270e 01       		.uleb128 0x1
 15950 270f 50       		.byte	0x50
 15951 2710 02       		.uleb128 0x2
 15952 2711 74       		.byte	0x74
 15953 2712 00       		.sleb128 0
 15954 2713 00       		.byte	0
 15955 2714 0F       		.uleb128 0xf
 15956 2715 66260000 		.4byte	.LVL449
 15957 2719 6D3D0000 		.4byte	0x3d6d
 15958 271d 2D270000 		.4byte	0x272d
 15959 2721 10       		.uleb128 0x10
 15960 2722 01       		.uleb128 0x1
 15961 2723 51       		.byte	0x51
 15962 2724 02       		.uleb128 0x2
 15963 2725 74       		.byte	0x74
 15964 2726 00       		.sleb128 0
 15965 2727 10       		.uleb128 0x10
 15966 2728 01       		.uleb128 0x1
 15967 2729 50       		.byte	0x50
 15968 272a 01       		.uleb128 0x1
 15969 272b 3C       		.byte	0x3c
 15970 272c 00       		.byte	0
 15971 272d 0F       		.uleb128 0xf
 15972 272e 7A260000 		.4byte	.LVL450
 15973 2732 533D0000 		.4byte	0x3d53
 15974 2736 41270000 		.4byte	0x2741
 15975 273a 10       		.uleb128 0x10
 15976 273b 01       		.uleb128 0x1
 15977 273c 50       		.byte	0x50
 15978 273d 02       		.uleb128 0x2
 15979 273e 74       		.byte	0x74
 15980 273f 00       		.sleb128 0
 15981 2740 00       		.byte	0
 15982 2741 0F       		.uleb128 0xf
 15983 2742 92260000 		.4byte	.LVL451
 15984 2746 533D0000 		.4byte	0x3d53
 15985 274a 5A270000 		.4byte	0x275a
 15986 274e 10       		.uleb128 0x10
 15987 274f 01       		.uleb128 0x1
 15988 2750 51       		.byte	0x51
 15989 2751 01       		.uleb128 0x1
 15990 2752 3A       		.byte	0x3a
 15991 2753 10       		.uleb128 0x10
 15992 2754 01       		.uleb128 0x1
 15993 2755 50       		.byte	0x50
ARM GAS  C:\Users\diego\AppData\Local\Temp\ccNdDNY6.s 			page 324


 15994 2756 02       		.uleb128 0x2
 15995 2757 74       		.byte	0x74
 15996 2758 00       		.sleb128 0
 15997 2759 00       		.byte	0
 15998 275a 0F       		.uleb128 0xf
 15999 275b A2260000 		.4byte	.LVL452
 16000 275f 833D0000 		.4byte	0x3d83
 16001 2763 73270000 		.4byte	0x2773
 16002 2767 10       		.uleb128 0x10
 16003 2768 01       		.uleb128 0x1
 16004 2769 51       		.byte	0x51
 16005 276a 01       		.uleb128 0x1
 16006 276b 49       		.byte	0x49
 16007 276c 10       		.uleb128 0x10
 16008 276d 01       		.uleb128 0x1
 16009 276e 50       		.byte	0x50
 16010 276f 02       		.uleb128 0x2
 16011 2770 08       		.byte	0x8
 16012 2771 D9       		.byte	0xd9
 16013 2772 00       		.byte	0
 16014 2773 0F       		.uleb128 0xf
 16015 2774 AE260000 		.4byte	.LVL453
 16016 2778 833D0000 		.4byte	0x3d83
 16017 277c 8D270000 		.4byte	0x278d
 16018 2780 10       		.uleb128 0x10
 16019 2781 01       		.uleb128 0x1
 16020 2782 51       		.byte	0x51
 16021 2783 01       		.uleb128 0x1
 16022 2784 49       		.byte	0x49
 16023 2785 10       		.uleb128 0x10
 16024 2786 01       		.uleb128 0x1
 16025 2787 50       		.byte	0x50
 16026 2788 03       		.uleb128 0x3
 16027 2789 0A       		.byte	0xa
 16028 278a 4001     		.2byte	0x140
 16029 278c 00       		.byte	0
 16030 278d 0F       		.uleb128 0xf
 16031 278e B4260000 		.4byte	.LVL454
 16032 2792 9D3D0000 		.4byte	0x3d9d
 16033 2796 A1270000 		.4byte	0x27a1
 16034 279a 10       		.uleb128 0x10
 16035 279b 01       		.uleb128 0x1
 16036 279c 50       		.byte	0x50
 16037 279d 02       		.uleb128 0x2
 16038 279e 74       		.byte	0x74
 16039 279f 00       		.sleb128 0
 16040 27a0 00       		.byte	0
 16041 27a1 0F       		.uleb128 0xf
 16042 27a2 F6260000 		.4byte	.LVL455
 16043 27a6 AE3D0000 		.4byte	0x3dae
 16044 27aa C1270000 		.4byte	0x27c1
 16045 27ae 10       		.uleb128 0x10
 16046 27af 01       		.uleb128 0x1
 16047 27b0 52       		.byte	0x52
 16048 27b1 03       		.uleb128 0x3
 16049 27b2 91       		.byte	0x91
 16050 27b3 B47F     		.sleb128 -76
ARM GAS  C:\Users\diego\AppData\Local\Temp\ccNdDNY6.s 			page 325


 16051 27b5 10       		.uleb128 0x10
 16052 27b6 01       		.uleb128 0x1
 16053 27b7 51       		.byte	0x51
 16054 27b8 02       		.uleb128 0x2
 16055 27b9 91       		.byte	0x91
 16056 27ba 44       		.sleb128 -60
 16057 27bb 10       		.uleb128 0x10
 16058 27bc 01       		.uleb128 0x1
 16059 27bd 50       		.byte	0x50
 16060 27be 01       		.uleb128 0x1
 16061 27bf 32       		.byte	0x32
 16062 27c0 00       		.byte	0
 16063 27c1 0F       		.uleb128 0xf
 16064 27c2 0C270000 		.4byte	.LVL456
 16065 27c6 533D0000 		.4byte	0x3d53
 16066 27ca D5270000 		.4byte	0x27d5
 16067 27ce 10       		.uleb128 0x10
 16068 27cf 01       		.uleb128 0x1
 16069 27d0 50       		.byte	0x50
 16070 27d1 02       		.uleb128 0x2
 16071 27d2 74       		.byte	0x74
 16072 27d3 00       		.sleb128 0
 16073 27d4 00       		.byte	0
 16074 27d5 0F       		.uleb128 0xf
 16075 27d6 24270000 		.4byte	.LVL457
 16076 27da C93D0000 		.4byte	0x3dc9
 16077 27de F2270000 		.4byte	0x27f2
 16078 27e2 10       		.uleb128 0x10
 16079 27e3 01       		.uleb128 0x1
 16080 27e4 51       		.byte	0x51
 16081 27e5 02       		.uleb128 0x2
 16082 27e6 74       		.byte	0x74
 16083 27e7 00       		.sleb128 0
 16084 27e8 10       		.uleb128 0x10
 16085 27e9 01       		.uleb128 0x1
 16086 27ea 50       		.byte	0x50
 16087 27eb 05       		.uleb128 0x5
 16088 27ec 03       		.byte	0x3
 16089 27ed 00000000 		.4byte	resultado
 16090 27f1 00       		.byte	0
 16091 27f2 0F       		.uleb128 0xf
 16092 27f3 34270000 		.4byte	.LVL458
 16093 27f7 393D0000 		.4byte	0x3d39
 16094 27fb 0C280000 		.4byte	0x280c
 16095 27ff 10       		.uleb128 0x10
 16096 2800 01       		.uleb128 0x1
 16097 2801 51       		.byte	0x51
 16098 2802 02       		.uleb128 0x2
 16099 2803 91       		.byte	0x91
 16100 2804 54       		.sleb128 -44
 16101 2805 10       		.uleb128 0x10
 16102 2806 01       		.uleb128 0x1
 16103 2807 50       		.byte	0x50
 16104 2808 02       		.uleb128 0x2
 16105 2809 08       		.byte	0x8
 16106 280a D9       		.byte	0xd9
 16107 280b 00       		.byte	0
ARM GAS  C:\Users\diego\AppData\Local\Temp\ccNdDNY6.s 			page 326


 16108 280c 0F       		.uleb128 0xf
 16109 280d 3E270000 		.4byte	.LVL459
 16110 2811 393D0000 		.4byte	0x3d39
 16111 2815 2A280000 		.4byte	0x282a
 16112 2819 10       		.uleb128 0x10
 16113 281a 01       		.uleb128 0x1
 16114 281b 51       		.byte	0x51
 16115 281c 05       		.uleb128 0x5
 16116 281d 03       		.byte	0x3
 16117 281e 00000000 		.4byte	resultado
 16118 2822 10       		.uleb128 0x10
 16119 2823 01       		.uleb128 0x1
 16120 2824 50       		.byte	0x50
 16121 2825 03       		.uleb128 0x3
 16122 2826 0A       		.byte	0xa
 16123 2827 1A02     		.2byte	0x21a
 16124 2829 00       		.byte	0
 16125 282a 0F       		.uleb128 0xf
 16126 282b 4A270000 		.4byte	.LVL460
 16127 282f 393D0000 		.4byte	0x3d39
 16128 2833 45280000 		.4byte	0x2845
 16129 2837 10       		.uleb128 0x10
 16130 2838 01       		.uleb128 0x1
 16131 2839 51       		.byte	0x51
 16132 283a 02       		.uleb128 0x2
 16133 283b 91       		.byte	0x91
 16134 283c 54       		.sleb128 -44
 16135 283d 10       		.uleb128 0x10
 16136 283e 01       		.uleb128 0x1
 16137 283f 50       		.byte	0x50
 16138 2840 03       		.uleb128 0x3
 16139 2841 0A       		.byte	0xa
 16140 2842 4001     		.2byte	0x140
 16141 2844 00       		.byte	0
 16142 2845 0F       		.uleb128 0xf
 16143 2846 54270000 		.4byte	.LVL461
 16144 284a 393D0000 		.4byte	0x3d39
 16145 284e 63280000 		.4byte	0x2863
 16146 2852 10       		.uleb128 0x10
 16147 2853 01       		.uleb128 0x1
 16148 2854 51       		.byte	0x51
 16149 2855 05       		.uleb128 0x5
 16150 2856 03       		.byte	0x3
 16151 2857 00000000 		.4byte	resultado
 16152 285b 10       		.uleb128 0x10
 16153 285c 01       		.uleb128 0x1
 16154 285d 50       		.byte	0x50
 16155 285e 03       		.uleb128 0x3
 16156 285f 0A       		.byte	0xa
 16157 2860 4002     		.2byte	0x240
 16158 2862 00       		.byte	0
 16159 2863 0F       		.uleb128 0xf
 16160 2864 98270000 		.4byte	.LVL462
 16161 2868 533D0000 		.4byte	0x3d53
 16162 286c 77280000 		.4byte	0x2877
 16163 2870 10       		.uleb128 0x10
 16164 2871 01       		.uleb128 0x1
ARM GAS  C:\Users\diego\AppData\Local\Temp\ccNdDNY6.s 			page 327


 16165 2872 50       		.byte	0x50
 16166 2873 02       		.uleb128 0x2
 16167 2874 74       		.byte	0x74
 16168 2875 00       		.sleb128 0
 16169 2876 00       		.byte	0
 16170 2877 0F       		.uleb128 0xf
 16171 2878 B0270000 		.4byte	.LVL463
 16172 287c 533D0000 		.4byte	0x3d53
 16173 2880 90280000 		.4byte	0x2890
 16174 2884 10       		.uleb128 0x10
 16175 2885 01       		.uleb128 0x1
 16176 2886 51       		.byte	0x51
 16177 2887 01       		.uleb128 0x1
 16178 2888 3A       		.byte	0x3a
 16179 2889 10       		.uleb128 0x10
 16180 288a 01       		.uleb128 0x1
 16181 288b 50       		.byte	0x50
 16182 288c 02       		.uleb128 0x2
 16183 288d 74       		.byte	0x74
 16184 288e 00       		.sleb128 0
 16185 288f 00       		.byte	0
 16186 2890 0F       		.uleb128 0xf
 16187 2891 C2270000 		.4byte	.LVL464
 16188 2895 533D0000 		.4byte	0x3d53
 16189 2899 A4280000 		.4byte	0x28a4
 16190 289d 10       		.uleb128 0x10
 16191 289e 01       		.uleb128 0x1
 16192 289f 50       		.byte	0x50
 16193 28a0 02       		.uleb128 0x2
 16194 28a1 74       		.byte	0x74
 16195 28a2 00       		.sleb128 0
 16196 28a3 00       		.byte	0
 16197 28a4 0F       		.uleb128 0xf
 16198 28a5 DA270000 		.4byte	.LVL465
 16199 28a9 533D0000 		.4byte	0x3d53
 16200 28ad BD280000 		.4byte	0x28bd
 16201 28b1 10       		.uleb128 0x10
 16202 28b2 01       		.uleb128 0x1
 16203 28b3 51       		.byte	0x51
 16204 28b4 01       		.uleb128 0x1
 16205 28b5 3A       		.byte	0x3a
 16206 28b6 10       		.uleb128 0x10
 16207 28b7 01       		.uleb128 0x1
 16208 28b8 50       		.byte	0x50
 16209 28b9 02       		.uleb128 0x2
 16210 28ba 74       		.byte	0x74
 16211 28bb 00       		.sleb128 0
 16212 28bc 00       		.byte	0
 16213 28bd 0F       		.uleb128 0xf
 16214 28be EE270000 		.4byte	.LVL466
 16215 28c2 533D0000 		.4byte	0x3d53
 16216 28c6 D1280000 		.4byte	0x28d1
 16217 28ca 10       		.uleb128 0x10
 16218 28cb 01       		.uleb128 0x1
 16219 28cc 50       		.byte	0x50
 16220 28cd 02       		.uleb128 0x2
 16221 28ce 74       		.byte	0x74
ARM GAS  C:\Users\diego\AppData\Local\Temp\ccNdDNY6.s 			page 328


 16222 28cf 00       		.sleb128 0
 16223 28d0 00       		.byte	0
 16224 28d1 0F       		.uleb128 0xf
 16225 28d2 06280000 		.4byte	.LVL467
 16226 28d6 533D0000 		.4byte	0x3d53
 16227 28da EA280000 		.4byte	0x28ea
 16228 28de 10       		.uleb128 0x10
 16229 28df 01       		.uleb128 0x1
 16230 28e0 51       		.byte	0x51
 16231 28e1 01       		.uleb128 0x1
 16232 28e2 3A       		.byte	0x3a
 16233 28e3 10       		.uleb128 0x10
 16234 28e4 01       		.uleb128 0x1
 16235 28e5 50       		.byte	0x50
 16236 28e6 02       		.uleb128 0x2
 16237 28e7 74       		.byte	0x74
 16238 28e8 00       		.sleb128 0
 16239 28e9 00       		.byte	0
 16240 28ea 0F       		.uleb128 0xf
 16241 28eb 0E280000 		.4byte	.LVL468
 16242 28ef 6D3D0000 		.4byte	0x3d6d
 16243 28f3 03290000 		.4byte	0x2903
 16244 28f7 10       		.uleb128 0x10
 16245 28f8 01       		.uleb128 0x1
 16246 28f9 51       		.byte	0x51
 16247 28fa 02       		.uleb128 0x2
 16248 28fb 74       		.byte	0x74
 16249 28fc 00       		.sleb128 0
 16250 28fd 10       		.uleb128 0x10
 16251 28fe 01       		.uleb128 0x1
 16252 28ff 50       		.byte	0x50
 16253 2900 01       		.uleb128 0x1
 16254 2901 3C       		.byte	0x3c
 16255 2902 00       		.byte	0
 16256 2903 0F       		.uleb128 0xf
 16257 2904 70280000 		.4byte	.LVL469
 16258 2908 533D0000 		.4byte	0x3d53
 16259 290c 17290000 		.4byte	0x2917
 16260 2910 10       		.uleb128 0x10
 16261 2911 01       		.uleb128 0x1
 16262 2912 50       		.byte	0x50
 16263 2913 02       		.uleb128 0x2
 16264 2914 74       		.byte	0x74
 16265 2915 00       		.sleb128 0
 16266 2916 00       		.byte	0
 16267 2917 0F       		.uleb128 0xf
 16268 2918 88280000 		.4byte	.LVL470
 16269 291c 533D0000 		.4byte	0x3d53
 16270 2920 30290000 		.4byte	0x2930
 16271 2924 10       		.uleb128 0x10
 16272 2925 01       		.uleb128 0x1
 16273 2926 51       		.byte	0x51
 16274 2927 01       		.uleb128 0x1
 16275 2928 3A       		.byte	0x3a
 16276 2929 10       		.uleb128 0x10
 16277 292a 01       		.uleb128 0x1
 16278 292b 50       		.byte	0x50
ARM GAS  C:\Users\diego\AppData\Local\Temp\ccNdDNY6.s 			page 329


 16279 292c 02       		.uleb128 0x2
 16280 292d 74       		.byte	0x74
 16281 292e 00       		.sleb128 0
 16282 292f 00       		.byte	0
 16283 2930 0F       		.uleb128 0xf
 16284 2931 9A280000 		.4byte	.LVL471
 16285 2935 833D0000 		.4byte	0x3d83
 16286 2939 4A290000 		.4byte	0x294a
 16287 293d 10       		.uleb128 0x10
 16288 293e 01       		.uleb128 0x1
 16289 293f 51       		.byte	0x51
 16290 2940 01       		.uleb128 0x1
 16291 2941 49       		.byte	0x49
 16292 2942 10       		.uleb128 0x10
 16293 2943 01       		.uleb128 0x1
 16294 2944 50       		.byte	0x50
 16295 2945 03       		.uleb128 0x3
 16296 2946 0A       		.byte	0xa
 16297 2947 0001     		.2byte	0x100
 16298 2949 00       		.byte	0
 16299 294a 0F       		.uleb128 0xf
 16300 294b A6280000 		.4byte	.LVL472
 16301 294f 833D0000 		.4byte	0x3d83
 16302 2953 64290000 		.4byte	0x2964
 16303 2957 10       		.uleb128 0x10
 16304 2958 01       		.uleb128 0x1
 16305 2959 51       		.byte	0x51
 16306 295a 01       		.uleb128 0x1
 16307 295b 49       		.byte	0x49
 16308 295c 10       		.uleb128 0x10
 16309 295d 01       		.uleb128 0x1
 16310 295e 50       		.byte	0x50
 16311 295f 03       		.uleb128 0x3
 16312 2960 0A       		.byte	0xa
 16313 2961 5901     		.2byte	0x159
 16314 2963 00       		.byte	0
 16315 2964 0F       		.uleb128 0xf
 16316 2965 AC280000 		.4byte	.LVL473
 16317 2969 9D3D0000 		.4byte	0x3d9d
 16318 296d 78290000 		.4byte	0x2978
 16319 2971 10       		.uleb128 0x10
 16320 2972 01       		.uleb128 0x1
 16321 2973 50       		.byte	0x50
 16322 2974 02       		.uleb128 0x2
 16323 2975 74       		.byte	0x74
 16324 2976 00       		.sleb128 0
 16325 2977 00       		.byte	0
 16326 2978 0F       		.uleb128 0xf
 16327 2979 EE280000 		.4byte	.LVL474
 16328 297d AE3D0000 		.4byte	0x3dae
 16329 2981 98290000 		.4byte	0x2998
 16330 2985 10       		.uleb128 0x10
 16331 2986 01       		.uleb128 0x1
 16332 2987 52       		.byte	0x52
 16333 2988 03       		.uleb128 0x3
 16334 2989 91       		.byte	0x91
 16335 298a B47F     		.sleb128 -76
ARM GAS  C:\Users\diego\AppData\Local\Temp\ccNdDNY6.s 			page 330


 16336 298c 10       		.uleb128 0x10
 16337 298d 01       		.uleb128 0x1
 16338 298e 51       		.byte	0x51
 16339 298f 02       		.uleb128 0x2
 16340 2990 91       		.byte	0x91
 16341 2991 44       		.sleb128 -60
 16342 2992 10       		.uleb128 0x10
 16343 2993 01       		.uleb128 0x1
 16344 2994 50       		.byte	0x50
 16345 2995 01       		.uleb128 0x1
 16346 2996 32       		.byte	0x32
 16347 2997 00       		.byte	0
 16348 2998 0F       		.uleb128 0xf
 16349 2999 04290000 		.4byte	.LVL475
 16350 299d 533D0000 		.4byte	0x3d53
 16351 29a1 AC290000 		.4byte	0x29ac
 16352 29a5 10       		.uleb128 0x10
 16353 29a6 01       		.uleb128 0x1
 16354 29a7 50       		.byte	0x50
 16355 29a8 02       		.uleb128 0x2
 16356 29a9 74       		.byte	0x74
 16357 29aa 00       		.sleb128 0
 16358 29ab 00       		.byte	0
 16359 29ac 0F       		.uleb128 0xf
 16360 29ad 1C290000 		.4byte	.LVL476
 16361 29b1 C93D0000 		.4byte	0x3dc9
 16362 29b5 C9290000 		.4byte	0x29c9
 16363 29b9 10       		.uleb128 0x10
 16364 29ba 01       		.uleb128 0x1
 16365 29bb 51       		.byte	0x51
 16366 29bc 02       		.uleb128 0x2
 16367 29bd 74       		.byte	0x74
 16368 29be 00       		.sleb128 0
 16369 29bf 10       		.uleb128 0x10
 16370 29c0 01       		.uleb128 0x1
 16371 29c1 50       		.byte	0x50
 16372 29c2 05       		.uleb128 0x5
 16373 29c3 03       		.byte	0x3
 16374 29c4 00000000 		.4byte	resultado
 16375 29c8 00       		.byte	0
 16376 29c9 0F       		.uleb128 0xf
 16377 29ca 2E290000 		.4byte	.LVL477
 16378 29ce 393D0000 		.4byte	0x3d39
 16379 29d2 E4290000 		.4byte	0x29e4
 16380 29d6 10       		.uleb128 0x10
 16381 29d7 01       		.uleb128 0x1
 16382 29d8 51       		.byte	0x51
 16383 29d9 02       		.uleb128 0x2
 16384 29da 91       		.byte	0x91
 16385 29db 54       		.sleb128 -44
 16386 29dc 10       		.uleb128 0x10
 16387 29dd 01       		.uleb128 0x1
 16388 29de 50       		.byte	0x50
 16389 29df 03       		.uleb128 0x3
 16390 29e0 0A       		.byte	0xa
 16391 29e1 0001     		.2byte	0x100
 16392 29e3 00       		.byte	0
ARM GAS  C:\Users\diego\AppData\Local\Temp\ccNdDNY6.s 			page 331


 16393 29e4 0F       		.uleb128 0xf
 16394 29e5 38290000 		.4byte	.LVL478
 16395 29e9 393D0000 		.4byte	0x3d39
 16396 29ed 022A0000 		.4byte	0x2a02
 16397 29f1 10       		.uleb128 0x10
 16398 29f2 01       		.uleb128 0x1
 16399 29f3 51       		.byte	0x51
 16400 29f4 05       		.uleb128 0x5
 16401 29f5 03       		.byte	0x3
 16402 29f6 00000000 		.4byte	resultado
 16403 29fa 10       		.uleb128 0x10
 16404 29fb 01       		.uleb128 0x1
 16405 29fc 50       		.byte	0x50
 16406 29fd 03       		.uleb128 0x3
 16407 29fe 0A       		.byte	0xa
 16408 29ff 0D02     		.2byte	0x20d
 16409 2a01 00       		.byte	0
 16410 2a02 0F       		.uleb128 0xf
 16411 2a03 44290000 		.4byte	.LVL479
 16412 2a07 393D0000 		.4byte	0x3d39
 16413 2a0b 1D2A0000 		.4byte	0x2a1d
 16414 2a0f 10       		.uleb128 0x10
 16415 2a10 01       		.uleb128 0x1
 16416 2a11 51       		.byte	0x51
 16417 2a12 02       		.uleb128 0x2
 16418 2a13 91       		.byte	0x91
 16419 2a14 54       		.sleb128 -44
 16420 2a15 10       		.uleb128 0x10
 16421 2a16 01       		.uleb128 0x1
 16422 2a17 50       		.byte	0x50
 16423 2a18 03       		.uleb128 0x3
 16424 2a19 0A       		.byte	0xa
 16425 2a1a 5901     		.2byte	0x159
 16426 2a1c 00       		.byte	0
 16427 2a1d 0F       		.uleb128 0xf
 16428 2a1e 4E290000 		.4byte	.LVL480
 16429 2a22 393D0000 		.4byte	0x3d39
 16430 2a26 3B2A0000 		.4byte	0x2a3b
 16431 2a2a 10       		.uleb128 0x10
 16432 2a2b 01       		.uleb128 0x1
 16433 2a2c 51       		.byte	0x51
 16434 2a2d 05       		.uleb128 0x5
 16435 2a2e 03       		.byte	0x3
 16436 2a2f 00000000 		.4byte	resultado
 16437 2a33 10       		.uleb128 0x10
 16438 2a34 01       		.uleb128 0x1
 16439 2a35 50       		.byte	0x50
 16440 2a36 03       		.uleb128 0x3
 16441 2a37 0A       		.byte	0xa
 16442 2a38 4D02     		.2byte	0x24d
 16443 2a3a 00       		.byte	0
 16444 2a3b 0F       		.uleb128 0xf
 16445 2a3c 92290000 		.4byte	.LVL481
 16446 2a40 533D0000 		.4byte	0x3d53
 16447 2a44 4F2A0000 		.4byte	0x2a4f
 16448 2a48 10       		.uleb128 0x10
 16449 2a49 01       		.uleb128 0x1
ARM GAS  C:\Users\diego\AppData\Local\Temp\ccNdDNY6.s 			page 332


 16450 2a4a 50       		.byte	0x50
 16451 2a4b 02       		.uleb128 0x2
 16452 2a4c 74       		.byte	0x74
 16453 2a4d 00       		.sleb128 0
 16454 2a4e 00       		.byte	0
 16455 2a4f 0F       		.uleb128 0xf
 16456 2a50 AA290000 		.4byte	.LVL482
 16457 2a54 533D0000 		.4byte	0x3d53
 16458 2a58 682A0000 		.4byte	0x2a68
 16459 2a5c 10       		.uleb128 0x10
 16460 2a5d 01       		.uleb128 0x1
 16461 2a5e 51       		.byte	0x51
 16462 2a5f 01       		.uleb128 0x1
 16463 2a60 3A       		.byte	0x3a
 16464 2a61 10       		.uleb128 0x10
 16465 2a62 01       		.uleb128 0x1
 16466 2a63 50       		.byte	0x50
 16467 2a64 02       		.uleb128 0x2
 16468 2a65 74       		.byte	0x74
 16469 2a66 00       		.sleb128 0
 16470 2a67 00       		.byte	0
 16471 2a68 0F       		.uleb128 0xf
 16472 2a69 BC290000 		.4byte	.LVL483
 16473 2a6d 533D0000 		.4byte	0x3d53
 16474 2a71 7C2A0000 		.4byte	0x2a7c
 16475 2a75 10       		.uleb128 0x10
 16476 2a76 01       		.uleb128 0x1
 16477 2a77 50       		.byte	0x50
 16478 2a78 02       		.uleb128 0x2
 16479 2a79 74       		.byte	0x74
 16480 2a7a 00       		.sleb128 0
 16481 2a7b 00       		.byte	0
 16482 2a7c 0F       		.uleb128 0xf
 16483 2a7d D4290000 		.4byte	.LVL484
 16484 2a81 533D0000 		.4byte	0x3d53
 16485 2a85 952A0000 		.4byte	0x2a95
 16486 2a89 10       		.uleb128 0x10
 16487 2a8a 01       		.uleb128 0x1
 16488 2a8b 51       		.byte	0x51
 16489 2a8c 01       		.uleb128 0x1
 16490 2a8d 3A       		.byte	0x3a
 16491 2a8e 10       		.uleb128 0x10
 16492 2a8f 01       		.uleb128 0x1
 16493 2a90 50       		.byte	0x50
 16494 2a91 02       		.uleb128 0x2
 16495 2a92 74       		.byte	0x74
 16496 2a93 00       		.sleb128 0
 16497 2a94 00       		.byte	0
 16498 2a95 0F       		.uleb128 0xf
 16499 2a96 E8290000 		.4byte	.LVL485
 16500 2a9a 533D0000 		.4byte	0x3d53
 16501 2a9e A92A0000 		.4byte	0x2aa9
 16502 2aa2 10       		.uleb128 0x10
 16503 2aa3 01       		.uleb128 0x1
 16504 2aa4 50       		.byte	0x50
 16505 2aa5 02       		.uleb128 0x2
 16506 2aa6 74       		.byte	0x74
ARM GAS  C:\Users\diego\AppData\Local\Temp\ccNdDNY6.s 			page 333


 16507 2aa7 00       		.sleb128 0
 16508 2aa8 00       		.byte	0
 16509 2aa9 0F       		.uleb128 0xf
 16510 2aaa 002A0000 		.4byte	.LVL486
 16511 2aae 533D0000 		.4byte	0x3d53
 16512 2ab2 C22A0000 		.4byte	0x2ac2
 16513 2ab6 10       		.uleb128 0x10
 16514 2ab7 01       		.uleb128 0x1
 16515 2ab8 51       		.byte	0x51
 16516 2ab9 01       		.uleb128 0x1
 16517 2aba 3A       		.byte	0x3a
 16518 2abb 10       		.uleb128 0x10
 16519 2abc 01       		.uleb128 0x1
 16520 2abd 50       		.byte	0x50
 16521 2abe 02       		.uleb128 0x2
 16522 2abf 74       		.byte	0x74
 16523 2ac0 00       		.sleb128 0
 16524 2ac1 00       		.byte	0
 16525 2ac2 0F       		.uleb128 0xf
 16526 2ac3 082A0000 		.4byte	.LVL487
 16527 2ac7 6D3D0000 		.4byte	0x3d6d
 16528 2acb DB2A0000 		.4byte	0x2adb
 16529 2acf 10       		.uleb128 0x10
 16530 2ad0 01       		.uleb128 0x1
 16531 2ad1 51       		.byte	0x51
 16532 2ad2 02       		.uleb128 0x2
 16533 2ad3 74       		.byte	0x74
 16534 2ad4 00       		.sleb128 0
 16535 2ad5 10       		.uleb128 0x10
 16536 2ad6 01       		.uleb128 0x1
 16537 2ad7 50       		.byte	0x50
 16538 2ad8 01       		.uleb128 0x1
 16539 2ad9 3C       		.byte	0x3c
 16540 2ada 00       		.byte	0
 16541 2adb 0F       		.uleb128 0xf
 16542 2adc 1C2A0000 		.4byte	.LVL488
 16543 2ae0 533D0000 		.4byte	0x3d53
 16544 2ae4 EF2A0000 		.4byte	0x2aef
 16545 2ae8 10       		.uleb128 0x10
 16546 2ae9 01       		.uleb128 0x1
 16547 2aea 50       		.byte	0x50
 16548 2aeb 02       		.uleb128 0x2
 16549 2aec 74       		.byte	0x74
 16550 2aed 00       		.sleb128 0
 16551 2aee 00       		.byte	0
 16552 2aef 0F       		.uleb128 0xf
 16553 2af0 342A0000 		.4byte	.LVL489
 16554 2af4 533D0000 		.4byte	0x3d53
 16555 2af8 082B0000 		.4byte	0x2b08
 16556 2afc 10       		.uleb128 0x10
 16557 2afd 01       		.uleb128 0x1
 16558 2afe 51       		.byte	0x51
 16559 2aff 01       		.uleb128 0x1
 16560 2b00 3A       		.byte	0x3a
 16561 2b01 10       		.uleb128 0x10
 16562 2b02 01       		.uleb128 0x1
 16563 2b03 50       		.byte	0x50
ARM GAS  C:\Users\diego\AppData\Local\Temp\ccNdDNY6.s 			page 334


 16564 2b04 02       		.uleb128 0x2
 16565 2b05 74       		.byte	0x74
 16566 2b06 00       		.sleb128 0
 16567 2b07 00       		.byte	0
 16568 2b08 0F       		.uleb128 0xf
 16569 2b09 462A0000 		.4byte	.LVL490
 16570 2b0d 833D0000 		.4byte	0x3d83
 16571 2b11 222B0000 		.4byte	0x2b22
 16572 2b15 10       		.uleb128 0x10
 16573 2b16 01       		.uleb128 0x1
 16574 2b17 51       		.byte	0x51
 16575 2b18 01       		.uleb128 0x1
 16576 2b19 49       		.byte	0x49
 16577 2b1a 10       		.uleb128 0x10
 16578 2b1b 01       		.uleb128 0x1
 16579 2b1c 50       		.byte	0x50
 16580 2b1d 03       		.uleb128 0x3
 16581 2b1e 0A       		.byte	0xa
 16582 2b1f 4804     		.2byte	0x448
 16583 2b21 00       		.byte	0
 16584 2b22 0F       		.uleb128 0xf
 16585 2b23 522A0000 		.4byte	.LVL491
 16586 2b27 833D0000 		.4byte	0x3d83
 16587 2b2b 3C2B0000 		.4byte	0x2b3c
 16588 2b2f 10       		.uleb128 0x10
 16589 2b30 01       		.uleb128 0x1
 16590 2b31 51       		.byte	0x51
 16591 2b32 01       		.uleb128 0x1
 16592 2b33 49       		.byte	0x49
 16593 2b34 10       		.uleb128 0x10
 16594 2b35 01       		.uleb128 0x1
 16595 2b36 50       		.byte	0x50
 16596 2b37 03       		.uleb128 0x3
 16597 2b38 0A       		.byte	0xa
 16598 2b39 1E04     		.2byte	0x41e
 16599 2b3b 00       		.byte	0
 16600 2b3c 0F       		.uleb128 0xf
 16601 2b3d 582A0000 		.4byte	.LVL492
 16602 2b41 9D3D0000 		.4byte	0x3d9d
 16603 2b45 502B0000 		.4byte	0x2b50
 16604 2b49 10       		.uleb128 0x10
 16605 2b4a 01       		.uleb128 0x1
 16606 2b4b 50       		.byte	0x50
 16607 2b4c 02       		.uleb128 0x2
 16608 2b4d 74       		.byte	0x74
 16609 2b4e 00       		.sleb128 0
 16610 2b4f 00       		.byte	0
 16611 2b50 0F       		.uleb128 0xf
 16612 2b51 9A2A0000 		.4byte	.LVL493
 16613 2b55 AE3D0000 		.4byte	0x3dae
 16614 2b59 702B0000 		.4byte	0x2b70
 16615 2b5d 10       		.uleb128 0x10
 16616 2b5e 01       		.uleb128 0x1
 16617 2b5f 52       		.byte	0x52
 16618 2b60 03       		.uleb128 0x3
 16619 2b61 91       		.byte	0x91
 16620 2b62 B47F     		.sleb128 -76
ARM GAS  C:\Users\diego\AppData\Local\Temp\ccNdDNY6.s 			page 335


 16621 2b64 10       		.uleb128 0x10
 16622 2b65 01       		.uleb128 0x1
 16623 2b66 51       		.byte	0x51
 16624 2b67 02       		.uleb128 0x2
 16625 2b68 91       		.byte	0x91
 16626 2b69 44       		.sleb128 -60
 16627 2b6a 10       		.uleb128 0x10
 16628 2b6b 01       		.uleb128 0x1
 16629 2b6c 50       		.byte	0x50
 16630 2b6d 01       		.uleb128 0x1
 16631 2b6e 32       		.byte	0x32
 16632 2b6f 00       		.byte	0
 16633 2b70 0F       		.uleb128 0xf
 16634 2b71 B02A0000 		.4byte	.LVL494
 16635 2b75 533D0000 		.4byte	0x3d53
 16636 2b79 842B0000 		.4byte	0x2b84
 16637 2b7d 10       		.uleb128 0x10
 16638 2b7e 01       		.uleb128 0x1
 16639 2b7f 50       		.byte	0x50
 16640 2b80 02       		.uleb128 0x2
 16641 2b81 74       		.byte	0x74
 16642 2b82 00       		.sleb128 0
 16643 2b83 00       		.byte	0
 16644 2b84 0F       		.uleb128 0xf
 16645 2b85 C82A0000 		.4byte	.LVL495
 16646 2b89 C93D0000 		.4byte	0x3dc9
 16647 2b8d A12B0000 		.4byte	0x2ba1
 16648 2b91 10       		.uleb128 0x10
 16649 2b92 01       		.uleb128 0x1
 16650 2b93 51       		.byte	0x51
 16651 2b94 02       		.uleb128 0x2
 16652 2b95 74       		.byte	0x74
 16653 2b96 00       		.sleb128 0
 16654 2b97 10       		.uleb128 0x10
 16655 2b98 01       		.uleb128 0x1
 16656 2b99 50       		.byte	0x50
 16657 2b9a 05       		.uleb128 0x5
 16658 2b9b 03       		.byte	0x3
 16659 2b9c 00000000 		.4byte	resultado
 16660 2ba0 00       		.byte	0
 16661 2ba1 0F       		.uleb128 0xf
 16662 2ba2 DA2A0000 		.4byte	.LVL496
 16663 2ba6 393D0000 		.4byte	0x3d39
 16664 2baa BC2B0000 		.4byte	0x2bbc
 16665 2bae 10       		.uleb128 0x10
 16666 2baf 01       		.uleb128 0x1
 16667 2bb0 51       		.byte	0x51
 16668 2bb1 02       		.uleb128 0x2
 16669 2bb2 91       		.byte	0x91
 16670 2bb3 54       		.sleb128 -44
 16671 2bb4 10       		.uleb128 0x10
 16672 2bb5 01       		.uleb128 0x1
 16673 2bb6 50       		.byte	0x50
 16674 2bb7 03       		.uleb128 0x3
 16675 2bb8 0A       		.byte	0xa
 16676 2bb9 4804     		.2byte	0x448
 16677 2bbb 00       		.byte	0
ARM GAS  C:\Users\diego\AppData\Local\Temp\ccNdDNY6.s 			page 336


 16678 2bbc 0F       		.uleb128 0xf
 16679 2bbd E42A0000 		.4byte	.LVL497
 16680 2bc1 393D0000 		.4byte	0x3d39
 16681 2bc5 DA2B0000 		.4byte	0x2bda
 16682 2bc9 10       		.uleb128 0x10
 16683 2bca 01       		.uleb128 0x1
 16684 2bcb 51       		.byte	0x51
 16685 2bcc 05       		.uleb128 0x5
 16686 2bcd 03       		.byte	0x3
 16687 2bce 00000000 		.4byte	resultado
 16688 2bd2 10       		.uleb128 0x10
 16689 2bd3 01       		.uleb128 0x1
 16690 2bd4 50       		.byte	0x50
 16691 2bd5 03       		.uleb128 0x3
 16692 2bd6 0A       		.byte	0xa
 16693 2bd7 0E04     		.2byte	0x40e
 16694 2bd9 00       		.byte	0
 16695 2bda 0F       		.uleb128 0xf
 16696 2bdb F02A0000 		.4byte	.LVL498
 16697 2bdf 393D0000 		.4byte	0x3d39
 16698 2be3 F52B0000 		.4byte	0x2bf5
 16699 2be7 10       		.uleb128 0x10
 16700 2be8 01       		.uleb128 0x1
 16701 2be9 51       		.byte	0x51
 16702 2bea 02       		.uleb128 0x2
 16703 2beb 91       		.byte	0x91
 16704 2bec 54       		.sleb128 -44
 16705 2bed 10       		.uleb128 0x10
 16706 2bee 01       		.uleb128 0x1
 16707 2bef 50       		.byte	0x50
 16708 2bf0 03       		.uleb128 0x3
 16709 2bf1 0A       		.byte	0xa
 16710 2bf2 1E04     		.2byte	0x41e
 16711 2bf4 00       		.byte	0
 16712 2bf5 0F       		.uleb128 0xf
 16713 2bf6 FA2A0000 		.4byte	.LVL499
 16714 2bfa 393D0000 		.4byte	0x3d39
 16715 2bfe 132C0000 		.4byte	0x2c13
 16716 2c02 10       		.uleb128 0x10
 16717 2c03 01       		.uleb128 0x1
 16718 2c04 51       		.byte	0x51
 16719 2c05 05       		.uleb128 0x5
 16720 2c06 03       		.byte	0x3
 16721 2c07 00000000 		.4byte	resultado
 16722 2c0b 10       		.uleb128 0x10
 16723 2c0c 01       		.uleb128 0x1
 16724 2c0d 50       		.byte	0x50
 16725 2c0e 03       		.uleb128 0x3
 16726 2c0f 0A       		.byte	0xa
 16727 2c10 3904     		.2byte	0x439
 16728 2c12 00       		.byte	0
 16729 2c13 11       		.uleb128 0x11
 16730 2c14 102B0000 		.4byte	.LVL500
 16731 2c18 273D0000 		.4byte	0x3d27
 16732 2c1c 0F       		.uleb128 0xf
 16733 2c1d 962C0000 		.4byte	.LVL501
 16734 2c21 533D0000 		.4byte	0x3d53
ARM GAS  C:\Users\diego\AppData\Local\Temp\ccNdDNY6.s 			page 337


 16735 2c25 302C0000 		.4byte	0x2c30
 16736 2c29 10       		.uleb128 0x10
 16737 2c2a 01       		.uleb128 0x1
 16738 2c2b 50       		.byte	0x50
 16739 2c2c 02       		.uleb128 0x2
 16740 2c2d 74       		.byte	0x74
 16741 2c2e 00       		.sleb128 0
 16742 2c2f 00       		.byte	0
 16743 2c30 0F       		.uleb128 0xf
 16744 2c31 AE2C0000 		.4byte	.LVL502
 16745 2c35 533D0000 		.4byte	0x3d53
 16746 2c39 492C0000 		.4byte	0x2c49
 16747 2c3d 10       		.uleb128 0x10
 16748 2c3e 01       		.uleb128 0x1
 16749 2c3f 51       		.byte	0x51
 16750 2c40 01       		.uleb128 0x1
 16751 2c41 3A       		.byte	0x3a
 16752 2c42 10       		.uleb128 0x10
 16753 2c43 01       		.uleb128 0x1
 16754 2c44 50       		.byte	0x50
 16755 2c45 02       		.uleb128 0x2
 16756 2c46 74       		.byte	0x74
 16757 2c47 00       		.sleb128 0
 16758 2c48 00       		.byte	0
 16759 2c49 0F       		.uleb128 0xf
 16760 2c4a C02C0000 		.4byte	.LVL503
 16761 2c4e 533D0000 		.4byte	0x3d53
 16762 2c52 5D2C0000 		.4byte	0x2c5d
 16763 2c56 10       		.uleb128 0x10
 16764 2c57 01       		.uleb128 0x1
 16765 2c58 50       		.byte	0x50
 16766 2c59 02       		.uleb128 0x2
 16767 2c5a 74       		.byte	0x74
 16768 2c5b 00       		.sleb128 0
 16769 2c5c 00       		.byte	0
 16770 2c5d 0F       		.uleb128 0xf
 16771 2c5e D82C0000 		.4byte	.LVL504
 16772 2c62 533D0000 		.4byte	0x3d53
 16773 2c66 762C0000 		.4byte	0x2c76
 16774 2c6a 10       		.uleb128 0x10
 16775 2c6b 01       		.uleb128 0x1
 16776 2c6c 51       		.byte	0x51
 16777 2c6d 01       		.uleb128 0x1
 16778 2c6e 3A       		.byte	0x3a
 16779 2c6f 10       		.uleb128 0x10
 16780 2c70 01       		.uleb128 0x1
 16781 2c71 50       		.byte	0x50
 16782 2c72 02       		.uleb128 0x2
 16783 2c73 74       		.byte	0x74
 16784 2c74 00       		.sleb128 0
 16785 2c75 00       		.byte	0
 16786 2c76 0F       		.uleb128 0xf
 16787 2c77 EC2C0000 		.4byte	.LVL505
 16788 2c7b 533D0000 		.4byte	0x3d53
 16789 2c7f 8A2C0000 		.4byte	0x2c8a
 16790 2c83 10       		.uleb128 0x10
 16791 2c84 01       		.uleb128 0x1
ARM GAS  C:\Users\diego\AppData\Local\Temp\ccNdDNY6.s 			page 338


 16792 2c85 50       		.byte	0x50
 16793 2c86 02       		.uleb128 0x2
 16794 2c87 74       		.byte	0x74
 16795 2c88 00       		.sleb128 0
 16796 2c89 00       		.byte	0
 16797 2c8a 0F       		.uleb128 0xf
 16798 2c8b 042D0000 		.4byte	.LVL506
 16799 2c8f 533D0000 		.4byte	0x3d53
 16800 2c93 A32C0000 		.4byte	0x2ca3
 16801 2c97 10       		.uleb128 0x10
 16802 2c98 01       		.uleb128 0x1
 16803 2c99 51       		.byte	0x51
 16804 2c9a 01       		.uleb128 0x1
 16805 2c9b 3A       		.byte	0x3a
 16806 2c9c 10       		.uleb128 0x10
 16807 2c9d 01       		.uleb128 0x1
 16808 2c9e 50       		.byte	0x50
 16809 2c9f 02       		.uleb128 0x2
 16810 2ca0 74       		.byte	0x74
 16811 2ca1 00       		.sleb128 0
 16812 2ca2 00       		.byte	0
 16813 2ca3 0F       		.uleb128 0xf
 16814 2ca4 0C2D0000 		.4byte	.LVL507
 16815 2ca8 6D3D0000 		.4byte	0x3d6d
 16816 2cac BC2C0000 		.4byte	0x2cbc
 16817 2cb0 10       		.uleb128 0x10
 16818 2cb1 01       		.uleb128 0x1
 16819 2cb2 51       		.byte	0x51
 16820 2cb3 02       		.uleb128 0x2
 16821 2cb4 74       		.byte	0x74
 16822 2cb5 00       		.sleb128 0
 16823 2cb6 10       		.uleb128 0x10
 16824 2cb7 01       		.uleb128 0x1
 16825 2cb8 50       		.byte	0x50
 16826 2cb9 01       		.uleb128 0x1
 16827 2cba 3C       		.byte	0x3c
 16828 2cbb 00       		.byte	0
 16829 2cbc 0F       		.uleb128 0xf
 16830 2cbd 202D0000 		.4byte	.LVL508
 16831 2cc1 533D0000 		.4byte	0x3d53
 16832 2cc5 D02C0000 		.4byte	0x2cd0
 16833 2cc9 10       		.uleb128 0x10
 16834 2cca 01       		.uleb128 0x1
 16835 2ccb 50       		.byte	0x50
 16836 2ccc 02       		.uleb128 0x2
 16837 2ccd 74       		.byte	0x74
 16838 2cce 00       		.sleb128 0
 16839 2ccf 00       		.byte	0
 16840 2cd0 0F       		.uleb128 0xf
 16841 2cd1 382D0000 		.4byte	.LVL509
 16842 2cd5 533D0000 		.4byte	0x3d53
 16843 2cd9 E92C0000 		.4byte	0x2ce9
 16844 2cdd 10       		.uleb128 0x10
 16845 2cde 01       		.uleb128 0x1
 16846 2cdf 51       		.byte	0x51
 16847 2ce0 01       		.uleb128 0x1
 16848 2ce1 3A       		.byte	0x3a
ARM GAS  C:\Users\diego\AppData\Local\Temp\ccNdDNY6.s 			page 339


 16849 2ce2 10       		.uleb128 0x10
 16850 2ce3 01       		.uleb128 0x1
 16851 2ce4 50       		.byte	0x50
 16852 2ce5 02       		.uleb128 0x2
 16853 2ce6 74       		.byte	0x74
 16854 2ce7 00       		.sleb128 0
 16855 2ce8 00       		.byte	0
 16856 2ce9 0F       		.uleb128 0xf
 16857 2cea 482D0000 		.4byte	.LVL510
 16858 2cee 833D0000 		.4byte	0x3d83
 16859 2cf2 022D0000 		.4byte	0x2d02
 16860 2cf6 10       		.uleb128 0x10
 16861 2cf7 01       		.uleb128 0x1
 16862 2cf8 51       		.byte	0x51
 16863 2cf9 01       		.uleb128 0x1
 16864 2cfa 49       		.byte	0x49
 16865 2cfb 10       		.uleb128 0x10
 16866 2cfc 01       		.uleb128 0x1
 16867 2cfd 50       		.byte	0x50
 16868 2cfe 02       		.uleb128 0x2
 16869 2cff 08       		.byte	0x8
 16870 2d00 C0       		.byte	0xc0
 16871 2d01 00       		.byte	0
 16872 2d02 0F       		.uleb128 0xf
 16873 2d03 542D0000 		.4byte	.LVL511
 16874 2d07 833D0000 		.4byte	0x3d83
 16875 2d0b 1C2D0000 		.4byte	0x2d1c
 16876 2d0f 10       		.uleb128 0x10
 16877 2d10 01       		.uleb128 0x1
 16878 2d11 51       		.byte	0x51
 16879 2d12 01       		.uleb128 0x1
 16880 2d13 49       		.byte	0x49
 16881 2d14 10       		.uleb128 0x10
 16882 2d15 01       		.uleb128 0x1
 16883 2d16 50       		.byte	0x50
 16884 2d17 03       		.uleb128 0x3
 16885 2d18 0A       		.byte	0xa
 16886 2d19 1901     		.2byte	0x119
 16887 2d1b 00       		.byte	0
 16888 2d1c 0F       		.uleb128 0xf
 16889 2d1d 5A2D0000 		.4byte	.LVL512
 16890 2d21 9D3D0000 		.4byte	0x3d9d
 16891 2d25 302D0000 		.4byte	0x2d30
 16892 2d29 10       		.uleb128 0x10
 16893 2d2a 01       		.uleb128 0x1
 16894 2d2b 50       		.byte	0x50
 16895 2d2c 02       		.uleb128 0x2
 16896 2d2d 74       		.byte	0x74
 16897 2d2e 00       		.sleb128 0
 16898 2d2f 00       		.byte	0
 16899 2d30 0F       		.uleb128 0xf
 16900 2d31 9C2D0000 		.4byte	.LVL513
 16901 2d35 AE3D0000 		.4byte	0x3dae
 16902 2d39 502D0000 		.4byte	0x2d50
 16903 2d3d 10       		.uleb128 0x10
 16904 2d3e 01       		.uleb128 0x1
 16905 2d3f 52       		.byte	0x52
ARM GAS  C:\Users\diego\AppData\Local\Temp\ccNdDNY6.s 			page 340


 16906 2d40 03       		.uleb128 0x3
 16907 2d41 91       		.byte	0x91
 16908 2d42 B47F     		.sleb128 -76
 16909 2d44 10       		.uleb128 0x10
 16910 2d45 01       		.uleb128 0x1
 16911 2d46 51       		.byte	0x51
 16912 2d47 02       		.uleb128 0x2
 16913 2d48 91       		.byte	0x91
 16914 2d49 44       		.sleb128 -60
 16915 2d4a 10       		.uleb128 0x10
 16916 2d4b 01       		.uleb128 0x1
 16917 2d4c 50       		.byte	0x50
 16918 2d4d 01       		.uleb128 0x1
 16919 2d4e 32       		.byte	0x32
 16920 2d4f 00       		.byte	0
 16921 2d50 0F       		.uleb128 0xf
 16922 2d51 B22D0000 		.4byte	.LVL514
 16923 2d55 533D0000 		.4byte	0x3d53
 16924 2d59 642D0000 		.4byte	0x2d64
 16925 2d5d 10       		.uleb128 0x10
 16926 2d5e 01       		.uleb128 0x1
 16927 2d5f 50       		.byte	0x50
 16928 2d60 02       		.uleb128 0x2
 16929 2d61 74       		.byte	0x74
 16930 2d62 00       		.sleb128 0
 16931 2d63 00       		.byte	0
 16932 2d64 0F       		.uleb128 0xf
 16933 2d65 CA2D0000 		.4byte	.LVL515
 16934 2d69 C93D0000 		.4byte	0x3dc9
 16935 2d6d 812D0000 		.4byte	0x2d81
 16936 2d71 10       		.uleb128 0x10
 16937 2d72 01       		.uleb128 0x1
 16938 2d73 51       		.byte	0x51
 16939 2d74 02       		.uleb128 0x2
 16940 2d75 74       		.byte	0x74
 16941 2d76 00       		.sleb128 0
 16942 2d77 10       		.uleb128 0x10
 16943 2d78 01       		.uleb128 0x1
 16944 2d79 50       		.byte	0x50
 16945 2d7a 05       		.uleb128 0x5
 16946 2d7b 03       		.byte	0x3
 16947 2d7c 00000000 		.4byte	resultado
 16948 2d80 00       		.byte	0
 16949 2d81 0F       		.uleb128 0xf
 16950 2d82 DA2D0000 		.4byte	.LVL516
 16951 2d86 393D0000 		.4byte	0x3d39
 16952 2d8a 9B2D0000 		.4byte	0x2d9b
 16953 2d8e 10       		.uleb128 0x10
 16954 2d8f 01       		.uleb128 0x1
 16955 2d90 51       		.byte	0x51
 16956 2d91 02       		.uleb128 0x2
 16957 2d92 91       		.byte	0x91
 16958 2d93 54       		.sleb128 -44
 16959 2d94 10       		.uleb128 0x10
 16960 2d95 01       		.uleb128 0x1
 16961 2d96 50       		.byte	0x50
 16962 2d97 02       		.uleb128 0x2
ARM GAS  C:\Users\diego\AppData\Local\Temp\ccNdDNY6.s 			page 341


 16963 2d98 08       		.byte	0x8
 16964 2d99 C0       		.byte	0xc0
 16965 2d9a 00       		.byte	0
 16966 2d9b 0F       		.uleb128 0xf
 16967 2d9c E42D0000 		.4byte	.LVL517
 16968 2da0 393D0000 		.4byte	0x3d39
 16969 2da4 B92D0000 		.4byte	0x2db9
 16970 2da8 10       		.uleb128 0x10
 16971 2da9 01       		.uleb128 0x1
 16972 2daa 51       		.byte	0x51
 16973 2dab 05       		.uleb128 0x5
 16974 2dac 03       		.byte	0x3
 16975 2dad 00000000 		.4byte	resultado
 16976 2db1 10       		.uleb128 0x10
 16977 2db2 01       		.uleb128 0x1
 16978 2db3 50       		.byte	0x50
 16979 2db4 03       		.uleb128 0x3
 16980 2db5 0A       		.byte	0xa
 16981 2db6 0002     		.2byte	0x200
 16982 2db8 00       		.byte	0
 16983 2db9 0F       		.uleb128 0xf
 16984 2dba 362E0000 		.4byte	.LVL518
 16985 2dbe 393D0000 		.4byte	0x3d39
 16986 2dc2 D42D0000 		.4byte	0x2dd4
 16987 2dc6 10       		.uleb128 0x10
 16988 2dc7 01       		.uleb128 0x1
 16989 2dc8 51       		.byte	0x51
 16990 2dc9 02       		.uleb128 0x2
 16991 2dca 91       		.byte	0x91
 16992 2dcb 54       		.sleb128 -44
 16993 2dcc 10       		.uleb128 0x10
 16994 2dcd 01       		.uleb128 0x1
 16995 2dce 50       		.byte	0x50
 16996 2dcf 03       		.uleb128 0x3
 16997 2dd0 0A       		.byte	0xa
 16998 2dd1 1901     		.2byte	0x119
 16999 2dd3 00       		.byte	0
 17000 2dd4 0F       		.uleb128 0xf
 17001 2dd5 402E0000 		.4byte	.LVL519
 17002 2dd9 393D0000 		.4byte	0x3d39
 17003 2ddd F22D0000 		.4byte	0x2df2
 17004 2de1 10       		.uleb128 0x10
 17005 2de2 01       		.uleb128 0x1
 17006 2de3 51       		.byte	0x51
 17007 2de4 05       		.uleb128 0x5
 17008 2de5 03       		.byte	0x3
 17009 2de6 00000000 		.4byte	resultado
 17010 2dea 10       		.uleb128 0x10
 17011 2deb 01       		.uleb128 0x1
 17012 2dec 50       		.byte	0x50
 17013 2ded 03       		.uleb128 0x3
 17014 2dee 0A       		.byte	0xa
 17015 2def 2702     		.2byte	0x227
 17016 2df1 00       		.byte	0
 17017 2df2 0F       		.uleb128 0xf
 17018 2df3 9C2E0000 		.4byte	.LVL520
 17019 2df7 533D0000 		.4byte	0x3d53
ARM GAS  C:\Users\diego\AppData\Local\Temp\ccNdDNY6.s 			page 342


 17020 2dfb 062E0000 		.4byte	0x2e06
 17021 2dff 10       		.uleb128 0x10
 17022 2e00 01       		.uleb128 0x1
 17023 2e01 50       		.byte	0x50
 17024 2e02 02       		.uleb128 0x2
 17025 2e03 74       		.byte	0x74
 17026 2e04 00       		.sleb128 0
 17027 2e05 00       		.byte	0
 17028 2e06 0F       		.uleb128 0xf
 17029 2e07 B42E0000 		.4byte	.LVL521
 17030 2e0b 533D0000 		.4byte	0x3d53
 17031 2e0f 1F2E0000 		.4byte	0x2e1f
 17032 2e13 10       		.uleb128 0x10
 17033 2e14 01       		.uleb128 0x1
 17034 2e15 51       		.byte	0x51
 17035 2e16 01       		.uleb128 0x1
 17036 2e17 3A       		.byte	0x3a
 17037 2e18 10       		.uleb128 0x10
 17038 2e19 01       		.uleb128 0x1
 17039 2e1a 50       		.byte	0x50
 17040 2e1b 02       		.uleb128 0x2
 17041 2e1c 74       		.byte	0x74
 17042 2e1d 00       		.sleb128 0
 17043 2e1e 00       		.byte	0
 17044 2e1f 0F       		.uleb128 0xf
 17045 2e20 C62E0000 		.4byte	.LVL522
 17046 2e24 533D0000 		.4byte	0x3d53
 17047 2e28 332E0000 		.4byte	0x2e33
 17048 2e2c 10       		.uleb128 0x10
 17049 2e2d 01       		.uleb128 0x1
 17050 2e2e 50       		.byte	0x50
 17051 2e2f 02       		.uleb128 0x2
 17052 2e30 74       		.byte	0x74
 17053 2e31 00       		.sleb128 0
 17054 2e32 00       		.byte	0
 17055 2e33 0F       		.uleb128 0xf
 17056 2e34 DE2E0000 		.4byte	.LVL523
 17057 2e38 533D0000 		.4byte	0x3d53
 17058 2e3c 4C2E0000 		.4byte	0x2e4c
 17059 2e40 10       		.uleb128 0x10
 17060 2e41 01       		.uleb128 0x1
 17061 2e42 51       		.byte	0x51
 17062 2e43 01       		.uleb128 0x1
 17063 2e44 3A       		.byte	0x3a
 17064 2e45 10       		.uleb128 0x10
 17065 2e46 01       		.uleb128 0x1
 17066 2e47 50       		.byte	0x50
 17067 2e48 02       		.uleb128 0x2
 17068 2e49 74       		.byte	0x74
 17069 2e4a 00       		.sleb128 0
 17070 2e4b 00       		.byte	0
 17071 2e4c 0F       		.uleb128 0xf
 17072 2e4d F22E0000 		.4byte	.LVL524
 17073 2e51 533D0000 		.4byte	0x3d53
 17074 2e55 602E0000 		.4byte	0x2e60
 17075 2e59 10       		.uleb128 0x10
 17076 2e5a 01       		.uleb128 0x1
ARM GAS  C:\Users\diego\AppData\Local\Temp\ccNdDNY6.s 			page 343


 17077 2e5b 50       		.byte	0x50
 17078 2e5c 02       		.uleb128 0x2
 17079 2e5d 74       		.byte	0x74
 17080 2e5e 00       		.sleb128 0
 17081 2e5f 00       		.byte	0
 17082 2e60 0F       		.uleb128 0xf
 17083 2e61 0A2F0000 		.4byte	.LVL525
 17084 2e65 533D0000 		.4byte	0x3d53
 17085 2e69 792E0000 		.4byte	0x2e79
 17086 2e6d 10       		.uleb128 0x10
 17087 2e6e 01       		.uleb128 0x1
 17088 2e6f 51       		.byte	0x51
 17089 2e70 01       		.uleb128 0x1
 17090 2e71 3A       		.byte	0x3a
 17091 2e72 10       		.uleb128 0x10
 17092 2e73 01       		.uleb128 0x1
 17093 2e74 50       		.byte	0x50
 17094 2e75 02       		.uleb128 0x2
 17095 2e76 74       		.byte	0x74
 17096 2e77 00       		.sleb128 0
 17097 2e78 00       		.byte	0
 17098 2e79 0F       		.uleb128 0xf
 17099 2e7a 122F0000 		.4byte	.LVL526
 17100 2e7e 6D3D0000 		.4byte	0x3d6d
 17101 2e82 922E0000 		.4byte	0x2e92
 17102 2e86 10       		.uleb128 0x10
 17103 2e87 01       		.uleb128 0x1
 17104 2e88 51       		.byte	0x51
 17105 2e89 02       		.uleb128 0x2
 17106 2e8a 74       		.byte	0x74
 17107 2e8b 00       		.sleb128 0
 17108 2e8c 10       		.uleb128 0x10
 17109 2e8d 01       		.uleb128 0x1
 17110 2e8e 50       		.byte	0x50
 17111 2e8f 01       		.uleb128 0x1
 17112 2e90 3C       		.byte	0x3c
 17113 2e91 00       		.byte	0
 17114 2e92 0F       		.uleb128 0xf
 17115 2e93 262F0000 		.4byte	.LVL527
 17116 2e97 533D0000 		.4byte	0x3d53
 17117 2e9b A62E0000 		.4byte	0x2ea6
 17118 2e9f 10       		.uleb128 0x10
 17119 2ea0 01       		.uleb128 0x1
 17120 2ea1 50       		.byte	0x50
 17121 2ea2 02       		.uleb128 0x2
 17122 2ea3 74       		.byte	0x74
 17123 2ea4 00       		.sleb128 0
 17124 2ea5 00       		.byte	0
 17125 2ea6 0F       		.uleb128 0xf
 17126 2ea7 3E2F0000 		.4byte	.LVL528
 17127 2eab 533D0000 		.4byte	0x3d53
 17128 2eaf BF2E0000 		.4byte	0x2ebf
 17129 2eb3 10       		.uleb128 0x10
 17130 2eb4 01       		.uleb128 0x1
 17131 2eb5 51       		.byte	0x51
 17132 2eb6 01       		.uleb128 0x1
 17133 2eb7 3A       		.byte	0x3a
ARM GAS  C:\Users\diego\AppData\Local\Temp\ccNdDNY6.s 			page 344


 17134 2eb8 10       		.uleb128 0x10
 17135 2eb9 01       		.uleb128 0x1
 17136 2eba 50       		.byte	0x50
 17137 2ebb 02       		.uleb128 0x2
 17138 2ebc 74       		.byte	0x74
 17139 2ebd 00       		.sleb128 0
 17140 2ebe 00       		.byte	0
 17141 2ebf 0F       		.uleb128 0xf
 17142 2ec0 4E2F0000 		.4byte	.LVL529
 17143 2ec4 833D0000 		.4byte	0x3d83
 17144 2ec8 D82E0000 		.4byte	0x2ed8
 17145 2ecc 10       		.uleb128 0x10
 17146 2ecd 01       		.uleb128 0x1
 17147 2ece 51       		.byte	0x51
 17148 2ecf 01       		.uleb128 0x1
 17149 2ed0 49       		.byte	0x49
 17150 2ed1 10       		.uleb128 0x10
 17151 2ed2 01       		.uleb128 0x1
 17152 2ed3 50       		.byte	0x50
 17153 2ed4 02       		.uleb128 0x2
 17154 2ed5 08       		.byte	0x8
 17155 2ed6 D9       		.byte	0xd9
 17156 2ed7 00       		.byte	0
 17157 2ed8 0F       		.uleb128 0xf
 17158 2ed9 5A2F0000 		.4byte	.LVL530
 17159 2edd 833D0000 		.4byte	0x3d83
 17160 2ee1 F22E0000 		.4byte	0x2ef2
 17161 2ee5 10       		.uleb128 0x10
 17162 2ee6 01       		.uleb128 0x1
 17163 2ee7 51       		.byte	0x51
 17164 2ee8 01       		.uleb128 0x1
 17165 2ee9 49       		.byte	0x49
 17166 2eea 10       		.uleb128 0x10
 17167 2eeb 01       		.uleb128 0x1
 17168 2eec 50       		.byte	0x50
 17169 2eed 03       		.uleb128 0x3
 17170 2eee 0A       		.byte	0xa
 17171 2eef 4001     		.2byte	0x140
 17172 2ef1 00       		.byte	0
 17173 2ef2 0F       		.uleb128 0xf
 17174 2ef3 602F0000 		.4byte	.LVL531
 17175 2ef7 9D3D0000 		.4byte	0x3d9d
 17176 2efb 062F0000 		.4byte	0x2f06
 17177 2eff 10       		.uleb128 0x10
 17178 2f00 01       		.uleb128 0x1
 17179 2f01 50       		.byte	0x50
 17180 2f02 02       		.uleb128 0x2
 17181 2f03 74       		.byte	0x74
 17182 2f04 00       		.sleb128 0
 17183 2f05 00       		.byte	0
 17184 2f06 0F       		.uleb128 0xf
 17185 2f07 A22F0000 		.4byte	.LVL532
 17186 2f0b AE3D0000 		.4byte	0x3dae
 17187 2f0f 262F0000 		.4byte	0x2f26
 17188 2f13 10       		.uleb128 0x10
 17189 2f14 01       		.uleb128 0x1
 17190 2f15 52       		.byte	0x52
ARM GAS  C:\Users\diego\AppData\Local\Temp\ccNdDNY6.s 			page 345


 17191 2f16 03       		.uleb128 0x3
 17192 2f17 91       		.byte	0x91
 17193 2f18 B47F     		.sleb128 -76
 17194 2f1a 10       		.uleb128 0x10
 17195 2f1b 01       		.uleb128 0x1
 17196 2f1c 51       		.byte	0x51
 17197 2f1d 02       		.uleb128 0x2
 17198 2f1e 91       		.byte	0x91
 17199 2f1f 44       		.sleb128 -60
 17200 2f20 10       		.uleb128 0x10
 17201 2f21 01       		.uleb128 0x1
 17202 2f22 50       		.byte	0x50
 17203 2f23 01       		.uleb128 0x1
 17204 2f24 32       		.byte	0x32
 17205 2f25 00       		.byte	0
 17206 2f26 0F       		.uleb128 0xf
 17207 2f27 B82F0000 		.4byte	.LVL533
 17208 2f2b 533D0000 		.4byte	0x3d53
 17209 2f2f 3A2F0000 		.4byte	0x2f3a
 17210 2f33 10       		.uleb128 0x10
 17211 2f34 01       		.uleb128 0x1
 17212 2f35 50       		.byte	0x50
 17213 2f36 02       		.uleb128 0x2
 17214 2f37 74       		.byte	0x74
 17215 2f38 00       		.sleb128 0
 17216 2f39 00       		.byte	0
 17217 2f3a 0F       		.uleb128 0xf
 17218 2f3b D02F0000 		.4byte	.LVL534
 17219 2f3f C93D0000 		.4byte	0x3dc9
 17220 2f43 572F0000 		.4byte	0x2f57
 17221 2f47 10       		.uleb128 0x10
 17222 2f48 01       		.uleb128 0x1
 17223 2f49 51       		.byte	0x51
 17224 2f4a 02       		.uleb128 0x2
 17225 2f4b 74       		.byte	0x74
 17226 2f4c 00       		.sleb128 0
 17227 2f4d 10       		.uleb128 0x10
 17228 2f4e 01       		.uleb128 0x1
 17229 2f4f 50       		.byte	0x50
 17230 2f50 05       		.uleb128 0x5
 17231 2f51 03       		.byte	0x3
 17232 2f52 00000000 		.4byte	resultado
 17233 2f56 00       		.byte	0
 17234 2f57 0F       		.uleb128 0xf
 17235 2f58 E02F0000 		.4byte	.LVL535
 17236 2f5c 393D0000 		.4byte	0x3d39
 17237 2f60 712F0000 		.4byte	0x2f71
 17238 2f64 10       		.uleb128 0x10
 17239 2f65 01       		.uleb128 0x1
 17240 2f66 51       		.byte	0x51
 17241 2f67 02       		.uleb128 0x2
 17242 2f68 91       		.byte	0x91
 17243 2f69 54       		.sleb128 -44
 17244 2f6a 10       		.uleb128 0x10
 17245 2f6b 01       		.uleb128 0x1
 17246 2f6c 50       		.byte	0x50
 17247 2f6d 02       		.uleb128 0x2
ARM GAS  C:\Users\diego\AppData\Local\Temp\ccNdDNY6.s 			page 346


 17248 2f6e 08       		.byte	0x8
 17249 2f6f D9       		.byte	0xd9
 17250 2f70 00       		.byte	0
 17251 2f71 0F       		.uleb128 0xf
 17252 2f72 EA2F0000 		.4byte	.LVL536
 17253 2f76 393D0000 		.4byte	0x3d39
 17254 2f7a 8F2F0000 		.4byte	0x2f8f
 17255 2f7e 10       		.uleb128 0x10
 17256 2f7f 01       		.uleb128 0x1
 17257 2f80 51       		.byte	0x51
 17258 2f81 05       		.uleb128 0x5
 17259 2f82 03       		.byte	0x3
 17260 2f83 00000000 		.4byte	resultado
 17261 2f87 10       		.uleb128 0x10
 17262 2f88 01       		.uleb128 0x1
 17263 2f89 50       		.byte	0x50
 17264 2f8a 03       		.uleb128 0x3
 17265 2f8b 0A       		.byte	0xa
 17266 2f8c 1A02     		.2byte	0x21a
 17267 2f8e 00       		.byte	0
 17268 2f8f 0F       		.uleb128 0xf
 17269 2f90 F62F0000 		.4byte	.LVL537
 17270 2f94 393D0000 		.4byte	0x3d39
 17271 2f98 AA2F0000 		.4byte	0x2faa
 17272 2f9c 10       		.uleb128 0x10
 17273 2f9d 01       		.uleb128 0x1
 17274 2f9e 51       		.byte	0x51
 17275 2f9f 02       		.uleb128 0x2
 17276 2fa0 91       		.byte	0x91
 17277 2fa1 54       		.sleb128 -44
 17278 2fa2 10       		.uleb128 0x10
 17279 2fa3 01       		.uleb128 0x1
 17280 2fa4 50       		.byte	0x50
 17281 2fa5 03       		.uleb128 0x3
 17282 2fa6 0A       		.byte	0xa
 17283 2fa7 4001     		.2byte	0x140
 17284 2fa9 00       		.byte	0
 17285 2faa 0F       		.uleb128 0xf
 17286 2fab 00300000 		.4byte	.LVL538
 17287 2faf 393D0000 		.4byte	0x3d39
 17288 2fb3 C82F0000 		.4byte	0x2fc8
 17289 2fb7 10       		.uleb128 0x10
 17290 2fb8 01       		.uleb128 0x1
 17291 2fb9 51       		.byte	0x51
 17292 2fba 05       		.uleb128 0x5
 17293 2fbb 03       		.byte	0x3
 17294 2fbc 00000000 		.4byte	resultado
 17295 2fc0 10       		.uleb128 0x10
 17296 2fc1 01       		.uleb128 0x1
 17297 2fc2 50       		.byte	0x50
 17298 2fc3 03       		.uleb128 0x3
 17299 2fc4 0A       		.byte	0xa
 17300 2fc5 4002     		.2byte	0x240
 17301 2fc7 00       		.byte	0
 17302 2fc8 0F       		.uleb128 0xf
 17303 2fc9 44300000 		.4byte	.LVL539
 17304 2fcd 533D0000 		.4byte	0x3d53
ARM GAS  C:\Users\diego\AppData\Local\Temp\ccNdDNY6.s 			page 347


 17305 2fd1 DC2F0000 		.4byte	0x2fdc
 17306 2fd5 10       		.uleb128 0x10
 17307 2fd6 01       		.uleb128 0x1
 17308 2fd7 50       		.byte	0x50
 17309 2fd8 02       		.uleb128 0x2
 17310 2fd9 74       		.byte	0x74
 17311 2fda 00       		.sleb128 0
 17312 2fdb 00       		.byte	0
 17313 2fdc 0F       		.uleb128 0xf
 17314 2fdd 5C300000 		.4byte	.LVL540
 17315 2fe1 533D0000 		.4byte	0x3d53
 17316 2fe5 F52F0000 		.4byte	0x2ff5
 17317 2fe9 10       		.uleb128 0x10
 17318 2fea 01       		.uleb128 0x1
 17319 2feb 51       		.byte	0x51
 17320 2fec 01       		.uleb128 0x1
 17321 2fed 3A       		.byte	0x3a
 17322 2fee 10       		.uleb128 0x10
 17323 2fef 01       		.uleb128 0x1
 17324 2ff0 50       		.byte	0x50
 17325 2ff1 02       		.uleb128 0x2
 17326 2ff2 74       		.byte	0x74
 17327 2ff3 00       		.sleb128 0
 17328 2ff4 00       		.byte	0
 17329 2ff5 0F       		.uleb128 0xf
 17330 2ff6 6E300000 		.4byte	.LVL541
 17331 2ffa 533D0000 		.4byte	0x3d53
 17332 2ffe 09300000 		.4byte	0x3009
 17333 3002 10       		.uleb128 0x10
 17334 3003 01       		.uleb128 0x1
 17335 3004 50       		.byte	0x50
 17336 3005 02       		.uleb128 0x2
 17337 3006 74       		.byte	0x74
 17338 3007 00       		.sleb128 0
 17339 3008 00       		.byte	0
 17340 3009 0F       		.uleb128 0xf
 17341 300a 86300000 		.4byte	.LVL542
 17342 300e 533D0000 		.4byte	0x3d53
 17343 3012 22300000 		.4byte	0x3022
 17344 3016 10       		.uleb128 0x10
 17345 3017 01       		.uleb128 0x1
 17346 3018 51       		.byte	0x51
 17347 3019 01       		.uleb128 0x1
 17348 301a 3A       		.byte	0x3a
 17349 301b 10       		.uleb128 0x10
 17350 301c 01       		.uleb128 0x1
 17351 301d 50       		.byte	0x50
 17352 301e 02       		.uleb128 0x2
 17353 301f 74       		.byte	0x74
 17354 3020 00       		.sleb128 0
 17355 3021 00       		.byte	0
 17356 3022 0F       		.uleb128 0xf
 17357 3023 9A300000 		.4byte	.LVL543
 17358 3027 533D0000 		.4byte	0x3d53
 17359 302b 36300000 		.4byte	0x3036
 17360 302f 10       		.uleb128 0x10
 17361 3030 01       		.uleb128 0x1
ARM GAS  C:\Users\diego\AppData\Local\Temp\ccNdDNY6.s 			page 348


 17362 3031 50       		.byte	0x50
 17363 3032 02       		.uleb128 0x2
 17364 3033 74       		.byte	0x74
 17365 3034 00       		.sleb128 0
 17366 3035 00       		.byte	0
 17367 3036 0F       		.uleb128 0xf
 17368 3037 B2300000 		.4byte	.LVL544
 17369 303b 533D0000 		.4byte	0x3d53
 17370 303f 4F300000 		.4byte	0x304f
 17371 3043 10       		.uleb128 0x10
 17372 3044 01       		.uleb128 0x1
 17373 3045 51       		.byte	0x51
 17374 3046 01       		.uleb128 0x1
 17375 3047 3A       		.byte	0x3a
 17376 3048 10       		.uleb128 0x10
 17377 3049 01       		.uleb128 0x1
 17378 304a 50       		.byte	0x50
 17379 304b 02       		.uleb128 0x2
 17380 304c 74       		.byte	0x74
 17381 304d 00       		.sleb128 0
 17382 304e 00       		.byte	0
 17383 304f 0F       		.uleb128 0xf
 17384 3050 BA300000 		.4byte	.LVL545
 17385 3054 6D3D0000 		.4byte	0x3d6d
 17386 3058 68300000 		.4byte	0x3068
 17387 305c 10       		.uleb128 0x10
 17388 305d 01       		.uleb128 0x1
 17389 305e 51       		.byte	0x51
 17390 305f 02       		.uleb128 0x2
 17391 3060 74       		.byte	0x74
 17392 3061 00       		.sleb128 0
 17393 3062 10       		.uleb128 0x10
 17394 3063 01       		.uleb128 0x1
 17395 3064 50       		.byte	0x50
 17396 3065 01       		.uleb128 0x1
 17397 3066 3C       		.byte	0x3c
 17398 3067 00       		.byte	0
 17399 3068 0F       		.uleb128 0xf
 17400 3069 14310000 		.4byte	.LVL546
 17401 306d 533D0000 		.4byte	0x3d53
 17402 3071 7C300000 		.4byte	0x307c
 17403 3075 10       		.uleb128 0x10
 17404 3076 01       		.uleb128 0x1
 17405 3077 50       		.byte	0x50
 17406 3078 02       		.uleb128 0x2
 17407 3079 74       		.byte	0x74
 17408 307a 00       		.sleb128 0
 17409 307b 00       		.byte	0
 17410 307c 0F       		.uleb128 0xf
 17411 307d 2C310000 		.4byte	.LVL547
 17412 3081 533D0000 		.4byte	0x3d53
 17413 3085 95300000 		.4byte	0x3095
 17414 3089 10       		.uleb128 0x10
 17415 308a 01       		.uleb128 0x1
 17416 308b 51       		.byte	0x51
 17417 308c 01       		.uleb128 0x1
 17418 308d 3A       		.byte	0x3a
ARM GAS  C:\Users\diego\AppData\Local\Temp\ccNdDNY6.s 			page 349


 17419 308e 10       		.uleb128 0x10
 17420 308f 01       		.uleb128 0x1
 17421 3090 50       		.byte	0x50
 17422 3091 02       		.uleb128 0x2
 17423 3092 74       		.byte	0x74
 17424 3093 00       		.sleb128 0
 17425 3094 00       		.byte	0
 17426 3095 0F       		.uleb128 0xf
 17427 3096 3E310000 		.4byte	.LVL548
 17428 309a 833D0000 		.4byte	0x3d83
 17429 309e AF300000 		.4byte	0x30af
 17430 30a2 10       		.uleb128 0x10
 17431 30a3 01       		.uleb128 0x1
 17432 30a4 51       		.byte	0x51
 17433 30a5 01       		.uleb128 0x1
 17434 30a6 49       		.byte	0x49
 17435 30a7 10       		.uleb128 0x10
 17436 30a8 01       		.uleb128 0x1
 17437 30a9 50       		.byte	0x50
 17438 30aa 03       		.uleb128 0x3
 17439 30ab 0A       		.byte	0xa
 17440 30ac 0001     		.2byte	0x100
 17441 30ae 00       		.byte	0
 17442 30af 0F       		.uleb128 0xf
 17443 30b0 4A310000 		.4byte	.LVL549
 17444 30b4 833D0000 		.4byte	0x3d83
 17445 30b8 C9300000 		.4byte	0x30c9
 17446 30bc 10       		.uleb128 0x10
 17447 30bd 01       		.uleb128 0x1
 17448 30be 51       		.byte	0x51
 17449 30bf 01       		.uleb128 0x1
 17450 30c0 49       		.byte	0x49
 17451 30c1 10       		.uleb128 0x10
 17452 30c2 01       		.uleb128 0x1
 17453 30c3 50       		.byte	0x50
 17454 30c4 03       		.uleb128 0x3
 17455 30c5 0A       		.byte	0xa
 17456 30c6 5901     		.2byte	0x159
 17457 30c8 00       		.byte	0
 17458 30c9 0F       		.uleb128 0xf
 17459 30ca 50310000 		.4byte	.LVL550
 17460 30ce 9D3D0000 		.4byte	0x3d9d
 17461 30d2 DD300000 		.4byte	0x30dd
 17462 30d6 10       		.uleb128 0x10
 17463 30d7 01       		.uleb128 0x1
 17464 30d8 50       		.byte	0x50
 17465 30d9 02       		.uleb128 0x2
 17466 30da 74       		.byte	0x74
 17467 30db 00       		.sleb128 0
 17468 30dc 00       		.byte	0
 17469 30dd 0F       		.uleb128 0xf
 17470 30de 92310000 		.4byte	.LVL551
 17471 30e2 AE3D0000 		.4byte	0x3dae
 17472 30e6 FD300000 		.4byte	0x30fd
 17473 30ea 10       		.uleb128 0x10
 17474 30eb 01       		.uleb128 0x1
 17475 30ec 52       		.byte	0x52
ARM GAS  C:\Users\diego\AppData\Local\Temp\ccNdDNY6.s 			page 350


 17476 30ed 03       		.uleb128 0x3
 17477 30ee 91       		.byte	0x91
 17478 30ef B47F     		.sleb128 -76
 17479 30f1 10       		.uleb128 0x10
 17480 30f2 01       		.uleb128 0x1
 17481 30f3 51       		.byte	0x51
 17482 30f4 02       		.uleb128 0x2
 17483 30f5 91       		.byte	0x91
 17484 30f6 44       		.sleb128 -60
 17485 30f7 10       		.uleb128 0x10
 17486 30f8 01       		.uleb128 0x1
 17487 30f9 50       		.byte	0x50
 17488 30fa 01       		.uleb128 0x1
 17489 30fb 32       		.byte	0x32
 17490 30fc 00       		.byte	0
 17491 30fd 0F       		.uleb128 0xf
 17492 30fe A8310000 		.4byte	.LVL552
 17493 3102 533D0000 		.4byte	0x3d53
 17494 3106 11310000 		.4byte	0x3111
 17495 310a 10       		.uleb128 0x10
 17496 310b 01       		.uleb128 0x1
 17497 310c 50       		.byte	0x50
 17498 310d 02       		.uleb128 0x2
 17499 310e 74       		.byte	0x74
 17500 310f 00       		.sleb128 0
 17501 3110 00       		.byte	0
 17502 3111 0F       		.uleb128 0xf
 17503 3112 C0310000 		.4byte	.LVL553
 17504 3116 C93D0000 		.4byte	0x3dc9
 17505 311a 2E310000 		.4byte	0x312e
 17506 311e 10       		.uleb128 0x10
 17507 311f 01       		.uleb128 0x1
 17508 3120 51       		.byte	0x51
 17509 3121 02       		.uleb128 0x2
 17510 3122 74       		.byte	0x74
 17511 3123 00       		.sleb128 0
 17512 3124 10       		.uleb128 0x10
 17513 3125 01       		.uleb128 0x1
 17514 3126 50       		.byte	0x50
 17515 3127 05       		.uleb128 0x5
 17516 3128 03       		.byte	0x3
 17517 3129 00000000 		.4byte	resultado
 17518 312d 00       		.byte	0
 17519 312e 0F       		.uleb128 0xf
 17520 312f D2310000 		.4byte	.LVL554
 17521 3133 393D0000 		.4byte	0x3d39
 17522 3137 49310000 		.4byte	0x3149
 17523 313b 10       		.uleb128 0x10
 17524 313c 01       		.uleb128 0x1
 17525 313d 51       		.byte	0x51
 17526 313e 02       		.uleb128 0x2
 17527 313f 91       		.byte	0x91
 17528 3140 54       		.sleb128 -44
 17529 3141 10       		.uleb128 0x10
 17530 3142 01       		.uleb128 0x1
 17531 3143 50       		.byte	0x50
 17532 3144 03       		.uleb128 0x3
ARM GAS  C:\Users\diego\AppData\Local\Temp\ccNdDNY6.s 			page 351


 17533 3145 0A       		.byte	0xa
 17534 3146 0001     		.2byte	0x100
 17535 3148 00       		.byte	0
 17536 3149 0F       		.uleb128 0xf
 17537 314a DC310000 		.4byte	.LVL555
 17538 314e 393D0000 		.4byte	0x3d39
 17539 3152 67310000 		.4byte	0x3167
 17540 3156 10       		.uleb128 0x10
 17541 3157 01       		.uleb128 0x1
 17542 3158 51       		.byte	0x51
 17543 3159 05       		.uleb128 0x5
 17544 315a 03       		.byte	0x3
 17545 315b 00000000 		.4byte	resultado
 17546 315f 10       		.uleb128 0x10
 17547 3160 01       		.uleb128 0x1
 17548 3161 50       		.byte	0x50
 17549 3162 03       		.uleb128 0x3
 17550 3163 0A       		.byte	0xa
 17551 3164 0D02     		.2byte	0x20d
 17552 3166 00       		.byte	0
 17553 3167 0F       		.uleb128 0xf
 17554 3168 E8310000 		.4byte	.LVL556
 17555 316c 393D0000 		.4byte	0x3d39
 17556 3170 82310000 		.4byte	0x3182
 17557 3174 10       		.uleb128 0x10
 17558 3175 01       		.uleb128 0x1
 17559 3176 51       		.byte	0x51
 17560 3177 02       		.uleb128 0x2
 17561 3178 91       		.byte	0x91
 17562 3179 54       		.sleb128 -44
 17563 317a 10       		.uleb128 0x10
 17564 317b 01       		.uleb128 0x1
 17565 317c 50       		.byte	0x50
 17566 317d 03       		.uleb128 0x3
 17567 317e 0A       		.byte	0xa
 17568 317f 5901     		.2byte	0x159
 17569 3181 00       		.byte	0
 17570 3182 0F       		.uleb128 0xf
 17571 3183 F2310000 		.4byte	.LVL557
 17572 3187 393D0000 		.4byte	0x3d39
 17573 318b A0310000 		.4byte	0x31a0
 17574 318f 10       		.uleb128 0x10
 17575 3190 01       		.uleb128 0x1
 17576 3191 51       		.byte	0x51
 17577 3192 05       		.uleb128 0x5
 17578 3193 03       		.byte	0x3
 17579 3194 00000000 		.4byte	resultado
 17580 3198 10       		.uleb128 0x10
 17581 3199 01       		.uleb128 0x1
 17582 319a 50       		.byte	0x50
 17583 319b 03       		.uleb128 0x3
 17584 319c 0A       		.byte	0xa
 17585 319d 4D02     		.2byte	0x24d
 17586 319f 00       		.byte	0
 17587 31a0 0F       		.uleb128 0xf
 17588 31a1 36320000 		.4byte	.LVL558
 17589 31a5 533D0000 		.4byte	0x3d53
ARM GAS  C:\Users\diego\AppData\Local\Temp\ccNdDNY6.s 			page 352


 17590 31a9 B4310000 		.4byte	0x31b4
 17591 31ad 10       		.uleb128 0x10
 17592 31ae 01       		.uleb128 0x1
 17593 31af 50       		.byte	0x50
 17594 31b0 02       		.uleb128 0x2
 17595 31b1 74       		.byte	0x74
 17596 31b2 00       		.sleb128 0
 17597 31b3 00       		.byte	0
 17598 31b4 0F       		.uleb128 0xf
 17599 31b5 4E320000 		.4byte	.LVL559
 17600 31b9 533D0000 		.4byte	0x3d53
 17601 31bd CD310000 		.4byte	0x31cd
 17602 31c1 10       		.uleb128 0x10
 17603 31c2 01       		.uleb128 0x1
 17604 31c3 51       		.byte	0x51
 17605 31c4 01       		.uleb128 0x1
 17606 31c5 3A       		.byte	0x3a
 17607 31c6 10       		.uleb128 0x10
 17608 31c7 01       		.uleb128 0x1
 17609 31c8 50       		.byte	0x50
 17610 31c9 02       		.uleb128 0x2
 17611 31ca 74       		.byte	0x74
 17612 31cb 00       		.sleb128 0
 17613 31cc 00       		.byte	0
 17614 31cd 0F       		.uleb128 0xf
 17615 31ce 60320000 		.4byte	.LVL560
 17616 31d2 533D0000 		.4byte	0x3d53
 17617 31d6 E1310000 		.4byte	0x31e1
 17618 31da 10       		.uleb128 0x10
 17619 31db 01       		.uleb128 0x1
 17620 31dc 50       		.byte	0x50
 17621 31dd 02       		.uleb128 0x2
 17622 31de 74       		.byte	0x74
 17623 31df 00       		.sleb128 0
 17624 31e0 00       		.byte	0
 17625 31e1 0F       		.uleb128 0xf
 17626 31e2 78320000 		.4byte	.LVL561
 17627 31e6 533D0000 		.4byte	0x3d53
 17628 31ea FA310000 		.4byte	0x31fa
 17629 31ee 10       		.uleb128 0x10
 17630 31ef 01       		.uleb128 0x1
 17631 31f0 51       		.byte	0x51
 17632 31f1 01       		.uleb128 0x1
 17633 31f2 3A       		.byte	0x3a
 17634 31f3 10       		.uleb128 0x10
 17635 31f4 01       		.uleb128 0x1
 17636 31f5 50       		.byte	0x50
 17637 31f6 02       		.uleb128 0x2
 17638 31f7 74       		.byte	0x74
 17639 31f8 00       		.sleb128 0
 17640 31f9 00       		.byte	0
 17641 31fa 0F       		.uleb128 0xf
 17642 31fb 8C320000 		.4byte	.LVL562
 17643 31ff 533D0000 		.4byte	0x3d53
 17644 3203 0E320000 		.4byte	0x320e
 17645 3207 10       		.uleb128 0x10
 17646 3208 01       		.uleb128 0x1
ARM GAS  C:\Users\diego\AppData\Local\Temp\ccNdDNY6.s 			page 353


 17647 3209 50       		.byte	0x50
 17648 320a 02       		.uleb128 0x2
 17649 320b 74       		.byte	0x74
 17650 320c 00       		.sleb128 0
 17651 320d 00       		.byte	0
 17652 320e 0F       		.uleb128 0xf
 17653 320f A4320000 		.4byte	.LVL563
 17654 3213 533D0000 		.4byte	0x3d53
 17655 3217 27320000 		.4byte	0x3227
 17656 321b 10       		.uleb128 0x10
 17657 321c 01       		.uleb128 0x1
 17658 321d 51       		.byte	0x51
 17659 321e 01       		.uleb128 0x1
 17660 321f 3A       		.byte	0x3a
 17661 3220 10       		.uleb128 0x10
 17662 3221 01       		.uleb128 0x1
 17663 3222 50       		.byte	0x50
 17664 3223 02       		.uleb128 0x2
 17665 3224 74       		.byte	0x74
 17666 3225 00       		.sleb128 0
 17667 3226 00       		.byte	0
 17668 3227 0F       		.uleb128 0xf
 17669 3228 AC320000 		.4byte	.LVL564
 17670 322c 6D3D0000 		.4byte	0x3d6d
 17671 3230 40320000 		.4byte	0x3240
 17672 3234 10       		.uleb128 0x10
 17673 3235 01       		.uleb128 0x1
 17674 3236 51       		.byte	0x51
 17675 3237 02       		.uleb128 0x2
 17676 3238 74       		.byte	0x74
 17677 3239 00       		.sleb128 0
 17678 323a 10       		.uleb128 0x10
 17679 323b 01       		.uleb128 0x1
 17680 323c 50       		.byte	0x50
 17681 323d 01       		.uleb128 0x1
 17682 323e 3C       		.byte	0x3c
 17683 323f 00       		.byte	0
 17684 3240 0F       		.uleb128 0xf
 17685 3241 C0320000 		.4byte	.LVL565
 17686 3245 533D0000 		.4byte	0x3d53
 17687 3249 54320000 		.4byte	0x3254
 17688 324d 10       		.uleb128 0x10
 17689 324e 01       		.uleb128 0x1
 17690 324f 50       		.byte	0x50
 17691 3250 02       		.uleb128 0x2
 17692 3251 74       		.byte	0x74
 17693 3252 00       		.sleb128 0
 17694 3253 00       		.byte	0
 17695 3254 0F       		.uleb128 0xf
 17696 3255 D8320000 		.4byte	.LVL566
 17697 3259 533D0000 		.4byte	0x3d53
 17698 325d 6D320000 		.4byte	0x326d
 17699 3261 10       		.uleb128 0x10
 17700 3262 01       		.uleb128 0x1
 17701 3263 51       		.byte	0x51
 17702 3264 01       		.uleb128 0x1
 17703 3265 3A       		.byte	0x3a
ARM GAS  C:\Users\diego\AppData\Local\Temp\ccNdDNY6.s 			page 354


 17704 3266 10       		.uleb128 0x10
 17705 3267 01       		.uleb128 0x1
 17706 3268 50       		.byte	0x50
 17707 3269 02       		.uleb128 0x2
 17708 326a 74       		.byte	0x74
 17709 326b 00       		.sleb128 0
 17710 326c 00       		.byte	0
 17711 326d 0F       		.uleb128 0xf
 17712 326e EA320000 		.4byte	.LVL567
 17713 3272 833D0000 		.4byte	0x3d83
 17714 3276 87320000 		.4byte	0x3287
 17715 327a 10       		.uleb128 0x10
 17716 327b 01       		.uleb128 0x1
 17717 327c 51       		.byte	0x51
 17718 327d 01       		.uleb128 0x1
 17719 327e 49       		.byte	0x49
 17720 327f 10       		.uleb128 0x10
 17721 3280 01       		.uleb128 0x1
 17722 3281 50       		.byte	0x50
 17723 3282 03       		.uleb128 0x3
 17724 3283 0A       		.byte	0xa
 17725 3284 4804     		.2byte	0x448
 17726 3286 00       		.byte	0
 17727 3287 0F       		.uleb128 0xf
 17728 3288 F6320000 		.4byte	.LVL568
 17729 328c 833D0000 		.4byte	0x3d83
 17730 3290 A1320000 		.4byte	0x32a1
 17731 3294 10       		.uleb128 0x10
 17732 3295 01       		.uleb128 0x1
 17733 3296 51       		.byte	0x51
 17734 3297 01       		.uleb128 0x1
 17735 3298 49       		.byte	0x49
 17736 3299 10       		.uleb128 0x10
 17737 329a 01       		.uleb128 0x1
 17738 329b 50       		.byte	0x50
 17739 329c 03       		.uleb128 0x3
 17740 329d 0A       		.byte	0xa
 17741 329e 1E04     		.2byte	0x41e
 17742 32a0 00       		.byte	0
 17743 32a1 0F       		.uleb128 0xf
 17744 32a2 FC320000 		.4byte	.LVL569
 17745 32a6 9D3D0000 		.4byte	0x3d9d
 17746 32aa B5320000 		.4byte	0x32b5
 17747 32ae 10       		.uleb128 0x10
 17748 32af 01       		.uleb128 0x1
 17749 32b0 50       		.byte	0x50
 17750 32b1 02       		.uleb128 0x2
 17751 32b2 74       		.byte	0x74
 17752 32b3 00       		.sleb128 0
 17753 32b4 00       		.byte	0
 17754 32b5 0F       		.uleb128 0xf
 17755 32b6 3E330000 		.4byte	.LVL570
 17756 32ba AE3D0000 		.4byte	0x3dae
 17757 32be D5320000 		.4byte	0x32d5
 17758 32c2 10       		.uleb128 0x10
 17759 32c3 01       		.uleb128 0x1
 17760 32c4 52       		.byte	0x52
ARM GAS  C:\Users\diego\AppData\Local\Temp\ccNdDNY6.s 			page 355


 17761 32c5 03       		.uleb128 0x3
 17762 32c6 91       		.byte	0x91
 17763 32c7 B47F     		.sleb128 -76
 17764 32c9 10       		.uleb128 0x10
 17765 32ca 01       		.uleb128 0x1
 17766 32cb 51       		.byte	0x51
 17767 32cc 02       		.uleb128 0x2
 17768 32cd 91       		.byte	0x91
 17769 32ce 44       		.sleb128 -60
 17770 32cf 10       		.uleb128 0x10
 17771 32d0 01       		.uleb128 0x1
 17772 32d1 50       		.byte	0x50
 17773 32d2 01       		.uleb128 0x1
 17774 32d3 32       		.byte	0x32
 17775 32d4 00       		.byte	0
 17776 32d5 0F       		.uleb128 0xf
 17777 32d6 54330000 		.4byte	.LVL571
 17778 32da 533D0000 		.4byte	0x3d53
 17779 32de E9320000 		.4byte	0x32e9
 17780 32e2 10       		.uleb128 0x10
 17781 32e3 01       		.uleb128 0x1
 17782 32e4 50       		.byte	0x50
 17783 32e5 02       		.uleb128 0x2
 17784 32e6 74       		.byte	0x74
 17785 32e7 00       		.sleb128 0
 17786 32e8 00       		.byte	0
 17787 32e9 0F       		.uleb128 0xf
 17788 32ea 6C330000 		.4byte	.LVL572
 17789 32ee C93D0000 		.4byte	0x3dc9
 17790 32f2 06330000 		.4byte	0x3306
 17791 32f6 10       		.uleb128 0x10
 17792 32f7 01       		.uleb128 0x1
 17793 32f8 51       		.byte	0x51
 17794 32f9 02       		.uleb128 0x2
 17795 32fa 74       		.byte	0x74
 17796 32fb 00       		.sleb128 0
 17797 32fc 10       		.uleb128 0x10
 17798 32fd 01       		.uleb128 0x1
 17799 32fe 50       		.byte	0x50
 17800 32ff 05       		.uleb128 0x5
 17801 3300 03       		.byte	0x3
 17802 3301 00000000 		.4byte	resultado
 17803 3305 00       		.byte	0
 17804 3306 0F       		.uleb128 0xf
 17805 3307 7E330000 		.4byte	.LVL573
 17806 330b 393D0000 		.4byte	0x3d39
 17807 330f 21330000 		.4byte	0x3321
 17808 3313 10       		.uleb128 0x10
 17809 3314 01       		.uleb128 0x1
 17810 3315 51       		.byte	0x51
 17811 3316 02       		.uleb128 0x2
 17812 3317 91       		.byte	0x91
 17813 3318 54       		.sleb128 -44
 17814 3319 10       		.uleb128 0x10
 17815 331a 01       		.uleb128 0x1
 17816 331b 50       		.byte	0x50
 17817 331c 03       		.uleb128 0x3
ARM GAS  C:\Users\diego\AppData\Local\Temp\ccNdDNY6.s 			page 356


 17818 331d 0A       		.byte	0xa
 17819 331e 4804     		.2byte	0x448
 17820 3320 00       		.byte	0
 17821 3321 0F       		.uleb128 0xf
 17822 3322 88330000 		.4byte	.LVL574
 17823 3326 393D0000 		.4byte	0x3d39
 17824 332a 3F330000 		.4byte	0x333f
 17825 332e 10       		.uleb128 0x10
 17826 332f 01       		.uleb128 0x1
 17827 3330 51       		.byte	0x51
 17828 3331 05       		.uleb128 0x5
 17829 3332 03       		.byte	0x3
 17830 3333 00000000 		.4byte	resultado
 17831 3337 10       		.uleb128 0x10
 17832 3338 01       		.uleb128 0x1
 17833 3339 50       		.byte	0x50
 17834 333a 03       		.uleb128 0x3
 17835 333b 0A       		.byte	0xa
 17836 333c 0E04     		.2byte	0x40e
 17837 333e 00       		.byte	0
 17838 333f 0F       		.uleb128 0xf
 17839 3340 94330000 		.4byte	.LVL575
 17840 3344 393D0000 		.4byte	0x3d39
 17841 3348 5A330000 		.4byte	0x335a
 17842 334c 10       		.uleb128 0x10
 17843 334d 01       		.uleb128 0x1
 17844 334e 51       		.byte	0x51
 17845 334f 02       		.uleb128 0x2
 17846 3350 91       		.byte	0x91
 17847 3351 54       		.sleb128 -44
 17848 3352 10       		.uleb128 0x10
 17849 3353 01       		.uleb128 0x1
 17850 3354 50       		.byte	0x50
 17851 3355 03       		.uleb128 0x3
 17852 3356 0A       		.byte	0xa
 17853 3357 1E04     		.2byte	0x41e
 17854 3359 00       		.byte	0
 17855 335a 0F       		.uleb128 0xf
 17856 335b 9E330000 		.4byte	.LVL576
 17857 335f 393D0000 		.4byte	0x3d39
 17858 3363 78330000 		.4byte	0x3378
 17859 3367 10       		.uleb128 0x10
 17860 3368 01       		.uleb128 0x1
 17861 3369 51       		.byte	0x51
 17862 336a 05       		.uleb128 0x5
 17863 336b 03       		.byte	0x3
 17864 336c 00000000 		.4byte	resultado
 17865 3370 10       		.uleb128 0x10
 17866 3371 01       		.uleb128 0x1
 17867 3372 50       		.byte	0x50
 17868 3373 03       		.uleb128 0x3
 17869 3374 0A       		.byte	0xa
 17870 3375 3904     		.2byte	0x439
 17871 3377 00       		.byte	0
 17872 3378 11       		.uleb128 0x11
 17873 3379 B4330000 		.4byte	.LVL577
 17874 337d 273D0000 		.4byte	0x3d27
ARM GAS  C:\Users\diego\AppData\Local\Temp\ccNdDNY6.s 			page 357


 17875 3381 19       		.uleb128 0x19
 17876 3382 02340000 		.4byte	.LVL578
 17877 3386 533D0000 		.4byte	0x3d53
 17878 338a 10       		.uleb128 0x10
 17879 338b 01       		.uleb128 0x1
 17880 338c 50       		.byte	0x50
 17881 338d 02       		.uleb128 0x2
 17882 338e 74       		.byte	0x74
 17883 338f 00       		.sleb128 0
 17884 3390 00       		.byte	0
 17885 3391 00       		.byte	0
 17886 3392 09       		.uleb128 0x9
 17887 3393 81000000 		.4byte	0x81
 17888 3397 A2330000 		.4byte	0x33a2
 17889 339b 0A       		.uleb128 0xa
 17890 339c BA000000 		.4byte	0xba
 17891 33a0 18       		.byte	0x18
 17892 33a1 00       		.byte	0
 17893 33a2 09       		.uleb128 0x9
 17894 33a3 81000000 		.4byte	0x81
 17895 33a7 B2330000 		.4byte	0x33b2
 17896 33ab 0A       		.uleb128 0xa
 17897 33ac BA000000 		.4byte	0xba
 17898 33b0 0D       		.byte	0xd
 17899 33b1 00       		.byte	0
 17900 33b2 15       		.uleb128 0x15
 17901 33b3 A9050000 		.4byte	.LASF59
 17902 33b7 01       		.byte	0x1
 17903 33b8 5206     		.2byte	0x652
 17904 33ba 81000000 		.4byte	0x81
 17905 33be 00000000 		.4byte	.LFB68
 17906 33c2 84040000 		.4byte	.LFE68-.LFB68
 17907 33c6 01       		.uleb128 0x1
 17908 33c7 9C       		.byte	0x9c
 17909 33c8 EE340000 		.4byte	0x34ee
 17910 33cc 16       		.uleb128 0x16
 17911 33cd 64697200 		.ascii	"dir\000"
 17912 33d1 01       		.byte	0x1
 17913 33d2 5206     		.2byte	0x652
 17914 33d4 81000000 		.4byte	0x81
 17915 33d8 AB020000 		.4byte	.LLST11
 17916 33dc 1A       		.uleb128 0x1a
 17917 33dd 44070000 		.4byte	.LASF60
 17918 33e1 01       		.byte	0x1
 17919 33e2 5206     		.2byte	0x652
 17920 33e4 81000000 		.4byte	0x81
 17921 33e8 E5020000 		.4byte	.LLST12
 17922 33ec 1A       		.uleb128 0x1a
 17923 33ed C8060000 		.4byte	.LASF21
 17924 33f1 01       		.byte	0x1
 17925 33f2 5206     		.2byte	0x652
 17926 33f4 EE340000 		.4byte	0x34ee
 17927 33f8 38030000 		.4byte	.LLST13
 17928 33fc 1A       		.uleb128 0x1a
 17929 33fd CD010000 		.4byte	.LASF20
 17930 3401 01       		.byte	0x1
 17931 3402 5206     		.2byte	0x652
ARM GAS  C:\Users\diego\AppData\Local\Temp\ccNdDNY6.s 			page 358


 17932 3404 81000000 		.4byte	0x81
 17933 3408 8B030000 		.4byte	.LLST14
 17934 340c 17       		.uleb128 0x17
 17935 340d 2F000000 		.4byte	.LASF28
 17936 3411 01       		.byte	0x1
 17937 3412 5306     		.2byte	0x653
 17938 3414 F4340000 		.4byte	0x34f4
 17939 3418 02       		.uleb128 0x2
 17940 3419 91       		.byte	0x91
 17941 341a 54       		.sleb128 -44
 17942 341b 1B       		.uleb128 0x1b
 17943 341c 6D040000 		.4byte	.LASF18
 17944 3420 01       		.byte	0x1
 17945 3421 5306     		.2byte	0x653
 17946 3423 81000000 		.4byte	0x81
 17947 3427 DE030000 		.4byte	.LLST15
 17948 342b 1B       		.uleb128 0x1b
 17949 342c 63050000 		.4byte	.LASF61
 17950 3430 01       		.byte	0x1
 17951 3431 5306     		.2byte	0x653
 17952 3433 81000000 		.4byte	0x81
 17953 3437 66040000 		.4byte	.LLST16
 17954 343b 18       		.uleb128 0x18
 17955 343c 6900     		.ascii	"i\000"
 17956 343e 01       		.byte	0x1
 17957 343f 5306     		.2byte	0x653
 17958 3441 81000000 		.4byte	0x81
 17959 3445 90040000 		.4byte	.LLST17
 17960 3449 18       		.uleb128 0x18
 17961 344a 6A00     		.ascii	"j\000"
 17962 344c 01       		.byte	0x1
 17963 344d 5306     		.2byte	0x653
 17964 344f 81000000 		.4byte	0x81
 17965 3453 7C060000 		.4byte	.LLST18
 17966 3457 1B       		.uleb128 0x1b
 17967 3458 0C010000 		.4byte	.LASF62
 17968 345c 01       		.byte	0x1
 17969 345d 5306     		.2byte	0x653
 17970 345f 81000000 		.4byte	0x81
 17971 3463 DC060000 		.4byte	.LLST19
 17972 3467 0F       		.uleb128 0xf
 17973 3468 22040000 		.4byte	.LVL680
 17974 346c FA3C0000 		.4byte	0x3cfa
 17975 3470 7E340000 		.4byte	0x347e
 17976 3474 10       		.uleb128 0x10
 17977 3475 01       		.uleb128 0x1
 17978 3476 50       		.byte	0x50
 17979 3477 05       		.uleb128 0x5
 17980 3478 74       		.byte	0x74
 17981 3479 00       		.sleb128 0
 17982 347a 08       		.byte	0x8
 17983 347b 20       		.byte	0x20
 17984 347c 21       		.byte	0x21
 17985 347d 00       		.byte	0
 17986 347e 0F       		.uleb128 0xf
 17987 347f 28040000 		.4byte	.LVL681
 17988 3483 0B3D0000 		.4byte	0x3d0b
ARM GAS  C:\Users\diego\AppData\Local\Temp\ccNdDNY6.s 			page 359


 17989 3487 92340000 		.4byte	0x3492
 17990 348b 10       		.uleb128 0x10
 17991 348c 01       		.uleb128 0x1
 17992 348d 50       		.byte	0x50
 17993 348e 02       		.uleb128 0x2
 17994 348f 08       		.byte	0x8
 17995 3490 32       		.byte	0x32
 17996 3491 00       		.byte	0
 17997 3492 11       		.uleb128 0x11
 17998 3493 2C040000 		.4byte	.LVL682
 17999 3497 1C3D0000 		.4byte	0x3d1c
 18000 349b 11       		.uleb128 0x11
 18001 349c 32040000 		.4byte	.LVL683
 18002 34a0 2E3D0000 		.4byte	0x3d2e
 18003 34a4 11       		.uleb128 0x11
 18004 34a5 3E040000 		.4byte	.LVL684
 18005 34a9 273D0000 		.4byte	0x3d27
 18006 34ad 0F       		.uleb128 0xf
 18007 34ae 4E040000 		.4byte	.LVL686
 18008 34b2 FA3C0000 		.4byte	0x3cfa
 18009 34b6 C9340000 		.4byte	0x34c9
 18010 34ba 10       		.uleb128 0x10
 18011 34bb 01       		.uleb128 0x1
 18012 34bc 50       		.byte	0x50
 18013 34bd 0A       		.uleb128 0xa
 18014 34be 91       		.byte	0x91
 18015 34bf 00       		.sleb128 0
 18016 34c0 75       		.byte	0x75
 18017 34c1 00       		.sleb128 0
 18018 34c2 22       		.byte	0x22
 18019 34c3 08       		.byte	0x8
 18020 34c4 2C       		.byte	0x2c
 18021 34c5 1C       		.byte	0x1c
 18022 34c6 94       		.byte	0x94
 18023 34c7 01       		.byte	0x1
 18024 34c8 00       		.byte	0
 18025 34c9 0F       		.uleb128 0xf
 18026 34ca 5C040000 		.4byte	.LVL689
 18027 34ce 0B3D0000 		.4byte	0x3d0b
 18028 34d2 DD340000 		.4byte	0x34dd
 18029 34d6 10       		.uleb128 0x10
 18030 34d7 01       		.uleb128 0x1
 18031 34d8 50       		.byte	0x50
 18032 34d9 02       		.uleb128 0x2
 18033 34da 08       		.byte	0x8
 18034 34db 32       		.byte	0x32
 18035 34dc 00       		.byte	0
 18036 34dd 19       		.uleb128 0x19
 18037 34de 62040000 		.4byte	.LVL690
 18038 34e2 D8030000 		.4byte	0x3d8
 18039 34e6 10       		.uleb128 0x10
 18040 34e7 01       		.uleb128 0x1
 18041 34e8 50       		.byte	0x50
 18042 34e9 02       		.uleb128 0x2
 18043 34ea 74       		.byte	0x74
 18044 34eb 00       		.sleb128 0
 18045 34ec 00       		.byte	0
ARM GAS  C:\Users\diego\AppData\Local\Temp\ccNdDNY6.s 			page 360


 18046 34ed 00       		.byte	0
 18047 34ee 1C       		.uleb128 0x1c
 18048 34ef 04       		.byte	0x4
 18049 34f0 81000000 		.4byte	0x81
 18050 34f4 09       		.uleb128 0x9
 18051 34f5 81000000 		.4byte	0x81
 18052 34f9 04350000 		.4byte	0x3504
 18053 34fd 0A       		.uleb128 0xa
 18054 34fe BA000000 		.4byte	0xba
 18055 3502 11       		.byte	0x11
 18056 3503 00       		.byte	0
 18057 3504 15       		.uleb128 0x15
 18058 3505 34040000 		.4byte	.LASF63
 18059 3509 01       		.byte	0x1
 18060 350a 0507     		.2byte	0x705
 18061 350c 81000000 		.4byte	0x81
 18062 3510 00000000 		.4byte	.LFB69
 18063 3514 C4020000 		.4byte	.LFE69-.LFB69
 18064 3518 01       		.uleb128 0x1
 18065 3519 9C       		.byte	0x9c
 18066 351a C1350000 		.4byte	0x35c1
 18067 351e 16       		.uleb128 0x16
 18068 351f 64697200 		.ascii	"dir\000"
 18069 3523 01       		.byte	0x1
 18070 3524 0507     		.2byte	0x705
 18071 3526 81000000 		.4byte	0x81
 18072 352a 32070000 		.4byte	.LLST20
 18073 352e 17       		.uleb128 0x17
 18074 352f 2F000000 		.4byte	.LASF28
 18075 3533 01       		.byte	0x1
 18076 3534 0607     		.2byte	0x706
 18077 3536 F1020000 		.4byte	0x2f1
 18078 353a 02       		.uleb128 0x2
 18079 353b 91       		.byte	0x91
 18080 353c 60       		.sleb128 -32
 18081 353d 1B       		.uleb128 0x1b
 18082 353e 6D040000 		.4byte	.LASF18
 18083 3542 01       		.byte	0x1
 18084 3543 0607     		.2byte	0x706
 18085 3545 81000000 		.4byte	0x81
 18086 3549 53070000 		.4byte	.LLST21
 18087 354d 0F       		.uleb128 0xf
 18088 354e 46020000 		.4byte	.LVL702
 18089 3552 FA3C0000 		.4byte	0x3cfa
 18090 3556 64350000 		.4byte	0x3564
 18091 355a 10       		.uleb128 0x10
 18092 355b 01       		.uleb128 0x1
 18093 355c 50       		.byte	0x50
 18094 355d 05       		.uleb128 0x5
 18095 355e 74       		.byte	0x74
 18096 355f 00       		.sleb128 0
 18097 3560 08       		.byte	0x8
 18098 3561 20       		.byte	0x20
 18099 3562 21       		.byte	0x21
 18100 3563 00       		.byte	0
 18101 3564 0F       		.uleb128 0xf
 18102 3565 4C020000 		.4byte	.LVL703
ARM GAS  C:\Users\diego\AppData\Local\Temp\ccNdDNY6.s 			page 361


 18103 3569 0B3D0000 		.4byte	0x3d0b
 18104 356d 78350000 		.4byte	0x3578
 18105 3571 10       		.uleb128 0x10
 18106 3572 01       		.uleb128 0x1
 18107 3573 50       		.byte	0x50
 18108 3574 02       		.uleb128 0x2
 18109 3575 08       		.byte	0x8
 18110 3576 64       		.byte	0x64
 18111 3577 00       		.byte	0
 18112 3578 11       		.uleb128 0x11
 18113 3579 50020000 		.4byte	.LVL704
 18114 357d 1C3D0000 		.4byte	0x3d1c
 18115 3581 11       		.uleb128 0x11
 18116 3582 56020000 		.4byte	.LVL705
 18117 3586 2E3D0000 		.4byte	0x3d2e
 18118 358a 11       		.uleb128 0x11
 18119 358b 62020000 		.4byte	.LVL706
 18120 358f 273D0000 		.4byte	0x3d27
 18121 3593 11       		.uleb128 0x11
 18122 3594 76020000 		.4byte	.LVL707
 18123 3598 FA3C0000 		.4byte	0x3cfa
 18124 359c 0F       		.uleb128 0xf
 18125 359d 8C020000 		.4byte	.LVL708
 18126 35a1 0B3D0000 		.4byte	0x3d0b
 18127 35a5 B0350000 		.4byte	0x35b0
 18128 35a9 10       		.uleb128 0x10
 18129 35aa 01       		.uleb128 0x1
 18130 35ab 50       		.byte	0x50
 18131 35ac 02       		.uleb128 0x2
 18132 35ad 08       		.byte	0x8
 18133 35ae 32       		.byte	0x32
 18134 35af 00       		.byte	0
 18135 35b0 19       		.uleb128 0x19
 18136 35b1 92020000 		.4byte	.LVL709
 18137 35b5 D8030000 		.4byte	0x3d8
 18138 35b9 10       		.uleb128 0x10
 18139 35ba 01       		.uleb128 0x1
 18140 35bb 50       		.byte	0x50
 18141 35bc 02       		.uleb128 0x2
 18142 35bd 74       		.byte	0x74
 18143 35be 00       		.sleb128 0
 18144 35bf 00       		.byte	0
 18145 35c0 00       		.byte	0
 18146 35c1 15       		.uleb128 0x15
 18147 35c2 FF030000 		.4byte	.LASF32
 18148 35c6 01       		.byte	0x1
 18149 35c7 6207     		.2byte	0x762
 18150 35c9 81000000 		.4byte	0x81
 18151 35cd 00000000 		.4byte	.LFB70
 18152 35d1 5C000000 		.4byte	.LFE70-.LFB70
 18153 35d5 01       		.uleb128 0x1
 18154 35d6 9C       		.byte	0x9c
 18155 35d7 40360000 		.4byte	0x3640
 18156 35db 1A       		.uleb128 0x1a
 18157 35dc B7060000 		.4byte	.LASF64
 18158 35e0 01       		.byte	0x1
 18159 35e1 6207     		.2byte	0x762
ARM GAS  C:\Users\diego\AppData\Local\Temp\ccNdDNY6.s 			page 362


 18160 35e3 81000000 		.4byte	0x81
 18161 35e7 8A070000 		.4byte	.LLST22
 18162 35eb 18       		.uleb128 0x18
 18163 35ec 7800     		.ascii	"x\000"
 18164 35ee 01       		.byte	0x1
 18165 35ef 6307     		.2byte	0x763
 18166 35f1 81000000 		.4byte	0x81
 18167 35f5 AB070000 		.4byte	.LLST23
 18168 35f9 11       		.uleb128 0x11
 18169 35fa 08000000 		.4byte	.LVL712
 18170 35fe 273D0000 		.4byte	0x3d27
 18171 3602 0F       		.uleb128 0xf
 18172 3603 10000000 		.4byte	.LVL713
 18173 3607 FA3C0000 		.4byte	0x3cfa
 18174 360b 19360000 		.4byte	0x3619
 18175 360f 10       		.uleb128 0x10
 18176 3610 01       		.uleb128 0x1
 18177 3611 50       		.byte	0x50
 18178 3612 05       		.uleb128 0x5
 18179 3613 74       		.byte	0x74
 18180 3614 00       		.sleb128 0
 18181 3615 08       		.byte	0x8
 18182 3616 50       		.byte	0x50
 18183 3617 21       		.byte	0x21
 18184 3618 00       		.byte	0
 18185 3619 0F       		.uleb128 0xf
 18186 361a 16000000 		.4byte	.LVL714
 18187 361e 0B3D0000 		.4byte	0x3d0b
 18188 3622 2D360000 		.4byte	0x362d
 18189 3626 10       		.uleb128 0x10
 18190 3627 01       		.uleb128 0x1
 18191 3628 50       		.byte	0x50
 18192 3629 02       		.uleb128 0x2
 18193 362a 08       		.byte	0x8
 18194 362b 64       		.byte	0x64
 18195 362c 00       		.byte	0
 18196 362d 11       		.uleb128 0x11
 18197 362e 1A000000 		.4byte	.LVL715
 18198 3632 1C3D0000 		.4byte	0x3d1c
 18199 3636 11       		.uleb128 0x11
 18200 3637 28000000 		.4byte	.LVL716
 18201 363b 1C3D0000 		.4byte	0x3d1c
 18202 363f 00       		.byte	0
 18203 3640 09       		.uleb128 0x9
 18204 3641 81000000 		.4byte	0x81
 18205 3645 50360000 		.4byte	0x3650
 18206 3649 0A       		.uleb128 0xa
 18207 364a BA000000 		.4byte	0xba
 18208 364e FF       		.byte	0xff
 18209 364f 00       		.byte	0
 18210 3650 1D       		.uleb128 0x1d
 18211 3651 C4020000 		.4byte	.LASF65
 18212 3655 06       		.byte	0x6
 18213 3656 5201     		.2byte	0x152
 18214 3658 5C360000 		.4byte	0x365c
 18215 365c 0C       		.uleb128 0xc
 18216 365d 40360000 		.4byte	0x3640
ARM GAS  C:\Users\diego\AppData\Local\Temp\ccNdDNY6.s 			page 363


 18217 3661 1D       		.uleb128 0x1d
 18218 3662 2E050000 		.4byte	.LASF66
 18219 3666 07       		.byte	0x7
 18220 3667 5506     		.2byte	0x655
 18221 3669 6D360000 		.4byte	0x366d
 18222 366d 0C       		.uleb128 0xc
 18223 366e 76000000 		.4byte	0x76
 18224 3672 1E       		.uleb128 0x1e
 18225 3673 EF040000 		.4byte	.LASF67
 18226 3677 05       		.byte	0x5
 18227 3678 2F       		.byte	0x2f
 18228 3679 81000000 		.4byte	0x81
 18229 367d 05       		.uleb128 0x5
 18230 367e 03       		.byte	0x3
 18231 367f 00000000 		.4byte	flujo_LCD
 18232 3683 1E       		.uleb128 0x1e
 18233 3684 09000000 		.4byte	.LASF68
 18234 3688 05       		.byte	0x5
 18235 3689 2F       		.byte	0x2f
 18236 368a 81000000 		.4byte	0x81
 18237 368e 05       		.uleb128 0x5
 18238 368f 03       		.byte	0x3
 18239 3690 00000000 		.4byte	flujo_LCD2
 18240 3694 1E       		.uleb128 0x1e
 18241 3695 C2010000 		.4byte	.LASF69
 18242 3699 05       		.byte	0x5
 18243 369a 2F       		.byte	0x2f
 18244 369b 81000000 		.4byte	0x81
 18245 369f 05       		.uleb128 0x5
 18246 36a0 03       		.byte	0x3
 18247 36a1 00000000 		.4byte	flujo_LCD3
 18248 36a5 1E       		.uleb128 0x1e
 18249 36a6 1C000000 		.4byte	.LASF70
 18250 36aa 05       		.byte	0x5
 18251 36ab 2F       		.byte	0x2f
 18252 36ac 81000000 		.4byte	0x81
 18253 36b0 05       		.uleb128 0x5
 18254 36b1 03       		.byte	0x3
 18255 36b2 00000000 		.4byte	flujo_LCD4
 18256 36b6 1E       		.uleb128 0x1e
 18257 36b7 A3050000 		.4byte	.LASF71
 18258 36bb 05       		.byte	0x5
 18259 36bc 60       		.byte	0x60
 18260 36bd 81000000 		.4byte	0x81
 18261 36c1 05       		.uleb128 0x5
 18262 36c2 03       		.byte	0x3
 18263 36c3 00000000 		.4byte	cont1
 18264 36c7 1E       		.uleb128 0x1e
 18265 36c8 4C010000 		.4byte	.LASF72
 18266 36cc 05       		.byte	0x5
 18267 36cd 60       		.byte	0x60
 18268 36ce 81000000 		.4byte	0x81
 18269 36d2 05       		.uleb128 0x5
 18270 36d3 03       		.byte	0x3
 18271 36d4 00000000 		.4byte	teclas1
 18272 36d8 1E       		.uleb128 0x1e
 18273 36d9 54010000 		.4byte	.LASF73
ARM GAS  C:\Users\diego\AppData\Local\Temp\ccNdDNY6.s 			page 364


 18274 36dd 05       		.byte	0x5
 18275 36de 60       		.byte	0x60
 18276 36df 81000000 		.4byte	0x81
 18277 36e3 05       		.uleb128 0x5
 18278 36e4 03       		.byte	0x3
 18279 36e5 00000000 		.4byte	teclas2
 18280 36e9 1E       		.uleb128 0x1e
 18281 36ea 55050000 		.4byte	.LASF74
 18282 36ee 05       		.byte	0x5
 18283 36ef 60       		.byte	0x60
 18284 36f0 81000000 		.4byte	0x81
 18285 36f4 05       		.uleb128 0x5
 18286 36f5 03       		.byte	0x3
 18287 36f6 00000000 		.4byte	comas1
 18288 36fa 1E       		.uleb128 0x1e
 18289 36fb 5C050000 		.4byte	.LASF75
 18290 36ff 05       		.byte	0x5
 18291 3700 60       		.byte	0x60
 18292 3701 81000000 		.4byte	0x81
 18293 3705 05       		.uleb128 0x5
 18294 3706 03       		.byte	0x3
 18295 3707 00000000 		.4byte	comas2
 18296 370b 1E       		.uleb128 0x1e
 18297 370c 27000000 		.4byte	.LASF76
 18298 3710 05       		.byte	0x5
 18299 3711 61       		.byte	0x61
 18300 3712 81000000 		.4byte	0x81
 18301 3716 05       		.uleb128 0x5
 18302 3717 03       		.byte	0x3
 18303 3718 00000000 		.4byte	versurt
 18304 371c 1E       		.uleb128 0x1e
 18305 371d 68050000 		.4byte	.LASF77
 18306 3721 05       		.byte	0x5
 18307 3722 62       		.byte	0x62
 18308 3723 81000000 		.4byte	0x81
 18309 3727 05       		.uleb128 0x5
 18310 3728 03       		.byte	0x3
 18311 3729 00000000 		.4byte	producto1
 18312 372d 1E       		.uleb128 0x1e
 18313 372e 72050000 		.4byte	.LASF78
 18314 3732 05       		.byte	0x5
 18315 3733 62       		.byte	0x62
 18316 3734 81000000 		.4byte	0x81
 18317 3738 05       		.uleb128 0x5
 18318 3739 03       		.byte	0x3
 18319 373a 00000000 		.4byte	producto2
 18320 373e 1E       		.uleb128 0x1e
 18321 373f 7C050000 		.4byte	.LASF79
 18322 3743 05       		.byte	0x5
 18323 3744 62       		.byte	0x62
 18324 3745 81000000 		.4byte	0x81
 18325 3749 05       		.uleb128 0x5
 18326 374a 03       		.byte	0x3
 18327 374b 00000000 		.4byte	producto3
 18328 374f 1E       		.uleb128 0x1e
 18329 3750 86050000 		.4byte	.LASF80
 18330 3754 05       		.byte	0x5
ARM GAS  C:\Users\diego\AppData\Local\Temp\ccNdDNY6.s 			page 365


 18331 3755 62       		.byte	0x62
 18332 3756 81000000 		.4byte	0x81
 18333 375a 05       		.uleb128 0x5
 18334 375b 03       		.byte	0x3
 18335 375c 00000000 		.4byte	producto4
 18336 3760 1E       		.uleb128 0x1e
 18337 3761 D1000000 		.4byte	.LASF81
 18338 3765 05       		.byte	0x5
 18339 3766 62       		.byte	0x62
 18340 3767 81000000 		.4byte	0x81
 18341 376b 05       		.uleb128 0x5
 18342 376c 03       		.byte	0x3
 18343 376d 00000000 		.4byte	producto1b
 18344 3771 1E       		.uleb128 0x1e
 18345 3772 A1010000 		.4byte	.LASF82
 18346 3776 05       		.byte	0x5
 18347 3777 62       		.byte	0x62
 18348 3778 81000000 		.4byte	0x81
 18349 377c 05       		.uleb128 0x5
 18350 377d 03       		.byte	0x3
 18351 377e 00000000 		.4byte	producto2b
 18352 3782 1E       		.uleb128 0x1e
 18353 3783 76020000 		.4byte	.LASF83
 18354 3787 05       		.byte	0x5
 18355 3788 62       		.byte	0x62
 18356 3789 81000000 		.4byte	0x81
 18357 378d 05       		.uleb128 0x5
 18358 378e 03       		.byte	0x3
 18359 378f 00000000 		.4byte	producto3b
 18360 3793 1E       		.uleb128 0x1e
 18361 3794 3F030000 		.4byte	.LASF84
 18362 3798 05       		.byte	0x5
 18363 3799 62       		.byte	0x62
 18364 379a 81000000 		.4byte	0x81
 18365 379e 05       		.uleb128 0x5
 18366 379f 03       		.byte	0x3
 18367 37a0 00000000 		.4byte	producto4b
 18368 37a4 1E       		.uleb128 0x1e
 18369 37a5 DC000000 		.4byte	.LASF85
 18370 37a9 05       		.byte	0x5
 18371 37aa 63       		.byte	0x63
 18372 37ab 81000000 		.4byte	0x81
 18373 37af 05       		.uleb128 0x5
 18374 37b0 03       		.byte	0x3
 18375 37b1 00000000 		.4byte	producto1c
 18376 37b5 1E       		.uleb128 0x1e
 18377 37b6 AC010000 		.4byte	.LASF86
 18378 37ba 05       		.byte	0x5
 18379 37bb 63       		.byte	0x63
 18380 37bc 81000000 		.4byte	0x81
 18381 37c0 05       		.uleb128 0x5
 18382 37c1 03       		.byte	0x3
 18383 37c2 00000000 		.4byte	producto2c
 18384 37c6 1E       		.uleb128 0x1e
 18385 37c7 81020000 		.4byte	.LASF87
 18386 37cb 05       		.byte	0x5
 18387 37cc 63       		.byte	0x63
ARM GAS  C:\Users\diego\AppData\Local\Temp\ccNdDNY6.s 			page 366


 18388 37cd 81000000 		.4byte	0x81
 18389 37d1 05       		.uleb128 0x5
 18390 37d2 03       		.byte	0x3
 18391 37d3 00000000 		.4byte	producto3c
 18392 37d7 1E       		.uleb128 0x1e
 18393 37d8 4A030000 		.4byte	.LASF88
 18394 37dc 05       		.byte	0x5
 18395 37dd 63       		.byte	0x63
 18396 37de 81000000 		.4byte	0x81
 18397 37e2 05       		.uleb128 0x5
 18398 37e3 03       		.byte	0x3
 18399 37e4 00000000 		.4byte	producto4c
 18400 37e8 1E       		.uleb128 0x1e
 18401 37e9 E7000000 		.4byte	.LASF89
 18402 37ed 05       		.byte	0x5
 18403 37ee 63       		.byte	0x63
 18404 37ef 81000000 		.4byte	0x81
 18405 37f3 05       		.uleb128 0x5
 18406 37f4 03       		.byte	0x3
 18407 37f5 00000000 		.4byte	producto1d
 18408 37f9 1E       		.uleb128 0x1e
 18409 37fa B7010000 		.4byte	.LASF90
 18410 37fe 05       		.byte	0x5
 18411 37ff 63       		.byte	0x63
 18412 3800 81000000 		.4byte	0x81
 18413 3804 05       		.uleb128 0x5
 18414 3805 03       		.byte	0x3
 18415 3806 00000000 		.4byte	producto2d
 18416 380a 1E       		.uleb128 0x1e
 18417 380b 8C020000 		.4byte	.LASF91
 18418 380f 05       		.byte	0x5
 18419 3810 63       		.byte	0x63
 18420 3811 81000000 		.4byte	0x81
 18421 3815 05       		.uleb128 0x5
 18422 3816 03       		.byte	0x3
 18423 3817 00000000 		.4byte	producto3d
 18424 381b 1E       		.uleb128 0x1e
 18425 381c 55030000 		.4byte	.LASF92
 18426 3820 05       		.byte	0x5
 18427 3821 63       		.byte	0x63
 18428 3822 81000000 		.4byte	0x81
 18429 3826 05       		.uleb128 0x5
 18430 3827 03       		.byte	0x3
 18431 3828 00000000 		.4byte	producto4d
 18432 382c 09       		.uleb128 0x9
 18433 382d 81000000 		.4byte	0x81
 18434 3831 3C380000 		.4byte	0x383c
 18435 3835 0A       		.uleb128 0xa
 18436 3836 BA000000 		.4byte	0xba
 18437 383a 3F       		.byte	0x3f
 18438 383b 00       		.byte	0
 18439 383c 1E       		.uleb128 0x1e
 18440 383d 05020000 		.4byte	.LASF93
 18441 3841 05       		.byte	0x5
 18442 3842 64       		.byte	0x64
 18443 3843 2C380000 		.4byte	0x382c
 18444 3847 05       		.uleb128 0x5
ARM GAS  C:\Users\diego\AppData\Local\Temp\ccNdDNY6.s 			page 367


 18445 3848 03       		.byte	0x3
 18446 3849 00000000 		.4byte	buffer_i2c
 18447 384d 1E       		.uleb128 0x1e
 18448 384e D4010000 		.4byte	.LASF94
 18449 3852 05       		.byte	0x5
 18450 3853 65       		.byte	0x65
 18451 3854 A2330000 		.4byte	0x33a2
 18452 3858 05       		.uleb128 0x5
 18453 3859 03       		.byte	0x3
 18454 385a 00000000 		.4byte	resultado
 18455 385e 1E       		.uleb128 0x1e
 18456 385f 67020000 		.4byte	.LASF95
 18457 3863 05       		.byte	0x5
 18458 3864 66       		.byte	0x66
 18459 3865 81000000 		.4byte	0x81
 18460 3869 05       		.uleb128 0x5
 18461 386a 03       		.byte	0x3
 18462 386b 00000000 		.4byte	teclado
 18463 386f 1E       		.uleb128 0x1e
 18464 3870 64000000 		.4byte	.LASF96
 18465 3874 05       		.byte	0x5
 18466 3875 66       		.byte	0x66
 18467 3876 81000000 		.4byte	0x81
 18468 387a 05       		.uleb128 0x5
 18469 387b 03       		.byte	0x3
 18470 387c 00000000 		.4byte	teclado2
 18471 3880 1E       		.uleb128 0x1e
 18472 3881 D7040000 		.4byte	.LASF97
 18473 3885 05       		.byte	0x5
 18474 3886 67       		.byte	0x67
 18475 3887 81000000 		.4byte	0x81
 18476 388b 05       		.uleb128 0x5
 18477 388c 03       		.byte	0x3
 18478 388d 00000000 		.4byte	ppux10
 18479 3891 1E       		.uleb128 0x1e
 18480 3892 D7050000 		.4byte	.LASF98
 18481 3896 05       		.byte	0x5
 18482 3897 68       		.byte	0x68
 18483 3898 01030000 		.4byte	0x301
 18484 389c 05       		.uleb128 0x5
 18485 389d 03       		.byte	0x3
 18486 389e 00000000 		.4byte	bandera
 18487 38a2 1E       		.uleb128 0x1e
 18488 38a3 2B070000 		.4byte	.LASF99
 18489 38a7 05       		.byte	0x5
 18490 38a8 69       		.byte	0x69
 18491 38a9 01030000 		.4byte	0x301
 18492 38ad 05       		.uleb128 0x5
 18493 38ae 03       		.byte	0x3
 18494 38af 00000000 		.4byte	tipo_imp
 18495 38b3 1E       		.uleb128 0x1e
 18496 38b4 FB060000 		.4byte	.LASF100
 18497 38b8 05       		.byte	0x5
 18498 38b9 6A       		.byte	0x6a
 18499 38ba 81000000 		.4byte	0x81
 18500 38be 05       		.uleb128 0x5
 18501 38bf 03       		.byte	0x3
ARM GAS  C:\Users\diego\AppData\Local\Temp\ccNdDNY6.s 			page 368


 18502 38c0 00000000 		.4byte	decimalV
 18503 38c4 1E       		.uleb128 0x1e
 18504 38c5 8E010000 		.4byte	.LASF101
 18505 38c9 05       		.byte	0x5
 18506 38ca 6B       		.byte	0x6b
 18507 38cb 81000000 		.4byte	0x81
 18508 38cf 05       		.uleb128 0x5
 18509 38d0 03       		.byte	0x3
 18510 38d1 00000000 		.4byte	decimalD
 18511 38d5 09       		.uleb128 0x9
 18512 38d6 81000000 		.4byte	0x81
 18513 38da E5380000 		.4byte	0x38e5
 18514 38de 0A       		.uleb128 0xa
 18515 38df BA000000 		.4byte	0xba
 18516 38e3 05       		.byte	0x5
 18517 38e4 00       		.byte	0
 18518 38e5 1E       		.uleb128 0x1e
 18519 38e6 98030000 		.4byte	.LASF102
 18520 38ea 05       		.byte	0x5
 18521 38eb 6C       		.byte	0x6c
 18522 38ec D5380000 		.4byte	0x38d5
 18523 38f0 05       		.uleb128 0x5
 18524 38f1 03       		.byte	0x3
 18525 38f2 00000000 		.4byte	fecha_corte
 18526 38f6 1E       		.uleb128 0x1e
 18527 38f7 02050000 		.4byte	.LASF103
 18528 38fb 05       		.byte	0x5
 18529 38fc 6D       		.byte	0x6d
 18530 38fd 81000000 		.4byte	0x81
 18531 3901 05       		.uleb128 0x5
 18532 3902 03       		.byte	0x3
 18533 3903 00000000 		.4byte	pos_ibutton
 18534 3907 1E       		.uleb128 0x1e
 18535 3908 E5040000 		.4byte	.LASF104
 18536 390c 05       		.byte	0x5
 18537 390d 6E       		.byte	0x6e
 18538 390e 81000000 		.4byte	0x81
 18539 3912 05       		.uleb128 0x5
 18540 3913 03       		.byte	0x3
 18541 3914 00000000 		.4byte	crc_total
 18542 3918 1E       		.uleb128 0x1e
 18543 3919 D4030000 		.4byte	.LASF105
 18544 391d 05       		.byte	0x5
 18545 391e 6F       		.byte	0x6f
 18546 391f 01030000 		.4byte	0x301
 18547 3923 05       		.uleb128 0x5
 18548 3924 03       		.byte	0x3
 18549 3925 00000000 		.4byte	print1
 18550 3929 1E       		.uleb128 0x1e
 18551 392a DB030000 		.4byte	.LASF106
 18552 392e 05       		.byte	0x5
 18553 392f 6F       		.byte	0x6f
 18554 3930 01030000 		.4byte	0x301
 18555 3934 05       		.uleb128 0x5
 18556 3935 03       		.byte	0x3
 18557 3936 00000000 		.4byte	print2
 18558 393a 1E       		.uleb128 0x1e
ARM GAS  C:\Users\diego\AppData\Local\Temp\ccNdDNY6.s 			page 369


 18559 393b 21050000 		.4byte	.LASF107
 18560 393f 05       		.byte	0x5
 18561 3940 70       		.byte	0x70
 18562 3941 01030000 		.4byte	0x301
 18563 3945 05       		.uleb128 0x5
 18564 3946 03       		.byte	0x3
 18565 3947 00000000 		.4byte	copia_recibo
 18566 394b 1E       		.uleb128 0x1e
 18567 394c 43000000 		.4byte	.LASF108
 18568 3950 05       		.byte	0x5
 18569 3951 71       		.byte	0x71
 18570 3952 01030000 		.4byte	0x301
 18571 3956 05       		.uleb128 0x5
 18572 3957 03       		.byte	0x3
 18573 3958 00000000 		.4byte	copia_recibo2
 18574 395c 1E       		.uleb128 0x1e
 18575 395d 60030000 		.4byte	.LASF109
 18576 3961 05       		.byte	0x5
 18577 3962 72       		.byte	0x72
 18578 3963 D5380000 		.4byte	0x38d5
 18579 3967 05       		.uleb128 0x5
 18580 3968 03       		.byte	0x3
 18581 3969 00000000 		.4byte	id_venta
 18582 396d 1E       		.uleb128 0x1e
 18583 396e 5E040000 		.4byte	.LASF110
 18584 3972 05       		.byte	0x5
 18585 3973 73       		.byte	0x73
 18586 3974 81000000 		.4byte	0x81
 18587 3978 05       		.uleb128 0x5
 18588 3979 03       		.byte	0x3
 18589 397a 00000000 		.4byte	nombreproducto
 18590 397e 09       		.uleb128 0x9
 18591 397f 81000000 		.4byte	0x81
 18592 3983 8E390000 		.4byte	0x398e
 18593 3987 0A       		.uleb128 0xa
 18594 3988 BA000000 		.4byte	0xba
 18595 398c 0A       		.byte	0xa
 18596 398d 00       		.byte	0
 18597 398e 1E       		.uleb128 0x1e
 18598 398f F9000000 		.4byte	.LASF111
 18599 3993 05       		.byte	0x5
 18600 3994 74       		.byte	0x74
 18601 3995 7E390000 		.4byte	0x397e
 18602 3999 05       		.uleb128 0x5
 18603 399a 03       		.byte	0x3
 18604 399b 00000000 		.4byte	producto1n
 18605 399f 1E       		.uleb128 0x1e
 18606 39a0 DE010000 		.4byte	.LASF112
 18607 39a4 05       		.byte	0x5
 18608 39a5 75       		.byte	0x75
 18609 39a6 7E390000 		.4byte	0x397e
 18610 39aa 05       		.uleb128 0x5
 18611 39ab 03       		.byte	0x3
 18612 39ac 00000000 		.4byte	producto2n
 18613 39b0 1E       		.uleb128 0x1e
 18614 39b1 B9020000 		.4byte	.LASF113
 18615 39b5 05       		.byte	0x5
ARM GAS  C:\Users\diego\AppData\Local\Temp\ccNdDNY6.s 			page 370


 18616 39b6 76       		.byte	0x76
 18617 39b7 7E390000 		.4byte	0x397e
 18618 39bb 05       		.uleb128 0x5
 18619 39bc 03       		.byte	0x3
 18620 39bd 00000000 		.4byte	producto3n
 18621 39c1 1E       		.uleb128 0x1e
 18622 39c2 E9010000 		.4byte	.LASF114
 18623 39c6 05       		.byte	0x5
 18624 39c7 77       		.byte	0x77
 18625 39c8 7E390000 		.4byte	0x397e
 18626 39cc 05       		.uleb128 0x5
 18627 39cd 03       		.byte	0x3
 18628 39ce 00000000 		.4byte	producto4n
 18629 39d2 1E       		.uleb128 0x1e
 18630 39d3 F9040000 		.4byte	.LASF115
 18631 39d7 05       		.byte	0x5
 18632 39d8 78       		.byte	0x78
 18633 39d9 81000000 		.4byte	0x81
 18634 39dd 05       		.uleb128 0x5
 18635 39de 03       		.byte	0x3
 18636 39df 00000000 		.4byte	a_copias
 18637 39e3 09       		.uleb128 0x9
 18638 39e4 81000000 		.4byte	0x81
 18639 39e8 F3390000 		.4byte	0x39f3
 18640 39ec 0A       		.uleb128 0xa
 18641 39ed BA000000 		.4byte	0xba
 18642 39f1 00       		.byte	0
 18643 39f2 00       		.byte	0
 18644 39f3 1E       		.uleb128 0x1e
 18645 39f4 F6020000 		.4byte	.LASF116
 18646 39f8 05       		.byte	0x5
 18647 39f9 79       		.byte	0x79
 18648 39fa E3390000 		.4byte	0x39e3
 18649 39fe 05       		.uleb128 0x5
 18650 39ff 03       		.byte	0x3
 18651 3a00 00000000 		.4byte	n_copias
 18652 3a04 1E       		.uleb128 0x1e
 18653 3a05 FF050000 		.4byte	.LASF117
 18654 3a09 05       		.byte	0x5
 18655 3a0a 7A       		.byte	0x7a
 18656 3a0b 81000000 		.4byte	0x81
 18657 3a0f 05       		.uleb128 0x5
 18658 3a10 03       		.byte	0x3
 18659 3a11 00000000 		.4byte	no_imprime
 18660 3a15 1E       		.uleb128 0x1e
 18661 3a16 F3050000 		.4byte	.LASF118
 18662 3a1a 05       		.byte	0x5
 18663 3a1b 7B       		.byte	0x7b
 18664 3a1c 81000000 		.4byte	0x81
 18665 3a20 05       		.uleb128 0x5
 18666 3a21 03       		.byte	0x3
 18667 3a22 00000000 		.4byte	no_imprime2
 18668 3a26 1E       		.uleb128 0x1e
 18669 3a27 D0040000 		.4byte	.LASF119
 18670 3a2b 05       		.byte	0x5
 18671 3a2c 7C       		.byte	0x7c
 18672 3a2d 81000000 		.4byte	0x81
ARM GAS  C:\Users\diego\AppData\Local\Temp\ccNdDNY6.s 			page 371


 18673 3a31 05       		.uleb128 0x5
 18674 3a32 03       		.byte	0x3
 18675 3a33 00000000 		.4byte	imagen
 18676 3a37 1E       		.uleb128 0x1e
 18677 3a38 AF030000 		.4byte	.LASF120
 18678 3a3c 05       		.byte	0x5
 18679 3a3d 7D       		.byte	0x7d
 18680 3a3e 81000000 		.4byte	0x81
 18681 3a42 05       		.uleb128 0x5
 18682 3a43 03       		.byte	0x3
 18683 3a44 00000000 		.4byte	flujo_pos
 18684 3a48 1E       		.uleb128 0x1e
 18685 3a49 FF020000 		.4byte	.LASF121
 18686 3a4d 05       		.byte	0x5
 18687 3a4e 7E       		.byte	0x7e
 18688 3a4f 81000000 		.4byte	0x81
 18689 3a53 05       		.uleb128 0x5
 18690 3a54 03       		.byte	0x3
 18691 3a55 00000000 		.4byte	flujo_pos2
 18692 3a59 1E       		.uleb128 0x1e
 18693 3a5a 0A030000 		.4byte	.LASF122
 18694 3a5e 05       		.byte	0x5
 18695 3a5f 7F       		.byte	0x7f
 18696 3a60 81000000 		.4byte	0x81
 18697 3a64 05       		.uleb128 0x5
 18698 3a65 03       		.byte	0x3
 18699 3a66 00000000 		.4byte	flujo_pos3
 18700 3a6a 1E       		.uleb128 0x1e
 18701 3a6b 15030000 		.4byte	.LASF123
 18702 3a6f 05       		.byte	0x5
 18703 3a70 80       		.byte	0x80
 18704 3a71 81000000 		.4byte	0x81
 18705 3a75 05       		.uleb128 0x5
 18706 3a76 03       		.byte	0x3
 18707 3a77 00000000 		.4byte	flujo_pos4
 18708 3a7b 1E       		.uleb128 0x1e
 18709 3a7c 14010000 		.4byte	.LASF124
 18710 3a80 05       		.byte	0x5
 18711 3a81 81       		.byte	0x81
 18712 3a82 81000000 		.4byte	0x81
 18713 3a86 05       		.uleb128 0x5
 18714 3a87 03       		.byte	0x3
 18715 3a88 00000000 		.4byte	estado_lcd1
 18716 3a8c 1E       		.uleb128 0x1e
 18717 3a8d 20010000 		.4byte	.LASF125
 18718 3a91 05       		.byte	0x5
 18719 3a92 82       		.byte	0x82
 18720 3a93 81000000 		.4byte	0x81
 18721 3a97 05       		.uleb128 0x5
 18722 3a98 03       		.byte	0x3
 18723 3a99 00000000 		.4byte	estado_lcd2
 18724 3a9d 1E       		.uleb128 0x1e
 18725 3a9e A4020000 		.4byte	.LASF126
 18726 3aa2 05       		.byte	0x5
 18727 3aa3 83       		.byte	0x83
 18728 3aa4 81000000 		.4byte	0x81
 18729 3aa8 05       		.uleb128 0x5
ARM GAS  C:\Users\diego\AppData\Local\Temp\ccNdDNY6.s 			page 372


 18730 3aa9 03       		.byte	0x3
 18731 3aaa 00000000 		.4byte	seleccion_pos
 18732 3aae 1E       		.uleb128 0x1e
 18733 3aaf E7020000 		.4byte	.LASF127
 18734 3ab3 05       		.byte	0x5
 18735 3ab4 84       		.byte	0x84
 18736 3ab5 81000000 		.4byte	0x81
 18737 3ab9 05       		.uleb128 0x5
 18738 3aba 03       		.byte	0x3
 18739 3abb 00000000 		.4byte	seleccion_pos2
 18740 3abf 1E       		.uleb128 0x1e
 18741 3ac0 97020000 		.4byte	.LASF128
 18742 3ac4 05       		.byte	0x5
 18743 3ac5 85       		.byte	0x85
 18744 3ac6 81000000 		.4byte	0x81
 18745 3aca 05       		.uleb128 0x5
 18746 3acb 03       		.byte	0x3
 18747 3acc 00000000 		.4byte	venta_activa
 18748 3ad0 1E       		.uleb128 0x1e
 18749 3ad1 34020000 		.4byte	.LASF129
 18750 3ad5 05       		.byte	0x5
 18751 3ad6 85       		.byte	0x85
 18752 3ad7 81000000 		.4byte	0x81
 18753 3adb 05       		.uleb128 0x5
 18754 3adc 03       		.byte	0x3
 18755 3add 00000000 		.4byte	venta_activa3
 18756 3ae1 1E       		.uleb128 0x1e
 18757 3ae2 26020000 		.4byte	.LASF130
 18758 3ae6 05       		.byte	0x5
 18759 3ae7 86       		.byte	0x86
 18760 3ae8 81000000 		.4byte	0x81
 18761 3aec 05       		.uleb128 0x5
 18762 3aed 03       		.byte	0x3
 18763 3aee 00000000 		.4byte	venta_activa2
 18764 3af2 1E       		.uleb128 0x1e
 18765 3af3 42020000 		.4byte	.LASF131
 18766 3af7 05       		.byte	0x5
 18767 3af8 86       		.byte	0x86
 18768 3af9 81000000 		.4byte	0x81
 18769 3afd 05       		.uleb128 0x5
 18770 3afe 03       		.byte	0x3
 18771 3aff 00000000 		.4byte	venta_activa4
 18772 3b03 1E       		.uleb128 0x1e
 18773 3b04 79040000 		.4byte	.LASF132
 18774 3b08 05       		.byte	0x5
 18775 3b09 87       		.byte	0x87
 18776 3b0a 8D000000 		.4byte	0x8d
 18777 3b0e 05       		.uleb128 0x5
 18778 3b0f 03       		.byte	0x3
 18779 3b10 00000000 		.4byte	id_corte
 18780 3b14 1E       		.uleb128 0x1e
 18781 3b15 82040000 		.4byte	.LASF133
 18782 3b19 05       		.byte	0x5
 18783 3b1a 8B       		.byte	0x8b
 18784 3b1b 253B0000 		.4byte	0x3b25
 18785 3b1f 05       		.uleb128 0x5
 18786 3b20 03       		.byte	0x3
ARM GAS  C:\Users\diego\AppData\Local\Temp\ccNdDNY6.s 			page 373


 18787 3b21 00000000 		.4byte	no_venta
 18788 3b25 0C       		.uleb128 0xc
 18789 3b26 68000000 		.4byte	0x68
 18790 3b2a 1E       		.uleb128 0x1e
 18791 3b2b 99040000 		.4byte	.LASF134
 18792 3b2f 05       		.byte	0x5
 18793 3b30 A7       		.byte	0xa7
 18794 3b31 C1000000 		.4byte	0xc1
 18795 3b35 05       		.uleb128 0x5
 18796 3b36 03       		.byte	0x3
 18797 3b37 00000000 		.4byte	Buffer_LCD1
 18798 3b3b 1E       		.uleb128 0x1e
 18799 3b3c 07040000 		.4byte	.LASF135
 18800 3b40 05       		.byte	0x5
 18801 3b41 A8       		.byte	0xa8
 18802 3b42 C1000000 		.4byte	0xc1
 18803 3b46 05       		.uleb128 0x5
 18804 3b47 03       		.byte	0x3
 18805 3b48 00000000 		.4byte	Buffer_LCD2
 18806 3b4c 1E       		.uleb128 0x1e
 18807 3b4d AC040000 		.4byte	.LASF136
 18808 3b51 05       		.byte	0x5
 18809 3b52 A9       		.byte	0xa9
 18810 3b53 C1000000 		.4byte	0xc1
 18811 3b57 05       		.uleb128 0x5
 18812 3b58 03       		.byte	0x3
 18813 3b59 00000000 		.4byte	Buffer_LCD3
 18814 3b5d 1E       		.uleb128 0x1e
 18815 3b5e B8040000 		.4byte	.LASF137
 18816 3b62 05       		.byte	0x5
 18817 3b63 AA       		.byte	0xaa
 18818 3b64 C1000000 		.4byte	0xc1
 18819 3b68 05       		.uleb128 0x5
 18820 3b69 03       		.byte	0x3
 18821 3b6a 00000000 		.4byte	Buffer_LCD4
 18822 3b6e 1E       		.uleb128 0x1e
 18823 3b6f 90050000 		.4byte	.LASF138
 18824 3b73 05       		.byte	0x5
 18825 3b74 AC       		.byte	0xac
 18826 3b75 81000000 		.4byte	0x81
 18827 3b79 05       		.uleb128 0x5
 18828 3b7a 03       		.byte	0x3
 18829 3b7b 00000000 		.4byte	estado_0
 18830 3b7f 1F       		.uleb128 0x1f
 18831 3b80 6100     		.ascii	"a\000"
 18832 3b82 05       		.byte	0x5
 18833 3b83 B8       		.byte	0xb8
 18834 3b84 A8010000 		.4byte	0x1a8
 18835 3b88 05       		.uleb128 0x5
 18836 3b89 03       		.byte	0x3
 18837 3b8a 00000000 		.4byte	a
 18838 3b8e 1F       		.uleb128 0x1f
 18839 3b8f 6200     		.ascii	"b\000"
 18840 3b91 05       		.byte	0x5
 18841 3b92 B9       		.byte	0xb9
 18842 3b93 A8010000 		.4byte	0x1a8
 18843 3b97 05       		.uleb128 0x5
ARM GAS  C:\Users\diego\AppData\Local\Temp\ccNdDNY6.s 			page 374


 18844 3b98 03       		.byte	0x3
 18845 3b99 00000000 		.4byte	b
 18846 3b9d 1F       		.uleb128 0x1f
 18847 3b9e 6300     		.ascii	"c\000"
 18848 3ba0 05       		.byte	0x5
 18849 3ba1 BA       		.byte	0xba
 18850 3ba2 A8010000 		.4byte	0x1a8
 18851 3ba6 05       		.uleb128 0x5
 18852 3ba7 03       		.byte	0x3
 18853 3ba8 00000000 		.4byte	c
 18854 3bac 1F       		.uleb128 0x1f
 18855 3bad 6400     		.ascii	"d\000"
 18856 3baf 05       		.byte	0x5
 18857 3bb0 BB       		.byte	0xbb
 18858 3bb1 A8010000 		.4byte	0x1a8
 18859 3bb5 05       		.uleb128 0x5
 18860 3bb6 03       		.byte	0x3
 18861 3bb7 00000000 		.4byte	d
 18862 3bbb 1F       		.uleb128 0x1f
 18863 3bbc 7800     		.ascii	"x\000"
 18864 3bbe 05       		.byte	0x5
 18865 3bbf D1       		.byte	0xd1
 18866 3bc0 99000000 		.4byte	0x99
 18867 3bc4 05       		.uleb128 0x5
 18868 3bc5 03       		.byte	0x3
 18869 3bc6 00000000 		.4byte	x
 18870 3bca 1F       		.uleb128 0x1f
 18871 3bcb 7900     		.ascii	"y\000"
 18872 3bcd 05       		.byte	0x5
 18873 3bce D1       		.byte	0xd1
 18874 3bcf 99000000 		.4byte	0x99
 18875 3bd3 05       		.uleb128 0x5
 18876 3bd4 03       		.byte	0x3
 18877 3bd5 00000000 		.4byte	y
 18878 3bd9 1F       		.uleb128 0x1f
 18879 3bda 7A00     		.ascii	"z\000"
 18880 3bdc 05       		.byte	0x5
 18881 3bdd D1       		.byte	0xd1
 18882 3bde 99000000 		.4byte	0x99
 18883 3be2 05       		.uleb128 0x5
 18884 3be3 03       		.byte	0x3
 18885 3be4 00000000 		.4byte	z
 18886 3be8 1F       		.uleb128 0x1f
 18887 3be9 7700     		.ascii	"w\000"
 18888 3beb 05       		.byte	0x5
 18889 3bec D1       		.byte	0xd1
 18890 3bed 99000000 		.4byte	0x99
 18891 3bf1 05       		.uleb128 0x5
 18892 3bf2 03       		.byte	0x3
 18893 3bf3 00000000 		.4byte	w
 18894 3bf7 09       		.uleb128 0x9
 18895 3bf8 81000000 		.4byte	0x81
 18896 3bfc 0D3C0000 		.4byte	0x3c0d
 18897 3c00 0A       		.uleb128 0xa
 18898 3c01 BA000000 		.4byte	0xba
 18899 3c05 01       		.byte	0x1
 18900 3c06 0A       		.uleb128 0xa
ARM GAS  C:\Users\diego\AppData\Local\Temp\ccNdDNY6.s 			page 375


 18901 3c07 BA000000 		.4byte	0xba
 18902 3c0b C7       		.byte	0xc7
 18903 3c0c 00       		.byte	0
 18904 3c0d 1E       		.uleb128 0x1e
 18905 3c0e 82000000 		.4byte	.LASF139
 18906 3c12 05       		.byte	0x5
 18907 3c13 D2       		.byte	0xd2
 18908 3c14 F73B0000 		.4byte	0x3bf7
 18909 3c18 05       		.uleb128 0x5
 18910 3c19 03       		.byte	0x3
 18911 3c1a 00000000 		.4byte	modulo
 18912 3c1e 1E       		.uleb128 0x1e
 18913 3c1f F2000000 		.4byte	.LASF140
 18914 3c23 05       		.byte	0x5
 18915 3c24 D3       		.byte	0xd3
 18916 3c25 81000000 		.4byte	0x81
 18917 3c29 05       		.uleb128 0x5
 18918 3c2a 03       		.byte	0x3
 18919 3c2b 00000000 		.4byte	grado1
 18920 3c2f 1E       		.uleb128 0x1e
 18921 3c30 6D000000 		.4byte	.LASF141
 18922 3c34 05       		.byte	0x5
 18923 3c35 D3       		.byte	0xd3
 18924 3c36 81000000 		.4byte	0x81
 18925 3c3a 05       		.uleb128 0x5
 18926 3c3b 03       		.byte	0x3
 18927 3c3c 00000000 		.4byte	grado2
 18928 3c40 1E       		.uleb128 0x1e
 18929 3c41 74000000 		.4byte	.LASF142
 18930 3c45 05       		.byte	0x5
 18931 3c46 D3       		.byte	0xd3
 18932 3c47 81000000 		.4byte	0x81
 18933 3c4b 05       		.uleb128 0x5
 18934 3c4c 03       		.byte	0x3
 18935 3c4d 00000000 		.4byte	grado3
 18936 3c51 1E       		.uleb128 0x1e
 18937 3c52 7B000000 		.4byte	.LASF143
 18938 3c56 05       		.byte	0x5
 18939 3c57 D3       		.byte	0xd3
 18940 3c58 81000000 		.4byte	0x81
 18941 3c5c 05       		.uleb128 0x5
 18942 3c5d 03       		.byte	0x3
 18943 3c5e 00000000 		.4byte	grado4
 18944 3c62 1E       		.uleb128 0x1e
 18945 3c63 21040000 		.4byte	.LASF43
 18946 3c67 05       		.byte	0x5
 18947 3c68 D3       		.byte	0xd3
 18948 3c69 81000000 		.4byte	0x81
 18949 3c6d 05       		.uleb128 0x5
 18950 3c6e 03       		.byte	0x3
 18951 3c6f 00000000 		.4byte	producto
 18952 3c73 1E       		.uleb128 0x1e
 18953 3c74 3D070000 		.4byte	.LASF144
 18954 3c78 05       		.byte	0x5
 18955 3c79 D5       		.byte	0xd5
 18956 3c7a 0C020000 		.4byte	0x20c
 18957 3c7e 05       		.uleb128 0x5
ARM GAS  C:\Users\diego\AppData\Local\Temp\ccNdDNY6.s 			page 376


 18958 3c7f 03       		.byte	0x3
 18959 3c80 00000000 		.4byte	rventa
 18960 3c84 1E       		.uleb128 0x1e
 18961 3c85 86010000 		.4byte	.LASF145
 18962 3c89 05       		.byte	0x5
 18963 3c8a D6       		.byte	0xd6
 18964 3c8b 0C020000 		.4byte	0x20c
 18965 3c8f 05       		.uleb128 0x5
 18966 3c90 03       		.byte	0x3
 18967 3c91 00000000 		.4byte	rventa2
 18968 3c95 1E       		.uleb128 0x1e
 18969 3c96 B2020000 		.4byte	.LASF146
 18970 3c9a 01       		.byte	0x1
 18971 3c9b 30       		.byte	0x30
 18972 3c9c D5380000 		.4byte	0x38d5
 18973 3ca0 05       		.uleb128 0x5
 18974 3ca1 03       		.byte	0x3
 18975 3ca2 00000000 		.4byte	msn_tc
 18976 3ca6 1E       		.uleb128 0x1e
 18977 3ca7 72030000 		.4byte	.LASF147
 18978 3cab 01       		.byte	0x1
 18979 3cac 31       		.byte	0x31
 18980 3cad F1020000 		.4byte	0x2f1
 18981 3cb1 05       		.uleb128 0x5
 18982 3cb2 03       		.byte	0x3
 18983 3cb3 00000000 		.4byte	msn_lecact
 18984 3cb7 09       		.uleb128 0x9
 18985 3cb8 81000000 		.4byte	0x81
 18986 3cbc C73C0000 		.4byte	0x3cc7
 18987 3cc0 0A       		.uleb128 0xa
 18988 3cc1 BA000000 		.4byte	0xba
 18989 3cc5 10       		.byte	0x10
 18990 3cc6 00       		.byte	0
 18991 3cc7 1E       		.uleb128 0x1e
 18992 3cc8 FA010000 		.4byte	.LASF148
 18993 3ccc 01       		.byte	0x1
 18994 3ccd 32       		.byte	0x32
 18995 3cce B73C0000 		.4byte	0x3cb7
 18996 3cd2 05       		.uleb128 0x5
 18997 3cd3 03       		.byte	0x3
 18998 3cd4 00000000 		.4byte	msn_lecaan
 18999 3cd8 1E       		.uleb128 0x1e
 19000 3cd9 C8030000 		.4byte	.LASF149
 19001 3cdd 01       		.byte	0x1
 19002 3cde 33       		.byte	0x33
 19003 3cdf F4340000 		.4byte	0x34f4
 19004 3ce3 05       		.uleb128 0x5
 19005 3ce4 03       		.byte	0x3
 19006 3ce5 00000000 		.4byte	msn_tventas
 19007 3ce9 1E       		.uleb128 0x1e
 19008 3cea 39010000 		.4byte	.LASF150
 19009 3cee 01       		.byte	0x1
 19010 3cef 34       		.byte	0x34
 19011 3cf0 F1020000 		.4byte	0x2f1
 19012 3cf4 05       		.uleb128 0x5
 19013 3cf5 03       		.byte	0x3
 19014 3cf6 00000000 		.4byte	msn_totalcero
ARM GAS  C:\Users\diego\AppData\Local\Temp\ccNdDNY6.s 			page 377


 19015 3cfa 20       		.uleb128 0x20
 19016 3cfb EA060000 		.4byte	.LASF151
 19017 3cff 06       		.byte	0x6
 19018 3d00 9F       		.byte	0x9f
 19019 3d01 0B3D0000 		.4byte	0x3d0b
 19020 3d05 21       		.uleb128 0x21
 19021 3d06 81000000 		.4byte	0x81
 19022 3d0a 00       		.byte	0
 19023 3d0b 20       		.uleb128 0x20
 19024 3d0c B9030000 		.4byte	.LASF152
 19025 3d10 08       		.byte	0x8
 19026 3d11 77       		.byte	0x77
 19027 3d12 1C3D0000 		.4byte	0x3d1c
 19028 3d16 21       		.uleb128 0x21
 19029 3d17 99000000 		.4byte	0x99
 19030 3d1b 00       		.byte	0
 19031 3d1c 22       		.uleb128 0x22
 19032 3d1d 5C010000 		.4byte	.LASF153
 19033 3d21 06       		.byte	0x6
 19034 3d22 8A       		.byte	0x8a
 19035 3d23 8D000000 		.4byte	0x8d
 19036 3d27 23       		.uleb128 0x23
 19037 3d28 E8030000 		.4byte	.LASF164
 19038 3d2c 06       		.byte	0x6
 19039 3d2d 8C       		.byte	0x8c
 19040 3d2e 22       		.uleb128 0x22
 19041 3d2f 4A040000 		.4byte	.LASF154
 19042 3d33 06       		.byte	0x6
 19043 3d34 86       		.byte	0x86
 19044 3d35 81000000 		.4byte	0x81
 19045 3d39 24       		.uleb128 0x24
 19046 3d3a 2C010000 		.4byte	.LASF155
 19047 3d3e 09       		.byte	0x9
 19048 3d3f 25       		.byte	0x25
 19049 3d40 81000000 		.4byte	0x81
 19050 3d44 533D0000 		.4byte	0x3d53
 19051 3d48 21       		.uleb128 0x21
 19052 3d49 8D000000 		.4byte	0x8d
 19053 3d4d 21       		.uleb128 0x21
 19054 3d4e EE340000 		.4byte	0x34ee
 19055 3d52 00       		.byte	0
 19056 3d53 24       		.uleb128 0x24
 19057 3d54 4A070000 		.4byte	.LASF156
 19058 3d58 09       		.byte	0x9
 19059 3d59 27       		.byte	0x27
 19060 3d5a 81000000 		.4byte	0x81
 19061 3d5e 6D3D0000 		.4byte	0x3d6d
 19062 3d62 21       		.uleb128 0x21
 19063 3d63 81000000 		.4byte	0x81
 19064 3d67 21       		.uleb128 0x21
 19065 3d68 81000000 		.4byte	0x81
 19066 3d6c 00       		.byte	0
 19067 3d6d 20       		.uleb128 0x20
 19068 3d6e 04070000 		.4byte	.LASF157
 19069 3d72 0A       		.byte	0xa
 19070 3d73 29       		.byte	0x29
 19071 3d74 833D0000 		.4byte	0x3d83
ARM GAS  C:\Users\diego\AppData\Local\Temp\ccNdDNY6.s 			page 378


 19072 3d78 21       		.uleb128 0x21
 19073 3d79 81000000 		.4byte	0x81
 19074 3d7d 21       		.uleb128 0x21
 19075 3d7e 81000000 		.4byte	0x81
 19076 3d82 00       		.byte	0
 19077 3d83 24       		.uleb128 0x24
 19078 3d84 C4040000 		.4byte	.LASF158
 19079 3d88 09       		.byte	0x9
 19080 3d89 26       		.byte	0x26
 19081 3d8a 81000000 		.4byte	0x81
 19082 3d8e 9D3D0000 		.4byte	0x3d9d
 19083 3d92 21       		.uleb128 0x21
 19084 3d93 8D000000 		.4byte	0x8d
 19085 3d97 21       		.uleb128 0x21
 19086 3d98 81000000 		.4byte	0x81
 19087 3d9c 00       		.byte	0
 19088 3d9d 20       		.uleb128 0x20
 19089 3d9e 7D030000 		.4byte	.LASF159
 19090 3da2 0A       		.byte	0xa
 19091 3da3 26       		.byte	0x26
 19092 3da4 AE3D0000 		.4byte	0x3dae
 19093 3da8 21       		.uleb128 0x21
 19094 3da9 81000000 		.4byte	0x81
 19095 3dad 00       		.byte	0
 19096 3dae 20       		.uleb128 0x20
 19097 3daf 10020000 		.4byte	.LASF160
 19098 3db3 0A       		.byte	0xa
 19099 3db4 28       		.byte	0x28
 19100 3db5 C93D0000 		.4byte	0x3dc9
 19101 3db9 21       		.uleb128 0x21
 19102 3dba 81000000 		.4byte	0x81
 19103 3dbe 21       		.uleb128 0x21
 19104 3dbf EE340000 		.4byte	0x34ee
 19105 3dc3 21       		.uleb128 0x21
 19106 3dc4 EE340000 		.4byte	0x34ee
 19107 3dc8 00       		.byte	0
 19108 3dc9 25       		.uleb128 0x25
 19109 3dca DF050000 		.4byte	.LASF165
 19110 3dce 0A       		.byte	0xa
 19111 3dcf 2A       		.byte	0x2a
 19112 3dd0 21       		.uleb128 0x21
 19113 3dd1 EE340000 		.4byte	0x34ee
 19114 3dd5 21       		.uleb128 0x21
 19115 3dd6 81000000 		.4byte	0x81
 19116 3dda 00       		.byte	0
 19117 3ddb 00       		.byte	0
 19118              		.section	.debug_abbrev,"",%progbits
 19119              	.Ldebug_abbrev0:
 19120 0000 01       		.uleb128 0x1
 19121 0001 11       		.uleb128 0x11
 19122 0002 01       		.byte	0x1
 19123 0003 25       		.uleb128 0x25
 19124 0004 0E       		.uleb128 0xe
 19125 0005 13       		.uleb128 0x13
 19126 0006 0B       		.uleb128 0xb
 19127 0007 03       		.uleb128 0x3
 19128 0008 0E       		.uleb128 0xe
ARM GAS  C:\Users\diego\AppData\Local\Temp\ccNdDNY6.s 			page 379


 19129 0009 1B       		.uleb128 0x1b
 19130 000a 0E       		.uleb128 0xe
 19131 000b 55       		.uleb128 0x55
 19132 000c 17       		.uleb128 0x17
 19133 000d 11       		.uleb128 0x11
 19134 000e 01       		.uleb128 0x1
 19135 000f 10       		.uleb128 0x10
 19136 0010 17       		.uleb128 0x17
 19137 0011 00       		.byte	0
 19138 0012 00       		.byte	0
 19139 0013 02       		.uleb128 0x2
 19140 0014 24       		.uleb128 0x24
 19141 0015 00       		.byte	0
 19142 0016 0B       		.uleb128 0xb
 19143 0017 0B       		.uleb128 0xb
 19144 0018 3E       		.uleb128 0x3e
 19145 0019 0B       		.uleb128 0xb
 19146 001a 03       		.uleb128 0x3
 19147 001b 0E       		.uleb128 0xe
 19148 001c 00       		.byte	0
 19149 001d 00       		.byte	0
 19150 001e 03       		.uleb128 0x3
 19151 001f 16       		.uleb128 0x16
 19152 0020 00       		.byte	0
 19153 0021 03       		.uleb128 0x3
 19154 0022 0E       		.uleb128 0xe
 19155 0023 3A       		.uleb128 0x3a
 19156 0024 0B       		.uleb128 0xb
 19157 0025 3B       		.uleb128 0x3b
 19158 0026 0B       		.uleb128 0xb
 19159 0027 49       		.uleb128 0x49
 19160 0028 13       		.uleb128 0x13
 19161 0029 00       		.byte	0
 19162 002a 00       		.byte	0
 19163 002b 04       		.uleb128 0x4
 19164 002c 24       		.uleb128 0x24
 19165 002d 00       		.byte	0
 19166 002e 0B       		.uleb128 0xb
 19167 002f 0B       		.uleb128 0xb
 19168 0030 3E       		.uleb128 0x3e
 19169 0031 0B       		.uleb128 0xb
 19170 0032 03       		.uleb128 0x3
 19171 0033 08       		.uleb128 0x8
 19172 0034 00       		.byte	0
 19173 0035 00       		.byte	0
 19174 0036 05       		.uleb128 0x5
 19175 0037 16       		.uleb128 0x16
 19176 0038 00       		.byte	0
 19177 0039 03       		.uleb128 0x3
 19178 003a 0E       		.uleb128 0xe
 19179 003b 3A       		.uleb128 0x3a
 19180 003c 0B       		.uleb128 0xb
 19181 003d 3B       		.uleb128 0x3b
 19182 003e 05       		.uleb128 0x5
 19183 003f 49       		.uleb128 0x49
 19184 0040 13       		.uleb128 0x13
 19185 0041 00       		.byte	0
ARM GAS  C:\Users\diego\AppData\Local\Temp\ccNdDNY6.s 			page 380


 19186 0042 00       		.byte	0
 19187 0043 06       		.uleb128 0x6
 19188 0044 13       		.uleb128 0x13
 19189 0045 01       		.byte	0x1
 19190 0046 03       		.uleb128 0x3
 19191 0047 0E       		.uleb128 0xe
 19192 0048 0B       		.uleb128 0xb
 19193 0049 0B       		.uleb128 0xb
 19194 004a 3A       		.uleb128 0x3a
 19195 004b 0B       		.uleb128 0xb
 19196 004c 3B       		.uleb128 0x3b
 19197 004d 0B       		.uleb128 0xb
 19198 004e 01       		.uleb128 0x1
 19199 004f 13       		.uleb128 0x13
 19200 0050 00       		.byte	0
 19201 0051 00       		.byte	0
 19202 0052 07       		.uleb128 0x7
 19203 0053 0D       		.uleb128 0xd
 19204 0054 00       		.byte	0
 19205 0055 03       		.uleb128 0x3
 19206 0056 0E       		.uleb128 0xe
 19207 0057 3A       		.uleb128 0x3a
 19208 0058 0B       		.uleb128 0xb
 19209 0059 3B       		.uleb128 0x3b
 19210 005a 0B       		.uleb128 0xb
 19211 005b 49       		.uleb128 0x49
 19212 005c 13       		.uleb128 0x13
 19213 005d 38       		.uleb128 0x38
 19214 005e 0B       		.uleb128 0xb
 19215 005f 00       		.byte	0
 19216 0060 00       		.byte	0
 19217 0061 08       		.uleb128 0x8
 19218 0062 0D       		.uleb128 0xd
 19219 0063 00       		.byte	0
 19220 0064 03       		.uleb128 0x3
 19221 0065 08       		.uleb128 0x8
 19222 0066 3A       		.uleb128 0x3a
 19223 0067 0B       		.uleb128 0xb
 19224 0068 3B       		.uleb128 0x3b
 19225 0069 0B       		.uleb128 0xb
 19226 006a 49       		.uleb128 0x49
 19227 006b 13       		.uleb128 0x13
 19228 006c 38       		.uleb128 0x38
 19229 006d 0B       		.uleb128 0xb
 19230 006e 00       		.byte	0
 19231 006f 00       		.byte	0
 19232 0070 09       		.uleb128 0x9
 19233 0071 01       		.uleb128 0x1
 19234 0072 01       		.byte	0x1
 19235 0073 49       		.uleb128 0x49
 19236 0074 13       		.uleb128 0x13
 19237 0075 01       		.uleb128 0x1
 19238 0076 13       		.uleb128 0x13
 19239 0077 00       		.byte	0
 19240 0078 00       		.byte	0
 19241 0079 0A       		.uleb128 0xa
 19242 007a 21       		.uleb128 0x21
ARM GAS  C:\Users\diego\AppData\Local\Temp\ccNdDNY6.s 			page 381


 19243 007b 00       		.byte	0
 19244 007c 49       		.uleb128 0x49
 19245 007d 13       		.uleb128 0x13
 19246 007e 2F       		.uleb128 0x2f
 19247 007f 0B       		.uleb128 0xb
 19248 0080 00       		.byte	0
 19249 0081 00       		.byte	0
 19250 0082 0B       		.uleb128 0xb
 19251 0083 13       		.uleb128 0x13
 19252 0084 01       		.byte	0x1
 19253 0085 03       		.uleb128 0x3
 19254 0086 08       		.uleb128 0x8
 19255 0087 0B       		.uleb128 0xb
 19256 0088 0B       		.uleb128 0xb
 19257 0089 3A       		.uleb128 0x3a
 19258 008a 0B       		.uleb128 0xb
 19259 008b 3B       		.uleb128 0x3b
 19260 008c 0B       		.uleb128 0xb
 19261 008d 01       		.uleb128 0x1
 19262 008e 13       		.uleb128 0x13
 19263 008f 00       		.byte	0
 19264 0090 00       		.byte	0
 19265 0091 0C       		.uleb128 0xc
 19266 0092 35       		.uleb128 0x35
 19267 0093 00       		.byte	0
 19268 0094 49       		.uleb128 0x49
 19269 0095 13       		.uleb128 0x13
 19270 0096 00       		.byte	0
 19271 0097 00       		.byte	0
 19272 0098 0D       		.uleb128 0xd
 19273 0099 2E       		.uleb128 0x2e
 19274 009a 01       		.byte	0x1
 19275 009b 3F       		.uleb128 0x3f
 19276 009c 19       		.uleb128 0x19
 19277 009d 03       		.uleb128 0x3
 19278 009e 0E       		.uleb128 0xe
 19279 009f 3A       		.uleb128 0x3a
 19280 00a0 0B       		.uleb128 0xb
 19281 00a1 3B       		.uleb128 0x3b
 19282 00a2 0B       		.uleb128 0xb
 19283 00a3 27       		.uleb128 0x27
 19284 00a4 19       		.uleb128 0x19
 19285 00a5 49       		.uleb128 0x49
 19286 00a6 13       		.uleb128 0x13
 19287 00a7 11       		.uleb128 0x11
 19288 00a8 01       		.uleb128 0x1
 19289 00a9 12       		.uleb128 0x12
 19290 00aa 06       		.uleb128 0x6
 19291 00ab 40       		.uleb128 0x40
 19292 00ac 18       		.uleb128 0x18
 19293 00ad 9742     		.uleb128 0x2117
 19294 00af 19       		.uleb128 0x19
 19295 00b0 01       		.uleb128 0x1
 19296 00b1 13       		.uleb128 0x13
 19297 00b2 00       		.byte	0
 19298 00b3 00       		.byte	0
 19299 00b4 0E       		.uleb128 0xe
ARM GAS  C:\Users\diego\AppData\Local\Temp\ccNdDNY6.s 			page 382


 19300 00b5 34       		.uleb128 0x34
 19301 00b6 00       		.byte	0
 19302 00b7 03       		.uleb128 0x3
 19303 00b8 08       		.uleb128 0x8
 19304 00b9 3A       		.uleb128 0x3a
 19305 00ba 0B       		.uleb128 0xb
 19306 00bb 3B       		.uleb128 0x3b
 19307 00bc 0B       		.uleb128 0xb
 19308 00bd 49       		.uleb128 0x49
 19309 00be 13       		.uleb128 0x13
 19310 00bf 02       		.uleb128 0x2
 19311 00c0 17       		.uleb128 0x17
 19312 00c1 00       		.byte	0
 19313 00c2 00       		.byte	0
 19314 00c3 0F       		.uleb128 0xf
 19315 00c4 898201   		.uleb128 0x4109
 19316 00c7 01       		.byte	0x1
 19317 00c8 11       		.uleb128 0x11
 19318 00c9 01       		.uleb128 0x1
 19319 00ca 31       		.uleb128 0x31
 19320 00cb 13       		.uleb128 0x13
 19321 00cc 01       		.uleb128 0x1
 19322 00cd 13       		.uleb128 0x13
 19323 00ce 00       		.byte	0
 19324 00cf 00       		.byte	0
 19325 00d0 10       		.uleb128 0x10
 19326 00d1 8A8201   		.uleb128 0x410a
 19327 00d4 00       		.byte	0
 19328 00d5 02       		.uleb128 0x2
 19329 00d6 18       		.uleb128 0x18
 19330 00d7 9142     		.uleb128 0x2111
 19331 00d9 18       		.uleb128 0x18
 19332 00da 00       		.byte	0
 19333 00db 00       		.byte	0
 19334 00dc 11       		.uleb128 0x11
 19335 00dd 898201   		.uleb128 0x4109
 19336 00e0 00       		.byte	0
 19337 00e1 11       		.uleb128 0x11
 19338 00e2 01       		.uleb128 0x1
 19339 00e3 31       		.uleb128 0x31
 19340 00e4 13       		.uleb128 0x13
 19341 00e5 00       		.byte	0
 19342 00e6 00       		.byte	0
 19343 00e7 12       		.uleb128 0x12
 19344 00e8 05       		.uleb128 0x5
 19345 00e9 00       		.byte	0
 19346 00ea 03       		.uleb128 0x3
 19347 00eb 08       		.uleb128 0x8
 19348 00ec 3A       		.uleb128 0x3a
 19349 00ed 0B       		.uleb128 0xb
 19350 00ee 3B       		.uleb128 0x3b
 19351 00ef 0B       		.uleb128 0xb
 19352 00f0 49       		.uleb128 0x49
 19353 00f1 13       		.uleb128 0x13
 19354 00f2 02       		.uleb128 0x2
 19355 00f3 17       		.uleb128 0x17
 19356 00f4 00       		.byte	0
ARM GAS  C:\Users\diego\AppData\Local\Temp\ccNdDNY6.s 			page 383


 19357 00f5 00       		.byte	0
 19358 00f6 13       		.uleb128 0x13
 19359 00f7 34       		.uleb128 0x34
 19360 00f8 00       		.byte	0
 19361 00f9 03       		.uleb128 0x3
 19362 00fa 0E       		.uleb128 0xe
 19363 00fb 3A       		.uleb128 0x3a
 19364 00fc 0B       		.uleb128 0xb
 19365 00fd 3B       		.uleb128 0x3b
 19366 00fe 0B       		.uleb128 0xb
 19367 00ff 49       		.uleb128 0x49
 19368 0100 13       		.uleb128 0x13
 19369 0101 02       		.uleb128 0x2
 19370 0102 17       		.uleb128 0x17
 19371 0103 00       		.byte	0
 19372 0104 00       		.byte	0
 19373 0105 14       		.uleb128 0x14
 19374 0106 34       		.uleb128 0x34
 19375 0107 00       		.byte	0
 19376 0108 03       		.uleb128 0x3
 19377 0109 0E       		.uleb128 0xe
 19378 010a 3A       		.uleb128 0x3a
 19379 010b 0B       		.uleb128 0xb
 19380 010c 3B       		.uleb128 0x3b
 19381 010d 0B       		.uleb128 0xb
 19382 010e 49       		.uleb128 0x49
 19383 010f 13       		.uleb128 0x13
 19384 0110 02       		.uleb128 0x2
 19385 0111 18       		.uleb128 0x18
 19386 0112 00       		.byte	0
 19387 0113 00       		.byte	0
 19388 0114 15       		.uleb128 0x15
 19389 0115 2E       		.uleb128 0x2e
 19390 0116 01       		.byte	0x1
 19391 0117 3F       		.uleb128 0x3f
 19392 0118 19       		.uleb128 0x19
 19393 0119 03       		.uleb128 0x3
 19394 011a 0E       		.uleb128 0xe
 19395 011b 3A       		.uleb128 0x3a
 19396 011c 0B       		.uleb128 0xb
 19397 011d 3B       		.uleb128 0x3b
 19398 011e 05       		.uleb128 0x5
 19399 011f 27       		.uleb128 0x27
 19400 0120 19       		.uleb128 0x19
 19401 0121 49       		.uleb128 0x49
 19402 0122 13       		.uleb128 0x13
 19403 0123 11       		.uleb128 0x11
 19404 0124 01       		.uleb128 0x1
 19405 0125 12       		.uleb128 0x12
 19406 0126 06       		.uleb128 0x6
 19407 0127 40       		.uleb128 0x40
 19408 0128 18       		.uleb128 0x18
 19409 0129 9742     		.uleb128 0x2117
 19410 012b 19       		.uleb128 0x19
 19411 012c 01       		.uleb128 0x1
 19412 012d 13       		.uleb128 0x13
 19413 012e 00       		.byte	0
ARM GAS  C:\Users\diego\AppData\Local\Temp\ccNdDNY6.s 			page 384


 19414 012f 00       		.byte	0
 19415 0130 16       		.uleb128 0x16
 19416 0131 05       		.uleb128 0x5
 19417 0132 00       		.byte	0
 19418 0133 03       		.uleb128 0x3
 19419 0134 08       		.uleb128 0x8
 19420 0135 3A       		.uleb128 0x3a
 19421 0136 0B       		.uleb128 0xb
 19422 0137 3B       		.uleb128 0x3b
 19423 0138 05       		.uleb128 0x5
 19424 0139 49       		.uleb128 0x49
 19425 013a 13       		.uleb128 0x13
 19426 013b 02       		.uleb128 0x2
 19427 013c 17       		.uleb128 0x17
 19428 013d 00       		.byte	0
 19429 013e 00       		.byte	0
 19430 013f 17       		.uleb128 0x17
 19431 0140 34       		.uleb128 0x34
 19432 0141 00       		.byte	0
 19433 0142 03       		.uleb128 0x3
 19434 0143 0E       		.uleb128 0xe
 19435 0144 3A       		.uleb128 0x3a
 19436 0145 0B       		.uleb128 0xb
 19437 0146 3B       		.uleb128 0x3b
 19438 0147 05       		.uleb128 0x5
 19439 0148 49       		.uleb128 0x49
 19440 0149 13       		.uleb128 0x13
 19441 014a 02       		.uleb128 0x2
 19442 014b 18       		.uleb128 0x18
 19443 014c 00       		.byte	0
 19444 014d 00       		.byte	0
 19445 014e 18       		.uleb128 0x18
 19446 014f 34       		.uleb128 0x34
 19447 0150 00       		.byte	0
 19448 0151 03       		.uleb128 0x3
 19449 0152 08       		.uleb128 0x8
 19450 0153 3A       		.uleb128 0x3a
 19451 0154 0B       		.uleb128 0xb
 19452 0155 3B       		.uleb128 0x3b
 19453 0156 05       		.uleb128 0x5
 19454 0157 49       		.uleb128 0x49
 19455 0158 13       		.uleb128 0x13
 19456 0159 02       		.uleb128 0x2
 19457 015a 17       		.uleb128 0x17
 19458 015b 00       		.byte	0
 19459 015c 00       		.byte	0
 19460 015d 19       		.uleb128 0x19
 19461 015e 898201   		.uleb128 0x4109
 19462 0161 01       		.byte	0x1
 19463 0162 11       		.uleb128 0x11
 19464 0163 01       		.uleb128 0x1
 19465 0164 31       		.uleb128 0x31
 19466 0165 13       		.uleb128 0x13
 19467 0166 00       		.byte	0
 19468 0167 00       		.byte	0
 19469 0168 1A       		.uleb128 0x1a
 19470 0169 05       		.uleb128 0x5
ARM GAS  C:\Users\diego\AppData\Local\Temp\ccNdDNY6.s 			page 385


 19471 016a 00       		.byte	0
 19472 016b 03       		.uleb128 0x3
 19473 016c 0E       		.uleb128 0xe
 19474 016d 3A       		.uleb128 0x3a
 19475 016e 0B       		.uleb128 0xb
 19476 016f 3B       		.uleb128 0x3b
 19477 0170 05       		.uleb128 0x5
 19478 0171 49       		.uleb128 0x49
 19479 0172 13       		.uleb128 0x13
 19480 0173 02       		.uleb128 0x2
 19481 0174 17       		.uleb128 0x17
 19482 0175 00       		.byte	0
 19483 0176 00       		.byte	0
 19484 0177 1B       		.uleb128 0x1b
 19485 0178 34       		.uleb128 0x34
 19486 0179 00       		.byte	0
 19487 017a 03       		.uleb128 0x3
 19488 017b 0E       		.uleb128 0xe
 19489 017c 3A       		.uleb128 0x3a
 19490 017d 0B       		.uleb128 0xb
 19491 017e 3B       		.uleb128 0x3b
 19492 017f 05       		.uleb128 0x5
 19493 0180 49       		.uleb128 0x49
 19494 0181 13       		.uleb128 0x13
 19495 0182 02       		.uleb128 0x2
 19496 0183 17       		.uleb128 0x17
 19497 0184 00       		.byte	0
 19498 0185 00       		.byte	0
 19499 0186 1C       		.uleb128 0x1c
 19500 0187 0F       		.uleb128 0xf
 19501 0188 00       		.byte	0
 19502 0189 0B       		.uleb128 0xb
 19503 018a 0B       		.uleb128 0xb
 19504 018b 49       		.uleb128 0x49
 19505 018c 13       		.uleb128 0x13
 19506 018d 00       		.byte	0
 19507 018e 00       		.byte	0
 19508 018f 1D       		.uleb128 0x1d
 19509 0190 34       		.uleb128 0x34
 19510 0191 00       		.byte	0
 19511 0192 03       		.uleb128 0x3
 19512 0193 0E       		.uleb128 0xe
 19513 0194 3A       		.uleb128 0x3a
 19514 0195 0B       		.uleb128 0xb
 19515 0196 3B       		.uleb128 0x3b
 19516 0197 05       		.uleb128 0x5
 19517 0198 49       		.uleb128 0x49
 19518 0199 13       		.uleb128 0x13
 19519 019a 3F       		.uleb128 0x3f
 19520 019b 19       		.uleb128 0x19
 19521 019c 3C       		.uleb128 0x3c
 19522 019d 19       		.uleb128 0x19
 19523 019e 00       		.byte	0
 19524 019f 00       		.byte	0
 19525 01a0 1E       		.uleb128 0x1e
 19526 01a1 34       		.uleb128 0x34
 19527 01a2 00       		.byte	0
ARM GAS  C:\Users\diego\AppData\Local\Temp\ccNdDNY6.s 			page 386


 19528 01a3 03       		.uleb128 0x3
 19529 01a4 0E       		.uleb128 0xe
 19530 01a5 3A       		.uleb128 0x3a
 19531 01a6 0B       		.uleb128 0xb
 19532 01a7 3B       		.uleb128 0x3b
 19533 01a8 0B       		.uleb128 0xb
 19534 01a9 49       		.uleb128 0x49
 19535 01aa 13       		.uleb128 0x13
 19536 01ab 3F       		.uleb128 0x3f
 19537 01ac 19       		.uleb128 0x19
 19538 01ad 02       		.uleb128 0x2
 19539 01ae 18       		.uleb128 0x18
 19540 01af 00       		.byte	0
 19541 01b0 00       		.byte	0
 19542 01b1 1F       		.uleb128 0x1f
 19543 01b2 34       		.uleb128 0x34
 19544 01b3 00       		.byte	0
 19545 01b4 03       		.uleb128 0x3
 19546 01b5 08       		.uleb128 0x8
 19547 01b6 3A       		.uleb128 0x3a
 19548 01b7 0B       		.uleb128 0xb
 19549 01b8 3B       		.uleb128 0x3b
 19550 01b9 0B       		.uleb128 0xb
 19551 01ba 49       		.uleb128 0x49
 19552 01bb 13       		.uleb128 0x13
 19553 01bc 3F       		.uleb128 0x3f
 19554 01bd 19       		.uleb128 0x19
 19555 01be 02       		.uleb128 0x2
 19556 01bf 18       		.uleb128 0x18
 19557 01c0 00       		.byte	0
 19558 01c1 00       		.byte	0
 19559 01c2 20       		.uleb128 0x20
 19560 01c3 2E       		.uleb128 0x2e
 19561 01c4 01       		.byte	0x1
 19562 01c5 3F       		.uleb128 0x3f
 19563 01c6 19       		.uleb128 0x19
 19564 01c7 03       		.uleb128 0x3
 19565 01c8 0E       		.uleb128 0xe
 19566 01c9 3A       		.uleb128 0x3a
 19567 01ca 0B       		.uleb128 0xb
 19568 01cb 3B       		.uleb128 0x3b
 19569 01cc 0B       		.uleb128 0xb
 19570 01cd 27       		.uleb128 0x27
 19571 01ce 19       		.uleb128 0x19
 19572 01cf 3C       		.uleb128 0x3c
 19573 01d0 19       		.uleb128 0x19
 19574 01d1 01       		.uleb128 0x1
 19575 01d2 13       		.uleb128 0x13
 19576 01d3 00       		.byte	0
 19577 01d4 00       		.byte	0
 19578 01d5 21       		.uleb128 0x21
 19579 01d6 05       		.uleb128 0x5
 19580 01d7 00       		.byte	0
 19581 01d8 49       		.uleb128 0x49
 19582 01d9 13       		.uleb128 0x13
 19583 01da 00       		.byte	0
 19584 01db 00       		.byte	0
ARM GAS  C:\Users\diego\AppData\Local\Temp\ccNdDNY6.s 			page 387


 19585 01dc 22       		.uleb128 0x22
 19586 01dd 2E       		.uleb128 0x2e
 19587 01de 00       		.byte	0
 19588 01df 3F       		.uleb128 0x3f
 19589 01e0 19       		.uleb128 0x19
 19590 01e1 03       		.uleb128 0x3
 19591 01e2 0E       		.uleb128 0xe
 19592 01e3 3A       		.uleb128 0x3a
 19593 01e4 0B       		.uleb128 0xb
 19594 01e5 3B       		.uleb128 0x3b
 19595 01e6 0B       		.uleb128 0xb
 19596 01e7 27       		.uleb128 0x27
 19597 01e8 19       		.uleb128 0x19
 19598 01e9 49       		.uleb128 0x49
 19599 01ea 13       		.uleb128 0x13
 19600 01eb 3C       		.uleb128 0x3c
 19601 01ec 19       		.uleb128 0x19
 19602 01ed 00       		.byte	0
 19603 01ee 00       		.byte	0
 19604 01ef 23       		.uleb128 0x23
 19605 01f0 2E       		.uleb128 0x2e
 19606 01f1 00       		.byte	0
 19607 01f2 3F       		.uleb128 0x3f
 19608 01f3 19       		.uleb128 0x19
 19609 01f4 03       		.uleb128 0x3
 19610 01f5 0E       		.uleb128 0xe
 19611 01f6 3A       		.uleb128 0x3a
 19612 01f7 0B       		.uleb128 0xb
 19613 01f8 3B       		.uleb128 0x3b
 19614 01f9 0B       		.uleb128 0xb
 19615 01fa 27       		.uleb128 0x27
 19616 01fb 19       		.uleb128 0x19
 19617 01fc 3C       		.uleb128 0x3c
 19618 01fd 19       		.uleb128 0x19
 19619 01fe 00       		.byte	0
 19620 01ff 00       		.byte	0
 19621 0200 24       		.uleb128 0x24
 19622 0201 2E       		.uleb128 0x2e
 19623 0202 01       		.byte	0x1
 19624 0203 3F       		.uleb128 0x3f
 19625 0204 19       		.uleb128 0x19
 19626 0205 03       		.uleb128 0x3
 19627 0206 0E       		.uleb128 0xe
 19628 0207 3A       		.uleb128 0x3a
 19629 0208 0B       		.uleb128 0xb
 19630 0209 3B       		.uleb128 0x3b
 19631 020a 0B       		.uleb128 0xb
 19632 020b 27       		.uleb128 0x27
 19633 020c 19       		.uleb128 0x19
 19634 020d 49       		.uleb128 0x49
 19635 020e 13       		.uleb128 0x13
 19636 020f 3C       		.uleb128 0x3c
 19637 0210 19       		.uleb128 0x19
 19638 0211 01       		.uleb128 0x1
 19639 0212 13       		.uleb128 0x13
 19640 0213 00       		.byte	0
 19641 0214 00       		.byte	0
ARM GAS  C:\Users\diego\AppData\Local\Temp\ccNdDNY6.s 			page 388


 19642 0215 25       		.uleb128 0x25
 19643 0216 2E       		.uleb128 0x2e
 19644 0217 01       		.byte	0x1
 19645 0218 3F       		.uleb128 0x3f
 19646 0219 19       		.uleb128 0x19
 19647 021a 03       		.uleb128 0x3
 19648 021b 0E       		.uleb128 0xe
 19649 021c 3A       		.uleb128 0x3a
 19650 021d 0B       		.uleb128 0xb
 19651 021e 3B       		.uleb128 0x3b
 19652 021f 0B       		.uleb128 0xb
 19653 0220 27       		.uleb128 0x27
 19654 0221 19       		.uleb128 0x19
 19655 0222 3C       		.uleb128 0x3c
 19656 0223 19       		.uleb128 0x19
 19657 0224 00       		.byte	0
 19658 0225 00       		.byte	0
 19659 0226 00       		.byte	0
 19660              		.section	.debug_loc,"",%progbits
 19661              	.Ldebug_loc0:
 19662              	.LLST0:
 19663 0000 14000000 		.4byte	.LVL0
 19664 0004 18000000 		.4byte	.LVL1
 19665 0008 0200     		.2byte	0x2
 19666 000a 30       		.byte	0x30
 19667 000b 9F       		.byte	0x9f
 19668 000c 18000000 		.4byte	.LVL1
 19669 0010 AA000000 		.4byte	.LVL12
 19670 0014 0100     		.2byte	0x1
 19671 0016 54       		.byte	0x54
 19672 0017 AC000000 		.4byte	.LVL13
 19673 001b 04010000 		.4byte	.LVL19
 19674 001f 0100     		.2byte	0x1
 19675 0021 54       		.byte	0x54
 19676 0022 00000000 		.4byte	0
 19677 0026 00000000 		.4byte	0
 19678              	.LLST1:
 19679 002a 00000000 		.4byte	.LVL20
 19680 002e 05000000 		.4byte	.LVL21-1
 19681 0032 0100     		.2byte	0x1
 19682 0034 50       		.byte	0x50
 19683 0035 05000000 		.4byte	.LVL21-1
 19684 0039 26000000 		.4byte	.LFE64
 19685 003d 0400     		.2byte	0x4
 19686 003f F3       		.byte	0xf3
 19687 0040 01       		.uleb128 0x1
 19688 0041 50       		.byte	0x50
 19689 0042 9F       		.byte	0x9f
 19690 0043 00000000 		.4byte	0
 19691 0047 00000000 		.4byte	0
 19692              	.LLST2:
 19693 004b 1A000000 		.4byte	.LVL25
 19694 004f 22000000 		.4byte	.LVL27
 19695 0053 0100     		.2byte	0x1
 19696 0055 54       		.byte	0x54
 19697 0056 00000000 		.4byte	0
 19698 005a 00000000 		.4byte	0
ARM GAS  C:\Users\diego\AppData\Local\Temp\ccNdDNY6.s 			page 389


 19699              	.LLST3:
 19700 005e 00000000 		.4byte	.LVL28
 19701 0062 0C000000 		.4byte	.LVL29
 19702 0066 0100     		.2byte	0x1
 19703 0068 50       		.byte	0x50
 19704 0069 0C000000 		.4byte	.LVL29
 19705 006d E8000000 		.4byte	.LFE65
 19706 0071 0400     		.2byte	0x4
 19707 0073 F3       		.byte	0xf3
 19708 0074 01       		.uleb128 0x1
 19709 0075 50       		.byte	0x50
 19710 0076 9F       		.byte	0x9f
 19711 0077 00000000 		.4byte	0
 19712 007b 00000000 		.4byte	0
 19713              	.LLST4:
 19714 007f 40000000 		.4byte	.LVL34
 19715 0083 44000000 		.4byte	.LVL35
 19716 0087 0200     		.2byte	0x2
 19717 0089 30       		.byte	0x30
 19718 008a 9F       		.byte	0x9f
 19719 008b 44000000 		.4byte	.LVL35
 19720 008f 52000000 		.4byte	.LVL37
 19721 0093 0100     		.2byte	0x1
 19722 0095 54       		.byte	0x54
 19723 0096 54000000 		.4byte	.LVL38
 19724 009a 78000000 		.4byte	.LVL42
 19725 009e 0100     		.2byte	0x1
 19726 00a0 54       		.byte	0x54
 19727 00a1 7A000000 		.4byte	.LVL43
 19728 00a5 C2000000 		.4byte	.LVL46
 19729 00a9 0100     		.2byte	0x1
 19730 00ab 54       		.byte	0x54
 19731 00ac CA000000 		.4byte	.LVL47
 19732 00b0 DC000000 		.4byte	.LVL48
 19733 00b4 0100     		.2byte	0x1
 19734 00b6 54       		.byte	0x54
 19735 00b7 00000000 		.4byte	0
 19736 00bb 00000000 		.4byte	0
 19737              	.LLST5:
 19738 00bf 00000000 		.4byte	.LVL49
 19739 00c3 0A000000 		.4byte	.LVL51
 19740 00c7 0100     		.2byte	0x1
 19741 00c9 50       		.byte	0x50
 19742 00ca 0A000000 		.4byte	.LVL51
 19743 00ce E8010000 		.4byte	.LFE66
 19744 00d2 0400     		.2byte	0x4
 19745 00d4 F3       		.byte	0xf3
 19746 00d5 01       		.uleb128 0x1
 19747 00d6 50       		.byte	0x50
 19748 00d7 9F       		.byte	0x9f
 19749 00d8 00000000 		.4byte	0
 19750 00dc 00000000 		.4byte	0
 19751              	.LLST6:
 19752 00e0 06000000 		.4byte	.LVL50
 19753 00e4 22000000 		.4byte	.LVL55
 19754 00e8 0200     		.2byte	0x2
 19755 00ea 30       		.byte	0x30
ARM GAS  C:\Users\diego\AppData\Local\Temp\ccNdDNY6.s 			page 390


 19756 00eb 9F       		.byte	0x9f
 19757 00ec 22000000 		.4byte	.LVL55
 19758 00f0 30000000 		.4byte	.LVL57
 19759 00f4 0100     		.2byte	0x1
 19760 00f6 55       		.byte	0x55
 19761 00f7 32000000 		.4byte	.LVL58
 19762 00fb 34000000 		.4byte	.LVL59
 19763 00ff 0100     		.2byte	0x1
 19764 0101 55       		.byte	0x55
 19765 0102 34000000 		.4byte	.LVL59
 19766 0106 36000000 		.4byte	.LVL60
 19767 010a 0200     		.2byte	0x2
 19768 010c 30       		.byte	0x30
 19769 010d 9F       		.byte	0x9f
 19770 010e 36000000 		.4byte	.LVL60
 19771 0112 7C000000 		.4byte	.LVL67
 19772 0116 0100     		.2byte	0x1
 19773 0118 55       		.byte	0x55
 19774 0119 7C000000 		.4byte	.LVL67
 19775 011d 7E000000 		.4byte	.LVL68
 19776 0121 0100     		.2byte	0x1
 19777 0123 53       		.byte	0x53
 19778 0124 80000000 		.4byte	.LVL69
 19779 0128 82000000 		.4byte	.LVL70
 19780 012c 0100     		.2byte	0x1
 19781 012e 53       		.byte	0x53
 19782 012f 82000000 		.4byte	.LVL70
 19783 0133 84000000 		.4byte	.LVL71
 19784 0137 0100     		.2byte	0x1
 19785 0139 55       		.byte	0x55
 19786 013a 84000000 		.4byte	.LVL71
 19787 013e 96000000 		.4byte	.LVL72
 19788 0142 0100     		.2byte	0x1
 19789 0144 53       		.byte	0x53
 19790 0145 98000000 		.4byte	.LVL73
 19791 0149 B0000000 		.4byte	.LVL74
 19792 014d 0100     		.2byte	0x1
 19793 014f 53       		.byte	0x53
 19794 0150 B2000000 		.4byte	.LVL75
 19795 0154 C4000000 		.4byte	.LVL76
 19796 0158 0100     		.2byte	0x1
 19797 015a 53       		.byte	0x53
 19798 015b C6000000 		.4byte	.LVL77
 19799 015f D8000000 		.4byte	.LVL79
 19800 0163 0100     		.2byte	0x1
 19801 0165 53       		.byte	0x53
 19802 0166 DA000000 		.4byte	.LVL80
 19803 016a F8000000 		.4byte	.LVL84
 19804 016e 0100     		.2byte	0x1
 19805 0170 53       		.byte	0x53
 19806 0171 FA000000 		.4byte	.LVL85
 19807 0175 0C010000 		.4byte	.LVL87
 19808 0179 0100     		.2byte	0x1
 19809 017b 53       		.byte	0x53
 19810 017c 0E010000 		.4byte	.LVL88
 19811 0180 2C010000 		.4byte	.LVL92
 19812 0184 0100     		.2byte	0x1
ARM GAS  C:\Users\diego\AppData\Local\Temp\ccNdDNY6.s 			page 391


 19813 0186 53       		.byte	0x53
 19814 0187 2E010000 		.4byte	.LVL93
 19815 018b 40010000 		.4byte	.LVL95
 19816 018f 0100     		.2byte	0x1
 19817 0191 53       		.byte	0x53
 19818 0192 42010000 		.4byte	.LVL96
 19819 0196 60010000 		.4byte	.LVL100
 19820 019a 0100     		.2byte	0x1
 19821 019c 53       		.byte	0x53
 19822 019d 62010000 		.4byte	.LVL101
 19823 01a1 74010000 		.4byte	.LVL102
 19824 01a5 0100     		.2byte	0x1
 19825 01a7 53       		.byte	0x53
 19826 01a8 C8010000 		.4byte	.LVL109
 19827 01ac D0010000 		.4byte	.LVL110
 19828 01b0 0100     		.2byte	0x1
 19829 01b2 55       		.byte	0x55
 19830 01b3 D0010000 		.4byte	.LVL110
 19831 01b7 D6010000 		.4byte	.LVL111
 19832 01bb 0100     		.2byte	0x1
 19833 01bd 53       		.byte	0x53
 19834 01be 00000000 		.4byte	0
 19835 01c2 00000000 		.4byte	0
 19836              	.LLST7:
 19837 01c6 44000000 		.4byte	.LVL63
 19838 01ca 4E000000 		.4byte	.LVL64
 19839 01ce 0200     		.2byte	0x2
 19840 01d0 40       		.byte	0x40
 19841 01d1 9F       		.byte	0x9f
 19842 01d2 4E000000 		.4byte	.LVL64
 19843 01d6 56000000 		.4byte	.LVL65
 19844 01da 0100     		.2byte	0x1
 19845 01dc 54       		.byte	0x54
 19846 01dd 56000000 		.4byte	.LVL65
 19847 01e1 74000000 		.4byte	.LVL66
 19848 01e5 0100     		.2byte	0x1
 19849 01e7 53       		.byte	0x53
 19850 01e8 C8010000 		.4byte	.LVL109
 19851 01ec D0010000 		.4byte	.LVL110
 19852 01f0 0100     		.2byte	0x1
 19853 01f2 53       		.byte	0x53
 19854 01f3 00000000 		.4byte	0
 19855 01f7 00000000 		.4byte	0
 19856              	.LLST8:
 19857 01fb C6000000 		.4byte	.LVL77
 19858 01ff CA000000 		.4byte	.LVL78
 19859 0203 0200     		.2byte	0x2
 19860 0205 31       		.byte	0x31
 19861 0206 9F       		.byte	0x9f
 19862 0207 CA000000 		.4byte	.LVL78
 19863 020b DC000000 		.4byte	.LVL81
 19864 020f 0100     		.2byte	0x1
 19865 0211 52       		.byte	0x52
 19866 0212 DE000000 		.4byte	.LVL82
 19867 0216 F0000000 		.4byte	.LVL83
 19868 021a 0100     		.2byte	0x1
 19869 021c 52       		.byte	0x52
ARM GAS  C:\Users\diego\AppData\Local\Temp\ccNdDNY6.s 			page 392


 19870 021d FA000000 		.4byte	.LVL85
 19871 0221 FE000000 		.4byte	.LVL86
 19872 0225 0200     		.2byte	0x2
 19873 0227 31       		.byte	0x31
 19874 0228 9F       		.byte	0x9f
 19875 0229 FE000000 		.4byte	.LVL86
 19876 022d 10010000 		.4byte	.LVL89
 19877 0231 0100     		.2byte	0x1
 19878 0233 52       		.byte	0x52
 19879 0234 12010000 		.4byte	.LVL90
 19880 0238 24010000 		.4byte	.LVL91
 19881 023c 0100     		.2byte	0x1
 19882 023e 52       		.byte	0x52
 19883 023f 2E010000 		.4byte	.LVL93
 19884 0243 32010000 		.4byte	.LVL94
 19885 0247 0200     		.2byte	0x2
 19886 0249 31       		.byte	0x31
 19887 024a 9F       		.byte	0x9f
 19888 024b 32010000 		.4byte	.LVL94
 19889 024f 44010000 		.4byte	.LVL97
 19890 0253 0100     		.2byte	0x1
 19891 0255 52       		.byte	0x52
 19892 0256 46010000 		.4byte	.LVL98
 19893 025a 58010000 		.4byte	.LVL99
 19894 025e 0100     		.2byte	0x1
 19895 0260 52       		.byte	0x52
 19896 0261 00000000 		.4byte	0
 19897 0265 00000000 		.4byte	0
 19898              	.LLST9:
 19899 0269 00000000 		.4byte	.LVL112
 19900 026d 0C000000 		.4byte	.LVL113
 19901 0271 0100     		.2byte	0x1
 19902 0273 50       		.byte	0x50
 19903 0274 0C000000 		.4byte	.LVL113
 19904 0278 80340000 		.4byte	.LFE67
 19905 027c 0400     		.2byte	0x4
 19906 027e F3       		.byte	0xf3
 19907 027f 01       		.uleb128 0x1
 19908 0280 50       		.byte	0x50
 19909 0281 9F       		.byte	0x9f
 19910 0282 00000000 		.4byte	0
 19911 0286 00000000 		.4byte	0
 19912              	.LLST10:
 19913 028a 00000000 		.4byte	.LVL112
 19914 028e 0F000000 		.4byte	.LVL114-1
 19915 0292 0100     		.2byte	0x1
 19916 0294 51       		.byte	0x51
 19917 0295 0F000000 		.4byte	.LVL114-1
 19918 0299 80340000 		.4byte	.LFE67
 19919 029d 0400     		.2byte	0x4
 19920 029f F3       		.byte	0xf3
 19921 02a0 01       		.uleb128 0x1
 19922 02a1 51       		.byte	0x51
 19923 02a2 9F       		.byte	0x9f
 19924 02a3 00000000 		.4byte	0
 19925 02a7 00000000 		.4byte	0
 19926              	.LLST11:
ARM GAS  C:\Users\diego\AppData\Local\Temp\ccNdDNY6.s 			page 393


 19927 02ab 00000000 		.4byte	.LVL579
 19928 02af 1E040000 		.4byte	.LVL679
 19929 02b3 0100     		.2byte	0x1
 19930 02b5 50       		.byte	0x50
 19931 02b6 1E040000 		.4byte	.LVL679
 19932 02ba 68040000 		.4byte	.LVL691
 19933 02be 0400     		.2byte	0x4
 19934 02c0 F3       		.byte	0xf3
 19935 02c1 01       		.uleb128 0x1
 19936 02c2 50       		.byte	0x50
 19937 02c3 9F       		.byte	0x9f
 19938 02c4 68040000 		.4byte	.LVL691
 19939 02c8 6C040000 		.4byte	.LVL693
 19940 02cc 0100     		.2byte	0x1
 19941 02ce 50       		.byte	0x50
 19942 02cf 6C040000 		.4byte	.LVL693
 19943 02d3 84040000 		.4byte	.LFE68
 19944 02d7 0400     		.2byte	0x4
 19945 02d9 F3       		.byte	0xf3
 19946 02da 01       		.uleb128 0x1
 19947 02db 50       		.byte	0x50
 19948 02dc 9F       		.byte	0x9f
 19949 02dd 00000000 		.4byte	0
 19950 02e1 00000000 		.4byte	0
 19951              	.LLST12:
 19952 02e5 00000000 		.4byte	.LVL579
 19953 02e9 7C030000 		.4byte	.LVL660
 19954 02ed 0100     		.2byte	0x1
 19955 02ef 51       		.byte	0x51
 19956 02f0 7C030000 		.4byte	.LVL660
 19957 02f4 16040000 		.4byte	.LVL676
 19958 02f8 0400     		.2byte	0x4
 19959 02fa F3       		.byte	0xf3
 19960 02fb 01       		.uleb128 0x1
 19961 02fc 51       		.byte	0x51
 19962 02fd 9F       		.byte	0x9f
 19963 02fe 16040000 		.4byte	.LVL676
 19964 0302 18040000 		.4byte	.LVL677
 19965 0306 0100     		.2byte	0x1
 19966 0308 51       		.byte	0x51
 19967 0309 18040000 		.4byte	.LVL677
 19968 030d 68040000 		.4byte	.LVL691
 19969 0311 0400     		.2byte	0x4
 19970 0313 F3       		.byte	0xf3
 19971 0314 01       		.uleb128 0x1
 19972 0315 51       		.byte	0x51
 19973 0316 9F       		.byte	0x9f
 19974 0317 68040000 		.4byte	.LVL691
 19975 031b 6C040000 		.4byte	.LVL693
 19976 031f 0100     		.2byte	0x1
 19977 0321 51       		.byte	0x51
 19978 0322 6C040000 		.4byte	.LVL693
 19979 0326 84040000 		.4byte	.LFE68
 19980 032a 0400     		.2byte	0x4
 19981 032c F3       		.byte	0xf3
 19982 032d 01       		.uleb128 0x1
 19983 032e 51       		.byte	0x51
ARM GAS  C:\Users\diego\AppData\Local\Temp\ccNdDNY6.s 			page 394


 19984 032f 9F       		.byte	0x9f
 19985 0330 00000000 		.4byte	0
 19986 0334 00000000 		.4byte	0
 19987              	.LLST13:
 19988 0338 00000000 		.4byte	.LVL579
 19989 033c BC030000 		.4byte	.LVL666
 19990 0340 0100     		.2byte	0x1
 19991 0342 52       		.byte	0x52
 19992 0343 BC030000 		.4byte	.LVL666
 19993 0347 16040000 		.4byte	.LVL676
 19994 034b 0400     		.2byte	0x4
 19995 034d F3       		.byte	0xf3
 19996 034e 01       		.uleb128 0x1
 19997 034f 52       		.byte	0x52
 19998 0350 9F       		.byte	0x9f
 19999 0351 16040000 		.4byte	.LVL676
 20000 0355 18040000 		.4byte	.LVL677
 20001 0359 0100     		.2byte	0x1
 20002 035b 52       		.byte	0x52
 20003 035c 18040000 		.4byte	.LVL677
 20004 0360 68040000 		.4byte	.LVL691
 20005 0364 0400     		.2byte	0x4
 20006 0366 F3       		.byte	0xf3
 20007 0367 01       		.uleb128 0x1
 20008 0368 52       		.byte	0x52
 20009 0369 9F       		.byte	0x9f
 20010 036a 68040000 		.4byte	.LVL691
 20011 036e 6C040000 		.4byte	.LVL693
 20012 0372 0100     		.2byte	0x1
 20013 0374 52       		.byte	0x52
 20014 0375 6C040000 		.4byte	.LVL693
 20015 0379 84040000 		.4byte	.LFE68
 20016 037d 0400     		.2byte	0x4
 20017 037f F3       		.byte	0xf3
 20018 0380 01       		.uleb128 0x1
 20019 0381 52       		.byte	0x52
 20020 0382 9F       		.byte	0x9f
 20021 0383 00000000 		.4byte	0
 20022 0387 00000000 		.4byte	0
 20023              	.LLST14:
 20024 038b 00000000 		.4byte	.LVL579
 20025 038f 64030000 		.4byte	.LVL658
 20026 0393 0100     		.2byte	0x1
 20027 0395 53       		.byte	0x53
 20028 0396 64030000 		.4byte	.LVL658
 20029 039a 16040000 		.4byte	.LVL676
 20030 039e 0400     		.2byte	0x4
 20031 03a0 F3       		.byte	0xf3
 20032 03a1 01       		.uleb128 0x1
 20033 03a2 53       		.byte	0x53
 20034 03a3 9F       		.byte	0x9f
 20035 03a4 16040000 		.4byte	.LVL676
 20036 03a8 18040000 		.4byte	.LVL677
 20037 03ac 0100     		.2byte	0x1
 20038 03ae 53       		.byte	0x53
 20039 03af 18040000 		.4byte	.LVL677
 20040 03b3 68040000 		.4byte	.LVL691
ARM GAS  C:\Users\diego\AppData\Local\Temp\ccNdDNY6.s 			page 395


 20041 03b7 0400     		.2byte	0x4
 20042 03b9 F3       		.byte	0xf3
 20043 03ba 01       		.uleb128 0x1
 20044 03bb 53       		.byte	0x53
 20045 03bc 9F       		.byte	0x9f
 20046 03bd 68040000 		.4byte	.LVL691
 20047 03c1 6A040000 		.4byte	.LVL692
 20048 03c5 0100     		.2byte	0x1
 20049 03c7 53       		.byte	0x53
 20050 03c8 6A040000 		.4byte	.LVL692
 20051 03cc 84040000 		.4byte	.LFE68
 20052 03d0 0400     		.2byte	0x4
 20053 03d2 F3       		.byte	0xf3
 20054 03d3 01       		.uleb128 0x1
 20055 03d4 53       		.byte	0x53
 20056 03d5 9F       		.byte	0x9f
 20057 03d6 00000000 		.4byte	0
 20058 03da 00000000 		.4byte	0
 20059              	.LLST15:
 20060 03de 66010000 		.4byte	.LVL611
 20061 03e2 B0010000 		.4byte	.LVL617
 20062 03e6 0200     		.2byte	0x2
 20063 03e8 3D       		.byte	0x3d
 20064 03e9 9F       		.byte	0x9f
 20065 03ea B0010000 		.4byte	.LVL617
 20066 03ee B4010000 		.4byte	.LVL618
 20067 03f2 0200     		.2byte	0x2
 20068 03f4 3C       		.byte	0x3c
 20069 03f5 9F       		.byte	0x9f
 20070 03f6 B4010000 		.4byte	.LVL618
 20071 03fa B6010000 		.4byte	.LVL619
 20072 03fe 0200     		.2byte	0x2
 20073 0400 3D       		.byte	0x3d
 20074 0401 9F       		.byte	0x9f
 20075 0402 B6010000 		.4byte	.LVL619
 20076 0406 E0010000 		.4byte	.LVL623
 20077 040a 0100     		.2byte	0x1
 20078 040c 56       		.byte	0x56
 20079 040d 7E020000 		.4byte	.LVL638
 20080 0411 80020000 		.4byte	.LVL639
 20081 0415 0200     		.2byte	0x2
 20082 0417 3E       		.byte	0x3e
 20083 0418 9F       		.byte	0x9f
 20084 0419 80020000 		.4byte	.LVL639
 20085 041d B0020000 		.4byte	.LVL642
 20086 0421 0100     		.2byte	0x1
 20087 0423 56       		.byte	0x56
 20088 0424 5E030000 		.4byte	.LVL657
 20089 0428 12040000 		.4byte	.LVL675
 20090 042c 0200     		.2byte	0x2
 20091 042e 3F       		.byte	0x3f
 20092 042f 9F       		.byte	0x9f
 20093 0430 12040000 		.4byte	.LVL675
 20094 0434 16040000 		.4byte	.LVL676
 20095 0438 0200     		.2byte	0x2
 20096 043a 41       		.byte	0x41
 20097 043b 9F       		.byte	0x9f
ARM GAS  C:\Users\diego\AppData\Local\Temp\ccNdDNY6.s 			page 396


 20098 043c 16040000 		.4byte	.LVL676
 20099 0440 18040000 		.4byte	.LVL677
 20100 0444 0200     		.2byte	0x2
 20101 0446 3F       		.byte	0x3f
 20102 0447 9F       		.byte	0x9f
 20103 0448 1A040000 		.4byte	.LVL678
 20104 044c 68040000 		.4byte	.LVL691
 20105 0450 0100     		.2byte	0x1
 20106 0452 56       		.byte	0x56
 20107 0453 6C040000 		.4byte	.LVL693
 20108 0457 76040000 		.4byte	.LVL695
 20109 045b 0100     		.2byte	0x1
 20110 045d 56       		.byte	0x56
 20111 045e 00000000 		.4byte	0
 20112 0462 00000000 		.4byte	0
 20113              	.LLST16:
 20114 0466 14000000 		.4byte	.LVL580
 20115 046a 34000000 		.4byte	.LVL581
 20116 046e 0200     		.2byte	0x2
 20117 0470 34       		.byte	0x34
 20118 0471 9F       		.byte	0x9f
 20119 0472 34000000 		.4byte	.LVL581
 20120 0476 94020000 		.4byte	.LVL640
 20121 047a 0100     		.2byte	0x1
 20122 047c 5E       		.byte	0x5e
 20123 047d 68040000 		.4byte	.LVL691
 20124 0481 6C040000 		.4byte	.LVL693
 20125 0485 0100     		.2byte	0x1
 20126 0487 5E       		.byte	0x5e
 20127 0488 00000000 		.4byte	0
 20128 048c 00000000 		.4byte	0
 20129              	.LLST17:
 20130 0490 58000000 		.4byte	.LVL584
 20131 0494 5E000000 		.4byte	.LVL585
 20132 0498 0200     		.2byte	0x2
 20133 049a 31       		.byte	0x31
 20134 049b 9F       		.byte	0x9f
 20135 049c 5E000000 		.4byte	.LVL585
 20136 04a0 7C000000 		.4byte	.LVL590
 20137 04a4 0100     		.2byte	0x1
 20138 04a6 54       		.byte	0x54
 20139 04a7 7E000000 		.4byte	.LVL591
 20140 04ab 96000000 		.4byte	.LVL594
 20141 04af 0100     		.2byte	0x1
 20142 04b1 54       		.byte	0x54
 20143 04b2 C4000000 		.4byte	.LVL595
 20144 04b6 C8000000 		.4byte	.LVL596
 20145 04ba 0200     		.2byte	0x2
 20146 04bc 35       		.byte	0x35
 20147 04bd 9F       		.byte	0x9f
 20148 04be C8000000 		.4byte	.LVL596
 20149 04c2 D4000000 		.4byte	.LVL597
 20150 04c6 0100     		.2byte	0x1
 20151 04c8 54       		.byte	0x54
 20152 04c9 D6000000 		.4byte	.LVL598
 20153 04cd E6000000 		.4byte	.LVL599
 20154 04d1 0100     		.2byte	0x1
ARM GAS  C:\Users\diego\AppData\Local\Temp\ccNdDNY6.s 			page 397


 20155 04d3 54       		.byte	0x54
 20156 04d4 0E010000 		.4byte	.LVL602
 20157 04d8 1C010000 		.4byte	.LVL603
 20158 04dc 0100     		.2byte	0x1
 20159 04de 54       		.byte	0x54
 20160 04df 1E010000 		.4byte	.LVL604
 20161 04e3 24010000 		.4byte	.LVL605
 20162 04e7 0100     		.2byte	0x1
 20163 04e9 54       		.byte	0x54
 20164 04ea 2E010000 		.4byte	.LVL606
 20165 04ee 30010000 		.4byte	.LVL607
 20166 04f2 0200     		.2byte	0x2
 20167 04f4 30       		.byte	0x30
 20168 04f5 9F       		.byte	0x9f
 20169 04f6 30010000 		.4byte	.LVL607
 20170 04fa 48010000 		.4byte	.LVL608
 20171 04fe 0100     		.2byte	0x1
 20172 0500 54       		.byte	0x54
 20173 0501 4A010000 		.4byte	.LVL609
 20174 0505 52010000 		.4byte	.LVL610
 20175 0509 0100     		.2byte	0x1
 20176 050b 54       		.byte	0x54
 20177 050c 78010000 		.4byte	.LVL612
 20178 0510 7A010000 		.4byte	.LVL613
 20179 0514 0200     		.2byte	0x2
 20180 0516 30       		.byte	0x30
 20181 0517 9F       		.byte	0x9f
 20182 0518 7A010000 		.4byte	.LVL613
 20183 051c 92010000 		.4byte	.LVL614
 20184 0520 0100     		.2byte	0x1
 20185 0522 54       		.byte	0x54
 20186 0523 94010000 		.4byte	.LVL615
 20187 0527 9C010000 		.4byte	.LVL616
 20188 052b 0100     		.2byte	0x1
 20189 052d 54       		.byte	0x54
 20190 052e DC010000 		.4byte	.LVL622
 20191 0532 E0010000 		.4byte	.LVL623
 20192 0536 0200     		.2byte	0x2
 20193 0538 37       		.byte	0x37
 20194 0539 9F       		.byte	0x9f
 20195 053a E0010000 		.4byte	.LVL623
 20196 053e EC010000 		.4byte	.LVL624
 20197 0542 0100     		.2byte	0x1
 20198 0544 54       		.byte	0x54
 20199 0545 EE010000 		.4byte	.LVL625
 20200 0549 FE010000 		.4byte	.LVL626
 20201 054d 0100     		.2byte	0x1
 20202 054f 54       		.byte	0x54
 20203 0550 28020000 		.4byte	.LVL629
 20204 0554 34020000 		.4byte	.LVL630
 20205 0558 0100     		.2byte	0x1
 20206 055a 54       		.byte	0x54
 20207 055b 36020000 		.4byte	.LVL631
 20208 055f 3C020000 		.4byte	.LVL632
 20209 0563 0100     		.2byte	0x1
 20210 0565 54       		.byte	0x54
 20211 0566 46020000 		.4byte	.LVL633
ARM GAS  C:\Users\diego\AppData\Local\Temp\ccNdDNY6.s 			page 398


 20212 056a 48020000 		.4byte	.LVL634
 20213 056e 0200     		.2byte	0x2
 20214 0570 30       		.byte	0x30
 20215 0571 9F       		.byte	0x9f
 20216 0572 48020000 		.4byte	.LVL634
 20217 0576 60020000 		.4byte	.LVL635
 20218 057a 0100     		.2byte	0x1
 20219 057c 54       		.byte	0x54
 20220 057d 62020000 		.4byte	.LVL636
 20221 0581 6A020000 		.4byte	.LVL637
 20222 0585 0100     		.2byte	0x1
 20223 0587 54       		.byte	0x54
 20224 0588 AC020000 		.4byte	.LVL641
 20225 058c B0020000 		.4byte	.LVL642
 20226 0590 0200     		.2byte	0x2
 20227 0592 35       		.byte	0x35
 20228 0593 9F       		.byte	0x9f
 20229 0594 B0020000 		.4byte	.LVL642
 20230 0598 BC020000 		.4byte	.LVL643
 20231 059c 0100     		.2byte	0x1
 20232 059e 54       		.byte	0x54
 20233 059f BE020000 		.4byte	.LVL644
 20234 05a3 D0020000 		.4byte	.LVL645
 20235 05a7 0100     		.2byte	0x1
 20236 05a9 54       		.byte	0x54
 20237 05aa F8020000 		.4byte	.LVL648
 20238 05ae 06030000 		.4byte	.LVL649
 20239 05b2 0100     		.2byte	0x1
 20240 05b4 54       		.byte	0x54
 20241 05b5 08030000 		.4byte	.LVL650
 20242 05b9 0E030000 		.4byte	.LVL651
 20243 05bd 0100     		.2byte	0x1
 20244 05bf 54       		.byte	0x54
 20245 05c0 18030000 		.4byte	.LVL652
 20246 05c4 28030000 		.4byte	.LVL653
 20247 05c8 0200     		.2byte	0x2
 20248 05ca 30       		.byte	0x30
 20249 05cb 9F       		.byte	0x9f
 20250 05cc 28030000 		.4byte	.LVL653
 20251 05d0 40030000 		.4byte	.LVL654
 20252 05d4 0100     		.2byte	0x1
 20253 05d6 54       		.byte	0x54
 20254 05d7 42030000 		.4byte	.LVL655
 20255 05db 4A030000 		.4byte	.LVL656
 20256 05df 0100     		.2byte	0x1
 20257 05e1 54       		.byte	0x54
 20258 05e2 78030000 		.4byte	.LVL659
 20259 05e6 7C030000 		.4byte	.LVL660
 20260 05ea 0200     		.2byte	0x2
 20261 05ec 37       		.byte	0x37
 20262 05ed 9F       		.byte	0x9f
 20263 05ee 7C030000 		.4byte	.LVL660
 20264 05f2 88030000 		.4byte	.LVL661
 20265 05f6 0100     		.2byte	0x1
 20266 05f8 53       		.byte	0x53
 20267 05f9 8A030000 		.4byte	.LVL662
 20268 05fd 9A030000 		.4byte	.LVL663
ARM GAS  C:\Users\diego\AppData\Local\Temp\ccNdDNY6.s 			page 399


 20269 0601 0100     		.2byte	0x1
 20270 0603 53       		.byte	0x53
 20271 0604 BC030000 		.4byte	.LVL666
 20272 0608 C8030000 		.4byte	.LVL667
 20273 060c 0100     		.2byte	0x1
 20274 060e 53       		.byte	0x53
 20275 060f CA030000 		.4byte	.LVL668
 20276 0613 D0030000 		.4byte	.LVL669
 20277 0617 0100     		.2byte	0x1
 20278 0619 53       		.byte	0x53
 20279 061a DA030000 		.4byte	.LVL670
 20280 061e DC030000 		.4byte	.LVL671
 20281 0622 0200     		.2byte	0x2
 20282 0624 30       		.byte	0x30
 20283 0625 9F       		.byte	0x9f
 20284 0626 DC030000 		.4byte	.LVL671
 20285 062a F4030000 		.4byte	.LVL672
 20286 062e 0100     		.2byte	0x1
 20287 0630 53       		.byte	0x53
 20288 0631 F6030000 		.4byte	.LVL673
 20289 0635 FE030000 		.4byte	.LVL674
 20290 0639 0100     		.2byte	0x1
 20291 063b 53       		.byte	0x53
 20292 063c 3E040000 		.4byte	.LVL684
 20293 0640 42040000 		.4byte	.LVL685
 20294 0644 0200     		.2byte	0x2
 20295 0646 30       		.byte	0x30
 20296 0647 9F       		.byte	0x9f
 20297 0648 42040000 		.4byte	.LVL685
 20298 064c 50040000 		.4byte	.LVL687
 20299 0650 0100     		.2byte	0x1
 20300 0652 55       		.byte	0x55
 20301 0653 52040000 		.4byte	.LVL688
 20302 0657 68040000 		.4byte	.LVL691
 20303 065b 0100     		.2byte	0x1
 20304 065d 55       		.byte	0x55
 20305 065e 68040000 		.4byte	.LVL691
 20306 0662 6C040000 		.4byte	.LVL693
 20307 0666 0100     		.2byte	0x1
 20308 0668 54       		.byte	0x54
 20309 0669 74040000 		.4byte	.LVL694
 20310 066d 76040000 		.4byte	.LVL695
 20311 0671 0100     		.2byte	0x1
 20312 0673 55       		.byte	0x55
 20313 0674 00000000 		.4byte	0
 20314 0678 00000000 		.4byte	0
 20315              	.LLST18:
 20316 067c E6000000 		.4byte	.LVL599
 20317 0680 00010000 		.4byte	.LVL600
 20318 0684 0100     		.2byte	0x1
 20319 0686 54       		.byte	0x54
 20320 0687 02010000 		.4byte	.LVL601
 20321 068b 0E010000 		.4byte	.LVL602
 20322 068f 0100     		.2byte	0x1
 20323 0691 54       		.byte	0x54
 20324 0692 FE010000 		.4byte	.LVL626
 20325 0696 18020000 		.4byte	.LVL627
ARM GAS  C:\Users\diego\AppData\Local\Temp\ccNdDNY6.s 			page 400


 20326 069a 0100     		.2byte	0x1
 20327 069c 54       		.byte	0x54
 20328 069d 1A020000 		.4byte	.LVL628
 20329 06a1 28020000 		.4byte	.LVL629
 20330 06a5 0100     		.2byte	0x1
 20331 06a7 54       		.byte	0x54
 20332 06a8 D0020000 		.4byte	.LVL645
 20333 06ac EA020000 		.4byte	.LVL646
 20334 06b0 0100     		.2byte	0x1
 20335 06b2 54       		.byte	0x54
 20336 06b3 EC020000 		.4byte	.LVL647
 20337 06b7 F8020000 		.4byte	.LVL648
 20338 06bb 0100     		.2byte	0x1
 20339 06bd 54       		.byte	0x54
 20340 06be 9A030000 		.4byte	.LVL663
 20341 06c2 B2030000 		.4byte	.LVL664
 20342 06c6 0100     		.2byte	0x1
 20343 06c8 53       		.byte	0x53
 20344 06c9 B4030000 		.4byte	.LVL665
 20345 06cd BC030000 		.4byte	.LVL666
 20346 06d1 0100     		.2byte	0x1
 20347 06d3 53       		.byte	0x53
 20348 06d4 00000000 		.4byte	0
 20349 06d8 00000000 		.4byte	0
 20350              	.LLST19:
 20351 06dc 14000000 		.4byte	.LVL580
 20352 06e0 5E000000 		.4byte	.LVL585
 20353 06e4 0200     		.2byte	0x2
 20354 06e6 30       		.byte	0x30
 20355 06e7 9F       		.byte	0x9f
 20356 06e8 5E000000 		.4byte	.LVL585
 20357 06ec 62000000 		.4byte	.LVL586
 20358 06f0 0100     		.2byte	0x1
 20359 06f2 55       		.byte	0x55
 20360 06f3 64000000 		.4byte	.LVL587
 20361 06f7 72000000 		.4byte	.LVL588
 20362 06fb 0100     		.2byte	0x1
 20363 06fd 55       		.byte	0x55
 20364 06fe 74000000 		.4byte	.LVL589
 20365 0702 88000000 		.4byte	.LVL592
 20366 0706 0100     		.2byte	0x1
 20367 0708 55       		.byte	0x55
 20368 0709 8A000000 		.4byte	.LVL593
 20369 070d C4010000 		.4byte	.LVL620
 20370 0711 0100     		.2byte	0x1
 20371 0713 55       		.byte	0x55
 20372 0714 C6010000 		.4byte	.LVL621
 20373 0718 D0020000 		.4byte	.LVL645
 20374 071c 0100     		.2byte	0x1
 20375 071e 55       		.byte	0x55
 20376 071f 68040000 		.4byte	.LVL691
 20377 0723 6C040000 		.4byte	.LVL693
 20378 0727 0100     		.2byte	0x1
 20379 0729 55       		.byte	0x55
 20380 072a 00000000 		.4byte	0
 20381 072e 00000000 		.4byte	0
 20382              	.LLST20:
ARM GAS  C:\Users\diego\AppData\Local\Temp\ccNdDNY6.s 			page 401


 20383 0732 00000000 		.4byte	.LVL696
 20384 0736 CE000000 		.4byte	.LVL697
 20385 073a 0100     		.2byte	0x1
 20386 073c 50       		.byte	0x50
 20387 073d CE000000 		.4byte	.LVL697
 20388 0741 C4020000 		.4byte	.LFE69
 20389 0745 0400     		.2byte	0x4
 20390 0747 F3       		.byte	0xf3
 20391 0748 01       		.uleb128 0x1
 20392 0749 50       		.byte	0x50
 20393 074a 9F       		.byte	0x9f
 20394 074b 00000000 		.4byte	0
 20395 074f 00000000 		.4byte	0
 20396              	.LLST21:
 20397 0753 62010000 		.4byte	.LVL698
 20398 0757 38020000 		.4byte	.LVL699
 20399 075b 0200     		.2byte	0x2
 20400 075d 3C       		.byte	0x3c
 20401 075e 9F       		.byte	0x9f
 20402 075f 38020000 		.4byte	.LVL699
 20403 0763 3C020000 		.4byte	.LVL700
 20404 0767 0200     		.2byte	0x2
 20405 0769 3E       		.byte	0x3e
 20406 076a 9F       		.byte	0x9f
 20407 076b 3C020000 		.4byte	.LVL700
 20408 076f 3E020000 		.4byte	.LVL701
 20409 0773 0200     		.2byte	0x2
 20410 0775 3C       		.byte	0x3c
 20411 0776 9F       		.byte	0x9f
 20412 0777 3E020000 		.4byte	.LVL701
 20413 077b A8020000 		.4byte	.LVL710
 20414 077f 0100     		.2byte	0x1
 20415 0781 55       		.byte	0x55
 20416 0782 00000000 		.4byte	0
 20417 0786 00000000 		.4byte	0
 20418              	.LLST22:
 20419 078a 00000000 		.4byte	.LVL711
 20420 078e 07000000 		.4byte	.LVL712-1
 20421 0792 0100     		.2byte	0x1
 20422 0794 50       		.byte	0x50
 20423 0795 07000000 		.4byte	.LVL712-1
 20424 0799 5C000000 		.4byte	.LFE70
 20425 079d 0400     		.2byte	0x4
 20426 079f F3       		.byte	0xf3
 20427 07a0 01       		.uleb128 0x1
 20428 07a1 50       		.byte	0x50
 20429 07a2 9F       		.byte	0x9f
 20430 07a3 00000000 		.4byte	0
 20431 07a7 00000000 		.4byte	0
 20432              	.LLST23:
 20433 07ab 2A000000 		.4byte	.LVL717
 20434 07af 4E000000 		.4byte	.LVL718
 20435 07b3 0100     		.2byte	0x1
 20436 07b5 50       		.byte	0x50
 20437 07b6 00000000 		.4byte	0
 20438 07ba 00000000 		.4byte	0
 20439              		.section	.debug_aranges,"",%progbits
ARM GAS  C:\Users\diego\AppData\Local\Temp\ccNdDNY6.s 			page 402


 20440 0000 54000000 		.4byte	0x54
 20441 0004 0200     		.2byte	0x2
 20442 0006 00000000 		.4byte	.Ldebug_info0
 20443 000a 04       		.byte	0x4
 20444 000b 00       		.byte	0
 20445 000c 0000     		.2byte	0
 20446 000e 0000     		.2byte	0
 20447 0010 00000000 		.4byte	.LFB63
 20448 0014 14010000 		.4byte	.LFE63-.LFB63
 20449 0018 00000000 		.4byte	.LFB64
 20450 001c 26000000 		.4byte	.LFE64-.LFB64
 20451 0020 00000000 		.4byte	.LFB65
 20452 0024 E8000000 		.4byte	.LFE65-.LFB65
 20453 0028 00000000 		.4byte	.LFB66
 20454 002c E8010000 		.4byte	.LFE66-.LFB66
 20455 0030 00000000 		.4byte	.LFB67
 20456 0034 80340000 		.4byte	.LFE67-.LFB67
 20457 0038 00000000 		.4byte	.LFB68
 20458 003c 84040000 		.4byte	.LFE68-.LFB68
 20459 0040 00000000 		.4byte	.LFB69
 20460 0044 C4020000 		.4byte	.LFE69-.LFB69
 20461 0048 00000000 		.4byte	.LFB70
 20462 004c 5C000000 		.4byte	.LFE70-.LFB70
 20463 0050 00000000 		.4byte	0
 20464 0054 00000000 		.4byte	0
 20465              		.section	.debug_ranges,"",%progbits
 20466              	.Ldebug_ranges0:
 20467 0000 00000000 		.4byte	.LFB63
 20468 0004 14010000 		.4byte	.LFE63
 20469 0008 00000000 		.4byte	.LFB64
 20470 000c 26000000 		.4byte	.LFE64
 20471 0010 00000000 		.4byte	.LFB65
 20472 0014 E8000000 		.4byte	.LFE65
 20473 0018 00000000 		.4byte	.LFB66
 20474 001c E8010000 		.4byte	.LFE66
 20475 0020 00000000 		.4byte	.LFB67
 20476 0024 80340000 		.4byte	.LFE67
 20477 0028 00000000 		.4byte	.LFB68
 20478 002c 84040000 		.4byte	.LFE68
 20479 0030 00000000 		.4byte	.LFB69
 20480 0034 C4020000 		.4byte	.LFE69
 20481 0038 00000000 		.4byte	.LFB70
 20482 003c 5C000000 		.4byte	.LFE70
 20483 0040 00000000 		.4byte	0
 20484 0044 00000000 		.4byte	0
 20485              		.section	.debug_line,"",%progbits
 20486              	.Ldebug_line0:
 20487 0000 B8170000 		.section	.debug_str,"MS",%progbits,1
 20487      02009101 
 20487      00000201 
 20487      FB0E0D00 
 20487      01010101 
 20488              	.LASF26:
 20489 0000 70617373 		.ascii	"password\000"
 20489      776F7264 
 20489      00
 20490              	.LASF68:
ARM GAS  C:\Users\diego\AppData\Local\Temp\ccNdDNY6.s 			page 403


 20491 0009 666C756A 		.ascii	"flujo_LCD2\000"
 20491      6F5F4C43 
 20491      443200
 20492              	.LASF31:
 20493 0014 66756E63 		.ascii	"funcion\000"
 20493      696F6E00 
 20494              	.LASF70:
 20495 001c 666C756A 		.ascii	"flujo_LCD4\000"
 20495      6F5F4C43 
 20495      443400
 20496              	.LASF76:
 20497 0027 76657273 		.ascii	"versurt\000"
 20497      75727400 
 20498              	.LASF28:
 20499 002f 62756666 		.ascii	"buffer\000"
 20499      657200
 20500              	.LASF8:
 20501 0036 756E7369 		.ascii	"unsigned int\000"
 20501      676E6564 
 20501      20696E74 
 20501      00
 20502              	.LASF108:
 20503 0043 636F7069 		.ascii	"copia_recibo2\000"
 20503      615F7265 
 20503      6369626F 
 20503      3200
 20504              	.LASF9:
 20505 0051 5F5F696E 		.ascii	"__int32_t\000"
 20505      7433325F 
 20505      7400
 20506              	.LASF24:
 20507 005b 706F7376 		.ascii	"posventa\000"
 20507      656E7461 
 20507      00
 20508              	.LASF96:
 20509 0064 7465636C 		.ascii	"teclado2\000"
 20509      61646F32 
 20509      00
 20510              	.LASF141:
 20511 006d 67726164 		.ascii	"grado2\000"
 20511      6F3200
 20512              	.LASF142:
 20513 0074 67726164 		.ascii	"grado3\000"
 20513      6F3300
 20514              	.LASF143:
 20515 007b 67726164 		.ascii	"grado4\000"
 20515      6F3400
 20516              	.LASF139:
 20517 0082 6D6F6475 		.ascii	"modulo\000"
 20517      6C6F00
 20518              	.LASF163:
 20519 0089 433A5C55 		.ascii	"C:\\Users\\diego\\Documents\\Insepet\\Prime-GRP700\\"
 20519      73657273 
 20519      5C646965 
 20519      676F5C44 
 20519      6F63756D 
 20520 00b7 576F726B 		.ascii	"Workspace01\\PGRP700.cydsn\000"
ARM GAS  C:\Users\diego\AppData\Local\Temp\ccNdDNY6.s 			page 404


 20520      73706163 
 20520      6530315C 
 20520      50475250 
 20520      3730302E 
 20521              	.LASF81:
 20522 00d1 70726F64 		.ascii	"producto1b\000"
 20522      7563746F 
 20522      316200
 20523              	.LASF85:
 20524 00dc 70726F64 		.ascii	"producto1c\000"
 20524      7563746F 
 20524      316300
 20525              	.LASF89:
 20526 00e7 70726F64 		.ascii	"producto1d\000"
 20526      7563746F 
 20526      316400
 20527              	.LASF140:
 20528 00f2 67726164 		.ascii	"grado1\000"
 20528      6F3100
 20529              	.LASF111:
 20530 00f9 70726F64 		.ascii	"producto1n\000"
 20530      7563746F 
 20530      316E00
 20531              	.LASF19:
 20532 0104 636F6D61 		.ascii	"comando\000"
 20532      6E646F00 
 20533              	.LASF62:
 20534 010c 64656369 		.ascii	"decimal\000"
 20534      6D616C00 
 20535              	.LASF124:
 20536 0114 65737461 		.ascii	"estado_lcd1\000"
 20536      646F5F6C 
 20536      63643100 
 20537              	.LASF125:
 20538 0120 65737461 		.ascii	"estado_lcd2\000"
 20538      646F5F6C 
 20538      63643200 
 20539              	.LASF155:
 20540 012c 77726974 		.ascii	"write_eeprom\000"
 20540      655F6565 
 20540      70726F6D 
 20540      00
 20541              	.LASF150:
 20542 0139 6D736E5F 		.ascii	"msn_totalcero\000"
 20542      746F7461 
 20542      6C636572 
 20542      6F00
 20543              	.LASF41:
 20544 0147 686F7261 		.ascii	"hora\000"
 20544      00
 20545              	.LASF72:
 20546 014c 7465636C 		.ascii	"teclas1\000"
 20546      61733100 
 20547              	.LASF73:
 20548 0154 7465636C 		.ascii	"teclas2\000"
 20548      61733200 
 20549              	.LASF153:
ARM GAS  C:\Users\diego\AppData\Local\Temp\ccNdDNY6.s 			page 405


 20550 015c 53757274 		.ascii	"Surtidor_GetRxBufferSize\000"
 20550      69646F72 
 20550      5F476574 
 20550      52784275 
 20550      66666572 
 20551              	.LASF47:
 20552 0175 7464696E 		.ascii	"tdinero\000"
 20552      65726F00 
 20553              	.LASF42:
 20554 017d 706F7369 		.ascii	"posicion\000"
 20554      63696F6E 
 20554      00
 20555              	.LASF145:
 20556 0186 7276656E 		.ascii	"rventa2\000"
 20556      74613200 
 20557              	.LASF101:
 20558 018e 64656369 		.ascii	"decimalD\000"
 20558      6D616C44 
 20558      00
 20559              	.LASF37:
 20560 0197 64697265 		.ascii	"direccion\000"
 20560      6363696F 
 20560      6E00
 20561              	.LASF82:
 20562 01a1 70726F64 		.ascii	"producto2b\000"
 20562      7563746F 
 20562      326200
 20563              	.LASF86:
 20564 01ac 70726F64 		.ascii	"producto2c\000"
 20564      7563746F 
 20564      326300
 20565              	.LASF90:
 20566 01b7 70726F64 		.ascii	"producto2d\000"
 20566      7563746F 
 20566      326400
 20567              	.LASF69:
 20568 01c2 666C756A 		.ascii	"flujo_LCD3\000"
 20568      6F5F4C43 
 20568      443300
 20569              	.LASF20:
 20570 01cd 70726573 		.ascii	"preset\000"
 20570      657400
 20571              	.LASF94:
 20572 01d4 72657375 		.ascii	"resultado\000"
 20572      6C746164 
 20572      6F00
 20573              	.LASF112:
 20574 01de 70726F64 		.ascii	"producto2n\000"
 20574      7563746F 
 20574      326E00
 20575              	.LASF114:
 20576 01e9 70726F64 		.ascii	"producto4n\000"
 20576      7563746F 
 20576      346E00
 20577              	.LASF14:
 20578 01f4 666C6F61 		.ascii	"float\000"
 20578      7400
ARM GAS  C:\Users\diego\AppData\Local\Temp\ccNdDNY6.s 			page 406


 20579              	.LASF148:
 20580 01fa 6D736E5F 		.ascii	"msn_lecaan\000"
 20580      6C656361 
 20580      616E00
 20581              	.LASF93:
 20582 0205 62756666 		.ascii	"buffer_i2c\000"
 20582      65725F69 
 20582      326300
 20583              	.LASF160:
 20584 0210 6F706572 		.ascii	"operacion\000"
 20584      6163696F 
 20584      6E00
 20585              	.LASF38:
 20586 021a 6C656D61 		.ascii	"lema1\000"
 20586      3100
 20587              	.LASF39:
 20588 0220 6C656D61 		.ascii	"lema2\000"
 20588      3200
 20589              	.LASF130:
 20590 0226 76656E74 		.ascii	"venta_activa2\000"
 20590      615F6163 
 20590      74697661 
 20590      3200
 20591              	.LASF129:
 20592 0234 76656E74 		.ascii	"venta_activa3\000"
 20592      615F6163 
 20592      74697661 
 20592      3300
 20593              	.LASF131:
 20594 0242 76656E74 		.ascii	"venta_activa4\000"
 20594      615F6163 
 20594      74697661 
 20594      3400
 20595              	.LASF7:
 20596 0250 6C6F6E67 		.ascii	"long long unsigned int\000"
 20596      206C6F6E 
 20596      6720756E 
 20596      7369676E 
 20596      65642069 
 20597              	.LASF95:
 20598 0267 7465636C 		.ascii	"teclado\000"
 20598      61646F00 
 20599              	.LASF22:
 20600 026f 6375656E 		.ascii	"cuenta\000"
 20600      746100
 20601              	.LASF83:
 20602 0276 70726F64 		.ascii	"producto3b\000"
 20602      7563746F 
 20602      336200
 20603              	.LASF87:
 20604 0281 70726F64 		.ascii	"producto3c\000"
 20604      7563746F 
 20604      336300
 20605              	.LASF91:
 20606 028c 70726F64 		.ascii	"producto3d\000"
 20606      7563746F 
 20606      336400
ARM GAS  C:\Users\diego\AppData\Local\Temp\ccNdDNY6.s 			page 407


 20607              	.LASF128:
 20608 0297 76656E74 		.ascii	"venta_activa\000"
 20608      615F6163 
 20608      74697661 
 20608      00
 20609              	.LASF126:
 20610 02a4 73656C65 		.ascii	"seleccion_pos\000"
 20610      6363696F 
 20610      6E5F706F 
 20610      7300
 20611              	.LASF146:
 20612 02b2 6D736E5F 		.ascii	"msn_tc\000"
 20612      746300
 20613              	.LASF113:
 20614 02b9 70726F64 		.ascii	"producto3n\000"
 20614      7563746F 
 20614      336E00
 20615              	.LASF65:
 20616 02c4 53757274 		.ascii	"Surtidor_rxBuffer\000"
 20616      69646F72 
 20616      5F727842 
 20616      75666665 
 20616      7200
 20617              	.LASF23:
 20618 02d6 706C6163 		.ascii	"placa\000"
 20618      6100
 20619              	.LASF58:
 20620 02dc 73757374 		.ascii	"sustraendo\000"
 20620      7261656E 
 20620      646F00
 20621              	.LASF127:
 20622 02e7 73656C65 		.ascii	"seleccion_pos2\000"
 20622      6363696F 
 20622      6E5F706F 
 20622      733200
 20623              	.LASF116:
 20624 02f6 6E5F636F 		.ascii	"n_copias\000"
 20624      70696173 
 20624      00
 20625              	.LASF121:
 20626 02ff 666C756A 		.ascii	"flujo_pos2\000"
 20626      6F5F706F 
 20626      733200
 20627              	.LASF122:
 20628 030a 666C756A 		.ascii	"flujo_pos3\000"
 20628      6F5F706F 
 20628      733300
 20629              	.LASF123:
 20630 0315 666C756A 		.ascii	"flujo_pos4\000"
 20630      6F5F706F 
 20630      733400
 20631              	.LASF48:
 20632 0320 7665725F 		.ascii	"ver_pos\000"
 20632      706F7300 
 20633              	.LASF45:
 20634 0328 766F6C75 		.ascii	"volumen\000"
 20634      6D656E00 
ARM GAS  C:\Users\diego\AppData\Local\Temp\ccNdDNY6.s 			page 408


 20635              	.LASF53:
 20636 0330 76656E74 		.ascii	"venta\000"
 20636      6100
 20637              	.LASF36:
 20638 0336 74656C65 		.ascii	"telefono\000"
 20638      666F6E6F 
 20638      00
 20639              	.LASF84:
 20640 033f 70726F64 		.ascii	"producto4b\000"
 20640      7563746F 
 20640      346200
 20641              	.LASF88:
 20642 034a 70726F64 		.ascii	"producto4c\000"
 20642      7563746F 
 20642      346300
 20643              	.LASF92:
 20644 0355 70726F64 		.ascii	"producto4d\000"
 20644      7563746F 
 20644      346400
 20645              	.LASF109:
 20646 0360 69645F76 		.ascii	"id_venta\000"
 20646      656E7461 
 20646      00
 20647              	.LASF46:
 20648 0369 74766F6C 		.ascii	"tvolumen\000"
 20648      756D656E 
 20648      00
 20649              	.LASF147:
 20650 0372 6D736E5F 		.ascii	"msn_lecact\000"
 20650      6C656361 
 20650      637400
 20651              	.LASF159:
 20652 037d 7072696E 		.ascii	"print_totales\000"
 20652      745F746F 
 20652      74616C65 
 20652      7300
 20653              	.LASF52:
 20654 038b 636F6D61 		.ascii	"comand_exten\000"
 20654      6E645F65 
 20654      7874656E 
 20654      00
 20655              	.LASF102:
 20656 0398 66656368 		.ascii	"fecha_corte\000"
 20656      615F636F 
 20656      72746500 
 20657              	.LASF16:
 20658 03a4 63686172 		.ascii	"char\000"
 20658      00
 20659              	.LASF56:
 20660 03a9 636F7274 		.ascii	"corte\000"
 20660      6500
 20661              	.LASF120:
 20662 03af 666C756A 		.ascii	"flujo_pos\000"
 20662      6F5F706F 
 20662      7300
 20663              	.LASF152:
 20664 03b9 43794465 		.ascii	"CyDelay\000"
ARM GAS  C:\Users\diego\AppData\Local\Temp\ccNdDNY6.s 			page 409


 20664      6C617900 
 20665              	.LASF12:
 20666 03c1 75696E74 		.ascii	"uint16\000"
 20666      313600
 20667              	.LASF149:
 20668 03c8 6D736E5F 		.ascii	"msn_tventas\000"
 20668      7476656E 
 20668      74617300 
 20669              	.LASF105:
 20670 03d4 7072696E 		.ascii	"print1\000"
 20670      743100
 20671              	.LASF106:
 20672 03db 7072696E 		.ascii	"print2\000"
 20672      743200
 20673              	.LASF27:
 20674 03e2 7475726E 		.ascii	"turno\000"
 20674      6F00
 20675              	.LASF164:
 20676 03e8 53757274 		.ascii	"Surtidor_ClearRxBuffer\000"
 20676      69646F72 
 20676      5F436C65 
 20676      61725278 
 20676      42756666 
 20677              	.LASF32:
 20678 03ff 746F7461 		.ascii	"totales\000"
 20678      6C657300 
 20679              	.LASF135:
 20680 0407 42756666 		.ascii	"Buffer_LCD2\000"
 20680      65725F4C 
 20680      43443200 
 20681              	.LASF6:
 20682 0413 6C6F6E67 		.ascii	"long long int\000"
 20682      206C6F6E 
 20682      6720696E 
 20682      7400
 20683              	.LASF43:
 20684 0421 70726F64 		.ascii	"producto\000"
 20684      7563746F 
 20684      00
 20685              	.LASF35:
 20686 042a 636F6E66 		.ascii	"configppu\000"
 20686      69677070 
 20686      7500
 20687              	.LASF63:
 20688 0434 63616D62 		.ascii	"cambiar_precio\000"
 20688      6961725F 
 20688      70726563 
 20688      696F00
 20689              	.LASF25:
 20690 0443 63656475 		.ascii	"cedula\000"
 20690      6C6100
 20691              	.LASF154:
 20692 044a 53757274 		.ascii	"Surtidor_ReadRxData\000"
 20692      69646F72 
 20692      5F526561 
 20692      64527844 
 20692      61746100 
ARM GAS  C:\Users\diego\AppData\Local\Temp\ccNdDNY6.s 			page 410


 20693              	.LASF110:
 20694 045e 6E6F6D62 		.ascii	"nombreproducto\000"
 20694      72657072 
 20694      6F647563 
 20694      746F00
 20695              	.LASF18:
 20696 046d 73697A65 		.ascii	"size\000"
 20696      00
 20697              	.LASF13:
 20698 0472 75696E74 		.ascii	"uint32\000"
 20698      333200
 20699              	.LASF132:
 20700 0479 69645F63 		.ascii	"id_corte\000"
 20700      6F727465 
 20700      00
 20701              	.LASF133:
 20702 0482 6E6F5F76 		.ascii	"no_venta\000"
 20702      656E7461 
 20702      00
 20703              	.LASF33:
 20704 048b 72656369 		.ascii	"recibo\000"
 20704      626F00
 20705              	.LASF44:
 20706 0492 64696E65 		.ascii	"dinero\000"
 20706      726F00
 20707              	.LASF134:
 20708 0499 42756666 		.ascii	"Buffer_LCD1\000"
 20708      65725F4C 
 20708      43443100 
 20709              	.LASF29:
 20710 04a5 65737461 		.ascii	"estado\000"
 20710      646F00
 20711              	.LASF136:
 20712 04ac 42756666 		.ascii	"Buffer_LCD3\000"
 20712      65725F4C 
 20712      43443300 
 20713              	.LASF137:
 20714 04b8 42756666 		.ascii	"Buffer_LCD4\000"
 20714      65725F4C 
 20714      43443400 
 20715              	.LASF158:
 20716 04c4 6C656572 		.ascii	"leer_eeprom\000"
 20716      5F656570 
 20716      726F6D00 
 20717              	.LASF119:
 20718 04d0 696D6167 		.ascii	"imagen\000"
 20718      656E00
 20719              	.LASF97:
 20720 04d7 70707578 		.ascii	"ppux10\000"
 20720      313000
 20721              	.LASF34:
 20722 04de 6E6F6D62 		.ascii	"nombre\000"
 20722      726500
 20723              	.LASF104:
 20724 04e5 6372635F 		.ascii	"crc_total\000"
 20724      746F7461 
 20724      6C00
ARM GAS  C:\Users\diego\AppData\Local\Temp\ccNdDNY6.s 			page 411


 20725              	.LASF67:
 20726 04ef 666C756A 		.ascii	"flujo_LCD\000"
 20726      6F5F4C43 
 20726      4400
 20727              	.LASF115:
 20728 04f9 615F636F 		.ascii	"a_copias\000"
 20728      70696173 
 20728      00
 20729              	.LASF103:
 20730 0502 706F735F 		.ascii	"pos_ibutton\000"
 20730      69627574 
 20730      746F6E00 
 20731              	.LASF2:
 20732 050e 73686F72 		.ascii	"short int\000"
 20732      7420696E 
 20732      7400
 20733              	.LASF4:
 20734 0518 6C6F6E67 		.ascii	"long int\000"
 20734      20696E74 
 20734      00
 20735              	.LASF107:
 20736 0521 636F7069 		.ascii	"copia_recibo\000"
 20736      615F7265 
 20736      6369626F 
 20736      00
 20737              	.LASF66:
 20738 052e 49544D5F 		.ascii	"ITM_RxBuffer\000"
 20738      52784275 
 20738      66666572 
 20738      00
 20739              	.LASF55:
 20740 053b 6765745F 		.ascii	"get_totales\000"
 20740      746F7461 
 20740      6C657300 
 20741              	.LASF162:
 20742 0547 2E5C7072 		.ascii	".\\protocolo.c\000"
 20742      6F746F63 
 20742      6F6C6F2E 
 20742      6300
 20743              	.LASF74:
 20744 0555 636F6D61 		.ascii	"comas1\000"
 20744      733100
 20745              	.LASF75:
 20746 055c 636F6D61 		.ascii	"comas2\000"
 20746      733200
 20747              	.LASF61:
 20748 0563 74656D70 		.ascii	"temp\000"
 20748      00
 20749              	.LASF77:
 20750 0568 70726F64 		.ascii	"producto1\000"
 20750      7563746F 
 20750      3100
 20751              	.LASF78:
 20752 0572 70726F64 		.ascii	"producto2\000"
 20752      7563746F 
 20752      3200
 20753              	.LASF79:
ARM GAS  C:\Users\diego\AppData\Local\Temp\ccNdDNY6.s 			page 412


 20754 057c 70726F64 		.ascii	"producto3\000"
 20754      7563746F 
 20754      3300
 20755              	.LASF80:
 20756 0586 70726F64 		.ascii	"producto4\000"
 20756      7563746F 
 20756      3400
 20757              	.LASF138:
 20758 0590 65737461 		.ascii	"estado_0\000"
 20758      646F5F30 
 20758      00
 20759              	.LASF50:
 20760 0599 65737461 		.ascii	"estado_ex\000"
 20760      646F5F65 
 20760      7800
 20761              	.LASF71:
 20762 05a3 636F6E74 		.ascii	"cont1\000"
 20762      3100
 20763              	.LASF59:
 20764 05a9 70726F67 		.ascii	"programar\000"
 20764      72616D61 
 20764      7200
 20765              	.LASF17:
 20766 05b3 73697A65 		.ascii	"sizetype\000"
 20766      74797065 
 20766      00
 20767              	.LASF5:
 20768 05bc 6C6F6E67 		.ascii	"long unsigned int\000"
 20768      20756E73 
 20768      69676E65 
 20768      6420696E 
 20768      7400
 20769              	.LASF54:
 20770 05ce 72785F76 		.ascii	"rx_venta\000"
 20770      656E7461 
 20770      00
 20771              	.LASF98:
 20772 05d7 62616E64 		.ascii	"bandera\000"
 20772      65726100 
 20773              	.LASF165:
 20774 05df 7072696E 		.ascii	"print_valor\000"
 20774      745F7661 
 20774      6C6F7200 
 20775              	.LASF10:
 20776 05eb 696E7433 		.ascii	"int32_t\000"
 20776      325F7400 
 20777              	.LASF118:
 20778 05f3 6E6F5F69 		.ascii	"no_imprime2\000"
 20778      6D707269 
 20778      6D653200 
 20779              	.LASF117:
 20780 05ff 6E6F5F69 		.ascii	"no_imprime\000"
 20780      6D707269 
 20780      6D6500
 20781              	.LASF1:
 20782 060a 756E7369 		.ascii	"unsigned char\000"
 20782      676E6564 
ARM GAS  C:\Users\diego\AppData\Local\Temp\ccNdDNY6.s 			page 413


 20782      20636861 
 20782      7200
 20783              	.LASF161:
 20784 0618 474E5520 		.ascii	"GNU C 4.9.3 20150303 (release) [ARM/embedded-4_9-br"
 20784      4320342E 
 20784      392E3320 
 20784      32303135 
 20784      30333033 
 20785 064b 616E6368 		.ascii	"anch revision 221220] -mcpu=cortex-m3 -mthumb -g -O"
 20785      20726576 
 20785      6973696F 
 20785      6E203232 
 20785      31323230 
 20786 067e 67202D66 		.ascii	"g -ffunction-sections -ffat-lto-objects\000"
 20786      66756E63 
 20786      74696F6E 
 20786      2D736563 
 20786      74696F6E 
 20787              	.LASF49:
 20788 06a6 6765745F 		.ascii	"get_estado\000"
 20788      65737461 
 20788      646F00
 20789              	.LASF40:
 20790 06b1 66656368 		.ascii	"fecha\000"
 20790      6100
 20791              	.LASF64:
 20792 06b7 61646472 		.ascii	"addr\000"
 20792      00
 20793              	.LASF0:
 20794 06bc 7369676E 		.ascii	"signed char\000"
 20794      65642063 
 20794      68617200 
 20795              	.LASF21:
 20796 06c8 76616C6F 		.ascii	"valor\000"
 20796      7200
 20797              	.LASF3:
 20798 06ce 73686F72 		.ascii	"short unsigned int\000"
 20798      7420756E 
 20798      7369676E 
 20798      65642069 
 20798      6E7400
 20799              	.LASF57:
 20800 06e1 6D696E75 		.ascii	"minuendo\000"
 20800      656E646F 
 20800      00
 20801              	.LASF151:
 20802 06ea 53757274 		.ascii	"Surtidor_PutChar\000"
 20802      69646F72 
 20802      5F507574 
 20802      43686172 
 20802      00
 20803              	.LASF100:
 20804 06fb 64656369 		.ascii	"decimalV\000"
 20804      6D616C56 
 20804      00
 20805              	.LASF157:
 20806 0704 7072696E 		.ascii	"print_totalesac\000"
ARM GAS  C:\Users\diego\AppData\Local\Temp\ccNdDNY6.s 			page 414


 20806      745F746F 
 20806      74616C65 
 20806      73616300 
 20807              	.LASF11:
 20808 0714 75696E74 		.ascii	"uint8\000"
 20808      3800
 20809              	.LASF15:
 20810 071a 646F7562 		.ascii	"double\000"
 20810      6C6500
 20811              	.LASF51:
 20812 0721 72785F65 		.ascii	"rx_extend\000"
 20812      7874656E 
 20812      6400
 20813              	.LASF99:
 20814 072b 7469706F 		.ascii	"tipo_imp\000"
 20814      5F696D70 
 20814      00
 20815              	.LASF30:
 20816 0734 6D616E67 		.ascii	"manguera\000"
 20816      75657261 
 20816      00
 20817              	.LASF144:
 20818 073d 7276656E 		.ascii	"rventa\000"
 20818      746100
 20819              	.LASF60:
 20820 0744 67726164 		.ascii	"grado\000"
 20820      6F00
 20821              	.LASF156:
 20822 074a 77726974 		.ascii	"write_psoc1\000"
 20822      655F7073 
 20822      6F633100 
 20823              		.ident	"GCC: (GNU Tools for ARM Embedded Processors) 4.9.3 20150303 (release) [ARM/embedded-4_9-br
